GAS LISTING C:\Users\ADMINI~1\AppData\Local\Temp/ccWEaXg2.s 			page 1


   1               		.file	"bootMapper.c"
   2               	__SREG__ = 0x3f
   3               	__SP_H__ = 0x3e
   4               	__SP_L__ = 0x3d
   5               	__CCP__  = 0x34
   6               	__tmp_reg__ = 0
   7               	__zero_reg__ = 1
   8               		.section	.debug_abbrev,"",@progbits
   9               	.Ldebug_abbrev0:
  10               		.section	.debug_info,"",@progbits
  11               	.Ldebug_info0:
  12               		.section	.debug_line,"",@progbits
  13               	.Ldebug_line0:
  14               		.text
  15               	.Ltext0:
  16               	.global	setToBootMapper
  17               		.type	setToBootMapper, @function
  18               	setToBootMapper:
  19               	.LFB7:
  20               	.LM1:
  21               	/* prologue: function */
  22               	/* frame size = 0 */
  23               	.LM2:
  24 0000 81E0      		ldi r24,lo8(1)
  25 0002 8093 0000 		sts _isBootMapper,r24
  26               	/* epilogue start */
  27               	.LM3:
  28 0006 0895      		ret
  29               	.LFE7:
  30               		.size	setToBootMapper, .-setToBootMapper
  31               	.global	isBootMapper
  32               		.type	isBootMapper, @function
  33               	isBootMapper:
  34               	.LFB8:
  35               	.LM4:
  36               	/* prologue: function */
  37               	/* frame size = 0 */
  38               	.LM5:
  39 0008 8091 0000 		lds r24,_isBootMapper
  40               	/* epilogue start */
  41 000c 0895      		ret
  42               	.LFE8:
  43               		.size	isBootMapper, .-isBootMapper
  44               		.data
  45               	.LC0:
  46 0000 2D00      		.string	"-"
  47               	.LC1:
  48 0002 2C00      		.string	","
  49               	.LC2:
  50 0004 3D00      		.string	"="
  51               		.text
  52               	.global	trace
  53               		.type	trace, @function
  54               	trace:
  55               	.LFB9:
  56               	.LM6:
  57               	.LVL0:
GAS LISTING C:\Users\ADMINI~1\AppData\Local\Temp/ccWEaXg2.s 			page 2


  58 000e 0F93      		push r16
  59 0010 1F93      		push r17
  60               	/* prologue: function */
  61               	/* frame size = 0 */
  62 0012 082F      		mov r16,r24
  63 0014 162F      		mov r17,r22
  64               	.LM7:
  65 0016 80E0      		ldi r24,lo8(.LC0)
  66 0018 90E0      		ldi r25,hi8(.LC0)
  67               	.LVL1:
  68 001a 0E94 0000 		call printString
  69               	.LVL2:
  70               	.LM8:
  71 001e 812F      		mov r24,r17
  72 0020 0E94 0000 		call toString
  73 0024 0E94 0000 		call printString
  74               	.LM9:
  75 0028 80E0      		ldi r24,lo8(.LC1)
  76 002a 90E0      		ldi r25,hi8(.LC1)
  77 002c 0E94 0000 		call printString
  78               	.LM10:
  79 0030 802F      		mov r24,r16
  80 0032 0E94 0000 		call toString
  81 0036 0E94 0000 		call printString
  82               	.LM11:
  83 003a 80E0      		ldi r24,lo8(.LC2)
  84 003c 90E0      		ldi r25,hi8(.LC2)
  85 003e 0E94 0000 		call printString
  86               	/* epilogue start */
  87               	.LM12:
  88 0042 1F91      		pop r17
  89               	.LVL3:
  90 0044 0F91      		pop r16
  91               	.LVL4:
  92 0046 0895      		ret
  93               	.LFE9:
  94               		.size	trace, .-trace
  95               		.lcomm _isBootMapper,1
  96               		.section	.debug_frame,"",@progbits
  97               	.Lframe0:
  98 0000 0C00 0000 		.long	.LECIE0-.LSCIE0
  99               	.LSCIE0:
 100 0004 FFFF FFFF 		.long	0xffffffff
 101 0008 01        		.byte	0x1
 102 0009 00        		.string	""
 103 000a 01        		.uleb128 0x1
 104 000b 7F        		.sleb128 -1
 105 000c 24        		.byte	0x24
 106 000d 0C        		.byte	0xc
 107 000e 20        		.uleb128 0x20
 108 000f 00        		.uleb128 0x0
 109               		.p2align	2
 110               	.LECIE0:
 111               	.LSFDE0:
 112 0010 0C00 0000 		.long	.LEFDE0-.LASFDE0
 113               	.LASFDE0:
 114 0014 0000 0000 		.long	.Lframe0
GAS LISTING C:\Users\ADMINI~1\AppData\Local\Temp/ccWEaXg2.s 			page 3


 115 0018 0000 0000 		.long	.LFB7
 116 001c 0800 0000 		.long	.LFE7-.LFB7
 117               		.p2align	2
 118               	.LEFDE0:
 119               	.LSFDE2:
 120 0020 0C00 0000 		.long	.LEFDE2-.LASFDE2
 121               	.LASFDE2:
 122 0024 0000 0000 		.long	.Lframe0
 123 0028 0000 0000 		.long	.LFB8
 124 002c 0600 0000 		.long	.LFE8-.LFB8
 125               		.p2align	2
 126               	.LEFDE2:
 127               	.LSFDE4:
 128 0030 0C00 0000 		.long	.LEFDE4-.LASFDE4
 129               	.LASFDE4:
 130 0034 0000 0000 		.long	.Lframe0
 131 0038 0000 0000 		.long	.LFB9
 132 003c 3A00 0000 		.long	.LFE9-.LFB9
 133               		.p2align	2
 134               	.LEFDE4:
 135               		.text
 136               	.Letext0:
 137               		.section	.debug_loc,"",@progbits
 138               	.Ldebug_loc0:
 139               	.LLST3:
 140 0000 0E00 0000 		.long	.LVL0-.Ltext0
 141 0004 1A00 0000 		.long	.LVL1-.Ltext0
 142 0008 0100      		.word	0x1
 143 000a 68        		.byte	0x68
 144 000b 1A00 0000 		.long	.LVL1-.Ltext0
 145 000f 4600 0000 		.long	.LVL4-.Ltext0
 146 0013 0100      		.word	0x1
 147 0015 60        		.byte	0x60
 148 0016 0000 0000 		.long	0x0
 149 001a 0000 0000 		.long	0x0
 150               	.LLST4:
 151 001e 0E00 0000 		.long	.LVL0-.Ltext0
 152 0022 1E00 0000 		.long	.LVL2-.Ltext0
 153 0026 0100      		.word	0x1
 154 0028 66        		.byte	0x66
 155 0029 1E00 0000 		.long	.LVL2-.Ltext0
 156 002d 4400 0000 		.long	.LVL3-.Ltext0
 157 0031 0100      		.word	0x1
 158 0033 61        		.byte	0x61
 159 0034 0000 0000 		.long	0x0
 160 0038 0000 0000 		.long	0x0
 161               		.section	.debug_info
 162 0000 F400 0000 		.long	0xf4
 163 0004 0200      		.word	0x2
 164 0006 0000 0000 		.long	.Ldebug_abbrev0
 165 000a 04        		.byte	0x4
 166 000b 01        		.uleb128 0x1
 167 000c 0000 0000 		.long	.LASF12
 168 0010 01        		.byte	0x1
 169 0011 0000 0000 		.long	.LASF13
 170 0015 0000 0000 		.long	.LASF14
 171 0019 0000 0000 		.long	.Ltext0
GAS LISTING C:\Users\ADMINI~1\AppData\Local\Temp/ccWEaXg2.s 			page 4


 172 001d 0000 0000 		.long	.Letext0
 173 0021 0000 0000 		.long	.Ldebug_line0
 174 0025 02        		.uleb128 0x2
 175 0026 01        		.byte	0x1
 176 0027 06        		.byte	0x6
 177 0028 0000 0000 		.long	.LASF0
 178 002c 03        		.uleb128 0x3
 179 002d 0000 0000 		.long	.LASF15
 180 0031 02        		.byte	0x2
 181 0032 7A        		.byte	0x7a
 182 0033 3700 0000 		.long	0x37
 183 0037 02        		.uleb128 0x2
 184 0038 01        		.byte	0x1
 185 0039 08        		.byte	0x8
 186 003a 0000 0000 		.long	.LASF1
 187 003e 04        		.uleb128 0x4
 188 003f 02        		.byte	0x2
 189 0040 05        		.byte	0x5
 190 0041 696E 7400 		.string	"int"
 191 0045 02        		.uleb128 0x2
 192 0046 02        		.byte	0x2
 193 0047 07        		.byte	0x7
 194 0048 0000 0000 		.long	.LASF2
 195 004c 02        		.uleb128 0x2
 196 004d 04        		.byte	0x4
 197 004e 05        		.byte	0x5
 198 004f 0000 0000 		.long	.LASF3
 199 0053 02        		.uleb128 0x2
 200 0054 04        		.byte	0x4
 201 0055 07        		.byte	0x7
 202 0056 0000 0000 		.long	.LASF4
 203 005a 02        		.uleb128 0x2
 204 005b 08        		.byte	0x8
 205 005c 05        		.byte	0x5
 206 005d 0000 0000 		.long	.LASF5
 207 0061 02        		.uleb128 0x2
 208 0062 08        		.byte	0x8
 209 0063 07        		.byte	0x7
 210 0064 0000 0000 		.long	.LASF6
 211 0068 02        		.uleb128 0x2
 212 0069 01        		.byte	0x1
 213 006a 06        		.byte	0x6
 214 006b 0000 0000 		.long	.LASF7
 215 006f 05        		.uleb128 0x5
 216 0070 01        		.byte	0x1
 217 0071 06        		.byte	0x6
 218 0072 05        		.uleb128 0x5
 219 0073 01        		.byte	0x1
 220 0074 08        		.byte	0x8
 221 0075 02        		.uleb128 0x2
 222 0076 02        		.byte	0x2
 223 0077 07        		.byte	0x7
 224 0078 0000 0000 		.long	.LASF8
 225 007c 02        		.uleb128 0x2
 226 007d 02        		.byte	0x2
 227 007e 05        		.byte	0x5
 228 007f 0000 0000 		.long	.LASF9
GAS LISTING C:\Users\ADMINI~1\AppData\Local\Temp/ccWEaXg2.s 			page 5


 229 0083 06        		.uleb128 0x6
 230 0084 01        		.byte	0x1
 231 0085 0000 0000 		.long	.LASF16
 232 0089 01        		.byte	0x1
 233 008a 10        		.byte	0x10
 234 008b 01        		.byte	0x1
 235 008c 0000 0000 		.long	.LFB7
 236 0090 0000 0000 		.long	.LFE7
 237 0094 02        		.byte	0x2
 238 0095 90        		.byte	0x90
 239 0096 20        		.uleb128 0x20
 240 0097 07        		.uleb128 0x7
 241 0098 01        		.byte	0x1
 242 0099 0000 0000 		.long	.LASF17
 243 009d 01        		.byte	0x1
 244 009e 13        		.byte	0x13
 245 009f 01        		.byte	0x1
 246 00a0 2C00 0000 		.long	0x2c
 247 00a4 0000 0000 		.long	.LFB8
 248 00a8 0000 0000 		.long	.LFE8
 249 00ac 02        		.byte	0x2
 250 00ad 90        		.byte	0x90
 251 00ae 20        		.uleb128 0x20
 252 00af 08        		.uleb128 0x8
 253 00b0 01        		.byte	0x1
 254 00b1 0000 0000 		.long	.LASF18
 255 00b5 01        		.byte	0x1
 256 00b6 16        		.byte	0x16
 257 00b7 01        		.byte	0x1
 258 00b8 0000 0000 		.long	.LFB9
 259 00bc 0000 0000 		.long	.LFE9
 260 00c0 02        		.byte	0x2
 261 00c1 90        		.byte	0x90
 262 00c2 20        		.uleb128 0x20
 263 00c3 E600 0000 		.long	0xe6
 264 00c7 09        		.uleb128 0x9
 265 00c8 0000 0000 		.long	.LASF10
 266 00cc 01        		.byte	0x1
 267 00cd 16        		.byte	0x16
 268 00ce 2C00 0000 		.long	0x2c
 269 00d2 0000 0000 		.long	.LLST3
 270 00d6 09        		.uleb128 0x9
 271 00d7 0000 0000 		.long	.LASF11
 272 00db 01        		.byte	0x1
 273 00dc 16        		.byte	0x16
 274 00dd 2C00 0000 		.long	0x2c
 275 00e1 0000 0000 		.long	.LLST4
 276 00e5 00        		.byte	0x0
 277 00e6 0A        		.uleb128 0xa
 278 00e7 0000 0000 		.long	.LASF19
 279 00eb 01        		.byte	0x1
 280 00ec 0F        		.byte	0xf
 281 00ed 2C00 0000 		.long	0x2c
 282 00f1 05        		.byte	0x5
 283 00f2 03        		.byte	0x3
 284 00f3 0000 0000 		.long	_isBootMapper
 285 00f7 00        		.byte	0x0
GAS LISTING C:\Users\ADMINI~1\AppData\Local\Temp/ccWEaXg2.s 			page 6


 286               		.section	.debug_abbrev
 287 0000 01        		.uleb128 0x1
 288 0001 11        		.uleb128 0x11
 289 0002 01        		.byte	0x1
 290 0003 25        		.uleb128 0x25
 291 0004 0E        		.uleb128 0xe
 292 0005 13        		.uleb128 0x13
 293 0006 0B        		.uleb128 0xb
 294 0007 03        		.uleb128 0x3
 295 0008 0E        		.uleb128 0xe
 296 0009 1B        		.uleb128 0x1b
 297 000a 0E        		.uleb128 0xe
 298 000b 11        		.uleb128 0x11
 299 000c 01        		.uleb128 0x1
 300 000d 12        		.uleb128 0x12
 301 000e 01        		.uleb128 0x1
 302 000f 10        		.uleb128 0x10
 303 0010 06        		.uleb128 0x6
 304 0011 00        		.byte	0x0
 305 0012 00        		.byte	0x0
 306 0013 02        		.uleb128 0x2
 307 0014 24        		.uleb128 0x24
 308 0015 00        		.byte	0x0
 309 0016 0B        		.uleb128 0xb
 310 0017 0B        		.uleb128 0xb
 311 0018 3E        		.uleb128 0x3e
 312 0019 0B        		.uleb128 0xb
 313 001a 03        		.uleb128 0x3
 314 001b 0E        		.uleb128 0xe
 315 001c 00        		.byte	0x0
 316 001d 00        		.byte	0x0
 317 001e 03        		.uleb128 0x3
 318 001f 16        		.uleb128 0x16
 319 0020 00        		.byte	0x0
 320 0021 03        		.uleb128 0x3
 321 0022 0E        		.uleb128 0xe
 322 0023 3A        		.uleb128 0x3a
 323 0024 0B        		.uleb128 0xb
 324 0025 3B        		.uleb128 0x3b
 325 0026 0B        		.uleb128 0xb
 326 0027 49        		.uleb128 0x49
 327 0028 13        		.uleb128 0x13
 328 0029 00        		.byte	0x0
 329 002a 00        		.byte	0x0
 330 002b 04        		.uleb128 0x4
 331 002c 24        		.uleb128 0x24
 332 002d 00        		.byte	0x0
 333 002e 0B        		.uleb128 0xb
 334 002f 0B        		.uleb128 0xb
 335 0030 3E        		.uleb128 0x3e
 336 0031 0B        		.uleb128 0xb
 337 0032 03        		.uleb128 0x3
 338 0033 08        		.uleb128 0x8
 339 0034 00        		.byte	0x0
 340 0035 00        		.byte	0x0
 341 0036 05        		.uleb128 0x5
 342 0037 24        		.uleb128 0x24
GAS LISTING C:\Users\ADMINI~1\AppData\Local\Temp/ccWEaXg2.s 			page 7


 343 0038 00        		.byte	0x0
 344 0039 0B        		.uleb128 0xb
 345 003a 0B        		.uleb128 0xb
 346 003b 3E        		.uleb128 0x3e
 347 003c 0B        		.uleb128 0xb
 348 003d 00        		.byte	0x0
 349 003e 00        		.byte	0x0
 350 003f 06        		.uleb128 0x6
 351 0040 2E        		.uleb128 0x2e
 352 0041 00        		.byte	0x0
 353 0042 3F        		.uleb128 0x3f
 354 0043 0C        		.uleb128 0xc
 355 0044 03        		.uleb128 0x3
 356 0045 0E        		.uleb128 0xe
 357 0046 3A        		.uleb128 0x3a
 358 0047 0B        		.uleb128 0xb
 359 0048 3B        		.uleb128 0x3b
 360 0049 0B        		.uleb128 0xb
 361 004a 27        		.uleb128 0x27
 362 004b 0C        		.uleb128 0xc
 363 004c 11        		.uleb128 0x11
 364 004d 01        		.uleb128 0x1
 365 004e 12        		.uleb128 0x12
 366 004f 01        		.uleb128 0x1
 367 0050 40        		.uleb128 0x40
 368 0051 0A        		.uleb128 0xa
 369 0052 00        		.byte	0x0
 370 0053 00        		.byte	0x0
 371 0054 07        		.uleb128 0x7
 372 0055 2E        		.uleb128 0x2e
 373 0056 00        		.byte	0x0
 374 0057 3F        		.uleb128 0x3f
 375 0058 0C        		.uleb128 0xc
 376 0059 03        		.uleb128 0x3
 377 005a 0E        		.uleb128 0xe
 378 005b 3A        		.uleb128 0x3a
 379 005c 0B        		.uleb128 0xb
 380 005d 3B        		.uleb128 0x3b
 381 005e 0B        		.uleb128 0xb
 382 005f 27        		.uleb128 0x27
 383 0060 0C        		.uleb128 0xc
 384 0061 49        		.uleb128 0x49
 385 0062 13        		.uleb128 0x13
 386 0063 11        		.uleb128 0x11
 387 0064 01        		.uleb128 0x1
 388 0065 12        		.uleb128 0x12
 389 0066 01        		.uleb128 0x1
 390 0067 40        		.uleb128 0x40
 391 0068 0A        		.uleb128 0xa
 392 0069 00        		.byte	0x0
 393 006a 00        		.byte	0x0
 394 006b 08        		.uleb128 0x8
 395 006c 2E        		.uleb128 0x2e
 396 006d 01        		.byte	0x1
 397 006e 3F        		.uleb128 0x3f
 398 006f 0C        		.uleb128 0xc
 399 0070 03        		.uleb128 0x3
GAS LISTING C:\Users\ADMINI~1\AppData\Local\Temp/ccWEaXg2.s 			page 8


 400 0071 0E        		.uleb128 0xe
 401 0072 3A        		.uleb128 0x3a
 402 0073 0B        		.uleb128 0xb
 403 0074 3B        		.uleb128 0x3b
 404 0075 0B        		.uleb128 0xb
 405 0076 27        		.uleb128 0x27
 406 0077 0C        		.uleb128 0xc
 407 0078 11        		.uleb128 0x11
 408 0079 01        		.uleb128 0x1
 409 007a 12        		.uleb128 0x12
 410 007b 01        		.uleb128 0x1
 411 007c 40        		.uleb128 0x40
 412 007d 0A        		.uleb128 0xa
 413 007e 01        		.uleb128 0x1
 414 007f 13        		.uleb128 0x13
 415 0080 00        		.byte	0x0
 416 0081 00        		.byte	0x0
 417 0082 09        		.uleb128 0x9
 418 0083 05        		.uleb128 0x5
 419 0084 00        		.byte	0x0
 420 0085 03        		.uleb128 0x3
 421 0086 0E        		.uleb128 0xe
 422 0087 3A        		.uleb128 0x3a
 423 0088 0B        		.uleb128 0xb
 424 0089 3B        		.uleb128 0x3b
 425 008a 0B        		.uleb128 0xb
 426 008b 49        		.uleb128 0x49
 427 008c 13        		.uleb128 0x13
 428 008d 02        		.uleb128 0x2
 429 008e 06        		.uleb128 0x6
 430 008f 00        		.byte	0x0
 431 0090 00        		.byte	0x0
 432 0091 0A        		.uleb128 0xa
 433 0092 34        		.uleb128 0x34
 434 0093 00        		.byte	0x0
 435 0094 03        		.uleb128 0x3
 436 0095 0E        		.uleb128 0xe
 437 0096 3A        		.uleb128 0x3a
 438 0097 0B        		.uleb128 0xb
 439 0098 3B        		.uleb128 0x3b
 440 0099 0B        		.uleb128 0xb
 441 009a 49        		.uleb128 0x49
 442 009b 13        		.uleb128 0x13
 443 009c 02        		.uleb128 0x2
 444 009d 0A        		.uleb128 0xa
 445 009e 00        		.byte	0x0
 446 009f 00        		.byte	0x0
 447 00a0 00        		.byte	0x0
 448               		.section	.debug_pubnames,"",@progbits
 449 0000 3D00 0000 		.long	0x3d
 450 0004 0200      		.word	0x2
 451 0006 0000 0000 		.long	.Ldebug_info0
 452 000a F800 0000 		.long	0xf8
 453 000e 8300 0000 		.long	0x83
 454 0012 7365 7454 		.string	"setToBootMapper"
 454      6F42 6F6F 
 454      744D 6170 
GAS LISTING C:\Users\ADMINI~1\AppData\Local\Temp/ccWEaXg2.s 			page 9


 454      7065 7200 
 455 0022 9700 0000 		.long	0x97
 456 0026 6973 426F 		.string	"isBootMapper"
 456      6F74 4D61 
 456      7070 6572 
 456      00
 457 0033 AF00 0000 		.long	0xaf
 458 0037 7472 6163 		.string	"trace"
 458      6500 
 459 003d 0000 0000 		.long	0x0
 460               		.section	.debug_aranges,"",@progbits
 461 0000 1C00 0000 		.long	0x1c
 462 0004 0200      		.word	0x2
 463 0006 0000 0000 		.long	.Ldebug_info0
 464 000a 04        		.byte	0x4
 465 000b 00        		.byte	0x0
 466 000c 0000      		.word	0x0
 467 000e 0000      		.word	0x0
 468 0010 0000 0000 		.long	.Ltext0
 469 0014 4800 0000 		.long	.Letext0-.Ltext0
 470 0018 0000 0000 		.long	0x0
 471 001c 0000 0000 		.long	0x0
 472               		.section	.debug_line
 473 0000 C900 0000 		.long	.LELT0-.LSLT0
 474               	.LSLT0:
 475 0004 0200      		.word	0x2
 476 0006 5900 0000 		.long	.LELTP0-.LASLTP0
 477               	.LASLTP0:
 478 000a 01        		.byte	0x1
 479 000b 01        		.byte	0x1
 480 000c F6        		.byte	0xf6
 481 000d F5        		.byte	0xf5
 482 000e 0A        		.byte	0xa
 483 000f 00        		.byte	0x0
 484 0010 01        		.byte	0x1
 485 0011 01        		.byte	0x1
 486 0012 01        		.byte	0x1
 487 0013 01        		.byte	0x1
 488 0014 00        		.byte	0x0
 489 0015 00        		.byte	0x0
 490 0016 00        		.byte	0x0
 491 0017 01        		.byte	0x1
 492 0018 633A 2F77 		.ascii	"c:/winavr-20100110/lib/gcc/../../avr/include"
 492      696E 6176 
 492      722D 3230 
 492      3130 3031 
 492      3130 2F6C 
 493 0044 00        		.byte	0
 494 0045 00        		.byte	0x0
 495 0046 626F 6F74 		.string	"bootMapper.c"
 495      4D61 7070 
 495      6572 2E63 
 495      00
 496 0053 00        		.uleb128 0x0
 497 0054 00        		.uleb128 0x0
 498 0055 00        		.uleb128 0x0
 499 0056 7374 6469 		.string	"stdint.h"
GAS LISTING C:\Users\ADMINI~1\AppData\Local\Temp/ccWEaXg2.s 			page 10


 499      6E74 2E68 
 499      00
 500 005f 01        		.uleb128 0x1
 501 0060 00        		.uleb128 0x0
 502 0061 00        		.uleb128 0x0
 503 0062 00        		.byte	0x0
 504               	.LELTP0:
 505 0063 00        		.byte	0x0
 506 0064 05        		.uleb128 0x5
 507 0065 02        		.byte	0x2
 508 0066 0000 0000 		.long	.LM1
 509 006a 23        		.byte	0x23
 510 006b 00        		.byte	0x0
 511 006c 05        		.uleb128 0x5
 512 006d 02        		.byte	0x2
 513 006e 0000 0000 		.long	.LM2
 514 0072 15        		.byte	0x15
 515 0073 00        		.byte	0x0
 516 0074 05        		.uleb128 0x5
 517 0075 02        		.byte	0x2
 518 0076 0000 0000 		.long	.LM3
 519 007a 15        		.byte	0x15
 520 007b 00        		.byte	0x0
 521 007c 05        		.uleb128 0x5
 522 007d 02        		.byte	0x2
 523 007e 0000 0000 		.long	.LM4
 524 0082 15        		.byte	0x15
 525 0083 00        		.byte	0x0
 526 0084 05        		.uleb128 0x5
 527 0085 02        		.byte	0x2
 528 0086 0000 0000 		.long	.LM5
 529 008a 16        		.byte	0x16
 530 008b 00        		.byte	0x0
 531 008c 05        		.uleb128 0x5
 532 008d 02        		.byte	0x2
 533 008e 0000 0000 		.long	.LM6
 534 0092 15        		.byte	0x15
 535 0093 00        		.byte	0x0
 536 0094 05        		.uleb128 0x5
 537 0095 02        		.byte	0x2
 538 0096 0000 0000 		.long	.LM7
 539 009a 16        		.byte	0x16
 540 009b 00        		.byte	0x0
 541 009c 05        		.uleb128 0x5
 542 009d 02        		.byte	0x2
 543 009e 0000 0000 		.long	.LM8
 544 00a2 15        		.byte	0x15
 545 00a3 00        		.byte	0x0
 546 00a4 05        		.uleb128 0x5
 547 00a5 02        		.byte	0x2
 548 00a6 0000 0000 		.long	.LM9
 549 00aa 15        		.byte	0x15
 550 00ab 00        		.byte	0x0
 551 00ac 05        		.uleb128 0x5
 552 00ad 02        		.byte	0x2
 553 00ae 0000 0000 		.long	.LM10
 554 00b2 15        		.byte	0x15
GAS LISTING C:\Users\ADMINI~1\AppData\Local\Temp/ccWEaXg2.s 			page 11


 555 00b3 00        		.byte	0x0
 556 00b4 05        		.uleb128 0x5
 557 00b5 02        		.byte	0x2
 558 00b6 0000 0000 		.long	.LM11
 559 00ba 15        		.byte	0x15
 560 00bb 00        		.byte	0x0
 561 00bc 05        		.uleb128 0x5
 562 00bd 02        		.byte	0x2
 563 00be 0000 0000 		.long	.LM12
 564 00c2 15        		.byte	0x15
 565 00c3 00        		.byte	0x0
 566 00c4 05        		.uleb128 0x5
 567 00c5 02        		.byte	0x2
 568 00c6 0000 0000 		.long	.Letext0
 569 00ca 00        		.byte	0x0
 570 00cb 01        		.uleb128 0x1
 571 00cc 01        		.byte	0x1
 572               	.LELT0:
 573 00cd 1600 0000 		.section	.debug_str,"MS",@progbits,1
 573      0200 1000 
 573      0000 0101 
 573      FB0E 0A00 
 573      0101 0101 
 574               	.LASF5:
 575 0000 6C6F 6E67 		.string	"long long int"
 575      206C 6F6E 
 575      6720 696E 
 575      7400 
 576               	.LASF2:
 577 000e 756E 7369 		.string	"unsigned int"
 577      676E 6564 
 577      2069 6E74 
 577      00
 578               	.LASF19:
 579 001b 5F69 7342 		.string	"_isBootMapper"
 579      6F6F 744D 
 579      6170 7065 
 579      7200 
 580               	.LASF17:
 581 0029 6973 426F 		.string	"isBootMapper"
 581      6F74 4D61 
 581      7070 6572 
 581      00
 582               	.LASF4:
 583 0036 6C6F 6E67 		.string	"long unsigned int"
 583      2075 6E73 
 583      6967 6E65 
 583      6420 696E 
 583      7400 
 584               	.LASF6:
 585 0048 6C6F 6E67 		.string	"long long unsigned int"
 585      206C 6F6E 
 585      6720 756E 
 585      7369 676E 
 585      6564 2069 
 586               	.LASF11:
 587 005f 7843 6F6C 		.string	"xCol"
GAS LISTING C:\Users\ADMINI~1\AppData\Local\Temp/ccWEaXg2.s 			page 12


 587      00
 588               	.LASF10:
 589 0064 7852 6F77 		.string	"xRow"
 589      00
 590               	.LASF13:
 591 0069 626F 6F74 		.string	"bootMapper.c"
 591      4D61 7070 
 591      6572 2E63 
 591      00
 592               	.LASF15:
 593 0076 7569 6E74 		.string	"uint8_t"
 593      385F 7400 
 594               	.LASF1:
 595 007e 756E 7369 		.string	"unsigned char"
 595      676E 6564 
 595      2063 6861 
 595      7200 
 596               	.LASF7:
 597 008c 6368 6172 		.string	"char"
 597      00
 598               	.LASF14:
 599 0091 443A 5C67 		.string	"D:\\git\\ps2avrU\\source"
 599      6974 5C70 
 599      7332 6176 
 599      7255 5C73 
 599      6F75 7263 
 600               	.LASF3:
 601 00a7 6C6F 6E67 		.string	"long int"
 601      2069 6E74 
 601      00
 602               	.LASF9:
 603 00b0 7368 6F72 		.string	"short int"
 603      7420 696E 
 603      7400 
 604               	.LASF8:
 605 00ba 7368 6F72 		.string	"short unsigned int"
 605      7420 756E 
 605      7369 676E 
 605      6564 2069 
 605      6E74 00
 606               	.LASF0:
 607 00cd 7369 676E 		.string	"signed char"
 607      6564 2063 
 607      6861 7200 
 608               	.LASF18:
 609 00d9 7472 6163 		.string	"trace"
 609      6500 
 610               	.LASF12:
 611 00df 474E 5520 		.string	"GNU C 4.3.3"
 611      4320 342E 
 611      332E 3300 
 612               	.LASF16:
 613 00eb 7365 7454 		.string	"setToBootMapper"
 613      6F42 6F6F 
 613      744D 6170 
 613      7065 7200 
 614               	.global __do_copy_data
GAS LISTING C:\Users\ADMINI~1\AppData\Local\Temp/ccWEaXg2.s 			page 13


 615               	.global __do_clear_bss
GAS LISTING C:\Users\ADMINI~1\AppData\Local\Temp/ccWEaXg2.s 			page 14


DEFINED SYMBOLS
                            *ABS*:00000000 bootMapper.c
C:\Users\ADMINI~1\AppData\Local\Temp/ccWEaXg2.s:2      *ABS*:0000003f __SREG__
C:\Users\ADMINI~1\AppData\Local\Temp/ccWEaXg2.s:3      *ABS*:0000003e __SP_H__
C:\Users\ADMINI~1\AppData\Local\Temp/ccWEaXg2.s:4      *ABS*:0000003d __SP_L__
C:\Users\ADMINI~1\AppData\Local\Temp/ccWEaXg2.s:5      *ABS*:00000034 __CCP__
C:\Users\ADMINI~1\AppData\Local\Temp/ccWEaXg2.s:6      *ABS*:00000000 __tmp_reg__
C:\Users\ADMINI~1\AppData\Local\Temp/ccWEaXg2.s:7      *ABS*:00000001 __zero_reg__
C:\Users\ADMINI~1\AppData\Local\Temp/ccWEaXg2.s:18     .text:00000000 setToBootMapper
                             .bss:00000000 _isBootMapper
C:\Users\ADMINI~1\AppData\Local\Temp/ccWEaXg2.s:33     .text:00000008 isBootMapper
C:\Users\ADMINI~1\AppData\Local\Temp/ccWEaXg2.s:54     .text:0000000e trace

UNDEFINED SYMBOLS
printString
toString
__do_copy_data
__do_clear_bss
