GAS LISTING C:\Users\ADMINI~1\AppData\Local\Temp/ccYJNKdD.s 			page 1


   1               		.file	"keymapper.c"
   2               	__SREG__ = 0x3f
   3               	__SP_H__ = 0x3e
   4               	__SP_L__ = 0x3d
   5               	__CCP__  = 0x34
   6               	__tmp_reg__ = 0
   7               	__zero_reg__ = 1
   8               		.section	.debug_abbrev,"",@progbits
   9               	.Ldebug_abbrev0:
  10               		.section	.debug_info,"",@progbits
  11               	.Ldebug_info0:
  12               		.section	.debug_line,"",@progbits
  13               	.Ldebug_line0:
  14               		.text
  15               	.Ltext0:
  16               	.global	setWillStartKeyMapping
  17               		.type	setWillStartKeyMapping, @function
  18               	setWillStartKeyMapping:
  19               	.LFB8:
  20               	.LM1:
  21               	/* prologue: function */
  22               	/* frame size = 0 */
  23               	.LM2:
  24 0000 8091 0000 		lds r24,_isKeyMapping
  25 0004 8160      		ori r24,lo8(1)
  26 0006 8093 0000 		sts _isKeyMapping,r24
  27               	/* epilogue start */
  28               	.LM3:
  29 000a 0895      		ret
  30               	.LFE8:
  31               		.size	setWillStartKeyMapping, .-setWillStartKeyMapping
  32               	.global	isKeyMapping
  33               		.type	isKeyMapping, @function
  34               	isKeyMapping:
  35               	.LFB9:
  36               	.LM4:
  37               	/* prologue: function */
  38               	/* frame size = 0 */
  39               	.LM5:
  40 000c 8091 0000 		lds r24,_isKeyMapping
  41               	.LM6:
  42 0010 8170      		andi r24,lo8(1)
  43               	/* epilogue start */
  44 0012 0895      		ret
  45               	.LFE9:
  46               		.size	isKeyMapping, .-isKeyMapping
  47               	.global	isDeepKeyMapping
  48               		.type	isDeepKeyMapping, @function
  49               	isDeepKeyMapping:
  50               	.LFB10:
  51               	.LM7:
  52               	/* prologue: function */
  53               	/* frame size = 0 */
  54               	.LM8:
  55 0014 8091 0000 		lds r24,_isKeyMapping
  56               	.LM9:
  57 0018 8270      		andi r24,lo8(2)
GAS LISTING C:\Users\ADMINI~1\AppData\Local\Temp/ccYJNKdD.s 			page 2


  58               	/* epilogue start */
  59 001a 0895      		ret
  60               	.LFE10:
  61               		.size	isDeepKeyMapping, .-isDeepKeyMapping
  62               	.global	applyKeyMapping
  63               		.type	applyKeyMapping, @function
  64               	applyKeyMapping:
  65               	.LFB11:
  66               	.LM10:
  67               	.LVL0:
  68               	/* prologue: function */
  69               	/* frame size = 0 */
  70 001c 982F      		mov r25,r24
  71               	.LM11:
  72 001e 8091 0000 		lds r24,_isKeyMapping
  73               	.LVL1:
  74 0022 80FD      		sbrc r24,0
  75 0024 00C0      		rjmp .L11
  76               	.LM12:
  77 0026 9730      		cpi r25,lo8(7)
  78 0028 01F4      		brne .L9
  79               	.LM13:
  80 002a 1092 0000 		sts (keyMappingCount)+1,__zero_reg__
  81 002e 1092 0000 		sts keyMappingCount,__zero_reg__
  82               	.LM14:
  83 0032 81E0      		ldi r24,lo8(1)
  84 0034 8093 0000 		sts enabledKeyMappingCount,r24
  85               	.LM15:
  86 0038 8091 0000 		lds r24,INTERFACE
  87 003c 8823      		tst r24
  88 003e 01F0      		breq .L10
  89 0040 8330      		cpi r24,lo8(3)
  90 0042 01F4      		brne .L11
  91               	.L10:
  92               	.LM16:
  93 0044 84EC      		ldi r24,lo8(2500)
  94 0046 99E0      		ldi r25,hi8(2500)
  95 0048 9093 0000 		sts (keyMappingCountMax)+1,r25
  96 004c 8093 0000 		sts keyMappingCountMax,r24
  97 0050 0895      		ret
  98               	.L9:
  99               	.LM17:
 100 0052 1092 0000 		sts _isKeyMapping,__zero_reg__
 101               	.LM18:
 102 0056 1092 0000 		sts enabledKeyMappingCount,__zero_reg__
 103               	.L11:
 104 005a 0895      		ret
 105               	.LFE11:
 106               		.size	applyKeyMapping, .-applyKeyMapping
 107               	.global	isReadyKeyMappingOnBoot
 108               		.type	isReadyKeyMappingOnBoot, @function
 109               	isReadyKeyMappingOnBoot:
 110               	.LFB14:
 111               	.LM19:
 112               	/* prologue: function */
 113               	/* frame size = 0 */
 114               	.LM20:
GAS LISTING C:\Users\ADMINI~1\AppData\Local\Temp/ccYJNKdD.s 			page 3


 115 005c 8091 0000 		lds r24,_keyMappingOnBoot
 116               	/* epilogue start */
 117 0060 0895      		ret
 118               	.LFE14:
 119               		.size	isReadyKeyMappingOnBoot, .-isReadyKeyMappingOnBoot
 120               	.global	readyKeyMappingOnBoot
 121               		.type	readyKeyMappingOnBoot, @function
 122               	readyKeyMappingOnBoot:
 123               	.LFB15:
 124               	.LM21:
 125               	/* prologue: function */
 126               	/* frame size = 0 */
 127               	.LM22:
 128 0062 81E0      		ldi r24,lo8(1)
 129 0064 8093 0000 		sts _keyMappingOnBoot,r24
 130               	/* epilogue start */
 131               	.LM23:
 132 0068 0895      		ret
 133               	.LFE15:
 134               		.size	readyKeyMappingOnBoot, .-readyKeyMappingOnBoot
 135               	.global	stopKeyMapping
 136               		.type	stopKeyMapping, @function
 137               	stopKeyMapping:
 138               	.LFB18:
 139               	.LM24:
 140               	/* prologue: function */
 141               	/* frame size = 0 */
 142               	.LM25:
 143 006a 1092 0000 		sts _isKeyMapping,__zero_reg__
 144               	.LM26:
 145 006e 1092 0000 		sts _wait,__zero_reg__
 146               	/* epilogue start */
 147               	.LM27:
 148 0072 0895      		ret
 149               	.LFE18:
 150               		.size	stopKeyMapping, .-stopKeyMapping
 151               	.global	isMacroKey
 152               		.type	isMacroKey, @function
 153               	isMacroKey:
 154               	.LFB23:
 155               	.LM28:
 156               	.LVL2:
 157               	/* prologue: function */
 158               	/* frame size = 0 */
 159               	.LM29:
 160 0074 90E0      		ldi r25,lo8(0)
 161 0076 895C      		subi r24,lo8(-(55))
 162               	.LVL3:
 163 0078 8C30      		cpi r24,lo8(12)
 164 007a 00F4      		brsh .L19
 165 007c 91E0      		ldi r25,lo8(1)
 166               	.L19:
 167               	.LM30:
 168 007e 892F      		mov r24,r25
 169               	/* epilogue start */
 170 0080 0895      		ret
 171               	.LFE23:
GAS LISTING C:\Users\ADMINI~1\AppData\Local\Temp/ccYJNKdD.s 			page 4


 172               		.size	isMacroKey, .-isMacroKey
 173               	.global	escapeMacroKeycode
 174               		.type	escapeMacroKeycode, @function
 175               	escapeMacroKeycode:
 176               	.LFB24:
 177               	.LM31:
 178               	.LVL4:
 179               	/* prologue: function */
 180               	/* frame size = 0 */
 181 0082 982F      		mov r25,r24
 182               	.LBB69:
 183               	.LBB70:
 184               	.LM32:
 185 0084 895C      		subi r24,lo8(-(55))
 186               	.LVL5:
 187 0086 8C30      		cpi r24,lo8(12)
 188 0088 00F4      		brsh .L22
 189 008a 90E0      		ldi r25,lo8(0)
 190               	.L22:
 191               	.LBE70:
 192               	.LBE69:
 193               	.LM33:
 194 008c 892F      		mov r24,r25
 195               	/* epilogue start */
 196 008e 0895      		ret
 197               	.LFE24:
 198               		.size	escapeMacroKeycode, .-escapeMacroKeycode
 199               		.type	printEnter, @function
 200               	printEnter:
 201               	.LFB27:
 202               	.LM34:
 203               	/* prologue: function */
 204               	/* frame size = 0 */
 205               	.LM35:
 206 0090 88E2      		ldi r24,lo8(40)
 207 0092 0E94 0000 		call pushM
 208               	.LM36:
 209 0096 88E2      		ldi r24,lo8(40)
 210 0098 0E94 0000 		call pushM
 211               	/* epilogue start */
 212               	.LM37:
 213 009c 0895      		ret
 214               	.LFE27:
 215               		.size	printEnter, .-printEnter
 216               	.global	resetMacroInput
 217               		.type	resetMacroInput, @function
 218               	resetMacroInput:
 219               	.LFB46:
 220               	.LM38:
 221               	/* prologue: function */
 222               	/* frame size = 0 */
 223               	.LM39:
 224 009e 80E3      		ldi r24,lo8(48)
 225 00a0 E0E0      		ldi r30,lo8(_macroInputBuffer)
 226 00a2 F0E0      		ldi r31,hi8(_macroInputBuffer)
 227 00a4 DF01      		movw r26,r30
 228 00a6 982F      		mov r25,r24
GAS LISTING C:\Users\ADMINI~1\AppData\Local\Temp/ccYJNKdD.s 			page 5


 229 00a8 1D92      		st X+,__zero_reg__
 230 00aa 9A95      	        dec r25
 231 00ac 01F4      		brne .-6
 232               	.LM40:
 233 00ae 1092 0000 		sts _macroBufferIndex,__zero_reg__
 234               	.LM41:
 235 00b2 E0E0      		ldi r30,lo8(_macroPressedBuffer)
 236 00b4 F0E0      		ldi r31,hi8(_macroPressedBuffer)
 237 00b6 DF01      		movw r26,r30
 238 00b8 1D92      		st X+,__zero_reg__
 239 00ba 8A95      	        dec r24
 240 00bc 01F4      		brne .-6
 241               	.LM42:
 242 00be 1092 0000 		sts _macroDownCount,__zero_reg__
 243               	/* epilogue start */
 244               	.LM43:
 245 00c2 0895      		ret
 246               	.LFE46:
 247               		.size	resetMacroInput, .-resetMacroInput
 248               		.type	pushCharacter, @function
 249               	pushCharacter:
 250               	.LFB26:
 251               	.LM44:
 252               	.LVL6:
 253 00c4 0F93      		push r16
 254 00c6 1F93      		push r17
 255               	/* prologue: function */
 256               	/* frame size = 0 */
 257 00c8 FC01      		movw r30,r24
 258               	.LM45:
 259 00ca 8081      		ld r24,Z
 260               	.LVL7:
 261 00cc 0E94 0000 		call charToKey
 262               	.LVL8:
 263 00d0 8C01      		movw r16,r24
 264               	.LM46:
 265 00d2 8823      		tst r24
 266               	.LVL9:
 267 00d4 01F0      		breq .L29
 268               	.LM47:
 269 00d6 88E6      		ldi r24,lo8(104)
 270               	.LVL10:
 271 00d8 0E94 0000 		call pushM
 272               	.LVL11:
 273               	.L29:
 274               	.LM48:
 275 00dc 812F      		mov r24,r17
 276               	.LVL12:
 277 00de 0E94 0000 		call pushM
 278               	.LM49:
 279 00e2 812F      		mov r24,r17
 280 00e4 0E94 0000 		call pushM
 281               	.LM50:
 282 00e8 0023      		tst r16
 283               	.LVL13:
 284 00ea 01F0      		breq .L31
 285               	.LM51:
GAS LISTING C:\Users\ADMINI~1\AppData\Local\Temp/ccYJNKdD.s 			page 6


 286 00ec 88E6      		ldi r24,lo8(104)
 287 00ee 0E94 0000 		call pushM
 288               	.L31:
 289               	/* epilogue start */
 290               	.LM52:
 291 00f2 1F91      		pop r17
 292 00f4 0F91      		pop r16
 293               	.LVL14:
 294 00f6 0895      		ret
 295               	.LFE26:
 296               		.size	pushCharacter, .-pushCharacter
 297               		.data
 298               	.LC0:
 299 0000 2563 00   		.string	"%c"
 300               		.text
 301               		.type	printString, @function
 302               	printString:
 303               	.LFB28:
 304               	.LM53:
 305               	.LVL15:
 306 00f8 AF92      		push r10
 307 00fa BF92      		push r11
 308 00fc CF92      		push r12
 309 00fe DF92      		push r13
 310 0100 FF92      		push r15
 311 0102 0F93      		push r16
 312 0104 1F93      		push r17
 313 0106 DF93      		push r29
 314 0108 CF93      		push r28
 315 010a 0F92      		push __tmp_reg__
 316 010c CDB7      		in r28,__SP_L__
 317 010e DEB7      		in r29,__SP_H__
 318               	/* prologue: function */
 319               	/* frame size = 1 */
 320 0110 8C01      		movw r16,r24
 321               	.LM54:
 322 0112 FF24      		clr r15
 323               	.LVL16:
 324               	.LM55:
 325 0114 6E01      		movw r12,r28
 326 0116 0894      		sec
 327 0118 C11C      		adc r12,__zero_reg__
 328 011a D11C      		adc r13,__zero_reg__
 329 011c 80E0      		ldi r24,lo8(.LC0)
 330 011e A82E      		mov r10,r24
 331 0120 80E0      		ldi r24,hi8(.LC0)
 332 0122 B82E      		mov r11,r24
 333               	.LVL17:
 334 0124 00C0      		rjmp .L33
 335               	.L34:
 336 0126 00D0      		rcall .
 337 0128 00D0      		rcall .
 338 012a 00D0      		rcall .
 339 012c EDB7      		in r30,__SP_L__
 340 012e FEB7      		in r31,__SP_H__
 341 0130 3196      		adiw r30,1
 342 0132 ADB7      		in r26,__SP_L__
GAS LISTING C:\Users\ADMINI~1\AppData\Local\Temp/ccYJNKdD.s 			page 7


 343 0134 BEB7      		in r27,__SP_H__
 344 0136 1296      		adiw r26,1+1
 345 0138 DC92      		st X,r13
 346 013a CE92      		st -X,r12
 347 013c 1197      		sbiw r26,1
 348 013e B382      		std Z+3,r11
 349 0140 A282      		std Z+2,r10
 350 0142 800F      		add r24,r16
 351 0144 911F      		adc r25,r17
 352 0146 DC01      		movw r26,r24
 353 0148 8C91      		ld r24,X
 354 014a 9927      		clr r25
 355 014c 87FD      		sbrc r24,7
 356 014e 9095      		com r25
 357 0150 9583      		std Z+5,r25
 358 0152 8483      		std Z+4,r24
 359 0154 0E94 0000 		call sprintf
 360               	.LM56:
 361 0158 8DB7      		in r24,__SP_L__
 362 015a 9EB7      		in r25,__SP_H__
 363 015c 0696      		adiw r24,6
 364 015e 0FB6      		in __tmp_reg__,__SREG__
 365 0160 F894      		cli
 366 0162 9EBF      		out __SP_H__,r25
 367 0164 0FBE      		out __SREG__,__tmp_reg__
 368 0166 8DBF      		out __SP_L__,r24
 369 0168 C601      		movw r24,r12
 370 016a 0E94 0000 		call pushCharacter
 371               	.LM57:
 372 016e F394      		inc r15
 373               	.L33:
 374 0170 8F2D      		mov r24,r15
 375 0172 90E0      		ldi r25,lo8(0)
 376 0174 F801      		movw r30,r16
 377 0176 0190      		ld __tmp_reg__,Z+
 378 0178 0020      		tst __tmp_reg__
 379 017a 01F4      		brne .-6
 380 017c 3197      		sbiw r30,1
 381 017e E01B      		sub r30,r16
 382 0180 F10B      		sbc r31,r17
 383 0182 8E17      		cp r24,r30
 384 0184 9F07      		cpc r25,r31
 385 0186 00F0      		brlo .L34
 386               	/* epilogue start */
 387               	.LM58:
 388 0188 0F90      		pop __tmp_reg__
 389 018a CF91      		pop r28
 390 018c DF91      		pop r29
 391 018e 1F91      		pop r17
 392 0190 0F91      		pop r16
 393               	.LVL18:
 394 0192 FF90      		pop r15
 395               	.LVL19:
 396 0194 DF90      		pop r13
 397 0196 CF90      		pop r12
 398 0198 BF90      		pop r11
 399 019a AF90      		pop r10
GAS LISTING C:\Users\ADMINI~1\AppData\Local\Temp/ccYJNKdD.s 			page 8


 400 019c 0895      		ret
 401               	.LFE28:
 402               		.size	printString, .-printString
 403               		.type	printStringFromFlash, @function
 404               	printStringFromFlash:
 405               	.LFB29:
 406               	.LM59:
 407               	.LVL20:
 408 019e CF92      		push r12
 409 01a0 DF92      		push r13
 410 01a2 EF92      		push r14
 411 01a4 FF92      		push r15
 412 01a6 0F93      		push r16
 413 01a8 1F93      		push r17
 414 01aa DF93      		push r29
 415 01ac CF93      		push r28
 416 01ae 0F92      		push __tmp_reg__
 417 01b0 CDB7      		in r28,__SP_L__
 418 01b2 DEB7      		in r29,__SP_H__
 419               	/* prologue: function */
 420               	/* frame size = 1 */
 421 01b4 8C01      		movw r16,r24
 422               	.LM60:
 423 01b6 0097      		sbiw r24,0
 424 01b8 01F4      		brne .L41
 425 01ba 00C0      		rjmp .L40
 426               	.LVL21:
 427               	.L39:
 428               	.LM61:
 429 01bc 00D0      		rcall .
 430 01be 00D0      		rcall .
 431 01c0 00D0      		rcall .
 432 01c2 EDB7      		in r30,__SP_L__
 433 01c4 FEB7      		in r31,__SP_H__
 434               	.LVL22:
 435 01c6 3196      		adiw r30,1
 436 01c8 ADB7      		in r26,__SP_L__
 437 01ca BEB7      		in r27,__SP_H__
 438 01cc 1296      		adiw r26,1+1
 439 01ce FC92      		st X,r15
 440 01d0 EE92      		st -X,r14
 441 01d2 1197      		sbiw r26,1
 442 01d4 D382      		std Z+3,r13
 443 01d6 C282      		std Z+2,r12
 444 01d8 9927      		clr r25
 445 01da 87FD      		sbrc r24,7
 446 01dc 9095      		com r25
 447               	.LVL23:
 448 01de 9583      		std Z+5,r25
 449 01e0 8483      		std Z+4,r24
 450 01e2 0E94 0000 		call sprintf
 451               	.LVL24:
 452               	.LM62:
 453 01e6 8DB7      		in r24,__SP_L__
 454 01e8 9EB7      		in r25,__SP_H__
 455 01ea 0696      		adiw r24,6
 456 01ec 0FB6      		in __tmp_reg__,__SREG__
GAS LISTING C:\Users\ADMINI~1\AppData\Local\Temp/ccYJNKdD.s 			page 9


 457 01ee F894      		cli
 458 01f0 9EBF      		out __SP_H__,r25
 459 01f2 0FBE      		out __SREG__,__tmp_reg__
 460 01f4 8DBF      		out __SP_L__,r24
 461 01f6 C701      		movw r24,r14
 462 01f8 0E94 0000 		call pushCharacter
 463 01fc 00C0      		rjmp .L42
 464               	.LVL25:
 465               	.L41:
 466               	.LM63:
 467 01fe 7E01      		movw r14,r28
 468 0200 0894      		sec
 469 0202 E11C      		adc r14,__zero_reg__
 470 0204 F11C      		adc r15,__zero_reg__
 471 0206 90E0      		ldi r25,lo8(.LC0)
 472 0208 C92E      		mov r12,r25
 473 020a 90E0      		ldi r25,hi8(.LC0)
 474 020c D92E      		mov r13,r25
 475               	.LVL26:
 476               	.L42:
 477               	.LM64:
 478 020e F801      		movw r30,r16
 479               	.LVL27:
 480               	.LBB71:
 481               	.LM65:
 482 0210 0F5F      		subi r16,lo8(-(1))
 483 0212 1F4F      		sbci r17,hi8(-(1))
 484               	/* #APP */
 485               	 ;  346 "keymapper.c" 1
 486 0214 8491      		lpm r24, Z
 487               		
 488               	 ;  0 "" 2
 489               	.LVL28:
 490               	/* #NOAPP */
 491               	.LBE71:
 492 0216 8823      		tst r24
 493 0218 01F4      		brne .L39
 494               	.LVL29:
 495               	.L40:
 496               	/* epilogue start */
 497               	.LM66:
 498 021a 0F90      		pop __tmp_reg__
 499 021c CF91      		pop r28
 500 021e DF91      		pop r29
 501 0220 1F91      		pop r17
 502 0222 0F91      		pop r16
 503               	.LVL30:
 504 0224 FF90      		pop r15
 505 0226 EF90      		pop r14
 506 0228 DF90      		pop r13
 507 022a CF90      		pop r12
 508 022c 0895      		ret
 509               	.LFE29:
 510               		.size	printStringFromFlash, .-printStringFromFlash
 511               	.global	resetCurrentLayer
 512               		.type	resetCurrentLayer, @function
 513               	resetCurrentLayer:
GAS LISTING C:\Users\ADMINI~1\AppData\Local\Temp/ccYJNKdD.s 			page 10


 514               	.LFB45:
 515               	.LM67:
 516               	/* prologue: function */
 517               	/* frame size = 0 */
 518               	.LM68:
 519 022e 80E0      		ldi r24,lo8(str_reset_mapping)
 520 0230 90E0      		ldi r25,hi8(str_reset_mapping)
 521 0232 0E94 0000 		call printStringFromFlash
 522               	.LM69:
 523 0236 0E94 0000 		call printEnter
 524 023a 20E0      		ldi r18,lo8(_newKeyMap+8)
 525 023c 30E0      		ldi r19,hi8(_newKeyMap+8)
 526 023e 80E0      		ldi r24,lo8(0)
 527 0240 90E0      		ldi r25,hi8(0)
 528 0242 00C0      		rjmp .L44
 529               	.L45:
 530               	.LM70:
 531 0244 1192      		st Z+,__zero_reg__
 532               	.LM71:
 533 0246 E217      		cp r30,r18
 534 0248 F307      		cpc r31,r19
 535 024a 01F4      		brne .L45
 536 024c 0196      		adiw r24,1
 537 024e 9F01      		movw r18,r30
 538 0250 285F      		subi r18,lo8(-(8))
 539 0252 3F4F      		sbci r19,hi8(-(8))
 540               	.LM72:
 541 0254 8131      		cpi r24,17
 542 0256 9105      		cpc r25,__zero_reg__
 543 0258 01F0      		breq .L46
 544               	.L44:
 545 025a FC01      		movw r30,r24
 546 025c 43E0      		ldi r20,3
 547 025e EE0F      	1:	lsl r30
 548 0260 FF1F      		rol r31
 549 0262 4A95      		dec r20
 550 0264 01F4      		brne 1b
 551 0266 E050      		subi r30,lo8(-(_newKeyMap))
 552 0268 F040      		sbci r31,hi8(-(_newKeyMap))
 553 026a 00C0      		rjmp .L45
 554               	.L46:
 555               	.LM73:
 556 026c 81E0      		ldi r24,lo8(1)
 557 026e 90E0      		ldi r25,hi8(1)
 558 0270 9093 0000 		sts (_editCount)+1,r25
 559 0274 8093 0000 		sts _editCount,r24
 560               	/* epilogue start */
 561               	.LM74:
 562 0278 0895      		ret
 563               	.LFE45:
 564               		.size	resetCurrentLayer, .-resetCurrentLayer
 565               	.global	clearMacro
 566               		.type	clearMacro, @function
 567               	clearMacro:
 568               	.LFB44:
 569               	.LM75:
 570               	/* prologue: function */
GAS LISTING C:\Users\ADMINI~1\AppData\Local\Temp/ccYJNKdD.s 			page 11


 571               	/* frame size = 0 */
 572               	.LM76:
 573 027a 80E0      		ldi r24,lo8(str_clear_all_macro)
 574 027c 90E0      		ldi r25,hi8(str_clear_all_macro)
 575 027e 0E94 0000 		call printStringFromFlash
 576               	.LM77:
 577 0282 0E94 0000 		call printEnter
 578               	.LM78:
 579 0286 81E0      		ldi r24,lo8(1)
 580 0288 8093 0000 		sts _isWorkingForEmpty,r24
 581               	.LM79:
 582 028c 8CE0      		ldi r24,lo8(12)
 583 028e 8093 0000 		sts _wait,r24
 584               	.LM80:
 585 0292 1092 0000 		sts _step,__zero_reg__
 586               	/* epilogue start */
 587               	.LM81:
 588 0296 0895      		ret
 589               	.LFE44:
 590               		.size	clearMacro, .-clearMacro
 591               	.global	saveCurrentLayer
 592               		.type	saveCurrentLayer, @function
 593               	saveCurrentLayer:
 594               	.LFB39:
 595               	.LM82:
 596               	/* prologue: function */
 597               	/* frame size = 0 */
 598               	.LM83:
 599 0298 8091 0000 		lds r24,_editCount
 600 029c 9091 0000 		lds r25,(_editCount)+1
 601 02a0 892B      		or r24,r25
 602 02a2 01F4      		brne .L52
 603               	.LBB72:
 604               	.LBB73:
 605               	.LM84:
 606 02a4 1092 0000 		sts _isKeyMapping,__zero_reg__
 607               	.LM85:
 608 02a8 1092 0000 		sts _wait,__zero_reg__
 609 02ac 0895      		ret
 610               	.L52:
 611               	.LBE73:
 612               	.LBE72:
 613               	.LM86:
 614 02ae 80E0      		ldi r24,lo8(str_saving)
 615 02b0 90E0      		ldi r25,hi8(str_saving)
 616 02b2 0E94 0000 		call printStringFromFlash
 617               	.LM87:
 618 02b6 0E94 0000 		call printEnter
 619               	.LM88:
 620 02ba 81E0      		ldi r24,lo8(1)
 621 02bc 8093 0000 		sts _isWorkingForEmpty,r24
 622               	.LM89:
 623 02c0 8BE0      		ldi r24,lo8(11)
 624 02c2 8093 0000 		sts _wait,r24
 625               	.LM90:
 626 02c6 8091 0000 		lds r24,_step
 627 02ca 8093 0000 		sts _stepAfterSave,r24
GAS LISTING C:\Users\ADMINI~1\AppData\Local\Temp/ccYJNKdD.s 			page 12


 628               	.LM91:
 629 02ce 1092 0000 		sts _step,__zero_reg__
 630 02d2 0895      		ret
 631               	.LFE39:
 632               		.size	saveCurrentLayer, .-saveCurrentLayer
 633               	.global	printPrepareString
 634               		.type	printPrepareString, @function
 635               	printPrepareString:
 636               	.LFB35:
 637               	.LM92:
 638               	/* prologue: function */
 639               	/* frame size = 0 */
 640               	.LM93:
 641 02d4 80E0      		ldi r24,lo8(str_prepare_message)
 642 02d6 90E0      		ldi r25,hi8(str_prepare_message)
 643 02d8 0E94 0000 		call printStringFromFlash
 644               	.LM94:
 645 02dc 0E94 0000 		call printEnter
 646               	/* epilogue start */
 647               	.LM95:
 648 02e0 0895      		ret
 649               	.LFE35:
 650               		.size	printPrepareString, .-printPrepareString
 651               	.global	printMacroMessage
 652               		.type	printMacroMessage, @function
 653               	printMacroMessage:
 654               	.LFB34:
 655               	.LM96:
 656               	/* prologue: function */
 657               	/* frame size = 0 */
 658               	.LM97:
 659 02e2 0E94 0000 		call printEnter
 660               	.LM98:
 661 02e6 80E0      		ldi r24,lo8(str_macro_message)
 662 02e8 90E0      		ldi r25,hi8(str_macro_message)
 663 02ea 0E94 0000 		call printStringFromFlash
 664               	.LM99:
 665 02ee 0E94 0000 		call printEnter
 666               	.LM100:
 667 02f2 80E0      		ldi r24,lo8(str_macro_1)
 668 02f4 90E0      		ldi r25,hi8(str_macro_1)
 669 02f6 0E94 0000 		call printStringFromFlash
 670               	.LM101:
 671 02fa 0E94 0000 		call printEnter
 672               	.LM102:
 673 02fe 80E0      		ldi r24,lo8(str_macro_2)
 674 0300 90E0      		ldi r25,hi8(str_macro_2)
 675 0302 0E94 0000 		call printStringFromFlash
 676               	.LM103:
 677 0306 0E94 0000 		call printEnter
 678               	.LM104:
 679 030a 80E0      		ldi r24,lo8(str_back_6)
 680 030c 90E0      		ldi r25,hi8(str_back_6)
 681 030e 0E94 0000 		call printStringFromFlash
 682               	.LM105:
 683 0312 0E94 0000 		call printEnter
 684               	.LM106:
GAS LISTING C:\Users\ADMINI~1\AppData\Local\Temp/ccYJNKdD.s 			page 13


 685 0316 80E0      		ldi r24,lo8(str_macro_9)
 686 0318 90E0      		ldi r25,hi8(str_macro_9)
 687 031a 0E94 0000 		call printStringFromFlash
 688               	.LM107:
 689 031e 0E94 0000 		call printEnter
 690               	.LM108:
 691 0322 87E0      		ldi r24,lo8(7)
 692 0324 8093 0000 		sts _step,r24
 693               	/* epilogue start */
 694               	.LM109:
 695 0328 0895      		ret
 696               	.LFE34:
 697               		.size	printMacroMessage, .-printMacroMessage
 698               		.type	printPrompt, @function
 699               	printPrompt:
 700               	.LFB30:
 701               	.LM110:
 702               	/* prologue: function */
 703               	/* frame size = 0 */
 704               	.LM111:
 705 032a 81E0      		ldi r24,lo8(1)
 706 032c 8093 0000 		sts _isWorkingForEmpty,r24
 707               	.LM112:
 708 0330 8091 0000 		lds r24,_step
 709 0334 8930      		cpi r24,lo8(9)
 710 0336 00F4      		brsh .L73
 711 0338 8730      		cpi r24,lo8(7)
 712 033a 00F4      		brsh .L67
 713 033c 8330      		cpi r24,lo8(3)
 714 033e 01F0      		breq .L63
 715 0340 8430      		cpi r24,lo8(4)
 716 0342 00F4      		brsh .L74
 717 0344 8130      		cpi r24,lo8(1)
 718 0346 01F0      		breq .L61
 719 0348 8230      		cpi r24,lo8(2)
 720 034a 01F0      		breq .+2
 721 034c 00C0      		rjmp .L81
 722 034e 00C0      		rjmp .L86
 723               	.L74:
 724 0350 8530      		cpi r24,lo8(5)
 725 0352 01F0      		breq .L65
 726 0354 8630      		cpi r24,lo8(6)
 727 0356 00F4      		brsh .L66
 728 0358 00C0      		rjmp .L87
 729               	.L73:
 730 035a 8B30      		cpi r24,lo8(11)
 731 035c 01F0      		breq .L70
 732 035e 8C30      		cpi r24,lo8(12)
 733 0360 00F4      		brsh .L75
 734 0362 8930      		cpi r24,lo8(9)
 735 0364 01F0      		breq .L68
 736 0366 8A30      		cpi r24,lo8(10)
 737 0368 01F4      		brne .L81
 738 036a 00C0      		rjmp .L88
 739               	.L75:
 740 036c 8436      		cpi r24,lo8(100)
 741 036e 01F0      		breq .L71
GAS LISTING C:\Users\ADMINI~1\AppData\Local\Temp/ccYJNKdD.s 			page 14


 742 0370 8E36      		cpi r24,lo8(110)
 743 0372 01F4      		brne .L81
 744 0374 00C0      		rjmp .L72
 745               	.L61:
 746               	.LM113:
 747 0376 80E0      		ldi r24,lo8(str_choose_layer)
 748 0378 90E0      		ldi r25,hi8(str_choose_layer)
 749 037a 0E94 0000 		call printStringFromFlash
 750               	.LM114:
 751 037e 8091 0000 		lds r24,_currentLayer
 752 0382 8F5F      		subi r24,lo8(-(1))
 753 0384 0E94 0000 		call toString
 754 0388 0E94 0000 		call printString
 755 038c 00C0      		rjmp .L84
 756               	.L86:
 757               	.LM115:
 758 038e 80E0      		ldi r24,lo8(str_choose_key)
 759 0390 90E0      		ldi r25,hi8(str_choose_key)
 760 0392 00C0      		rjmp .L85
 761               	.L63:
 762               	.LM116:
 763 0394 80E0      		ldi r24,lo8(str_input_keycode)
 764 0396 90E0      		ldi r25,hi8(str_input_keycode)
 765 0398 00C0      		rjmp .L82
 766               	.L87:
 767               	.LM117:
 768 039a 80E0      		ldi r24,lo8(str_save_end_mapping)
 769 039c 90E0      		ldi r25,hi8(str_save_end_mapping)
 770 039e 00C0      		rjmp .L83
 771               	.L65:
 772               	.LM118:
 773 03a0 80E0      		ldi r24,lo8(str_cancel_mapping)
 774 03a2 90E0      		ldi r25,hi8(str_cancel_mapping)
 775 03a4 00C0      		rjmp .L83
 776               	.L66:
 777               	.LM119:
 778 03a6 1092 0000 		sts _isWorkingForEmpty,__zero_reg__
 779 03aa 00C0      		rjmp .L81
 780               	.L67:
 781               	.LM120:
 782 03ac 80E0      		ldi r24,lo8(str_input_command)
 783 03ae 90E0      		ldi r25,hi8(str_input_command)
 784               	.L82:
 785 03b0 0E94 0000 		call printStringFromFlash
 786 03b4 00C0      		rjmp .L81
 787               	.L68:
 788               	.LM121:
 789 03b6 80E0      		ldi r24,lo8(str_select_number)
 790 03b8 90E0      		ldi r25,hi8(str_select_number)
 791 03ba 00C0      		rjmp .L82
 792               	.L88:
 793               	.LM122:
 794 03bc 80E0      		ldi r24,lo8(str_exit_macro)
 795 03be 90E0      		ldi r25,hi8(str_exit_macro)
 796 03c0 00C0      		rjmp .L83
 797               	.L70:
 798               	.LM123:
GAS LISTING C:\Users\ADMINI~1\AppData\Local\Temp/ccYJNKdD.s 			page 15


 799 03c2 80E0      		ldi r24,lo8(str_input_macro)
 800 03c4 90E0      		ldi r25,hi8(str_input_macro)
 801               	.L85:
 802 03c6 0E94 0000 		call printStringFromFlash
 803               	.L84:
 804               	.LM124:
 805 03ca 0E94 0000 		call printEnter
 806 03ce 00C0      		rjmp .L81
 807               	.L71:
 808               	.LM125:
 809 03d0 80E0      		ldi r24,lo8(str_exit)
 810 03d2 90E0      		ldi r25,hi8(str_exit)
 811               	.L83:
 812 03d4 0E94 0000 		call printStringFromFlash
 813               	.LM126:
 814 03d8 0E94 0000 		call printEnter
 815               	.LM127:
 816 03dc 1092 0000 		sts _step,__zero_reg__
 817 03e0 00C0      		rjmp .L81
 818               	.L72:
 819               	.LM128:
 820 03e2 0E94 0000 		call printSelectMode
 821               	.L81:
 822 03e6 88EE      		ldi r24,lo8(1000)
 823 03e8 93E0      		ldi r25,hi8(1000)
 824               	.LVL31:
 825               	.LBB74:
 826               	.LBB75:
 827               	.LBB76:
 828               	.LBB77:
 829               	.LM129:
 830 03ea 2CE2      		ldi r18,lo8(300)
 831 03ec 31E0      		ldi r19,hi8(300)
 832               	.L78:
 833 03ee F901      		movw r30,r18
 834               	.LVL32:
 835               	/* #APP */
 836               	 ;  105 "c:/winavr-20100110/lib/gcc/../../avr/include/util/delay_basic.h" 1
 837 03f0 3197      		1: sbiw r30,1
 838 03f2 01F4      		brne 1b
 839               	 ;  0 "" 2
 840               	/* #NOAPP */
 841               	.LBE77:
 842               	.LBE76:
 843               	.LM130:
 844 03f4 0197      		sbiw r24,1
 845               	.LM131:
 846 03f6 01F4      		brne .L78
 847               	/* epilogue start */
 848               	.LBE75:
 849               	.LBE74:
 850               	.LM132:
 851 03f8 0895      		ret
 852               	.LFE30:
 853               		.size	printPrompt, .-printPrompt
 854               	.global	printSelectMode
 855               		.type	printSelectMode, @function
GAS LISTING C:\Users\ADMINI~1\AppData\Local\Temp/ccYJNKdD.s 			page 16


 856               	printSelectMode:
 857               	.LFB31:
 858               	.LM133:
 859               	/* prologue: function */
 860               	/* frame size = 0 */
 861               	.LM134:
 862 03fa 0E94 0000 		call printEnter
 863               	.LM135:
 864 03fe 80E0      		ldi r24,lo8(str_select_mode)
 865 0400 90E0      		ldi r25,hi8(str_select_mode)
 866 0402 0E94 0000 		call printStringFromFlash
 867               	.LM136:
 868 0406 0E94 0000 		call printEnter
 869               	.LM137:
 870 040a 80E0      		ldi r24,lo8(str_select_mode1)
 871 040c 90E0      		ldi r25,hi8(str_select_mode1)
 872 040e 0E94 0000 		call printStringFromFlash
 873               	.LM138:
 874 0412 0E94 0000 		call printEnter
 875               	.LM139:
 876 0416 80E0      		ldi r24,lo8(str_select_mode2)
 877 0418 90E0      		ldi r25,hi8(str_select_mode2)
 878 041a 0E94 0000 		call printStringFromFlash
 879               	.LM140:
 880 041e 0E94 0000 		call printEnter
 881               	.LM141:
 882 0422 80E0      		ldi r24,lo8(str_select_mode3)
 883 0424 90E0      		ldi r25,hi8(str_select_mode3)
 884 0426 0E94 0000 		call printStringFromFlash
 885               	.LM142:
 886 042a 0E94 0000 		call printEnter
 887               	.LM143:
 888 042e 88E0      		ldi r24,lo8(8)
 889 0430 8093 0000 		sts _step,r24
 890               	.LM144:
 891 0434 0E94 0000 		call printPrompt
 892               	/* epilogue start */
 893               	.LM145:
 894 0438 0895      		ret
 895               	.LFE31:
 896               		.size	printSelectMode, .-printSelectMode
 897               	.global	printMapperMessageAfter
 898               		.type	printMapperMessageAfter, @function
 899               	printMapperMessageAfter:
 900               	.LFB32:
 901               	.LM146:
 902               	/* prologue: function */
 903               	/* frame size = 0 */
 904               	.LM147:
 905 043a 0E94 0000 		call printEnter
 906               	.LM148:
 907 043e 80E0      		ldi r24,lo8(str_mapper_3)
 908 0440 90E0      		ldi r25,hi8(str_mapper_3)
 909 0442 0E94 0000 		call printStringFromFlash
 910               	.LM149:
 911 0446 0E94 0000 		call printEnter
 912               	.LM150:
GAS LISTING C:\Users\ADMINI~1\AppData\Local\Temp/ccYJNKdD.s 			page 17


 913 044a 80E0      		ldi r24,lo8(str_mapper_4)
 914 044c 90E0      		ldi r25,hi8(str_mapper_4)
 915 044e 0E94 0000 		call printStringFromFlash
 916               	.LM151:
 917 0452 0E94 0000 		call printEnter
 918               	.LM152:
 919 0456 80E0      		ldi r24,lo8(str_back_6)
 920 0458 90E0      		ldi r25,hi8(str_back_6)
 921 045a 0E94 0000 		call printStringFromFlash
 922               	.LM153:
 923 045e 0E94 0000 		call printEnter
 924               	.LM154:
 925 0462 80E0      		ldi r24,lo8(str_mapper_9)
 926 0464 90E0      		ldi r25,hi8(str_mapper_9)
 927 0466 0E94 0000 		call printStringFromFlash
 928               	.LM155:
 929 046a 0E94 0000 		call printEnter
 930               	.LM156:
 931 046e 87E0      		ldi r24,lo8(7)
 932 0470 8093 0000 		sts _step,r24
 933               	.LM157:
 934 0474 0E94 0000 		call printPrompt
 935               	/* epilogue start */
 936               	.LM158:
 937 0478 0895      		ret
 938               	.LFE32:
 939               		.size	printMapperMessageAfter, .-printMapperMessageAfter
 940               	.global	clearMacroAfter
 941               		.type	clearMacroAfter, @function
 942               	clearMacroAfter:
 943               	.LFB43:
 944               	.LM159:
 945 047a CF93      		push r28
 946 047c DF93      		push r29
 947               	/* prologue: function */
 948               	/* frame size = 0 */
 949               	.LM160:
 950 047e C5EA      		ldi r28,lo8(421)
 951 0480 D1E0      		ldi r29,hi8(421)
 952               	.L94:
 953               	.LM161:
 954 0482 CE01      		movw r24,r28
 955 0484 60E0      		ldi r22,lo8(0)
 956 0486 0E94 0000 		call __eewr_byte_m32
 957 048a 2196      		adiw r28,1
 958               	.LM162:
 959 048c 83E0      		ldi r24,hi8(997)
 960 048e C53E      		cpi r28,lo8(997)
 961 0490 D807      		cpc r29,r24
 962 0492 01F4      		brne .L94
 963               	.LM163:
 964 0494 87E0      		ldi r24,lo8(7)
 965 0496 8093 0000 		sts _step,r24
 966               	.LM164:
 967 049a 0E94 0000 		call printPrompt
 968               	/* epilogue start */
 969               	.LM165:
GAS LISTING C:\Users\ADMINI~1\AppData\Local\Temp/ccYJNKdD.s 			page 18


 970 049e DF91      		pop r29
 971 04a0 CF91      		pop r28
 972 04a2 0895      		ret
 973               	.LFE43:
 974               		.size	clearMacroAfter, .-clearMacroAfter
 975               	.global	saveMacro
 976               		.type	saveMacro, @function
 977               	saveMacro:
 978               	.LFB42:
 979               	.LM166:
 980 04a4 1F93      		push r17
 981 04a6 CF93      		push r28
 982 04a8 DF93      		push r29
 983               	/* prologue: function */
 984               	/* frame size = 0 */
 985               	.LM167:
 986 04aa 8091 0000 		lds r24,_macroIndex
 987 04ae 8C30      		cpi r24,lo8(12)
 988 04b0 00F4      		brsh .L100
 989 04b2 C0E0      		ldi r28,lo8(0)
 990 04b4 D0E0      		ldi r29,hi8(0)
 991               	.LM168:
 992 04b6 10E3      		ldi r17,lo8(48)
 993               	.L99:
 994 04b8 8091 0000 		lds r24,_macroIndex
 995 04bc 819F      		mul r24,r17
 996 04be C001      		movw r24,r0
 997 04c0 1124      		clr r1
 998 04c2 8B55      		subi r24,lo8(-(421))
 999 04c4 9E4F      		sbci r25,hi8(-(421))
 1000 04c6 FE01      		movw r30,r28
 1001 04c8 E050      		subi r30,lo8(-(_macroInputBuffer))
 1002 04ca F040      		sbci r31,hi8(-(_macroInputBuffer))
 1003 04cc 8C0F      		add r24,r28
 1004 04ce 9D1F      		adc r25,r29
 1005 04d0 6081      		ld r22,Z
 1006 04d2 0E94 0000 		call __eewr_byte_m32
 1007 04d6 2196      		adiw r28,1
 1008               	.LM169:
 1009 04d8 C033      		cpi r28,48
 1010 04da D105      		cpc r29,__zero_reg__
 1011 04dc 01F4      		brne .L99
 1012               	.LM170:
 1013 04de 8FEF      		ldi r24,lo8(-1)
 1014 04e0 8093 0000 		sts _macroIndex,r24
 1015               	.L100:
 1016               	/* epilogue start */
 1017               	.LM171:
 1018 04e4 DF91      		pop r29
 1019 04e6 CF91      		pop r28
 1020 04e8 1F91      		pop r17
 1021 04ea 0895      		ret
 1022               	.LFE42:
 1023               		.size	saveMacro, .-saveMacro
 1024               	.global	readMacro
 1025               		.type	readMacro, @function
 1026               	readMacro:
GAS LISTING C:\Users\ADMINI~1\AppData\Local\Temp/ccYJNKdD.s 			page 19


 1027               	.LFB41:
 1028               	.LM172:
 1029               	.LVL33:
 1030 04ec 0F93      		push r16
 1031 04ee 1F93      		push r17
 1032 04f0 CF93      		push r28
 1033 04f2 DF93      		push r29
 1034               	/* prologue: function */
 1035               	/* frame size = 0 */
 1036 04f4 982F      		mov r25,r24
 1037               	.LM173:
 1038 04f6 8C30      		cpi r24,lo8(12)
 1039 04f8 00F4      		brsh .L106
 1040               	.LM174:
 1041 04fa 80E3      		ldi r24,lo8(48)
 1042               	.LVL34:
 1043 04fc 989F      		mul r25,r24
 1044 04fe C001      		movw r24,r0
 1045 0500 1124      		clr r1
 1046 0502 EC01      		movw r28,r24
 1047 0504 CB55      		subi r28,lo8(-(421))
 1048 0506 DE4F      		sbci r29,hi8(-(421))
 1049               	.LM175:
 1050 0508 8C01      		movw r16,r24
 1051 050a 0B52      		subi r16,lo8(-(469))
 1052 050c 1E4F      		sbci r17,hi8(-(469))
 1053               	.LVL35:
 1054               	.L105:
 1055               	.LM176:
 1056 050e CE01      		movw r24,r28
 1057 0510 0E94 0000 		call __eerd_byte_m32
 1058               	.LVL36:
 1059 0514 982F      		mov r25,r24
 1060               	.LVL37:
 1061               	.LM177:
 1062 0516 8150      		subi r24,lo8(-(-1))
 1063 0518 8E3F      		cpi r24,lo8(-2)
 1064 051a 00F4      		brsh .L104
 1065               	.LM178:
 1066 051c 892F      		mov r24,r25
 1067 051e 0E94 0000 		call pushM
 1068               	.LVL38:
 1069               	.L104:
 1070 0522 2196      		adiw r28,1
 1071               	.LM179:
 1072 0524 C017      		cp r28,r16
 1073 0526 D107      		cpc r29,r17
 1074 0528 01F4      		brne .L105
 1075               	.LVL39:
 1076               	.L106:
 1077               	/* epilogue start */
 1078               	.LM180:
 1079 052a DF91      		pop r29
 1080 052c CF91      		pop r28
 1081 052e 1F91      		pop r17
 1082 0530 0F91      		pop r16
 1083 0532 0895      		ret
GAS LISTING C:\Users\ADMINI~1\AppData\Local\Temp/ccYJNKdD.s 			page 20


 1084               	.LFE41:
 1085               		.size	readMacro, .-readMacro
 1086               	.global	loadCurrentLayer
 1087               		.type	loadCurrentLayer, @function
 1088               	loadCurrentLayer:
 1089               	.LFB36:
 1090               	.LM181:
 1091 0534 CF92      		push r12
 1092 0536 DF92      		push r13
 1093 0538 EF92      		push r14
 1094 053a FF92      		push r15
 1095 053c 0F93      		push r16
 1096 053e 1F93      		push r17
 1097 0540 CF93      		push r28
 1098 0542 DF93      		push r29
 1099               	/* prologue: function */
 1100               	/* frame size = 0 */
 1101               	.LM182:
 1102 0544 9091 0000 		lds r25,_currentLayer
 1103 0548 88E8      		ldi r24,lo8(-120)
 1104 054a 989F      		mul r25,r24
 1105 054c 7001      		movw r14,r0
 1106 054e 1124      		clr r1
 1107 0550 8DE0      		ldi r24,lo8(13)
 1108 0552 90E0      		ldi r25,hi8(13)
 1109 0554 E80E      		add r14,r24
 1110 0556 F91E      		adc r15,r25
 1111 0558 CC24      		clr r12
 1112 055a DD24      		clr r13
 1113 055c 00C0      		rjmp .L109
 1114               	.L110:
 1115               	.LM183:
 1116 055e CE01      		movw r24,r28
 1117 0560 8E0D      		add r24,r14
 1118 0562 9F1D      		adc r25,r15
 1119 0564 0E94 0000 		call __eerd_byte_m32
 1120 0568 F801      		movw r30,r16
 1121 056a 8193      		st Z+,r24
 1122 056c 8F01      		movw r16,r30
 1123 056e 2196      		adiw r28,1
 1124               	.LM184:
 1125 0570 C830      		cpi r28,8
 1126 0572 D105      		cpc r29,__zero_reg__
 1127 0574 01F4      		brne .L110
 1128 0576 0894      		sec
 1129 0578 C11C      		adc r12,__zero_reg__
 1130 057a D11C      		adc r13,__zero_reg__
 1131 057c 88E0      		ldi r24,lo8(8)
 1132 057e 90E0      		ldi r25,hi8(8)
 1133 0580 E80E      		add r14,r24
 1134 0582 F91E      		adc r15,r25
 1135               	.LM185:
 1136 0584 91E1      		ldi r25,lo8(17)
 1137 0586 C916      		cp r12,r25
 1138 0588 D104      		cpc r13,__zero_reg__
 1139 058a 01F0      		breq .L111
 1140               	.L109:
GAS LISTING C:\Users\ADMINI~1\AppData\Local\Temp/ccYJNKdD.s 			page 21


 1141 058c 8601      		movw r16,r12
 1142 058e 53E0      		ldi r21,3
 1143 0590 000F      	1:	lsl r16
 1144 0592 111F      		rol r17
 1145 0594 5A95      		dec r21
 1146 0596 01F4      		brne 1b
 1147 0598 0050      		subi r16,lo8(-(_newKeyMap))
 1148 059a 1040      		sbci r17,hi8(-(_newKeyMap))
 1149 059c C0E0      		ldi r28,lo8(0)
 1150 059e D0E0      		ldi r29,hi8(0)
 1151 05a0 00C0      		rjmp .L110
 1152               	.L111:
 1153               	.LM186:
 1154 05a2 1092 0000 		sts (_editCount)+1,__zero_reg__
 1155 05a6 1092 0000 		sts _editCount,__zero_reg__
 1156               	/* epilogue start */
 1157               	.LM187:
 1158 05aa DF91      		pop r29
 1159 05ac CF91      		pop r28
 1160 05ae 1F91      		pop r17
 1161 05b0 0F91      		pop r16
 1162 05b2 FF90      		pop r15
 1163 05b4 EF90      		pop r14
 1164 05b6 DF90      		pop r13
 1165 05b8 CF90      		pop r12
 1166 05ba 0895      		ret
 1167               	.LFE36:
 1168               		.size	loadCurrentLayer, .-loadCurrentLayer
 1169               		.data
 1170               	.LC1:
 1171 0003 2564 00   		.string	"%d"
 1172               	.LC2:
 1173 0006 2C20 00   		.string	", "
 1174               	.LC3:
 1175 0009 2028 6C61 		.string	" (layer="
 1175      7965 723D 
 1175      00
 1176               	.LC4:
 1177 0012 2064 6566 		.string	" default="
 1177      6175 6C74 
 1177      3D00 
 1178               	.LC5:
 1179 001c 206D 6170 		.string	" mapping="
 1179      7069 6E67 
 1179      3D00 
 1180               	.LC6:
 1181 0026 2900      		.string	")"
 1182               		.text
 1183               	.global	putKeyCode
 1184               		.type	putKeyCode, @function
 1185               	putKeyCode:
 1186               	.LFB47:
 1187               	.LM188:
 1188               	.LVL40:
 1189 05bc AF92      		push r10
 1190 05be BF92      		push r11
 1191 05c0 CF92      		push r12
GAS LISTING C:\Users\ADMINI~1\AppData\Local\Temp/ccYJNKdD.s 			page 22


 1192 05c2 DF92      		push r13
 1193 05c4 EF92      		push r14
 1194 05c6 FF92      		push r15
 1195 05c8 0F93      		push r16
 1196 05ca 1F93      		push r17
 1197 05cc DF93      		push r29
 1198 05ce CF93      		push r28
 1199 05d0 00D0      		rcall .
 1200 05d2 0F92      		push __tmp_reg__
 1201 05d4 CDB7      		in r28,__SP_L__
 1202 05d6 DEB7      		in r29,__SP_H__
 1203               	/* prologue: function */
 1204               	/* frame size = 3 */
 1205 05d8 D82E      		mov r13,r24
 1206 05da B62E      		mov r11,r22
 1207 05dc A42E      		mov r10,r20
 1208 05de C22E      		mov r12,r18
 1209               	.LM189:
 1210 05e0 8091 0000 		lds r24,_isWorkingForEmpty
 1211               	.LVL41:
 1212 05e4 8823      		tst r24
 1213 05e6 01F0      		breq .+2
 1214 05e8 00C0      		rjmp .L155
 1215               	.LVL42:
 1216               	.LM190:
 1217 05ea 8091 0000 		lds r24,_step
 1218 05ee 8B30      		cpi r24,lo8(11)
 1219 05f0 01F0      		breq .L116
 1220 05f2 2223      		tst r18
 1221 05f4 01F0      		breq .+2
 1222 05f6 00C0      		rjmp .L155
 1223               	.L116:
 1224               	.LM191:
 1225 05f8 80E0      		ldi r24,lo8(usingKeys)
 1226 05fa 90E0      		ldi r25,hi8(usingKeys)
 1227 05fc 6BE0      		ldi r22,lo8(11)
 1228 05fe 4D2D      		mov r20,r13
 1229 0600 0E94 0000 		call findIndex
 1230 0604 7C01      		movw r14,r24
 1231               	.LVL43:
 1232               	.LM192:
 1233 0606 9091 0000 		lds r25,_step
 1234 060a 9B30      		cpi r25,lo8(11)
 1235 060c 01F0      		breq .+2
 1236 060e 00C0      		rjmp .L117
 1237               	.LM193:
 1238 0610 8091 0000 		lds r24,_isTiredEscapeKey
 1239 0614 8823      		tst r24
 1240 0616 01F0      		breq .L118
 1241               	.LM194:
 1242 0618 1092 0000 		sts _isPressedEscapeKey,__zero_reg__
 1243               	.LM195:
 1244 061c 1092 0000 		sts _isTiredEscapeKey,__zero_reg__
 1245               	.LM196:
 1246 0620 8D2D      		mov r24,r13
 1247 0622 0E94 0000 		call pushM
 1248               	.LM197:
GAS LISTING C:\Users\ADMINI~1\AppData\Local\Temp/ccYJNKdD.s 			page 23


 1249 0626 E091 0000 		lds r30,_macroBufferIndex
 1250 062a F0E0      		ldi r31,lo8(0)
 1251 062c E050      		subi r30,lo8(-(_macroInputBuffer-1))
 1252 062e F040      		sbci r31,hi8(-(_macroInputBuffer-1))
 1253 0630 1082      		st Z,__zero_reg__
 1254               	.LM198:
 1255 0632 0E94 0000 		call saveMacro
 1256               	.LM199:
 1257 0636 87E0      		ldi r24,lo8(7)
 1258 0638 8093 0000 		sts _step,r24
 1259 063c 00C0      		rjmp .L164
 1260               	.L118:
 1261               	.LM200:
 1262 063e CC20      		tst r12
 1263 0640 01F0      		breq .L119
 1264               	.LM201:
 1265 0642 8091 0000 		lds r24,_macroDownCount
 1266 0646 8831      		cpi r24,lo8(24)
 1267 0648 00F0      		brlo .+2
 1268 064a 00C0      		rjmp .L155
 1269               	.LM202:
 1270 064c 8F5F      		subi r24,lo8(-(1))
 1271 064e 8093 0000 		sts _macroDownCount,r24
 1272               	.LM203:
 1273 0652 80E0      		ldi r24,lo8(_macroPressedBuffer)
 1274 0654 90E0      		ldi r25,hi8(_macroPressedBuffer)
 1275 0656 6D2D      		mov r22,r13
 1276 0658 0E94 0000 		call append
 1277 065c 00C0      		rjmp .L120
 1278               	.L119:
 1279               	.LM204:
 1280 065e 00E0      		ldi r16,lo8(_macroPressedBuffer)
 1281 0660 10E0      		ldi r17,hi8(_macroPressedBuffer)
 1282 0662 F801      		movw r30,r16
 1283 0664 0190      		ld __tmp_reg__,Z+
 1284 0666 0020      		tst __tmp_reg__
 1285 0668 01F4      		brne .-6
 1286 066a 3197      		sbiw r30,1
 1287 066c E01B      		sub r30,r16
 1288 066e F10B      		sbc r31,r17
 1289               	.LM205:
 1290 0670 C801      		movw r24,r16
 1291 0672 6E2F      		mov r22,r30
 1292 0674 4D2D      		mov r20,r13
 1293 0676 0E94 0000 		call findIndex
 1294 067a BC01      		movw r22,r24
 1295               	.LVL44:
 1296               	.LM206:
 1297 067c 8FEF      		ldi r24,hi8(-1)
 1298 067e 6F3F      		cpi r22,lo8(-1)
 1299 0680 7807      		cpc r23,r24
 1300 0682 01F4      		brne .+2
 1301 0684 00C0      		rjmp .L155
 1302               	.LM207:
 1303 0686 C801      		movw r24,r16
 1304 0688 0E94 0000 		call delete
 1305               	.LVL45:
GAS LISTING C:\Users\ADMINI~1\AppData\Local\Temp/ccYJNKdD.s 			page 24


 1306               	.L120:
 1307               	.LM208:
 1308 068c 8091 0000 		lds r24,_macroBufferIndex
 1309 0690 E82F      		mov r30,r24
 1310 0692 F0E0      		ldi r31,lo8(0)
 1311 0694 E050      		subi r30,lo8(-(_macroInputBuffer))
 1312 0696 F040      		sbci r31,hi8(-(_macroInputBuffer))
 1313 0698 D082      		st Z,r13
 1314               	.LM209:
 1315 069a 8F5F      		subi r24,lo8(-(1))
 1316 069c 8093 0000 		sts _macroBufferIndex,r24
 1317               	.LM210:
 1318 06a0 8D2D      		mov r24,r13
 1319 06a2 0E94 0000 		call pushM
 1320               	.LM211:
 1321 06a6 8091 0000 		lds r24,_macroBufferIndex
 1322 06aa 8033      		cpi r24,lo8(48)
 1323 06ac 00F0      		brlo .L121
 1324               	.LM212:
 1325 06ae 87E0      		ldi r24,lo8(7)
 1326 06b0 8093 0000 		sts _step,r24
 1327               	.LM213:
 1328 06b4 0E94 0000 		call saveMacro
 1329 06b8 00C0      		rjmp .L164
 1330               	.L121:
 1331               	.LM214:
 1332 06ba CC20      		tst r12
 1333 06bc 01F0      		breq .L122
 1334 06be A0E0      		ldi r26,lo8(usingKeys)
 1335 06c0 B0E0      		ldi r27,hi8(usingKeys)
 1336 06c2 EA0E      		add r14,r26
 1337 06c4 FB1E      		adc r15,r27
 1338 06c6 F701      		movw r30,r14
 1339 06c8 8081      		ld r24,Z
 1340 06ca 8932      		cpi r24,lo8(41)
 1341 06cc 01F4      		brne .L122
 1342               	.LM215:
 1343 06ce 81E0      		ldi r24,lo8(1)
 1344 06d0 8093 0000 		sts _isPressedEscapeKey,r24
 1345               	.LM216:
 1346 06d4 1092 0000 		sts (_pressedEscapeKeyCount)+1,__zero_reg__
 1347 06d8 1092 0000 		sts _pressedEscapeKeyCount,__zero_reg__
 1348 06dc 00C0      		rjmp .L155
 1349               	.L122:
 1350               	.LM217:
 1351 06de 1092 0000 		sts _isPressedEscapeKey,__zero_reg__
 1352               	.LM218:
 1353 06e2 1092 0000 		sts _isTiredEscapeKey,__zero_reg__
 1354 06e6 00C0      		rjmp .L155
 1355               	.L117:
 1356               	.LM219:
 1357 06e8 892F      		mov r24,r25
 1358 06ea 8750      		subi r24,lo8(-(-7))
 1359 06ec 8230      		cpi r24,lo8(2)
 1360 06ee 00F0      		brlo .+2
 1361 06f0 00C0      		rjmp .L123
 1362               	.LM220:
GAS LISTING C:\Users\ADMINI~1\AppData\Local\Temp/ccYJNKdD.s 			page 25


 1363 06f2 FAE0      		ldi r31,lo8(10)
 1364 06f4 EF16      		cp r14,r31
 1365 06f6 F104      		cpc r15,__zero_reg__
 1366 06f8 00F0      		brlo .+2
 1367 06fa 00C0      		rjmp .L155
 1368               	.LM221:
 1369 06fc E091 0000 		lds r30,_bufferIndex
 1370 0700 F0E0      		ldi r31,lo8(0)
 1371 0702 E050      		subi r30,lo8(-(_buffer))
 1372 0704 F040      		sbci r31,hi8(-(_buffer))
 1373 0706 E082      		st Z,r14
 1374               	.LM222:
 1375 0708 00D0      		rcall .
 1376 070a 00D0      		rcall .
 1377 070c 00D0      		rcall .
 1378 070e EDB7      		in r30,__SP_L__
 1379 0710 FEB7      		in r31,__SP_H__
 1380 0712 3196      		adiw r30,1
 1381 0714 8E01      		movw r16,r28
 1382 0716 0F5F      		subi r16,lo8(-(1))
 1383 0718 1F4F      		sbci r17,hi8(-(1))
 1384 071a ADB7      		in r26,__SP_L__
 1385 071c BEB7      		in r27,__SP_H__
 1386 071e 1296      		adiw r26,1+1
 1387 0720 1C93      		st X,r17
 1388 0722 0E93      		st -X,r16
 1389 0724 1197      		sbiw r26,1
 1390 0726 80E0      		ldi r24,lo8(.LC1)
 1391 0728 90E0      		ldi r25,hi8(.LC1)
 1392 072a 9383      		std Z+3,r25
 1393 072c 8283      		std Z+2,r24
 1394 072e F582      		std Z+5,r15
 1395 0730 E482      		std Z+4,r14
 1396 0732 0E94 0000 		call sprintf
 1397               	.LM223:
 1398 0736 EDB7      		in r30,__SP_L__
 1399 0738 FEB7      		in r31,__SP_H__
 1400 073a 3696      		adiw r30,6
 1401 073c 0FB6      		in __tmp_reg__,__SREG__
 1402 073e F894      		cli
 1403 0740 FEBF      		out __SP_H__,r31
 1404 0742 0FBE      		out __SREG__,__tmp_reg__
 1405 0744 EDBF      		out __SP_L__,r30
 1406 0746 C801      		movw r24,r16
 1407 0748 0E94 0000 		call printString
 1408               	.LM224:
 1409 074c 0E94 0000 		call printEnter
 1410               	.LM225:
 1411 0750 0091 0000 		lds r16,_buffer
 1412               	.LVL46:
 1413               	.LM226:
 1414 0754 8091 0000 		lds r24,_step
 1415 0758 8830      		cpi r24,lo8(8)
 1416 075a 01F4      		brne .L124
 1417               	.LM227:
 1418 075c 0130      		cpi r16,lo8(1)
 1419 075e 01F4      		brne .L125
GAS LISTING C:\Users\ADMINI~1\AppData\Local\Temp/ccYJNKdD.s 			page 26


 1420               	.LM228:
 1421 0760 0093 0000 		sts _mode,r16
 1422               	.LBB78:
 1423               	.LBB79:
 1424               	.LM229:
 1425 0764 0E94 0000 		call printEnter
 1426               	.LM230:
 1427 0768 80E0      		ldi r24,lo8(str_mapper_message)
 1428 076a 90E0      		ldi r25,hi8(str_mapper_message)
 1429 076c 0E94 0000 		call printStringFromFlash
 1430               	.LM231:
 1431 0770 0E94 0000 		call printEnter
 1432               	.LM232:
 1433 0774 80E0      		ldi r24,lo8(str_mapper_1)
 1434 0776 90E0      		ldi r25,hi8(str_mapper_1)
 1435 0778 0E94 0000 		call printStringFromFlash
 1436               	.LM233:
 1437 077c 0E94 0000 		call printEnter
 1438               	.LM234:
 1439 0780 80E0      		ldi r24,lo8(str_mapper_2)
 1440 0782 90E0      		ldi r25,hi8(str_mapper_2)
 1441 0784 0E94 0000 		call printStringFromFlash
 1442               	.LM235:
 1443 0788 0093 0000 		sts _isWorkingForEmpty,r16
 1444               	.LM236:
 1445 078c 8AE0      		ldi r24,lo8(10)
 1446 078e 8093 0000 		sts _wait,r24
 1447               	.LM237:
 1448 0792 1092 0000 		sts _step,__zero_reg__
 1449 0796 00C0      		rjmp .L161
 1450               	.L125:
 1451               	.LBE79:
 1452               	.LBE78:
 1453               	.LM238:
 1454 0798 0230      		cpi r16,lo8(2)
 1455 079a 01F4      		brne .L127
 1456               	.LM239:
 1457 079c 0093 0000 		sts _mode,r16
 1458               	.LM240:
 1459 07a0 0E94 0000 		call printMacroMessage
 1460 07a4 00C0      		rjmp .L161
 1461               	.L127:
 1462               	.LM241:
 1463 07a6 0330      		cpi r16,lo8(3)
 1464 07a8 01F0      		breq .+2
 1465 07aa 00C0      		rjmp .L161
 1466               	.LM242:
 1467 07ac 0093 0000 		sts _mode,r16
 1468               	.LM243:
 1469 07b0 84E6      		ldi r24,lo8(100)
 1470 07b2 00C0      		rjmp .L160
 1471               	.L124:
 1472               	.LM244:
 1473 07b4 0630      		cpi r16,lo8(6)
 1474 07b6 01F4      		brne .L128
 1475               	.LM245:
 1476 07b8 8EE6      		ldi r24,lo8(110)
GAS LISTING C:\Users\ADMINI~1\AppData\Local\Temp/ccYJNKdD.s 			page 27


 1477 07ba 8093 0000 		sts _step,r24
 1478               	.L128:
 1479               	.LM246:
 1480 07be 8091 0000 		lds r24,_mode
 1481 07c2 8130      		cpi r24,lo8(1)
 1482 07c4 01F4      		brne .L129
 1483               	.LM247:
 1484 07c6 0130      		cpi r16,lo8(1)
 1485 07c8 01F0      		breq .L158
 1486               	.L130:
 1487               	.LM248:
 1488 07ca 0230      		cpi r16,lo8(2)
 1489 07cc 01F4      		brne .L131
 1490               	.L158:
 1491               	.LM249:
 1492 07ce 0093 0000 		sts _step,r16
 1493 07d2 00C0      		rjmp .L161
 1494               	.L131:
 1495               	.LM250:
 1496 07d4 0330      		cpi r16,lo8(3)
 1497 07d6 01F4      		brne .L132
 1498               	.LM251:
 1499 07d8 84E0      		ldi r24,lo8(4)
 1500 07da 8093 0000 		sts _step,r24
 1501               	.LM252:
 1502 07de 0E94 0000 		call saveCurrentLayer
 1503 07e2 00C0      		rjmp .L161
 1504               	.L132:
 1505               	.LM253:
 1506 07e4 0430      		cpi r16,lo8(4)
 1507 07e6 01F4      		brne .L133
 1508               	.LM254:
 1509 07e8 85E0      		ldi r24,lo8(5)
 1510 07ea 00C0      		rjmp .L160
 1511               	.L133:
 1512               	.LM255:
 1513 07ec 0930      		cpi r16,lo8(9)
 1514 07ee 01F0      		breq .+2
 1515 07f0 00C0      		rjmp .L161
 1516               	.LM256:
 1517 07f2 0E94 0000 		call resetCurrentLayer
 1518 07f6 00C0      		rjmp .L165
 1519               	.L129:
 1520               	.LM257:
 1521 07f8 8230      		cpi r24,lo8(2)
 1522 07fa 01F0      		breq .+2
 1523 07fc 00C0      		rjmp .L161
 1524               	.LM258:
 1525 07fe 0130      		cpi r16,lo8(1)
 1526 0800 01F4      		brne .L134
 1527               	.LM259:
 1528 0802 89E0      		ldi r24,lo8(9)
 1529 0804 00C0      		rjmp .L162
 1530               	.L134:
 1531               	.LM260:
 1532 0806 0230      		cpi r16,lo8(2)
 1533 0808 01F4      		brne .L135
GAS LISTING C:\Users\ADMINI~1\AppData\Local\Temp/ccYJNKdD.s 			page 28


 1534               	.LM261:
 1535 080a 8AE0      		ldi r24,lo8(10)
 1536               	.L160:
 1537 080c 8093 0000 		sts _step,r24
 1538               	.LBB80:
 1539               	.LBB81:
 1540               	.LM262:
 1541 0810 1092 0000 		sts _isKeyMapping,__zero_reg__
 1542               	.LM263:
 1543 0814 1092 0000 		sts _wait,__zero_reg__
 1544 0818 00C0      		rjmp .L161
 1545               	.L135:
 1546               	.LBE81:
 1547               	.LBE80:
 1548               	.LM264:
 1549 081a 0930      		cpi r16,lo8(9)
 1550 081c 01F0      		breq .+2
 1551 081e 00C0      		rjmp .L161
 1552               	.LM265:
 1553 0820 8CE0      		ldi r24,lo8(12)
 1554 0822 8093 0000 		sts _step,r24
 1555               	.LM266:
 1556 0826 0E94 0000 		call clearMacro
 1557 082a 00C0      		rjmp .L161
 1558               	.LVL47:
 1559               	.L123:
 1560               	.LM267:
 1561 082c 9230      		cpi r25,lo8(2)
 1562 082e 01F0      		breq .L136
 1563               	.LM268:
 1564 0830 FAE0      		ldi r31,lo8(10)
 1565 0832 EF16      		cp r14,r31
 1566 0834 F104      		cpc r15,__zero_reg__
 1567 0836 00F0      		brlo .+2
 1568 0838 00C0      		rjmp .L155
 1569               	.LM269:
 1570 083a 8091 0000 		lds r24,_bufferIndex
 1571 083e E82F      		mov r30,r24
 1572 0840 F0E0      		ldi r31,lo8(0)
 1573 0842 E050      		subi r30,lo8(-(_buffer))
 1574 0844 F040      		sbci r31,hi8(-(_buffer))
 1575 0846 E082      		st Z,r14
 1576               	.LM270:
 1577 0848 8F5F      		subi r24,lo8(-(1))
 1578 084a 8093 0000 		sts _bufferIndex,r24
 1579               	.LM271:
 1580 084e 00D0      		rcall .
 1581 0850 00D0      		rcall .
 1582 0852 00D0      		rcall .
 1583 0854 EDB7      		in r30,__SP_L__
 1584 0856 FEB7      		in r31,__SP_H__
 1585 0858 3196      		adiw r30,1
 1586 085a 8E01      		movw r16,r28
 1587 085c 0F5F      		subi r16,lo8(-(1))
 1588 085e 1F4F      		sbci r17,hi8(-(1))
 1589 0860 ADB7      		in r26,__SP_L__
 1590 0862 BEB7      		in r27,__SP_H__
GAS LISTING C:\Users\ADMINI~1\AppData\Local\Temp/ccYJNKdD.s 			page 29


 1591 0864 1296      		adiw r26,1+1
 1592 0866 1C93      		st X,r17
 1593 0868 0E93      		st -X,r16
 1594 086a 1197      		sbiw r26,1
 1595 086c 80E0      		ldi r24,lo8(.LC1)
 1596 086e 90E0      		ldi r25,hi8(.LC1)
 1597 0870 9383      		std Z+3,r25
 1598 0872 8283      		std Z+2,r24
 1599 0874 F582      		std Z+5,r15
 1600 0876 E482      		std Z+4,r14
 1601 0878 0E94 0000 		call sprintf
 1602               	.LM272:
 1603 087c EDB7      		in r30,__SP_L__
 1604 087e FEB7      		in r31,__SP_H__
 1605 0880 3696      		adiw r30,6
 1606 0882 0FB6      		in __tmp_reg__,__SREG__
 1607 0884 F894      		cli
 1608 0886 FEBF      		out __SP_H__,r31
 1609 0888 0FBE      		out __SREG__,__tmp_reg__
 1610 088a EDBF      		out __SP_L__,r30
 1611 088c C801      		movw r24,r16
 1612 088e 0E94 0000 		call printString
 1613               	.L136:
 1614               	.LM273:
 1615 0892 FAE0      		ldi r31,lo8(10)
 1616 0894 EF16      		cp r14,r31
 1617 0896 F104      		cpc r15,__zero_reg__
 1618 0898 00F0      		brlo .L137
 1619 089a 8091 0000 		lds r24,_step
 1620 089e 8230      		cpi r24,lo8(2)
 1621 08a0 01F0      		breq .+2
 1622 08a2 00C0      		rjmp .L155
 1623               	.L137:
 1624               	.LM274:
 1625 08a4 8091 0000 		lds r24,_step
 1626 08a8 8230      		cpi r24,lo8(2)
 1627 08aa 01F4      		brne .+2
 1628 08ac 00C0      		rjmp .L140
 1629 08ae 8330      		cpi r24,lo8(3)
 1630 08b0 00F4      		brsh .L143
 1631 08b2 8130      		cpi r24,lo8(1)
 1632 08b4 01F0      		breq .+2
 1633 08b6 00C0      		rjmp .L138
 1634 08b8 00C0      		rjmp .L166
 1635               	.L143:
 1636 08ba 8330      		cpi r24,lo8(3)
 1637 08bc 01F4      		brne .+2
 1638 08be 00C0      		rjmp .L141
 1639 08c0 8930      		cpi r24,lo8(9)
 1640 08c2 01F0      		breq .+2
 1641 08c4 00C0      		rjmp .L138
 1642               	.LM275:
 1643 08c6 8091 0000 		lds r24,_bufferIndex
 1644 08ca 8230      		cpi r24,lo8(2)
 1645 08cc 01F4      		brne .L144
 1646               	.LM276:
 1647 08ce 9091 0000 		lds r25,_buffer
GAS LISTING C:\Users\ADMINI~1\AppData\Local\Temp/ccYJNKdD.s 			page 30


 1648 08d2 8AE0      		ldi r24,lo8(10)
 1649 08d4 989F      		mul r25,r24
 1650 08d6 9001      		movw r18,r0
 1651 08d8 1124      		clr r1
 1652               	.LVL48:
 1653               	.LM277:
 1654 08da 8091 0000 		lds r24,_buffer+1
 1655 08de 280F      		add r18,r24
 1656 08e0 311D      		adc r19,__zero_reg__
 1657               	.LM278:
 1658 08e2 C901      		movw r24,r18
 1659 08e4 0197      		sbiw r24,1
 1660 08e6 0C97      		sbiw r24,12
 1661 08e8 00F4      		brsh .L145
 1662               	.LM279:
 1663 08ea 822F      		mov r24,r18
 1664               	.LVL49:
 1665 08ec 8150      		subi r24,lo8(-(-1))
 1666 08ee 8093 0000 		sts _macroIndex,r24
 1667               	.LM280:
 1668 08f2 8BE0      		ldi r24,lo8(11)
 1669 08f4 8093 0000 		sts _step,r24
 1670               	.LM281:
 1671 08f8 0E94 0000 		call resetMacroInput
 1672 08fc 00C0      		rjmp .L153
 1673               	.LVL50:
 1674               	.L145:
 1675               	.LM282:
 1676 08fe 0E94 0000 		call printEnter
 1677               	.LVL51:
 1678               	.LM283:
 1679 0902 80E0      		ldi r24,lo8(str_invalid_macro_number)
 1680 0904 90E0      		ldi r25,hi8(str_invalid_macro_number)
 1681 0906 00C0      		rjmp .L163
 1682               	.L144:
 1683               	.LM284:
 1684 0908 88EE      		ldi r24,lo8(1000)
 1685 090a 93E0      		ldi r25,hi8(1000)
 1686               	.LVL52:
 1687               	.LBB82:
 1688               	.LBB83:
 1689               	.LBB84:
 1690               	.LBB85:
 1691               	.LM285:
 1692 090c 2CE2      		ldi r18,lo8(300)
 1693 090e 31E0      		ldi r19,hi8(300)
 1694               	.L147:
 1695 0910 F901      		movw r30,r18
 1696               	.LVL53:
 1697               	/* #APP */
 1698               	 ;  105 "c:/winavr-20100110/lib/gcc/../../avr/include/util/delay_basic.h" 1
 1699 0912 3197      		1: sbiw r30,1
 1700 0914 01F4      		brne 1b
 1701               	 ;  0 "" 2
 1702               	/* #NOAPP */
 1703               	.LBE85:
 1704               	.LBE84:
GAS LISTING C:\Users\ADMINI~1\AppData\Local\Temp/ccYJNKdD.s 			page 31


 1705               	.LM286:
 1706 0916 0197      		sbiw r24,1
 1707               	.LM287:
 1708 0918 01F4      		brne .L147
 1709 091a 00C0      		rjmp .L155
 1710               	.LVL54:
 1711               	.L166:
 1712               	.LBE83:
 1713               	.LBE82:
 1714               	.LM288:
 1715 091c 9091 0000 		lds r25,_buffer
 1716               	.LM289:
 1717 0920 8091 0000 		lds r24,_currentLayer
 1718 0924 8330      		cpi r24,lo8(3)
 1719 0926 00F4      		brsh .L148
 1720               	.LM290:
 1721 0928 192F      		mov r17,r25
 1722               	.LVL55:
 1723 092a 1150      		subi r17,lo8(-(-1))
 1724               	.LM291:
 1725 092c 8117      		cp r24,r17
 1726 092e 01F0      		breq .L148
 1727 0930 1330      		cpi r17,lo8(3)
 1728 0932 00F4      		brsh .L148
 1729               	.LM292:
 1730 0934 8091 0000 		lds r24,_editCount
 1731 0938 9091 0000 		lds r25,(_editCount)+1
 1732 093c 1816      		cp __zero_reg__,r24
 1733 093e 1906      		cpc __zero_reg__,r25
 1734 0940 04F4      		brge .L149
 1735               	.LM293:
 1736 0942 0E94 0000 		call printEnter
 1737               	.LM294:
 1738 0946 80E0      		ldi r24,lo8(str_save_layer)
 1739 0948 90E0      		ldi r25,hi8(str_save_layer)
 1740 094a 0E94 0000 		call printStringFromFlash
 1741               	.LM295:
 1742 094e 0E94 0000 		call printEnter
 1743               	.LM296:
 1744 0952 0E94 0000 		call saveCurrentLayer
 1745               	.LM297:
 1746 0956 1093 0000 		sts _currentLayerAfter,r17
 1747 095a 00C0      		rjmp .L161
 1748               	.L149:
 1749               	.LM298:
 1750 095c 0E94 0000 		call printEnter
 1751               	.LM299:
 1752 0960 80E0      		ldi r24,lo8(str_load_layer)
 1753 0962 90E0      		ldi r25,hi8(str_load_layer)
 1754 0964 0E94 0000 		call printStringFromFlash
 1755               	.LM300:
 1756 0968 0E94 0000 		call printEnter
 1757               	.LM301:
 1758 096c 87E0      		ldi r24,lo8(7)
 1759 096e 8093 0000 		sts _step,r24
 1760               	.LM302:
 1761 0972 1093 0000 		sts _currentLayer,r17
GAS LISTING C:\Users\ADMINI~1\AppData\Local\Temp/ccYJNKdD.s 			page 32


 1762               	.LM303:
 1763 0976 0E94 0000 		call loadCurrentLayer
 1764 097a 00C0      		rjmp .L161
 1765               	.L148:
 1766               	.LM304:
 1767 097c 0E94 0000 		call printEnter
 1768               	.LVL56:
 1769               	.L165:
 1770               	.LM305:
 1771 0980 87E0      		ldi r24,lo8(7)
 1772 0982 00C0      		rjmp .L162
 1773               	.LVL57:
 1774               	.L140:
 1775               	.LM306:
 1776 0984 B092 0000 		sts _col,r11
 1777               	.LM307:
 1778 0988 A092 0000 		sts _row,r10
 1779               	.LM308:
 1780 098c 80E0      		ldi r24,lo8(str_col_row)
 1781 098e 90E0      		ldi r25,hi8(str_col_row)
 1782 0990 0E94 0000 		call printStringFromFlash
 1783               	.LM309:
 1784 0994 8091 0000 		lds r24,_col
 1785 0998 8F5F      		subi r24,lo8(-(1))
 1786 099a 0E94 0000 		call toString
 1787 099e 0E94 0000 		call printString
 1788               	.LM310:
 1789 09a2 80E0      		ldi r24,lo8(.LC2)
 1790 09a4 90E0      		ldi r25,hi8(.LC2)
 1791 09a6 0E94 0000 		call printString
 1792               	.LM311:
 1793 09aa 8091 0000 		lds r24,_row
 1794 09ae 8F5F      		subi r24,lo8(-(1))
 1795 09b0 0E94 0000 		call toString
 1796 09b4 0E94 0000 		call printString
 1797               	.LM312:
 1798 09b8 80E0      		ldi r24,lo8(.LC3)
 1799 09ba 90E0      		ldi r25,hi8(.LC3)
 1800 09bc 0E94 0000 		call printString
 1801               	.LM313:
 1802 09c0 8091 0000 		lds r24,_currentLayer
 1803 09c4 8F5F      		subi r24,lo8(-(1))
 1804 09c6 0E94 0000 		call toString
 1805 09ca 0E94 0000 		call printString
 1806               	.LM314:
 1807 09ce 80E0      		ldi r24,lo8(.LC4)
 1808 09d0 90E0      		ldi r25,hi8(.LC4)
 1809 09d2 0E94 0000 		call printString
 1810               	.LBB86:
 1811               	.LBB87:
 1812               	.LBB88:
 1813               	.LM315:
 1814 09d6 E091 0000 		lds r30,_currentLayer
 1815 09da 81E1      		ldi r24,lo8(17)
 1816 09dc E89F      		mul r30,r24
 1817 09de F001      		movw r30,r0
 1818 09e0 1124      		clr r1
GAS LISTING C:\Users\ADMINI~1\AppData\Local\Temp/ccYJNKdD.s 			page 33


 1819 09e2 8091 0000 		lds r24,_row
 1820 09e6 E80F      		add r30,r24
 1821 09e8 F11D      		adc r31,__zero_reg__
 1822 09ea A3E0      		ldi r26,3
 1823 09ec EE0F      	1:	lsl r30
 1824 09ee FF1F      		rol r31
 1825 09f0 AA95      		dec r26
 1826 09f2 01F4      		brne 1b
 1827 09f4 8091 0000 		lds r24,_col
 1828 09f8 E80F      		add r30,r24
 1829 09fa F11D      		adc r31,__zero_reg__
 1830 09fc E050      		subi r30,lo8(-(keymap_code))
 1831 09fe F040      		sbci r31,hi8(-(keymap_code))
 1832               	/* #APP */
 1833               	 ;  245 "keymapper.c" 1
 1834 0a00 E491      		lpm r30, Z
 1835               		
 1836               	 ;  0 "" 2
 1837               	.LVL58:
 1838               	/* #NOAPP */
 1839               	.LBE88:
 1840               	.LBE87:
 1841               	.LBE86:
 1842               	.LM316:
 1843 0a02 8E2F      		mov r24,r30
 1844 0a04 0E94 0000 		call toString
 1845               	.LVL59:
 1846 0a08 0E94 0000 		call printString
 1847               	.LM317:
 1848 0a0c 80E0      		ldi r24,lo8(.LC5)
 1849 0a0e 90E0      		ldi r25,hi8(.LC5)
 1850 0a10 0E94 0000 		call printString
 1851               	.LM318:
 1852 0a14 8091 0000 		lds r24,_col
 1853 0a18 E091 0000 		lds r30,_row
 1854 0a1c F0E0      		ldi r31,lo8(0)
 1855 0a1e 73E0      		ldi r23,3
 1856 0a20 EE0F      	1:	lsl r30
 1857 0a22 FF1F      		rol r31
 1858 0a24 7A95      		dec r23
 1859 0a26 01F4      		brne 1b
 1860 0a28 E80F      		add r30,r24
 1861 0a2a F11D      		adc r31,__zero_reg__
 1862 0a2c E050      		subi r30,lo8(-(_newKeyMap))
 1863 0a2e F040      		sbci r31,hi8(-(_newKeyMap))
 1864 0a30 8081      		ld r24,Z
 1865 0a32 0E94 0000 		call toString
 1866 0a36 0E94 0000 		call printString
 1867               	.LM319:
 1868 0a3a 80E0      		ldi r24,lo8(.LC6)
 1869 0a3c 90E0      		ldi r25,hi8(.LC6)
 1870 0a3e 0E94 0000 		call printString
 1871               	.LM320:
 1872 0a42 0E94 0000 		call printEnter
 1873               	.LM321:
 1874 0a46 83E0      		ldi r24,lo8(3)
 1875               	.LVL60:
GAS LISTING C:\Users\ADMINI~1\AppData\Local\Temp/ccYJNKdD.s 			page 34


 1876               	.L162:
 1877 0a48 8093 0000 		sts _step,r24
 1878               	.L161:
 1879               	.LM322:
 1880 0a4c 1092 0000 		sts _bufferIndex,__zero_reg__
 1881 0a50 00C0      		rjmp .L138
 1882               	.LVL61:
 1883               	.L141:
 1884               	.LM323:
 1885 0a52 8091 0000 		lds r24,_bufferIndex
 1886 0a56 8330      		cpi r24,lo8(3)
 1887 0a58 01F0      		breq .+2
 1888 0a5a 00C0      		rjmp .L151
 1889               	.LM324:
 1890 0a5c 9091 0000 		lds r25,_buffer
 1891 0a60 84E6      		ldi r24,lo8(100)
 1892 0a62 989F      		mul r25,r24
 1893 0a64 A001      		movw r20,r0
 1894 0a66 1124      		clr r1
 1895               	.LVL62:
 1896               	.LM325:
 1897 0a68 8091 0000 		lds r24,_buffer+1
 1898 0a6c 2AE0      		ldi r18,lo8(10)
 1899 0a6e 829F      		mul r24,r18
 1900 0a70 C001      		movw r24,r0
 1901 0a72 1124      		clr r1
 1902 0a74 480F      		add r20,r24
 1903 0a76 591F      		adc r21,r25
 1904               	.LM326:
 1905 0a78 8091 0000 		lds r24,_buffer+2
 1906 0a7c 480F      		add r20,r24
 1907 0a7e 511D      		adc r21,__zero_reg__
 1908               	.LM327:
 1909 0a80 4F3F      		cpi r20,255
 1910 0a82 5105      		cpc r21,__zero_reg__
 1911 0a84 04F4      		brge .L152
 1912               	.LM328:
 1913 0a86 8091 0000 		lds r24,_col
 1914 0a8a E091 0000 		lds r30,_row
 1915 0a8e F0E0      		ldi r31,lo8(0)
 1916 0a90 63E0      		ldi r22,3
 1917 0a92 EE0F      	1:	lsl r30
 1918 0a94 FF1F      		rol r31
 1919 0a96 6A95      		dec r22
 1920 0a98 01F4      		brne 1b
 1921 0a9a E80F      		add r30,r24
 1922 0a9c F11D      		adc r31,__zero_reg__
 1923 0a9e E050      		subi r30,lo8(-(_newKeyMap))
 1924 0aa0 F040      		sbci r31,hi8(-(_newKeyMap))
 1925 0aa2 4083      		st Z,r20
 1926               	.LM329:
 1927 0aa4 87E0      		ldi r24,lo8(7)
 1928 0aa6 8093 0000 		sts _step,r24
 1929               	.LM330:
 1930 0aaa 8091 0000 		lds r24,_editCount
 1931 0aae 9091 0000 		lds r25,(_editCount)+1
 1932 0ab2 0196      		adiw r24,1
GAS LISTING C:\Users\ADMINI~1\AppData\Local\Temp/ccYJNKdD.s 			page 35


 1933 0ab4 9093 0000 		sts (_editCount)+1,r25
 1934 0ab8 8093 0000 		sts _editCount,r24
 1935 0abc 00C0      		rjmp .L153
 1936               	.L152:
 1937               	.LM331:
 1938 0abe 0E94 0000 		call printEnter
 1939               	.LVL63:
 1940               	.LM332:
 1941 0ac2 80E0      		ldi r24,lo8(str_invalid_keycode)
 1942 0ac4 90E0      		ldi r25,hi8(str_invalid_keycode)
 1943               	.L163:
 1944 0ac6 0E94 0000 		call printStringFromFlash
 1945               	.LVL64:
 1946               	.L153:
 1947               	.LM333:
 1948 0aca 83E0      		ldi r24,lo8(3)
 1949 0acc E0E0      		ldi r30,lo8(_buffer)
 1950 0ace F0E0      		ldi r31,hi8(_buffer)
 1951 0ad0 DF01      		movw r26,r30
 1952 0ad2 1D92      		st X+,__zero_reg__
 1953 0ad4 8A95      	        dec r24
 1954 0ad6 01F4      		brne .-6
 1955               	.LM334:
 1956 0ad8 1092 0000 		sts _bufferIndex,__zero_reg__
 1957               	.L164:
 1958               	.LM335:
 1959 0adc 0E94 0000 		call printEnter
 1960               	.LVL65:
 1961 0ae0 00C0      		rjmp .L138
 1962               	.L151:
 1963 0ae2 88EE      		ldi r24,lo8(1000)
 1964 0ae4 93E0      		ldi r25,hi8(1000)
 1965               	.LVL66:
 1966               	.LBB89:
 1967               	.LBB90:
 1968               	.LBB91:
 1969               	.LBB92:
 1970               	.LM336:
 1971 0ae6 2CE2      		ldi r18,lo8(300)
 1972 0ae8 31E0      		ldi r19,hi8(300)
 1973               	.L154:
 1974 0aea F901      		movw r30,r18
 1975               	.LVL67:
 1976               	/* #APP */
 1977               	 ;  105 "c:/winavr-20100110/lib/gcc/../../avr/include/util/delay_basic.h" 1
 1978 0aec 3197      		1: sbiw r30,1
 1979 0aee 01F4      		brne 1b
 1980               	 ;  0 "" 2
 1981               	/* #NOAPP */
 1982               	.LBE92:
 1983               	.LBE91:
 1984               	.LM337:
 1985 0af0 0197      		sbiw r24,1
 1986               	.LM338:
 1987 0af2 01F4      		brne .L154
 1988 0af4 00C0      		rjmp .L155
 1989               	.LVL68:
GAS LISTING C:\Users\ADMINI~1\AppData\Local\Temp/ccYJNKdD.s 			page 36


 1990               	.L138:
 1991               	.LBE90:
 1992               	.LBE89:
 1993               	.LM339:
 1994 0af6 0E94 0000 		call printPrompt
 1995               	.LVL69:
 1996               	.L155:
 1997               	/* epilogue start */
 1998               	.LM340:
 1999 0afa 0F90      		pop __tmp_reg__
 2000 0afc 0F90      		pop __tmp_reg__
 2001 0afe 0F90      		pop __tmp_reg__
 2002 0b00 CF91      		pop r28
 2003 0b02 DF91      		pop r29
 2004 0b04 1F91      		pop r17
 2005               	.LVL70:
 2006 0b06 0F91      		pop r16
 2007               	.LVL71:
 2008 0b08 FF90      		pop r15
 2009 0b0a EF90      		pop r14
 2010               	.LVL72:
 2011 0b0c DF90      		pop r13
 2012               	.LVL73:
 2013 0b0e CF90      		pop r12
 2014               	.LVL74:
 2015 0b10 BF90      		pop r11
 2016               	.LVL75:
 2017 0b12 AF90      		pop r10
 2018               	.LVL76:
 2019 0b14 0895      		ret
 2020               	.LFE47:
 2021               		.size	putKeyCode, .-putKeyCode
 2022               	.global	saveCurrentLayerAfter
 2023               		.type	saveCurrentLayerAfter, @function
 2024               	saveCurrentLayerAfter:
 2025               	.LFB38:
 2026               	.LM341:
 2027 0b16 BF92      		push r11
 2028 0b18 CF92      		push r12
 2029 0b1a DF92      		push r13
 2030 0b1c EF92      		push r14
 2031 0b1e FF92      		push r15
 2032 0b20 0F93      		push r16
 2033 0b22 1F93      		push r17
 2034 0b24 CF93      		push r28
 2035 0b26 DF93      		push r29
 2036               	/* prologue: function */
 2037               	/* frame size = 0 */
 2038               	.LM342:
 2039 0b28 EE24      		clr r14
 2040 0b2a FF24      		clr r15
 2041 0b2c CC24      		clr r12
 2042 0b2e DD24      		clr r13
 2043               	.LM343:
 2044 0b30 18E8      		ldi r17,lo8(-120)
 2045 0b32 B12E      		mov r11,r17
 2046 0b34 00C0      		rjmp .L168
GAS LISTING C:\Users\ADMINI~1\AppData\Local\Temp/ccYJNKdD.s 			page 37


 2047               	.L169:
 2048 0b36 8091 0000 		lds r24,_currentLayer
 2049 0b3a 8B9D      		mul r24,r11
 2050 0b3c C001      		movw r24,r0
 2051 0b3e 1124      		clr r1
 2052 0b40 0D96      		adiw r24,13
 2053 0b42 8C0D      		add r24,r12
 2054 0b44 9D1D      		adc r25,r13
 2055 0b46 8C0F      		add r24,r28
 2056 0b48 9D1F      		adc r25,r29
 2057 0b4a F801      		movw r30,r16
 2058 0b4c 6191      		ld r22,Z+
 2059 0b4e 8F01      		movw r16,r30
 2060 0b50 0E94 0000 		call __eewr_byte_m32
 2061 0b54 2196      		adiw r28,1
 2062               	.LM344:
 2063 0b56 C830      		cpi r28,8
 2064 0b58 D105      		cpc r29,__zero_reg__
 2065 0b5a 01F4      		brne .L169
 2066 0b5c 0894      		sec
 2067 0b5e E11C      		adc r14,__zero_reg__
 2068 0b60 F11C      		adc r15,__zero_reg__
 2069 0b62 88E0      		ldi r24,lo8(8)
 2070 0b64 90E0      		ldi r25,hi8(8)
 2071 0b66 C80E      		add r12,r24
 2072 0b68 D91E      		adc r13,r25
 2073               	.LM345:
 2074 0b6a 91E1      		ldi r25,lo8(17)
 2075 0b6c E916      		cp r14,r25
 2076 0b6e F104      		cpc r15,__zero_reg__
 2077 0b70 01F0      		breq .L170
 2078               	.L168:
 2079 0b72 8701      		movw r16,r14
 2080 0b74 B3E0      		ldi r27,3
 2081 0b76 000F      	1:	lsl r16
 2082 0b78 111F      		rol r17
 2083 0b7a BA95      		dec r27
 2084 0b7c 01F4      		brne 1b
 2085 0b7e 0050      		subi r16,lo8(-(_newKeyMap))
 2086 0b80 1040      		sbci r17,hi8(-(_newKeyMap))
 2087 0b82 C0E0      		ldi r28,lo8(0)
 2088 0b84 D0E0      		ldi r29,hi8(0)
 2089 0b86 00C0      		rjmp .L169
 2090               	.L170:
 2091               	.LM346:
 2092 0b88 1092 0000 		sts (_editCount)+1,__zero_reg__
 2093 0b8c 1092 0000 		sts _editCount,__zero_reg__
 2094               	.LM347:
 2095 0b90 8091 0000 		lds r24,_stepAfterSave
 2096 0b94 8430      		cpi r24,lo8(4)
 2097 0b96 01F4      		brne .L171
 2098               	.LM348:
 2099 0b98 8093 0000 		sts _step,r24
 2100               	.LBB93:
 2101               	.LBB94:
 2102               	.LM349:
 2103 0b9c 1092 0000 		sts _isKeyMapping,__zero_reg__
GAS LISTING C:\Users\ADMINI~1\AppData\Local\Temp/ccYJNKdD.s 			page 38


 2104               	.LM350:
 2105 0ba0 1092 0000 		sts _wait,__zero_reg__
 2106 0ba4 00C0      		rjmp .L172
 2107               	.L171:
 2108               	.LBE94:
 2109               	.LBE93:
 2110               	.LM351:
 2111 0ba6 8130      		cpi r24,lo8(1)
 2112 0ba8 01F4      		brne .L172
 2113               	.LM352:
 2114 0baa 0E94 0000 		call printEnter
 2115               	.LM353:
 2116 0bae 80E0      		ldi r24,lo8(str_load_layer)
 2117 0bb0 90E0      		ldi r25,hi8(str_load_layer)
 2118 0bb2 0E94 0000 		call printStringFromFlash
 2119               	.LM354:
 2120 0bb6 0E94 0000 		call printEnter
 2121               	.LM355:
 2122 0bba 87E0      		ldi r24,lo8(7)
 2123 0bbc 8093 0000 		sts _step,r24
 2124               	.LM356:
 2125 0bc0 8091 0000 		lds r24,_currentLayerAfter
 2126 0bc4 8093 0000 		sts _currentLayer,r24
 2127               	.LM357:
 2128 0bc8 0E94 0000 		call loadCurrentLayer
 2129               	.L172:
 2130               	.LM358:
 2131 0bcc 0E94 0000 		call printPrompt
 2132               	/* epilogue start */
 2133               	.LM359:
 2134 0bd0 DF91      		pop r29
 2135 0bd2 CF91      		pop r28
 2136 0bd4 1F91      		pop r17
 2137 0bd6 0F91      		pop r16
 2138 0bd8 FF90      		pop r15
 2139 0bda EF90      		pop r14
 2140 0bdc DF90      		pop r13
 2141 0bde CF90      		pop r12
 2142 0be0 BF90      		pop r11
 2143 0be2 0895      		ret
 2144               	.LFE38:
 2145               		.size	saveCurrentLayerAfter, .-saveCurrentLayerAfter
 2146               	.global	prepareKeyMapper
 2147               		.type	prepareKeyMapper, @function
 2148               	prepareKeyMapper:
 2149               	.LFB37:
 2150               	.LM360:
 2151               	/* prologue: function */
 2152               	/* frame size = 0 */
 2153               	.LM361:
 2154 0be4 83E0      		ldi r24,lo8(3)
 2155 0be6 E0E0      		ldi r30,lo8(_buffer)
 2156 0be8 F0E0      		ldi r31,hi8(_buffer)
 2157 0bea DF01      		movw r26,r30
 2158 0bec 1D92      		st X+,__zero_reg__
 2159 0bee 8A95      	        dec r24
 2160 0bf0 01F4      		brne .-6
GAS LISTING C:\Users\ADMINI~1\AppData\Local\Temp/ccYJNKdD.s 			page 39


 2161               	.LM362:
 2162 0bf2 1092 0000 		sts _bufferIndex,__zero_reg__
 2163               	.LM363:
 2164 0bf6 1092 0000 		sts _currentLayer,__zero_reg__
 2165               	.LM364:
 2166 0bfa 1092 0000 		sts _mode,__zero_reg__
 2167               	.LM365:
 2168 0bfe 0E94 0000 		call loadCurrentLayer
 2169               	.LM366:
 2170 0c02 0E94 0000 		call printSelectMode
 2171               	/* epilogue start */
 2172               	.LM367:
 2173 0c06 0895      		ret
 2174               	.LFE37:
 2175               		.size	prepareKeyMapper, .-prepareKeyMapper
 2176               	.global	getCurrentKeycode
 2177               		.type	getCurrentKeycode, @function
 2178               	getCurrentKeycode:
 2179               	.LFB25:
 2180               	.LM368:
 2181               	.LVL77:
 2182 0c08 FF92      		push r15
 2183 0c0a 0F93      		push r16
 2184 0c0c 1F93      		push r17
 2185 0c0e CF93      		push r28
 2186 0c10 DF93      		push r29
 2187               	/* prologue: function */
 2188               	/* frame size = 0 */
 2189 0c12 F82E      		mov r15,r24
 2190               	.LM369:
 2191 0c14 8091 0000 		lds r24,_isKeyMapping
 2192               	.LVL78:
 2193 0c18 C62F      		mov r28,r22
 2194 0c1a D0E0      		ldi r29,lo8(0)
 2195               	.LVL79:
 2196 0c1c 042F      		mov r16,r20
 2197 0c1e 10E0      		ldi r17,lo8(0)
 2198               	.LVL80:
 2199 0c20 8823      		tst r24
 2200 0c22 01F4      		brne .L181
 2201               	.LVL81:
 2202               	.L178:
 2203               	.LBB95:
 2204               	.LM370:
 2205 0c24 88E8      		ldi r24,lo8(-120)
 2206 0c26 F89E      		mul r15,r24
 2207 0c28 C001      		movw r24,r0
 2208 0c2a 1124      		clr r1
 2209 0c2c 0D96      		adiw r24,13
 2210 0c2e 9E01      		movw r18,r28
 2211 0c30 43E0      		ldi r20,3
 2212 0c32 220F      	1:	lsl r18
 2213 0c34 331F      		rol r19
 2214 0c36 4A95      		dec r20
 2215 0c38 01F4      		brne 1b
 2216 0c3a 820F      		add r24,r18
 2217 0c3c 931F      		adc r25,r19
GAS LISTING C:\Users\ADMINI~1\AppData\Local\Temp/ccYJNKdD.s 			page 40


 2218 0c3e 800F      		add r24,r16
 2219 0c40 911F      		adc r25,r17
 2220 0c42 0E94 0000 		call __eerd_byte_m32
 2221 0c46 982F      		mov r25,r24
 2222               	.LVL82:
 2223               	.LBE95:
 2224               	.LM371:
 2225 0c48 8150      		subi r24,lo8(-(-1))
 2226 0c4a 8E3F      		cpi r24,lo8(-2)
 2227 0c4c 00F0      		brlo .L179
 2228               	.LVL83:
 2229               	.L181:
 2230               	.LBB96:
 2231               	.LBB97:
 2232               	.LBB98:
 2233               	.LM372:
 2234 0c4e 81E1      		ldi r24,lo8(17)
 2235 0c50 F89E      		mul r15,r24
 2236 0c52 C001      		movw r24,r0
 2237 0c54 1124      		clr r1
 2238 0c56 C80F      		add r28,r24
 2239 0c58 D91F      		adc r29,r25
 2240               	.LVL84:
 2241 0c5a 83E0      		ldi r24,3
 2242 0c5c CC0F      	1:	lsl r28
 2243 0c5e DD1F      		rol r29
 2244 0c60 8A95      		dec r24
 2245 0c62 01F4      		brne 1b
 2246               	.LVL85:
 2247 0c64 C00F      		add r28,r16
 2248 0c66 D11F      		adc r29,r17
 2249               	.LVL86:
 2250 0c68 C050      		subi r28,lo8(-(keymap_code))
 2251 0c6a D040      		sbci r29,hi8(-(keymap_code))
 2252               	.LVL87:
 2253 0c6c FE01      		movw r30,r28
 2254               	/* #APP */
 2255               	 ;  245 "keymapper.c" 1
 2256 0c6e 9491      		lpm r25, Z
 2257               		
 2258               	 ;  0 "" 2
 2259               	/* #NOAPP */
 2260               	.L179:
 2261               	.LBE98:
 2262               	.LBE97:
 2263               	.LBE96:
 2264               	.LM373:
 2265 0c70 892F      		mov r24,r25
 2266               	/* epilogue start */
 2267 0c72 DF91      		pop r29
 2268               	.LVL88:
 2269 0c74 CF91      		pop r28
 2270               	.LVL89:
 2271 0c76 1F91      		pop r17
 2272               	.LVL90:
 2273 0c78 0F91      		pop r16
 2274               	.LVL91:
GAS LISTING C:\Users\ADMINI~1\AppData\Local\Temp/ccYJNKdD.s 			page 41


 2275 0c7a FF90      		pop r15
 2276               	.LVL92:
 2277 0c7c 0895      		ret
 2278               	.LFE25:
 2279               		.size	getCurrentKeycode, .-getCurrentKeycode
 2280               	.global	applyMacro
 2281               		.type	applyMacro, @function
 2282               	applyMacro:
 2283               	.LFB40:
 2284               	.LM374:
 2285               	.LVL93:
 2286 0c7e 1F93      		push r17
 2287               	/* prologue: function */
 2288               	/* frame size = 0 */
 2289 0c80 982F      		mov r25,r24
 2290               	.LM375:
 2291 0c82 8091 0000 		lds r24,_isKeyMapping
 2292               	.LVL94:
 2293 0c86 80FD      		sbrc r24,0
 2294 0c88 00C0      		rjmp .L183
 2295               	.LBB99:
 2296               	.LBB100:
 2297               	.LM376:
 2298 0c8a 192F      		mov r17,r25
 2299 0c8c 195C      		subi r17,lo8(-(55))
 2300 0c8e 1C30      		cpi r17,lo8(12)
 2301 0c90 00F4      		brsh .L183
 2302               	.LBE100:
 2303               	.LBE99:
 2304               	.LM377:
 2305 0c92 0E94 0000 		call isEmptyM
 2306               	.LVL95:
 2307 0c96 8823      		tst r24
 2308 0c98 01F0      		breq .L183
 2309               	.LM378:
 2310 0c9a 0E94 0000 		call clearMacroPressedBuffer
 2311               	.LM379:
 2312 0c9e 812F      		mov r24,r17
 2313 0ca0 0E94 0000 		call readMacro
 2314 0ca4 81E0      		ldi r24,lo8(1)
 2315 0ca6 00C0      		rjmp .L184
 2316               	.LVL96:
 2317               	.L183:
 2318               	.LM380:
 2319 0ca8 80E0      		ldi r24,lo8(0)
 2320               	.L184:
 2321               	/* epilogue start */
 2322               	.LM381:
 2323 0caa 1F91      		pop r17
 2324 0cac 0895      		ret
 2325               	.LFE40:
 2326               		.size	applyMacro, .-applyMacro
 2327               	.global	startKeyMapping
 2328               		.type	startKeyMapping, @function
 2329               	startKeyMapping:
 2330               	.LFB17:
 2331               	.LM382:
GAS LISTING C:\Users\ADMINI~1\AppData\Local\Temp/ccYJNKdD.s 			page 42


 2332               	/* prologue: function */
 2333               	/* frame size = 0 */
 2334               	.LBB101:
 2335               	.LBB102:
 2336               	.LM383:
 2337 0cae 8091 0000 		lds r24,_isKeyMapping
 2338               	.LBE102:
 2339               	.LBE101:
 2340               	.LM384:
 2341 0cb2 80FF      		sbrs r24,0
 2342 0cb4 00C0      		rjmp .L188
 2343 0cb6 81FD      		sbrc r24,1
 2344 0cb8 00C0      		rjmp .L188
 2345 0cba 0E94 0000 		call isAllKeyRelease
 2346 0cbe 8823      		tst r24
 2347 0cc0 01F0      		breq .L188
 2348               	.LBB103:
 2349               	.LBB104:
 2350               	.LM385:
 2351 0cc2 8091 0000 		lds r24,_isKeyMapping
 2352 0cc6 8260      		ori r24,lo8(2)
 2353 0cc8 8093 0000 		sts _isKeyMapping,r24
 2354               	.LM386:
 2355 0ccc 0E94 0000 		call prepareKeyMapper
 2356               	.L188:
 2357 0cd0 0895      		ret
 2358               	.LBE104:
 2359               	.LBE103:
 2360               	.LFE17:
 2361               		.size	startKeyMapping, .-startKeyMapping
 2362               	.global	prepareKeyMapping
 2363               		.type	prepareKeyMapping, @function
 2364               	prepareKeyMapping:
 2365               	.LFB12:
 2366               	.LM387:
 2367               	/* prologue: function */
 2368               	/* frame size = 0 */
 2369               	.LBB105:
 2370               	.LBB106:
 2371               	.LM388:
 2372 0cd2 8091 0000 		lds r24,_isKeyMapping
 2373 0cd6 8160      		ori r24,lo8(1)
 2374 0cd8 8093 0000 		sts _isKeyMapping,r24
 2375               	.LBE106:
 2376               	.LBE105:
 2377               	.LM389:
 2378 0cdc 8091 0000 		lds r24,INTERFACE
 2379 0ce0 8150      		subi r24,lo8(-(-1))
 2380 0ce2 8230      		cpi r24,lo8(2)
 2381 0ce4 00F4      		brsh .L190
 2382               	.LM390:
 2383 0ce6 0E94 0000 		call prepareKeyMappingUsb
 2384 0cea 00C0      		rjmp .L191
 2385               	.L190:
 2386               	.LM391:
 2387 0cec 0E94 0000 		call prepareKeyMappingPs2
 2388               	.LM392:
GAS LISTING C:\Users\ADMINI~1\AppData\Local\Temp/ccYJNKdD.s 			page 43


 2389 0cf0 84EC      		ldi r24,lo8(2500)
 2390 0cf2 99E0      		ldi r25,hi8(2500)
 2391 0cf4 9093 0000 		sts (keyMappingCountMax)+1,r25
 2392 0cf8 8093 0000 		sts keyMappingCountMax,r24
 2393               	.L191:
 2394               	.LM393:
 2395 0cfc 0E94 0000 		call printPrepareString
 2396               	/* epilogue start */
 2397               	.LM394:
 2398 0d00 0895      		ret
 2399               	.LFE12:
 2400               		.size	prepareKeyMapping, .-prepareKeyMapping
 2401               	.global	countKeyMappingEnabled
 2402               		.type	countKeyMappingEnabled, @function
 2403               	countKeyMappingEnabled:
 2404               	.LFB19:
 2405               	.LM395:
 2406               	/* prologue: function */
 2407               	/* frame size = 0 */
 2408               	.LM396:
 2409 0d02 8091 0000 		lds r24,_isKeyMapping
 2410 0d06 8823      		tst r24
 2411 0d08 01F4      		brne .L195
 2412 0d0a 8091 0000 		lds r24,enabledKeyMappingCount
 2413 0d0e 8823      		tst r24
 2414 0d10 01F0      		breq .L195
 2415 0d12 8091 0000 		lds r24,keyMappingCount
 2416 0d16 9091 0000 		lds r25,(keyMappingCount)+1
 2417 0d1a 0196      		adiw r24,1
 2418 0d1c 9093 0000 		sts (keyMappingCount)+1,r25
 2419 0d20 8093 0000 		sts keyMappingCount,r24
 2420 0d24 2091 0000 		lds r18,keyMappingCountMax
 2421 0d28 3091 0000 		lds r19,(keyMappingCountMax)+1
 2422 0d2c 2817      		cp r18,r24
 2423 0d2e 3907      		cpc r19,r25
 2424 0d30 04F4      		brge .L195
 2425               	.LM397:
 2426 0d32 1092 0000 		sts enabledKeyMappingCount,__zero_reg__
 2427               	.LM398:
 2428 0d36 0E94 0000 		call prepareKeyMapping
 2429               	.L195:
 2430 0d3a 0895      		ret
 2431               	.LFE19:
 2432               		.size	countKeyMappingEnabled, .-countKeyMappingEnabled
 2433               	.global	enterFrameForMapper
 2434               		.type	enterFrameForMapper, @function
 2435               	enterFrameForMapper:
 2436               	.LFB20:
 2437               	.LM399:
 2438               	/* prologue: function */
 2439               	/* frame size = 0 */
 2440               	.LM400:
 2441 0d3c 0E94 0000 		call countKeyMappingEnabled
 2442               	.LM401:
 2443 0d40 8091 0000 		lds r24,_isKeyMapping
 2444 0d44 81FF      		sbrs r24,1
 2445 0d46 00C0      		rjmp .L203
GAS LISTING C:\Users\ADMINI~1\AppData\Local\Temp/ccYJNKdD.s 			page 44


 2446               	.LM402:
 2447 0d48 8091 0000 		lds r24,_isWorkingForEmpty
 2448 0d4c 8823      		tst r24
 2449 0d4e 01F0      		breq .L198
 2450 0d50 0E94 0000 		call isMacroProcessEnd
 2451 0d54 8823      		tst r24
 2452 0d56 01F0      		breq .L198
 2453               	.LM403:
 2454 0d58 8091 0000 		lds r24,_wait
 2455 0d5c 8B30      		cpi r24,lo8(11)
 2456 0d5e 01F4      		brne .L199
 2457               	.LM404:
 2458 0d60 0E94 0000 		call saveCurrentLayerAfter
 2459 0d64 00C0      		rjmp .L200
 2460               	.L199:
 2461               	.LM405:
 2462 0d66 8A30      		cpi r24,lo8(10)
 2463 0d68 01F4      		brne .L201
 2464               	.LM406:
 2465 0d6a 0E94 0000 		call printMapperMessageAfter
 2466 0d6e 00C0      		rjmp .L200
 2467               	.L201:
 2468               	.LM407:
 2469 0d70 8C30      		cpi r24,lo8(12)
 2470 0d72 01F4      		brne .L202
 2471               	.LM408:
 2472 0d74 0E94 0000 		call clearMacroAfter
 2473 0d78 00C0      		rjmp .L200
 2474               	.L202:
 2475               	.LM409:
 2476 0d7a 1092 0000 		sts _isWorkingForEmpty,__zero_reg__
 2477               	.L200:
 2478               	.LM410:
 2479 0d7e 1092 0000 		sts _wait,__zero_reg__
 2480               	.L198:
 2481               	.LM411:
 2482 0d82 8091 0000 		lds r24,_isPressedEscapeKey
 2483 0d86 8823      		tst r24
 2484 0d88 01F0      		breq .L203
 2485 0d8a 8091 0000 		lds r24,_pressedEscapeKeyCount
 2486 0d8e 9091 0000 		lds r25,(_pressedEscapeKeyCount)+1
 2487 0d92 0196      		adiw r24,1
 2488 0d94 9093 0000 		sts (_pressedEscapeKeyCount)+1,r25
 2489 0d98 8093 0000 		sts _pressedEscapeKeyCount,r24
 2490 0d9c 895E      		subi r24,lo8(1001)
 2491 0d9e 9340      		sbci r25,hi8(1001)
 2492 0da0 04F0      		brlt .L203
 2493               	.LM412:
 2494 0da2 81E0      		ldi r24,lo8(1)
 2495 0da4 8093 0000 		sts _isTiredEscapeKey,r24
 2496               	.LM413:
 2497 0da8 89E2      		ldi r24,lo8(41)
 2498 0daa 6FEF      		ldi r22,lo8(-1)
 2499 0dac 4FEF      		ldi r20,lo8(-1)
 2500 0dae 20E0      		ldi r18,lo8(0)
 2501 0db0 0E94 0000 		call putKeyCode
 2502               	.L203:
GAS LISTING C:\Users\ADMINI~1\AppData\Local\Temp/ccYJNKdD.s 			page 45


 2503 0db4 0895      		ret
 2504               	.LFE20:
 2505               		.size	enterFrameForMapper, .-enterFrameForMapper
 2506               	.global	startKeyMappingOnBoot
 2507               		.type	startKeyMappingOnBoot, @function
 2508               	startKeyMappingOnBoot:
 2509               	.LFB16:
 2510               	.LM414:
 2511               	/* prologue: function */
 2512               	/* frame size = 0 */
 2513               	.LM415:
 2514 0db6 8091 0000 		lds r24,_keyMappingOnBoot
 2515 0dba 8130      		cpi r24,lo8(1)
 2516 0dbc 01F4      		brne .L206
 2517               	.LM416:
 2518 0dbe 0E94 0000 		call prepareKeyMapping
 2519               	.LM417:
 2520 0dc2 1092 0000 		sts _keyMappingOnBoot,__zero_reg__
 2521               	.L206:
 2522 0dc6 0895      		ret
 2523               	.LFE16:
 2524               		.size	startKeyMappingOnBoot, .-startKeyMappingOnBoot
 2525               	.global	str_select_mode
 2526               		.section	.progmem.data,"a",@progbits
 2527               		.type	str_select_mode, @object
 2528               		.size	str_select_mode, 12
 2529               	str_select_mode:
 2530 0000 7365 6C65 		.string	"select mode"
 2530      6374 206D 
 2530      6F64 6500 
 2531               	.global	str_select_mode1
 2532               		.type	str_select_mode1, @object
 2533               		.size	str_select_mode1, 14
 2534               	str_select_mode1:
 2535 000c 313A 4B65 		.string	"1:Key Mapping"
 2535      7920 4D61 
 2535      7070 696E 
 2535      6700 
 2536               	.global	str_select_mode2
 2537               		.type	str_select_mode2, @object
 2538               		.size	str_select_mode2, 8
 2539               	str_select_mode2:
 2540 001a 323A 4D61 		.string	"2:Macro"
 2540      6372 6F00 
 2541               	.global	str_select_mode3
 2542               		.type	str_select_mode3, @object
 2543               		.size	str_select_mode3, 7
 2544               	str_select_mode3:
 2545 0022 333A 4578 		.string	"3:Exit"
 2545      6974 00
 2546               	.global	str_exit
 2547               		.type	str_exit, @object
 2548               		.size	str_exit, 10
 2549               	str_exit:
 2550 0029 676F 6F64 		.string	"good bye~"
 2550      2062 7965 
 2550      7E00 
GAS LISTING C:\Users\ADMINI~1\AppData\Local\Temp/ccYJNKdD.s 			page 46


 2551               	.global	str_macro_message
 2552               		.type	str_macro_message, @object
 2553               		.size	str_macro_message, 6
 2554               	str_macro_message:
 2555 0033 4D61 6372 		.string	"Macro"
 2555      6F00 
 2556               	.global	str_macro_1
 2557               		.type	str_macro_1, @object
 2558               		.size	str_macro_1, 21
 2559               	str_macro_1:
 2560 0039 313A 5365 		.string	"1:Select Macro Index"
 2560      6C65 6374 
 2560      204D 6163 
 2560      726F 2049 
 2560      6E64 6578 
 2561               	.global	str_macro_2
 2562               		.type	str_macro_2, @object
 2563               		.size	str_macro_2, 7
 2564               	str_macro_2:
 2565 004e 323A 4578 		.string	"2:Exit"
 2565      6974 00
 2566               	.global	str_macro_9
 2567               		.type	str_macro_9, @object
 2568               		.size	str_macro_9, 12
 2569               	str_macro_9:
 2570 0055 393A 436C 		.string	"9:Clear All"
 2570      6561 7220 
 2570      416C 6C00 
 2571               	.global	str_back_6
 2572               		.type	str_back_6, @object
 2573               		.size	str_back_6, 7
 2574               	str_back_6:
 2575 0061 363A 4261 		.string	"6:Back"
 2575      636B 00
 2576               	.global	str_mapper_message
 2577               		.type	str_mapper_message, @object
 2578               		.size	str_mapper_message, 11
 2579               	str_mapper_message:
 2580 0068 4B65 7920 		.string	"Key Mapper"
 2580      4D61 7070 
 2580      6572 00
 2581               	.global	str_mapper_1
 2582               		.type	str_mapper_1, @object
 2583               		.size	str_mapper_1, 15
 2584               	str_mapper_1:
 2585 0073 313A 4368 		.string	"1:Change Layer"
 2585      616E 6765 
 2585      204C 6179 
 2585      6572 00
 2586               	.global	str_mapper_2
 2587               		.type	str_mapper_2, @object
 2588               		.size	str_mapper_2, 29
 2589               	str_mapper_2:
 2590 0082 323A 5365 		.string	"2:Select Key - input keycode"
 2590      6C65 6374 
 2590      204B 6579 
 2590      202D 2069 
GAS LISTING C:\Users\ADMINI~1\AppData\Local\Temp/ccYJNKdD.s 			page 47


 2590      6E70 7574 
 2591               	.global	str_mapper_3
 2592               		.type	str_mapper_3, @object
 2593               		.size	str_mapper_3, 16
 2594               	str_mapper_3:
 2595 009f 333A 5361 		.string	"3:Save and Exit"
 2595      7665 2061 
 2595      6E64 2045 
 2595      7869 7400 
 2596               	.global	str_mapper_4
 2597               		.type	str_mapper_4, @object
 2598               		.size	str_mapper_4, 22
 2599               	str_mapper_4:
 2600 00af 343A 4578 		.string	"4:Exit without Saving"
 2600      6974 2077 
 2600      6974 686F 
 2600      7574 2053 
 2600      6176 696E 
 2601               	.global	str_mapper_9
 2602               		.type	str_mapper_9, @object
 2603               		.size	str_mapper_9, 35
 2604               	str_mapper_9:
 2605 00c5 393A 5265 		.string	"9:Reset to Default (Current Layer)"
 2605      7365 7420 
 2605      746F 2044 
 2605      6566 6175 
 2605      6C74 2028 
 2606               	.global	str_prepare_message
 2607               		.type	str_prepare_message, @object
 2608               		.size	str_prepare_message, 8
 2609               	str_prepare_message:
 2610 00e8 7073 3261 		.string	"ps2avrU"
 2610      7672 5500 
 2611               	.global	str_choose_layer
 2612               		.type	str_choose_layer, @object
 2613               		.size	str_choose_layer, 50
 2614               	str_choose_layer:
 2615 00f0 6368 6F6F 		.string	"choose layer (1: normal, 2: FN, 3: FN2) current= "
 2615      7365 206C 
 2615      6179 6572 
 2615      2028 313A 
 2615      206E 6F72 
 2616               	.global	str_choose_key
 2617               		.type	str_choose_key, @object
 2618               		.size	str_choose_key, 31
 2619               	str_choose_key:
 2620 0122 7365 6C65 		.string	"select key (any key you want) "
 2620      6374 206B 
 2620      6579 2028 
 2620      616E 7920 
 2620      6B65 7920 
 2621               	.global	str_input_keycode
 2622               		.type	str_input_keycode, @object
 2623               		.size	str_input_keycode, 34
 2624               	str_input_keycode:
 2625 0141 696E 7075 		.string	"input keycode (must 3 numbers) : "
 2625      7420 6B65 
GAS LISTING C:\Users\ADMINI~1\AppData\Local\Temp/ccYJNKdD.s 			page 48


 2625      7963 6F64 
 2625      6520 286D 
 2625      7573 7420 
 2626               	.global	str_save_end_mapping
 2627               		.type	str_save_end_mapping, @object
 2628               		.size	str_save_end_mapping, 24
 2629               	str_save_end_mapping:
 2630 0163 5361 7665 		.string	"Save & Exit, thank you."
 2630      2026 2045 
 2630      7869 742C 
 2630      2074 6861 
 2630      6E6B 2079 
 2631               	.global	str_cancel_mapping
 2632               		.type	str_cancel_mapping, @object
 2633               		.size	str_cancel_mapping, 36
 2634               	str_cancel_mapping:
 2635 017b 4578 6974 		.string	"Exit without Saving, see you later."
 2635      2077 6974 
 2635      686F 7574 
 2635      2053 6176 
 2635      696E 672C 
 2636               	.global	str_reset_mapping
 2637               		.type	str_reset_mapping, @object
 2638               		.size	str_reset_mapping, 31
 2639               	str_reset_mapping:
 2640 019f 5265 7365 		.string	"Reset to default current layer"
 2640      7420 746F 
 2640      2064 6566 
 2640      6175 6C74 
 2640      2063 7572 
 2641               	.global	str_input_command
 2642               		.type	str_input_command, @object
 2643               		.size	str_input_command, 23
 2644               	str_input_command:
 2645 01be 496E 7075 		.string	"Input Command Number: "
 2645      7420 436F 
 2645      6D6D 616E 
 2645      6420 4E75 
 2645      6D62 6572 
 2646               	.global	str_nothing
 2647               		.type	str_nothing, @object
 2648               		.size	str_nothing, 8
 2649               	str_nothing:
 2650 01d5 6E6F 7468 		.string	"nothing"
 2650      696E 6700 
 2651               	.global	str_save_layer
 2652               		.type	str_save_layer, @object
 2653               		.size	str_save_layer, 19
 2654               	str_save_layer:
 2655 01dd 5361 7665 		.string	"Save current layer"
 2655      2063 7572 
 2655      7265 6E74 
 2655      206C 6179 
 2655      6572 00
 2656               	.global	str_load_layer
 2657               		.type	str_load_layer, @object
 2658               		.size	str_load_layer, 19
GAS LISTING C:\Users\ADMINI~1\AppData\Local\Temp/ccYJNKdD.s 			page 49


 2659               	str_load_layer:
 2660 01f0 4C6F 6164 		.string	"Load current layer"
 2660      2063 7572 
 2660      7265 6E74 
 2660      206C 6179 
 2660      6572 00
 2661               	.global	str_saving
 2662               		.type	str_saving, @object
 2663               		.size	str_saving, 10
 2664               	str_saving:
 2665 0203 7361 7669 		.string	"saving..."
 2665      6E67 2E2E 
 2665      2E00 
 2666               	.global	str_col_row
 2667               		.type	str_col_row, @object
 2668               		.size	str_col_row, 12
 2669               	str_col_row:
 2670 020d 636F 6C2C 		.string	"col, row : "
 2670      2072 6F77 
 2670      203A 2000 
 2671               	.global	str_invalid_keycode
 2672               		.type	str_invalid_keycode, @object
 2673               		.size	str_invalid_keycode, 30
 2674               	str_invalid_keycode:
 2675 0219 696E 7661 		.string	"invalid keycode, input again."
 2675      6C69 6420 
 2675      6B65 7963 
 2675      6F64 652C 
 2675      2069 6E70 
 2676               	.global	str_select_number
 2677               		.type	str_select_number, @object
 2678               		.size	str_select_number, 45
 2679               	str_select_number:
 2680 0237 696E 7075 		.string	"input Macro Index (01~12, must 2 numbers) : "
 2680      7420 4D61 
 2680      6372 6F20 
 2680      496E 6465 
 2680      7820 2830 
 2681               	.global	str_exit_macro
 2682               		.type	str_exit_macro, @object
 2683               		.size	str_exit_macro, 27
 2684               	str_exit_macro:
 2685 0264 4578 6974 		.string	"Exit macro, see you later."
 2685      206D 6163 
 2685      726F 2C20 
 2685      7365 6520 
 2685      796F 7520 
 2686               	.global	str_input_macro
 2687               		.type	str_input_macro, @object
 2688               		.size	str_input_macro, 55
 2689               	str_input_macro:
 2690 027f 696E 7075 		.string	"input key (max 24 keys, stop : press ESC during 1 sec)"
 2690      7420 6B65 
 2690      7920 286D 
 2690      6178 2032 
 2690      3420 6B65 
 2691               	.global	str_invalid_macro_number
GAS LISTING C:\Users\ADMINI~1\AppData\Local\Temp/ccYJNKdD.s 			page 50


 2692               		.type	str_invalid_macro_number, @object
 2693               		.size	str_invalid_macro_number, 28
 2694               	str_invalid_macro_number:
 2695 02b6 696E 7661 		.string	"invalid Index, input again."
 2695      6C69 6420 
 2695      496E 6465 
 2695      782C 2069 
 2695      6E70 7574 
 2696               	.global	str_clear_all_macro
 2697               		.type	str_clear_all_macro, @object
 2698               		.size	str_clear_all_macro, 9
 2699               	str_clear_all_macro:
 2700 02d2 636C 6561 		.string	"clear..."
 2700      722E 2E2E 
 2700      00
 2701               	.global	_pressedEscapeKeyCount
 2702               	.global	_pressedEscapeKeyCount
 2703               		.section .bss
 2704               		.type	_pressedEscapeKeyCount, @object
 2705               		.size	_pressedEscapeKeyCount, 2
 2706               	_pressedEscapeKeyCount:
 2707 0000 0000      		.skip 2,0
 2708               	.global	_isPressedEscapeKey
 2709               	.global	_isPressedEscapeKey
 2710               		.type	_isPressedEscapeKey, @object
 2711               		.size	_isPressedEscapeKey, 1
 2712               	_isPressedEscapeKey:
 2713 0002 00        		.skip 1,0
 2714               	.global	_isTiredEscapeKey
 2715               	.global	_isTiredEscapeKey
 2716               		.type	_isTiredEscapeKey, @object
 2717               		.size	_isTiredEscapeKey, 1
 2718               	_isTiredEscapeKey:
 2719 0003 00        		.skip 1,0
 2720               		.lcomm _isWorkingForEmpty,1
 2721               		.data
 2722               		.type	usingKeys, @object
 2723               		.size	usingKeys, 11
 2724               	usingKeys:
 2725 0028 27        		.byte	39
 2726 0029 1E        		.byte	30
 2727 002a 1F        		.byte	31
 2728 002b 20        		.byte	32
 2729 002c 21        		.byte	33
 2730 002d 22        		.byte	34
 2731 002e 23        		.byte	35
 2732 002f 24        		.byte	36
 2733 0030 25        		.byte	37
 2734 0031 26        		.byte	38
 2735 0032 29        		.byte	41
 2736               		.lcomm _macroDownCount,1
 2737               		.lcomm _isKeyMapping,1
 2738               		.lcomm enabledKeyMappingCount,1
 2739               		.lcomm keyMappingCount,2
 2740               		.type	keyMappingCountMax, @object
 2741               		.size	keyMappingCountMax, 2
 2742               	keyMappingCountMax:
GAS LISTING C:\Users\ADMINI~1\AppData\Local\Temp/ccYJNKdD.s 			page 51


 2743 0033 8813      		.word	5000
 2744               		.lcomm _keyMappingOnBoot,1
 2745               		.lcomm _mode,1
 2746               		.lcomm _step,1
 2747               		.lcomm _stepAfterSave,1
 2748               		.lcomm _wait,1
 2749               		.lcomm _col,1
 2750               		.lcomm _row,1
 2751               		.lcomm _buffer,3
 2752               		.lcomm _bufferIndex,1
 2753               		.lcomm _editCount,2
 2754               		.lcomm _currentLayer,1
 2755               		.lcomm _currentLayerAfter,1
 2756               		.comm _macroIndex,1,1
 2757               		.comm _macroBufferIndex,1,1
 2758               		.comm _macroPressedBuffer,24,1
 2759               		.comm _macroInputBuffer,48,1
 2760               		.comm _newKeyMap,136,1
 2761               		.section	.debug_frame,"",@progbits
 2762               	.Lframe0:
 2763 0000 0C00 0000 		.long	.LECIE0-.LSCIE0
 2764               	.LSCIE0:
 2765 0004 FFFF FFFF 		.long	0xffffffff
 2766 0008 01        		.byte	0x1
 2767 0009 00        		.string	""
 2768 000a 01        		.uleb128 0x1
 2769 000b 7F        		.sleb128 -1
 2770 000c 24        		.byte	0x24
 2771 000d 0C        		.byte	0xc
 2772 000e 20        		.uleb128 0x20
 2773 000f 00        		.uleb128 0x0
 2774               		.p2align	2
 2775               	.LECIE0:
 2776               	.LSFDE0:
 2777 0010 0C00 0000 		.long	.LEFDE0-.LASFDE0
 2778               	.LASFDE0:
 2779 0014 0000 0000 		.long	.Lframe0
 2780 0018 0000 0000 		.long	.LFB8
 2781 001c 0C00 0000 		.long	.LFE8-.LFB8
 2782               		.p2align	2
 2783               	.LEFDE0:
 2784               	.LSFDE2:
 2785 0020 0C00 0000 		.long	.LEFDE2-.LASFDE2
 2786               	.LASFDE2:
 2787 0024 0000 0000 		.long	.Lframe0
 2788 0028 0000 0000 		.long	.LFB9
 2789 002c 0800 0000 		.long	.LFE9-.LFB9
 2790               		.p2align	2
 2791               	.LEFDE2:
 2792               	.LSFDE4:
 2793 0030 0C00 0000 		.long	.LEFDE4-.LASFDE4
 2794               	.LASFDE4:
 2795 0034 0000 0000 		.long	.Lframe0
 2796 0038 0000 0000 		.long	.LFB10
 2797 003c 0800 0000 		.long	.LFE10-.LFB10
 2798               		.p2align	2
 2799               	.LEFDE4:
GAS LISTING C:\Users\ADMINI~1\AppData\Local\Temp/ccYJNKdD.s 			page 52


 2800               	.LSFDE6:
 2801 0040 0C00 0000 		.long	.LEFDE6-.LASFDE6
 2802               	.LASFDE6:
 2803 0044 0000 0000 		.long	.Lframe0
 2804 0048 0000 0000 		.long	.LFB11
 2805 004c 4000 0000 		.long	.LFE11-.LFB11
 2806               		.p2align	2
 2807               	.LEFDE6:
 2808               	.LSFDE8:
 2809 0050 0C00 0000 		.long	.LEFDE8-.LASFDE8
 2810               	.LASFDE8:
 2811 0054 0000 0000 		.long	.Lframe0
 2812 0058 0000 0000 		.long	.LFB14
 2813 005c 0600 0000 		.long	.LFE14-.LFB14
 2814               		.p2align	2
 2815               	.LEFDE8:
 2816               	.LSFDE10:
 2817 0060 0C00 0000 		.long	.LEFDE10-.LASFDE10
 2818               	.LASFDE10:
 2819 0064 0000 0000 		.long	.Lframe0
 2820 0068 0000 0000 		.long	.LFB15
 2821 006c 0800 0000 		.long	.LFE15-.LFB15
 2822               		.p2align	2
 2823               	.LEFDE10:
 2824               	.LSFDE12:
 2825 0070 0C00 0000 		.long	.LEFDE12-.LASFDE12
 2826               	.LASFDE12:
 2827 0074 0000 0000 		.long	.Lframe0
 2828 0078 0000 0000 		.long	.LFB18
 2829 007c 0A00 0000 		.long	.LFE18-.LFB18
 2830               		.p2align	2
 2831               	.LEFDE12:
 2832               	.LSFDE14:
 2833 0080 0C00 0000 		.long	.LEFDE14-.LASFDE14
 2834               	.LASFDE14:
 2835 0084 0000 0000 		.long	.Lframe0
 2836 0088 0000 0000 		.long	.LFB23
 2837 008c 0E00 0000 		.long	.LFE23-.LFB23
 2838               		.p2align	2
 2839               	.LEFDE14:
 2840               	.LSFDE16:
 2841 0090 0C00 0000 		.long	.LEFDE16-.LASFDE16
 2842               	.LASFDE16:
 2843 0094 0000 0000 		.long	.Lframe0
 2844 0098 0000 0000 		.long	.LFB24
 2845 009c 0E00 0000 		.long	.LFE24-.LFB24
 2846               		.p2align	2
 2847               	.LEFDE16:
 2848               	.LSFDE18:
 2849 00a0 0C00 0000 		.long	.LEFDE18-.LASFDE18
 2850               	.LASFDE18:
 2851 00a4 0000 0000 		.long	.Lframe0
 2852 00a8 0000 0000 		.long	.LFB27
 2853 00ac 0E00 0000 		.long	.LFE27-.LFB27
 2854               		.p2align	2
 2855               	.LEFDE18:
 2856               	.LSFDE20:
GAS LISTING C:\Users\ADMINI~1\AppData\Local\Temp/ccYJNKdD.s 			page 53


 2857 00b0 0C00 0000 		.long	.LEFDE20-.LASFDE20
 2858               	.LASFDE20:
 2859 00b4 0000 0000 		.long	.Lframe0
 2860 00b8 0000 0000 		.long	.LFB46
 2861 00bc 2600 0000 		.long	.LFE46-.LFB46
 2862               		.p2align	2
 2863               	.LEFDE20:
 2864               	.LSFDE22:
 2865 00c0 0C00 0000 		.long	.LEFDE22-.LASFDE22
 2866               	.LASFDE22:
 2867 00c4 0000 0000 		.long	.Lframe0
 2868 00c8 0000 0000 		.long	.LFB26
 2869 00cc 3400 0000 		.long	.LFE26-.LFB26
 2870               		.p2align	2
 2871               	.LEFDE22:
 2872               	.LSFDE24:
 2873 00d0 0C00 0000 		.long	.LEFDE24-.LASFDE24
 2874               	.LASFDE24:
 2875 00d4 0000 0000 		.long	.Lframe0
 2876 00d8 0000 0000 		.long	.LFB28
 2877 00dc A600 0000 		.long	.LFE28-.LFB28
 2878               		.p2align	2
 2879               	.LEFDE24:
 2880               	.LSFDE26:
 2881 00e0 0C00 0000 		.long	.LEFDE26-.LASFDE26
 2882               	.LASFDE26:
 2883 00e4 0000 0000 		.long	.Lframe0
 2884 00e8 0000 0000 		.long	.LFB29
 2885 00ec 9000 0000 		.long	.LFE29-.LFB29
 2886               		.p2align	2
 2887               	.LEFDE26:
 2888               	.LSFDE28:
 2889 00f0 0C00 0000 		.long	.LEFDE28-.LASFDE28
 2890               	.LASFDE28:
 2891 00f4 0000 0000 		.long	.Lframe0
 2892 00f8 0000 0000 		.long	.LFB45
 2893 00fc 4C00 0000 		.long	.LFE45-.LFB45
 2894               		.p2align	2
 2895               	.LEFDE28:
 2896               	.LSFDE30:
 2897 0100 0C00 0000 		.long	.LEFDE30-.LASFDE30
 2898               	.LASFDE30:
 2899 0104 0000 0000 		.long	.Lframe0
 2900 0108 0000 0000 		.long	.LFB44
 2901 010c 1E00 0000 		.long	.LFE44-.LFB44
 2902               		.p2align	2
 2903               	.LEFDE30:
 2904               	.LSFDE32:
 2905 0110 0C00 0000 		.long	.LEFDE32-.LASFDE32
 2906               	.LASFDE32:
 2907 0114 0000 0000 		.long	.Lframe0
 2908 0118 0000 0000 		.long	.LFB39
 2909 011c 3C00 0000 		.long	.LFE39-.LFB39
 2910               		.p2align	2
 2911               	.LEFDE32:
 2912               	.LSFDE34:
 2913 0120 0C00 0000 		.long	.LEFDE34-.LASFDE34
GAS LISTING C:\Users\ADMINI~1\AppData\Local\Temp/ccYJNKdD.s 			page 54


 2914               	.LASFDE34:
 2915 0124 0000 0000 		.long	.Lframe0
 2916 0128 0000 0000 		.long	.LFB35
 2917 012c 0E00 0000 		.long	.LFE35-.LFB35
 2918               		.p2align	2
 2919               	.LEFDE34:
 2920               	.LSFDE36:
 2921 0130 0C00 0000 		.long	.LEFDE36-.LASFDE36
 2922               	.LASFDE36:
 2923 0134 0000 0000 		.long	.Lframe0
 2924 0138 0000 0000 		.long	.LFB34
 2925 013c 4800 0000 		.long	.LFE34-.LFB34
 2926               		.p2align	2
 2927               	.LEFDE36:
 2928               	.LSFDE38:
 2929 0140 0C00 0000 		.long	.LEFDE38-.LASFDE38
 2930               	.LASFDE38:
 2931 0144 0000 0000 		.long	.Lframe0
 2932 0148 0000 0000 		.long	.LFB30
 2933 014c D000 0000 		.long	.LFE30-.LFB30
 2934               		.p2align	2
 2935               	.LEFDE38:
 2936               	.LSFDE40:
 2937 0150 0C00 0000 		.long	.LEFDE40-.LASFDE40
 2938               	.LASFDE40:
 2939 0154 0000 0000 		.long	.Lframe0
 2940 0158 0000 0000 		.long	.LFB31
 2941 015c 4000 0000 		.long	.LFE31-.LFB31
 2942               		.p2align	2
 2943               	.LEFDE40:
 2944               	.LSFDE42:
 2945 0160 0C00 0000 		.long	.LEFDE42-.LASFDE42
 2946               	.LASFDE42:
 2947 0164 0000 0000 		.long	.Lframe0
 2948 0168 0000 0000 		.long	.LFB32
 2949 016c 4000 0000 		.long	.LFE32-.LFB32
 2950               		.p2align	2
 2951               	.LEFDE42:
 2952               	.LSFDE44:
 2953 0170 0C00 0000 		.long	.LEFDE44-.LASFDE44
 2954               	.LASFDE44:
 2955 0174 0000 0000 		.long	.Lframe0
 2956 0178 0000 0000 		.long	.LFB43
 2957 017c 2A00 0000 		.long	.LFE43-.LFB43
 2958               		.p2align	2
 2959               	.LEFDE44:
 2960               	.LSFDE46:
 2961 0180 0C00 0000 		.long	.LEFDE46-.LASFDE46
 2962               	.LASFDE46:
 2963 0184 0000 0000 		.long	.Lframe0
 2964 0188 0000 0000 		.long	.LFB42
 2965 018c 4800 0000 		.long	.LFE42-.LFB42
 2966               		.p2align	2
 2967               	.LEFDE46:
 2968               	.LSFDE48:
 2969 0190 0C00 0000 		.long	.LEFDE48-.LASFDE48
 2970               	.LASFDE48:
GAS LISTING C:\Users\ADMINI~1\AppData\Local\Temp/ccYJNKdD.s 			page 55


 2971 0194 0000 0000 		.long	.Lframe0
 2972 0198 0000 0000 		.long	.LFB41
 2973 019c 4800 0000 		.long	.LFE41-.LFB41
 2974               		.p2align	2
 2975               	.LEFDE48:
 2976               	.LSFDE50:
 2977 01a0 0C00 0000 		.long	.LEFDE50-.LASFDE50
 2978               	.LASFDE50:
 2979 01a4 0000 0000 		.long	.Lframe0
 2980 01a8 0000 0000 		.long	.LFB36
 2981 01ac 8800 0000 		.long	.LFE36-.LFB36
 2982               		.p2align	2
 2983               	.LEFDE50:
 2984               	.LSFDE52:
 2985 01b0 0C00 0000 		.long	.LEFDE52-.LASFDE52
 2986               	.LASFDE52:
 2987 01b4 0000 0000 		.long	.Lframe0
 2988 01b8 0000 0000 		.long	.LFB47
 2989 01bc 5A05 0000 		.long	.LFE47-.LFB47
 2990               		.p2align	2
 2991               	.LEFDE52:
 2992               	.LSFDE54:
 2993 01c0 0C00 0000 		.long	.LEFDE54-.LASFDE54
 2994               	.LASFDE54:
 2995 01c4 0000 0000 		.long	.Lframe0
 2996 01c8 0000 0000 		.long	.LFB38
 2997 01cc CE00 0000 		.long	.LFE38-.LFB38
 2998               		.p2align	2
 2999               	.LEFDE54:
 3000               	.LSFDE56:
 3001 01d0 0C00 0000 		.long	.LEFDE56-.LASFDE56
 3002               	.LASFDE56:
 3003 01d4 0000 0000 		.long	.Lframe0
 3004 01d8 0000 0000 		.long	.LFB37
 3005 01dc 2400 0000 		.long	.LFE37-.LFB37
 3006               		.p2align	2
 3007               	.LEFDE56:
 3008               	.LSFDE58:
 3009 01e0 0C00 0000 		.long	.LEFDE58-.LASFDE58
 3010               	.LASFDE58:
 3011 01e4 0000 0000 		.long	.Lframe0
 3012 01e8 0000 0000 		.long	.LFB25
 3013 01ec 7600 0000 		.long	.LFE25-.LFB25
 3014               		.p2align	2
 3015               	.LEFDE58:
 3016               	.LSFDE60:
 3017 01f0 0C00 0000 		.long	.LEFDE60-.LASFDE60
 3018               	.LASFDE60:
 3019 01f4 0000 0000 		.long	.Lframe0
 3020 01f8 0000 0000 		.long	.LFB40
 3021 01fc 3000 0000 		.long	.LFE40-.LFB40
 3022               		.p2align	2
 3023               	.LEFDE60:
 3024               	.LSFDE62:
 3025 0200 0C00 0000 		.long	.LEFDE62-.LASFDE62
 3026               	.LASFDE62:
 3027 0204 0000 0000 		.long	.Lframe0
GAS LISTING C:\Users\ADMINI~1\AppData\Local\Temp/ccYJNKdD.s 			page 56


 3028 0208 0000 0000 		.long	.LFB17
 3029 020c 2400 0000 		.long	.LFE17-.LFB17
 3030               		.p2align	2
 3031               	.LEFDE62:
 3032               	.LSFDE64:
 3033 0210 0C00 0000 		.long	.LEFDE64-.LASFDE64
 3034               	.LASFDE64:
 3035 0214 0000 0000 		.long	.Lframe0
 3036 0218 0000 0000 		.long	.LFB12
 3037 021c 3000 0000 		.long	.LFE12-.LFB12
 3038               		.p2align	2
 3039               	.LEFDE64:
 3040               	.LSFDE66:
 3041 0220 0C00 0000 		.long	.LEFDE66-.LASFDE66
 3042               	.LASFDE66:
 3043 0224 0000 0000 		.long	.Lframe0
 3044 0228 0000 0000 		.long	.LFB19
 3045 022c 3A00 0000 		.long	.LFE19-.LFB19
 3046               		.p2align	2
 3047               	.LEFDE66:
 3048               	.LSFDE68:
 3049 0230 0C00 0000 		.long	.LEFDE68-.LASFDE68
 3050               	.LASFDE68:
 3051 0234 0000 0000 		.long	.Lframe0
 3052 0238 0000 0000 		.long	.LFB20
 3053 023c 7A00 0000 		.long	.LFE20-.LFB20
 3054               		.p2align	2
 3055               	.LEFDE68:
 3056               	.LSFDE70:
 3057 0240 0C00 0000 		.long	.LEFDE70-.LASFDE70
 3058               	.LASFDE70:
 3059 0244 0000 0000 		.long	.Lframe0
 3060 0248 0000 0000 		.long	.LFB16
 3061 024c 1200 0000 		.long	.LFE16-.LFB16
 3062               		.p2align	2
 3063               	.LEFDE70:
 3064               		.text
 3065               	.Letext0:
 3066               		.section	.debug_loc,"",@progbits
 3067               	.Ldebug_loc0:
 3068               	.LLST4:
 3069 0000 1C00 0000 		.long	.LVL0-.Ltext0
 3070 0004 2200 0000 		.long	.LVL1-.Ltext0
 3071 0008 0100      		.word	0x1
 3072 000a 68        		.byte	0x68
 3073 000b 2200 0000 		.long	.LVL1-.Ltext0
 3074 000f 5C00 0000 		.long	.LFE11-.Ltext0
 3075 0013 0100      		.word	0x1
 3076 0015 69        		.byte	0x69
 3077 0016 0000 0000 		.long	0x0
 3078 001a 0000 0000 		.long	0x0
 3079               	.LLST9:
 3080 001e 7400 0000 		.long	.LVL2-.Ltext0
 3081 0022 7800 0000 		.long	.LVL3-.Ltext0
 3082 0026 0100      		.word	0x1
 3083 0028 68        		.byte	0x68
 3084 0029 0000 0000 		.long	0x0
GAS LISTING C:\Users\ADMINI~1\AppData\Local\Temp/ccYJNKdD.s 			page 57


 3085 002d 0000 0000 		.long	0x0
 3086               	.LLST11:
 3087 0031 8200 0000 		.long	.LVL4-.Ltext0
 3088 0035 8600 0000 		.long	.LVL5-.Ltext0
 3089 0039 0100      		.word	0x1
 3090 003b 68        		.byte	0x68
 3091 003c 8600 0000 		.long	.LVL5-.Ltext0
 3092 0040 9000 0000 		.long	.LFE24-.Ltext0
 3093 0044 0100      		.word	0x1
 3094 0046 69        		.byte	0x69
 3095 0047 0000 0000 		.long	0x0
 3096 004b 0000 0000 		.long	0x0
 3097               	.LLST15:
 3098 004f C400 0000 		.long	.LVL6-.Ltext0
 3099 0053 CC00 0000 		.long	.LVL7-.Ltext0
 3100 0057 0600      		.word	0x6
 3101 0059 68        		.byte	0x68
 3102 005a 93        		.byte	0x93
 3103 005b 01        		.uleb128 0x1
 3104 005c 69        		.byte	0x69
 3105 005d 93        		.byte	0x93
 3106 005e 01        		.uleb128 0x1
 3107 005f CC00 0000 		.long	.LVL7-.Ltext0
 3108 0063 D000 0000 		.long	.LVL8-.Ltext0
 3109 0067 0600      		.word	0x6
 3110 0069 6E        		.byte	0x6e
 3111 006a 93        		.byte	0x93
 3112 006b 01        		.uleb128 0x1
 3113 006c 6F        		.byte	0x6f
 3114 006d 93        		.byte	0x93
 3115 006e 01        		.uleb128 0x1
 3116 006f 0000 0000 		.long	0x0
 3117 0073 0000 0000 		.long	0x0
 3118               	.LLST17:
 3119 0077 F800 0000 		.long	.LVL15-.Ltext0
 3120 007b 2401 0000 		.long	.LVL17-.Ltext0
 3121 007f 0600      		.word	0x6
 3122 0081 68        		.byte	0x68
 3123 0082 93        		.byte	0x93
 3124 0083 01        		.uleb128 0x1
 3125 0084 69        		.byte	0x69
 3126 0085 93        		.byte	0x93
 3127 0086 01        		.uleb128 0x1
 3128 0087 2401 0000 		.long	.LVL17-.Ltext0
 3129 008b 9201 0000 		.long	.LVL18-.Ltext0
 3130 008f 0600      		.word	0x6
 3131 0091 60        		.byte	0x60
 3132 0092 93        		.byte	0x93
 3133 0093 01        		.uleb128 0x1
 3134 0094 61        		.byte	0x61
 3135 0095 93        		.byte	0x93
 3136 0096 01        		.uleb128 0x1
 3137 0097 0000 0000 		.long	0x0
 3138 009b 0000 0000 		.long	0x0
 3139               	.LLST18:
 3140 009f 1401 0000 		.long	.LVL16-.Ltext0
 3141 00a3 9401 0000 		.long	.LVL19-.Ltext0
GAS LISTING C:\Users\ADMINI~1\AppData\Local\Temp/ccYJNKdD.s 			page 58


 3142 00a7 0100      		.word	0x1
 3143 00a9 5F        		.byte	0x5f
 3144 00aa 0000 0000 		.long	0x0
 3145 00ae 0000 0000 		.long	0x0
 3146               	.LLST20:
 3147 00b2 9E01 0000 		.long	.LVL20-.Ltext0
 3148 00b6 BC01 0000 		.long	.LVL21-.Ltext0
 3149 00ba 0600      		.word	0x6
 3150 00bc 68        		.byte	0x68
 3151 00bd 93        		.byte	0x93
 3152 00be 01        		.uleb128 0x1
 3153 00bf 69        		.byte	0x69
 3154 00c0 93        		.byte	0x93
 3155 00c1 01        		.uleb128 0x1
 3156 00c2 BC01 0000 		.long	.LVL21-.Ltext0
 3157 00c6 FE01 0000 		.long	.LVL25-.Ltext0
 3158 00ca 0600      		.word	0x6
 3159 00cc 60        		.byte	0x60
 3160 00cd 93        		.byte	0x93
 3161 00ce 01        		.uleb128 0x1
 3162 00cf 61        		.byte	0x61
 3163 00d0 93        		.byte	0x93
 3164 00d1 01        		.uleb128 0x1
 3165 00d2 FE01 0000 		.long	.LVL25-.Ltext0
 3166 00d6 0E02 0000 		.long	.LVL26-.Ltext0
 3167 00da 0600      		.word	0x6
 3168 00dc 68        		.byte	0x68
 3169 00dd 93        		.byte	0x93
 3170 00de 01        		.uleb128 0x1
 3171 00df 69        		.byte	0x69
 3172 00e0 93        		.byte	0x93
 3173 00e1 01        		.uleb128 0x1
 3174 00e2 0E02 0000 		.long	.LVL26-.Ltext0
 3175 00e6 2402 0000 		.long	.LVL30-.Ltext0
 3176 00ea 0600      		.word	0x6
 3177 00ec 60        		.byte	0x60
 3178 00ed 93        		.byte	0x93
 3179 00ee 01        		.uleb128 0x1
 3180 00ef 61        		.byte	0x61
 3181 00f0 93        		.byte	0x93
 3182 00f1 01        		.uleb128 0x1
 3183 00f2 2402 0000 		.long	.LVL30-.Ltext0
 3184 00f6 2E02 0000 		.long	.LFE29-.Ltext0
 3185 00fa 0600      		.word	0x6
 3186 00fc 68        		.byte	0x68
 3187 00fd 93        		.byte	0x93
 3188 00fe 01        		.uleb128 0x1
 3189 00ff 69        		.byte	0x69
 3190 0100 93        		.byte	0x93
 3191 0101 01        		.uleb128 0x1
 3192 0102 0000 0000 		.long	0x0
 3193 0106 0000 0000 		.long	0x0
 3194               	.LLST21:
 3195 010a DE01 0000 		.long	.LVL23-.Ltext0
 3196 010e E601 0000 		.long	.LVL24-.Ltext0
 3197 0112 0100      		.word	0x1
 3198 0114 68        		.byte	0x68
GAS LISTING C:\Users\ADMINI~1\AppData\Local\Temp/ccYJNKdD.s 			page 59


 3199 0115 0000 0000 		.long	0x0
 3200 0119 0000 0000 		.long	0x0
 3201               	.LLST22:
 3202 011d BC01 0000 		.long	.LVL21-.Ltext0
 3203 0121 C601 0000 		.long	.LVL22-.Ltext0
 3204 0125 0600      		.word	0x6
 3205 0127 6E        		.byte	0x6e
 3206 0128 93        		.byte	0x93
 3207 0129 01        		.uleb128 0x1
 3208 012a 6F        		.byte	0x6f
 3209 012b 93        		.byte	0x93
 3210 012c 01        		.uleb128 0x1
 3211 012d 1002 0000 		.long	.LVL27-.Ltext0
 3212 0131 2E02 0000 		.long	.LFE29-.Ltext0
 3213 0135 0600      		.word	0x6
 3214 0137 6E        		.byte	0x6e
 3215 0138 93        		.byte	0x93
 3216 0139 01        		.uleb128 0x1
 3217 013a 6F        		.byte	0x6f
 3218 013b 93        		.byte	0x93
 3219 013c 01        		.uleb128 0x1
 3220 013d 0000 0000 		.long	0x0
 3221 0141 0000 0000 		.long	0x0
 3222               	.LLST23:
 3223 0145 BC01 0000 		.long	.LVL21-.Ltext0
 3224 0149 DE01 0000 		.long	.LVL23-.Ltext0
 3225 014d 0100      		.word	0x1
 3226 014f 68        		.byte	0x68
 3227 0150 1602 0000 		.long	.LVL28-.Ltext0
 3228 0154 2E02 0000 		.long	.LFE29-.Ltext0
 3229 0158 0100      		.word	0x1
 3230 015a 68        		.byte	0x68
 3231 015b 0000 0000 		.long	0x0
 3232 015f 0000 0000 		.long	0x0
 3233               	.LLST35:
 3234 0163 EC04 0000 		.long	.LVL33-.Ltext0
 3235 0167 FC04 0000 		.long	.LVL34-.Ltext0
 3236 016b 0100      		.word	0x1
 3237 016d 68        		.byte	0x68
 3238 016e FC04 0000 		.long	.LVL34-.Ltext0
 3239 0172 1405 0000 		.long	.LVL36-.Ltext0
 3240 0176 0100      		.word	0x1
 3241 0178 69        		.byte	0x69
 3242 0179 2A05 0000 		.long	.LVL39-.Ltext0
 3243 017d 3405 0000 		.long	.LFE41-.Ltext0
 3244 0181 0100      		.word	0x1
 3245 0183 68        		.byte	0x68
 3246 0184 0000 0000 		.long	0x0
 3247 0188 0000 0000 		.long	0x0
 3248               	.LLST36:
 3249 018c 0E05 0000 		.long	.LVL35-.Ltext0
 3250 0190 1405 0000 		.long	.LVL36-.Ltext0
 3251 0194 0100      		.word	0x1
 3252 0196 69        		.byte	0x69
 3253 0197 1605 0000 		.long	.LVL37-.Ltext0
 3254 019b 2205 0000 		.long	.LVL38-.Ltext0
 3255 019f 0100      		.word	0x1
GAS LISTING C:\Users\ADMINI~1\AppData\Local\Temp/ccYJNKdD.s 			page 60


 3256 01a1 69        		.byte	0x69
 3257 01a2 2205 0000 		.long	.LVL38-.Ltext0
 3258 01a6 3405 0000 		.long	.LFE41-.Ltext0
 3259 01aa 0100      		.word	0x1
 3260 01ac 69        		.byte	0x69
 3261 01ad 0000 0000 		.long	0x0
 3262 01b1 0000 0000 		.long	0x0
 3263               	.LLST39:
 3264 01b5 BC05 0000 		.long	.LVL40-.Ltext0
 3265 01b9 E405 0000 		.long	.LVL41-.Ltext0
 3266 01bd 0100      		.word	0x1
 3267 01bf 68        		.byte	0x68
 3268 01c0 E405 0000 		.long	.LVL41-.Ltext0
 3269 01c4 0E0B 0000 		.long	.LVL73-.Ltext0
 3270 01c8 0100      		.word	0x1
 3271 01ca 5D        		.byte	0x5d
 3272 01cb 0000 0000 		.long	0x0
 3273 01cf 0000 0000 		.long	0x0
 3274               	.LLST40:
 3275 01d3 BC05 0000 		.long	.LVL40-.Ltext0
 3276 01d7 EA05 0000 		.long	.LVL42-.Ltext0
 3277 01db 0100      		.word	0x1
 3278 01dd 66        		.byte	0x66
 3279 01de EA05 0000 		.long	.LVL42-.Ltext0
 3280 01e2 120B 0000 		.long	.LVL75-.Ltext0
 3281 01e6 0100      		.word	0x1
 3282 01e8 5B        		.byte	0x5b
 3283 01e9 120B 0000 		.long	.LVL75-.Ltext0
 3284 01ed 160B 0000 		.long	.LFE47-.Ltext0
 3285 01f1 0100      		.word	0x1
 3286 01f3 66        		.byte	0x66
 3287 01f4 0000 0000 		.long	0x0
 3288 01f8 0000 0000 		.long	0x0
 3289               	.LLST41:
 3290 01fc BC05 0000 		.long	.LVL40-.Ltext0
 3291 0200 EA05 0000 		.long	.LVL42-.Ltext0
 3292 0204 0100      		.word	0x1
 3293 0206 64        		.byte	0x64
 3294 0207 EA05 0000 		.long	.LVL42-.Ltext0
 3295 020b 140B 0000 		.long	.LVL76-.Ltext0
 3296 020f 0100      		.word	0x1
 3297 0211 5A        		.byte	0x5a
 3298 0212 140B 0000 		.long	.LVL76-.Ltext0
 3299 0216 160B 0000 		.long	.LFE47-.Ltext0
 3300 021a 0100      		.word	0x1
 3301 021c 64        		.byte	0x64
 3302 021d 0000 0000 		.long	0x0
 3303 0221 0000 0000 		.long	0x0
 3304               	.LLST42:
 3305 0225 BC05 0000 		.long	.LVL40-.Ltext0
 3306 0229 EA05 0000 		.long	.LVL42-.Ltext0
 3307 022d 0100      		.word	0x1
 3308 022f 62        		.byte	0x62
 3309 0230 EA05 0000 		.long	.LVL42-.Ltext0
 3310 0234 100B 0000 		.long	.LVL74-.Ltext0
 3311 0238 0100      		.word	0x1
 3312 023a 5C        		.byte	0x5c
GAS LISTING C:\Users\ADMINI~1\AppData\Local\Temp/ccYJNKdD.s 			page 61


 3313 023b 100B 0000 		.long	.LVL74-.Ltext0
 3314 023f 160B 0000 		.long	.LFE47-.Ltext0
 3315 0243 0100      		.word	0x1
 3316 0245 62        		.byte	0x62
 3317 0246 0000 0000 		.long	0x0
 3318 024a 0000 0000 		.long	0x0
 3319               	.LLST43:
 3320 024e 5407 0000 		.long	.LVL46-.Ltext0
 3321 0252 2C08 0000 		.long	.LVL47-.Ltext0
 3322 0256 0100      		.word	0x1
 3323 0258 60        		.byte	0x60
 3324 0259 8009 0000 		.long	.LVL56-.Ltext0
 3325 025d 8409 0000 		.long	.LVL57-.Ltext0
 3326 0261 0100      		.word	0x1
 3327 0263 60        		.byte	0x60
 3328 0264 480A 0000 		.long	.LVL60-.Ltext0
 3329 0268 520A 0000 		.long	.LVL61-.Ltext0
 3330 026c 0100      		.word	0x1
 3331 026e 60        		.byte	0x60
 3332 026f F60A 0000 		.long	.LVL68-.Ltext0
 3333 0273 080B 0000 		.long	.LVL71-.Ltext0
 3334 0277 0100      		.word	0x1
 3335 0279 60        		.byte	0x60
 3336 027a 0000 0000 		.long	0x0
 3337 027e 0000 0000 		.long	0x0
 3338               	.LLST44:
 3339 0282 2A09 0000 		.long	.LVL55-.Ltext0
 3340 0286 8409 0000 		.long	.LVL57-.Ltext0
 3341 028a 0100      		.word	0x1
 3342 028c 61        		.byte	0x61
 3343 028d 480A 0000 		.long	.LVL60-.Ltext0
 3344 0291 520A 0000 		.long	.LVL61-.Ltext0
 3345 0295 0100      		.word	0x1
 3346 0297 61        		.byte	0x61
 3347 0298 F60A 0000 		.long	.LVL68-.Ltext0
 3348 029c 060B 0000 		.long	.LVL70-.Ltext0
 3349 02a0 0100      		.word	0x1
 3350 02a2 61        		.byte	0x61
 3351 02a3 0000 0000 		.long	0x0
 3352 02a7 0000 0000 		.long	0x0
 3353               	.LLST45:
 3354 02ab DA08 0000 		.long	.LVL48-.Ltext0
 3355 02af EC08 0000 		.long	.LVL49-.Ltext0
 3356 02b3 0600      		.word	0x6
 3357 02b5 62        		.byte	0x62
 3358 02b6 93        		.byte	0x93
 3359 02b7 01        		.uleb128 0x1
 3360 02b8 63        		.byte	0x63
 3361 02b9 93        		.byte	0x93
 3362 02ba 01        		.uleb128 0x1
 3363 02bb FE08 0000 		.long	.LVL50-.Ltext0
 3364 02bf 0209 0000 		.long	.LVL51-.Ltext0
 3365 02c3 0600      		.word	0x6
 3366 02c5 62        		.byte	0x62
 3367 02c6 93        		.byte	0x93
 3368 02c7 01        		.uleb128 0x1
 3369 02c8 63        		.byte	0x63
GAS LISTING C:\Users\ADMINI~1\AppData\Local\Temp/ccYJNKdD.s 			page 62


 3370 02c9 93        		.byte	0x93
 3371 02ca 01        		.uleb128 0x1
 3372 02cb 680A 0000 		.long	.LVL62-.Ltext0
 3373 02cf C20A 0000 		.long	.LVL63-.Ltext0
 3374 02d3 0600      		.word	0x6
 3375 02d5 64        		.byte	0x64
 3376 02d6 93        		.byte	0x93
 3377 02d7 01        		.uleb128 0x1
 3378 02d8 65        		.byte	0x65
 3379 02d9 93        		.byte	0x93
 3380 02da 01        		.uleb128 0x1
 3381 02db CA0A 0000 		.long	.LVL64-.Ltext0
 3382 02df E00A 0000 		.long	.LVL65-.Ltext0
 3383 02e3 0600      		.word	0x6
 3384 02e5 64        		.byte	0x64
 3385 02e6 93        		.byte	0x93
 3386 02e7 01        		.uleb128 0x1
 3387 02e8 65        		.byte	0x65
 3388 02e9 93        		.byte	0x93
 3389 02ea 01        		.uleb128 0x1
 3390 02eb 0000 0000 		.long	0x0
 3391 02ef 0000 0000 		.long	0x0
 3392               	.LLST46:
 3393 02f3 0606 0000 		.long	.LVL43-.Ltext0
 3394 02f7 0C0B 0000 		.long	.LVL72-.Ltext0
 3395 02fb 0600      		.word	0x6
 3396 02fd 5E        		.byte	0x5e
 3397 02fe 93        		.byte	0x93
 3398 02ff 01        		.uleb128 0x1
 3399 0300 5F        		.byte	0x5f
 3400 0301 93        		.byte	0x93
 3401 0302 01        		.uleb128 0x1
 3402 0303 0000 0000 		.long	0x0
 3403 0307 0000 0000 		.long	0x0
 3404               	.LLST47:
 3405 030b 7C06 0000 		.long	.LVL44-.Ltext0
 3406 030f 8C06 0000 		.long	.LVL45-.Ltext0
 3407 0313 0600      		.word	0x6
 3408 0315 66        		.byte	0x66
 3409 0316 93        		.byte	0x93
 3410 0317 01        		.uleb128 0x1
 3411 0318 67        		.byte	0x67
 3412 0319 93        		.byte	0x93
 3413 031a 01        		.uleb128 0x1
 3414 031b FA0A 0000 		.long	.LVL69-.Ltext0
 3415 031f 160B 0000 		.long	.LFE47-.Ltext0
 3416 0323 0600      		.word	0x6
 3417 0325 66        		.byte	0x66
 3418 0326 93        		.byte	0x93
 3419 0327 01        		.uleb128 0x1
 3420 0328 67        		.byte	0x67
 3421 0329 93        		.byte	0x93
 3422 032a 01        		.uleb128 0x1
 3423 032b 0000 0000 		.long	0x0
 3424 032f 0000 0000 		.long	0x0
 3425               	.LLST48:
 3426 0333 0C09 0000 		.long	.LVL52-.Ltext0
GAS LISTING C:\Users\ADMINI~1\AppData\Local\Temp/ccYJNKdD.s 			page 63


 3427 0337 1C09 0000 		.long	.LVL54-.Ltext0
 3428 033b 0600      		.word	0x6
 3429 033d 68        		.byte	0x68
 3430 033e 93        		.byte	0x93
 3431 033f 01        		.uleb128 0x1
 3432 0340 69        		.byte	0x69
 3433 0341 93        		.byte	0x93
 3434 0342 01        		.uleb128 0x1
 3435 0343 FA0A 0000 		.long	.LVL69-.Ltext0
 3436 0347 160B 0000 		.long	.LFE47-.Ltext0
 3437 034b 0600      		.word	0x6
 3438 034d 68        		.byte	0x68
 3439 034e 93        		.byte	0x93
 3440 034f 01        		.uleb128 0x1
 3441 0350 69        		.byte	0x69
 3442 0351 93        		.byte	0x93
 3443 0352 01        		.uleb128 0x1
 3444 0353 0000 0000 		.long	0x0
 3445 0357 0000 0000 		.long	0x0
 3446               	.LLST49:
 3447 035b 1209 0000 		.long	.LVL53-.Ltext0
 3448 035f 1C09 0000 		.long	.LVL54-.Ltext0
 3449 0363 0600      		.word	0x6
 3450 0365 6E        		.byte	0x6e
 3451 0366 93        		.byte	0x93
 3452 0367 01        		.uleb128 0x1
 3453 0368 6F        		.byte	0x6f
 3454 0369 93        		.byte	0x93
 3455 036a 01        		.uleb128 0x1
 3456 036b FA0A 0000 		.long	.LVL69-.Ltext0
 3457 036f 160B 0000 		.long	.LFE47-.Ltext0
 3458 0373 0600      		.word	0x6
 3459 0375 6E        		.byte	0x6e
 3460 0376 93        		.byte	0x93
 3461 0377 01        		.uleb128 0x1
 3462 0378 6F        		.byte	0x6f
 3463 0379 93        		.byte	0x93
 3464 037a 01        		.uleb128 0x1
 3465 037b 0000 0000 		.long	0x0
 3466 037f 0000 0000 		.long	0x0
 3467               	.LLST50:
 3468 0383 020A 0000 		.long	.LVL58-.Ltext0
 3469 0387 080A 0000 		.long	.LVL59-.Ltext0
 3470 038b 0100      		.word	0x1
 3471 038d 6E        		.byte	0x6e
 3472 038e 0000 0000 		.long	0x0
 3473 0392 0000 0000 		.long	0x0
 3474               	.LLST51:
 3475 0396 E60A 0000 		.long	.LVL66-.Ltext0
 3476 039a F60A 0000 		.long	.LVL68-.Ltext0
 3477 039e 0600      		.word	0x6
 3478 03a0 68        		.byte	0x68
 3479 03a1 93        		.byte	0x93
 3480 03a2 01        		.uleb128 0x1
 3481 03a3 69        		.byte	0x69
 3482 03a4 93        		.byte	0x93
 3483 03a5 01        		.uleb128 0x1
GAS LISTING C:\Users\ADMINI~1\AppData\Local\Temp/ccYJNKdD.s 			page 64


 3484 03a6 FA0A 0000 		.long	.LVL69-.Ltext0
 3485 03aa 160B 0000 		.long	.LFE47-.Ltext0
 3486 03ae 0600      		.word	0x6
 3487 03b0 68        		.byte	0x68
 3488 03b1 93        		.byte	0x93
 3489 03b2 01        		.uleb128 0x1
 3490 03b3 69        		.byte	0x69
 3491 03b4 93        		.byte	0x93
 3492 03b5 01        		.uleb128 0x1
 3493 03b6 0000 0000 		.long	0x0
 3494 03ba 0000 0000 		.long	0x0
 3495               	.LLST52:
 3496 03be EC0A 0000 		.long	.LVL67-.Ltext0
 3497 03c2 F60A 0000 		.long	.LVL68-.Ltext0
 3498 03c6 0600      		.word	0x6
 3499 03c8 6E        		.byte	0x6e
 3500 03c9 93        		.byte	0x93
 3501 03ca 01        		.uleb128 0x1
 3502 03cb 6F        		.byte	0x6f
 3503 03cc 93        		.byte	0x93
 3504 03cd 01        		.uleb128 0x1
 3505 03ce FA0A 0000 		.long	.LVL69-.Ltext0
 3506 03d2 160B 0000 		.long	.LFE47-.Ltext0
 3507 03d6 0600      		.word	0x6
 3508 03d8 6E        		.byte	0x6e
 3509 03d9 93        		.byte	0x93
 3510 03da 01        		.uleb128 0x1
 3511 03db 6F        		.byte	0x6f
 3512 03dc 93        		.byte	0x93
 3513 03dd 01        		.uleb128 0x1
 3514 03de 0000 0000 		.long	0x0
 3515 03e2 0000 0000 		.long	0x0
 3516               	.LLST56:
 3517 03e6 080C 0000 		.long	.LVL77-.Ltext0
 3518 03ea 180C 0000 		.long	.LVL78-.Ltext0
 3519 03ee 0100      		.word	0x1
 3520 03f0 68        		.byte	0x68
 3521 03f1 180C 0000 		.long	.LVL78-.Ltext0
 3522 03f5 7C0C 0000 		.long	.LVL92-.Ltext0
 3523 03f9 0100      		.word	0x1
 3524 03fb 5F        		.byte	0x5f
 3525 03fc 0000 0000 		.long	0x0
 3526 0400 0000 0000 		.long	0x0
 3527               	.LLST57:
 3528 0404 080C 0000 		.long	.LVL77-.Ltext0
 3529 0408 1C0C 0000 		.long	.LVL79-.Ltext0
 3530 040c 0100      		.word	0x1
 3531 040e 66        		.byte	0x66
 3532 040f 1C0C 0000 		.long	.LVL79-.Ltext0
 3533 0413 740C 0000 		.long	.LVL88-.Ltext0
 3534 0417 0600      		.word	0x6
 3535 0419 6C        		.byte	0x6c
 3536 041a 93        		.byte	0x93
 3537 041b 01        		.uleb128 0x1
 3538 041c 6D        		.byte	0x6d
 3539 041d 93        		.byte	0x93
 3540 041e 01        		.uleb128 0x1
GAS LISTING C:\Users\ADMINI~1\AppData\Local\Temp/ccYJNKdD.s 			page 65


 3541 041f 740C 0000 		.long	.LVL88-.Ltext0
 3542 0423 760C 0000 		.long	.LVL89-.Ltext0
 3543 0427 0100      		.word	0x1
 3544 0429 6C        		.byte	0x6c
 3545 042a 0000 0000 		.long	0x0
 3546 042e 0000 0000 		.long	0x0
 3547               	.LLST58:
 3548 0432 080C 0000 		.long	.LVL77-.Ltext0
 3549 0436 200C 0000 		.long	.LVL80-.Ltext0
 3550 043a 0100      		.word	0x1
 3551 043c 64        		.byte	0x64
 3552 043d 200C 0000 		.long	.LVL80-.Ltext0
 3553 0441 780C 0000 		.long	.LVL90-.Ltext0
 3554 0445 0600      		.word	0x6
 3555 0447 60        		.byte	0x60
 3556 0448 93        		.byte	0x93
 3557 0449 01        		.uleb128 0x1
 3558 044a 61        		.byte	0x61
 3559 044b 93        		.byte	0x93
 3560 044c 01        		.uleb128 0x1
 3561 044d 780C 0000 		.long	.LVL90-.Ltext0
 3562 0451 7A0C 0000 		.long	.LVL91-.Ltext0
 3563 0455 0100      		.word	0x1
 3564 0457 60        		.byte	0x60
 3565 0458 7A0C 0000 		.long	.LVL91-.Ltext0
 3566 045c 7E0C 0000 		.long	.LFE25-.Ltext0
 3567 0460 0100      		.word	0x1
 3568 0462 64        		.byte	0x64
 3569 0463 0000 0000 		.long	0x0
 3570 0467 0000 0000 		.long	0x0
 3571               	.LLST60:
 3572 046b 7E0C 0000 		.long	.LVL93-.Ltext0
 3573 046f 860C 0000 		.long	.LVL94-.Ltext0
 3574 0473 0100      		.word	0x1
 3575 0475 68        		.byte	0x68
 3576 0476 860C 0000 		.long	.LVL94-.Ltext0
 3577 047a 960C 0000 		.long	.LVL95-.Ltext0
 3578 047e 0100      		.word	0x1
 3579 0480 69        		.byte	0x69
 3580 0481 A80C 0000 		.long	.LVL96-.Ltext0
 3581 0485 AE0C 0000 		.long	.LFE40-.Ltext0
 3582 0489 0100      		.word	0x1
 3583 048b 69        		.byte	0x69
 3584 048c 0000 0000 		.long	0x0
 3585 0490 0000 0000 		.long	0x0
 3586               		.section	.debug_info
 3587 0000 9415 0000 		.long	0x1594
 3588 0004 0200      		.word	0x2
 3589 0006 0000 0000 		.long	.Ldebug_abbrev0
 3590 000a 04        		.byte	0x4
 3591 000b 01        		.uleb128 0x1
 3592 000c 0000 0000 		.long	.LASF301
 3593 0010 01        		.byte	0x1
 3594 0011 0000 0000 		.long	.LASF302
 3595 0015 0000 0000 		.long	.LASF303
 3596 0019 0000 0000 		.long	.Ltext0
 3597 001d 0000 0000 		.long	.Letext0
GAS LISTING C:\Users\ADMINI~1\AppData\Local\Temp/ccYJNKdD.s 			page 66


 3598 0021 0000 0000 		.long	.Ldebug_line0
 3599 0025 02        		.uleb128 0x2
 3600 0026 01        		.byte	0x1
 3601 0027 08        		.byte	0x8
 3602 0028 0000 0000 		.long	.LASF0
 3603 002c 02        		.uleb128 0x2
 3604 002d 01        		.byte	0x1
 3605 002e 06        		.byte	0x6
 3606 002f 0000 0000 		.long	.LASF1
 3607 0033 02        		.uleb128 0x2
 3608 0034 02        		.byte	0x2
 3609 0035 07        		.byte	0x7
 3610 0036 0000 0000 		.long	.LASF2
 3611 003a 02        		.uleb128 0x2
 3612 003b 02        		.byte	0x2
 3613 003c 05        		.byte	0x5
 3614 003d 0000 0000 		.long	.LASF3
 3615 0041 02        		.uleb128 0x2
 3616 0042 04        		.byte	0x4
 3617 0043 07        		.byte	0x7
 3618 0044 0000 0000 		.long	.LASF4
 3619 0048 02        		.uleb128 0x2
 3620 0049 04        		.byte	0x4
 3621 004a 05        		.byte	0x5
 3622 004b 0000 0000 		.long	.LASF5
 3623 004f 02        		.uleb128 0x2
 3624 0050 08        		.byte	0x8
 3625 0051 07        		.byte	0x7
 3626 0052 0000 0000 		.long	.LASF6
 3627 0056 02        		.uleb128 0x2
 3628 0057 08        		.byte	0x8
 3629 0058 05        		.byte	0x5
 3630 0059 0000 0000 		.long	.LASF7
 3631 005d 02        		.uleb128 0x2
 3632 005e 02        		.byte	0x2
 3633 005f 07        		.byte	0x7
 3634 0060 0000 0000 		.long	.LASF8
 3635 0064 02        		.uleb128 0x2
 3636 0065 01        		.byte	0x1
 3637 0066 06        		.byte	0x6
 3638 0067 0000 0000 		.long	.LASF9
 3639 006b 03        		.uleb128 0x3
 3640 006c 02        		.byte	0x2
 3641 006d 05        		.byte	0x5
 3642 006e 696E 7400 		.string	"int"
 3643 0072 04        		.uleb128 0x4
 3644 0073 0000 0000 		.long	.LASF10
 3645 0077 04        		.byte	0x4
 3646 0078 7A        		.byte	0x7a
 3647 0079 2500 0000 		.long	0x25
 3648 007d 04        		.uleb128 0x4
 3649 007e 0000 0000 		.long	.LASF11
 3650 0082 04        		.byte	0x4
 3651 0083 7C        		.byte	0x7c
 3652 0084 5D00 0000 		.long	0x5d
 3653 0088 05        		.uleb128 0x5
 3654 0089 01        		.byte	0x1
GAS LISTING C:\Users\ADMINI~1\AppData\Local\Temp/ccYJNKdD.s 			page 67


 3655 008a 06        		.byte	0x6
 3656 008b 05        		.uleb128 0x5
 3657 008c 01        		.byte	0x1
 3658 008d 08        		.byte	0x8
 3659 008e 06        		.uleb128 0x6
 3660 008f 02        		.byte	0x2
 3661 0090 6400 0000 		.long	0x64
 3662 0094 07        		.uleb128 0x7
 3663 0095 02        		.byte	0x2
 3664 0096 05        		.byte	0x5
 3665 0097 33        		.byte	0x33
 3666 0098 F100 0000 		.long	0xf1
 3667 009c 08        		.uleb128 0x8
 3668 009d 0000 0000 		.long	.LASF12
 3669 00a1 C901      		.sleb128 201
 3670 00a3 08        		.uleb128 0x8
 3671 00a4 0000 0000 		.long	.LASF13
 3672 00a8 CA01      		.sleb128 202
 3673 00aa 08        		.uleb128 0x8
 3674 00ab 0000 0000 		.long	.LASF14
 3675 00af CB01      		.sleb128 203
 3676 00b1 08        		.uleb128 0x8
 3677 00b2 0000 0000 		.long	.LASF15
 3678 00b6 CC01      		.sleb128 204
 3679 00b8 08        		.uleb128 0x8
 3680 00b9 0000 0000 		.long	.LASF16
 3681 00bd CD01      		.sleb128 205
 3682 00bf 08        		.uleb128 0x8
 3683 00c0 0000 0000 		.long	.LASF17
 3684 00c4 CE01      		.sleb128 206
 3685 00c6 08        		.uleb128 0x8
 3686 00c7 0000 0000 		.long	.LASF18
 3687 00cb CF01      		.sleb128 207
 3688 00cd 08        		.uleb128 0x8
 3689 00ce 0000 0000 		.long	.LASF19
 3690 00d2 D001      		.sleb128 208
 3691 00d4 08        		.uleb128 0x8
 3692 00d5 0000 0000 		.long	.LASF20
 3693 00d9 D101      		.sleb128 209
 3694 00db 08        		.uleb128 0x8
 3695 00dc 0000 0000 		.long	.LASF21
 3696 00e0 D201      		.sleb128 210
 3697 00e2 08        		.uleb128 0x8
 3698 00e3 0000 0000 		.long	.LASF22
 3699 00e7 D301      		.sleb128 211
 3700 00e9 08        		.uleb128 0x8
 3701 00ea 0000 0000 		.long	.LASF23
 3702 00ee D401      		.sleb128 212
 3703 00f0 00        		.byte	0x0
 3704 00f1 07        		.uleb128 0x7
 3705 00f2 02        		.byte	0x2
 3706 00f3 05        		.byte	0x5
 3707 00f4 42        		.byte	0x42
 3708 00f5 AA04 0000 		.long	0x4aa
 3709 00f9 08        		.uleb128 0x8
 3710 00fa 0000 0000 		.long	.LASF24
 3711 00fe 00        		.sleb128 0
GAS LISTING C:\Users\ADMINI~1\AppData\Local\Temp/ccYJNKdD.s 			page 68


 3712 00ff 08        		.uleb128 0x8
 3713 0100 0000 0000 		.long	.LASF25
 3714 0104 01        		.sleb128 1
 3715 0105 08        		.uleb128 0x8
 3716 0106 0000 0000 		.long	.LASF26
 3717 010a 02        		.sleb128 2
 3718 010b 08        		.uleb128 0x8
 3719 010c 0000 0000 		.long	.LASF27
 3720 0110 03        		.sleb128 3
 3721 0111 08        		.uleb128 0x8
 3722 0112 0000 0000 		.long	.LASF28
 3723 0116 04        		.sleb128 4
 3724 0117 08        		.uleb128 0x8
 3725 0118 0000 0000 		.long	.LASF29
 3726 011c 05        		.sleb128 5
 3727 011d 08        		.uleb128 0x8
 3728 011e 0000 0000 		.long	.LASF30
 3729 0122 06        		.sleb128 6
 3730 0123 08        		.uleb128 0x8
 3731 0124 0000 0000 		.long	.LASF31
 3732 0128 07        		.sleb128 7
 3733 0129 08        		.uleb128 0x8
 3734 012a 0000 0000 		.long	.LASF32
 3735 012e 08        		.sleb128 8
 3736 012f 08        		.uleb128 0x8
 3737 0130 0000 0000 		.long	.LASF33
 3738 0134 09        		.sleb128 9
 3739 0135 08        		.uleb128 0x8
 3740 0136 0000 0000 		.long	.LASF34
 3741 013a 0A        		.sleb128 10
 3742 013b 08        		.uleb128 0x8
 3743 013c 0000 0000 		.long	.LASF35
 3744 0140 0B        		.sleb128 11
 3745 0141 08        		.uleb128 0x8
 3746 0142 0000 0000 		.long	.LASF36
 3747 0146 0C        		.sleb128 12
 3748 0147 08        		.uleb128 0x8
 3749 0148 0000 0000 		.long	.LASF37
 3750 014c 0D        		.sleb128 13
 3751 014d 08        		.uleb128 0x8
 3752 014e 0000 0000 		.long	.LASF38
 3753 0152 0E        		.sleb128 14
 3754 0153 08        		.uleb128 0x8
 3755 0154 0000 0000 		.long	.LASF39
 3756 0158 0F        		.sleb128 15
 3757 0159 08        		.uleb128 0x8
 3758 015a 0000 0000 		.long	.LASF40
 3759 015e 10        		.sleb128 16
 3760 015f 08        		.uleb128 0x8
 3761 0160 0000 0000 		.long	.LASF41
 3762 0164 11        		.sleb128 17
 3763 0165 08        		.uleb128 0x8
 3764 0166 0000 0000 		.long	.LASF42
 3765 016a 12        		.sleb128 18
 3766 016b 08        		.uleb128 0x8
 3767 016c 0000 0000 		.long	.LASF43
 3768 0170 13        		.sleb128 19
GAS LISTING C:\Users\ADMINI~1\AppData\Local\Temp/ccYJNKdD.s 			page 69


 3769 0171 08        		.uleb128 0x8
 3770 0172 0000 0000 		.long	.LASF44
 3771 0176 14        		.sleb128 20
 3772 0177 08        		.uleb128 0x8
 3773 0178 0000 0000 		.long	.LASF45
 3774 017c 15        		.sleb128 21
 3775 017d 08        		.uleb128 0x8
 3776 017e 0000 0000 		.long	.LASF46
 3777 0182 16        		.sleb128 22
 3778 0183 08        		.uleb128 0x8
 3779 0184 0000 0000 		.long	.LASF47
 3780 0188 17        		.sleb128 23
 3781 0189 08        		.uleb128 0x8
 3782 018a 0000 0000 		.long	.LASF48
 3783 018e 18        		.sleb128 24
 3784 018f 08        		.uleb128 0x8
 3785 0190 0000 0000 		.long	.LASF49
 3786 0194 19        		.sleb128 25
 3787 0195 08        		.uleb128 0x8
 3788 0196 0000 0000 		.long	.LASF50
 3789 019a 1A        		.sleb128 26
 3790 019b 08        		.uleb128 0x8
 3791 019c 0000 0000 		.long	.LASF51
 3792 01a0 1B        		.sleb128 27
 3793 01a1 08        		.uleb128 0x8
 3794 01a2 0000 0000 		.long	.LASF52
 3795 01a6 1C        		.sleb128 28
 3796 01a7 08        		.uleb128 0x8
 3797 01a8 0000 0000 		.long	.LASF53
 3798 01ac 1D        		.sleb128 29
 3799 01ad 08        		.uleb128 0x8
 3800 01ae 0000 0000 		.long	.LASF54
 3801 01b2 1E        		.sleb128 30
 3802 01b3 08        		.uleb128 0x8
 3803 01b4 0000 0000 		.long	.LASF55
 3804 01b8 1F        		.sleb128 31
 3805 01b9 08        		.uleb128 0x8
 3806 01ba 0000 0000 		.long	.LASF56
 3807 01be 20        		.sleb128 32
 3808 01bf 08        		.uleb128 0x8
 3809 01c0 0000 0000 		.long	.LASF57
 3810 01c4 21        		.sleb128 33
 3811 01c5 08        		.uleb128 0x8
 3812 01c6 0000 0000 		.long	.LASF58
 3813 01ca 22        		.sleb128 34
 3814 01cb 08        		.uleb128 0x8
 3815 01cc 0000 0000 		.long	.LASF59
 3816 01d0 23        		.sleb128 35
 3817 01d1 08        		.uleb128 0x8
 3818 01d2 0000 0000 		.long	.LASF60
 3819 01d6 24        		.sleb128 36
 3820 01d7 08        		.uleb128 0x8
 3821 01d8 0000 0000 		.long	.LASF61
 3822 01dc 25        		.sleb128 37
 3823 01dd 08        		.uleb128 0x8
 3824 01de 0000 0000 		.long	.LASF62
 3825 01e2 26        		.sleb128 38
GAS LISTING C:\Users\ADMINI~1\AppData\Local\Temp/ccYJNKdD.s 			page 70


 3826 01e3 08        		.uleb128 0x8
 3827 01e4 0000 0000 		.long	.LASF63
 3828 01e8 27        		.sleb128 39
 3829 01e9 08        		.uleb128 0x8
 3830 01ea 0000 0000 		.long	.LASF64
 3831 01ee 28        		.sleb128 40
 3832 01ef 08        		.uleb128 0x8
 3833 01f0 0000 0000 		.long	.LASF65
 3834 01f4 29        		.sleb128 41
 3835 01f5 08        		.uleb128 0x8
 3836 01f6 0000 0000 		.long	.LASF66
 3837 01fa 2A        		.sleb128 42
 3838 01fb 08        		.uleb128 0x8
 3839 01fc 0000 0000 		.long	.LASF67
 3840 0200 2B        		.sleb128 43
 3841 0201 08        		.uleb128 0x8
 3842 0202 0000 0000 		.long	.LASF68
 3843 0206 2C        		.sleb128 44
 3844 0207 08        		.uleb128 0x8
 3845 0208 0000 0000 		.long	.LASF69
 3846 020c 2D        		.sleb128 45
 3847 020d 08        		.uleb128 0x8
 3848 020e 0000 0000 		.long	.LASF70
 3849 0212 2E        		.sleb128 46
 3850 0213 08        		.uleb128 0x8
 3851 0214 0000 0000 		.long	.LASF71
 3852 0218 2F        		.sleb128 47
 3853 0219 08        		.uleb128 0x8
 3854 021a 0000 0000 		.long	.LASF72
 3855 021e 30        		.sleb128 48
 3856 021f 08        		.uleb128 0x8
 3857 0220 0000 0000 		.long	.LASF73
 3858 0224 31        		.sleb128 49
 3859 0225 08        		.uleb128 0x8
 3860 0226 0000 0000 		.long	.LASF74
 3861 022a 32        		.sleb128 50
 3862 022b 08        		.uleb128 0x8
 3863 022c 0000 0000 		.long	.LASF75
 3864 0230 33        		.sleb128 51
 3865 0231 08        		.uleb128 0x8
 3866 0232 0000 0000 		.long	.LASF76
 3867 0236 34        		.sleb128 52
 3868 0237 08        		.uleb128 0x8
 3869 0238 0000 0000 		.long	.LASF77
 3870 023c 35        		.sleb128 53
 3871 023d 08        		.uleb128 0x8
 3872 023e 0000 0000 		.long	.LASF78
 3873 0242 36        		.sleb128 54
 3874 0243 08        		.uleb128 0x8
 3875 0244 0000 0000 		.long	.LASF79
 3876 0248 37        		.sleb128 55
 3877 0249 08        		.uleb128 0x8
 3878 024a 0000 0000 		.long	.LASF80
 3879 024e 38        		.sleb128 56
 3880 024f 08        		.uleb128 0x8
 3881 0250 0000 0000 		.long	.LASF81
 3882 0254 39        		.sleb128 57
GAS LISTING C:\Users\ADMINI~1\AppData\Local\Temp/ccYJNKdD.s 			page 71


 3883 0255 08        		.uleb128 0x8
 3884 0256 0000 0000 		.long	.LASF82
 3885 025a 3A        		.sleb128 58
 3886 025b 08        		.uleb128 0x8
 3887 025c 0000 0000 		.long	.LASF83
 3888 0260 3B        		.sleb128 59
 3889 0261 08        		.uleb128 0x8
 3890 0262 0000 0000 		.long	.LASF84
 3891 0266 3C        		.sleb128 60
 3892 0267 08        		.uleb128 0x8
 3893 0268 0000 0000 		.long	.LASF85
 3894 026c 3D        		.sleb128 61
 3895 026d 08        		.uleb128 0x8
 3896 026e 0000 0000 		.long	.LASF86
 3897 0272 3E        		.sleb128 62
 3898 0273 08        		.uleb128 0x8
 3899 0274 0000 0000 		.long	.LASF87
 3900 0278 3F        		.sleb128 63
 3901 0279 08        		.uleb128 0x8
 3902 027a 0000 0000 		.long	.LASF88
 3903 027e C000      		.sleb128 64
 3904 0280 08        		.uleb128 0x8
 3905 0281 0000 0000 		.long	.LASF89
 3906 0285 C100      		.sleb128 65
 3907 0287 08        		.uleb128 0x8
 3908 0288 0000 0000 		.long	.LASF90
 3909 028c C200      		.sleb128 66
 3910 028e 08        		.uleb128 0x8
 3911 028f 0000 0000 		.long	.LASF91
 3912 0293 C300      		.sleb128 67
 3913 0295 08        		.uleb128 0x8
 3914 0296 0000 0000 		.long	.LASF92
 3915 029a C400      		.sleb128 68
 3916 029c 08        		.uleb128 0x8
 3917 029d 0000 0000 		.long	.LASF93
 3918 02a1 C500      		.sleb128 69
 3919 02a3 08        		.uleb128 0x8
 3920 02a4 0000 0000 		.long	.LASF94
 3921 02a8 C600      		.sleb128 70
 3922 02aa 08        		.uleb128 0x8
 3923 02ab 0000 0000 		.long	.LASF95
 3924 02af C700      		.sleb128 71
 3925 02b1 08        		.uleb128 0x8
 3926 02b2 0000 0000 		.long	.LASF96
 3927 02b6 C800      		.sleb128 72
 3928 02b8 08        		.uleb128 0x8
 3929 02b9 0000 0000 		.long	.LASF97
 3930 02bd C900      		.sleb128 73
 3931 02bf 08        		.uleb128 0x8
 3932 02c0 0000 0000 		.long	.LASF98
 3933 02c4 CA00      		.sleb128 74
 3934 02c6 08        		.uleb128 0x8
 3935 02c7 0000 0000 		.long	.LASF99
 3936 02cb CB00      		.sleb128 75
 3937 02cd 08        		.uleb128 0x8
 3938 02ce 0000 0000 		.long	.LASF100
 3939 02d2 CC00      		.sleb128 76
GAS LISTING C:\Users\ADMINI~1\AppData\Local\Temp/ccYJNKdD.s 			page 72


 3940 02d4 08        		.uleb128 0x8
 3941 02d5 0000 0000 		.long	.LASF101
 3942 02d9 CD00      		.sleb128 77
 3943 02db 08        		.uleb128 0x8
 3944 02dc 0000 0000 		.long	.LASF102
 3945 02e0 CE00      		.sleb128 78
 3946 02e2 08        		.uleb128 0x8
 3947 02e3 0000 0000 		.long	.LASF103
 3948 02e7 CF00      		.sleb128 79
 3949 02e9 08        		.uleb128 0x8
 3950 02ea 0000 0000 		.long	.LASF104
 3951 02ee D000      		.sleb128 80
 3952 02f0 08        		.uleb128 0x8
 3953 02f1 0000 0000 		.long	.LASF105
 3954 02f5 D100      		.sleb128 81
 3955 02f7 08        		.uleb128 0x8
 3956 02f8 0000 0000 		.long	.LASF106
 3957 02fc D200      		.sleb128 82
 3958 02fe 08        		.uleb128 0x8
 3959 02ff 0000 0000 		.long	.LASF107
 3960 0303 D300      		.sleb128 83
 3961 0305 08        		.uleb128 0x8
 3962 0306 0000 0000 		.long	.LASF108
 3963 030a D400      		.sleb128 84
 3964 030c 08        		.uleb128 0x8
 3965 030d 0000 0000 		.long	.LASF109
 3966 0311 D500      		.sleb128 85
 3967 0313 08        		.uleb128 0x8
 3968 0314 0000 0000 		.long	.LASF110
 3969 0318 D600      		.sleb128 86
 3970 031a 08        		.uleb128 0x8
 3971 031b 0000 0000 		.long	.LASF111
 3972 031f D700      		.sleb128 87
 3973 0321 08        		.uleb128 0x8
 3974 0322 0000 0000 		.long	.LASF112
 3975 0326 D800      		.sleb128 88
 3976 0328 08        		.uleb128 0x8
 3977 0329 0000 0000 		.long	.LASF113
 3978 032d D900      		.sleb128 89
 3979 032f 08        		.uleb128 0x8
 3980 0330 0000 0000 		.long	.LASF114
 3981 0334 DA00      		.sleb128 90
 3982 0336 08        		.uleb128 0x8
 3983 0337 0000 0000 		.long	.LASF115
 3984 033b DB00      		.sleb128 91
 3985 033d 08        		.uleb128 0x8
 3986 033e 0000 0000 		.long	.LASF116
 3987 0342 DC00      		.sleb128 92
 3988 0344 08        		.uleb128 0x8
 3989 0345 0000 0000 		.long	.LASF117
 3990 0349 DD00      		.sleb128 93
 3991 034b 08        		.uleb128 0x8
 3992 034c 0000 0000 		.long	.LASF118
 3993 0350 DE00      		.sleb128 94
 3994 0352 08        		.uleb128 0x8
 3995 0353 0000 0000 		.long	.LASF119
 3996 0357 DF00      		.sleb128 95
GAS LISTING C:\Users\ADMINI~1\AppData\Local\Temp/ccYJNKdD.s 			page 73


 3997 0359 08        		.uleb128 0x8
 3998 035a 0000 0000 		.long	.LASF120
 3999 035e E000      		.sleb128 96
 4000 0360 08        		.uleb128 0x8
 4001 0361 0000 0000 		.long	.LASF121
 4002 0365 E100      		.sleb128 97
 4003 0367 08        		.uleb128 0x8
 4004 0368 0000 0000 		.long	.LASF122
 4005 036c E200      		.sleb128 98
 4006 036e 08        		.uleb128 0x8
 4007 036f 0000 0000 		.long	.LASF123
 4008 0373 E300      		.sleb128 99
 4009 0375 08        		.uleb128 0x8
 4010 0376 0000 0000 		.long	.LASF124
 4011 037a E400      		.sleb128 100
 4012 037c 08        		.uleb128 0x8
 4013 037d 0000 0000 		.long	.LASF125
 4014 0381 E500      		.sleb128 101
 4015 0383 08        		.uleb128 0x8
 4016 0384 0000 0000 		.long	.LASF126
 4017 0388 E600      		.sleb128 102
 4018 038a 08        		.uleb128 0x8
 4019 038b 0000 0000 		.long	.LASF127
 4020 038f E700      		.sleb128 103
 4021 0391 08        		.uleb128 0x8
 4022 0392 0000 0000 		.long	.LASF128
 4023 0396 E800      		.sleb128 104
 4024 0398 08        		.uleb128 0x8
 4025 0399 0000 0000 		.long	.LASF129
 4026 039d E900      		.sleb128 105
 4027 039f 08        		.uleb128 0x8
 4028 03a0 0000 0000 		.long	.LASF130
 4029 03a4 EA00      		.sleb128 106
 4030 03a6 08        		.uleb128 0x8
 4031 03a7 0000 0000 		.long	.LASF131
 4032 03ab EB00      		.sleb128 107
 4033 03ad 08        		.uleb128 0x8
 4034 03ae 0000 0000 		.long	.LASF132
 4035 03b2 EC00      		.sleb128 108
 4036 03b4 08        		.uleb128 0x8
 4037 03b5 0000 0000 		.long	.LASF133
 4038 03b9 ED00      		.sleb128 109
 4039 03bb 08        		.uleb128 0x8
 4040 03bc 0000 0000 		.long	.LASF134
 4041 03c0 EE00      		.sleb128 110
 4042 03c2 08        		.uleb128 0x8
 4043 03c3 0000 0000 		.long	.LASF135
 4044 03c7 EF00      		.sleb128 111
 4045 03c9 08        		.uleb128 0x8
 4046 03ca 0000 0000 		.long	.LASF136
 4047 03ce F000      		.sleb128 112
 4048 03d0 08        		.uleb128 0x8
 4049 03d1 0000 0000 		.long	.LASF137
 4050 03d5 F100      		.sleb128 113
 4051 03d7 08        		.uleb128 0x8
 4052 03d8 0000 0000 		.long	.LASF138
 4053 03dc F200      		.sleb128 114
GAS LISTING C:\Users\ADMINI~1\AppData\Local\Temp/ccYJNKdD.s 			page 74


 4054 03de 08        		.uleb128 0x8
 4055 03df 0000 0000 		.long	.LASF139
 4056 03e3 F300      		.sleb128 115
 4057 03e5 08        		.uleb128 0x8
 4058 03e6 0000 0000 		.long	.LASF140
 4059 03ea F400      		.sleb128 116
 4060 03ec 08        		.uleb128 0x8
 4061 03ed 0000 0000 		.long	.LASF141
 4062 03f1 F500      		.sleb128 117
 4063 03f3 08        		.uleb128 0x8
 4064 03f4 0000 0000 		.long	.LASF142
 4065 03f8 F600      		.sleb128 118
 4066 03fa 08        		.uleb128 0x8
 4067 03fb 0000 0000 		.long	.LASF143
 4068 03ff F700      		.sleb128 119
 4069 0401 08        		.uleb128 0x8
 4070 0402 0000 0000 		.long	.LASF144
 4071 0406 F800      		.sleb128 120
 4072 0408 08        		.uleb128 0x8
 4073 0409 0000 0000 		.long	.LASF145
 4074 040d F900      		.sleb128 121
 4075 040f 08        		.uleb128 0x8
 4076 0410 0000 0000 		.long	.LASF146
 4077 0414 FA00      		.sleb128 122
 4078 0416 08        		.uleb128 0x8
 4079 0417 0000 0000 		.long	.LASF147
 4080 041b FB00      		.sleb128 123
 4081 041d 08        		.uleb128 0x8
 4082 041e 0000 0000 		.long	.LASF148
 4083 0422 FC00      		.sleb128 124
 4084 0424 08        		.uleb128 0x8
 4085 0425 0000 0000 		.long	.LASF149
 4086 0429 FD00      		.sleb128 125
 4087 042b 08        		.uleb128 0x8
 4088 042c 0000 0000 		.long	.LASF150
 4089 0430 FE00      		.sleb128 126
 4090 0432 08        		.uleb128 0x8
 4091 0433 0000 0000 		.long	.LASF151
 4092 0437 FF00      		.sleb128 127
 4093 0439 08        		.uleb128 0x8
 4094 043a 0000 0000 		.long	.LASF152
 4095 043e 8001      		.sleb128 128
 4096 0440 08        		.uleb128 0x8
 4097 0441 0000 0000 		.long	.LASF153
 4098 0445 8101      		.sleb128 129
 4099 0447 08        		.uleb128 0x8
 4100 0448 0000 0000 		.long	.LASF154
 4101 044c 8201      		.sleb128 130
 4102 044e 08        		.uleb128 0x8
 4103 044f 0000 0000 		.long	.LASF155
 4104 0453 8301      		.sleb128 131
 4105 0455 08        		.uleb128 0x8
 4106 0456 0000 0000 		.long	.LASF156
 4107 045a 8401      		.sleb128 132
 4108 045c 08        		.uleb128 0x8
 4109 045d 0000 0000 		.long	.LASF157
 4110 0461 8501      		.sleb128 133
GAS LISTING C:\Users\ADMINI~1\AppData\Local\Temp/ccYJNKdD.s 			page 75


 4111 0463 08        		.uleb128 0x8
 4112 0464 0000 0000 		.long	.LASF158
 4113 0468 8601      		.sleb128 134
 4114 046a 08        		.uleb128 0x8
 4115 046b 0000 0000 		.long	.LASF159
 4116 046f 8701      		.sleb128 135
 4117 0471 08        		.uleb128 0x8
 4118 0472 0000 0000 		.long	.LASF160
 4119 0476 8801      		.sleb128 136
 4120 0478 08        		.uleb128 0x8
 4121 0479 0000 0000 		.long	.LASF161
 4122 047d 8901      		.sleb128 137
 4123 047f 08        		.uleb128 0x8
 4124 0480 0000 0000 		.long	.LASF162
 4125 0484 8A01      		.sleb128 138
 4126 0486 08        		.uleb128 0x8
 4127 0487 0000 0000 		.long	.LASF163
 4128 048b 8B01      		.sleb128 139
 4129 048d 08        		.uleb128 0x8
 4130 048e 0000 0000 		.long	.LASF164
 4131 0492 8C01      		.sleb128 140
 4132 0494 08        		.uleb128 0x8
 4133 0495 0000 0000 		.long	.LASF165
 4134 0499 8D01      		.sleb128 141
 4135 049b 08        		.uleb128 0x8
 4136 049c 0000 0000 		.long	.LASF166
 4137 04a0 8E01      		.sleb128 142
 4138 04a2 08        		.uleb128 0x8
 4139 04a3 0000 0000 		.long	.LASF167
 4140 04a7 8F01      		.sleb128 143
 4141 04a9 00        		.byte	0x0
 4142 04aa 09        		.uleb128 0x9
 4143 04ab 02        		.byte	0x2
 4144 04ac 06        		.byte	0x6
 4145 04ad 0F        		.byte	0xf
 4146 04ae CF04 0000 		.long	0x4cf
 4147 04b2 0A        		.uleb128 0xa
 4148 04b3 0000 0000 		.long	.LASF168
 4149 04b7 06        		.byte	0x6
 4150 04b8 10        		.byte	0x10
 4151 04b9 7200 0000 		.long	0x72
 4152 04bd 02        		.byte	0x2
 4153 04be 23        		.byte	0x23
 4154 04bf 00        		.uleb128 0x0
 4155 04c0 0A        		.uleb128 0xa
 4156 04c1 0000 0000 		.long	.LASF169
 4157 04c5 06        		.byte	0x6
 4158 04c6 11        		.byte	0x11
 4159 04c7 7200 0000 		.long	0x72
 4160 04cb 02        		.byte	0x2
 4161 04cc 23        		.byte	0x23
 4162 04cd 01        		.uleb128 0x1
 4163 04ce 00        		.byte	0x0
 4164 04cf 0B        		.uleb128 0xb
 4165 04d0 4B65 7900 		.string	"Key"
 4166 04d4 06        		.byte	0x6
 4167 04d5 12        		.byte	0x12
GAS LISTING C:\Users\ADMINI~1\AppData\Local\Temp/ccYJNKdD.s 			page 76


 4168 04d6 AA04 0000 		.long	0x4aa
 4169 04da 0C        		.uleb128 0xc
 4170 04db 0000 0000 		.long	.LASF172
 4171 04df 02        		.byte	0x2
 4172 04e0 68        		.byte	0x68
 4173 04e1 01        		.byte	0x1
 4174 04e2 03        		.byte	0x3
 4175 04e3 F304 0000 		.long	0x4f3
 4176 04e7 0D        		.uleb128 0xd
 4177 04e8 0000 0000 		.long	.LASF170
 4178 04ec 02        		.byte	0x2
 4179 04ed 67        		.byte	0x67
 4180 04ee 7D00 0000 		.long	0x7d
 4181 04f2 00        		.byte	0x0
 4182 04f3 0E        		.uleb128 0xe
 4183 04f4 01        		.byte	0x1
 4184 04f5 0000 0000 		.long	.LASF189
 4185 04f9 01        		.byte	0x1
 4186 04fa 75        		.byte	0x75
 4187 04fb 01        		.byte	0x1
 4188 04fc 7200 0000 		.long	0x72
 4189 0500 01        		.byte	0x1
 4190 0501 0F        		.uleb128 0xf
 4191 0502 01        		.byte	0x1
 4192 0503 0000 0000 		.long	.LASF187
 4193 0507 01        		.byte	0x1
 4194 0508 0101      		.word	0x101
 4195 050a 01        		.byte	0x1
 4196 050b 7200 0000 		.long	0x72
 4197 050f 01        		.byte	0x1
 4198 0510 2105 0000 		.long	0x521
 4199 0514 10        		.uleb128 0x10
 4200 0515 0000 0000 		.long	.LASF171
 4201 0519 01        		.byte	0x1
 4202 051a 0101      		.word	0x101
 4203 051c 7200 0000 		.long	0x72
 4204 0520 00        		.byte	0x0
 4205 0521 11        		.uleb128 0x11
 4206 0522 01        		.byte	0x1
 4207 0523 0000 0000 		.long	.LASF193
 4208 0527 01        		.byte	0x1
 4209 0528 C6        		.byte	0xc6
 4210 0529 01        		.byte	0x1
 4211 052a 01        		.byte	0x1
 4212 052b 0C        		.uleb128 0xc
 4213 052c 0000 0000 		.long	.LASF173
 4214 0530 03        		.byte	0x3
 4215 0531 6F        		.byte	0x6f
 4216 0532 01        		.byte	0x1
 4217 0533 03        		.byte	0x3
 4218 0534 5C05 0000 		.long	0x55c
 4219 0538 0D        		.uleb128 0xd
 4220 0539 0000 0000 		.long	.LASF174
 4221 053d 03        		.byte	0x3
 4222 053e 6E        		.byte	0x6e
 4223 053f 5C05 0000 		.long	0x55c
 4224 0543 12        		.uleb128 0x12
GAS LISTING C:\Users\ADMINI~1\AppData\Local\Temp/ccYJNKdD.s 			page 77


 4225 0544 0000 0000 		.long	.LASF175
 4226 0548 03        		.byte	0x3
 4227 0549 70        		.byte	0x70
 4228 054a 7D00 0000 		.long	0x7d
 4229 054e 12        		.uleb128 0x12
 4230 054f 0000 0000 		.long	.LASF176
 4231 0553 03        		.byte	0x3
 4232 0554 71        		.byte	0x71
 4233 0555 5C05 0000 		.long	0x55c
 4234 0559 13        		.uleb128 0x13
 4235 055a 13        		.uleb128 0x13
 4236 055b 00        		.byte	0x0
 4237 055c 02        		.uleb128 0x2
 4238 055d 04        		.byte	0x4
 4239 055e 04        		.byte	0x4
 4240 055f 0000 0000 		.long	.LASF177
 4241 0563 14        		.uleb128 0x14
 4242 0564 0000 0000 		.long	.LASF191
 4243 0568 01        		.byte	0x1
 4244 0569 C201      		.word	0x1c2
 4245 056b 01        		.byte	0x1
 4246 056c 01        		.byte	0x1
 4247 056d 15        		.uleb128 0x15
 4248 056e 0000 0000 		.long	.LASF183
 4249 0572 01        		.byte	0x1
 4250 0573 F4        		.byte	0xf4
 4251 0574 01        		.byte	0x1
 4252 0575 7200 0000 		.long	0x72
 4253 0579 01        		.byte	0x1
 4254 057a B805 0000 		.long	0x5b8
 4255 057e 0D        		.uleb128 0xd
 4256 057f 0000 0000 		.long	.LASF178
 4257 0583 01        		.byte	0x1
 4258 0584 F3        		.byte	0xf3
 4259 0585 7200 0000 		.long	0x72
 4260 0589 0D        		.uleb128 0xd
 4261 058a 0000 0000 		.long	.LASF179
 4262 058e 01        		.byte	0x1
 4263 058f F3        		.byte	0xf3
 4264 0590 7200 0000 		.long	0x72
 4265 0594 0D        		.uleb128 0xd
 4266 0595 0000 0000 		.long	.LASF180
 4267 0599 01        		.byte	0x1
 4268 059a F3        		.byte	0xf3
 4269 059b 7200 0000 		.long	0x72
 4270 059f 16        		.uleb128 0x16
 4271 05a0 12        		.uleb128 0x12
 4272 05a1 0000 0000 		.long	.LASF181
 4273 05a5 01        		.byte	0x1
 4274 05a6 F5        		.byte	0xf5
 4275 05a7 7D00 0000 		.long	0x7d
 4276 05ab 12        		.uleb128 0x12
 4277 05ac 0000 0000 		.long	.LASF182
 4278 05b0 01        		.byte	0x1
 4279 05b1 F5        		.byte	0xf5
 4280 05b2 7200 0000 		.long	0x72
 4281 05b6 00        		.byte	0x0
GAS LISTING C:\Users\ADMINI~1\AppData\Local\Temp/ccYJNKdD.s 			page 78


 4282 05b7 00        		.byte	0x0
 4283 05b8 15        		.uleb128 0x15
 4284 05b9 0000 0000 		.long	.LASF184
 4285 05bd 01        		.byte	0x1
 4286 05be F9        		.byte	0xf9
 4287 05bf 01        		.byte	0x1
 4288 05c0 7200 0000 		.long	0x72
 4289 05c4 01        		.byte	0x1
 4290 05c5 0106 0000 		.long	0x601
 4291 05c9 0D        		.uleb128 0xd
 4292 05ca 0000 0000 		.long	.LASF178
 4293 05ce 01        		.byte	0x1
 4294 05cf F8        		.byte	0xf8
 4295 05d0 7200 0000 		.long	0x72
 4296 05d4 0D        		.uleb128 0xd
 4297 05d5 0000 0000 		.long	.LASF179
 4298 05d9 01        		.byte	0x1
 4299 05da F8        		.byte	0xf8
 4300 05db 7200 0000 		.long	0x72
 4301 05df 0D        		.uleb128 0xd
 4302 05e0 0000 0000 		.long	.LASF180
 4303 05e4 01        		.byte	0x1
 4304 05e5 F8        		.byte	0xf8
 4305 05e6 7200 0000 		.long	0x72
 4306 05ea 12        		.uleb128 0x12
 4307 05eb 0000 0000 		.long	.LASF185
 4308 05ef 01        		.byte	0x1
 4309 05f0 FA        		.byte	0xfa
 4310 05f1 7200 0000 		.long	0x72
 4311 05f5 12        		.uleb128 0x12
 4312 05f6 0000 0000 		.long	.LASF186
 4313 05fa 01        		.byte	0x1
 4314 05fb FB        		.byte	0xfb
 4315 05fc 6B00 0000 		.long	0x6b
 4316 0600 00        		.byte	0x0
 4317 0601 0F        		.uleb128 0xf
 4318 0602 01        		.byte	0x1
 4319 0603 0000 0000 		.long	.LASF188
 4320 0607 01        		.byte	0x1
 4321 0608 0901      		.word	0x109
 4322 060a 01        		.byte	0x1
 4323 060b 7200 0000 		.long	0x72
 4324 060f 01        		.byte	0x1
 4325 0610 2806 0000 		.long	0x628
 4326 0614 10        		.uleb128 0x10
 4327 0615 0000 0000 		.long	.LASF171
 4328 0619 01        		.byte	0x1
 4329 061a 0901      		.word	0x109
 4330 061c 7200 0000 		.long	0x72
 4331 0620 16        		.uleb128 0x16
 4332 0621 17        		.uleb128 0x17
 4333 0622 1405 0000 		.long	0x514
 4334 0626 00        		.byte	0x0
 4335 0627 00        		.byte	0x0
 4336 0628 0E        		.uleb128 0xe
 4337 0629 01        		.byte	0x1
 4338 062a 0000 0000 		.long	.LASF190
GAS LISTING C:\Users\ADMINI~1\AppData\Local\Temp/ccYJNKdD.s 			page 79


 4339 062e 01        		.byte	0x1
 4340 062f 78        		.byte	0x78
 4341 0630 01        		.byte	0x1
 4342 0631 7200 0000 		.long	0x72
 4343 0635 01        		.byte	0x1
 4344 0636 18        		.uleb128 0x18
 4345 0637 0000 0000 		.long	.LASF192
 4346 063b 01        		.byte	0x1
 4347 063c A1        		.byte	0xa1
 4348 063d 01        		.byte	0x1
 4349 063e 01        		.byte	0x1
 4350 063f 11        		.uleb128 0x11
 4351 0640 01        		.byte	0x1
 4352 0641 0000 0000 		.long	.LASF194
 4353 0645 01        		.byte	0x1
 4354 0646 71        		.byte	0x71
 4355 0647 01        		.byte	0x1
 4356 0648 01        		.byte	0x1
 4357 0649 19        		.uleb128 0x19
 4358 064a 3F06 0000 		.long	0x63f
 4359 064e 0000 0000 		.long	.LFB8
 4360 0652 0000 0000 		.long	.LFE8
 4361 0656 02        		.byte	0x2
 4362 0657 90        		.byte	0x90
 4363 0658 20        		.uleb128 0x20
 4364 0659 19        		.uleb128 0x19
 4365 065a F304 0000 		.long	0x4f3
 4366 065e 0000 0000 		.long	.LFB9
 4367 0662 0000 0000 		.long	.LFE9
 4368 0666 02        		.byte	0x2
 4369 0667 90        		.byte	0x90
 4370 0668 20        		.uleb128 0x20
 4371 0669 19        		.uleb128 0x19
 4372 066a 2806 0000 		.long	0x628
 4373 066e 0000 0000 		.long	.LFB10
 4374 0672 0000 0000 		.long	.LFE10
 4375 0676 02        		.byte	0x2
 4376 0677 90        		.byte	0x90
 4377 0678 20        		.uleb128 0x20
 4378 0679 1A        		.uleb128 0x1a
 4379 067a 01        		.byte	0x1
 4380 067b 0000 0000 		.long	.LASF204
 4381 067f 01        		.byte	0x1
 4382 0680 7C        		.byte	0x7c
 4383 0681 01        		.byte	0x1
 4384 0682 0000 0000 		.long	.LFB11
 4385 0686 0000 0000 		.long	.LFE11
 4386 068a 02        		.byte	0x2
 4387 068b 90        		.byte	0x90
 4388 068c 20        		.uleb128 0x20
 4389 068d A106 0000 		.long	0x6a1
 4390 0691 1B        		.uleb128 0x1b
 4391 0692 0000 0000 		.long	.LASF197
 4392 0696 01        		.byte	0x1
 4393 0697 7C        		.byte	0x7c
 4394 0698 7200 0000 		.long	0x72
 4395 069c 0000 0000 		.long	.LLST4
GAS LISTING C:\Users\ADMINI~1\AppData\Local\Temp/ccYJNKdD.s 			page 80


 4396 06a0 00        		.byte	0x0
 4397 06a1 1C        		.uleb128 0x1c
 4398 06a2 01        		.byte	0x1
 4399 06a3 0000 0000 		.long	.LASF304
 4400 06a7 01        		.byte	0x1
 4401 06a8 A7        		.byte	0xa7
 4402 06a9 01        		.byte	0x1
 4403 06aa 7200 0000 		.long	0x72
 4404 06ae 0000 0000 		.long	.LFB14
 4405 06b2 0000 0000 		.long	.LFE14
 4406 06b6 02        		.byte	0x2
 4407 06b7 90        		.byte	0x90
 4408 06b8 20        		.uleb128 0x20
 4409 06b9 1D        		.uleb128 0x1d
 4410 06ba 01        		.byte	0x1
 4411 06bb 0000 0000 		.long	.LASF195
 4412 06bf 01        		.byte	0x1
 4413 06c0 AD        		.byte	0xad
 4414 06c1 01        		.byte	0x1
 4415 06c2 0000 0000 		.long	.LFB15
 4416 06c6 0000 0000 		.long	.LFE15
 4417 06ca 02        		.byte	0x2
 4418 06cb 90        		.byte	0x90
 4419 06cc 20        		.uleb128 0x20
 4420 06cd 19        		.uleb128 0x19
 4421 06ce 2105 0000 		.long	0x521
 4422 06d2 0000 0000 		.long	.LFB18
 4423 06d6 0000 0000 		.long	.LFE18
 4424 06da 02        		.byte	0x2
 4425 06db 90        		.byte	0x90
 4426 06dc 20        		.uleb128 0x20
 4427 06dd 1E        		.uleb128 0x1e
 4428 06de 0105 0000 		.long	0x501
 4429 06e2 0000 0000 		.long	.LFB23
 4430 06e6 0000 0000 		.long	.LFE23
 4431 06ea 02        		.byte	0x2
 4432 06eb 90        		.byte	0x90
 4433 06ec 20        		.uleb128 0x20
 4434 06ed FB06 0000 		.long	0x6fb
 4435 06f1 1F        		.uleb128 0x1f
 4436 06f2 1405 0000 		.long	0x514
 4437 06f6 0000 0000 		.long	.LLST9
 4438 06fa 00        		.byte	0x0
 4439 06fb 1E        		.uleb128 0x1e
 4440 06fc 0106 0000 		.long	0x601
 4441 0700 0000 0000 		.long	.LFB24
 4442 0704 0000 0000 		.long	.LFE24
 4443 0708 02        		.byte	0x2
 4444 0709 90        		.byte	0x90
 4445 070a 20        		.uleb128 0x20
 4446 070b 2F07 0000 		.long	0x72f
 4447 070f 1F        		.uleb128 0x1f
 4448 0710 1406 0000 		.long	0x614
 4449 0714 0000 0000 		.long	.LLST11
 4450 0718 20        		.uleb128 0x20
 4451 0719 0105 0000 		.long	0x501
 4452 071d 0000 0000 		.long	.LBB69
GAS LISTING C:\Users\ADMINI~1\AppData\Local\Temp/ccYJNKdD.s 			page 81


 4453 0721 0000 0000 		.long	.LBE69
 4454 0725 01        		.byte	0x1
 4455 0726 0A01      		.word	0x10a
 4456 0728 17        		.uleb128 0x17
 4457 0729 F106 0000 		.long	0x6f1
 4458 072d 00        		.byte	0x0
 4459 072e 00        		.byte	0x0
 4460 072f 21        		.uleb128 0x21
 4461 0730 0000 0000 		.long	.LASF305
 4462 0734 01        		.byte	0x1
 4463 0735 4101      		.word	0x141
 4464 0737 01        		.byte	0x1
 4465 0738 0000 0000 		.long	.LFB27
 4466 073c 0000 0000 		.long	.LFE27
 4467 0740 02        		.byte	0x2
 4468 0741 90        		.byte	0x90
 4469 0742 20        		.uleb128 0x20
 4470 0743 22        		.uleb128 0x22
 4471 0744 01        		.byte	0x1
 4472 0745 0000 0000 		.long	.LASF196
 4473 0749 01        		.byte	0x1
 4474 074a 8F02      		.word	0x28f
 4475 074c 01        		.byte	0x1
 4476 074d 0000 0000 		.long	.LFB46
 4477 0751 0000 0000 		.long	.LFE46
 4478 0755 02        		.byte	0x2
 4479 0756 90        		.byte	0x90
 4480 0757 20        		.uleb128 0x20
 4481 0758 23        		.uleb128 0x23
 4482 0759 0000 0000 		.long	.LASF199
 4483 075d 01        		.byte	0x1
 4484 075e 2E01      		.word	0x12e
 4485 0760 01        		.byte	0x1
 4486 0761 0000 0000 		.long	.LFB26
 4487 0765 0000 0000 		.long	.LFE26
 4488 0769 02        		.byte	0x2
 4489 076a 90        		.byte	0x90
 4490 076b 20        		.uleb128 0x20
 4491 076c 8D07 0000 		.long	0x78d
 4492 0770 24        		.uleb128 0x24
 4493 0771 0000 0000 		.long	.LASF198
 4494 0775 01        		.byte	0x1
 4495 0776 2D01      		.word	0x12d
 4496 0778 8E00 0000 		.long	0x8e
 4497 077c 0000 0000 		.long	.LLST15
 4498 0780 25        		.uleb128 0x25
 4499 0781 6B65 7900 		.string	"key"
 4500 0785 01        		.byte	0x1
 4501 0786 3001      		.word	0x130
 4502 0788 CF04 0000 		.long	0x4cf
 4503 078c 00        		.byte	0x0
 4504 078d 23        		.uleb128 0x23
 4505 078e 0000 0000 		.long	.LASF200
 4506 0792 01        		.byte	0x1
 4507 0793 4701      		.word	0x147
 4508 0795 01        		.byte	0x1
 4509 0796 0000 0000 		.long	.LFB28
GAS LISTING C:\Users\ADMINI~1\AppData\Local\Temp/ccYJNKdD.s 			page 82


 4510 079a 0000 0000 		.long	.LFE28
 4511 079e 02        		.byte	0x2
 4512 079f 90        		.byte	0x90
 4513 07a0 20        		.uleb128 0x20
 4514 07a1 DD07 0000 		.long	0x7dd
 4515 07a5 24        		.uleb128 0x24
 4516 07a6 0000 0000 		.long	.LASF201
 4517 07aa 01        		.byte	0x1
 4518 07ab 4601      		.word	0x146
 4519 07ad DD07 0000 		.long	0x7dd
 4520 07b1 0000 0000 		.long	.LLST17
 4521 07b5 25        		.uleb128 0x25
 4522 07b6 6300      		.string	"c"
 4523 07b8 01        		.byte	0x1
 4524 07b9 4801      		.word	0x148
 4525 07bb 6400 0000 		.long	0x64
 4526 07bf 26        		.uleb128 0x26
 4527 07c0 0000 0000 		.long	.LASF202
 4528 07c4 01        		.byte	0x1
 4529 07c5 4901      		.word	0x149
 4530 07c7 E807 0000 		.long	0x7e8
 4531 07cb 02        		.byte	0x2
 4532 07cc 8C        		.byte	0x8c
 4533 07cd 01        		.sleb128 1
 4534 07ce 27        		.uleb128 0x27
 4535 07cf 6900      		.string	"i"
 4536 07d1 01        		.byte	0x1
 4537 07d2 4A01      		.word	0x14a
 4538 07d4 7200 0000 		.long	0x72
 4539 07d8 0000 0000 		.long	.LLST18
 4540 07dc 00        		.byte	0x0
 4541 07dd 06        		.uleb128 0x6
 4542 07de 02        		.byte	0x2
 4543 07df E307 0000 		.long	0x7e3
 4544 07e3 28        		.uleb128 0x28
 4545 07e4 6400 0000 		.long	0x64
 4546 07e8 29        		.uleb128 0x29
 4547 07e9 6400 0000 		.long	0x64
 4548 07ed F807 0000 		.long	0x7f8
 4549 07f1 2A        		.uleb128 0x2a
 4550 07f2 F807 0000 		.long	0x7f8
 4551 07f6 00        		.byte	0x0
 4552 07f7 00        		.byte	0x0
 4553 07f8 05        		.uleb128 0x5
 4554 07f9 02        		.byte	0x2
 4555 07fa 07        		.byte	0x7
 4556 07fb 23        		.uleb128 0x23
 4557 07fc 0000 0000 		.long	.LASF203
 4558 0800 01        		.byte	0x1
 4559 0801 5501      		.word	0x155
 4560 0803 01        		.byte	0x1
 4561 0804 0000 0000 		.long	.LFB29
 4562 0808 0000 0000 		.long	.LFE29
 4563 080c 02        		.byte	0x2
 4564 080d 90        		.byte	0x90
 4565 080e 20        		.uleb128 0x20
 4566 080f 6B08 0000 		.long	0x86b
GAS LISTING C:\Users\ADMINI~1\AppData\Local\Temp/ccYJNKdD.s 			page 83


 4567 0813 2B        		.uleb128 0x2b
 4568 0814 7374 7200 		.string	"str"
 4569 0818 01        		.byte	0x1
 4570 0819 5401      		.word	0x154
 4571 081b DD07 0000 		.long	0x7dd
 4572 081f 0000 0000 		.long	.LLST20
 4573 0823 27        		.uleb128 0x27
 4574 0824 6300      		.string	"c"
 4575 0826 01        		.byte	0x1
 4576 0827 5601      		.word	0x156
 4577 0829 6400 0000 		.long	0x64
 4578 082d 0000 0000 		.long	.LLST21
 4579 0831 26        		.uleb128 0x26
 4580 0832 0000 0000 		.long	.LASF202
 4581 0836 01        		.byte	0x1
 4582 0837 5701      		.word	0x157
 4583 0839 E807 0000 		.long	0x7e8
 4584 083d 02        		.byte	0x2
 4585 083e 8C        		.byte	0x8c
 4586 083f 01        		.sleb128 1
 4587 0840 2C        		.uleb128 0x2c
 4588 0841 0000 0000 		.long	.LBB71
 4589 0845 0000 0000 		.long	.LBE71
 4590 0849 2D        		.uleb128 0x2d
 4591 084a 0000 0000 		.long	.LASF181
 4592 084e 01        		.byte	0x1
 4593 084f 5A01      		.word	0x15a
 4594 0851 7D00 0000 		.long	0x7d
 4595 0855 0000 0000 		.long	.LLST22
 4596 0859 2D        		.uleb128 0x2d
 4597 085a 0000 0000 		.long	.LASF182
 4598 085e 01        		.byte	0x1
 4599 085f 5A01      		.word	0x15a
 4600 0861 7200 0000 		.long	0x72
 4601 0865 0000 0000 		.long	.LLST23
 4602 0869 00        		.byte	0x0
 4603 086a 00        		.byte	0x0
 4604 086b 2E        		.uleb128 0x2e
 4605 086c 01        		.byte	0x1
 4606 086d 0000 0000 		.long	.LASF205
 4607 0871 01        		.byte	0x1
 4608 0872 7F02      		.word	0x27f
 4609 0874 01        		.byte	0x1
 4610 0875 0000 0000 		.long	.LFB45
 4611 0879 0000 0000 		.long	.LFE45
 4612 087d 02        		.byte	0x2
 4613 087e 90        		.byte	0x90
 4614 087f 20        		.uleb128 0x20
 4615 0880 9908 0000 		.long	0x899
 4616 0884 25        		.uleb128 0x25
 4617 0885 6B00      		.string	"k"
 4618 0887 01        		.byte	0x1
 4619 0888 8302      		.word	0x283
 4620 088a 7200 0000 		.long	0x72
 4621 088e 25        		.uleb128 0x25
 4622 088f 6A00      		.string	"j"
 4623 0891 01        		.byte	0x1
GAS LISTING C:\Users\ADMINI~1\AppData\Local\Temp/ccYJNKdD.s 			page 84


 4624 0892 8302      		.word	0x283
 4625 0894 7200 0000 		.long	0x72
 4626 0898 00        		.byte	0x0
 4627 0899 22        		.uleb128 0x22
 4628 089a 01        		.byte	0x1
 4629 089b 0000 0000 		.long	.LASF206
 4630 089f 01        		.byte	0x1
 4631 08a0 7402      		.word	0x274
 4632 08a2 01        		.byte	0x1
 4633 08a3 0000 0000 		.long	.LFB44
 4634 08a7 0000 0000 		.long	.LFE44
 4635 08ab 02        		.byte	0x2
 4636 08ac 90        		.byte	0x90
 4637 08ad 20        		.uleb128 0x20
 4638 08ae 2E        		.uleb128 0x2e
 4639 08af 01        		.byte	0x1
 4640 08b0 0000 0000 		.long	.LASF207
 4641 08b4 01        		.byte	0x1
 4642 08b5 2002      		.word	0x220
 4643 08b7 01        		.byte	0x1
 4644 08b8 0000 0000 		.long	.LFB39
 4645 08bc 0000 0000 		.long	.LFE39
 4646 08c0 02        		.byte	0x2
 4647 08c1 90        		.byte	0x90
 4648 08c2 20        		.uleb128 0x20
 4649 08c3 D808 0000 		.long	0x8d8
 4650 08c7 2F        		.uleb128 0x2f
 4651 08c8 2105 0000 		.long	0x521
 4652 08cc 0000 0000 		.long	.LBB72
 4653 08d0 0000 0000 		.long	.LBE72
 4654 08d4 01        		.byte	0x1
 4655 08d5 2202      		.word	0x222
 4656 08d7 00        		.byte	0x0
 4657 08d8 22        		.uleb128 0x22
 4658 08d9 01        		.byte	0x1
 4659 08da 0000 0000 		.long	.LASF208
 4660 08de 01        		.byte	0x1
 4661 08df DF01      		.word	0x1df
 4662 08e1 01        		.byte	0x1
 4663 08e2 0000 0000 		.long	.LFB35
 4664 08e6 0000 0000 		.long	.LFE35
 4665 08ea 02        		.byte	0x2
 4666 08eb 90        		.byte	0x90
 4667 08ec 20        		.uleb128 0x20
 4668 08ed 22        		.uleb128 0x22
 4669 08ee 01        		.byte	0x1
 4670 08ef 0000 0000 		.long	.LASF209
 4671 08f3 01        		.byte	0x1
 4672 08f4 CF01      		.word	0x1cf
 4673 08f6 01        		.byte	0x1
 4674 08f7 0000 0000 		.long	.LFB34
 4675 08fb 0000 0000 		.long	.LFE34
 4676 08ff 02        		.byte	0x2
 4677 0900 90        		.byte	0x90
 4678 0901 20        		.uleb128 0x20
 4679 0902 23        		.uleb128 0x23
 4680 0903 0000 0000 		.long	.LASF210
GAS LISTING C:\Users\ADMINI~1\AppData\Local\Temp/ccYJNKdD.s 			page 85


 4681 0907 01        		.byte	0x1
 4682 0908 6101      		.word	0x161
 4683 090a 01        		.byte	0x1
 4684 090b 0000 0000 		.long	.LFB30
 4685 090f 0000 0000 		.long	.LFE30
 4686 0913 02        		.byte	0x2
 4687 0914 90        		.byte	0x90
 4688 0915 20        		.uleb128 0x20
 4689 0916 6809 0000 		.long	0x968
 4690 091a 20        		.uleb128 0x20
 4691 091b 2B05 0000 		.long	0x52b
 4692 091f 0000 0000 		.long	.LBB74
 4693 0923 0000 0000 		.long	.LBE74
 4694 0927 01        		.byte	0x1
 4695 0928 9F01      		.word	0x19f
 4696 092a 17        		.uleb128 0x17
 4697 092b 3805 0000 		.long	0x538
 4698 092f 2C        		.uleb128 0x2c
 4699 0930 0000 0000 		.long	.LBB75
 4700 0934 0000 0000 		.long	.LBE75
 4701 0938 30        		.uleb128 0x30
 4702 0939 4305 0000 		.long	0x543
 4703 093d 06        		.byte	0x6
 4704 093e 68        		.byte	0x68
 4705 093f 93        		.byte	0x93
 4706 0940 01        		.uleb128 0x1
 4707 0941 69        		.byte	0x69
 4708 0942 93        		.byte	0x93
 4709 0943 01        		.uleb128 0x1
 4710 0944 31        		.uleb128 0x31
 4711 0945 4E05 0000 		.long	0x54e
 4712 0949 32        		.uleb128 0x32
 4713 094a DA04 0000 		.long	0x4da
 4714 094e 0000 0000 		.long	.LBB76
 4715 0952 0000 0000 		.long	.LBE76
 4716 0956 03        		.byte	0x3
 4717 0957 7B        		.byte	0x7b
 4718 0958 33        		.uleb128 0x33
 4719 0959 E704 0000 		.long	0x4e7
 4720 095d 06        		.byte	0x6
 4721 095e 6E        		.byte	0x6e
 4722 095f 93        		.byte	0x93
 4723 0960 01        		.uleb128 0x1
 4724 0961 6F        		.byte	0x6f
 4725 0962 93        		.byte	0x93
 4726 0963 01        		.uleb128 0x1
 4727 0964 00        		.byte	0x0
 4728 0965 00        		.byte	0x0
 4729 0966 00        		.byte	0x0
 4730 0967 00        		.byte	0x0
 4731 0968 22        		.uleb128 0x22
 4732 0969 01        		.byte	0x1
 4733 096a 0000 0000 		.long	.LASF211
 4734 096e 01        		.byte	0x1
 4735 096f A201      		.word	0x1a2
 4736 0971 01        		.byte	0x1
 4737 0972 0000 0000 		.long	.LFB31
GAS LISTING C:\Users\ADMINI~1\AppData\Local\Temp/ccYJNKdD.s 			page 86


 4738 0976 0000 0000 		.long	.LFE31
 4739 097a 02        		.byte	0x2
 4740 097b 90        		.byte	0x90
 4741 097c 20        		.uleb128 0x20
 4742 097d 22        		.uleb128 0x22
 4743 097e 01        		.byte	0x1
 4744 097f 0000 0000 		.long	.LASF212
 4745 0983 01        		.byte	0x1
 4746 0984 B201      		.word	0x1b2
 4747 0986 01        		.byte	0x1
 4748 0987 0000 0000 		.long	.LFB32
 4749 098b 0000 0000 		.long	.LFE32
 4750 098f 02        		.byte	0x2
 4751 0990 90        		.byte	0x90
 4752 0991 20        		.uleb128 0x20
 4753 0992 2E        		.uleb128 0x2e
 4754 0993 01        		.byte	0x1
 4755 0994 0000 0000 		.long	.LASF213
 4756 0998 01        		.byte	0x1
 4757 0999 6602      		.word	0x266
 4758 099b 01        		.byte	0x1
 4759 099c 0000 0000 		.long	.LFB43
 4760 09a0 0000 0000 		.long	.LFE43
 4761 09a4 02        		.byte	0x2
 4762 09a5 90        		.byte	0x90
 4763 09a6 20        		.uleb128 0x20
 4764 09a7 C209 0000 		.long	0x9c2
 4765 09ab 34        		.uleb128 0x34
 4766 09ac 0000 0000 		.long	.LASF214
 4767 09b0 01        		.byte	0x1
 4768 09b1 6702      		.word	0x267
 4769 09b3 7D00 0000 		.long	0x7d
 4770 09b7 25        		.uleb128 0x25
 4771 09b8 6B00      		.string	"k"
 4772 09ba 01        		.byte	0x1
 4773 09bb 6802      		.word	0x268
 4774 09bd 6B00 0000 		.long	0x6b
 4775 09c1 00        		.byte	0x0
 4776 09c2 2E        		.uleb128 0x2e
 4777 09c3 01        		.byte	0x1
 4778 09c4 0000 0000 		.long	.LASF215
 4779 09c8 01        		.byte	0x1
 4780 09c9 5302      		.word	0x253
 4781 09cb 01        		.byte	0x1
 4782 09cc 0000 0000 		.long	.LFB42
 4783 09d0 0000 0000 		.long	.LFE42
 4784 09d4 02        		.byte	0x2
 4785 09d5 90        		.byte	0x90
 4786 09d6 20        		.uleb128 0x20
 4787 09d7 0A0A 0000 		.long	0xa0a
 4788 09db 34        		.uleb128 0x34
 4789 09dc 0000 0000 		.long	.LASF216
 4790 09e0 01        		.byte	0x1
 4791 09e1 5702      		.word	0x257
 4792 09e3 7200 0000 		.long	0x72
 4793 09e7 34        		.uleb128 0x34
 4794 09e8 0000 0000 		.long	.LASF214
GAS LISTING C:\Users\ADMINI~1\AppData\Local\Temp/ccYJNKdD.s 			page 87


 4795 09ec 01        		.byte	0x1
 4796 09ed 5802      		.word	0x258
 4797 09ef 7D00 0000 		.long	0x7d
 4798 09f3 34        		.uleb128 0x34
 4799 09f4 0000 0000 		.long	.LASF217
 4800 09f8 01        		.byte	0x1
 4801 09f9 5902      		.word	0x259
 4802 09fb 0A0A 0000 		.long	0xa0a
 4803 09ff 25        		.uleb128 0x25
 4804 0a00 6B00      		.string	"k"
 4805 0a02 01        		.byte	0x1
 4806 0a03 5A02      		.word	0x25a
 4807 0a05 7200 0000 		.long	0x72
 4808 0a09 00        		.byte	0x0
 4809 0a0a 29        		.uleb128 0x29
 4810 0a0b 7200 0000 		.long	0x72
 4811 0a0f 1A0A 0000 		.long	0xa1a
 4812 0a13 2A        		.uleb128 0x2a
 4813 0a14 F807 0000 		.long	0x7f8
 4814 0a18 2F        		.byte	0x2f
 4815 0a19 00        		.byte	0x0
 4816 0a1a 2E        		.uleb128 0x2e
 4817 0a1b 01        		.byte	0x1
 4818 0a1c 0000 0000 		.long	.LASF218
 4819 0a20 01        		.byte	0x1
 4820 0a21 4002      		.word	0x240
 4821 0a23 01        		.byte	0x1
 4822 0a24 0000 0000 		.long	.LFB41
 4823 0a28 0000 0000 		.long	.LFE41
 4824 0a2c 02        		.byte	0x2
 4825 0a2d 90        		.byte	0x90
 4826 0a2e 20        		.uleb128 0x20
 4827 0a2f 760A 0000 		.long	0xa76
 4828 0a33 24        		.uleb128 0x24
 4829 0a34 0000 0000 		.long	.LASF219
 4830 0a38 01        		.byte	0x1
 4831 0a39 4002      		.word	0x240
 4832 0a3b 7200 0000 		.long	0x72
 4833 0a3f 0000 0000 		.long	.LLST35
 4834 0a43 34        		.uleb128 0x34
 4835 0a44 0000 0000 		.long	.LASF214
 4836 0a48 01        		.byte	0x1
 4837 0a49 4402      		.word	0x244
 4838 0a4b 7D00 0000 		.long	0x7d
 4839 0a4f 2D        		.uleb128 0x2d
 4840 0a50 0000 0000 		.long	.LASF216
 4841 0a54 01        		.byte	0x1
 4842 0a55 4502      		.word	0x245
 4843 0a57 7200 0000 		.long	0x72
 4844 0a5b 0000 0000 		.long	.LLST36
 4845 0a5f 34        		.uleb128 0x34
 4846 0a60 0000 0000 		.long	.LASF217
 4847 0a64 01        		.byte	0x1
 4848 0a65 4602      		.word	0x246
 4849 0a67 0A0A 0000 		.long	0xa0a
 4850 0a6b 25        		.uleb128 0x25
 4851 0a6c 6B00      		.string	"k"
GAS LISTING C:\Users\ADMINI~1\AppData\Local\Temp/ccYJNKdD.s 			page 88


 4852 0a6e 01        		.byte	0x1
 4853 0a6f 4702      		.word	0x247
 4854 0a71 7200 0000 		.long	0x72
 4855 0a75 00        		.byte	0x0
 4856 0a76 2E        		.uleb128 0x2e
 4857 0a77 01        		.byte	0x1
 4858 0a78 0000 0000 		.long	.LASF220
 4859 0a7c 01        		.byte	0x1
 4860 0a7d E501      		.word	0x1e5
 4861 0a7f 01        		.byte	0x1
 4862 0a80 0000 0000 		.long	.LFB36
 4863 0a84 0000 0000 		.long	.LFE36
 4864 0a88 02        		.byte	0x2
 4865 0a89 90        		.byte	0x90
 4866 0a8a 20        		.uleb128 0x20
 4867 0a8b B00A 0000 		.long	0xab0
 4868 0a8f 34        		.uleb128 0x34
 4869 0a90 0000 0000 		.long	.LASF214
 4870 0a94 01        		.byte	0x1
 4871 0a95 E601      		.word	0x1e6
 4872 0a97 7D00 0000 		.long	0x7d
 4873 0a9b 25        		.uleb128 0x25
 4874 0a9c 6B00      		.string	"k"
 4875 0a9e 01        		.byte	0x1
 4876 0a9f E701      		.word	0x1e7
 4877 0aa1 7200 0000 		.long	0x72
 4878 0aa5 25        		.uleb128 0x25
 4879 0aa6 6A00      		.string	"j"
 4880 0aa8 01        		.byte	0x1
 4881 0aa9 E701      		.word	0x1e7
 4882 0aab 7200 0000 		.long	0x72
 4883 0aaf 00        		.byte	0x0
 4884 0ab0 2E        		.uleb128 0x2e
 4885 0ab1 01        		.byte	0x1
 4886 0ab2 0000 0000 		.long	.LASF221
 4887 0ab6 01        		.byte	0x1
 4888 0ab7 9602      		.word	0x296
 4889 0ab9 01        		.byte	0x1
 4890 0aba 0000 0000 		.long	.LFB47
 4891 0abe 0000 0000 		.long	.LFE47
 4892 0ac2 02        		.byte	0x2
 4893 0ac3 90        		.byte	0x90
 4894 0ac4 20        		.uleb128 0x20
 4895 0ac5 630C 0000 		.long	0xc63
 4896 0ac9 24        		.uleb128 0x24
 4897 0aca 0000 0000 		.long	.LASF171
 4898 0ace 01        		.byte	0x1
 4899 0acf 9502      		.word	0x295
 4900 0ad1 7200 0000 		.long	0x72
 4901 0ad5 0000 0000 		.long	.LLST39
 4902 0ad9 24        		.uleb128 0x24
 4903 0ada 0000 0000 		.long	.LASF180
 4904 0ade 01        		.byte	0x1
 4905 0adf 9502      		.word	0x295
 4906 0ae1 7200 0000 		.long	0x72
 4907 0ae5 0000 0000 		.long	.LLST40
 4908 0ae9 24        		.uleb128 0x24
GAS LISTING C:\Users\ADMINI~1\AppData\Local\Temp/ccYJNKdD.s 			page 89


 4909 0aea 0000 0000 		.long	.LASF179
 4910 0aee 01        		.byte	0x1
 4911 0aef 9502      		.word	0x295
 4912 0af1 7200 0000 		.long	0x72
 4913 0af5 0000 0000 		.long	.LLST41
 4914 0af9 24        		.uleb128 0x24
 4915 0afa 0000 0000 		.long	.LASF222
 4916 0afe 01        		.byte	0x1
 4917 0aff 9502      		.word	0x295
 4918 0b01 7200 0000 		.long	0x72
 4919 0b05 0000 0000 		.long	.LLST42
 4920 0b09 27        		.uleb128 0x27
 4921 0b0a 636D 6400 		.string	"cmd"
 4922 0b0e 01        		.byte	0x1
 4923 0b0f 9E02      		.word	0x29e
 4924 0b11 7200 0000 		.long	0x72
 4925 0b15 0000 0000 		.long	.LLST43
 4926 0b19 2D        		.uleb128 0x2d
 4927 0b1a 0000 0000 		.long	.LASF223
 4928 0b1e 01        		.byte	0x1
 4929 0b1f 9E02      		.word	0x29e
 4930 0b21 7200 0000 		.long	0x72
 4931 0b25 0000 0000 		.long	.LLST44
 4932 0b29 2D        		.uleb128 0x2d
 4933 0b2a 0000 0000 		.long	.LASF216
 4934 0b2e 01        		.byte	0x1
 4935 0b2f 9F02      		.word	0x29f
 4936 0b31 6B00 0000 		.long	0x6b
 4937 0b35 0000 0000 		.long	.LLST45
 4938 0b39 2D        		.uleb128 0x2d
 4939 0b3a 0000 0000 		.long	.LASF185
 4940 0b3e 01        		.byte	0x1
 4941 0b3f A002      		.word	0x2a0
 4942 0b41 6B00 0000 		.long	0x6b
 4943 0b45 0000 0000 		.long	.LLST46
 4944 0b49 26        		.uleb128 0x26
 4945 0b4a 0000 0000 		.long	.LASF224
 4946 0b4e 01        		.byte	0x1
 4947 0b4f A102      		.word	0x2a1
 4948 0b51 630C 0000 		.long	0xc63
 4949 0b55 02        		.byte	0x2
 4950 0b56 8C        		.byte	0x8c
 4951 0b57 01        		.sleb128 1
 4952 0b58 2D        		.uleb128 0x2d
 4953 0b59 0000 0000 		.long	.LASF186
 4954 0b5d 01        		.byte	0x1
 4955 0b5e A202      		.word	0x2a2
 4956 0b60 6B00 0000 		.long	0x6b
 4957 0b64 0000 0000 		.long	.LLST47
 4958 0b68 34        		.uleb128 0x34
 4959 0b69 0000 0000 		.long	.LASF225
 4960 0b6d 01        		.byte	0x1
 4961 0b6e A302      		.word	0x2a3
 4962 0b70 6B00 0000 		.long	0x6b
 4963 0b74 2F        		.uleb128 0x2f
 4964 0b75 6305 0000 		.long	0x563
 4965 0b79 0000 0000 		.long	.LBB78
GAS LISTING C:\Users\ADMINI~1\AppData\Local\Temp/ccYJNKdD.s 			page 90


 4966 0b7d 0000 0000 		.long	.LBE78
 4967 0b81 01        		.byte	0x1
 4968 0b82 FB02      		.word	0x2fb
 4969 0b84 2F        		.uleb128 0x2f
 4970 0b85 2105 0000 		.long	0x521
 4971 0b89 0000 0000 		.long	.LBB80
 4972 0b8d 0000 0000 		.long	.LBE80
 4973 0b91 01        		.byte	0x1
 4974 0b92 2103      		.word	0x321
 4975 0b94 35        		.uleb128 0x35
 4976 0b95 2B05 0000 		.long	0x52b
 4977 0b99 0000 0000 		.long	.LBB82
 4978 0b9d 0000 0000 		.long	.LBE82
 4979 0ba1 01        		.byte	0x1
 4980 0ba2 5703      		.word	0x357
 4981 0ba4 DF0B 0000 		.long	0xbdf
 4982 0ba8 17        		.uleb128 0x17
 4983 0ba9 3805 0000 		.long	0x538
 4984 0bad 2C        		.uleb128 0x2c
 4985 0bae 0000 0000 		.long	.LBB83
 4986 0bb2 0000 0000 		.long	.LBE83
 4987 0bb6 36        		.uleb128 0x36
 4988 0bb7 4305 0000 		.long	0x543
 4989 0bbb 0000 0000 		.long	.LLST48
 4990 0bbf 31        		.uleb128 0x31
 4991 0bc0 4E05 0000 		.long	0x54e
 4992 0bc4 32        		.uleb128 0x32
 4993 0bc5 DA04 0000 		.long	0x4da
 4994 0bc9 0000 0000 		.long	.LBB84
 4995 0bcd 0000 0000 		.long	.LBE84
 4996 0bd1 03        		.byte	0x3
 4997 0bd2 7B        		.byte	0x7b
 4998 0bd3 1F        		.uleb128 0x1f
 4999 0bd4 E704 0000 		.long	0x4e7
 5000 0bd8 0000 0000 		.long	.LLST49
 5001 0bdc 00        		.byte	0x0
 5002 0bdd 00        		.byte	0x0
 5003 0bde 00        		.byte	0x0
 5004 0bdf 35        		.uleb128 0x35
 5005 0be0 6D05 0000 		.long	0x56d
 5006 0be4 0000 0000 		.long	.LBB86
 5007 0be8 0000 0000 		.long	.LBE86
 5008 0bec 01        		.byte	0x1
 5009 0bed 8003      		.word	0x380
 5010 0bef 1B0C 0000 		.long	0xc1b
 5011 0bf3 17        		.uleb128 0x17
 5012 0bf4 9405 0000 		.long	0x594
 5013 0bf8 17        		.uleb128 0x17
 5014 0bf9 8905 0000 		.long	0x589
 5015 0bfd 17        		.uleb128 0x17
 5016 0bfe 7E05 0000 		.long	0x57e
 5017 0c02 2C        		.uleb128 0x2c
 5018 0c03 0000 0000 		.long	.LBB88
 5019 0c07 0000 0000 		.long	.LBE88
 5020 0c0b 31        		.uleb128 0x31
 5021 0c0c A005 0000 		.long	0x5a0
 5022 0c10 36        		.uleb128 0x36
GAS LISTING C:\Users\ADMINI~1\AppData\Local\Temp/ccYJNKdD.s 			page 91


 5023 0c11 AB05 0000 		.long	0x5ab
 5024 0c15 0000 0000 		.long	.LLST50
 5025 0c19 00        		.byte	0x0
 5026 0c1a 00        		.byte	0x0
 5027 0c1b 20        		.uleb128 0x20
 5028 0c1c 2B05 0000 		.long	0x52b
 5029 0c20 0000 0000 		.long	.LBB89
 5030 0c24 0000 0000 		.long	.LBE89
 5031 0c28 01        		.byte	0x1
 5032 0c29 A803      		.word	0x3a8
 5033 0c2b 17        		.uleb128 0x17
 5034 0c2c 3805 0000 		.long	0x538
 5035 0c30 2C        		.uleb128 0x2c
 5036 0c31 0000 0000 		.long	.LBB90
 5037 0c35 0000 0000 		.long	.LBE90
 5038 0c39 36        		.uleb128 0x36
 5039 0c3a 4305 0000 		.long	0x543
 5040 0c3e 0000 0000 		.long	.LLST51
 5041 0c42 31        		.uleb128 0x31
 5042 0c43 4E05 0000 		.long	0x54e
 5043 0c47 32        		.uleb128 0x32
 5044 0c48 DA04 0000 		.long	0x4da
 5045 0c4c 0000 0000 		.long	.LBB91
 5046 0c50 0000 0000 		.long	.LBE91
 5047 0c54 03        		.byte	0x3
 5048 0c55 7B        		.byte	0x7b
 5049 0c56 1F        		.uleb128 0x1f
 5050 0c57 E704 0000 		.long	0x4e7
 5051 0c5b 0000 0000 		.long	.LLST52
 5052 0c5f 00        		.byte	0x0
 5053 0c60 00        		.byte	0x0
 5054 0c61 00        		.byte	0x0
 5055 0c62 00        		.byte	0x0
 5056 0c63 29        		.uleb128 0x29
 5057 0c64 6400 0000 		.long	0x64
 5058 0c68 730C 0000 		.long	0xc73
 5059 0c6c 2A        		.uleb128 0x2a
 5060 0c6d F807 0000 		.long	0x7f8
 5061 0c71 02        		.byte	0x2
 5062 0c72 00        		.byte	0x0
 5063 0c73 2E        		.uleb128 0x2e
 5064 0c74 01        		.byte	0x1
 5065 0c75 0000 0000 		.long	.LASF226
 5066 0c79 01        		.byte	0x1
 5067 0c7a FF01      		.word	0x1ff
 5068 0c7c 01        		.byte	0x1
 5069 0c7d 0000 0000 		.long	.LFB38
 5070 0c81 0000 0000 		.long	.LFE38
 5071 0c85 02        		.byte	0x2
 5072 0c86 90        		.byte	0x90
 5073 0c87 20        		.uleb128 0x20
 5074 0c88 C90C 0000 		.long	0xcc9
 5075 0c8c 34        		.uleb128 0x34
 5076 0c8d 0000 0000 		.long	.LASF216
 5077 0c91 01        		.byte	0x1
 5078 0c92 0002      		.word	0x200
 5079 0c94 7200 0000 		.long	0x72
GAS LISTING C:\Users\ADMINI~1\AppData\Local\Temp/ccYJNKdD.s 			page 92


 5080 0c98 34        		.uleb128 0x34
 5081 0c99 0000 0000 		.long	.LASF214
 5082 0c9d 01        		.byte	0x1
 5083 0c9e 0102      		.word	0x201
 5084 0ca0 7D00 0000 		.long	0x7d
 5085 0ca4 25        		.uleb128 0x25
 5086 0ca5 6B00      		.string	"k"
 5087 0ca7 01        		.byte	0x1
 5088 0ca8 0202      		.word	0x202
 5089 0caa 7200 0000 		.long	0x72
 5090 0cae 25        		.uleb128 0x25
 5091 0caf 6A00      		.string	"j"
 5092 0cb1 01        		.byte	0x1
 5093 0cb2 0202      		.word	0x202
 5094 0cb4 7200 0000 		.long	0x72
 5095 0cb8 2F        		.uleb128 0x2f
 5096 0cb9 2105 0000 		.long	0x521
 5097 0cbd 0000 0000 		.long	.LBB93
 5098 0cc1 0000 0000 		.long	.LBE93
 5099 0cc5 01        		.byte	0x1
 5100 0cc6 1002      		.word	0x210
 5101 0cc8 00        		.byte	0x0
 5102 0cc9 22        		.uleb128 0x22
 5103 0cca 01        		.byte	0x1
 5104 0ccb 0000 0000 		.long	.LASF227
 5105 0ccf 01        		.byte	0x1
 5106 0cd0 F301      		.word	0x1f3
 5107 0cd2 01        		.byte	0x1
 5108 0cd3 0000 0000 		.long	.LFB37
 5109 0cd7 0000 0000 		.long	.LFE37
 5110 0cdb 02        		.byte	0x2
 5111 0cdc 90        		.byte	0x90
 5112 0cdd 20        		.uleb128 0x20
 5113 0cde 37        		.uleb128 0x37
 5114 0cdf 01        		.byte	0x1
 5115 0ce0 0000 0000 		.long	.LASF228
 5116 0ce4 01        		.byte	0x1
 5117 0ce5 1101      		.word	0x111
 5118 0ce7 01        		.byte	0x1
 5119 0ce8 7200 0000 		.long	0x72
 5120 0cec 0000 0000 		.long	.LFB25
 5121 0cf0 0000 0000 		.long	.LFE25
 5122 0cf4 02        		.byte	0x2
 5123 0cf5 90        		.byte	0x90
 5124 0cf6 20        		.uleb128 0x20
 5125 0cf7 920D 0000 		.long	0xd92
 5126 0cfb 24        		.uleb128 0x24
 5127 0cfc 0000 0000 		.long	.LASF178
 5128 0d00 01        		.byte	0x1
 5129 0d01 1001      		.word	0x110
 5130 0d03 7200 0000 		.long	0x72
 5131 0d07 0000 0000 		.long	.LLST56
 5132 0d0b 24        		.uleb128 0x24
 5133 0d0c 0000 0000 		.long	.LASF179
 5134 0d10 01        		.byte	0x1
 5135 0d11 1001      		.word	0x110
 5136 0d13 7200 0000 		.long	0x72
GAS LISTING C:\Users\ADMINI~1\AppData\Local\Temp/ccYJNKdD.s 			page 93


 5137 0d17 0000 0000 		.long	.LLST57
 5138 0d1b 24        		.uleb128 0x24
 5139 0d1c 0000 0000 		.long	.LASF180
 5140 0d20 01        		.byte	0x1
 5141 0d21 1001      		.word	0x110
 5142 0d23 7200 0000 		.long	0x72
 5143 0d27 0000 0000 		.long	.LLST58
 5144 0d2b 26        		.uleb128 0x26
 5145 0d2c 0000 0000 		.long	.LASF185
 5146 0d30 01        		.byte	0x1
 5147 0d31 1201      		.word	0x112
 5148 0d33 7200 0000 		.long	0x72
 5149 0d37 01        		.byte	0x1
 5150 0d38 69        		.byte	0x69
 5151 0d39 35        		.uleb128 0x35
 5152 0d3a B805 0000 		.long	0x5b8
 5153 0d3e 0000 0000 		.long	.LBB95
 5154 0d42 0000 0000 		.long	.LBE95
 5155 0d46 01        		.byte	0x1
 5156 0d47 1A01      		.word	0x11a
 5157 0d49 5D0D 0000 		.long	0xd5d
 5158 0d4d 17        		.uleb128 0x17
 5159 0d4e DF05 0000 		.long	0x5df
 5160 0d52 17        		.uleb128 0x17
 5161 0d53 D405 0000 		.long	0x5d4
 5162 0d57 17        		.uleb128 0x17
 5163 0d58 C905 0000 		.long	0x5c9
 5164 0d5c 00        		.byte	0x0
 5165 0d5d 20        		.uleb128 0x20
 5166 0d5e 6D05 0000 		.long	0x56d
 5167 0d62 0000 0000 		.long	.LBB96
 5168 0d66 0000 0000 		.long	.LBE96
 5169 0d6a 01        		.byte	0x1
 5170 0d6b 2201      		.word	0x122
 5171 0d6d 17        		.uleb128 0x17
 5172 0d6e 9405 0000 		.long	0x594
 5173 0d72 17        		.uleb128 0x17
 5174 0d73 8905 0000 		.long	0x589
 5175 0d77 17        		.uleb128 0x17
 5176 0d78 7E05 0000 		.long	0x57e
 5177 0d7c 2C        		.uleb128 0x2c
 5178 0d7d 0000 0000 		.long	.LBB98
 5179 0d81 0000 0000 		.long	.LBE98
 5180 0d85 31        		.uleb128 0x31
 5181 0d86 A005 0000 		.long	0x5a0
 5182 0d8a 31        		.uleb128 0x31
 5183 0d8b AB05 0000 		.long	0x5ab
 5184 0d8f 00        		.byte	0x0
 5185 0d90 00        		.byte	0x0
 5186 0d91 00        		.byte	0x0
 5187 0d92 37        		.uleb128 0x37
 5188 0d93 01        		.byte	0x1
 5189 0d94 0000 0000 		.long	.LASF229
 5190 0d98 01        		.byte	0x1
 5191 0d99 3102      		.word	0x231
 5192 0d9b 01        		.byte	0x1
 5193 0d9c 7200 0000 		.long	0x72
GAS LISTING C:\Users\ADMINI~1\AppData\Local\Temp/ccYJNKdD.s 			page 94


 5194 0da0 0000 0000 		.long	.LFB40
 5195 0da4 0000 0000 		.long	.LFE40
 5196 0da8 02        		.byte	0x2
 5197 0da9 90        		.byte	0x90
 5198 0daa 20        		.uleb128 0x20
 5199 0dab E20D 0000 		.long	0xde2
 5200 0daf 24        		.uleb128 0x24
 5201 0db0 0000 0000 		.long	.LASF230
 5202 0db4 01        		.byte	0x1
 5203 0db5 3102      		.word	0x231
 5204 0db7 7200 0000 		.long	0x72
 5205 0dbb 0000 0000 		.long	.LLST60
 5206 0dbf 34        		.uleb128 0x34
 5207 0dc0 0000 0000 		.long	.LASF231
 5208 0dc4 01        		.byte	0x1
 5209 0dc5 3402      		.word	0x234
 5210 0dc7 7200 0000 		.long	0x72
 5211 0dcb 20        		.uleb128 0x20
 5212 0dcc 0105 0000 		.long	0x501
 5213 0dd0 0000 0000 		.long	.LBB99
 5214 0dd4 0000 0000 		.long	.LBE99
 5215 0dd8 01        		.byte	0x1
 5216 0dd9 3602      		.word	0x236
 5217 0ddb 17        		.uleb128 0x17
 5218 0ddc F106 0000 		.long	0x6f1
 5219 0de0 00        		.byte	0x0
 5220 0de1 00        		.byte	0x0
 5221 0de2 1A        		.uleb128 0x1a
 5222 0de3 01        		.byte	0x1
 5223 0de4 0000 0000 		.long	.LASF232
 5224 0de8 01        		.byte	0x1
 5225 0de9 BD        		.byte	0xbd
 5226 0dea 01        		.byte	0x1
 5227 0deb 0000 0000 		.long	.LFB17
 5228 0def 0000 0000 		.long	.LFE17
 5229 0df3 02        		.byte	0x2
 5230 0df4 90        		.byte	0x90
 5231 0df5 20        		.uleb128 0x20
 5232 0df6 190E 0000 		.long	0xe19
 5233 0dfa 38        		.uleb128 0x38
 5234 0dfb F304 0000 		.long	0x4f3
 5235 0dff 0000 0000 		.long	.LBB101
 5236 0e03 0000 0000 		.long	.LBE101
 5237 0e07 01        		.byte	0x1
 5238 0e08 BE        		.byte	0xbe
 5239 0e09 38        		.uleb128 0x38
 5240 0e0a 3606 0000 		.long	0x636
 5241 0e0e 0000 0000 		.long	.LBB103
 5242 0e12 0000 0000 		.long	.LBE103
 5243 0e16 01        		.byte	0x1
 5244 0e17 BF        		.byte	0xbf
 5245 0e18 00        		.byte	0x0
 5246 0e19 1A        		.uleb128 0x1a
 5247 0e1a 01        		.byte	0x1
 5248 0e1b 0000 0000 		.long	.LASF233
 5249 0e1f 01        		.byte	0x1
 5250 0e20 91        		.byte	0x91
GAS LISTING C:\Users\ADMINI~1\AppData\Local\Temp/ccYJNKdD.s 			page 95


 5251 0e21 01        		.byte	0x1
 5252 0e22 0000 0000 		.long	.LFB12
 5253 0e26 0000 0000 		.long	.LFE12
 5254 0e2a 02        		.byte	0x2
 5255 0e2b 90        		.byte	0x90
 5256 0e2c 20        		.uleb128 0x20
 5257 0e2d 410E 0000 		.long	0xe41
 5258 0e31 38        		.uleb128 0x38
 5259 0e32 3F06 0000 		.long	0x63f
 5260 0e36 0000 0000 		.long	.LBB105
 5261 0e3a 0000 0000 		.long	.LBE105
 5262 0e3e 01        		.byte	0x1
 5263 0e3f 92        		.byte	0x92
 5264 0e40 00        		.byte	0x0
 5265 0e41 1D        		.uleb128 0x1d
 5266 0e42 01        		.byte	0x1
 5267 0e43 0000 0000 		.long	.LASF234
 5268 0e47 01        		.byte	0x1
 5269 0e48 CD        		.byte	0xcd
 5270 0e49 01        		.byte	0x1
 5271 0e4a 0000 0000 		.long	.LFB19
 5272 0e4e 0000 0000 		.long	.LFE19
 5273 0e52 02        		.byte	0x2
 5274 0e53 90        		.byte	0x90
 5275 0e54 20        		.uleb128 0x20
 5276 0e55 1D        		.uleb128 0x1d
 5277 0e56 01        		.byte	0x1
 5278 0e57 0000 0000 		.long	.LASF235
 5279 0e5b 01        		.byte	0x1
 5280 0e5c D5        		.byte	0xd5
 5281 0e5d 01        		.byte	0x1
 5282 0e5e 0000 0000 		.long	.LFB20
 5283 0e62 0000 0000 		.long	.LFE20
 5284 0e66 02        		.byte	0x2
 5285 0e67 90        		.byte	0x90
 5286 0e68 20        		.uleb128 0x20
 5287 0e69 1D        		.uleb128 0x1d
 5288 0e6a 01        		.byte	0x1
 5289 0e6b 0000 0000 		.long	.LASF236
 5290 0e6f 01        		.byte	0x1
 5291 0e70 B3        		.byte	0xb3
 5292 0e71 01        		.byte	0x1
 5293 0e72 0000 0000 		.long	.LFB16
 5294 0e76 0000 0000 		.long	.LFE16
 5295 0e7a 02        		.byte	0x2
 5296 0e7b 90        		.byte	0x90
 5297 0e7c 20        		.uleb128 0x20
 5298 0e7d 39        		.uleb128 0x39
 5299 0e7e 0000 0000 		.long	.LASF237
 5300 0e82 01        		.byte	0x1
 5301 0e83 44        		.byte	0x44
 5302 0e84 7200 0000 		.long	0x72
 5303 0e88 05        		.byte	0x5
 5304 0e89 03        		.byte	0x3
 5305 0e8a 0000 0000 		.long	_isKeyMapping
 5306 0e8e 39        		.uleb128 0x39
 5307 0e8f 0000 0000 		.long	.LASF238
GAS LISTING C:\Users\ADMINI~1\AppData\Local\Temp/ccYJNKdD.s 			page 96


 5308 0e93 01        		.byte	0x1
 5309 0e94 45        		.byte	0x45
 5310 0e95 7200 0000 		.long	0x72
 5311 0e99 05        		.byte	0x5
 5312 0e9a 03        		.byte	0x3
 5313 0e9b 0000 0000 		.long	enabledKeyMappingCount
 5314 0e9f 39        		.uleb128 0x39
 5315 0ea0 0000 0000 		.long	.LASF239
 5316 0ea4 01        		.byte	0x1
 5317 0ea5 46        		.byte	0x46
 5318 0ea6 6B00 0000 		.long	0x6b
 5319 0eaa 05        		.byte	0x5
 5320 0eab 03        		.byte	0x3
 5321 0eac 0000 0000 		.long	keyMappingCount
 5322 0eb0 39        		.uleb128 0x39
 5323 0eb1 0000 0000 		.long	.LASF240
 5324 0eb5 01        		.byte	0x1
 5325 0eb6 47        		.byte	0x47
 5326 0eb7 6B00 0000 		.long	0x6b
 5327 0ebb 05        		.byte	0x5
 5328 0ebc 03        		.byte	0x3
 5329 0ebd 0000 0000 		.long	keyMappingCountMax
 5330 0ec1 39        		.uleb128 0x39
 5331 0ec2 0000 0000 		.long	.LASF241
 5332 0ec6 01        		.byte	0x1
 5333 0ec7 48        		.byte	0x48
 5334 0ec8 7200 0000 		.long	0x72
 5335 0ecc 05        		.byte	0x5
 5336 0ecd 03        		.byte	0x3
 5337 0ece 0000 0000 		.long	_keyMappingOnBoot
 5338 0ed2 39        		.uleb128 0x39
 5339 0ed3 0000 0000 		.long	.LASF242
 5340 0ed7 01        		.byte	0x1
 5341 0ed8 52        		.byte	0x52
 5342 0ed9 7200 0000 		.long	0x72
 5343 0edd 05        		.byte	0x5
 5344 0ede 03        		.byte	0x3
 5345 0edf 0000 0000 		.long	_mode
 5346 0ee3 39        		.uleb128 0x39
 5347 0ee4 0000 0000 		.long	.LASF243
 5348 0ee8 01        		.byte	0x1
 5349 0ee9 53        		.byte	0x53
 5350 0eea 7200 0000 		.long	0x72
 5351 0eee 05        		.byte	0x5
 5352 0eef 03        		.byte	0x3
 5353 0ef0 0000 0000 		.long	_step
 5354 0ef4 39        		.uleb128 0x39
 5355 0ef5 0000 0000 		.long	.LASF244
 5356 0ef9 01        		.byte	0x1
 5357 0efa 54        		.byte	0x54
 5358 0efb 7200 0000 		.long	0x72
 5359 0eff 05        		.byte	0x5
 5360 0f00 03        		.byte	0x3
 5361 0f01 0000 0000 		.long	_stepAfterSave
 5362 0f05 39        		.uleb128 0x39
 5363 0f06 0000 0000 		.long	.LASF245
 5364 0f0a 01        		.byte	0x1
GAS LISTING C:\Users\ADMINI~1\AppData\Local\Temp/ccYJNKdD.s 			page 97


 5365 0f0b 55        		.byte	0x55
 5366 0f0c 7200 0000 		.long	0x72
 5367 0f10 05        		.byte	0x5
 5368 0f11 03        		.byte	0x3
 5369 0f12 0000 0000 		.long	_wait
 5370 0f16 39        		.uleb128 0x39
 5371 0f17 0000 0000 		.long	.LASF246
 5372 0f1b 01        		.byte	0x1
 5373 0f1c 56        		.byte	0x56
 5374 0f1d 7200 0000 		.long	0x72
 5375 0f21 05        		.byte	0x5
 5376 0f22 03        		.byte	0x3
 5377 0f23 0000 0000 		.long	_col
 5378 0f27 39        		.uleb128 0x39
 5379 0f28 0000 0000 		.long	.LASF247
 5380 0f2c 01        		.byte	0x1
 5381 0f2d 56        		.byte	0x56
 5382 0f2e 7200 0000 		.long	0x72
 5383 0f32 05        		.byte	0x5
 5384 0f33 03        		.byte	0x3
 5385 0f34 0000 0000 		.long	_row
 5386 0f38 29        		.uleb128 0x29
 5387 0f39 7200 0000 		.long	0x72
 5388 0f3d 480F 0000 		.long	0xf48
 5389 0f41 2A        		.uleb128 0x2a
 5390 0f42 F807 0000 		.long	0x7f8
 5391 0f46 02        		.byte	0x2
 5392 0f47 00        		.byte	0x0
 5393 0f48 39        		.uleb128 0x39
 5394 0f49 0000 0000 		.long	.LASF248
 5395 0f4d 01        		.byte	0x1
 5396 0f4e 57        		.byte	0x57
 5397 0f4f 380F 0000 		.long	0xf38
 5398 0f53 05        		.byte	0x5
 5399 0f54 03        		.byte	0x3
 5400 0f55 0000 0000 		.long	_buffer
 5401 0f59 39        		.uleb128 0x39
 5402 0f5a 0000 0000 		.long	.LASF249
 5403 0f5e 01        		.byte	0x1
 5404 0f5f 58        		.byte	0x58
 5405 0f60 7200 0000 		.long	0x72
 5406 0f64 05        		.byte	0x5
 5407 0f65 03        		.byte	0x3
 5408 0f66 0000 0000 		.long	_bufferIndex
 5409 0f6a 39        		.uleb128 0x39
 5410 0f6b 0000 0000 		.long	.LASF250
 5411 0f6f 01        		.byte	0x1
 5412 0f70 59        		.byte	0x59
 5413 0f71 6B00 0000 		.long	0x6b
 5414 0f75 05        		.byte	0x5
 5415 0f76 03        		.byte	0x3
 5416 0f77 0000 0000 		.long	_editCount
 5417 0f7b 39        		.uleb128 0x39
 5418 0f7c 0000 0000 		.long	.LASF251
 5419 0f80 01        		.byte	0x1
 5420 0f81 5A        		.byte	0x5a
 5421 0f82 7200 0000 		.long	0x72
GAS LISTING C:\Users\ADMINI~1\AppData\Local\Temp/ccYJNKdD.s 			page 98


 5422 0f86 05        		.byte	0x5
 5423 0f87 03        		.byte	0x3
 5424 0f88 0000 0000 		.long	_isWorkingForEmpty
 5425 0f8c 39        		.uleb128 0x39
 5426 0f8d 0000 0000 		.long	.LASF252
 5427 0f91 01        		.byte	0x1
 5428 0f92 5E        		.byte	0x5e
 5429 0f93 7200 0000 		.long	0x72
 5430 0f97 05        		.byte	0x5
 5431 0f98 03        		.byte	0x3
 5432 0f99 0000 0000 		.long	_currentLayer
 5433 0f9d 39        		.uleb128 0x39
 5434 0f9e 0000 0000 		.long	.LASF253
 5435 0fa2 01        		.byte	0x1
 5436 0fa3 5F        		.byte	0x5f
 5437 0fa4 7200 0000 		.long	0x72
 5438 0fa8 05        		.byte	0x5
 5439 0fa9 03        		.byte	0x3
 5440 0faa 0000 0000 		.long	_currentLayerAfter
 5441 0fae 29        		.uleb128 0x29
 5442 0faf 7200 0000 		.long	0x72
 5443 0fb3 BE0F 0000 		.long	0xfbe
 5444 0fb7 2A        		.uleb128 0x2a
 5445 0fb8 F807 0000 		.long	0x7f8
 5446 0fbc 0A        		.byte	0xa
 5447 0fbd 00        		.byte	0x0
 5448 0fbe 39        		.uleb128 0x39
 5449 0fbf 0000 0000 		.long	.LASF254
 5450 0fc3 01        		.byte	0x1
 5451 0fc4 62        		.byte	0x62
 5452 0fc5 AE0F 0000 		.long	0xfae
 5453 0fc9 05        		.byte	0x5
 5454 0fca 03        		.byte	0x3
 5455 0fcb 0000 0000 		.long	usingKeys
 5456 0fcf 26        		.uleb128 0x26
 5457 0fd0 0000 0000 		.long	.LASF255
 5458 0fd4 01        		.byte	0x1
 5459 0fd5 8E02      		.word	0x28e
 5460 0fd7 7200 0000 		.long	0x72
 5461 0fdb 05        		.byte	0x5
 5462 0fdc 03        		.byte	0x3
 5463 0fdd 0000 0000 		.long	_macroDownCount
 5464 0fe1 3A        		.uleb128 0x3a
 5465 0fe2 0000 0000 		.long	.LASF256
 5466 0fe6 07        		.byte	0x7
 5467 0fe7 3B        		.byte	0x3b
 5468 0fe8 7200 0000 		.long	0x72
 5469 0fec 01        		.byte	0x1
 5470 0fed 01        		.byte	0x1
 5471 0fee 29        		.uleb128 0x29
 5472 0fef 7200 0000 		.long	0x72
 5473 0ff3 0A10 0000 		.long	0x100a
 5474 0ff7 2A        		.uleb128 0x2a
 5475 0ff8 F807 0000 		.long	0x7f8
 5476 0ffc 02        		.byte	0x2
 5477 0ffd 2A        		.uleb128 0x2a
 5478 0ffe F807 0000 		.long	0x7f8
GAS LISTING C:\Users\ADMINI~1\AppData\Local\Temp/ccYJNKdD.s 			page 99


 5479 1002 10        		.byte	0x10
 5480 1003 2A        		.uleb128 0x2a
 5481 1004 F807 0000 		.long	0x7f8
 5482 1008 07        		.byte	0x7
 5483 1009 00        		.byte	0x0
 5484 100a 3A        		.uleb128 0x3a
 5485 100b 0000 0000 		.long	.LASF257
 5486 100f 05        		.byte	0x5
 5487 1010 E5        		.byte	0xe5
 5488 1011 1710 0000 		.long	0x1017
 5489 1015 01        		.byte	0x1
 5490 1016 01        		.byte	0x1
 5491 1017 28        		.uleb128 0x28
 5492 1018 EE0F 0000 		.long	0xfee
 5493 101c 29        		.uleb128 0x29
 5494 101d 6400 0000 		.long	0x64
 5495 1021 2C10 0000 		.long	0x102c
 5496 1025 2A        		.uleb128 0x2a
 5497 1026 F807 0000 		.long	0x7f8
 5498 102a 0B        		.byte	0xb
 5499 102b 00        		.byte	0x0
 5500 102c 3B        		.uleb128 0x3b
 5501 102d 0000 0000 		.long	.LASF258
 5502 1031 01        		.byte	0x1
 5503 1032 1A        		.byte	0x1a
 5504 1033 3E10 0000 		.long	0x103e
 5505 1037 01        		.byte	0x1
 5506 1038 05        		.byte	0x5
 5507 1039 03        		.byte	0x3
 5508 103a 0000 0000 		.long	str_select_mode
 5509 103e 28        		.uleb128 0x28
 5510 103f 1C10 0000 		.long	0x101c
 5511 1043 29        		.uleb128 0x29
 5512 1044 6400 0000 		.long	0x64
 5513 1048 5310 0000 		.long	0x1053
 5514 104c 2A        		.uleb128 0x2a
 5515 104d F807 0000 		.long	0x7f8
 5516 1051 0D        		.byte	0xd
 5517 1052 00        		.byte	0x0
 5518 1053 3B        		.uleb128 0x3b
 5519 1054 0000 0000 		.long	.LASF259
 5520 1058 01        		.byte	0x1
 5521 1059 1B        		.byte	0x1b
 5522 105a 6510 0000 		.long	0x1065
 5523 105e 01        		.byte	0x1
 5524 105f 05        		.byte	0x5
 5525 1060 03        		.byte	0x3
 5526 1061 0000 0000 		.long	str_select_mode1
 5527 1065 28        		.uleb128 0x28
 5528 1066 4310 0000 		.long	0x1043
 5529 106a 29        		.uleb128 0x29
 5530 106b 6400 0000 		.long	0x64
 5531 106f 7A10 0000 		.long	0x107a
 5532 1073 2A        		.uleb128 0x2a
 5533 1074 F807 0000 		.long	0x7f8
 5534 1078 07        		.byte	0x7
 5535 1079 00        		.byte	0x0
GAS LISTING C:\Users\ADMINI~1\AppData\Local\Temp/ccYJNKdD.s 			page 100


 5536 107a 3B        		.uleb128 0x3b
 5537 107b 0000 0000 		.long	.LASF260
 5538 107f 01        		.byte	0x1
 5539 1080 1C        		.byte	0x1c
 5540 1081 8C10 0000 		.long	0x108c
 5541 1085 01        		.byte	0x1
 5542 1086 05        		.byte	0x5
 5543 1087 03        		.byte	0x3
 5544 1088 0000 0000 		.long	str_select_mode2
 5545 108c 28        		.uleb128 0x28
 5546 108d 6A10 0000 		.long	0x106a
 5547 1091 29        		.uleb128 0x29
 5548 1092 6400 0000 		.long	0x64
 5549 1096 A110 0000 		.long	0x10a1
 5550 109a 2A        		.uleb128 0x2a
 5551 109b F807 0000 		.long	0x7f8
 5552 109f 06        		.byte	0x6
 5553 10a0 00        		.byte	0x0
 5554 10a1 3B        		.uleb128 0x3b
 5555 10a2 0000 0000 		.long	.LASF261
 5556 10a6 01        		.byte	0x1
 5557 10a7 1D        		.byte	0x1d
 5558 10a8 B310 0000 		.long	0x10b3
 5559 10ac 01        		.byte	0x1
 5560 10ad 05        		.byte	0x5
 5561 10ae 03        		.byte	0x3
 5562 10af 0000 0000 		.long	str_select_mode3
 5563 10b3 28        		.uleb128 0x28
 5564 10b4 9110 0000 		.long	0x1091
 5565 10b8 29        		.uleb128 0x29
 5566 10b9 6400 0000 		.long	0x64
 5567 10bd C810 0000 		.long	0x10c8
 5568 10c1 2A        		.uleb128 0x2a
 5569 10c2 F807 0000 		.long	0x7f8
 5570 10c6 09        		.byte	0x9
 5571 10c7 00        		.byte	0x0
 5572 10c8 3B        		.uleb128 0x3b
 5573 10c9 0000 0000 		.long	.LASF262
 5574 10cd 01        		.byte	0x1
 5575 10ce 1E        		.byte	0x1e
 5576 10cf DA10 0000 		.long	0x10da
 5577 10d3 01        		.byte	0x1
 5578 10d4 05        		.byte	0x5
 5579 10d5 03        		.byte	0x3
 5580 10d6 0000 0000 		.long	str_exit
 5581 10da 28        		.uleb128 0x28
 5582 10db B810 0000 		.long	0x10b8
 5583 10df 29        		.uleb128 0x29
 5584 10e0 6400 0000 		.long	0x64
 5585 10e4 EF10 0000 		.long	0x10ef
 5586 10e8 2A        		.uleb128 0x2a
 5587 10e9 F807 0000 		.long	0x7f8
 5588 10ed 05        		.byte	0x5
 5589 10ee 00        		.byte	0x0
 5590 10ef 3B        		.uleb128 0x3b
 5591 10f0 0000 0000 		.long	.LASF263
 5592 10f4 01        		.byte	0x1
GAS LISTING C:\Users\ADMINI~1\AppData\Local\Temp/ccYJNKdD.s 			page 101


 5593 10f5 20        		.byte	0x20
 5594 10f6 0111 0000 		.long	0x1101
 5595 10fa 01        		.byte	0x1
 5596 10fb 05        		.byte	0x5
 5597 10fc 03        		.byte	0x3
 5598 10fd 0000 0000 		.long	str_macro_message
 5599 1101 28        		.uleb128 0x28
 5600 1102 DF10 0000 		.long	0x10df
 5601 1106 29        		.uleb128 0x29
 5602 1107 6400 0000 		.long	0x64
 5603 110b 1611 0000 		.long	0x1116
 5604 110f 2A        		.uleb128 0x2a
 5605 1110 F807 0000 		.long	0x7f8
 5606 1114 14        		.byte	0x14
 5607 1115 00        		.byte	0x0
 5608 1116 3B        		.uleb128 0x3b
 5609 1117 0000 0000 		.long	.LASF264
 5610 111b 01        		.byte	0x1
 5611 111c 21        		.byte	0x21
 5612 111d 2811 0000 		.long	0x1128
 5613 1121 01        		.byte	0x1
 5614 1122 05        		.byte	0x5
 5615 1123 03        		.byte	0x3
 5616 1124 0000 0000 		.long	str_macro_1
 5617 1128 28        		.uleb128 0x28
 5618 1129 0611 0000 		.long	0x1106
 5619 112d 3B        		.uleb128 0x3b
 5620 112e 0000 0000 		.long	.LASF265
 5621 1132 01        		.byte	0x1
 5622 1133 22        		.byte	0x22
 5623 1134 3F11 0000 		.long	0x113f
 5624 1138 01        		.byte	0x1
 5625 1139 05        		.byte	0x5
 5626 113a 03        		.byte	0x3
 5627 113b 0000 0000 		.long	str_macro_2
 5628 113f 28        		.uleb128 0x28
 5629 1140 9110 0000 		.long	0x1091
 5630 1144 3B        		.uleb128 0x3b
 5631 1145 0000 0000 		.long	.LASF266
 5632 1149 01        		.byte	0x1
 5633 114a 23        		.byte	0x23
 5634 114b 5611 0000 		.long	0x1156
 5635 114f 01        		.byte	0x1
 5636 1150 05        		.byte	0x5
 5637 1151 03        		.byte	0x3
 5638 1152 0000 0000 		.long	str_macro_9
 5639 1156 28        		.uleb128 0x28
 5640 1157 1C10 0000 		.long	0x101c
 5641 115b 3B        		.uleb128 0x3b
 5642 115c 0000 0000 		.long	.LASF267
 5643 1160 01        		.byte	0x1
 5644 1161 25        		.byte	0x25
 5645 1162 6D11 0000 		.long	0x116d
 5646 1166 01        		.byte	0x1
 5647 1167 05        		.byte	0x5
 5648 1168 03        		.byte	0x3
 5649 1169 0000 0000 		.long	str_back_6
GAS LISTING C:\Users\ADMINI~1\AppData\Local\Temp/ccYJNKdD.s 			page 102


 5650 116d 28        		.uleb128 0x28
 5651 116e 9110 0000 		.long	0x1091
 5652 1172 29        		.uleb128 0x29
 5653 1173 6400 0000 		.long	0x64
 5654 1177 8211 0000 		.long	0x1182
 5655 117b 2A        		.uleb128 0x2a
 5656 117c F807 0000 		.long	0x7f8
 5657 1180 0A        		.byte	0xa
 5658 1181 00        		.byte	0x0
 5659 1182 3B        		.uleb128 0x3b
 5660 1183 0000 0000 		.long	.LASF268
 5661 1187 01        		.byte	0x1
 5662 1188 27        		.byte	0x27
 5663 1189 9411 0000 		.long	0x1194
 5664 118d 01        		.byte	0x1
 5665 118e 05        		.byte	0x5
 5666 118f 03        		.byte	0x3
 5667 1190 0000 0000 		.long	str_mapper_message
 5668 1194 28        		.uleb128 0x28
 5669 1195 7211 0000 		.long	0x1172
 5670 1199 29        		.uleb128 0x29
 5671 119a 6400 0000 		.long	0x64
 5672 119e A911 0000 		.long	0x11a9
 5673 11a2 2A        		.uleb128 0x2a
 5674 11a3 F807 0000 		.long	0x7f8
 5675 11a7 0E        		.byte	0xe
 5676 11a8 00        		.byte	0x0
 5677 11a9 3B        		.uleb128 0x3b
 5678 11aa 0000 0000 		.long	.LASF269
 5679 11ae 01        		.byte	0x1
 5680 11af 28        		.byte	0x28
 5681 11b0 BB11 0000 		.long	0x11bb
 5682 11b4 01        		.byte	0x1
 5683 11b5 05        		.byte	0x5
 5684 11b6 03        		.byte	0x3
 5685 11b7 0000 0000 		.long	str_mapper_1
 5686 11bb 28        		.uleb128 0x28
 5687 11bc 9911 0000 		.long	0x1199
 5688 11c0 29        		.uleb128 0x29
 5689 11c1 6400 0000 		.long	0x64
 5690 11c5 D011 0000 		.long	0x11d0
 5691 11c9 2A        		.uleb128 0x2a
 5692 11ca F807 0000 		.long	0x7f8
 5693 11ce 1C        		.byte	0x1c
 5694 11cf 00        		.byte	0x0
 5695 11d0 3B        		.uleb128 0x3b
 5696 11d1 0000 0000 		.long	.LASF270
 5697 11d5 01        		.byte	0x1
 5698 11d6 29        		.byte	0x29
 5699 11d7 E211 0000 		.long	0x11e2
 5700 11db 01        		.byte	0x1
 5701 11dc 05        		.byte	0x5
 5702 11dd 03        		.byte	0x3
 5703 11de 0000 0000 		.long	str_mapper_2
 5704 11e2 28        		.uleb128 0x28
 5705 11e3 C011 0000 		.long	0x11c0
 5706 11e7 29        		.uleb128 0x29
GAS LISTING C:\Users\ADMINI~1\AppData\Local\Temp/ccYJNKdD.s 			page 103


 5707 11e8 6400 0000 		.long	0x64
 5708 11ec F711 0000 		.long	0x11f7
 5709 11f0 2A        		.uleb128 0x2a
 5710 11f1 F807 0000 		.long	0x7f8
 5711 11f5 0F        		.byte	0xf
 5712 11f6 00        		.byte	0x0
 5713 11f7 3B        		.uleb128 0x3b
 5714 11f8 0000 0000 		.long	.LASF271
 5715 11fc 01        		.byte	0x1
 5716 11fd 2A        		.byte	0x2a
 5717 11fe 0912 0000 		.long	0x1209
 5718 1202 01        		.byte	0x1
 5719 1203 05        		.byte	0x5
 5720 1204 03        		.byte	0x3
 5721 1205 0000 0000 		.long	str_mapper_3
 5722 1209 28        		.uleb128 0x28
 5723 120a E711 0000 		.long	0x11e7
 5724 120e 29        		.uleb128 0x29
 5725 120f 6400 0000 		.long	0x64
 5726 1213 1E12 0000 		.long	0x121e
 5727 1217 2A        		.uleb128 0x2a
 5728 1218 F807 0000 		.long	0x7f8
 5729 121c 15        		.byte	0x15
 5730 121d 00        		.byte	0x0
 5731 121e 3B        		.uleb128 0x3b
 5732 121f 0000 0000 		.long	.LASF272
 5733 1223 01        		.byte	0x1
 5734 1224 2B        		.byte	0x2b
 5735 1225 3012 0000 		.long	0x1230
 5736 1229 01        		.byte	0x1
 5737 122a 05        		.byte	0x5
 5738 122b 03        		.byte	0x3
 5739 122c 0000 0000 		.long	str_mapper_4
 5740 1230 28        		.uleb128 0x28
 5741 1231 0E12 0000 		.long	0x120e
 5742 1235 29        		.uleb128 0x29
 5743 1236 6400 0000 		.long	0x64
 5744 123a 4512 0000 		.long	0x1245
 5745 123e 2A        		.uleb128 0x2a
 5746 123f F807 0000 		.long	0x7f8
 5747 1243 22        		.byte	0x22
 5748 1244 00        		.byte	0x0
 5749 1245 3B        		.uleb128 0x3b
 5750 1246 0000 0000 		.long	.LASF273
 5751 124a 01        		.byte	0x1
 5752 124b 2C        		.byte	0x2c
 5753 124c 5712 0000 		.long	0x1257
 5754 1250 01        		.byte	0x1
 5755 1251 05        		.byte	0x5
 5756 1252 03        		.byte	0x3
 5757 1253 0000 0000 		.long	str_mapper_9
 5758 1257 28        		.uleb128 0x28
 5759 1258 3512 0000 		.long	0x1235
 5760 125c 3B        		.uleb128 0x3b
 5761 125d 0000 0000 		.long	.LASF274
 5762 1261 01        		.byte	0x1
 5763 1262 2E        		.byte	0x2e
GAS LISTING C:\Users\ADMINI~1\AppData\Local\Temp/ccYJNKdD.s 			page 104


 5764 1263 6E12 0000 		.long	0x126e
 5765 1267 01        		.byte	0x1
 5766 1268 05        		.byte	0x5
 5767 1269 03        		.byte	0x3
 5768 126a 0000 0000 		.long	str_prepare_message
 5769 126e 28        		.uleb128 0x28
 5770 126f 6A10 0000 		.long	0x106a
 5771 1273 29        		.uleb128 0x29
 5772 1274 6400 0000 		.long	0x64
 5773 1278 8312 0000 		.long	0x1283
 5774 127c 2A        		.uleb128 0x2a
 5775 127d F807 0000 		.long	0x7f8
 5776 1281 31        		.byte	0x31
 5777 1282 00        		.byte	0x0
 5778 1283 3B        		.uleb128 0x3b
 5779 1284 0000 0000 		.long	.LASF275
 5780 1288 01        		.byte	0x1
 5781 1289 2F        		.byte	0x2f
 5782 128a 9512 0000 		.long	0x1295
 5783 128e 01        		.byte	0x1
 5784 128f 05        		.byte	0x5
 5785 1290 03        		.byte	0x3
 5786 1291 0000 0000 		.long	str_choose_layer
 5787 1295 28        		.uleb128 0x28
 5788 1296 7312 0000 		.long	0x1273
 5789 129a 29        		.uleb128 0x29
 5790 129b 6400 0000 		.long	0x64
 5791 129f AA12 0000 		.long	0x12aa
 5792 12a3 2A        		.uleb128 0x2a
 5793 12a4 F807 0000 		.long	0x7f8
 5794 12a8 1E        		.byte	0x1e
 5795 12a9 00        		.byte	0x0
 5796 12aa 3B        		.uleb128 0x3b
 5797 12ab 0000 0000 		.long	.LASF276
 5798 12af 01        		.byte	0x1
 5799 12b0 30        		.byte	0x30
 5800 12b1 BC12 0000 		.long	0x12bc
 5801 12b5 01        		.byte	0x1
 5802 12b6 05        		.byte	0x5
 5803 12b7 03        		.byte	0x3
 5804 12b8 0000 0000 		.long	str_choose_key
 5805 12bc 28        		.uleb128 0x28
 5806 12bd 9A12 0000 		.long	0x129a
 5807 12c1 29        		.uleb128 0x29
 5808 12c2 6400 0000 		.long	0x64
 5809 12c6 D112 0000 		.long	0x12d1
 5810 12ca 2A        		.uleb128 0x2a
 5811 12cb F807 0000 		.long	0x7f8
 5812 12cf 21        		.byte	0x21
 5813 12d0 00        		.byte	0x0
 5814 12d1 3B        		.uleb128 0x3b
 5815 12d2 0000 0000 		.long	.LASF277
 5816 12d6 01        		.byte	0x1
 5817 12d7 31        		.byte	0x31
 5818 12d8 E312 0000 		.long	0x12e3
 5819 12dc 01        		.byte	0x1
 5820 12dd 05        		.byte	0x5
GAS LISTING C:\Users\ADMINI~1\AppData\Local\Temp/ccYJNKdD.s 			page 105


 5821 12de 03        		.byte	0x3
 5822 12df 0000 0000 		.long	str_input_keycode
 5823 12e3 28        		.uleb128 0x28
 5824 12e4 C112 0000 		.long	0x12c1
 5825 12e8 29        		.uleb128 0x29
 5826 12e9 6400 0000 		.long	0x64
 5827 12ed F812 0000 		.long	0x12f8
 5828 12f1 2A        		.uleb128 0x2a
 5829 12f2 F807 0000 		.long	0x7f8
 5830 12f6 17        		.byte	0x17
 5831 12f7 00        		.byte	0x0
 5832 12f8 3B        		.uleb128 0x3b
 5833 12f9 0000 0000 		.long	.LASF278
 5834 12fd 01        		.byte	0x1
 5835 12fe 32        		.byte	0x32
 5836 12ff 0A13 0000 		.long	0x130a
 5837 1303 01        		.byte	0x1
 5838 1304 05        		.byte	0x5
 5839 1305 03        		.byte	0x3
 5840 1306 0000 0000 		.long	str_save_end_mapping
 5841 130a 28        		.uleb128 0x28
 5842 130b E812 0000 		.long	0x12e8
 5843 130f 29        		.uleb128 0x29
 5844 1310 6400 0000 		.long	0x64
 5845 1314 1F13 0000 		.long	0x131f
 5846 1318 2A        		.uleb128 0x2a
 5847 1319 F807 0000 		.long	0x7f8
 5848 131d 23        		.byte	0x23
 5849 131e 00        		.byte	0x0
 5850 131f 3B        		.uleb128 0x3b
 5851 1320 0000 0000 		.long	.LASF279
 5852 1324 01        		.byte	0x1
 5853 1325 33        		.byte	0x33
 5854 1326 3113 0000 		.long	0x1331
 5855 132a 01        		.byte	0x1
 5856 132b 05        		.byte	0x5
 5857 132c 03        		.byte	0x3
 5858 132d 0000 0000 		.long	str_cancel_mapping
 5859 1331 28        		.uleb128 0x28
 5860 1332 0F13 0000 		.long	0x130f
 5861 1336 3B        		.uleb128 0x3b
 5862 1337 0000 0000 		.long	.LASF280
 5863 133b 01        		.byte	0x1
 5864 133c 34        		.byte	0x34
 5865 133d 4813 0000 		.long	0x1348
 5866 1341 01        		.byte	0x1
 5867 1342 05        		.byte	0x5
 5868 1343 03        		.byte	0x3
 5869 1344 0000 0000 		.long	str_reset_mapping
 5870 1348 28        		.uleb128 0x28
 5871 1349 9A12 0000 		.long	0x129a
 5872 134d 29        		.uleb128 0x29
 5873 134e 6400 0000 		.long	0x64
 5874 1352 5D13 0000 		.long	0x135d
 5875 1356 2A        		.uleb128 0x2a
 5876 1357 F807 0000 		.long	0x7f8
 5877 135b 16        		.byte	0x16
GAS LISTING C:\Users\ADMINI~1\AppData\Local\Temp/ccYJNKdD.s 			page 106


 5878 135c 00        		.byte	0x0
 5879 135d 3B        		.uleb128 0x3b
 5880 135e 0000 0000 		.long	.LASF281
 5881 1362 01        		.byte	0x1
 5882 1363 35        		.byte	0x35
 5883 1364 6F13 0000 		.long	0x136f
 5884 1368 01        		.byte	0x1
 5885 1369 05        		.byte	0x5
 5886 136a 03        		.byte	0x3
 5887 136b 0000 0000 		.long	str_input_command
 5888 136f 28        		.uleb128 0x28
 5889 1370 4D13 0000 		.long	0x134d
 5890 1374 3B        		.uleb128 0x3b
 5891 1375 0000 0000 		.long	.LASF282
 5892 1379 01        		.byte	0x1
 5893 137a 36        		.byte	0x36
 5894 137b 8613 0000 		.long	0x1386
 5895 137f 01        		.byte	0x1
 5896 1380 05        		.byte	0x5
 5897 1381 03        		.byte	0x3
 5898 1382 0000 0000 		.long	str_nothing
 5899 1386 28        		.uleb128 0x28
 5900 1387 6A10 0000 		.long	0x106a
 5901 138b 29        		.uleb128 0x29
 5902 138c 6400 0000 		.long	0x64
 5903 1390 9B13 0000 		.long	0x139b
 5904 1394 2A        		.uleb128 0x2a
 5905 1395 F807 0000 		.long	0x7f8
 5906 1399 12        		.byte	0x12
 5907 139a 00        		.byte	0x0
 5908 139b 3B        		.uleb128 0x3b
 5909 139c 0000 0000 		.long	.LASF283
 5910 13a0 01        		.byte	0x1
 5911 13a1 37        		.byte	0x37
 5912 13a2 AD13 0000 		.long	0x13ad
 5913 13a6 01        		.byte	0x1
 5914 13a7 05        		.byte	0x5
 5915 13a8 03        		.byte	0x3
 5916 13a9 0000 0000 		.long	str_save_layer
 5917 13ad 28        		.uleb128 0x28
 5918 13ae 8B13 0000 		.long	0x138b
 5919 13b2 3B        		.uleb128 0x3b
 5920 13b3 0000 0000 		.long	.LASF284
 5921 13b7 01        		.byte	0x1
 5922 13b8 38        		.byte	0x38
 5923 13b9 C413 0000 		.long	0x13c4
 5924 13bd 01        		.byte	0x1
 5925 13be 05        		.byte	0x5
 5926 13bf 03        		.byte	0x3
 5927 13c0 0000 0000 		.long	str_load_layer
 5928 13c4 28        		.uleb128 0x28
 5929 13c5 8B13 0000 		.long	0x138b
 5930 13c9 3B        		.uleb128 0x3b
 5931 13ca 0000 0000 		.long	.LASF285
 5932 13ce 01        		.byte	0x1
 5933 13cf 39        		.byte	0x39
 5934 13d0 DB13 0000 		.long	0x13db
GAS LISTING C:\Users\ADMINI~1\AppData\Local\Temp/ccYJNKdD.s 			page 107


 5935 13d4 01        		.byte	0x1
 5936 13d5 05        		.byte	0x5
 5937 13d6 03        		.byte	0x3
 5938 13d7 0000 0000 		.long	str_saving
 5939 13db 28        		.uleb128 0x28
 5940 13dc B810 0000 		.long	0x10b8
 5941 13e0 3B        		.uleb128 0x3b
 5942 13e1 0000 0000 		.long	.LASF286
 5943 13e5 01        		.byte	0x1
 5944 13e6 3A        		.byte	0x3a
 5945 13e7 F213 0000 		.long	0x13f2
 5946 13eb 01        		.byte	0x1
 5947 13ec 05        		.byte	0x5
 5948 13ed 03        		.byte	0x3
 5949 13ee 0000 0000 		.long	str_col_row
 5950 13f2 28        		.uleb128 0x28
 5951 13f3 1C10 0000 		.long	0x101c
 5952 13f7 29        		.uleb128 0x29
 5953 13f8 6400 0000 		.long	0x64
 5954 13fc 0714 0000 		.long	0x1407
 5955 1400 2A        		.uleb128 0x2a
 5956 1401 F807 0000 		.long	0x7f8
 5957 1405 1D        		.byte	0x1d
 5958 1406 00        		.byte	0x0
 5959 1407 3B        		.uleb128 0x3b
 5960 1408 0000 0000 		.long	.LASF287
 5961 140c 01        		.byte	0x1
 5962 140d 3B        		.byte	0x3b
 5963 140e 1914 0000 		.long	0x1419
 5964 1412 01        		.byte	0x1
 5965 1413 05        		.byte	0x5
 5966 1414 03        		.byte	0x3
 5967 1415 0000 0000 		.long	str_invalid_keycode
 5968 1419 28        		.uleb128 0x28
 5969 141a F713 0000 		.long	0x13f7
 5970 141e 29        		.uleb128 0x29
 5971 141f 6400 0000 		.long	0x64
 5972 1423 2E14 0000 		.long	0x142e
 5973 1427 2A        		.uleb128 0x2a
 5974 1428 F807 0000 		.long	0x7f8
 5975 142c 2C        		.byte	0x2c
 5976 142d 00        		.byte	0x0
 5977 142e 3B        		.uleb128 0x3b
 5978 142f 0000 0000 		.long	.LASF288
 5979 1433 01        		.byte	0x1
 5980 1434 3D        		.byte	0x3d
 5981 1435 4014 0000 		.long	0x1440
 5982 1439 01        		.byte	0x1
 5983 143a 05        		.byte	0x5
 5984 143b 03        		.byte	0x3
 5985 143c 0000 0000 		.long	str_select_number
 5986 1440 28        		.uleb128 0x28
 5987 1441 1E14 0000 		.long	0x141e
 5988 1445 29        		.uleb128 0x29
 5989 1446 6400 0000 		.long	0x64
 5990 144a 5514 0000 		.long	0x1455
 5991 144e 2A        		.uleb128 0x2a
GAS LISTING C:\Users\ADMINI~1\AppData\Local\Temp/ccYJNKdD.s 			page 108


 5992 144f F807 0000 		.long	0x7f8
 5993 1453 1A        		.byte	0x1a
 5994 1454 00        		.byte	0x0
 5995 1455 3B        		.uleb128 0x3b
 5996 1456 0000 0000 		.long	.LASF289
 5997 145a 01        		.byte	0x1
 5998 145b 3E        		.byte	0x3e
 5999 145c 6714 0000 		.long	0x1467
 6000 1460 01        		.byte	0x1
 6001 1461 05        		.byte	0x5
 6002 1462 03        		.byte	0x3
 6003 1463 0000 0000 		.long	str_exit_macro
 6004 1467 28        		.uleb128 0x28
 6005 1468 4514 0000 		.long	0x1445
 6006 146c 29        		.uleb128 0x29
 6007 146d 6400 0000 		.long	0x64
 6008 1471 7C14 0000 		.long	0x147c
 6009 1475 2A        		.uleb128 0x2a
 6010 1476 F807 0000 		.long	0x7f8
 6011 147a 36        		.byte	0x36
 6012 147b 00        		.byte	0x0
 6013 147c 3B        		.uleb128 0x3b
 6014 147d 0000 0000 		.long	.LASF290
 6015 1481 01        		.byte	0x1
 6016 1482 3F        		.byte	0x3f
 6017 1483 8E14 0000 		.long	0x148e
 6018 1487 01        		.byte	0x1
 6019 1488 05        		.byte	0x5
 6020 1489 03        		.byte	0x3
 6021 148a 0000 0000 		.long	str_input_macro
 6022 148e 28        		.uleb128 0x28
 6023 148f 6C14 0000 		.long	0x146c
 6024 1493 29        		.uleb128 0x29
 6025 1494 6400 0000 		.long	0x64
 6026 1498 A314 0000 		.long	0x14a3
 6027 149c 2A        		.uleb128 0x2a
 6028 149d F807 0000 		.long	0x7f8
 6029 14a1 1B        		.byte	0x1b
 6030 14a2 00        		.byte	0x0
 6031 14a3 3B        		.uleb128 0x3b
 6032 14a4 0000 0000 		.long	.LASF291
 6033 14a8 01        		.byte	0x1
 6034 14a9 40        		.byte	0x40
 6035 14aa B514 0000 		.long	0x14b5
 6036 14ae 01        		.byte	0x1
 6037 14af 05        		.byte	0x5
 6038 14b0 03        		.byte	0x3
 6039 14b1 0000 0000 		.long	str_invalid_macro_number
 6040 14b5 28        		.uleb128 0x28
 6041 14b6 9314 0000 		.long	0x1493
 6042 14ba 29        		.uleb128 0x29
 6043 14bb 6400 0000 		.long	0x64
 6044 14bf CA14 0000 		.long	0x14ca
 6045 14c3 2A        		.uleb128 0x2a
 6046 14c4 F807 0000 		.long	0x7f8
 6047 14c8 08        		.byte	0x8
 6048 14c9 00        		.byte	0x0
GAS LISTING C:\Users\ADMINI~1\AppData\Local\Temp/ccYJNKdD.s 			page 109


 6049 14ca 3B        		.uleb128 0x3b
 6050 14cb 0000 0000 		.long	.LASF292
 6051 14cf 01        		.byte	0x1
 6052 14d0 41        		.byte	0x41
 6053 14d1 DC14 0000 		.long	0x14dc
 6054 14d5 01        		.byte	0x1
 6055 14d6 05        		.byte	0x5
 6056 14d7 03        		.byte	0x3
 6057 14d8 0000 0000 		.long	str_clear_all_macro
 6058 14dc 28        		.uleb128 0x28
 6059 14dd BA14 0000 		.long	0x14ba
 6060 14e1 3B        		.uleb128 0x3b
 6061 14e2 0000 0000 		.long	.LASF293
 6062 14e6 01        		.byte	0x1
 6063 14e7 4A        		.byte	0x4a
 6064 14e8 7200 0000 		.long	0x72
 6065 14ec 01        		.byte	0x1
 6066 14ed 05        		.byte	0x5
 6067 14ee 03        		.byte	0x3
 6068 14ef 0000 0000 		.long	_macroIndex
 6069 14f3 3B        		.uleb128 0x3b
 6070 14f4 0000 0000 		.long	.LASF294
 6071 14f8 01        		.byte	0x1
 6072 14f9 4B        		.byte	0x4b
 6073 14fa 7200 0000 		.long	0x72
 6074 14fe 01        		.byte	0x1
 6075 14ff 05        		.byte	0x5
 6076 1500 03        		.byte	0x3
 6077 1501 0000 0000 		.long	_macroBufferIndex
 6078 1505 29        		.uleb128 0x29
 6079 1506 7200 0000 		.long	0x72
 6080 150a 1515 0000 		.long	0x1515
 6081 150e 2A        		.uleb128 0x2a
 6082 150f F807 0000 		.long	0x7f8
 6083 1513 17        		.byte	0x17
 6084 1514 00        		.byte	0x0
 6085 1515 3B        		.uleb128 0x3b
 6086 1516 0000 0000 		.long	.LASF295
 6087 151a 01        		.byte	0x1
 6088 151b 4C        		.byte	0x4c
 6089 151c 0515 0000 		.long	0x1505
 6090 1520 01        		.byte	0x1
 6091 1521 05        		.byte	0x5
 6092 1522 03        		.byte	0x3
 6093 1523 0000 0000 		.long	_macroPressedBuffer
 6094 1527 3B        		.uleb128 0x3b
 6095 1528 0000 0000 		.long	.LASF296
 6096 152c 01        		.byte	0x1
 6097 152d 4D        		.byte	0x4d
 6098 152e 0A0A 0000 		.long	0xa0a
 6099 1532 01        		.byte	0x1
 6100 1533 05        		.byte	0x5
 6101 1534 03        		.byte	0x3
 6102 1535 0000 0000 		.long	_macroInputBuffer
 6103 1539 3B        		.uleb128 0x3b
 6104 153a 0000 0000 		.long	.LASF297
 6105 153e 01        		.byte	0x1
GAS LISTING C:\Users\ADMINI~1\AppData\Local\Temp/ccYJNKdD.s 			page 110


 6106 153f 4E        		.byte	0x4e
 6107 1540 6B00 0000 		.long	0x6b
 6108 1544 01        		.byte	0x1
 6109 1545 05        		.byte	0x5
 6110 1546 03        		.byte	0x3
 6111 1547 0000 0000 		.long	_pressedEscapeKeyCount
 6112 154b 3B        		.uleb128 0x3b
 6113 154c 0000 0000 		.long	.LASF298
 6114 1550 01        		.byte	0x1
 6115 1551 4F        		.byte	0x4f
 6116 1552 7200 0000 		.long	0x72
 6117 1556 01        		.byte	0x1
 6118 1557 05        		.byte	0x5
 6119 1558 03        		.byte	0x3
 6120 1559 0000 0000 		.long	_isPressedEscapeKey
 6121 155d 3B        		.uleb128 0x3b
 6122 155e 0000 0000 		.long	.LASF299
 6123 1562 01        		.byte	0x1
 6124 1563 50        		.byte	0x50
 6125 1564 7200 0000 		.long	0x72
 6126 1568 01        		.byte	0x1
 6127 1569 05        		.byte	0x5
 6128 156a 03        		.byte	0x3
 6129 156b 0000 0000 		.long	_isTiredEscapeKey
 6130 156f 29        		.uleb128 0x29
 6131 1570 7200 0000 		.long	0x72
 6132 1574 8515 0000 		.long	0x1585
 6133 1578 2A        		.uleb128 0x2a
 6134 1579 F807 0000 		.long	0x7f8
 6135 157d 10        		.byte	0x10
 6136 157e 2A        		.uleb128 0x2a
 6137 157f F807 0000 		.long	0x7f8
 6138 1583 07        		.byte	0x7
 6139 1584 00        		.byte	0x0
 6140 1585 3B        		.uleb128 0x3b
 6141 1586 0000 0000 		.long	.LASF300
 6142 158a 01        		.byte	0x1
 6143 158b 5C        		.byte	0x5c
 6144 158c 6F15 0000 		.long	0x156f
 6145 1590 01        		.byte	0x1
 6146 1591 05        		.byte	0x5
 6147 1592 03        		.byte	0x3
 6148 1593 0000 0000 		.long	_newKeyMap
 6149 1597 00        		.byte	0x0
 6150               		.section	.debug_abbrev
 6151 0000 01        		.uleb128 0x1
 6152 0001 11        		.uleb128 0x11
 6153 0002 01        		.byte	0x1
 6154 0003 25        		.uleb128 0x25
 6155 0004 0E        		.uleb128 0xe
 6156 0005 13        		.uleb128 0x13
 6157 0006 0B        		.uleb128 0xb
 6158 0007 03        		.uleb128 0x3
 6159 0008 0E        		.uleb128 0xe
 6160 0009 1B        		.uleb128 0x1b
 6161 000a 0E        		.uleb128 0xe
 6162 000b 11        		.uleb128 0x11
GAS LISTING C:\Users\ADMINI~1\AppData\Local\Temp/ccYJNKdD.s 			page 111


 6163 000c 01        		.uleb128 0x1
 6164 000d 12        		.uleb128 0x12
 6165 000e 01        		.uleb128 0x1
 6166 000f 10        		.uleb128 0x10
 6167 0010 06        		.uleb128 0x6
 6168 0011 00        		.byte	0x0
 6169 0012 00        		.byte	0x0
 6170 0013 02        		.uleb128 0x2
 6171 0014 24        		.uleb128 0x24
 6172 0015 00        		.byte	0x0
 6173 0016 0B        		.uleb128 0xb
 6174 0017 0B        		.uleb128 0xb
 6175 0018 3E        		.uleb128 0x3e
 6176 0019 0B        		.uleb128 0xb
 6177 001a 03        		.uleb128 0x3
 6178 001b 0E        		.uleb128 0xe
 6179 001c 00        		.byte	0x0
 6180 001d 00        		.byte	0x0
 6181 001e 03        		.uleb128 0x3
 6182 001f 24        		.uleb128 0x24
 6183 0020 00        		.byte	0x0
 6184 0021 0B        		.uleb128 0xb
 6185 0022 0B        		.uleb128 0xb
 6186 0023 3E        		.uleb128 0x3e
 6187 0024 0B        		.uleb128 0xb
 6188 0025 03        		.uleb128 0x3
 6189 0026 08        		.uleb128 0x8
 6190 0027 00        		.byte	0x0
 6191 0028 00        		.byte	0x0
 6192 0029 04        		.uleb128 0x4
 6193 002a 16        		.uleb128 0x16
 6194 002b 00        		.byte	0x0
 6195 002c 03        		.uleb128 0x3
 6196 002d 0E        		.uleb128 0xe
 6197 002e 3A        		.uleb128 0x3a
 6198 002f 0B        		.uleb128 0xb
 6199 0030 3B        		.uleb128 0x3b
 6200 0031 0B        		.uleb128 0xb
 6201 0032 49        		.uleb128 0x49
 6202 0033 13        		.uleb128 0x13
 6203 0034 00        		.byte	0x0
 6204 0035 00        		.byte	0x0
 6205 0036 05        		.uleb128 0x5
 6206 0037 24        		.uleb128 0x24
 6207 0038 00        		.byte	0x0
 6208 0039 0B        		.uleb128 0xb
 6209 003a 0B        		.uleb128 0xb
 6210 003b 3E        		.uleb128 0x3e
 6211 003c 0B        		.uleb128 0xb
 6212 003d 00        		.byte	0x0
 6213 003e 00        		.byte	0x0
 6214 003f 06        		.uleb128 0x6
 6215 0040 0F        		.uleb128 0xf
 6216 0041 00        		.byte	0x0
 6217 0042 0B        		.uleb128 0xb
 6218 0043 0B        		.uleb128 0xb
 6219 0044 49        		.uleb128 0x49
GAS LISTING C:\Users\ADMINI~1\AppData\Local\Temp/ccYJNKdD.s 			page 112


 6220 0045 13        		.uleb128 0x13
 6221 0046 00        		.byte	0x0
 6222 0047 00        		.byte	0x0
 6223 0048 07        		.uleb128 0x7
 6224 0049 04        		.uleb128 0x4
 6225 004a 01        		.byte	0x1
 6226 004b 0B        		.uleb128 0xb
 6227 004c 0B        		.uleb128 0xb
 6228 004d 3A        		.uleb128 0x3a
 6229 004e 0B        		.uleb128 0xb
 6230 004f 3B        		.uleb128 0x3b
 6231 0050 0B        		.uleb128 0xb
 6232 0051 01        		.uleb128 0x1
 6233 0052 13        		.uleb128 0x13
 6234 0053 00        		.byte	0x0
 6235 0054 00        		.byte	0x0
 6236 0055 08        		.uleb128 0x8
 6237 0056 28        		.uleb128 0x28
 6238 0057 00        		.byte	0x0
 6239 0058 03        		.uleb128 0x3
 6240 0059 0E        		.uleb128 0xe
 6241 005a 1C        		.uleb128 0x1c
 6242 005b 0D        		.uleb128 0xd
 6243 005c 00        		.byte	0x0
 6244 005d 00        		.byte	0x0
 6245 005e 09        		.uleb128 0x9
 6246 005f 13        		.uleb128 0x13
 6247 0060 01        		.byte	0x1
 6248 0061 0B        		.uleb128 0xb
 6249 0062 0B        		.uleb128 0xb
 6250 0063 3A        		.uleb128 0x3a
 6251 0064 0B        		.uleb128 0xb
 6252 0065 3B        		.uleb128 0x3b
 6253 0066 0B        		.uleb128 0xb
 6254 0067 01        		.uleb128 0x1
 6255 0068 13        		.uleb128 0x13
 6256 0069 00        		.byte	0x0
 6257 006a 00        		.byte	0x0
 6258 006b 0A        		.uleb128 0xa
 6259 006c 0D        		.uleb128 0xd
 6260 006d 00        		.byte	0x0
 6261 006e 03        		.uleb128 0x3
 6262 006f 0E        		.uleb128 0xe
 6263 0070 3A        		.uleb128 0x3a
 6264 0071 0B        		.uleb128 0xb
 6265 0072 3B        		.uleb128 0x3b
 6266 0073 0B        		.uleb128 0xb
 6267 0074 49        		.uleb128 0x49
 6268 0075 13        		.uleb128 0x13
 6269 0076 38        		.uleb128 0x38
 6270 0077 0A        		.uleb128 0xa
 6271 0078 00        		.byte	0x0
 6272 0079 00        		.byte	0x0
 6273 007a 0B        		.uleb128 0xb
 6274 007b 16        		.uleb128 0x16
 6275 007c 00        		.byte	0x0
 6276 007d 03        		.uleb128 0x3
GAS LISTING C:\Users\ADMINI~1\AppData\Local\Temp/ccYJNKdD.s 			page 113


 6277 007e 08        		.uleb128 0x8
 6278 007f 3A        		.uleb128 0x3a
 6279 0080 0B        		.uleb128 0xb
 6280 0081 3B        		.uleb128 0x3b
 6281 0082 0B        		.uleb128 0xb
 6282 0083 49        		.uleb128 0x49
 6283 0084 13        		.uleb128 0x13
 6284 0085 00        		.byte	0x0
 6285 0086 00        		.byte	0x0
 6286 0087 0C        		.uleb128 0xc
 6287 0088 2E        		.uleb128 0x2e
 6288 0089 01        		.byte	0x1
 6289 008a 03        		.uleb128 0x3
 6290 008b 0E        		.uleb128 0xe
 6291 008c 3A        		.uleb128 0x3a
 6292 008d 0B        		.uleb128 0xb
 6293 008e 3B        		.uleb128 0x3b
 6294 008f 0B        		.uleb128 0xb
 6295 0090 27        		.uleb128 0x27
 6296 0091 0C        		.uleb128 0xc
 6297 0092 20        		.uleb128 0x20
 6298 0093 0B        		.uleb128 0xb
 6299 0094 01        		.uleb128 0x1
 6300 0095 13        		.uleb128 0x13
 6301 0096 00        		.byte	0x0
 6302 0097 00        		.byte	0x0
 6303 0098 0D        		.uleb128 0xd
 6304 0099 05        		.uleb128 0x5
 6305 009a 00        		.byte	0x0
 6306 009b 03        		.uleb128 0x3
 6307 009c 0E        		.uleb128 0xe
 6308 009d 3A        		.uleb128 0x3a
 6309 009e 0B        		.uleb128 0xb
 6310 009f 3B        		.uleb128 0x3b
 6311 00a0 0B        		.uleb128 0xb
 6312 00a1 49        		.uleb128 0x49
 6313 00a2 13        		.uleb128 0x13
 6314 00a3 00        		.byte	0x0
 6315 00a4 00        		.byte	0x0
 6316 00a5 0E        		.uleb128 0xe
 6317 00a6 2E        		.uleb128 0x2e
 6318 00a7 00        		.byte	0x0
 6319 00a8 3F        		.uleb128 0x3f
 6320 00a9 0C        		.uleb128 0xc
 6321 00aa 03        		.uleb128 0x3
 6322 00ab 0E        		.uleb128 0xe
 6323 00ac 3A        		.uleb128 0x3a
 6324 00ad 0B        		.uleb128 0xb
 6325 00ae 3B        		.uleb128 0x3b
 6326 00af 0B        		.uleb128 0xb
 6327 00b0 27        		.uleb128 0x27
 6328 00b1 0C        		.uleb128 0xc
 6329 00b2 49        		.uleb128 0x49
 6330 00b3 13        		.uleb128 0x13
 6331 00b4 20        		.uleb128 0x20
 6332 00b5 0B        		.uleb128 0xb
 6333 00b6 00        		.byte	0x0
GAS LISTING C:\Users\ADMINI~1\AppData\Local\Temp/ccYJNKdD.s 			page 114


 6334 00b7 00        		.byte	0x0
 6335 00b8 0F        		.uleb128 0xf
 6336 00b9 2E        		.uleb128 0x2e
 6337 00ba 01        		.byte	0x1
 6338 00bb 3F        		.uleb128 0x3f
 6339 00bc 0C        		.uleb128 0xc
 6340 00bd 03        		.uleb128 0x3
 6341 00be 0E        		.uleb128 0xe
 6342 00bf 3A        		.uleb128 0x3a
 6343 00c0 0B        		.uleb128 0xb
 6344 00c1 3B        		.uleb128 0x3b
 6345 00c2 05        		.uleb128 0x5
 6346 00c3 27        		.uleb128 0x27
 6347 00c4 0C        		.uleb128 0xc
 6348 00c5 49        		.uleb128 0x49
 6349 00c6 13        		.uleb128 0x13
 6350 00c7 20        		.uleb128 0x20
 6351 00c8 0B        		.uleb128 0xb
 6352 00c9 01        		.uleb128 0x1
 6353 00ca 13        		.uleb128 0x13
 6354 00cb 00        		.byte	0x0
 6355 00cc 00        		.byte	0x0
 6356 00cd 10        		.uleb128 0x10
 6357 00ce 05        		.uleb128 0x5
 6358 00cf 00        		.byte	0x0
 6359 00d0 03        		.uleb128 0x3
 6360 00d1 0E        		.uleb128 0xe
 6361 00d2 3A        		.uleb128 0x3a
 6362 00d3 0B        		.uleb128 0xb
 6363 00d4 3B        		.uleb128 0x3b
 6364 00d5 05        		.uleb128 0x5
 6365 00d6 49        		.uleb128 0x49
 6366 00d7 13        		.uleb128 0x13
 6367 00d8 00        		.byte	0x0
 6368 00d9 00        		.byte	0x0
 6369 00da 11        		.uleb128 0x11
 6370 00db 2E        		.uleb128 0x2e
 6371 00dc 00        		.byte	0x0
 6372 00dd 3F        		.uleb128 0x3f
 6373 00de 0C        		.uleb128 0xc
 6374 00df 03        		.uleb128 0x3
 6375 00e0 0E        		.uleb128 0xe
 6376 00e1 3A        		.uleb128 0x3a
 6377 00e2 0B        		.uleb128 0xb
 6378 00e3 3B        		.uleb128 0x3b
 6379 00e4 0B        		.uleb128 0xb
 6380 00e5 27        		.uleb128 0x27
 6381 00e6 0C        		.uleb128 0xc
 6382 00e7 20        		.uleb128 0x20
 6383 00e8 0B        		.uleb128 0xb
 6384 00e9 00        		.byte	0x0
 6385 00ea 00        		.byte	0x0
 6386 00eb 12        		.uleb128 0x12
 6387 00ec 34        		.uleb128 0x34
 6388 00ed 00        		.byte	0x0
 6389 00ee 03        		.uleb128 0x3
 6390 00ef 0E        		.uleb128 0xe
GAS LISTING C:\Users\ADMINI~1\AppData\Local\Temp/ccYJNKdD.s 			page 115


 6391 00f0 3A        		.uleb128 0x3a
 6392 00f1 0B        		.uleb128 0xb
 6393 00f2 3B        		.uleb128 0x3b
 6394 00f3 0B        		.uleb128 0xb
 6395 00f4 49        		.uleb128 0x49
 6396 00f5 13        		.uleb128 0x13
 6397 00f6 00        		.byte	0x0
 6398 00f7 00        		.byte	0x0
 6399 00f8 13        		.uleb128 0x13
 6400 00f9 0B        		.uleb128 0xb
 6401 00fa 00        		.byte	0x0
 6402 00fb 00        		.byte	0x0
 6403 00fc 00        		.byte	0x0
 6404 00fd 14        		.uleb128 0x14
 6405 00fe 2E        		.uleb128 0x2e
 6406 00ff 00        		.byte	0x0
 6407 0100 03        		.uleb128 0x3
 6408 0101 0E        		.uleb128 0xe
 6409 0102 3A        		.uleb128 0x3a
 6410 0103 0B        		.uleb128 0xb
 6411 0104 3B        		.uleb128 0x3b
 6412 0105 05        		.uleb128 0x5
 6413 0106 27        		.uleb128 0x27
 6414 0107 0C        		.uleb128 0xc
 6415 0108 20        		.uleb128 0x20
 6416 0109 0B        		.uleb128 0xb
 6417 010a 00        		.byte	0x0
 6418 010b 00        		.byte	0x0
 6419 010c 15        		.uleb128 0x15
 6420 010d 2E        		.uleb128 0x2e
 6421 010e 01        		.byte	0x1
 6422 010f 03        		.uleb128 0x3
 6423 0110 0E        		.uleb128 0xe
 6424 0111 3A        		.uleb128 0x3a
 6425 0112 0B        		.uleb128 0xb
 6426 0113 3B        		.uleb128 0x3b
 6427 0114 0B        		.uleb128 0xb
 6428 0115 27        		.uleb128 0x27
 6429 0116 0C        		.uleb128 0xc
 6430 0117 49        		.uleb128 0x49
 6431 0118 13        		.uleb128 0x13
 6432 0119 20        		.uleb128 0x20
 6433 011a 0B        		.uleb128 0xb
 6434 011b 01        		.uleb128 0x1
 6435 011c 13        		.uleb128 0x13
 6436 011d 00        		.byte	0x0
 6437 011e 00        		.byte	0x0
 6438 011f 16        		.uleb128 0x16
 6439 0120 0B        		.uleb128 0xb
 6440 0121 01        		.byte	0x1
 6441 0122 00        		.byte	0x0
 6442 0123 00        		.byte	0x0
 6443 0124 17        		.uleb128 0x17
 6444 0125 05        		.uleb128 0x5
 6445 0126 00        		.byte	0x0
 6446 0127 31        		.uleb128 0x31
 6447 0128 13        		.uleb128 0x13
GAS LISTING C:\Users\ADMINI~1\AppData\Local\Temp/ccYJNKdD.s 			page 116


 6448 0129 00        		.byte	0x0
 6449 012a 00        		.byte	0x0
 6450 012b 18        		.uleb128 0x18
 6451 012c 2E        		.uleb128 0x2e
 6452 012d 00        		.byte	0x0
 6453 012e 03        		.uleb128 0x3
 6454 012f 0E        		.uleb128 0xe
 6455 0130 3A        		.uleb128 0x3a
 6456 0131 0B        		.uleb128 0xb
 6457 0132 3B        		.uleb128 0x3b
 6458 0133 0B        		.uleb128 0xb
 6459 0134 27        		.uleb128 0x27
 6460 0135 0C        		.uleb128 0xc
 6461 0136 20        		.uleb128 0x20
 6462 0137 0B        		.uleb128 0xb
 6463 0138 00        		.byte	0x0
 6464 0139 00        		.byte	0x0
 6465 013a 19        		.uleb128 0x19
 6466 013b 2E        		.uleb128 0x2e
 6467 013c 00        		.byte	0x0
 6468 013d 31        		.uleb128 0x31
 6469 013e 13        		.uleb128 0x13
 6470 013f 11        		.uleb128 0x11
 6471 0140 01        		.uleb128 0x1
 6472 0141 12        		.uleb128 0x12
 6473 0142 01        		.uleb128 0x1
 6474 0143 40        		.uleb128 0x40
 6475 0144 0A        		.uleb128 0xa
 6476 0145 00        		.byte	0x0
 6477 0146 00        		.byte	0x0
 6478 0147 1A        		.uleb128 0x1a
 6479 0148 2E        		.uleb128 0x2e
 6480 0149 01        		.byte	0x1
 6481 014a 3F        		.uleb128 0x3f
 6482 014b 0C        		.uleb128 0xc
 6483 014c 03        		.uleb128 0x3
 6484 014d 0E        		.uleb128 0xe
 6485 014e 3A        		.uleb128 0x3a
 6486 014f 0B        		.uleb128 0xb
 6487 0150 3B        		.uleb128 0x3b
 6488 0151 0B        		.uleb128 0xb
 6489 0152 27        		.uleb128 0x27
 6490 0153 0C        		.uleb128 0xc
 6491 0154 11        		.uleb128 0x11
 6492 0155 01        		.uleb128 0x1
 6493 0156 12        		.uleb128 0x12
 6494 0157 01        		.uleb128 0x1
 6495 0158 40        		.uleb128 0x40
 6496 0159 0A        		.uleb128 0xa
 6497 015a 01        		.uleb128 0x1
 6498 015b 13        		.uleb128 0x13
 6499 015c 00        		.byte	0x0
 6500 015d 00        		.byte	0x0
 6501 015e 1B        		.uleb128 0x1b
 6502 015f 05        		.uleb128 0x5
 6503 0160 00        		.byte	0x0
 6504 0161 03        		.uleb128 0x3
GAS LISTING C:\Users\ADMINI~1\AppData\Local\Temp/ccYJNKdD.s 			page 117


 6505 0162 0E        		.uleb128 0xe
 6506 0163 3A        		.uleb128 0x3a
 6507 0164 0B        		.uleb128 0xb
 6508 0165 3B        		.uleb128 0x3b
 6509 0166 0B        		.uleb128 0xb
 6510 0167 49        		.uleb128 0x49
 6511 0168 13        		.uleb128 0x13
 6512 0169 02        		.uleb128 0x2
 6513 016a 06        		.uleb128 0x6
 6514 016b 00        		.byte	0x0
 6515 016c 00        		.byte	0x0
 6516 016d 1C        		.uleb128 0x1c
 6517 016e 2E        		.uleb128 0x2e
 6518 016f 00        		.byte	0x0
 6519 0170 3F        		.uleb128 0x3f
 6520 0171 0C        		.uleb128 0xc
 6521 0172 03        		.uleb128 0x3
 6522 0173 0E        		.uleb128 0xe
 6523 0174 3A        		.uleb128 0x3a
 6524 0175 0B        		.uleb128 0xb
 6525 0176 3B        		.uleb128 0x3b
 6526 0177 0B        		.uleb128 0xb
 6527 0178 27        		.uleb128 0x27
 6528 0179 0C        		.uleb128 0xc
 6529 017a 49        		.uleb128 0x49
 6530 017b 13        		.uleb128 0x13
 6531 017c 11        		.uleb128 0x11
 6532 017d 01        		.uleb128 0x1
 6533 017e 12        		.uleb128 0x12
 6534 017f 01        		.uleb128 0x1
 6535 0180 40        		.uleb128 0x40
 6536 0181 0A        		.uleb128 0xa
 6537 0182 00        		.byte	0x0
 6538 0183 00        		.byte	0x0
 6539 0184 1D        		.uleb128 0x1d
 6540 0185 2E        		.uleb128 0x2e
 6541 0186 00        		.byte	0x0
 6542 0187 3F        		.uleb128 0x3f
 6543 0188 0C        		.uleb128 0xc
 6544 0189 03        		.uleb128 0x3
 6545 018a 0E        		.uleb128 0xe
 6546 018b 3A        		.uleb128 0x3a
 6547 018c 0B        		.uleb128 0xb
 6548 018d 3B        		.uleb128 0x3b
 6549 018e 0B        		.uleb128 0xb
 6550 018f 27        		.uleb128 0x27
 6551 0190 0C        		.uleb128 0xc
 6552 0191 11        		.uleb128 0x11
 6553 0192 01        		.uleb128 0x1
 6554 0193 12        		.uleb128 0x12
 6555 0194 01        		.uleb128 0x1
 6556 0195 40        		.uleb128 0x40
 6557 0196 0A        		.uleb128 0xa
 6558 0197 00        		.byte	0x0
 6559 0198 00        		.byte	0x0
 6560 0199 1E        		.uleb128 0x1e
 6561 019a 2E        		.uleb128 0x2e
GAS LISTING C:\Users\ADMINI~1\AppData\Local\Temp/ccYJNKdD.s 			page 118


 6562 019b 01        		.byte	0x1
 6563 019c 31        		.uleb128 0x31
 6564 019d 13        		.uleb128 0x13
 6565 019e 11        		.uleb128 0x11
 6566 019f 01        		.uleb128 0x1
 6567 01a0 12        		.uleb128 0x12
 6568 01a1 01        		.uleb128 0x1
 6569 01a2 40        		.uleb128 0x40
 6570 01a3 0A        		.uleb128 0xa
 6571 01a4 01        		.uleb128 0x1
 6572 01a5 13        		.uleb128 0x13
 6573 01a6 00        		.byte	0x0
 6574 01a7 00        		.byte	0x0
 6575 01a8 1F        		.uleb128 0x1f
 6576 01a9 05        		.uleb128 0x5
 6577 01aa 00        		.byte	0x0
 6578 01ab 31        		.uleb128 0x31
 6579 01ac 13        		.uleb128 0x13
 6580 01ad 02        		.uleb128 0x2
 6581 01ae 06        		.uleb128 0x6
 6582 01af 00        		.byte	0x0
 6583 01b0 00        		.byte	0x0
 6584 01b1 20        		.uleb128 0x20
 6585 01b2 1D        		.uleb128 0x1d
 6586 01b3 01        		.byte	0x1
 6587 01b4 31        		.uleb128 0x31
 6588 01b5 13        		.uleb128 0x13
 6589 01b6 11        		.uleb128 0x11
 6590 01b7 01        		.uleb128 0x1
 6591 01b8 12        		.uleb128 0x12
 6592 01b9 01        		.uleb128 0x1
 6593 01ba 58        		.uleb128 0x58
 6594 01bb 0B        		.uleb128 0xb
 6595 01bc 59        		.uleb128 0x59
 6596 01bd 05        		.uleb128 0x5
 6597 01be 00        		.byte	0x0
 6598 01bf 00        		.byte	0x0
 6599 01c0 21        		.uleb128 0x21
 6600 01c1 2E        		.uleb128 0x2e
 6601 01c2 00        		.byte	0x0
 6602 01c3 03        		.uleb128 0x3
 6603 01c4 0E        		.uleb128 0xe
 6604 01c5 3A        		.uleb128 0x3a
 6605 01c6 0B        		.uleb128 0xb
 6606 01c7 3B        		.uleb128 0x3b
 6607 01c8 05        		.uleb128 0x5
 6608 01c9 27        		.uleb128 0x27
 6609 01ca 0C        		.uleb128 0xc
 6610 01cb 11        		.uleb128 0x11
 6611 01cc 01        		.uleb128 0x1
 6612 01cd 12        		.uleb128 0x12
 6613 01ce 01        		.uleb128 0x1
 6614 01cf 40        		.uleb128 0x40
 6615 01d0 0A        		.uleb128 0xa
 6616 01d1 00        		.byte	0x0
 6617 01d2 00        		.byte	0x0
 6618 01d3 22        		.uleb128 0x22
GAS LISTING C:\Users\ADMINI~1\AppData\Local\Temp/ccYJNKdD.s 			page 119


 6619 01d4 2E        		.uleb128 0x2e
 6620 01d5 00        		.byte	0x0
 6621 01d6 3F        		.uleb128 0x3f
 6622 01d7 0C        		.uleb128 0xc
 6623 01d8 03        		.uleb128 0x3
 6624 01d9 0E        		.uleb128 0xe
 6625 01da 3A        		.uleb128 0x3a
 6626 01db 0B        		.uleb128 0xb
 6627 01dc 3B        		.uleb128 0x3b
 6628 01dd 05        		.uleb128 0x5
 6629 01de 27        		.uleb128 0x27
 6630 01df 0C        		.uleb128 0xc
 6631 01e0 11        		.uleb128 0x11
 6632 01e1 01        		.uleb128 0x1
 6633 01e2 12        		.uleb128 0x12
 6634 01e3 01        		.uleb128 0x1
 6635 01e4 40        		.uleb128 0x40
 6636 01e5 0A        		.uleb128 0xa
 6637 01e6 00        		.byte	0x0
 6638 01e7 00        		.byte	0x0
 6639 01e8 23        		.uleb128 0x23
 6640 01e9 2E        		.uleb128 0x2e
 6641 01ea 01        		.byte	0x1
 6642 01eb 03        		.uleb128 0x3
 6643 01ec 0E        		.uleb128 0xe
 6644 01ed 3A        		.uleb128 0x3a
 6645 01ee 0B        		.uleb128 0xb
 6646 01ef 3B        		.uleb128 0x3b
 6647 01f0 05        		.uleb128 0x5
 6648 01f1 27        		.uleb128 0x27
 6649 01f2 0C        		.uleb128 0xc
 6650 01f3 11        		.uleb128 0x11
 6651 01f4 01        		.uleb128 0x1
 6652 01f5 12        		.uleb128 0x12
 6653 01f6 01        		.uleb128 0x1
 6654 01f7 40        		.uleb128 0x40
 6655 01f8 0A        		.uleb128 0xa
 6656 01f9 01        		.uleb128 0x1
 6657 01fa 13        		.uleb128 0x13
 6658 01fb 00        		.byte	0x0
 6659 01fc 00        		.byte	0x0
 6660 01fd 24        		.uleb128 0x24
 6661 01fe 05        		.uleb128 0x5
 6662 01ff 00        		.byte	0x0
 6663 0200 03        		.uleb128 0x3
 6664 0201 0E        		.uleb128 0xe
 6665 0202 3A        		.uleb128 0x3a
 6666 0203 0B        		.uleb128 0xb
 6667 0204 3B        		.uleb128 0x3b
 6668 0205 05        		.uleb128 0x5
 6669 0206 49        		.uleb128 0x49
 6670 0207 13        		.uleb128 0x13
 6671 0208 02        		.uleb128 0x2
 6672 0209 06        		.uleb128 0x6
 6673 020a 00        		.byte	0x0
 6674 020b 00        		.byte	0x0
 6675 020c 25        		.uleb128 0x25
GAS LISTING C:\Users\ADMINI~1\AppData\Local\Temp/ccYJNKdD.s 			page 120


 6676 020d 34        		.uleb128 0x34
 6677 020e 00        		.byte	0x0
 6678 020f 03        		.uleb128 0x3
 6679 0210 08        		.uleb128 0x8
 6680 0211 3A        		.uleb128 0x3a
 6681 0212 0B        		.uleb128 0xb
 6682 0213 3B        		.uleb128 0x3b
 6683 0214 05        		.uleb128 0x5
 6684 0215 49        		.uleb128 0x49
 6685 0216 13        		.uleb128 0x13
 6686 0217 00        		.byte	0x0
 6687 0218 00        		.byte	0x0
 6688 0219 26        		.uleb128 0x26
 6689 021a 34        		.uleb128 0x34
 6690 021b 00        		.byte	0x0
 6691 021c 03        		.uleb128 0x3
 6692 021d 0E        		.uleb128 0xe
 6693 021e 3A        		.uleb128 0x3a
 6694 021f 0B        		.uleb128 0xb
 6695 0220 3B        		.uleb128 0x3b
 6696 0221 05        		.uleb128 0x5
 6697 0222 49        		.uleb128 0x49
 6698 0223 13        		.uleb128 0x13
 6699 0224 02        		.uleb128 0x2
 6700 0225 0A        		.uleb128 0xa
 6701 0226 00        		.byte	0x0
 6702 0227 00        		.byte	0x0
 6703 0228 27        		.uleb128 0x27
 6704 0229 34        		.uleb128 0x34
 6705 022a 00        		.byte	0x0
 6706 022b 03        		.uleb128 0x3
 6707 022c 08        		.uleb128 0x8
 6708 022d 3A        		.uleb128 0x3a
 6709 022e 0B        		.uleb128 0xb
 6710 022f 3B        		.uleb128 0x3b
 6711 0230 05        		.uleb128 0x5
 6712 0231 49        		.uleb128 0x49
 6713 0232 13        		.uleb128 0x13
 6714 0233 02        		.uleb128 0x2
 6715 0234 06        		.uleb128 0x6
 6716 0235 00        		.byte	0x0
 6717 0236 00        		.byte	0x0
 6718 0237 28        		.uleb128 0x28
 6719 0238 26        		.uleb128 0x26
 6720 0239 00        		.byte	0x0
 6721 023a 49        		.uleb128 0x49
 6722 023b 13        		.uleb128 0x13
 6723 023c 00        		.byte	0x0
 6724 023d 00        		.byte	0x0
 6725 023e 29        		.uleb128 0x29
 6726 023f 01        		.uleb128 0x1
 6727 0240 01        		.byte	0x1
 6728 0241 49        		.uleb128 0x49
 6729 0242 13        		.uleb128 0x13
 6730 0243 01        		.uleb128 0x1
 6731 0244 13        		.uleb128 0x13
 6732 0245 00        		.byte	0x0
GAS LISTING C:\Users\ADMINI~1\AppData\Local\Temp/ccYJNKdD.s 			page 121


 6733 0246 00        		.byte	0x0
 6734 0247 2A        		.uleb128 0x2a
 6735 0248 21        		.uleb128 0x21
 6736 0249 00        		.byte	0x0
 6737 024a 49        		.uleb128 0x49
 6738 024b 13        		.uleb128 0x13
 6739 024c 2F        		.uleb128 0x2f
 6740 024d 0B        		.uleb128 0xb
 6741 024e 00        		.byte	0x0
 6742 024f 00        		.byte	0x0
 6743 0250 2B        		.uleb128 0x2b
 6744 0251 05        		.uleb128 0x5
 6745 0252 00        		.byte	0x0
 6746 0253 03        		.uleb128 0x3
 6747 0254 08        		.uleb128 0x8
 6748 0255 3A        		.uleb128 0x3a
 6749 0256 0B        		.uleb128 0xb
 6750 0257 3B        		.uleb128 0x3b
 6751 0258 05        		.uleb128 0x5
 6752 0259 49        		.uleb128 0x49
 6753 025a 13        		.uleb128 0x13
 6754 025b 02        		.uleb128 0x2
 6755 025c 06        		.uleb128 0x6
 6756 025d 00        		.byte	0x0
 6757 025e 00        		.byte	0x0
 6758 025f 2C        		.uleb128 0x2c
 6759 0260 0B        		.uleb128 0xb
 6760 0261 01        		.byte	0x1
 6761 0262 11        		.uleb128 0x11
 6762 0263 01        		.uleb128 0x1
 6763 0264 12        		.uleb128 0x12
 6764 0265 01        		.uleb128 0x1
 6765 0266 00        		.byte	0x0
 6766 0267 00        		.byte	0x0
 6767 0268 2D        		.uleb128 0x2d
 6768 0269 34        		.uleb128 0x34
 6769 026a 00        		.byte	0x0
 6770 026b 03        		.uleb128 0x3
 6771 026c 0E        		.uleb128 0xe
 6772 026d 3A        		.uleb128 0x3a
 6773 026e 0B        		.uleb128 0xb
 6774 026f 3B        		.uleb128 0x3b
 6775 0270 05        		.uleb128 0x5
 6776 0271 49        		.uleb128 0x49
 6777 0272 13        		.uleb128 0x13
 6778 0273 02        		.uleb128 0x2
 6779 0274 06        		.uleb128 0x6
 6780 0275 00        		.byte	0x0
 6781 0276 00        		.byte	0x0
 6782 0277 2E        		.uleb128 0x2e
 6783 0278 2E        		.uleb128 0x2e
 6784 0279 01        		.byte	0x1
 6785 027a 3F        		.uleb128 0x3f
 6786 027b 0C        		.uleb128 0xc
 6787 027c 03        		.uleb128 0x3
 6788 027d 0E        		.uleb128 0xe
 6789 027e 3A        		.uleb128 0x3a
GAS LISTING C:\Users\ADMINI~1\AppData\Local\Temp/ccYJNKdD.s 			page 122


 6790 027f 0B        		.uleb128 0xb
 6791 0280 3B        		.uleb128 0x3b
 6792 0281 05        		.uleb128 0x5
 6793 0282 27        		.uleb128 0x27
 6794 0283 0C        		.uleb128 0xc
 6795 0284 11        		.uleb128 0x11
 6796 0285 01        		.uleb128 0x1
 6797 0286 12        		.uleb128 0x12
 6798 0287 01        		.uleb128 0x1
 6799 0288 40        		.uleb128 0x40
 6800 0289 0A        		.uleb128 0xa
 6801 028a 01        		.uleb128 0x1
 6802 028b 13        		.uleb128 0x13
 6803 028c 00        		.byte	0x0
 6804 028d 00        		.byte	0x0
 6805 028e 2F        		.uleb128 0x2f
 6806 028f 1D        		.uleb128 0x1d
 6807 0290 00        		.byte	0x0
 6808 0291 31        		.uleb128 0x31
 6809 0292 13        		.uleb128 0x13
 6810 0293 11        		.uleb128 0x11
 6811 0294 01        		.uleb128 0x1
 6812 0295 12        		.uleb128 0x12
 6813 0296 01        		.uleb128 0x1
 6814 0297 58        		.uleb128 0x58
 6815 0298 0B        		.uleb128 0xb
 6816 0299 59        		.uleb128 0x59
 6817 029a 05        		.uleb128 0x5
 6818 029b 00        		.byte	0x0
 6819 029c 00        		.byte	0x0
 6820 029d 30        		.uleb128 0x30
 6821 029e 34        		.uleb128 0x34
 6822 029f 00        		.byte	0x0
 6823 02a0 31        		.uleb128 0x31
 6824 02a1 13        		.uleb128 0x13
 6825 02a2 02        		.uleb128 0x2
 6826 02a3 0A        		.uleb128 0xa
 6827 02a4 00        		.byte	0x0
 6828 02a5 00        		.byte	0x0
 6829 02a6 31        		.uleb128 0x31
 6830 02a7 34        		.uleb128 0x34
 6831 02a8 00        		.byte	0x0
 6832 02a9 31        		.uleb128 0x31
 6833 02aa 13        		.uleb128 0x13
 6834 02ab 00        		.byte	0x0
 6835 02ac 00        		.byte	0x0
 6836 02ad 32        		.uleb128 0x32
 6837 02ae 1D        		.uleb128 0x1d
 6838 02af 01        		.byte	0x1
 6839 02b0 31        		.uleb128 0x31
 6840 02b1 13        		.uleb128 0x13
 6841 02b2 11        		.uleb128 0x11
 6842 02b3 01        		.uleb128 0x1
 6843 02b4 12        		.uleb128 0x12
 6844 02b5 01        		.uleb128 0x1
 6845 02b6 58        		.uleb128 0x58
 6846 02b7 0B        		.uleb128 0xb
GAS LISTING C:\Users\ADMINI~1\AppData\Local\Temp/ccYJNKdD.s 			page 123


 6847 02b8 59        		.uleb128 0x59
 6848 02b9 0B        		.uleb128 0xb
 6849 02ba 00        		.byte	0x0
 6850 02bb 00        		.byte	0x0
 6851 02bc 33        		.uleb128 0x33
 6852 02bd 05        		.uleb128 0x5
 6853 02be 00        		.byte	0x0
 6854 02bf 31        		.uleb128 0x31
 6855 02c0 13        		.uleb128 0x13
 6856 02c1 02        		.uleb128 0x2
 6857 02c2 0A        		.uleb128 0xa
 6858 02c3 00        		.byte	0x0
 6859 02c4 00        		.byte	0x0
 6860 02c5 34        		.uleb128 0x34
 6861 02c6 34        		.uleb128 0x34
 6862 02c7 00        		.byte	0x0
 6863 02c8 03        		.uleb128 0x3
 6864 02c9 0E        		.uleb128 0xe
 6865 02ca 3A        		.uleb128 0x3a
 6866 02cb 0B        		.uleb128 0xb
 6867 02cc 3B        		.uleb128 0x3b
 6868 02cd 05        		.uleb128 0x5
 6869 02ce 49        		.uleb128 0x49
 6870 02cf 13        		.uleb128 0x13
 6871 02d0 00        		.byte	0x0
 6872 02d1 00        		.byte	0x0
 6873 02d2 35        		.uleb128 0x35
 6874 02d3 1D        		.uleb128 0x1d
 6875 02d4 01        		.byte	0x1
 6876 02d5 31        		.uleb128 0x31
 6877 02d6 13        		.uleb128 0x13
 6878 02d7 11        		.uleb128 0x11
 6879 02d8 01        		.uleb128 0x1
 6880 02d9 12        		.uleb128 0x12
 6881 02da 01        		.uleb128 0x1
 6882 02db 58        		.uleb128 0x58
 6883 02dc 0B        		.uleb128 0xb
 6884 02dd 59        		.uleb128 0x59
 6885 02de 05        		.uleb128 0x5
 6886 02df 01        		.uleb128 0x1
 6887 02e0 13        		.uleb128 0x13
 6888 02e1 00        		.byte	0x0
 6889 02e2 00        		.byte	0x0
 6890 02e3 36        		.uleb128 0x36
 6891 02e4 34        		.uleb128 0x34
 6892 02e5 00        		.byte	0x0
 6893 02e6 31        		.uleb128 0x31
 6894 02e7 13        		.uleb128 0x13
 6895 02e8 02        		.uleb128 0x2
 6896 02e9 06        		.uleb128 0x6
 6897 02ea 00        		.byte	0x0
 6898 02eb 00        		.byte	0x0
 6899 02ec 37        		.uleb128 0x37
 6900 02ed 2E        		.uleb128 0x2e
 6901 02ee 01        		.byte	0x1
 6902 02ef 3F        		.uleb128 0x3f
 6903 02f0 0C        		.uleb128 0xc
GAS LISTING C:\Users\ADMINI~1\AppData\Local\Temp/ccYJNKdD.s 			page 124


 6904 02f1 03        		.uleb128 0x3
 6905 02f2 0E        		.uleb128 0xe
 6906 02f3 3A        		.uleb128 0x3a
 6907 02f4 0B        		.uleb128 0xb
 6908 02f5 3B        		.uleb128 0x3b
 6909 02f6 05        		.uleb128 0x5
 6910 02f7 27        		.uleb128 0x27
 6911 02f8 0C        		.uleb128 0xc
 6912 02f9 49        		.uleb128 0x49
 6913 02fa 13        		.uleb128 0x13
 6914 02fb 11        		.uleb128 0x11
 6915 02fc 01        		.uleb128 0x1
 6916 02fd 12        		.uleb128 0x12
 6917 02fe 01        		.uleb128 0x1
 6918 02ff 40        		.uleb128 0x40
 6919 0300 0A        		.uleb128 0xa
 6920 0301 01        		.uleb128 0x1
 6921 0302 13        		.uleb128 0x13
 6922 0303 00        		.byte	0x0
 6923 0304 00        		.byte	0x0
 6924 0305 38        		.uleb128 0x38
 6925 0306 1D        		.uleb128 0x1d
 6926 0307 00        		.byte	0x0
 6927 0308 31        		.uleb128 0x31
 6928 0309 13        		.uleb128 0x13
 6929 030a 11        		.uleb128 0x11
 6930 030b 01        		.uleb128 0x1
 6931 030c 12        		.uleb128 0x12
 6932 030d 01        		.uleb128 0x1
 6933 030e 58        		.uleb128 0x58
 6934 030f 0B        		.uleb128 0xb
 6935 0310 59        		.uleb128 0x59
 6936 0311 0B        		.uleb128 0xb
 6937 0312 00        		.byte	0x0
 6938 0313 00        		.byte	0x0
 6939 0314 39        		.uleb128 0x39
 6940 0315 34        		.uleb128 0x34
 6941 0316 00        		.byte	0x0
 6942 0317 03        		.uleb128 0x3
 6943 0318 0E        		.uleb128 0xe
 6944 0319 3A        		.uleb128 0x3a
 6945 031a 0B        		.uleb128 0xb
 6946 031b 3B        		.uleb128 0x3b
 6947 031c 0B        		.uleb128 0xb
 6948 031d 49        		.uleb128 0x49
 6949 031e 13        		.uleb128 0x13
 6950 031f 02        		.uleb128 0x2
 6951 0320 0A        		.uleb128 0xa
 6952 0321 00        		.byte	0x0
 6953 0322 00        		.byte	0x0
 6954 0323 3A        		.uleb128 0x3a
 6955 0324 34        		.uleb128 0x34
 6956 0325 00        		.byte	0x0
 6957 0326 03        		.uleb128 0x3
 6958 0327 0E        		.uleb128 0xe
 6959 0328 3A        		.uleb128 0x3a
 6960 0329 0B        		.uleb128 0xb
GAS LISTING C:\Users\ADMINI~1\AppData\Local\Temp/ccYJNKdD.s 			page 125


 6961 032a 3B        		.uleb128 0x3b
 6962 032b 0B        		.uleb128 0xb
 6963 032c 49        		.uleb128 0x49
 6964 032d 13        		.uleb128 0x13
 6965 032e 3F        		.uleb128 0x3f
 6966 032f 0C        		.uleb128 0xc
 6967 0330 3C        		.uleb128 0x3c
 6968 0331 0C        		.uleb128 0xc
 6969 0332 00        		.byte	0x0
 6970 0333 00        		.byte	0x0
 6971 0334 3B        		.uleb128 0x3b
 6972 0335 34        		.uleb128 0x34
 6973 0336 00        		.byte	0x0
 6974 0337 03        		.uleb128 0x3
 6975 0338 0E        		.uleb128 0xe
 6976 0339 3A        		.uleb128 0x3a
 6977 033a 0B        		.uleb128 0xb
 6978 033b 3B        		.uleb128 0x3b
 6979 033c 0B        		.uleb128 0xb
 6980 033d 49        		.uleb128 0x49
 6981 033e 13        		.uleb128 0x13
 6982 033f 3F        		.uleb128 0x3f
 6983 0340 0C        		.uleb128 0xc
 6984 0341 02        		.uleb128 0x2
 6985 0342 0A        		.uleb128 0xa
 6986 0343 00        		.byte	0x0
 6987 0344 00        		.byte	0x0
 6988 0345 00        		.byte	0x0
 6989               		.section	.debug_pubnames,"",@progbits
 6990 0000 FA05 0000 		.long	0x5fa
 6991 0004 0200      		.word	0x2
 6992 0006 0000 0000 		.long	.Ldebug_info0
 6993 000a 9815 0000 		.long	0x1598
 6994 000e 4906 0000 		.long	0x649
 6995 0012 7365 7457 		.string	"setWillStartKeyMapping"
 6995      696C 6C53 
 6995      7461 7274 
 6995      4B65 794D 
 6995      6170 7069 
 6996 0029 5906 0000 		.long	0x659
 6997 002d 6973 4B65 		.string	"isKeyMapping"
 6997      794D 6170 
 6997      7069 6E67 
 6997      00
 6998 003a 6906 0000 		.long	0x669
 6999 003e 6973 4465 		.string	"isDeepKeyMapping"
 6999      6570 4B65 
 6999      794D 6170 
 6999      7069 6E67 
 6999      00
 7000 004f 7906 0000 		.long	0x679
 7001 0053 6170 706C 		.string	"applyKeyMapping"
 7001      794B 6579 
 7001      4D61 7070 
 7001      696E 6700 
 7002 0063 A106 0000 		.long	0x6a1
 7003 0067 6973 5265 		.string	"isReadyKeyMappingOnBoot"
GAS LISTING C:\Users\ADMINI~1\AppData\Local\Temp/ccYJNKdD.s 			page 126


 7003      6164 794B 
 7003      6579 4D61 
 7003      7070 696E 
 7003      674F 6E42 
 7004 007f B906 0000 		.long	0x6b9
 7005 0083 7265 6164 		.string	"readyKeyMappingOnBoot"
 7005      794B 6579 
 7005      4D61 7070 
 7005      696E 674F 
 7005      6E42 6F6F 
 7006 0099 CD06 0000 		.long	0x6cd
 7007 009d 7374 6F70 		.string	"stopKeyMapping"
 7007      4B65 794D 
 7007      6170 7069 
 7007      6E67 00
 7008 00ac DD06 0000 		.long	0x6dd
 7009 00b0 6973 4D61 		.string	"isMacroKey"
 7009      6372 6F4B 
 7009      6579 00
 7010 00bb FB06 0000 		.long	0x6fb
 7011 00bf 6573 6361 		.string	"escapeMacroKeycode"
 7011      7065 4D61 
 7011      6372 6F4B 
 7011      6579 636F 
 7011      6465 00
 7012 00d2 4307 0000 		.long	0x743
 7013 00d6 7265 7365 		.string	"resetMacroInput"
 7013      744D 6163 
 7013      726F 496E 
 7013      7075 7400 
 7014 00e6 6B08 0000 		.long	0x86b
 7015 00ea 7265 7365 		.string	"resetCurrentLayer"
 7015      7443 7572 
 7015      7265 6E74 
 7015      4C61 7965 
 7015      7200 
 7016 00fc 9908 0000 		.long	0x899
 7017 0100 636C 6561 		.string	"clearMacro"
 7017      724D 6163 
 7017      726F 00
 7018 010b AE08 0000 		.long	0x8ae
 7019 010f 7361 7665 		.string	"saveCurrentLayer"
 7019      4375 7272 
 7019      656E 744C 
 7019      6179 6572 
 7019      00
 7020 0120 D808 0000 		.long	0x8d8
 7021 0124 7072 696E 		.string	"printPrepareString"
 7021      7450 7265 
 7021      7061 7265 
 7021      5374 7269 
 7021      6E67 00
 7022 0137 ED08 0000 		.long	0x8ed
 7023 013b 7072 696E 		.string	"printMacroMessage"
 7023      744D 6163 
 7023      726F 4D65 
 7023      7373 6167 
GAS LISTING C:\Users\ADMINI~1\AppData\Local\Temp/ccYJNKdD.s 			page 127


 7023      6500 
 7024 014d 6809 0000 		.long	0x968
 7025 0151 7072 696E 		.string	"printSelectMode"
 7025      7453 656C 
 7025      6563 744D 
 7025      6F64 6500 
 7026 0161 7D09 0000 		.long	0x97d
 7027 0165 7072 696E 		.string	"printMapperMessageAfter"
 7027      744D 6170 
 7027      7065 724D 
 7027      6573 7361 
 7027      6765 4166 
 7028 017d 9209 0000 		.long	0x992
 7029 0181 636C 6561 		.string	"clearMacroAfter"
 7029      724D 6163 
 7029      726F 4166 
 7029      7465 7200 
 7030 0191 C209 0000 		.long	0x9c2
 7031 0195 7361 7665 		.string	"saveMacro"
 7031      4D61 6372 
 7031      6F00 
 7032 019f 1A0A 0000 		.long	0xa1a
 7033 01a3 7265 6164 		.string	"readMacro"
 7033      4D61 6372 
 7033      6F00 
 7034 01ad 760A 0000 		.long	0xa76
 7035 01b1 6C6F 6164 		.string	"loadCurrentLayer"
 7035      4375 7272 
 7035      656E 744C 
 7035      6179 6572 
 7035      00
 7036 01c2 B00A 0000 		.long	0xab0
 7037 01c6 7075 744B 		.string	"putKeyCode"
 7037      6579 436F 
 7037      6465 00
 7038 01d1 730C 0000 		.long	0xc73
 7039 01d5 7361 7665 		.string	"saveCurrentLayerAfter"
 7039      4375 7272 
 7039      656E 744C 
 7039      6179 6572 
 7039      4166 7465 
 7040 01eb C90C 0000 		.long	0xcc9
 7041 01ef 7072 6570 		.string	"prepareKeyMapper"
 7041      6172 654B 
 7041      6579 4D61 
 7041      7070 6572 
 7041      00
 7042 0200 DE0C 0000 		.long	0xcde
 7043 0204 6765 7443 		.string	"getCurrentKeycode"
 7043      7572 7265 
 7043      6E74 4B65 
 7043      7963 6F64 
 7043      6500 
 7044 0216 920D 0000 		.long	0xd92
 7045 021a 6170 706C 		.string	"applyMacro"
 7045      794D 6163 
 7045      726F 00
GAS LISTING C:\Users\ADMINI~1\AppData\Local\Temp/ccYJNKdD.s 			page 128


 7046 0225 E20D 0000 		.long	0xde2
 7047 0229 7374 6172 		.string	"startKeyMapping"
 7047      744B 6579 
 7047      4D61 7070 
 7047      696E 6700 
 7048 0239 190E 0000 		.long	0xe19
 7049 023d 7072 6570 		.string	"prepareKeyMapping"
 7049      6172 654B 
 7049      6579 4D61 
 7049      7070 696E 
 7049      6700 
 7050 024f 410E 0000 		.long	0xe41
 7051 0253 636F 756E 		.string	"countKeyMappingEnabled"
 7051      744B 6579 
 7051      4D61 7070 
 7051      696E 6745 
 7051      6E61 626C 
 7052 026a 550E 0000 		.long	0xe55
 7053 026e 656E 7465 		.string	"enterFrameForMapper"
 7053      7246 7261 
 7053      6D65 466F 
 7053      724D 6170 
 7053      7065 7200 
 7054 0282 690E 0000 		.long	0xe69
 7055 0286 7374 6172 		.string	"startKeyMappingOnBoot"
 7055      744B 6579 
 7055      4D61 7070 
 7055      696E 674F 
 7055      6E42 6F6F 
 7056 029c 2C10 0000 		.long	0x102c
 7057 02a0 7374 725F 		.string	"str_select_mode"
 7057      7365 6C65 
 7057      6374 5F6D 
 7057      6F64 6500 
 7058 02b0 5310 0000 		.long	0x1053
 7059 02b4 7374 725F 		.string	"str_select_mode1"
 7059      7365 6C65 
 7059      6374 5F6D 
 7059      6F64 6531 
 7059      00
 7060 02c5 7A10 0000 		.long	0x107a
 7061 02c9 7374 725F 		.string	"str_select_mode2"
 7061      7365 6C65 
 7061      6374 5F6D 
 7061      6F64 6532 
 7061      00
 7062 02da A110 0000 		.long	0x10a1
 7063 02de 7374 725F 		.string	"str_select_mode3"
 7063      7365 6C65 
 7063      6374 5F6D 
 7063      6F64 6533 
 7063      00
 7064 02ef C810 0000 		.long	0x10c8
 7065 02f3 7374 725F 		.string	"str_exit"
 7065      6578 6974 
 7065      00
 7066 02fc EF10 0000 		.long	0x10ef
GAS LISTING C:\Users\ADMINI~1\AppData\Local\Temp/ccYJNKdD.s 			page 129


 7067 0300 7374 725F 		.string	"str_macro_message"
 7067      6D61 6372 
 7067      6F5F 6D65 
 7067      7373 6167 
 7067      6500 
 7068 0312 1611 0000 		.long	0x1116
 7069 0316 7374 725F 		.string	"str_macro_1"
 7069      6D61 6372 
 7069      6F5F 3100 
 7070 0322 2D11 0000 		.long	0x112d
 7071 0326 7374 725F 		.string	"str_macro_2"
 7071      6D61 6372 
 7071      6F5F 3200 
 7072 0332 4411 0000 		.long	0x1144
 7073 0336 7374 725F 		.string	"str_macro_9"
 7073      6D61 6372 
 7073      6F5F 3900 
 7074 0342 5B11 0000 		.long	0x115b
 7075 0346 7374 725F 		.string	"str_back_6"
 7075      6261 636B 
 7075      5F36 00
 7076 0351 8211 0000 		.long	0x1182
 7077 0355 7374 725F 		.string	"str_mapper_message"
 7077      6D61 7070 
 7077      6572 5F6D 
 7077      6573 7361 
 7077      6765 00
 7078 0368 A911 0000 		.long	0x11a9
 7079 036c 7374 725F 		.string	"str_mapper_1"
 7079      6D61 7070 
 7079      6572 5F31 
 7079      00
 7080 0379 D011 0000 		.long	0x11d0
 7081 037d 7374 725F 		.string	"str_mapper_2"
 7081      6D61 7070 
 7081      6572 5F32 
 7081      00
 7082 038a F711 0000 		.long	0x11f7
 7083 038e 7374 725F 		.string	"str_mapper_3"
 7083      6D61 7070 
 7083      6572 5F33 
 7083      00
 7084 039b 1E12 0000 		.long	0x121e
 7085 039f 7374 725F 		.string	"str_mapper_4"
 7085      6D61 7070 
 7085      6572 5F34 
 7085      00
 7086 03ac 4512 0000 		.long	0x1245
 7087 03b0 7374 725F 		.string	"str_mapper_9"
 7087      6D61 7070 
 7087      6572 5F39 
 7087      00
 7088 03bd 5C12 0000 		.long	0x125c
 7089 03c1 7374 725F 		.string	"str_prepare_message"
 7089      7072 6570 
 7089      6172 655F 
 7089      6D65 7373 
GAS LISTING C:\Users\ADMINI~1\AppData\Local\Temp/ccYJNKdD.s 			page 130


 7089      6167 6500 
 7090 03d5 8312 0000 		.long	0x1283
 7091 03d9 7374 725F 		.string	"str_choose_layer"
 7091      6368 6F6F 
 7091      7365 5F6C 
 7091      6179 6572 
 7091      00
 7092 03ea AA12 0000 		.long	0x12aa
 7093 03ee 7374 725F 		.string	"str_choose_key"
 7093      6368 6F6F 
 7093      7365 5F6B 
 7093      6579 00
 7094 03fd D112 0000 		.long	0x12d1
 7095 0401 7374 725F 		.string	"str_input_keycode"
 7095      696E 7075 
 7095      745F 6B65 
 7095      7963 6F64 
 7095      6500 
 7096 0413 F812 0000 		.long	0x12f8
 7097 0417 7374 725F 		.string	"str_save_end_mapping"
 7097      7361 7665 
 7097      5F65 6E64 
 7097      5F6D 6170 
 7097      7069 6E67 
 7098 042c 1F13 0000 		.long	0x131f
 7099 0430 7374 725F 		.string	"str_cancel_mapping"
 7099      6361 6E63 
 7099      656C 5F6D 
 7099      6170 7069 
 7099      6E67 00
 7100 0443 3613 0000 		.long	0x1336
 7101 0447 7374 725F 		.string	"str_reset_mapping"
 7101      7265 7365 
 7101      745F 6D61 
 7101      7070 696E 
 7101      6700 
 7102 0459 5D13 0000 		.long	0x135d
 7103 045d 7374 725F 		.string	"str_input_command"
 7103      696E 7075 
 7103      745F 636F 
 7103      6D6D 616E 
 7103      6400 
 7104 046f 7413 0000 		.long	0x1374
 7105 0473 7374 725F 		.string	"str_nothing"
 7105      6E6F 7468 
 7105      696E 6700 
 7106 047f 9B13 0000 		.long	0x139b
 7107 0483 7374 725F 		.string	"str_save_layer"
 7107      7361 7665 
 7107      5F6C 6179 
 7107      6572 00
 7108 0492 B213 0000 		.long	0x13b2
 7109 0496 7374 725F 		.string	"str_load_layer"
 7109      6C6F 6164 
 7109      5F6C 6179 
 7109      6572 00
 7110 04a5 C913 0000 		.long	0x13c9
GAS LISTING C:\Users\ADMINI~1\AppData\Local\Temp/ccYJNKdD.s 			page 131


 7111 04a9 7374 725F 		.string	"str_saving"
 7111      7361 7669 
 7111      6E67 00
 7112 04b4 E013 0000 		.long	0x13e0
 7113 04b8 7374 725F 		.string	"str_col_row"
 7113      636F 6C5F 
 7113      726F 7700 
 7114 04c4 0714 0000 		.long	0x1407
 7115 04c8 7374 725F 		.string	"str_invalid_keycode"
 7115      696E 7661 
 7115      6C69 645F 
 7115      6B65 7963 
 7115      6F64 6500 
 7116 04dc 2E14 0000 		.long	0x142e
 7117 04e0 7374 725F 		.string	"str_select_number"
 7117      7365 6C65 
 7117      6374 5F6E 
 7117      756D 6265 
 7117      7200 
 7118 04f2 5514 0000 		.long	0x1455
 7119 04f6 7374 725F 		.string	"str_exit_macro"
 7119      6578 6974 
 7119      5F6D 6163 
 7119      726F 00
 7120 0505 7C14 0000 		.long	0x147c
 7121 0509 7374 725F 		.string	"str_input_macro"
 7121      696E 7075 
 7121      745F 6D61 
 7121      6372 6F00 
 7122 0519 A314 0000 		.long	0x14a3
 7123 051d 7374 725F 		.string	"str_invalid_macro_number"
 7123      696E 7661 
 7123      6C69 645F 
 7123      6D61 6372 
 7123      6F5F 6E75 
 7124 0536 CA14 0000 		.long	0x14ca
 7125 053a 7374 725F 		.string	"str_clear_all_macro"
 7125      636C 6561 
 7125      725F 616C 
 7125      6C5F 6D61 
 7125      6372 6F00 
 7126 054e E114 0000 		.long	0x14e1
 7127 0552 5F6D 6163 		.string	"_macroIndex"
 7127      726F 496E 
 7127      6465 7800 
 7128 055e F314 0000 		.long	0x14f3
 7129 0562 5F6D 6163 		.string	"_macroBufferIndex"
 7129      726F 4275 
 7129      6666 6572 
 7129      496E 6465 
 7129      7800 
 7130 0574 1515 0000 		.long	0x1515
 7131 0578 5F6D 6163 		.string	"_macroPressedBuffer"
 7131      726F 5072 
 7131      6573 7365 
 7131      6442 7566 
 7131      6665 7200 
GAS LISTING C:\Users\ADMINI~1\AppData\Local\Temp/ccYJNKdD.s 			page 132


 7132 058c 2715 0000 		.long	0x1527
 7133 0590 5F6D 6163 		.string	"_macroInputBuffer"
 7133      726F 496E 
 7133      7075 7442 
 7133      7566 6665 
 7133      7200 
 7134 05a2 3915 0000 		.long	0x1539
 7135 05a6 5F70 7265 		.string	"_pressedEscapeKeyCount"
 7135      7373 6564 
 7135      4573 6361 
 7135      7065 4B65 
 7135      7943 6F75 
 7136 05bd 4B15 0000 		.long	0x154b
 7137 05c1 5F69 7350 		.string	"_isPressedEscapeKey"
 7137      7265 7373 
 7137      6564 4573 
 7137      6361 7065 
 7137      4B65 7900 
 7138 05d5 5D15 0000 		.long	0x155d
 7139 05d9 5F69 7354 		.string	"_isTiredEscapeKey"
 7139      6972 6564 
 7139      4573 6361 
 7139      7065 4B65 
 7139      7900 
 7140 05eb 8515 0000 		.long	0x1585
 7141 05ef 5F6E 6577 		.string	"_newKeyMap"
 7141      4B65 794D 
 7141      6170 00
 7142 05fa 0000 0000 		.long	0x0
 7143               		.section	.debug_aranges,"",@progbits
 7144 0000 1C00 0000 		.long	0x1c
 7145 0004 0200      		.word	0x2
 7146 0006 0000 0000 		.long	.Ldebug_info0
 7147 000a 04        		.byte	0x4
 7148 000b 00        		.byte	0x0
 7149 000c 0000      		.word	0x0
 7150 000e 0000      		.word	0x0
 7151 0010 0000 0000 		.long	.Ltext0
 7152 0014 C80D 0000 		.long	.Letext0-.Ltext0
 7153 0018 0000 0000 		.long	0x0
 7154 001c 0000 0000 		.long	0x0
 7155               		.section	.debug_line
 7156 0000 790E 0000 		.long	.LELT0-.LSLT0
 7157               	.LSLT0:
 7158 0004 0200      		.word	0x2
 7159 0006 DF00 0000 		.long	.LELTP0-.LASLTP0
 7160               	.LASLTP0:
 7161 000a 01        		.byte	0x1
 7162 000b 01        		.byte	0x1
 7163 000c F6        		.byte	0xf6
 7164 000d F5        		.byte	0xf5
 7165 000e 0A        		.byte	0xa
 7166 000f 00        		.byte	0x0
 7167 0010 01        		.byte	0x1
 7168 0011 01        		.byte	0x1
 7169 0012 01        		.byte	0x1
 7170 0013 01        		.byte	0x1
GAS LISTING C:\Users\ADMINI~1\AppData\Local\Temp/ccYJNKdD.s 			page 133


 7171 0014 00        		.byte	0x0
 7172 0015 00        		.byte	0x0
 7173 0016 00        		.byte	0x0
 7174 0017 01        		.byte	0x1
 7175 0018 633A 2F77 		.ascii	"c:/winavr-20100110/lib/gcc/../../avr/include"
 7175      696E 6176 
 7175      722D 3230 
 7175      3130 3031 
 7175      3130 2F6C 
 7176 0044 00        		.byte	0
 7177 0045 633A 2F77 		.ascii	"c:/winavr-20100110/lib/gcc/../../avr/include/util"
 7177      696E 6176 
 7177      722D 3230 
 7177      3130 3031 
 7177      3130 2F6C 
 7178 0076 00        		.byte	0
 7179 0077 00        		.byte	0x0
 7180 0078 6B65 796D 		.string	"keymapper.c"
 7180      6170 7065 
 7180      722E 6300 
 7181 0084 00        		.uleb128 0x0
 7182 0085 00        		.uleb128 0x0
 7183 0086 00        		.uleb128 0x0
 7184 0087 7574 696C 		.string	"util/delay_basic.h"
 7184      2F64 656C 
 7184      6179 5F62 
 7184      6173 6963 
 7184      2E68 00
 7185 009a 01        		.uleb128 0x1
 7186 009b 00        		.uleb128 0x0
 7187 009c 00        		.uleb128 0x0
 7188 009d 7574 696C 		.string	"util/delay.h"
 7188      2F64 656C 
 7188      6179 2E68 
 7188      00
 7189 00aa 01        		.uleb128 0x1
 7190 00ab 00        		.uleb128 0x0
 7191 00ac 00        		.uleb128 0x0
 7192 00ad 7374 6469 		.string	"stdint.h"
 7192      6E74 2E68 
 7192      00
 7193 00b6 01        		.uleb128 0x1
 7194 00b7 00        		.uleb128 0x0
 7195 00b8 00        		.uleb128 0x0
 7196 00b9 6B65 796D 		.string	"keymap.h"
 7196      6170 2E68 
 7196      00
 7197 00c2 00        		.uleb128 0x0
 7198 00c3 00        		.uleb128 0x0
 7199 00c4 00        		.uleb128 0x0
 7200 00c5 6D61 6372 		.string	"macrobuffer.h"
 7200      6F62 7566 
 7200      6665 722E 
 7200      6800 
 7201 00d3 00        		.uleb128 0x0
 7202 00d4 00        		.uleb128 0x0
 7203 00d5 00        		.uleb128 0x0
GAS LISTING C:\Users\ADMINI~1\AppData\Local\Temp/ccYJNKdD.s 			page 134


 7204 00d6 6861 7264 		.string	"hardwareinfo.h"
 7204      7761 7265 
 7204      696E 666F 
 7204      2E68 00
 7205 00e5 00        		.uleb128 0x0
 7206 00e6 00        		.uleb128 0x0
 7207 00e7 00        		.uleb128 0x0
 7208 00e8 00        		.byte	0x0
 7209               	.LELTP0:
 7210 00e9 00        		.byte	0x0
 7211 00ea 05        		.uleb128 0x5
 7212 00eb 02        		.byte	0x2
 7213 00ec 0000 0000 		.long	.LM1
 7214 00f0 84        		.byte	0x84
 7215 00f1 00        		.byte	0x0
 7216 00f2 05        		.uleb128 0x5
 7217 00f3 02        		.byte	0x2
 7218 00f4 0000 0000 		.long	.LM2
 7219 00f8 15        		.byte	0x15
 7220 00f9 00        		.byte	0x0
 7221 00fa 05        		.uleb128 0x5
 7222 00fb 02        		.byte	0x2
 7223 00fc 0000 0000 		.long	.LM3
 7224 0100 15        		.byte	0x15
 7225 0101 00        		.byte	0x0
 7226 0102 05        		.uleb128 0x5
 7227 0103 02        		.byte	0x2
 7228 0104 0000 0000 		.long	.LM4
 7229 0108 16        		.byte	0x16
 7230 0109 00        		.byte	0x0
 7231 010a 05        		.uleb128 0x5
 7232 010b 02        		.byte	0x2
 7233 010c 0000 0000 		.long	.LM5
 7234 0110 01        		.byte	0x1
 7235 0111 00        		.byte	0x0
 7236 0112 05        		.uleb128 0x5
 7237 0113 02        		.byte	0x2
 7238 0114 0000 0000 		.long	.LM6
 7239 0118 16        		.byte	0x16
 7240 0119 00        		.byte	0x0
 7241 011a 05        		.uleb128 0x5
 7242 011b 02        		.byte	0x2
 7243 011c 0000 0000 		.long	.LM7
 7244 0120 15        		.byte	0x15
 7245 0121 00        		.byte	0x0
 7246 0122 05        		.uleb128 0x5
 7247 0123 02        		.byte	0x2
 7248 0124 0000 0000 		.long	.LM8
 7249 0128 01        		.byte	0x1
 7250 0129 00        		.byte	0x0
 7251 012a 05        		.uleb128 0x5
 7252 012b 02        		.byte	0x2
 7253 012c 0000 0000 		.long	.LM9
 7254 0130 16        		.byte	0x16
 7255 0131 00        		.byte	0x0
 7256 0132 05        		.uleb128 0x5
 7257 0133 02        		.byte	0x2
GAS LISTING C:\Users\ADMINI~1\AppData\Local\Temp/ccYJNKdD.s 			page 135


 7258 0134 0000 0000 		.long	.LM10
 7259 0138 16        		.byte	0x16
 7260 0139 00        		.byte	0x0
 7261 013a 05        		.uleb128 0x5
 7262 013b 02        		.byte	0x2
 7263 013c 0000 0000 		.long	.LM11
 7264 0140 15        		.byte	0x15
 7265 0141 00        		.byte	0x0
 7266 0142 05        		.uleb128 0x5
 7267 0143 02        		.byte	0x2
 7268 0144 0000 0000 		.long	.LM12
 7269 0148 18        		.byte	0x18
 7270 0149 00        		.byte	0x0
 7271 014a 05        		.uleb128 0x5
 7272 014b 02        		.byte	0x2
 7273 014c 0000 0000 		.long	.LM13
 7274 0150 15        		.byte	0x15
 7275 0151 00        		.byte	0x0
 7276 0152 05        		.uleb128 0x5
 7277 0153 02        		.byte	0x2
 7278 0154 0000 0000 		.long	.LM14
 7279 0158 15        		.byte	0x15
 7280 0159 00        		.byte	0x0
 7281 015a 05        		.uleb128 0x5
 7282 015b 02        		.byte	0x2
 7283 015c 0000 0000 		.long	.LM15
 7284 0160 16        		.byte	0x16
 7285 0161 00        		.byte	0x0
 7286 0162 05        		.uleb128 0x5
 7287 0163 02        		.byte	0x2
 7288 0164 0000 0000 		.long	.LM16
 7289 0168 15        		.byte	0x15
 7290 0169 00        		.byte	0x0
 7291 016a 05        		.uleb128 0x5
 7292 016b 02        		.byte	0x2
 7293 016c 0000 0000 		.long	.LM17
 7294 0170 17        		.byte	0x17
 7295 0171 00        		.byte	0x0
 7296 0172 05        		.uleb128 0x5
 7297 0173 02        		.byte	0x2
 7298 0174 0000 0000 		.long	.LM18
 7299 0178 15        		.byte	0x15
 7300 0179 00        		.byte	0x0
 7301 017a 05        		.uleb128 0x5
 7302 017b 02        		.byte	0x2
 7303 017c 0000 0000 		.long	.LM19
 7304 0180 31        		.byte	0x31
 7305 0181 00        		.byte	0x0
 7306 0182 05        		.uleb128 0x5
 7307 0183 02        		.byte	0x2
 7308 0184 0000 0000 		.long	.LM20
 7309 0188 16        		.byte	0x16
 7310 0189 00        		.byte	0x0
 7311 018a 05        		.uleb128 0x5
 7312 018b 02        		.byte	0x2
 7313 018c 0000 0000 		.long	.LM21
 7314 0190 18        		.byte	0x18
GAS LISTING C:\Users\ADMINI~1\AppData\Local\Temp/ccYJNKdD.s 			page 136


 7315 0191 00        		.byte	0x0
 7316 0192 05        		.uleb128 0x5
 7317 0193 02        		.byte	0x2
 7318 0194 0000 0000 		.long	.LM22
 7319 0198 15        		.byte	0x15
 7320 0199 00        		.byte	0x0
 7321 019a 05        		.uleb128 0x5
 7322 019b 02        		.byte	0x2
 7323 019c 0000 0000 		.long	.LM23
 7324 01a0 16        		.byte	0x16
 7325 01a1 00        		.byte	0x0
 7326 01a2 05        		.uleb128 0x5
 7327 01a3 02        		.byte	0x2
 7328 01a4 0000 0000 		.long	.LM24
 7329 01a8 2A        		.byte	0x2a
 7330 01a9 00        		.byte	0x0
 7331 01aa 05        		.uleb128 0x5
 7332 01ab 02        		.byte	0x2
 7333 01ac 0000 0000 		.long	.LM25
 7334 01b0 15        		.byte	0x15
 7335 01b1 00        		.byte	0x0
 7336 01b2 05        		.uleb128 0x5
 7337 01b3 02        		.byte	0x2
 7338 01b4 0000 0000 		.long	.LM26
 7339 01b8 15        		.byte	0x15
 7340 01b9 00        		.byte	0x0
 7341 01ba 05        		.uleb128 0x5
 7342 01bb 02        		.byte	0x2
 7343 01bc 0000 0000 		.long	.LM27
 7344 01c0 16        		.byte	0x16
 7345 01c1 00        		.byte	0x0
 7346 01c2 05        		.uleb128 0x5
 7347 01c3 02        		.byte	0x2
 7348 01c4 0000 0000 		.long	.LM28
 7349 01c8 4B        		.byte	0x4b
 7350 01c9 00        		.byte	0x0
 7351 01ca 05        		.uleb128 0x5
 7352 01cb 02        		.byte	0x2
 7353 01cc 0000 0000 		.long	.LM29
 7354 01d0 01        		.byte	0x1
 7355 01d1 00        		.byte	0x0
 7356 01d2 05        		.uleb128 0x5
 7357 01d3 02        		.byte	0x2
 7358 01d4 0000 0000 		.long	.LM30
 7359 01d8 1A        		.byte	0x1a
 7360 01d9 00        		.byte	0x0
 7361 01da 05        		.uleb128 0x5
 7362 01db 02        		.byte	0x2
 7363 01dc 0000 0000 		.long	.LM31
 7364 01e0 16        		.byte	0x16
 7365 01e1 00        		.byte	0x0
 7366 01e2 05        		.uleb128 0x5
 7367 01e3 02        		.byte	0x2
 7368 01e4 0000 0000 		.long	.LM32
 7369 01e8 0D        		.byte	0xd
 7370 01e9 00        		.byte	0x0
 7371 01ea 05        		.uleb128 0x5
GAS LISTING C:\Users\ADMINI~1\AppData\Local\Temp/ccYJNKdD.s 			page 137


 7372 01eb 02        		.byte	0x2
 7373 01ec 0000 0000 		.long	.LM33
 7374 01f0 20        		.byte	0x20
 7375 01f1 00        		.byte	0x0
 7376 01f2 05        		.uleb128 0x5
 7377 01f3 02        		.byte	0x2
 7378 01f4 0000 0000 		.long	.LM34
 7379 01f8 47        		.byte	0x47
 7380 01f9 00        		.byte	0x0
 7381 01fa 05        		.uleb128 0x5
 7382 01fb 02        		.byte	0x2
 7383 01fc 0000 0000 		.long	.LM35
 7384 0200 15        		.byte	0x15
 7385 0201 00        		.byte	0x0
 7386 0202 05        		.uleb128 0x5
 7387 0203 02        		.byte	0x2
 7388 0204 0000 0000 		.long	.LM36
 7389 0208 15        		.byte	0x15
 7390 0209 00        		.byte	0x0
 7391 020a 05        		.uleb128 0x5
 7392 020b 02        		.byte	0x2
 7393 020c 0000 0000 		.long	.LM37
 7394 0210 15        		.byte	0x15
 7395 0211 00        		.byte	0x0
 7396 0212 05        		.uleb128 0x5
 7397 0213 02        		.byte	0x2
 7398 0214 0000 0000 		.long	.LM38
 7399 0218 03        		.byte	0x3
 7400 0219 CB02      		.sleb128 331
 7401 021b 01        		.byte	0x1
 7402 021c 00        		.byte	0x0
 7403 021d 05        		.uleb128 0x5
 7404 021e 02        		.byte	0x2
 7405 021f 0000 0000 		.long	.LM39
 7406 0223 15        		.byte	0x15
 7407 0224 00        		.byte	0x0
 7408 0225 05        		.uleb128 0x5
 7409 0226 02        		.byte	0x2
 7410 0227 0000 0000 		.long	.LM40
 7411 022b 15        		.byte	0x15
 7412 022c 00        		.byte	0x0
 7413 022d 05        		.uleb128 0x5
 7414 022e 02        		.byte	0x2
 7415 022f 0000 0000 		.long	.LM41
 7416 0233 15        		.byte	0x15
 7417 0234 00        		.byte	0x0
 7418 0235 05        		.uleb128 0x5
 7419 0236 02        		.byte	0x2
 7420 0237 0000 0000 		.long	.LM42
 7421 023b 15        		.byte	0x15
 7422 023c 00        		.byte	0x0
 7423 023d 05        		.uleb128 0x5
 7424 023e 02        		.byte	0x2
 7425 023f 0000 0000 		.long	.LM43
 7426 0243 15        		.byte	0x15
 7427 0244 00        		.byte	0x0
 7428 0245 05        		.uleb128 0x5
GAS LISTING C:\Users\ADMINI~1\AppData\Local\Temp/ccYJNKdD.s 			page 138


 7429 0246 02        		.byte	0x2
 7430 0247 0000 0000 		.long	.LM44
 7431 024b 03        		.byte	0x3
 7432 024c 9A7D      		.sleb128 -358
 7433 024e 01        		.byte	0x1
 7434 024f 00        		.byte	0x0
 7435 0250 05        		.uleb128 0x5
 7436 0251 02        		.byte	0x2
 7437 0252 0000 0000 		.long	.LM45
 7438 0256 18        		.byte	0x18
 7439 0257 00        		.byte	0x0
 7440 0258 05        		.uleb128 0x5
 7441 0259 02        		.byte	0x2
 7442 025a 0000 0000 		.long	.LM46
 7443 025e 15        		.byte	0x15
 7444 025f 00        		.byte	0x0
 7445 0260 05        		.uleb128 0x5
 7446 0261 02        		.byte	0x2
 7447 0262 0000 0000 		.long	.LM47
 7448 0266 15        		.byte	0x15
 7449 0267 00        		.byte	0x0
 7450 0268 05        		.uleb128 0x5
 7451 0269 02        		.byte	0x2
 7452 026a 0000 0000 		.long	.LM48
 7453 026e 16        		.byte	0x16
 7454 026f 00        		.byte	0x0
 7455 0270 05        		.uleb128 0x5
 7456 0271 02        		.byte	0x2
 7457 0272 0000 0000 		.long	.LM49
 7458 0276 15        		.byte	0x15
 7459 0277 00        		.byte	0x0
 7460 0278 05        		.uleb128 0x5
 7461 0279 02        		.byte	0x2
 7462 027a 0000 0000 		.long	.LM50
 7463 027e 16        		.byte	0x16
 7464 027f 00        		.byte	0x0
 7465 0280 05        		.uleb128 0x5
 7466 0281 02        		.byte	0x2
 7467 0282 0000 0000 		.long	.LM51
 7468 0286 15        		.byte	0x15
 7469 0287 00        		.byte	0x0
 7470 0288 05        		.uleb128 0x5
 7471 0289 02        		.byte	0x2
 7472 028a 0000 0000 		.long	.LM52
 7473 028e 17        		.byte	0x17
 7474 028f 00        		.byte	0x0
 7475 0290 05        		.uleb128 0x5
 7476 0291 02        		.byte	0x2
 7477 0292 0000 0000 		.long	.LM53
 7478 0296 1E        		.byte	0x1e
 7479 0297 00        		.byte	0x0
 7480 0298 05        		.uleb128 0x5
 7481 0299 02        		.byte	0x2
 7482 029a 0000 0000 		.long	.LM54
 7483 029e 01        		.byte	0x1
 7484 029f 00        		.byte	0x0
 7485 02a0 05        		.uleb128 0x5
GAS LISTING C:\Users\ADMINI~1\AppData\Local\Temp/ccYJNKdD.s 			page 139


 7486 02a1 02        		.byte	0x2
 7487 02a2 0000 0000 		.long	.LM55
 7488 02a6 1C        		.byte	0x1c
 7489 02a7 00        		.byte	0x0
 7490 02a8 05        		.uleb128 0x5
 7491 02a9 02        		.byte	0x2
 7492 02aa 0000 0000 		.long	.LM56
 7493 02ae 15        		.byte	0x15
 7494 02af 00        		.byte	0x0
 7495 02b0 05        		.uleb128 0x5
 7496 02b1 02        		.byte	0x2
 7497 02b2 0000 0000 		.long	.LM57
 7498 02b6 10        		.byte	0x10
 7499 02b7 00        		.byte	0x0
 7500 02b8 05        		.uleb128 0x5
 7501 02b9 02        		.byte	0x2
 7502 02ba 0000 0000 		.long	.LM58
 7503 02be 1B        		.byte	0x1b
 7504 02bf 00        		.byte	0x0
 7505 02c0 05        		.uleb128 0x5
 7506 02c1 02        		.byte	0x2
 7507 02c2 0000 0000 		.long	.LM59
 7508 02c6 16        		.byte	0x16
 7509 02c7 00        		.byte	0x0
 7510 02c8 05        		.uleb128 0x5
 7511 02c9 02        		.byte	0x2
 7512 02ca 0000 0000 		.long	.LM60
 7513 02ce 18        		.byte	0x18
 7514 02cf 00        		.byte	0x0
 7515 02d0 05        		.uleb128 0x5
 7516 02d1 02        		.byte	0x2
 7517 02d2 0000 0000 		.long	.LM61
 7518 02d6 16        		.byte	0x16
 7519 02d7 00        		.byte	0x0
 7520 02d8 05        		.uleb128 0x5
 7521 02d9 02        		.byte	0x2
 7522 02da 0000 0000 		.long	.LM62
 7523 02de 15        		.byte	0x15
 7524 02df 00        		.byte	0x0
 7525 02e0 05        		.uleb128 0x5
 7526 02e1 02        		.byte	0x2
 7527 02e2 0000 0000 		.long	.LM63
 7528 02e6 13        		.byte	0x13
 7529 02e7 00        		.byte	0x0
 7530 02e8 05        		.uleb128 0x5
 7531 02e9 02        		.byte	0x2
 7532 02ea 0000 0000 		.long	.LM64
 7533 02ee 15        		.byte	0x15
 7534 02ef 00        		.byte	0x0
 7535 02f0 05        		.uleb128 0x5
 7536 02f1 02        		.byte	0x2
 7537 02f2 0000 0000 		.long	.LM65
 7538 02f6 12        		.byte	0x12
 7539 02f7 00        		.byte	0x0
 7540 02f8 05        		.uleb128 0x5
 7541 02f9 02        		.byte	0x2
 7542 02fa 0000 0000 		.long	.LM66
GAS LISTING C:\Users\ADMINI~1\AppData\Local\Temp/ccYJNKdD.s 			page 140


 7543 02fe 18        		.byte	0x18
 7544 02ff 00        		.byte	0x0
 7545 0300 05        		.uleb128 0x5
 7546 0301 02        		.byte	0x2
 7547 0302 0000 0000 		.long	.LM67
 7548 0306 03        		.byte	0x3
 7549 0307 A102      		.sleb128 289
 7550 0309 01        		.byte	0x1
 7551 030a 00        		.byte	0x0
 7552 030b 05        		.uleb128 0x5
 7553 030c 02        		.byte	0x2
 7554 030d 0000 0000 		.long	.LM68
 7555 0311 15        		.byte	0x15
 7556 0312 00        		.byte	0x0
 7557 0313 05        		.uleb128 0x5
 7558 0314 02        		.byte	0x2
 7559 0315 0000 0000 		.long	.LM69
 7560 0319 15        		.byte	0x15
 7561 031a 00        		.byte	0x0
 7562 031b 05        		.uleb128 0x5
 7563 031c 02        		.byte	0x2
 7564 031d 0000 0000 		.long	.LM70
 7565 0321 1A        		.byte	0x1a
 7566 0322 00        		.byte	0x0
 7567 0323 05        		.uleb128 0x5
 7568 0324 02        		.byte	0x2
 7569 0325 0000 0000 		.long	.LM71
 7570 0329 12        		.byte	0x12
 7571 032a 00        		.byte	0x0
 7572 032b 05        		.uleb128 0x5
 7573 032c 02        		.byte	0x2
 7574 032d 0000 0000 		.long	.LM72
 7575 0331 13        		.byte	0x13
 7576 0332 00        		.byte	0x0
 7577 0333 05        		.uleb128 0x5
 7578 0334 02        		.byte	0x2
 7579 0335 0000 0000 		.long	.LM73
 7580 0339 1A        		.byte	0x1a
 7581 033a 00        		.byte	0x0
 7582 033b 05        		.uleb128 0x5
 7583 033c 02        		.byte	0x2
 7584 033d 0000 0000 		.long	.LM74
 7585 0341 16        		.byte	0x16
 7586 0342 00        		.byte	0x0
 7587 0343 05        		.uleb128 0x5
 7588 0344 02        		.byte	0x2
 7589 0345 0000 0000 		.long	.LM75
 7590 0349 03        		.byte	0x3
 7591 034a 68        		.sleb128 -24
 7592 034b 01        		.byte	0x1
 7593 034c 00        		.byte	0x0
 7594 034d 05        		.uleb128 0x5
 7595 034e 02        		.byte	0x2
 7596 034f 0000 0000 		.long	.LM76
 7597 0353 15        		.byte	0x15
 7598 0354 00        		.byte	0x0
 7599 0355 05        		.uleb128 0x5
GAS LISTING C:\Users\ADMINI~1\AppData\Local\Temp/ccYJNKdD.s 			page 141


 7600 0356 02        		.byte	0x2
 7601 0357 0000 0000 		.long	.LM77
 7602 035b 15        		.byte	0x15
 7603 035c 00        		.byte	0x0
 7604 035d 05        		.uleb128 0x5
 7605 035e 02        		.byte	0x2
 7606 035f 0000 0000 		.long	.LM78
 7607 0363 16        		.byte	0x16
 7608 0364 00        		.byte	0x0
 7609 0365 05        		.uleb128 0x5
 7610 0366 02        		.byte	0x2
 7611 0367 0000 0000 		.long	.LM79
 7612 036b 16        		.byte	0x16
 7613 036c 00        		.byte	0x0
 7614 036d 05        		.uleb128 0x5
 7615 036e 02        		.byte	0x2
 7616 036f 0000 0000 		.long	.LM80
 7617 0373 15        		.byte	0x15
 7618 0374 00        		.byte	0x0
 7619 0375 05        		.uleb128 0x5
 7620 0376 02        		.byte	0x2
 7621 0377 0000 0000 		.long	.LM81
 7622 037b 15        		.byte	0x15
 7623 037c 00        		.byte	0x0
 7624 037d 05        		.uleb128 0x5
 7625 037e 02        		.byte	0x2
 7626 037f 0000 0000 		.long	.LM82
 7627 0383 03        		.byte	0x3
 7628 0384 A47F      		.sleb128 -92
 7629 0386 01        		.byte	0x1
 7630 0387 00        		.byte	0x0
 7631 0388 05        		.uleb128 0x5
 7632 0389 02        		.byte	0x2
 7633 038a 0000 0000 		.long	.LM83
 7634 038e 15        		.byte	0x15
 7635 038f 00        		.byte	0x0
 7636 0390 05        		.uleb128 0x5
 7637 0391 02        		.byte	0x2
 7638 0392 0000 0000 		.long	.LM84
 7639 0396 03        		.byte	0x3
 7640 0397 A67D      		.sleb128 -346
 7641 0399 01        		.byte	0x1
 7642 039a 00        		.byte	0x0
 7643 039b 05        		.uleb128 0x5
 7644 039c 02        		.byte	0x2
 7645 039d 0000 0000 		.long	.LM85
 7646 03a1 15        		.byte	0x15
 7647 03a2 00        		.byte	0x0
 7648 03a3 05        		.uleb128 0x5
 7649 03a4 02        		.byte	0x2
 7650 03a5 0000 0000 		.long	.LM86
 7651 03a9 03        		.byte	0x3
 7652 03aa DE02      		.sleb128 350
 7653 03ac 01        		.byte	0x1
 7654 03ad 00        		.byte	0x0
 7655 03ae 05        		.uleb128 0x5
 7656 03af 02        		.byte	0x2
GAS LISTING C:\Users\ADMINI~1\AppData\Local\Temp/ccYJNKdD.s 			page 142


 7657 03b0 0000 0000 		.long	.LM87
 7658 03b4 15        		.byte	0x15
 7659 03b5 00        		.byte	0x0
 7660 03b6 05        		.uleb128 0x5
 7661 03b7 02        		.byte	0x2
 7662 03b8 0000 0000 		.long	.LM88
 7663 03bc 16        		.byte	0x16
 7664 03bd 00        		.byte	0x0
 7665 03be 05        		.uleb128 0x5
 7666 03bf 02        		.byte	0x2
 7667 03c0 0000 0000 		.long	.LM89
 7668 03c4 16        		.byte	0x16
 7669 03c5 00        		.byte	0x0
 7670 03c6 05        		.uleb128 0x5
 7671 03c7 02        		.byte	0x2
 7672 03c8 0000 0000 		.long	.LM90
 7673 03cc 15        		.byte	0x15
 7674 03cd 00        		.byte	0x0
 7675 03ce 05        		.uleb128 0x5
 7676 03cf 02        		.byte	0x2
 7677 03d0 0000 0000 		.long	.LM91
 7678 03d4 15        		.byte	0x15
 7679 03d5 00        		.byte	0x0
 7680 03d6 05        		.uleb128 0x5
 7681 03d7 02        		.byte	0x2
 7682 03d8 0000 0000 		.long	.LM92
 7683 03dc 03        		.byte	0x3
 7684 03dd B27F      		.sleb128 -78
 7685 03df 01        		.byte	0x1
 7686 03e0 00        		.byte	0x0
 7687 03e1 05        		.uleb128 0x5
 7688 03e2 02        		.byte	0x2
 7689 03e3 0000 0000 		.long	.LM93
 7690 03e7 15        		.byte	0x15
 7691 03e8 00        		.byte	0x0
 7692 03e9 05        		.uleb128 0x5
 7693 03ea 02        		.byte	0x2
 7694 03eb 0000 0000 		.long	.LM94
 7695 03ef 15        		.byte	0x15
 7696 03f0 00        		.byte	0x0
 7697 03f1 05        		.uleb128 0x5
 7698 03f2 02        		.byte	0x2
 7699 03f3 0000 0000 		.long	.LM95
 7700 03f7 15        		.byte	0x15
 7701 03f8 00        		.byte	0x0
 7702 03f9 05        		.uleb128 0x5
 7703 03fa 02        		.byte	0x2
 7704 03fb 0000 0000 		.long	.LM96
 7705 03ff 03        		.byte	0x3
 7706 0400 6D        		.sleb128 -19
 7707 0401 01        		.byte	0x1
 7708 0402 00        		.byte	0x0
 7709 0403 05        		.uleb128 0x5
 7710 0404 02        		.byte	0x2
 7711 0405 0000 0000 		.long	.LM97
 7712 0409 15        		.byte	0x15
 7713 040a 00        		.byte	0x0
GAS LISTING C:\Users\ADMINI~1\AppData\Local\Temp/ccYJNKdD.s 			page 143


 7714 040b 05        		.uleb128 0x5
 7715 040c 02        		.byte	0x2
 7716 040d 0000 0000 		.long	.LM98
 7717 0411 15        		.byte	0x15
 7718 0412 00        		.byte	0x0
 7719 0413 05        		.uleb128 0x5
 7720 0414 02        		.byte	0x2
 7721 0415 0000 0000 		.long	.LM99
 7722 0419 15        		.byte	0x15
 7723 041a 00        		.byte	0x0
 7724 041b 05        		.uleb128 0x5
 7725 041c 02        		.byte	0x2
 7726 041d 0000 0000 		.long	.LM100
 7727 0421 15        		.byte	0x15
 7728 0422 00        		.byte	0x0
 7729 0423 05        		.uleb128 0x5
 7730 0424 02        		.byte	0x2
 7731 0425 0000 0000 		.long	.LM101
 7732 0429 15        		.byte	0x15
 7733 042a 00        		.byte	0x0
 7734 042b 05        		.uleb128 0x5
 7735 042c 02        		.byte	0x2
 7736 042d 0000 0000 		.long	.LM102
 7737 0431 15        		.byte	0x15
 7738 0432 00        		.byte	0x0
 7739 0433 05        		.uleb128 0x5
 7740 0434 02        		.byte	0x2
 7741 0435 0000 0000 		.long	.LM103
 7742 0439 15        		.byte	0x15
 7743 043a 00        		.byte	0x0
 7744 043b 05        		.uleb128 0x5
 7745 043c 02        		.byte	0x2
 7746 043d 0000 0000 		.long	.LM104
 7747 0441 15        		.byte	0x15
 7748 0442 00        		.byte	0x0
 7749 0443 05        		.uleb128 0x5
 7750 0444 02        		.byte	0x2
 7751 0445 0000 0000 		.long	.LM105
 7752 0449 15        		.byte	0x15
 7753 044a 00        		.byte	0x0
 7754 044b 05        		.uleb128 0x5
 7755 044c 02        		.byte	0x2
 7756 044d 0000 0000 		.long	.LM106
 7757 0451 15        		.byte	0x15
 7758 0452 00        		.byte	0x0
 7759 0453 05        		.uleb128 0x5
 7760 0454 02        		.byte	0x2
 7761 0455 0000 0000 		.long	.LM107
 7762 0459 15        		.byte	0x15
 7763 045a 00        		.byte	0x0
 7764 045b 05        		.uleb128 0x5
 7765 045c 02        		.byte	0x2
 7766 045d 0000 0000 		.long	.LM108
 7767 0461 16        		.byte	0x16
 7768 0462 00        		.byte	0x0
 7769 0463 05        		.uleb128 0x5
 7770 0464 02        		.byte	0x2
GAS LISTING C:\Users\ADMINI~1\AppData\Local\Temp/ccYJNKdD.s 			page 144


 7771 0465 0000 0000 		.long	.LM109
 7772 0469 15        		.byte	0x15
 7773 046a 00        		.byte	0x0
 7774 046b 05        		.uleb128 0x5
 7775 046c 02        		.byte	0x2
 7776 046d 0000 0000 		.long	.LM110
 7777 0471 03        		.byte	0x3
 7778 0472 847F      		.sleb128 -124
 7779 0474 01        		.byte	0x1
 7780 0475 00        		.byte	0x0
 7781 0476 05        		.uleb128 0x5
 7782 0477 02        		.byte	0x2
 7783 0478 0000 0000 		.long	.LM111
 7784 047c 18        		.byte	0x18
 7785 047d 00        		.byte	0x0
 7786 047e 05        		.uleb128 0x5
 7787 047f 02        		.byte	0x2
 7788 0480 0000 0000 		.long	.LM112
 7789 0484 15        		.byte	0x15
 7790 0485 00        		.byte	0x0
 7791 0486 05        		.uleb128 0x5
 7792 0487 02        		.byte	0x2
 7793 0488 0000 0000 		.long	.LM113
 7794 048c 17        		.byte	0x17
 7795 048d 00        		.byte	0x0
 7796 048e 05        		.uleb128 0x5
 7797 048f 02        		.byte	0x2
 7798 0490 0000 0000 		.long	.LM114
 7799 0494 16        		.byte	0x16
 7800 0495 00        		.byte	0x0
 7801 0496 05        		.uleb128 0x5
 7802 0497 02        		.byte	0x2
 7803 0498 0000 0000 		.long	.LM115
 7804 049c 18        		.byte	0x18
 7805 049d 00        		.byte	0x0
 7806 049e 05        		.uleb128 0x5
 7807 049f 02        		.byte	0x2
 7808 04a0 0000 0000 		.long	.LM116
 7809 04a4 18        		.byte	0x18
 7810 04a5 00        		.byte	0x0
 7811 04a6 05        		.uleb128 0x5
 7812 04a7 02        		.byte	0x2
 7813 04a8 0000 0000 		.long	.LM117
 7814 04ac 17        		.byte	0x17
 7815 04ad 00        		.byte	0x0
 7816 04ae 05        		.uleb128 0x5
 7817 04af 02        		.byte	0x2
 7818 04b0 0000 0000 		.long	.LM118
 7819 04b4 19        		.byte	0x19
 7820 04b5 00        		.byte	0x0
 7821 04b6 05        		.uleb128 0x5
 7822 04b7 02        		.byte	0x2
 7823 04b8 0000 0000 		.long	.LM119
 7824 04bc 19        		.byte	0x19
 7825 04bd 00        		.byte	0x0
 7826 04be 05        		.uleb128 0x5
 7827 04bf 02        		.byte	0x2
GAS LISTING C:\Users\ADMINI~1\AppData\Local\Temp/ccYJNKdD.s 			page 145


 7828 04c0 0000 0000 		.long	.LM120
 7829 04c4 18        		.byte	0x18
 7830 04c5 00        		.byte	0x0
 7831 04c6 05        		.uleb128 0x5
 7832 04c7 02        		.byte	0x2
 7833 04c8 0000 0000 		.long	.LM121
 7834 04cc 17        		.byte	0x17
 7835 04cd 00        		.byte	0x0
 7836 04ce 05        		.uleb128 0x5
 7837 04cf 02        		.byte	0x2
 7838 04d0 0000 0000 		.long	.LM122
 7839 04d4 17        		.byte	0x17
 7840 04d5 00        		.byte	0x0
 7841 04d6 05        		.uleb128 0x5
 7842 04d7 02        		.byte	0x2
 7843 04d8 0000 0000 		.long	.LM123
 7844 04dc 19        		.byte	0x19
 7845 04dd 00        		.byte	0x0
 7846 04de 05        		.uleb128 0x5
 7847 04df 02        		.byte	0x2
 7848 04e0 0000 0000 		.long	.LM124
 7849 04e4 15        		.byte	0x15
 7850 04e5 00        		.byte	0x0
 7851 04e6 05        		.uleb128 0x5
 7852 04e7 02        		.byte	0x2
 7853 04e8 0000 0000 		.long	.LM125
 7854 04ec 17        		.byte	0x17
 7855 04ed 00        		.byte	0x0
 7856 04ee 05        		.uleb128 0x5
 7857 04ef 02        		.byte	0x2
 7858 04f0 0000 0000 		.long	.LM126
 7859 04f4 15        		.byte	0x15
 7860 04f5 00        		.byte	0x0
 7861 04f6 05        		.uleb128 0x5
 7862 04f7 02        		.byte	0x2
 7863 04f8 0000 0000 		.long	.LM127
 7864 04fc 15        		.byte	0x15
 7865 04fd 00        		.byte	0x0
 7866 04fe 05        		.uleb128 0x5
 7867 04ff 02        		.byte	0x2
 7868 0500 0000 0000 		.long	.LM128
 7869 0504 17        		.byte	0x17
 7870 0505 00        		.byte	0x0
 7871 0506 05        		.uleb128 0x5
 7872 0507 02        		.byte	0x2
 7873 0508 0000 0000 		.long	.LM129
 7874 050c 04        		.byte	0x4
 7875 050d 02        		.uleb128 0x2
 7876 050e 03        		.byte	0x3
 7877 050f D17D      		.sleb128 -303
 7878 0511 01        		.byte	0x1
 7879 0512 00        		.byte	0x0
 7880 0513 05        		.uleb128 0x5
 7881 0514 02        		.byte	0x2
 7882 0515 0000 0000 		.long	.LM130
 7883 0519 04        		.byte	0x4
 7884 051a 03        		.uleb128 0x3
GAS LISTING C:\Users\ADMINI~1\AppData\Local\Temp/ccYJNKdD.s 			page 146


 7885 051b 27        		.byte	0x27
 7886 051c 00        		.byte	0x0
 7887 051d 05        		.uleb128 0x5
 7888 051e 02        		.byte	0x2
 7889 051f 0000 0000 		.long	.LM131
 7890 0523 10        		.byte	0x10
 7891 0524 00        		.byte	0x0
 7892 0525 05        		.uleb128 0x5
 7893 0526 02        		.byte	0x2
 7894 0527 0000 0000 		.long	.LM132
 7895 052b 04        		.byte	0x4
 7896 052c 01        		.uleb128 0x1
 7897 052d 03        		.byte	0x3
 7898 052e A802      		.sleb128 296
 7899 0530 01        		.byte	0x1
 7900 0531 00        		.byte	0x0
 7901 0532 05        		.uleb128 0x5
 7902 0533 02        		.byte	0x2
 7903 0534 0000 0000 		.long	.LM133
 7904 0538 16        		.byte	0x16
 7905 0539 00        		.byte	0x0
 7906 053a 05        		.uleb128 0x5
 7907 053b 02        		.byte	0x2
 7908 053c 0000 0000 		.long	.LM134
 7909 0540 15        		.byte	0x15
 7910 0541 00        		.byte	0x0
 7911 0542 05        		.uleb128 0x5
 7912 0543 02        		.byte	0x2
 7913 0544 0000 0000 		.long	.LM135
 7914 0548 15        		.byte	0x15
 7915 0549 00        		.byte	0x0
 7916 054a 05        		.uleb128 0x5
 7917 054b 02        		.byte	0x2
 7918 054c 0000 0000 		.long	.LM136
 7919 0550 15        		.byte	0x15
 7920 0551 00        		.byte	0x0
 7921 0552 05        		.uleb128 0x5
 7922 0553 02        		.byte	0x2
 7923 0554 0000 0000 		.long	.LM137
 7924 0558 15        		.byte	0x15
 7925 0559 00        		.byte	0x0
 7926 055a 05        		.uleb128 0x5
 7927 055b 02        		.byte	0x2
 7928 055c 0000 0000 		.long	.LM138
 7929 0560 15        		.byte	0x15
 7930 0561 00        		.byte	0x0
 7931 0562 05        		.uleb128 0x5
 7932 0563 02        		.byte	0x2
 7933 0564 0000 0000 		.long	.LM139
 7934 0568 15        		.byte	0x15
 7935 0569 00        		.byte	0x0
 7936 056a 05        		.uleb128 0x5
 7937 056b 02        		.byte	0x2
 7938 056c 0000 0000 		.long	.LM140
 7939 0570 15        		.byte	0x15
 7940 0571 00        		.byte	0x0
 7941 0572 05        		.uleb128 0x5
GAS LISTING C:\Users\ADMINI~1\AppData\Local\Temp/ccYJNKdD.s 			page 147


 7942 0573 02        		.byte	0x2
 7943 0574 0000 0000 		.long	.LM141
 7944 0578 15        		.byte	0x15
 7945 0579 00        		.byte	0x0
 7946 057a 05        		.uleb128 0x5
 7947 057b 02        		.byte	0x2
 7948 057c 0000 0000 		.long	.LM142
 7949 0580 15        		.byte	0x15
 7950 0581 00        		.byte	0x0
 7951 0582 05        		.uleb128 0x5
 7952 0583 02        		.byte	0x2
 7953 0584 0000 0000 		.long	.LM143
 7954 0588 16        		.byte	0x16
 7955 0589 00        		.byte	0x0
 7956 058a 05        		.uleb128 0x5
 7957 058b 02        		.byte	0x2
 7958 058c 0000 0000 		.long	.LM144
 7959 0590 15        		.byte	0x15
 7960 0591 00        		.byte	0x0
 7961 0592 05        		.uleb128 0x5
 7962 0593 02        		.byte	0x2
 7963 0594 0000 0000 		.long	.LM145
 7964 0598 15        		.byte	0x15
 7965 0599 00        		.byte	0x0
 7966 059a 05        		.uleb128 0x5
 7967 059b 02        		.byte	0x2
 7968 059c 0000 0000 		.long	.LM146
 7969 05a0 17        		.byte	0x17
 7970 05a1 00        		.byte	0x0
 7971 05a2 05        		.uleb128 0x5
 7972 05a3 02        		.byte	0x2
 7973 05a4 0000 0000 		.long	.LM147
 7974 05a8 15        		.byte	0x15
 7975 05a9 00        		.byte	0x0
 7976 05aa 05        		.uleb128 0x5
 7977 05ab 02        		.byte	0x2
 7978 05ac 0000 0000 		.long	.LM148
 7979 05b0 15        		.byte	0x15
 7980 05b1 00        		.byte	0x0
 7981 05b2 05        		.uleb128 0x5
 7982 05b3 02        		.byte	0x2
 7983 05b4 0000 0000 		.long	.LM149
 7984 05b8 15        		.byte	0x15
 7985 05b9 00        		.byte	0x0
 7986 05ba 05        		.uleb128 0x5
 7987 05bb 02        		.byte	0x2
 7988 05bc 0000 0000 		.long	.LM150
 7989 05c0 15        		.byte	0x15
 7990 05c1 00        		.byte	0x0
 7991 05c2 05        		.uleb128 0x5
 7992 05c3 02        		.byte	0x2
 7993 05c4 0000 0000 		.long	.LM151
 7994 05c8 15        		.byte	0x15
 7995 05c9 00        		.byte	0x0
 7996 05ca 05        		.uleb128 0x5
 7997 05cb 02        		.byte	0x2
 7998 05cc 0000 0000 		.long	.LM152
GAS LISTING C:\Users\ADMINI~1\AppData\Local\Temp/ccYJNKdD.s 			page 148


 7999 05d0 15        		.byte	0x15
 8000 05d1 00        		.byte	0x0
 8001 05d2 05        		.uleb128 0x5
 8002 05d3 02        		.byte	0x2
 8003 05d4 0000 0000 		.long	.LM153
 8004 05d8 15        		.byte	0x15
 8005 05d9 00        		.byte	0x0
 8006 05da 05        		.uleb128 0x5
 8007 05db 02        		.byte	0x2
 8008 05dc 0000 0000 		.long	.LM154
 8009 05e0 15        		.byte	0x15
 8010 05e1 00        		.byte	0x0
 8011 05e2 05        		.uleb128 0x5
 8012 05e3 02        		.byte	0x2
 8013 05e4 0000 0000 		.long	.LM155
 8014 05e8 15        		.byte	0x15
 8015 05e9 00        		.byte	0x0
 8016 05ea 05        		.uleb128 0x5
 8017 05eb 02        		.byte	0x2
 8018 05ec 0000 0000 		.long	.LM156
 8019 05f0 16        		.byte	0x16
 8020 05f1 00        		.byte	0x0
 8021 05f2 05        		.uleb128 0x5
 8022 05f3 02        		.byte	0x2
 8023 05f4 0000 0000 		.long	.LM157
 8024 05f8 15        		.byte	0x15
 8025 05f9 00        		.byte	0x0
 8026 05fa 05        		.uleb128 0x5
 8027 05fb 02        		.byte	0x2
 8028 05fc 0000 0000 		.long	.LM158
 8029 0600 16        		.byte	0x16
 8030 0601 00        		.byte	0x0
 8031 0602 05        		.uleb128 0x5
 8032 0603 02        		.byte	0x2
 8033 0604 0000 0000 		.long	.LM159
 8034 0608 BA        		.byte	0xba
 8035 0609 00        		.byte	0x0
 8036 060a 05        		.uleb128 0x5
 8037 060b 02        		.byte	0x2
 8038 060c 0000 0000 		.long	.LM160
 8039 0610 01        		.byte	0x1
 8040 0611 00        		.byte	0x0
 8041 0612 05        		.uleb128 0x5
 8042 0613 02        		.byte	0x2
 8043 0614 0000 0000 		.long	.LM161
 8044 0618 19        		.byte	0x19
 8045 0619 00        		.byte	0x0
 8046 061a 05        		.uleb128 0x5
 8047 061b 02        		.byte	0x2
 8048 061c 0000 0000 		.long	.LM162
 8049 0620 12        		.byte	0x12
 8050 0621 00        		.byte	0x0
 8051 0622 05        		.uleb128 0x5
 8052 0623 02        		.byte	0x2
 8053 0624 0000 0000 		.long	.LM163
 8054 0628 1A        		.byte	0x1a
 8055 0629 00        		.byte	0x0
GAS LISTING C:\Users\ADMINI~1\AppData\Local\Temp/ccYJNKdD.s 			page 149


 8056 062a 05        		.uleb128 0x5
 8057 062b 02        		.byte	0x2
 8058 062c 0000 0000 		.long	.LM164
 8059 0630 15        		.byte	0x15
 8060 0631 00        		.byte	0x0
 8061 0632 05        		.uleb128 0x5
 8062 0633 02        		.byte	0x2
 8063 0634 0000 0000 		.long	.LM165
 8064 0638 15        		.byte	0x15
 8065 0639 00        		.byte	0x0
 8066 063a 05        		.uleb128 0x5
 8067 063b 02        		.byte	0x2
 8068 063c 0000 0000 		.long	.LM166
 8069 0640 03        		.byte	0x3
 8070 0641 62        		.sleb128 -30
 8071 0642 01        		.byte	0x1
 8072 0643 00        		.byte	0x0
 8073 0644 05        		.uleb128 0x5
 8074 0645 02        		.byte	0x2
 8075 0646 0000 0000 		.long	.LM167
 8076 064a 15        		.byte	0x15
 8077 064b 00        		.byte	0x0
 8078 064c 05        		.uleb128 0x5
 8079 064d 02        		.byte	0x2
 8080 064e 0000 0000 		.long	.LM168
 8081 0652 1F        		.byte	0x1f
 8082 0653 00        		.byte	0x0
 8083 0654 05        		.uleb128 0x5
 8084 0655 02        		.byte	0x2
 8085 0656 0000 0000 		.long	.LM169
 8086 065a 10        		.byte	0x10
 8087 065b 00        		.byte	0x0
 8088 065c 05        		.uleb128 0x5
 8089 065d 02        		.byte	0x2
 8090 065e 0000 0000 		.long	.LM170
 8091 0662 1C        		.byte	0x1c
 8092 0663 00        		.byte	0x0
 8093 0664 05        		.uleb128 0x5
 8094 0665 02        		.byte	0x2
 8095 0666 0000 0000 		.long	.LM171
 8096 066a 15        		.byte	0x15
 8097 066b 00        		.byte	0x0
 8098 066c 05        		.uleb128 0x5
 8099 066d 02        		.byte	0x2
 8100 066e 0000 0000 		.long	.LM172
 8101 0672 03        		.byte	0x3
 8102 0673 5C        		.sleb128 -36
 8103 0674 01        		.byte	0x1
 8104 0675 00        		.byte	0x0
 8105 0676 05        		.uleb128 0x5
 8106 0677 02        		.byte	0x2
 8107 0678 0000 0000 		.long	.LM173
 8108 067c 15        		.byte	0x15
 8109 067d 00        		.byte	0x0
 8110 067e 05        		.uleb128 0x5
 8111 067f 02        		.byte	0x2
 8112 0680 0000 0000 		.long	.LM174
GAS LISTING C:\Users\ADMINI~1\AppData\Local\Temp/ccYJNKdD.s 			page 150


 8113 0684 1C        		.byte	0x1c
 8114 0685 00        		.byte	0x0
 8115 0686 05        		.uleb128 0x5
 8116 0687 02        		.byte	0x2
 8117 0688 0000 0000 		.long	.LM175
 8118 068c 13        		.byte	0x13
 8119 068d 00        		.byte	0x0
 8120 068e 05        		.uleb128 0x5
 8121 068f 02        		.byte	0x2
 8122 0690 0000 0000 		.long	.LM176
 8123 0694 16        		.byte	0x16
 8124 0695 00        		.byte	0x0
 8125 0696 05        		.uleb128 0x5
 8126 0697 02        		.byte	0x2
 8127 0698 0000 0000 		.long	.LM177
 8128 069c 16        		.byte	0x16
 8129 069d 00        		.byte	0x0
 8130 069e 05        		.uleb128 0x5
 8131 069f 02        		.byte	0x2
 8132 06a0 0000 0000 		.long	.LM178
 8133 06a4 15        		.byte	0x15
 8134 06a5 00        		.byte	0x0
 8135 06a6 05        		.uleb128 0x5
 8136 06a7 02        		.byte	0x2
 8137 06a8 0000 0000 		.long	.LM179
 8138 06ac 0F        		.byte	0xf
 8139 06ad 00        		.byte	0x0
 8140 06ae 05        		.uleb128 0x5
 8141 06af 02        		.byte	0x2
 8142 06b0 0000 0000 		.long	.LM180
 8143 06b4 1D        		.byte	0x1d
 8144 06b5 00        		.byte	0x0
 8145 06b6 05        		.uleb128 0x5
 8146 06b7 02        		.byte	0x2
 8147 06b8 0000 0000 		.long	.LM181
 8148 06bc 03        		.byte	0x3
 8149 06bd 947F      		.sleb128 -108
 8150 06bf 01        		.byte	0x1
 8151 06c0 00        		.byte	0x0
 8152 06c1 05        		.uleb128 0x5
 8153 06c2 02        		.byte	0x2
 8154 06c3 0000 0000 		.long	.LM182
 8155 06c7 01        		.byte	0x1
 8156 06c8 00        		.byte	0x0
 8157 06c9 05        		.uleb128 0x5
 8158 06ca 02        		.byte	0x2
 8159 06cb 0000 0000 		.long	.LM183
 8160 06cf 1B        		.byte	0x1b
 8161 06d0 00        		.byte	0x0
 8162 06d1 05        		.uleb128 0x5
 8163 06d2 02        		.byte	0x2
 8164 06d3 0000 0000 		.long	.LM184
 8165 06d7 11        		.byte	0x11
 8166 06d8 00        		.byte	0x0
 8167 06d9 05        		.uleb128 0x5
 8168 06da 02        		.byte	0x2
 8169 06db 0000 0000 		.long	.LM185
GAS LISTING C:\Users\ADMINI~1\AppData\Local\Temp/ccYJNKdD.s 			page 151


 8170 06df 13        		.byte	0x13
 8171 06e0 00        		.byte	0x0
 8172 06e1 05        		.uleb128 0x5
 8173 06e2 02        		.byte	0x2
 8174 06e3 0000 0000 		.long	.LM186
 8175 06e7 1B        		.byte	0x1b
 8176 06e8 00        		.byte	0x0
 8177 06e9 05        		.uleb128 0x5
 8178 06ea 02        		.byte	0x2
 8179 06eb 0000 0000 		.long	.LM187
 8180 06ef 15        		.byte	0x15
 8181 06f0 00        		.byte	0x0
 8182 06f1 05        		.uleb128 0x5
 8183 06f2 02        		.byte	0x2
 8184 06f3 0000 0000 		.long	.LM188
 8185 06f7 BA        		.byte	0xba
 8186 06f8 00        		.byte	0x0
 8187 06f9 05        		.uleb128 0x5
 8188 06fa 02        		.byte	0x2
 8189 06fb 0000 0000 		.long	.LM189
 8190 06ff 16        		.byte	0x16
 8191 0700 00        		.byte	0x0
 8192 0701 05        		.uleb128 0x5
 8193 0702 02        		.byte	0x2
 8194 0703 0000 0000 		.long	.LM190
 8195 0707 18        		.byte	0x18
 8196 0708 00        		.byte	0x0
 8197 0709 05        		.uleb128 0x5
 8198 070a 02        		.byte	0x2
 8199 070b 0000 0000 		.long	.LM191
 8200 070f 1D        		.byte	0x1d
 8201 0710 00        		.byte	0x0
 8202 0711 05        		.uleb128 0x5
 8203 0712 02        		.byte	0x2
 8204 0713 0000 0000 		.long	.LM192
 8205 0717 16        		.byte	0x16
 8206 0718 00        		.byte	0x0
 8207 0719 05        		.uleb128 0x5
 8208 071a 02        		.byte	0x2
 8209 071b 0000 0000 		.long	.LM193
 8210 071f 15        		.byte	0x15
 8211 0720 00        		.byte	0x0
 8212 0721 05        		.uleb128 0x5
 8213 0722 02        		.byte	0x2
 8214 0723 0000 0000 		.long	.LM194
 8215 0727 15        		.byte	0x15
 8216 0728 00        		.byte	0x0
 8217 0729 05        		.uleb128 0x5
 8218 072a 02        		.byte	0x2
 8219 072b 0000 0000 		.long	.LM195
 8220 072f 15        		.byte	0x15
 8221 0730 00        		.byte	0x0
 8222 0731 05        		.uleb128 0x5
 8223 0732 02        		.byte	0x2
 8224 0733 0000 0000 		.long	.LM196
 8225 0737 16        		.byte	0x16
 8226 0738 00        		.byte	0x0
GAS LISTING C:\Users\ADMINI~1\AppData\Local\Temp/ccYJNKdD.s 			page 152


 8227 0739 05        		.uleb128 0x5
 8228 073a 02        		.byte	0x2
 8229 073b 0000 0000 		.long	.LM197
 8230 073f 16        		.byte	0x16
 8231 0740 00        		.byte	0x0
 8232 0741 05        		.uleb128 0x5
 8233 0742 02        		.byte	0x2
 8234 0743 0000 0000 		.long	.LM198
 8235 0747 15        		.byte	0x15
 8236 0748 00        		.byte	0x0
 8237 0749 05        		.uleb128 0x5
 8238 074a 02        		.byte	0x2
 8239 074b 0000 0000 		.long	.LM199
 8240 074f 15        		.byte	0x15
 8241 0750 00        		.byte	0x0
 8242 0751 05        		.uleb128 0x5
 8243 0752 02        		.byte	0x2
 8244 0753 0000 0000 		.long	.LM200
 8245 0757 1B        		.byte	0x1b
 8246 0758 00        		.byte	0x0
 8247 0759 05        		.uleb128 0x5
 8248 075a 02        		.byte	0x2
 8249 075b 0000 0000 		.long	.LM201
 8250 075f 15        		.byte	0x15
 8251 0760 00        		.byte	0x0
 8252 0761 05        		.uleb128 0x5
 8253 0762 02        		.byte	0x2
 8254 0763 0000 0000 		.long	.LM202
 8255 0767 17        		.byte	0x17
 8256 0768 00        		.byte	0x0
 8257 0769 05        		.uleb128 0x5
 8258 076a 02        		.byte	0x2
 8259 076b 0000 0000 		.long	.LM203
 8260 076f 17        		.byte	0x17
 8261 0770 00        		.byte	0x0
 8262 0771 05        		.uleb128 0x5
 8263 0772 02        		.byte	0x2
 8264 0773 0000 0000 		.long	.LM204
 8265 0777 17        		.byte	0x17
 8266 0778 00        		.byte	0x0
 8267 0779 05        		.uleb128 0x5
 8268 077a 02        		.byte	0x2
 8269 077b 0000 0000 		.long	.LM205
 8270 077f 15        		.byte	0x15
 8271 0780 00        		.byte	0x0
 8272 0781 05        		.uleb128 0x5
 8273 0782 02        		.byte	0x2
 8274 0783 0000 0000 		.long	.LM206
 8275 0787 16        		.byte	0x16
 8276 0788 00        		.byte	0x0
 8277 0789 05        		.uleb128 0x5
 8278 078a 02        		.byte	0x2
 8279 078b 0000 0000 		.long	.LM207
 8280 078f 17        		.byte	0x17
 8281 0790 00        		.byte	0x0
 8282 0791 05        		.uleb128 0x5
 8283 0792 02        		.byte	0x2
GAS LISTING C:\Users\ADMINI~1\AppData\Local\Temp/ccYJNKdD.s 			page 153


 8284 0793 0000 0000 		.long	.LM208
 8285 0797 18        		.byte	0x18
 8286 0798 00        		.byte	0x0
 8287 0799 05        		.uleb128 0x5
 8288 079a 02        		.byte	0x2
 8289 079b 0000 0000 		.long	.LM209
 8290 079f 15        		.byte	0x15
 8291 07a0 00        		.byte	0x0
 8292 07a1 05        		.uleb128 0x5
 8293 07a2 02        		.byte	0x2
 8294 07a3 0000 0000 		.long	.LM210
 8295 07a7 16        		.byte	0x16
 8296 07a8 00        		.byte	0x0
 8297 07a9 05        		.uleb128 0x5
 8298 07aa 02        		.byte	0x2
 8299 07ab 0000 0000 		.long	.LM211
 8300 07af 19        		.byte	0x19
 8301 07b0 00        		.byte	0x0
 8302 07b1 05        		.uleb128 0x5
 8303 07b2 02        		.byte	0x2
 8304 07b3 0000 0000 		.long	.LM212
 8305 07b7 15        		.byte	0x15
 8306 07b8 00        		.byte	0x0
 8307 07b9 05        		.uleb128 0x5
 8308 07ba 02        		.byte	0x2
 8309 07bb 0000 0000 		.long	.LM213
 8310 07bf 17        		.byte	0x17
 8311 07c0 00        		.byte	0x0
 8312 07c1 05        		.uleb128 0x5
 8313 07c2 02        		.byte	0x2
 8314 07c3 0000 0000 		.long	.LM214
 8315 07c7 1B        		.byte	0x1b
 8316 07c8 00        		.byte	0x0
 8317 07c9 05        		.uleb128 0x5
 8318 07ca 02        		.byte	0x2
 8319 07cb 0000 0000 		.long	.LM215
 8320 07cf 16        		.byte	0x16
 8321 07d0 00        		.byte	0x0
 8322 07d1 05        		.uleb128 0x5
 8323 07d2 02        		.byte	0x2
 8324 07d3 0000 0000 		.long	.LM216
 8325 07d7 15        		.byte	0x15
 8326 07d8 00        		.byte	0x0
 8327 07d9 05        		.uleb128 0x5
 8328 07da 02        		.byte	0x2
 8329 07db 0000 0000 		.long	.LM217
 8330 07df 16        		.byte	0x16
 8331 07e0 00        		.byte	0x0
 8332 07e1 05        		.uleb128 0x5
 8333 07e2 02        		.byte	0x2
 8334 07e3 0000 0000 		.long	.LM218
 8335 07e7 15        		.byte	0x15
 8336 07e8 00        		.byte	0x0
 8337 07e9 05        		.uleb128 0x5
 8338 07ea 02        		.byte	0x2
 8339 07eb 0000 0000 		.long	.LM219
 8340 07ef 1D        		.byte	0x1d
GAS LISTING C:\Users\ADMINI~1\AppData\Local\Temp/ccYJNKdD.s 			page 154


 8341 07f0 00        		.byte	0x0
 8342 07f1 05        		.uleb128 0x5
 8343 07f2 02        		.byte	0x2
 8344 07f3 0000 0000 		.long	.LM220
 8345 07f7 15        		.byte	0x15
 8346 07f8 00        		.byte	0x0
 8347 07f9 05        		.uleb128 0x5
 8348 07fa 02        		.byte	0x2
 8349 07fb 0000 0000 		.long	.LM221
 8350 07ff 15        		.byte	0x15
 8351 0800 00        		.byte	0x0
 8352 0801 05        		.uleb128 0x5
 8353 0802 02        		.byte	0x2
 8354 0803 0000 0000 		.long	.LM222
 8355 0807 16        		.byte	0x16
 8356 0808 00        		.byte	0x0
 8357 0809 05        		.uleb128 0x5
 8358 080a 02        		.byte	0x2
 8359 080b 0000 0000 		.long	.LM223
 8360 080f 15        		.byte	0x15
 8361 0810 00        		.byte	0x0
 8362 0811 05        		.uleb128 0x5
 8363 0812 02        		.byte	0x2
 8364 0813 0000 0000 		.long	.LM224
 8365 0817 15        		.byte	0x15
 8366 0818 00        		.byte	0x0
 8367 0819 05        		.uleb128 0x5
 8368 081a 02        		.byte	0x2
 8369 081b 0000 0000 		.long	.LM225
 8370 081f 17        		.byte	0x17
 8371 0820 00        		.byte	0x0
 8372 0821 05        		.uleb128 0x5
 8373 0822 02        		.byte	0x2
 8374 0823 0000 0000 		.long	.LM226
 8375 0827 16        		.byte	0x16
 8376 0828 00        		.byte	0x0
 8377 0829 05        		.uleb128 0x5
 8378 082a 02        		.byte	0x2
 8379 082b 0000 0000 		.long	.LM227
 8380 082f 15        		.byte	0x15
 8381 0830 00        		.byte	0x0
 8382 0831 05        		.uleb128 0x5
 8383 0832 02        		.byte	0x2
 8384 0833 0000 0000 		.long	.LM228
 8385 0837 15        		.byte	0x15
 8386 0838 00        		.byte	0x0
 8387 0839 05        		.uleb128 0x5
 8388 083a 02        		.byte	0x2
 8389 083b 0000 0000 		.long	.LM229
 8390 083f 03        		.byte	0x3
 8391 0840 C97D      		.sleb128 -311
 8392 0842 01        		.byte	0x1
 8393 0843 00        		.byte	0x0
 8394 0844 05        		.uleb128 0x5
 8395 0845 02        		.byte	0x2
 8396 0846 0000 0000 		.long	.LM230
 8397 084a 15        		.byte	0x15
GAS LISTING C:\Users\ADMINI~1\AppData\Local\Temp/ccYJNKdD.s 			page 155


 8398 084b 00        		.byte	0x0
 8399 084c 05        		.uleb128 0x5
 8400 084d 02        		.byte	0x2
 8401 084e 0000 0000 		.long	.LM231
 8402 0852 15        		.byte	0x15
 8403 0853 00        		.byte	0x0
 8404 0854 05        		.uleb128 0x5
 8405 0855 02        		.byte	0x2
 8406 0856 0000 0000 		.long	.LM232
 8407 085a 15        		.byte	0x15
 8408 085b 00        		.byte	0x0
 8409 085c 05        		.uleb128 0x5
 8410 085d 02        		.byte	0x2
 8411 085e 0000 0000 		.long	.LM233
 8412 0862 15        		.byte	0x15
 8413 0863 00        		.byte	0x0
 8414 0864 05        		.uleb128 0x5
 8415 0865 02        		.byte	0x2
 8416 0866 0000 0000 		.long	.LM234
 8417 086a 15        		.byte	0x15
 8418 086b 00        		.byte	0x0
 8419 086c 05        		.uleb128 0x5
 8420 086d 02        		.byte	0x2
 8421 086e 0000 0000 		.long	.LM235
 8422 0872 17        		.byte	0x17
 8423 0873 00        		.byte	0x0
 8424 0874 05        		.uleb128 0x5
 8425 0875 02        		.byte	0x2
 8426 0876 0000 0000 		.long	.LM236
 8427 087a 15        		.byte	0x15
 8428 087b 00        		.byte	0x0
 8429 087c 05        		.uleb128 0x5
 8430 087d 02        		.byte	0x2
 8431 087e 0000 0000 		.long	.LM237
 8432 0882 15        		.byte	0x15
 8433 0883 00        		.byte	0x0
 8434 0884 05        		.uleb128 0x5
 8435 0885 02        		.byte	0x2
 8436 0886 0000 0000 		.long	.LM238
 8437 088a 03        		.byte	0x3
 8438 088b AF02      		.sleb128 303
 8439 088d 01        		.byte	0x1
 8440 088e 00        		.byte	0x0
 8441 088f 05        		.uleb128 0x5
 8442 0890 02        		.byte	0x2
 8443 0891 0000 0000 		.long	.LM239
 8444 0895 15        		.byte	0x15
 8445 0896 00        		.byte	0x0
 8446 0897 05        		.uleb128 0x5
 8447 0898 02        		.byte	0x2
 8448 0899 0000 0000 		.long	.LM240
 8449 089d 15        		.byte	0x15
 8450 089e 00        		.byte	0x0
 8451 089f 05        		.uleb128 0x5
 8452 08a0 02        		.byte	0x2
 8453 08a1 0000 0000 		.long	.LM241
 8454 08a5 15        		.byte	0x15
GAS LISTING C:\Users\ADMINI~1\AppData\Local\Temp/ccYJNKdD.s 			page 156


 8455 08a6 00        		.byte	0x0
 8456 08a7 05        		.uleb128 0x5
 8457 08a8 02        		.byte	0x2
 8458 08a9 0000 0000 		.long	.LM242
 8459 08ad 15        		.byte	0x15
 8460 08ae 00        		.byte	0x0
 8461 08af 05        		.uleb128 0x5
 8462 08b0 02        		.byte	0x2
 8463 08b1 0000 0000 		.long	.LM243
 8464 08b5 15        		.byte	0x15
 8465 08b6 00        		.byte	0x0
 8466 08b7 05        		.uleb128 0x5
 8467 08b8 02        		.byte	0x2
 8468 08b9 0000 0000 		.long	.LM244
 8469 08bd 18        		.byte	0x18
 8470 08be 00        		.byte	0x0
 8471 08bf 05        		.uleb128 0x5
 8472 08c0 02        		.byte	0x2
 8473 08c1 0000 0000 		.long	.LM245
 8474 08c5 15        		.byte	0x15
 8475 08c6 00        		.byte	0x0
 8476 08c7 05        		.uleb128 0x5
 8477 08c8 02        		.byte	0x2
 8478 08c9 0000 0000 		.long	.LM246
 8479 08cd 17        		.byte	0x17
 8480 08ce 00        		.byte	0x0
 8481 08cf 05        		.uleb128 0x5
 8482 08d0 02        		.byte	0x2
 8483 08d1 0000 0000 		.long	.LM247
 8484 08d5 15        		.byte	0x15
 8485 08d6 00        		.byte	0x0
 8486 08d7 05        		.uleb128 0x5
 8487 08d8 02        		.byte	0x2
 8488 08d9 0000 0000 		.long	.LM248
 8489 08dd 16        		.byte	0x16
 8490 08de 00        		.byte	0x0
 8491 08df 05        		.uleb128 0x5
 8492 08e0 02        		.byte	0x2
 8493 08e1 0000 0000 		.long	.LM249
 8494 08e5 15        		.byte	0x15
 8495 08e6 00        		.byte	0x0
 8496 08e7 05        		.uleb128 0x5
 8497 08e8 02        		.byte	0x2
 8498 08e9 0000 0000 		.long	.LM250
 8499 08ed 15        		.byte	0x15
 8500 08ee 00        		.byte	0x0
 8501 08ef 05        		.uleb128 0x5
 8502 08f0 02        		.byte	0x2
 8503 08f1 0000 0000 		.long	.LM251
 8504 08f5 15        		.byte	0x15
 8505 08f6 00        		.byte	0x0
 8506 08f7 05        		.uleb128 0x5
 8507 08f8 02        		.byte	0x2
 8508 08f9 0000 0000 		.long	.LM252
 8509 08fd 17        		.byte	0x17
 8510 08fe 00        		.byte	0x0
 8511 08ff 05        		.uleb128 0x5
GAS LISTING C:\Users\ADMINI~1\AppData\Local\Temp/ccYJNKdD.s 			page 157


 8512 0900 02        		.byte	0x2
 8513 0901 0000 0000 		.long	.LM253
 8514 0905 15        		.byte	0x15
 8515 0906 00        		.byte	0x0
 8516 0907 05        		.uleb128 0x5
 8517 0908 02        		.byte	0x2
 8518 0909 0000 0000 		.long	.LM254
 8519 090d 15        		.byte	0x15
 8520 090e 00        		.byte	0x0
 8521 090f 05        		.uleb128 0x5
 8522 0910 02        		.byte	0x2
 8523 0911 0000 0000 		.long	.LM255
 8524 0915 17        		.byte	0x17
 8525 0916 00        		.byte	0x0
 8526 0917 05        		.uleb128 0x5
 8527 0918 02        		.byte	0x2
 8528 0919 0000 0000 		.long	.LM256
 8529 091d 16        		.byte	0x16
 8530 091e 00        		.byte	0x0
 8531 091f 05        		.uleb128 0x5
 8532 0920 02        		.byte	0x2
 8533 0921 0000 0000 		.long	.LM257
 8534 0925 17        		.byte	0x17
 8535 0926 00        		.byte	0x0
 8536 0927 05        		.uleb128 0x5
 8537 0928 02        		.byte	0x2
 8538 0929 0000 0000 		.long	.LM258
 8539 092d 15        		.byte	0x15
 8540 092e 00        		.byte	0x0
 8541 092f 05        		.uleb128 0x5
 8542 0930 02        		.byte	0x2
 8543 0931 0000 0000 		.long	.LM259
 8544 0935 15        		.byte	0x15
 8545 0936 00        		.byte	0x0
 8546 0937 05        		.uleb128 0x5
 8547 0938 02        		.byte	0x2
 8548 0939 0000 0000 		.long	.LM260
 8549 093d 15        		.byte	0x15
 8550 093e 00        		.byte	0x0
 8551 093f 05        		.uleb128 0x5
 8552 0940 02        		.byte	0x2
 8553 0941 0000 0000 		.long	.LM261
 8554 0945 15        		.byte	0x15
 8555 0946 00        		.byte	0x0
 8556 0947 05        		.uleb128 0x5
 8557 0948 02        		.byte	0x2
 8558 0949 0000 0000 		.long	.LM262
 8559 094d 03        		.byte	0x3
 8560 094e A77B      		.sleb128 -601
 8561 0950 01        		.byte	0x1
 8562 0951 00        		.byte	0x0
 8563 0952 05        		.uleb128 0x5
 8564 0953 02        		.byte	0x2
 8565 0954 0000 0000 		.long	.LM263
 8566 0958 15        		.byte	0x15
 8567 0959 00        		.byte	0x0
 8568 095a 05        		.uleb128 0x5
GAS LISTING C:\Users\ADMINI~1\AppData\Local\Temp/ccYJNKdD.s 			page 158


 8569 095b 02        		.byte	0x2
 8570 095c 0000 0000 		.long	.LM264
 8571 0960 03        		.byte	0x3
 8572 0961 DA04      		.sleb128 602
 8573 0963 01        		.byte	0x1
 8574 0964 00        		.byte	0x0
 8575 0965 05        		.uleb128 0x5
 8576 0966 02        		.byte	0x2
 8577 0967 0000 0000 		.long	.LM265
 8578 096b 15        		.byte	0x15
 8579 096c 00        		.byte	0x0
 8580 096d 05        		.uleb128 0x5
 8581 096e 02        		.byte	0x2
 8582 096f 0000 0000 		.long	.LM266
 8583 0973 15        		.byte	0x15
 8584 0974 00        		.byte	0x0
 8585 0975 05        		.uleb128 0x5
 8586 0976 02        		.byte	0x2
 8587 0977 0000 0000 		.long	.LM267
 8588 097b 1E        		.byte	0x1e
 8589 097c 00        		.byte	0x0
 8590 097d 05        		.uleb128 0x5
 8591 097e 02        		.byte	0x2
 8592 097f 0000 0000 		.long	.LM268
 8593 0983 16        		.byte	0x16
 8594 0984 00        		.byte	0x0
 8595 0985 05        		.uleb128 0x5
 8596 0986 02        		.byte	0x2
 8597 0987 0000 0000 		.long	.LM269
 8598 098b 16        		.byte	0x16
 8599 098c 00        		.byte	0x0
 8600 098d 05        		.uleb128 0x5
 8601 098e 02        		.byte	0x2
 8602 098f 0000 0000 		.long	.LM270
 8603 0993 15        		.byte	0x15
 8604 0994 00        		.byte	0x0
 8605 0995 05        		.uleb128 0x5
 8606 0996 02        		.byte	0x2
 8607 0997 0000 0000 		.long	.LM271
 8608 099b 16        		.byte	0x16
 8609 099c 00        		.byte	0x0
 8610 099d 05        		.uleb128 0x5
 8611 099e 02        		.byte	0x2
 8612 099f 0000 0000 		.long	.LM272
 8613 09a3 15        		.byte	0x15
 8614 09a4 00        		.byte	0x0
 8615 09a5 05        		.uleb128 0x5
 8616 09a6 02        		.byte	0x2
 8617 09a7 0000 0000 		.long	.LM273
 8618 09ab 1D        		.byte	0x1d
 8619 09ac 00        		.byte	0x0
 8620 09ad 05        		.uleb128 0x5
 8621 09ae 02        		.byte	0x2
 8622 09af 0000 0000 		.long	.LM274
 8623 09b3 16        		.byte	0x16
 8624 09b4 00        		.byte	0x0
 8625 09b5 05        		.uleb128 0x5
GAS LISTING C:\Users\ADMINI~1\AppData\Local\Temp/ccYJNKdD.s 			page 159


 8626 09b6 02        		.byte	0x2
 8627 09b7 0000 0000 		.long	.LM275
 8628 09bb 16        		.byte	0x16
 8629 09bc 00        		.byte	0x0
 8630 09bd 05        		.uleb128 0x5
 8631 09be 02        		.byte	0x2
 8632 09bf 0000 0000 		.long	.LM276
 8633 09c3 16        		.byte	0x16
 8634 09c4 00        		.byte	0x0
 8635 09c5 05        		.uleb128 0x5
 8636 09c6 02        		.byte	0x2
 8637 09c7 0000 0000 		.long	.LM277
 8638 09cb 16        		.byte	0x16
 8639 09cc 00        		.byte	0x0
 8640 09cd 05        		.uleb128 0x5
 8641 09ce 02        		.byte	0x2
 8642 09cf 0000 0000 		.long	.LM278
 8643 09d3 17        		.byte	0x17
 8644 09d4 00        		.byte	0x0
 8645 09d5 05        		.uleb128 0x5
 8646 09d6 02        		.byte	0x2
 8647 09d7 0000 0000 		.long	.LM279
 8648 09db 15        		.byte	0x15
 8649 09dc 00        		.byte	0x0
 8650 09dd 05        		.uleb128 0x5
 8651 09de 02        		.byte	0x2
 8652 09df 0000 0000 		.long	.LM280
 8653 09e3 15        		.byte	0x15
 8654 09e4 00        		.byte	0x0
 8655 09e5 05        		.uleb128 0x5
 8656 09e6 02        		.byte	0x2
 8657 09e7 0000 0000 		.long	.LM281
 8658 09eb 15        		.byte	0x15
 8659 09ec 00        		.byte	0x0
 8660 09ed 05        		.uleb128 0x5
 8661 09ee 02        		.byte	0x2
 8662 09ef 0000 0000 		.long	.LM282
 8663 09f3 16        		.byte	0x16
 8664 09f4 00        		.byte	0x0
 8665 09f5 05        		.uleb128 0x5
 8666 09f6 02        		.byte	0x2
 8667 09f7 0000 0000 		.long	.LM283
 8668 09fb 15        		.byte	0x15
 8669 09fc 00        		.byte	0x0
 8670 09fd 05        		.uleb128 0x5
 8671 09fe 02        		.byte	0x2
 8672 09ff 0000 0000 		.long	.LM284
 8673 0a03 1E        		.byte	0x1e
 8674 0a04 00        		.byte	0x0
 8675 0a05 05        		.uleb128 0x5
 8676 0a06 02        		.byte	0x2
 8677 0a07 0000 0000 		.long	.LM285
 8678 0a0b 04        		.byte	0x4
 8679 0a0c 02        		.uleb128 0x2
 8680 0a0d 03        		.byte	0x3
 8681 0a0e 8F7A      		.sleb128 -753
 8682 0a10 01        		.byte	0x1
GAS LISTING C:\Users\ADMINI~1\AppData\Local\Temp/ccYJNKdD.s 			page 160


 8683 0a11 00        		.byte	0x0
 8684 0a12 05        		.uleb128 0x5
 8685 0a13 02        		.byte	0x2
 8686 0a14 0000 0000 		.long	.LM286
 8687 0a18 04        		.byte	0x4
 8688 0a19 03        		.uleb128 0x3
 8689 0a1a 27        		.byte	0x27
 8690 0a1b 00        		.byte	0x0
 8691 0a1c 05        		.uleb128 0x5
 8692 0a1d 02        		.byte	0x2
 8693 0a1e 0000 0000 		.long	.LM287
 8694 0a22 10        		.byte	0x10
 8695 0a23 00        		.byte	0x0
 8696 0a24 05        		.uleb128 0x5
 8697 0a25 02        		.byte	0x2
 8698 0a26 0000 0000 		.long	.LM288
 8699 0a2a 04        		.byte	0x4
 8700 0a2b 01        		.uleb128 0x1
 8701 0a2c 03        		.byte	0x3
 8702 0a2d E505      		.sleb128 741
 8703 0a2f 01        		.byte	0x1
 8704 0a30 00        		.byte	0x0
 8705 0a31 05        		.uleb128 0x5
 8706 0a32 02        		.byte	0x2
 8707 0a33 0000 0000 		.long	.LM289
 8708 0a37 16        		.byte	0x16
 8709 0a38 00        		.byte	0x0
 8710 0a39 05        		.uleb128 0x5
 8711 0a3a 02        		.byte	0x2
 8712 0a3b 0000 0000 		.long	.LM290
 8713 0a3f 12        		.byte	0x12
 8714 0a40 00        		.byte	0x0
 8715 0a41 05        		.uleb128 0x5
 8716 0a42 02        		.byte	0x2
 8717 0a43 0000 0000 		.long	.LM291
 8718 0a47 16        		.byte	0x16
 8719 0a48 00        		.byte	0x0
 8720 0a49 05        		.uleb128 0x5
 8721 0a4a 02        		.byte	0x2
 8722 0a4b 0000 0000 		.long	.LM292
 8723 0a4f 15        		.byte	0x15
 8724 0a50 00        		.byte	0x0
 8725 0a51 05        		.uleb128 0x5
 8726 0a52 02        		.byte	0x2
 8727 0a53 0000 0000 		.long	.LM293
 8728 0a57 15        		.byte	0x15
 8729 0a58 00        		.byte	0x0
 8730 0a59 05        		.uleb128 0x5
 8731 0a5a 02        		.byte	0x2
 8732 0a5b 0000 0000 		.long	.LM294
 8733 0a5f 15        		.byte	0x15
 8734 0a60 00        		.byte	0x0
 8735 0a61 05        		.uleb128 0x5
 8736 0a62 02        		.byte	0x2
 8737 0a63 0000 0000 		.long	.LM295
 8738 0a67 15        		.byte	0x15
 8739 0a68 00        		.byte	0x0
GAS LISTING C:\Users\ADMINI~1\AppData\Local\Temp/ccYJNKdD.s 			page 161


 8740 0a69 05        		.uleb128 0x5
 8741 0a6a 02        		.byte	0x2
 8742 0a6b 0000 0000 		.long	.LM296
 8743 0a6f 15        		.byte	0x15
 8744 0a70 00        		.byte	0x0
 8745 0a71 05        		.uleb128 0x5
 8746 0a72 02        		.byte	0x2
 8747 0a73 0000 0000 		.long	.LM297
 8748 0a77 15        		.byte	0x15
 8749 0a78 00        		.byte	0x0
 8750 0a79 05        		.uleb128 0x5
 8751 0a7a 02        		.byte	0x2
 8752 0a7b 0000 0000 		.long	.LM298
 8753 0a7f 16        		.byte	0x16
 8754 0a80 00        		.byte	0x0
 8755 0a81 05        		.uleb128 0x5
 8756 0a82 02        		.byte	0x2
 8757 0a83 0000 0000 		.long	.LM299
 8758 0a87 15        		.byte	0x15
 8759 0a88 00        		.byte	0x0
 8760 0a89 05        		.uleb128 0x5
 8761 0a8a 02        		.byte	0x2
 8762 0a8b 0000 0000 		.long	.LM300
 8763 0a8f 15        		.byte	0x15
 8764 0a90 00        		.byte	0x0
 8765 0a91 05        		.uleb128 0x5
 8766 0a92 02        		.byte	0x2
 8767 0a93 0000 0000 		.long	.LM301
 8768 0a97 15        		.byte	0x15
 8769 0a98 00        		.byte	0x0
 8770 0a99 05        		.uleb128 0x5
 8771 0a9a 02        		.byte	0x2
 8772 0a9b 0000 0000 		.long	.LM302
 8773 0a9f 15        		.byte	0x15
 8774 0aa0 00        		.byte	0x0
 8775 0aa1 05        		.uleb128 0x5
 8776 0aa2 02        		.byte	0x2
 8777 0aa3 0000 0000 		.long	.LM303
 8778 0aa7 15        		.byte	0x15
 8779 0aa8 00        		.byte	0x0
 8780 0aa9 05        		.uleb128 0x5
 8781 0aaa 02        		.byte	0x2
 8782 0aab 0000 0000 		.long	.LM304
 8783 0aaf 17        		.byte	0x17
 8784 0ab0 00        		.byte	0x0
 8785 0ab1 05        		.uleb128 0x5
 8786 0ab2 02        		.byte	0x2
 8787 0ab3 0000 0000 		.long	.LM305
 8788 0ab7 15        		.byte	0x15
 8789 0ab8 00        		.byte	0x0
 8790 0ab9 05        		.uleb128 0x5
 8791 0aba 02        		.byte	0x2
 8792 0abb 0000 0000 		.long	.LM306
 8793 0abf 1B        		.byte	0x1b
 8794 0ac0 00        		.byte	0x0
 8795 0ac1 05        		.uleb128 0x5
 8796 0ac2 02        		.byte	0x2
GAS LISTING C:\Users\ADMINI~1\AppData\Local\Temp/ccYJNKdD.s 			page 162


 8797 0ac3 0000 0000 		.long	.LM307
 8798 0ac7 15        		.byte	0x15
 8799 0ac8 00        		.byte	0x0
 8800 0ac9 05        		.uleb128 0x5
 8801 0aca 02        		.byte	0x2
 8802 0acb 0000 0000 		.long	.LM308
 8803 0acf 15        		.byte	0x15
 8804 0ad0 00        		.byte	0x0
 8805 0ad1 05        		.uleb128 0x5
 8806 0ad2 02        		.byte	0x2
 8807 0ad3 0000 0000 		.long	.LM309
 8808 0ad7 15        		.byte	0x15
 8809 0ad8 00        		.byte	0x0
 8810 0ad9 05        		.uleb128 0x5
 8811 0ada 02        		.byte	0x2
 8812 0adb 0000 0000 		.long	.LM310
 8813 0adf 15        		.byte	0x15
 8814 0ae0 00        		.byte	0x0
 8815 0ae1 05        		.uleb128 0x5
 8816 0ae2 02        		.byte	0x2
 8817 0ae3 0000 0000 		.long	.LM311
 8818 0ae7 15        		.byte	0x15
 8819 0ae8 00        		.byte	0x0
 8820 0ae9 05        		.uleb128 0x5
 8821 0aea 02        		.byte	0x2
 8822 0aeb 0000 0000 		.long	.LM312
 8823 0aef 15        		.byte	0x15
 8824 0af0 00        		.byte	0x0
 8825 0af1 05        		.uleb128 0x5
 8826 0af2 02        		.byte	0x2
 8827 0af3 0000 0000 		.long	.LM313
 8828 0af7 15        		.byte	0x15
 8829 0af8 00        		.byte	0x0
 8830 0af9 05        		.uleb128 0x5
 8831 0afa 02        		.byte	0x2
 8832 0afb 0000 0000 		.long	.LM314
 8833 0aff 15        		.byte	0x15
 8834 0b00 00        		.byte	0x0
 8835 0b01 05        		.uleb128 0x5
 8836 0b02 02        		.byte	0x2
 8837 0b03 0000 0000 		.long	.LM315
 8838 0b07 03        		.byte	0x3
 8839 0b08 F67A      		.sleb128 -650
 8840 0b0a 01        		.byte	0x1
 8841 0b0b 00        		.byte	0x0
 8842 0b0c 05        		.uleb128 0x5
 8843 0b0d 02        		.byte	0x2
 8844 0b0e 0000 0000 		.long	.LM316
 8845 0b12 03        		.byte	0x3
 8846 0b13 8C05      		.sleb128 652
 8847 0b15 01        		.byte	0x1
 8848 0b16 00        		.byte	0x0
 8849 0b17 05        		.uleb128 0x5
 8850 0b18 02        		.byte	0x2
 8851 0b19 0000 0000 		.long	.LM317
 8852 0b1d 15        		.byte	0x15
 8853 0b1e 00        		.byte	0x0
GAS LISTING C:\Users\ADMINI~1\AppData\Local\Temp/ccYJNKdD.s 			page 163


 8854 0b1f 05        		.uleb128 0x5
 8855 0b20 02        		.byte	0x2
 8856 0b21 0000 0000 		.long	.LM318
 8857 0b25 16        		.byte	0x16
 8858 0b26 00        		.byte	0x0
 8859 0b27 05        		.uleb128 0x5
 8860 0b28 02        		.byte	0x2
 8861 0b29 0000 0000 		.long	.LM319
 8862 0b2d 15        		.byte	0x15
 8863 0b2e 00        		.byte	0x0
 8864 0b2f 05        		.uleb128 0x5
 8865 0b30 02        		.byte	0x2
 8866 0b31 0000 0000 		.long	.LM320
 8867 0b35 15        		.byte	0x15
 8868 0b36 00        		.byte	0x0
 8869 0b37 05        		.uleb128 0x5
 8870 0b38 02        		.byte	0x2
 8871 0b39 0000 0000 		.long	.LM321
 8872 0b3d 16        		.byte	0x16
 8873 0b3e 00        		.byte	0x0
 8874 0b3f 05        		.uleb128 0x5
 8875 0b40 02        		.byte	0x2
 8876 0b41 0000 0000 		.long	.LM322
 8877 0b45 16        		.byte	0x16
 8878 0b46 00        		.byte	0x0
 8879 0b47 05        		.uleb128 0x5
 8880 0b48 02        		.byte	0x2
 8881 0b49 0000 0000 		.long	.LM323
 8882 0b4d 18        		.byte	0x18
 8883 0b4e 00        		.byte	0x0
 8884 0b4f 05        		.uleb128 0x5
 8885 0b50 02        		.byte	0x2
 8886 0b51 0000 0000 		.long	.LM324
 8887 0b55 16        		.byte	0x16
 8888 0b56 00        		.byte	0x0
 8889 0b57 05        		.uleb128 0x5
 8890 0b58 02        		.byte	0x2
 8891 0b59 0000 0000 		.long	.LM325
 8892 0b5d 16        		.byte	0x16
 8893 0b5e 00        		.byte	0x0
 8894 0b5f 05        		.uleb128 0x5
 8895 0b60 02        		.byte	0x2
 8896 0b61 0000 0000 		.long	.LM326
 8897 0b65 17        		.byte	0x17
 8898 0b66 00        		.byte	0x0
 8899 0b67 05        		.uleb128 0x5
 8900 0b68 02        		.byte	0x2
 8901 0b69 0000 0000 		.long	.LM327
 8902 0b6d 19        		.byte	0x19
 8903 0b6e 00        		.byte	0x0
 8904 0b6f 05        		.uleb128 0x5
 8905 0b70 02        		.byte	0x2
 8906 0b71 0000 0000 		.long	.LM328
 8907 0b75 15        		.byte	0x15
 8908 0b76 00        		.byte	0x0
 8909 0b77 05        		.uleb128 0x5
 8910 0b78 02        		.byte	0x2
GAS LISTING C:\Users\ADMINI~1\AppData\Local\Temp/ccYJNKdD.s 			page 164


 8911 0b79 0000 0000 		.long	.LM329
 8912 0b7d 15        		.byte	0x15
 8913 0b7e 00        		.byte	0x0
 8914 0b7f 05        		.uleb128 0x5
 8915 0b80 02        		.byte	0x2
 8916 0b81 0000 0000 		.long	.LM330
 8917 0b85 15        		.byte	0x15
 8918 0b86 00        		.byte	0x0
 8919 0b87 05        		.uleb128 0x5
 8920 0b88 02        		.byte	0x2
 8921 0b89 0000 0000 		.long	.LM331
 8922 0b8d 17        		.byte	0x17
 8923 0b8e 00        		.byte	0x0
 8924 0b8f 05        		.uleb128 0x5
 8925 0b90 02        		.byte	0x2
 8926 0b91 0000 0000 		.long	.LM332
 8927 0b95 15        		.byte	0x15
 8928 0b96 00        		.byte	0x0
 8929 0b97 05        		.uleb128 0x5
 8930 0b98 02        		.byte	0x2
 8931 0b99 0000 0000 		.long	.LM333
 8932 0b9d 17        		.byte	0x17
 8933 0b9e 00        		.byte	0x0
 8934 0b9f 05        		.uleb128 0x5
 8935 0ba0 02        		.byte	0x2
 8936 0ba1 0000 0000 		.long	.LM334
 8937 0ba5 15        		.byte	0x15
 8938 0ba6 00        		.byte	0x0
 8939 0ba7 05        		.uleb128 0x5
 8940 0ba8 02        		.byte	0x2
 8941 0ba9 0000 0000 		.long	.LM335
 8942 0bad 15        		.byte	0x15
 8943 0bae 00        		.byte	0x0
 8944 0baf 05        		.uleb128 0x5
 8945 0bb0 02        		.byte	0x2
 8946 0bb1 0000 0000 		.long	.LM336
 8947 0bb5 04        		.byte	0x4
 8948 0bb6 02        		.uleb128 0x2
 8949 0bb7 03        		.byte	0x3
 8950 0bb8 C379      		.sleb128 -829
 8951 0bba 01        		.byte	0x1
 8952 0bbb 00        		.byte	0x0
 8953 0bbc 05        		.uleb128 0x5
 8954 0bbd 02        		.byte	0x2
 8955 0bbe 0000 0000 		.long	.LM337
 8956 0bc2 04        		.byte	0x4
 8957 0bc3 03        		.uleb128 0x3
 8958 0bc4 27        		.byte	0x27
 8959 0bc5 00        		.byte	0x0
 8960 0bc6 05        		.uleb128 0x5
 8961 0bc7 02        		.byte	0x2
 8962 0bc8 0000 0000 		.long	.LM338
 8963 0bcc 10        		.byte	0x10
 8964 0bcd 00        		.byte	0x0
 8965 0bce 05        		.uleb128 0x5
 8966 0bcf 02        		.byte	0x2
 8967 0bd0 0000 0000 		.long	.LM339
GAS LISTING C:\Users\ADMINI~1\AppData\Local\Temp/ccYJNKdD.s 			page 165


 8968 0bd4 04        		.byte	0x4
 8969 0bd5 01        		.uleb128 0x1
 8970 0bd6 03        		.byte	0x3
 8971 0bd7 B606      		.sleb128 822
 8972 0bd9 01        		.byte	0x1
 8973 0bda 00        		.byte	0x0
 8974 0bdb 05        		.uleb128 0x5
 8975 0bdc 02        		.byte	0x2
 8976 0bdd 0000 0000 		.long	.LM340
 8977 0be1 17        		.byte	0x17
 8978 0be2 00        		.byte	0x0
 8979 0be3 05        		.uleb128 0x5
 8980 0be4 02        		.byte	0x2
 8981 0be5 0000 0000 		.long	.LM341
 8982 0be9 03        		.byte	0x3
 8983 0bea CE7C      		.sleb128 -434
 8984 0bec 01        		.byte	0x1
 8985 0bed 00        		.byte	0x0
 8986 0bee 05        		.uleb128 0x5
 8987 0bef 02        		.byte	0x2
 8988 0bf0 0000 0000 		.long	.LM342
 8989 0bf4 01        		.byte	0x1
 8990 0bf5 00        		.byte	0x0
 8991 0bf6 05        		.uleb128 0x5
 8992 0bf7 02        		.byte	0x2
 8993 0bf8 0000 0000 		.long	.LM343
 8994 0bfc 1D        		.byte	0x1d
 8995 0bfd 00        		.byte	0x0
 8996 0bfe 05        		.uleb128 0x5
 8997 0bff 02        		.byte	0x2
 8998 0c00 0000 0000 		.long	.LM344
 8999 0c04 10        		.byte	0x10
 9000 0c05 00        		.byte	0x0
 9001 0c06 05        		.uleb128 0x5
 9002 0c07 02        		.byte	0x2
 9003 0c08 0000 0000 		.long	.LM345
 9004 0c0c 13        		.byte	0x13
 9005 0c0d 00        		.byte	0x0
 9006 0c0e 05        		.uleb128 0x5
 9007 0c0f 02        		.byte	0x2
 9008 0c10 0000 0000 		.long	.LM346
 9009 0c14 1C        		.byte	0x1c
 9010 0c15 00        		.byte	0x0
 9011 0c16 05        		.uleb128 0x5
 9012 0c17 02        		.byte	0x2
 9013 0c18 0000 0000 		.long	.LM347
 9014 0c1c 16        		.byte	0x16
 9015 0c1d 00        		.byte	0x0
 9016 0c1e 05        		.uleb128 0x5
 9017 0c1f 02        		.byte	0x2
 9018 0c20 0000 0000 		.long	.LM348
 9019 0c24 16        		.byte	0x16
 9020 0c25 00        		.byte	0x0
 9021 0c26 05        		.uleb128 0x5
 9022 0c27 02        		.byte	0x2
 9023 0c28 0000 0000 		.long	.LM349
 9024 0c2c 03        		.byte	0x3
GAS LISTING C:\Users\ADMINI~1\AppData\Local\Temp/ccYJNKdD.s 			page 166


 9025 0c2d B87D      		.sleb128 -328
 9026 0c2f 01        		.byte	0x1
 9027 0c30 00        		.byte	0x0
 9028 0c31 05        		.uleb128 0x5
 9029 0c32 02        		.byte	0x2
 9030 0c33 0000 0000 		.long	.LM350
 9031 0c37 15        		.byte	0x15
 9032 0c38 00        		.byte	0x0
 9033 0c39 05        		.uleb128 0x5
 9034 0c3a 02        		.byte	0x2
 9035 0c3b 0000 0000 		.long	.LM351
 9036 0c3f 03        		.byte	0x3
 9037 0c40 C902      		.sleb128 329
 9038 0c42 01        		.byte	0x1
 9039 0c43 00        		.byte	0x0
 9040 0c44 05        		.uleb128 0x5
 9041 0c45 02        		.byte	0x2
 9042 0c46 0000 0000 		.long	.LM352
 9043 0c4a 16        		.byte	0x16
 9044 0c4b 00        		.byte	0x0
 9045 0c4c 05        		.uleb128 0x5
 9046 0c4d 02        		.byte	0x2
 9047 0c4e 0000 0000 		.long	.LM353
 9048 0c52 15        		.byte	0x15
 9049 0c53 00        		.byte	0x0
 9050 0c54 05        		.uleb128 0x5
 9051 0c55 02        		.byte	0x2
 9052 0c56 0000 0000 		.long	.LM354
 9053 0c5a 15        		.byte	0x15
 9054 0c5b 00        		.byte	0x0
 9055 0c5c 05        		.uleb128 0x5
 9056 0c5d 02        		.byte	0x2
 9057 0c5e 0000 0000 		.long	.LM355
 9058 0c62 15        		.byte	0x15
 9059 0c63 00        		.byte	0x0
 9060 0c64 05        		.uleb128 0x5
 9061 0c65 02        		.byte	0x2
 9062 0c66 0000 0000 		.long	.LM356
 9063 0c6a 15        		.byte	0x15
 9064 0c6b 00        		.byte	0x0
 9065 0c6c 05        		.uleb128 0x5
 9066 0c6d 02        		.byte	0x2
 9067 0c6e 0000 0000 		.long	.LM357
 9068 0c72 15        		.byte	0x15
 9069 0c73 00        		.byte	0x0
 9070 0c74 05        		.uleb128 0x5
 9071 0c75 02        		.byte	0x2
 9072 0c76 0000 0000 		.long	.LM358
 9073 0c7a 18        		.byte	0x18
 9074 0c7b 00        		.byte	0x0
 9075 0c7c 05        		.uleb128 0x5
 9076 0c7d 02        		.byte	0x2
 9077 0c7e 0000 0000 		.long	.LM359
 9078 0c82 15        		.byte	0x15
 9079 0c83 00        		.byte	0x0
 9080 0c84 05        		.uleb128 0x5
 9081 0c85 02        		.byte	0x2
GAS LISTING C:\Users\ADMINI~1\AppData\Local\Temp/ccYJNKdD.s 			page 167


 9082 0c86 0000 0000 		.long	.LM360
 9083 0c8a 03        		.byte	0x3
 9084 0c8b 56        		.sleb128 -42
 9085 0c8c 01        		.byte	0x1
 9086 0c8d 00        		.byte	0x0
 9087 0c8e 05        		.uleb128 0x5
 9088 0c8f 02        		.byte	0x2
 9089 0c90 0000 0000 		.long	.LM361
 9090 0c94 15        		.byte	0x15
 9091 0c95 00        		.byte	0x0
 9092 0c96 05        		.uleb128 0x5
 9093 0c97 02        		.byte	0x2
 9094 0c98 0000 0000 		.long	.LM362
 9095 0c9c 15        		.byte	0x15
 9096 0c9d 00        		.byte	0x0
 9097 0c9e 05        		.uleb128 0x5
 9098 0c9f 02        		.byte	0x2
 9099 0ca0 0000 0000 		.long	.LM363
 9100 0ca4 15        		.byte	0x15
 9101 0ca5 00        		.byte	0x0
 9102 0ca6 05        		.uleb128 0x5
 9103 0ca7 02        		.byte	0x2
 9104 0ca8 0000 0000 		.long	.LM364
 9105 0cac 15        		.byte	0x15
 9106 0cad 00        		.byte	0x0
 9107 0cae 05        		.uleb128 0x5
 9108 0caf 02        		.byte	0x2
 9109 0cb0 0000 0000 		.long	.LM365
 9110 0cb4 16        		.byte	0x16
 9111 0cb5 00        		.byte	0x0
 9112 0cb6 05        		.uleb128 0x5
 9113 0cb7 02        		.byte	0x2
 9114 0cb8 0000 0000 		.long	.LM366
 9115 0cbc 16        		.byte	0x16
 9116 0cbd 00        		.byte	0x0
 9117 0cbe 05        		.uleb128 0x5
 9118 0cbf 02        		.byte	0x2
 9119 0cc0 0000 0000 		.long	.LM367
 9120 0cc4 15        		.byte	0x15
 9121 0cc5 00        		.byte	0x0
 9122 0cc6 05        		.uleb128 0x5
 9123 0cc7 02        		.byte	0x2
 9124 0cc8 0000 0000 		.long	.LM368
 9125 0ccc 03        		.byte	0x3
 9126 0ccd 957E      		.sleb128 -235
 9127 0ccf 01        		.byte	0x1
 9128 0cd0 00        		.byte	0x0
 9129 0cd1 05        		.uleb128 0x5
 9130 0cd2 02        		.byte	0x2
 9131 0cd3 0000 0000 		.long	.LM369
 9132 0cd7 16        		.byte	0x16
 9133 0cd8 00        		.byte	0x0
 9134 0cd9 05        		.uleb128 0x5
 9135 0cda 02        		.byte	0x2
 9136 0cdb 0000 0000 		.long	.LM370
 9137 0cdf 03        		.byte	0x3
 9138 0ce0 6A        		.sleb128 -22
GAS LISTING C:\Users\ADMINI~1\AppData\Local\Temp/ccYJNKdD.s 			page 168


 9139 0ce1 01        		.byte	0x1
 9140 0ce2 00        		.byte	0x0
 9141 0ce3 05        		.uleb128 0x5
 9142 0ce4 02        		.byte	0x2
 9143 0ce5 0000 0000 		.long	.LM371
 9144 0ce9 38        		.byte	0x38
 9145 0cea 00        		.byte	0x0
 9146 0ceb 05        		.uleb128 0x5
 9147 0cec 02        		.byte	0x2
 9148 0ced 0000 0000 		.long	.LM372
 9149 0cf1 03        		.byte	0x3
 9150 0cf2 54        		.sleb128 -44
 9151 0cf3 01        		.byte	0x1
 9152 0cf4 00        		.byte	0x0
 9153 0cf5 05        		.uleb128 0x5
 9154 0cf6 02        		.byte	0x2
 9155 0cf7 0000 0000 		.long	.LM373
 9156 0cfb 45        		.byte	0x45
 9157 0cfc 00        		.byte	0x0
 9158 0cfd 05        		.uleb128 0x5
 9159 0cfe 02        		.byte	0x2
 9160 0cff 0000 0000 		.long	.LM374
 9161 0d03 03        		.byte	0x3
 9162 0d04 8B02      		.sleb128 267
 9163 0d06 01        		.byte	0x1
 9164 0d07 00        		.byte	0x0
 9165 0d08 05        		.uleb128 0x5
 9166 0d09 02        		.byte	0x2
 9167 0d0a 0000 0000 		.long	.LM375
 9168 0d0e 15        		.byte	0x15
 9169 0d0f 00        		.byte	0x0
 9170 0d10 05        		.uleb128 0x5
 9171 0d11 02        		.byte	0x2
 9172 0d12 0000 0000 		.long	.LM376
 9173 0d16 03        		.byte	0x3
 9174 0d17 D07D      		.sleb128 -304
 9175 0d19 01        		.byte	0x1
 9176 0d1a 00        		.byte	0x0
 9177 0d1b 05        		.uleb128 0x5
 9178 0d1c 02        		.byte	0x2
 9179 0d1d 0000 0000 		.long	.LM377
 9180 0d21 03        		.byte	0x3
 9181 0d22 B402      		.sleb128 308
 9182 0d24 01        		.byte	0x1
 9183 0d25 00        		.byte	0x0
 9184 0d26 05        		.uleb128 0x5
 9185 0d27 02        		.byte	0x2
 9186 0d28 0000 0000 		.long	.LM378
 9187 0d2c 16        		.byte	0x16
 9188 0d2d 00        		.byte	0x0
 9189 0d2e 05        		.uleb128 0x5
 9190 0d2f 02        		.byte	0x2
 9191 0d30 0000 0000 		.long	.LM379
 9192 0d34 15        		.byte	0x15
 9193 0d35 00        		.byte	0x0
 9194 0d36 05        		.uleb128 0x5
 9195 0d37 02        		.byte	0x2
GAS LISTING C:\Users\ADMINI~1\AppData\Local\Temp/ccYJNKdD.s 			page 169


 9196 0d38 0000 0000 		.long	.LM380
 9197 0d3c 16        		.byte	0x16
 9198 0d3d 00        		.byte	0x0
 9199 0d3e 05        		.uleb128 0x5
 9200 0d3f 02        		.byte	0x2
 9201 0d40 0000 0000 		.long	.LM381
 9202 0d44 17        		.byte	0x17
 9203 0d45 00        		.byte	0x0
 9204 0d46 05        		.uleb128 0x5
 9205 0d47 02        		.byte	0x2
 9206 0d48 0000 0000 		.long	.LM382
 9207 0d4c 03        		.byte	0x3
 9208 0d4d FF7C      		.sleb128 -385
 9209 0d4f 01        		.byte	0x1
 9210 0d50 00        		.byte	0x0
 9211 0d51 05        		.uleb128 0x5
 9212 0d52 02        		.byte	0x2
 9213 0d53 0000 0000 		.long	.LM383
 9214 0d57 03        		.byte	0x3
 9215 0d58 B97F      		.sleb128 -71
 9216 0d5a 01        		.byte	0x1
 9217 0d5b 00        		.byte	0x0
 9218 0d5c 05        		.uleb128 0x5
 9219 0d5d 02        		.byte	0x2
 9220 0d5e 0000 0000 		.long	.LM384
 9221 0d62 5C        		.byte	0x5c
 9222 0d63 00        		.byte	0x0
 9223 0d64 05        		.uleb128 0x5
 9224 0d65 02        		.byte	0x2
 9225 0d66 0000 0000 		.long	.LM385
 9226 0d6a 03        		.byte	0x3
 9227 0d6b 64        		.sleb128 -28
 9228 0d6c 01        		.byte	0x1
 9229 0d6d 00        		.byte	0x0
 9230 0d6e 05        		.uleb128 0x5
 9231 0d6f 02        		.byte	0x2
 9232 0d70 0000 0000 		.long	.LM386
 9233 0d74 16        		.byte	0x16
 9234 0d75 00        		.byte	0x0
 9235 0d76 05        		.uleb128 0x5
 9236 0d77 02        		.byte	0x2
 9237 0d78 0000 0000 		.long	.LM387
 9238 0d7c 03        		.byte	0x3
 9239 0d7d 6D        		.sleb128 -19
 9240 0d7e 01        		.byte	0x1
 9241 0d7f 00        		.byte	0x0
 9242 0d80 05        		.uleb128 0x5
 9243 0d81 02        		.byte	0x2
 9244 0d82 0000 0000 		.long	.LM388
 9245 0d86 03        		.byte	0x3
 9246 0d87 61        		.sleb128 -31
 9247 0d88 01        		.byte	0x1
 9248 0d89 00        		.byte	0x0
 9249 0d8a 05        		.uleb128 0x5
 9250 0d8b 02        		.byte	0x2
 9251 0d8c 0000 0000 		.long	.LM389
 9252 0d90 37        		.byte	0x37
GAS LISTING C:\Users\ADMINI~1\AppData\Local\Temp/ccYJNKdD.s 			page 170


 9253 0d91 00        		.byte	0x0
 9254 0d92 05        		.uleb128 0x5
 9255 0d93 02        		.byte	0x2
 9256 0d94 0000 0000 		.long	.LM390
 9257 0d98 15        		.byte	0x15
 9258 0d99 00        		.byte	0x0
 9259 0d9a 05        		.uleb128 0x5
 9260 0d9b 02        		.byte	0x2
 9261 0d9c 0000 0000 		.long	.LM391
 9262 0da0 16        		.byte	0x16
 9263 0da1 00        		.byte	0x0
 9264 0da2 05        		.uleb128 0x5
 9265 0da3 02        		.byte	0x2
 9266 0da4 0000 0000 		.long	.LM392
 9267 0da8 15        		.byte	0x15
 9268 0da9 00        		.byte	0x0
 9269 0daa 05        		.uleb128 0x5
 9270 0dab 02        		.byte	0x2
 9271 0dac 0000 0000 		.long	.LM393
 9272 0db0 18        		.byte	0x18
 9273 0db1 00        		.byte	0x0
 9274 0db2 05        		.uleb128 0x5
 9275 0db3 02        		.byte	0x2
 9276 0db4 0000 0000 		.long	.LM394
 9277 0db8 16        		.byte	0x16
 9278 0db9 00        		.byte	0x0
 9279 0dba 05        		.uleb128 0x5
 9280 0dbb 02        		.byte	0x2
 9281 0dbc 0000 0000 		.long	.LM395
 9282 0dc0 42        		.byte	0x42
 9283 0dc1 00        		.byte	0x0
 9284 0dc2 05        		.uleb128 0x5
 9285 0dc3 02        		.byte	0x2
 9286 0dc4 0000 0000 		.long	.LM396
 9287 0dc8 15        		.byte	0x15
 9288 0dc9 00        		.byte	0x0
 9289 0dca 05        		.uleb128 0x5
 9290 0dcb 02        		.byte	0x2
 9291 0dcc 0000 0000 		.long	.LM397
 9292 0dd0 15        		.byte	0x15
 9293 0dd1 00        		.byte	0x0
 9294 0dd2 05        		.uleb128 0x5
 9295 0dd3 02        		.byte	0x2
 9296 0dd4 0000 0000 		.long	.LM398
 9297 0dd8 15        		.byte	0x15
 9298 0dd9 00        		.byte	0x0
 9299 0dda 05        		.uleb128 0x5
 9300 0ddb 02        		.byte	0x2
 9301 0ddc 0000 0000 		.long	.LM399
 9302 0de0 19        		.byte	0x19
 9303 0de1 00        		.byte	0x0
 9304 0de2 05        		.uleb128 0x5
 9305 0de3 02        		.byte	0x2
 9306 0de4 0000 0000 		.long	.LM400
 9307 0de8 15        		.byte	0x15
 9308 0de9 00        		.byte	0x0
 9309 0dea 05        		.uleb128 0x5
GAS LISTING C:\Users\ADMINI~1\AppData\Local\Temp/ccYJNKdD.s 			page 171


 9310 0deb 02        		.byte	0x2
 9311 0dec 0000 0000 		.long	.LM401
 9312 0df0 16        		.byte	0x16
 9313 0df1 00        		.byte	0x0
 9314 0df2 05        		.uleb128 0x5
 9315 0df3 02        		.byte	0x2
 9316 0df4 0000 0000 		.long	.LM402
 9317 0df8 15        		.byte	0x15
 9318 0df9 00        		.byte	0x0
 9319 0dfa 05        		.uleb128 0x5
 9320 0dfb 02        		.byte	0x2
 9321 0dfc 0000 0000 		.long	.LM403
 9322 0e00 17        		.byte	0x17
 9323 0e01 00        		.byte	0x0
 9324 0e02 05        		.uleb128 0x5
 9325 0e03 02        		.byte	0x2
 9326 0e04 0000 0000 		.long	.LM404
 9327 0e08 15        		.byte	0x15
 9328 0e09 00        		.byte	0x0
 9329 0e0a 05        		.uleb128 0x5
 9330 0e0b 02        		.byte	0x2
 9331 0e0c 0000 0000 		.long	.LM405
 9332 0e10 16        		.byte	0x16
 9333 0e11 00        		.byte	0x0
 9334 0e12 05        		.uleb128 0x5
 9335 0e13 02        		.byte	0x2
 9336 0e14 0000 0000 		.long	.LM406
 9337 0e18 15        		.byte	0x15
 9338 0e19 00        		.byte	0x0
 9339 0e1a 05        		.uleb128 0x5
 9340 0e1b 02        		.byte	0x2
 9341 0e1c 0000 0000 		.long	.LM407
 9342 0e20 16        		.byte	0x16
 9343 0e21 00        		.byte	0x0
 9344 0e22 05        		.uleb128 0x5
 9345 0e23 02        		.byte	0x2
 9346 0e24 0000 0000 		.long	.LM408
 9347 0e28 15        		.byte	0x15
 9348 0e29 00        		.byte	0x0
 9349 0e2a 05        		.uleb128 0x5
 9350 0e2b 02        		.byte	0x2
 9351 0e2c 0000 0000 		.long	.LM409
 9352 0e30 17        		.byte	0x17
 9353 0e31 00        		.byte	0x0
 9354 0e32 05        		.uleb128 0x5
 9355 0e33 02        		.byte	0x2
 9356 0e34 0000 0000 		.long	.LM410
 9357 0e38 16        		.byte	0x16
 9358 0e39 00        		.byte	0x0
 9359 0e3a 05        		.uleb128 0x5
 9360 0e3b 02        		.byte	0x2
 9361 0e3c 0000 0000 		.long	.LM411
 9362 0e40 17        		.byte	0x17
 9363 0e41 00        		.byte	0x0
 9364 0e42 05        		.uleb128 0x5
 9365 0e43 02        		.byte	0x2
 9366 0e44 0000 0000 		.long	.LM412
GAS LISTING C:\Users\ADMINI~1\AppData\Local\Temp/ccYJNKdD.s 			page 172


 9367 0e48 15        		.byte	0x15
 9368 0e49 00        		.byte	0x0
 9369 0e4a 05        		.uleb128 0x5
 9370 0e4b 02        		.byte	0x2
 9371 0e4c 0000 0000 		.long	.LM413
 9372 0e50 15        		.byte	0x15
 9373 0e51 00        		.byte	0x0
 9374 0e52 05        		.uleb128 0x5
 9375 0e53 02        		.byte	0x2
 9376 0e54 0000 0000 		.long	.LM414
 9377 0e58 03        		.byte	0x3
 9378 0e59 46        		.sleb128 -58
 9379 0e5a 01        		.byte	0x1
 9380 0e5b 00        		.byte	0x0
 9381 0e5c 05        		.uleb128 0x5
 9382 0e5d 02        		.byte	0x2
 9383 0e5e 0000 0000 		.long	.LM415
 9384 0e62 15        		.byte	0x15
 9385 0e63 00        		.byte	0x0
 9386 0e64 05        		.uleb128 0x5
 9387 0e65 02        		.byte	0x2
 9388 0e66 0000 0000 		.long	.LM416
 9389 0e6a 15        		.byte	0x15
 9390 0e6b 00        		.byte	0x0
 9391 0e6c 05        		.uleb128 0x5
 9392 0e6d 02        		.byte	0x2
 9393 0e6e 0000 0000 		.long	.LM417
 9394 0e72 15        		.byte	0x15
 9395 0e73 00        		.byte	0x0
 9396 0e74 05        		.uleb128 0x5
 9397 0e75 02        		.byte	0x2
 9398 0e76 0000 0000 		.long	.Letext0
 9399 0e7a 00        		.byte	0x0
 9400 0e7b 01        		.uleb128 0x1
 9401 0e7c 01        		.byte	0x1
 9402               	.LELT0:
 9403 0e7d 1600 0000 		.section	.debug_str,"MS",@progbits,1
 9403      0200 1000 
 9403      0000 0101 
 9403      FB0E 0A00 
 9403      0101 0101 
 9404               	.LASF181:
 9405 0000 5F5F 6164 		.string	"__addr16"
 9405      6472 3136 
 9405      00
 9406               	.LASF203:
 9407 0009 7072 696E 		.string	"printStringFromFlash"
 9407      7453 7472 
 9407      696E 6746 
 9407      726F 6D46 
 9407      6C61 7368 
 9408               	.LASF252:
 9409 001e 5F63 7572 		.string	"_currentLayer"
 9409      7265 6E74 
 9409      4C61 7965 
 9409      7200 
 9410               	.LASF95:
GAS LISTING C:\Users\ADMINI~1\AppData\Local\Temp/ccYJNKdD.s 			page 173


 9411 002c 4B45 595F 		.string	"KEY_SCRLCK"
 9411      5343 524C 
 9411      434B 00
 9412               	.LASF248:
 9413 0037 5F62 7566 		.string	"_buffer"
 9413      6665 7200 
 9414               	.LASF254:
 9415 003f 7573 696E 		.string	"usingKeys"
 9415      674B 6579 
 9415      7300 
 9416               	.LASF159:
 9417 0049 4B45 595F 		.string	"KEY_REC"
 9417      5245 4300 
 9418               	.LASF279:
 9419 0051 7374 725F 		.string	"str_cancel_mapping"
 9419      6361 6E63 
 9419      656C 5F6D 
 9419      6170 7069 
 9419      6E67 00
 9420               	.LASF212:
 9421 0064 7072 696E 		.string	"printMapperMessageAfter"
 9421      744D 6170 
 9421      7065 724D 
 9421      6573 7361 
 9421      6765 4166 
 9422               	.LASF283:
 9423 007c 7374 725F 		.string	"str_save_layer"
 9423      7361 7665 
 9423      5F6C 6179 
 9423      6572 00
 9424               	.LASF268:
 9425 008b 7374 725F 		.string	"str_mapper_message"
 9425      6D61 7070 
 9425      6572 5F6D 
 9425      6573 7361 
 9425      6765 00
 9426               	.LASF218:
 9427 009e 7265 6164 		.string	"readMacro"
 9427      4D61 6372 
 9427      6F00 
 9428               	.LASF246:
 9429 00a8 5F63 6F6C 		.string	"_col"
 9429      00
 9430               	.LASF259:
 9431 00ad 7374 725F 		.string	"str_select_mode1"
 9431      7365 6C65 
 9431      6374 5F6D 
 9431      6F64 6531 
 9431      00
 9432               	.LASF260:
 9433 00be 7374 725F 		.string	"str_select_mode2"
 9433      7365 6C65 
 9433      6374 5F6D 
 9433      6F64 6532 
 9433      00
 9434               	.LASF132:
 9435 00cf 4B45 595F 		.string	"KEY_RSHIFT"
GAS LISTING C:\Users\ADMINI~1\AppData\Local\Temp/ccYJNKdD.s 			page 174


 9435      5253 4849 
 9435      4654 00
 9436               	.LASF207:
 9437 00da 7361 7665 		.string	"saveCurrentLayer"
 9437      4375 7272 
 9437      656E 744C 
 9437      6179 6572 
 9437      00
 9438               	.LASF165:
 9439 00eb 4B45 595F 		.string	"KEY_HANJA"
 9439      4841 4E4A 
 9439      4100 
 9440               	.LASF227:
 9441 00f5 7072 6570 		.string	"prepareKeyMapper"
 9441      6172 654B 
 9441      6579 4D61 
 9441      7070 6572 
 9441      00
 9442               	.LASF145:
 9443 0106 4B45 595F 		.string	"KEY_WWW_STOP"
 9443      5757 575F 
 9443      5354 4F50 
 9443      00
 9444               	.LASF117:
 9445 0113 4B45 595F 		.string	"KEY_KP_5"
 9445      4B50 5F35 
 9445      00
 9446               	.LASF158:
 9447 011c 4B45 595F 		.string	"KEY_SCREENSAVE"
 9447      5343 5245 
 9447      454E 5341 
 9447      5645 00
 9448               	.LASF151:
 9449 012b 4B45 595F 		.string	"KEY_PLAY"
 9449      504C 4159 
 9449      00
 9450               	.LASF8:
 9451 0134 756E 7369 		.string	"unsigned int"
 9451      676E 6564 
 9451      2069 6E74 
 9451      00
 9452               	.LASF161:
 9453 0141 4B45 595F 		.string	"KEY_MINIMIZE"
 9453      4D49 4E49 
 9453      4D49 5A45 
 9453      00
 9454               	.LASF133:
 9455 014e 4B45 595F 		.string	"KEY_RALT"
 9455      5241 4C54 
 9455      00
 9456               	.LASF276:
 9457 0157 7374 725F 		.string	"str_choose_key"
 9457      6368 6F6F 
 9457      7365 5F6B 
 9457      6579 00
 9458               	.LASF160:
 9459 0166 4B45 595F 		.string	"KEY_REWIND"
GAS LISTING C:\Users\ADMINI~1\AppData\Local\Temp/ccYJNKdD.s 			page 175


 9459      5245 5749 
 9459      4E44 00
 9460               	.LASF107:
 9461 0171 4B45 595F 		.string	"KEY_NUMLOCK"
 9461      4E55 4D4C 
 9461      4F43 4B00 
 9462               	.LASF238:
 9463 017d 656E 6162 		.string	"enabledKeyMappingCount"
 9463      6C65 644B 
 9463      6579 4D61 
 9463      7070 696E 
 9463      6743 6F75 
 9464               	.LASF223:
 9465 0194 674C 6179 		.string	"gLayer"
 9465      6572 00
 9466               	.LASF193:
 9467 019b 7374 6F70 		.string	"stopKeyMapping"
 9467      4B65 794D 
 9467      6170 7069 
 9467      6E67 00
 9468               	.LASF280:
 9469 01aa 7374 725F 		.string	"str_reset_mapping"
 9469      7265 7365 
 9469      745F 6D61 
 9469      7070 696E 
 9469      6700 
 9470               	.LASF257:
 9471 01bc 6B65 796D 		.string	"keymap_code"
 9471      6170 5F63 
 9471      6F64 6500 
 9472               	.LASF149:
 9473 01c8 4B45 595F 		.string	"KEY_PREV_TRK"
 9473      5052 4556 
 9473      5F54 524B 
 9473      00
 9474               	.LASF235:
 9475 01d5 656E 7465 		.string	"enterFrameForMapper"
 9475      7246 7261 
 9475      6D65 466F 
 9475      724D 6170 
 9475      7065 7200 
 9476               	.LASF157:
 9477 01e9 4B45 595F 		.string	"KEY_MYCOM"
 9477      4D59 434F 
 9477      4D00 
 9478               	.LASF134:
 9479 01f3 4B45 595F 		.string	"KEY_RGUI"
 9479      5247 5549 
 9479      00
 9480               	.LASF79:
 9481 01fc 4B45 595F 		.string	"KEY_DOT"
 9481      444F 5400 
 9482               	.LASF168:
 9483 0204 6D6F 6465 		.string	"mode"
 9483      00
 9484               	.LASF136:
 9485 0209 4B45 595F 		.string	"KEY_Multimedia"
GAS LISTING C:\Users\ADMINI~1\AppData\Local\Temp/ccYJNKdD.s 			page 176


 9485      4D75 6C74 
 9485      696D 6564 
 9485      6961 00
 9486               	.LASF275:
 9487 0218 7374 725F 		.string	"str_choose_layer"
 9487      6368 6F6F 
 9487      7365 5F6C 
 9487      6179 6572 
 9487      00
 9488               	.LASF170:
 9489 0229 5F5F 636F 		.string	"__count"
 9489      756E 7400 
 9490               	.LASF244:
 9491 0231 5F73 7465 		.string	"_stepAfterSave"
 9491      7041 6674 
 9491      6572 5361 
 9491      7665 00
 9492               	.LASF251:
 9493 0240 5F69 7357 		.string	"_isWorkingForEmpty"
 9493      6F72 6B69 
 9493      6E67 466F 
 9493      7245 6D70 
 9493      7479 00
 9494               	.LASF184:
 9495 0253 6765 744D 		.string	"getMappingKeyCode"
 9495      6170 7069 
 9495      6E67 4B65 
 9495      7943 6F64 
 9495      6500 
 9496               	.LASF297:
 9497 0265 5F70 7265 		.string	"_pressedEscapeKeyCount"
 9497      7373 6564 
 9497      4573 6361 
 9497      7065 4B65 
 9497      7943 6F75 
 9498               	.LASF171:
 9499 027c 784B 6579 		.string	"xKeyCode"
 9499      436F 6465 
 9499      00
 9500               	.LASF237:
 9501 0285 5F69 734B 		.string	"_isKeyMapping"
 9501      6579 4D61 
 9501      7070 696E 
 9501      6700 
 9502               	.LASF155:
 9503 0293 4B45 595F 		.string	"KEY_MEDIA"
 9503      4D45 4449 
 9503      4100 
 9504               	.LASF135:
 9505 029d 4B45 595F 		.string	"KEY_Modifiers_end"
 9505      4D6F 6469 
 9505      6669 6572 
 9505      735F 656E 
 9505      6400 
 9506               	.LASF213:
 9507 02af 636C 6561 		.string	"clearMacroAfter"
 9507      724D 6163 
GAS LISTING C:\Users\ADMINI~1\AppData\Local\Temp/ccYJNKdD.s 			page 177


 9507      726F 4166 
 9507      7465 7200 
 9508               	.LASF215:
 9509 02bf 7361 7665 		.string	"saveMacro"
 9509      4D61 6372 
 9509      6F00 
 9510               	.LASF293:
 9511 02c9 5F6D 6163 		.string	"_macroIndex"
 9511      726F 496E 
 9511      6465 7800 
 9512               	.LASF122:
 9513 02d5 4B45 595F 		.string	"KEY_KP_0"
 9513      4B50 5F30 
 9513      00
 9514               	.LASF113:
 9515 02de 4B45 595F 		.string	"KEY_KP_1"
 9515      4B50 5F31 
 9515      00
 9516               	.LASF114:
 9517 02e7 4B45 595F 		.string	"KEY_KP_2"
 9517      4B50 5F32 
 9517      00
 9518               	.LASF48:
 9519 02f0 4B45 595F 		.string	"KEY_U"
 9519      5500 
 9520               	.LASF116:
 9521 02f6 4B45 595F 		.string	"KEY_KP_4"
 9521      4B50 5F34 
 9521      00
 9522               	.LASF63:
 9523 02ff 4B45 595F 		.string	"KEY_0"
 9523      3000 
 9524               	.LASF54:
 9525 0305 4B45 595F 		.string	"KEY_1"
 9525      3100 
 9526               	.LASF55:
 9527 030b 4B45 595F 		.string	"KEY_2"
 9527      3200 
 9528               	.LASF56:
 9529 0311 4B45 595F 		.string	"KEY_3"
 9529      3300 
 9530               	.LASF57:
 9531 0317 4B45 595F 		.string	"KEY_4"
 9531      3400 
 9532               	.LASF58:
 9533 031d 4B45 595F 		.string	"KEY_5"
 9533      3500 
 9534               	.LASF59:
 9535 0323 4B45 595F 		.string	"KEY_6"
 9535      3600 
 9536               	.LASF60:
 9537 0329 4B45 595F 		.string	"KEY_7"
 9537      3700 
 9538               	.LASF61:
 9539 032f 4B45 595F 		.string	"KEY_8"
 9539      3800 
 9540               	.LASF62:
GAS LISTING C:\Users\ADMINI~1\AppData\Local\Temp/ccYJNKdD.s 			page 178


 9541 0335 4B45 595F 		.string	"KEY_9"
 9541      3900 
 9542               	.LASF234:
 9543 033b 636F 756E 		.string	"countKeyMappingEnabled"
 9543      744B 6579 
 9543      4D61 7070 
 9543      696E 6745 
 9543      6E61 626C 
 9544               	.LASF284:
 9545 0352 7374 725F 		.string	"str_load_layer"
 9545      6C6F 6164 
 9545      5F6C 6179 
 9545      6572 00
 9546               	.LASF28:
 9547 0361 4B45 595F 		.string	"KEY_A"
 9547      4100 
 9548               	.LASF29:
 9549 0367 4B45 595F 		.string	"KEY_B"
 9549      4200 
 9550               	.LASF30:
 9551 036d 4B45 595F 		.string	"KEY_C"
 9551      4300 
 9552               	.LASF31:
 9553 0373 4B45 595F 		.string	"KEY_D"
 9553      4400 
 9554               	.LASF32:
 9555 0379 4B45 595F 		.string	"KEY_E"
 9555      4500 
 9556               	.LASF33:
 9557 037f 4B45 595F 		.string	"KEY_F"
 9557      4600 
 9558               	.LASF34:
 9559 0385 4B45 595F 		.string	"KEY_G"
 9559      4700 
 9560               	.LASF35:
 9561 038b 4B45 595F 		.string	"KEY_H"
 9561      4800 
 9562               	.LASF36:
 9563 0391 4B45 595F 		.string	"KEY_I"
 9563      4900 
 9564               	.LASF37:
 9565 0397 4B45 595F 		.string	"KEY_J"
 9565      4A00 
 9566               	.LASF38:
 9567 039d 4B45 595F 		.string	"KEY_K"
 9567      4B00 
 9568               	.LASF39:
 9569 03a3 4B45 595F 		.string	"KEY_L"
 9569      4C00 
 9570               	.LASF40:
 9571 03a9 4B45 595F 		.string	"KEY_M"
 9571      4D00 
 9572               	.LASF41:
 9573 03af 4B45 595F 		.string	"KEY_N"
 9573      4E00 
 9574               	.LASF42:
 9575 03b5 4B45 595F 		.string	"KEY_O"
GAS LISTING C:\Users\ADMINI~1\AppData\Local\Temp/ccYJNKdD.s 			page 179


 9575      4F00 
 9576               	.LASF43:
 9577 03bb 4B45 595F 		.string	"KEY_P"
 9577      5000 
 9578               	.LASF44:
 9579 03c1 4B45 595F 		.string	"KEY_Q"
 9579      5100 
 9580               	.LASF45:
 9581 03c7 4B45 595F 		.string	"KEY_R"
 9581      5200 
 9582               	.LASF46:
 9583 03cd 4B45 595F 		.string	"KEY_S"
 9583      5300 
 9584               	.LASF47:
 9585 03d3 4B45 595F 		.string	"KEY_T"
 9585      5400 
 9586               	.LASF6:
 9587 03d9 6C6F 6E67 		.string	"long long unsigned int"
 9587      206C 6F6E 
 9587      6720 756E 
 9587      7369 676E 
 9587      6564 2069 
 9588               	.LASF49:
 9589 03f0 4B45 595F 		.string	"KEY_V"
 9589      5600 
 9590               	.LASF50:
 9591 03f6 4B45 595F 		.string	"KEY_W"
 9591      5700 
 9592               	.LASF51:
 9593 03fc 4B45 595F 		.string	"KEY_X"
 9593      5800 
 9594               	.LASF52:
 9595 0402 4B45 595F 		.string	"KEY_Y"
 9595      5900 
 9596               	.LASF53:
 9597 0408 4B45 595F 		.string	"KEY_Z"
 9597      5A00 
 9598               	.LASF68:
 9599 040e 4B45 595F 		.string	"KEY_SPACE"
 9599      5350 4143 
 9599      4500 
 9600               	.LASF278:
 9601 0418 7374 725F 		.string	"str_save_end_mapping"
 9601      7361 7665 
 9601      5F65 6E64 
 9601      5F6D 6170 
 9601      7069 6E67 
 9602               	.LASF269:
 9603 042d 7374 725F 		.string	"str_mapper_1"
 9603      6D61 7070 
 9603      6572 5F31 
 9603      00
 9604               	.LASF272:
 9605 043a 7374 725F 		.string	"str_mapper_4"
 9605      6D61 7070 
 9605      6572 5F34 
 9605      00
GAS LISTING C:\Users\ADMINI~1\AppData\Local\Temp/ccYJNKdD.s 			page 180


 9606               	.LASF126:
 9607 0447 4B45 595F 		.string	"KEY_Modifiers"
 9607      4D6F 6469 
 9607      6669 6572 
 9607      7300 
 9608               	.LASF66:
 9609 0455 4B45 595F 		.string	"KEY_BKSP"
 9609      424B 5350 
 9609      00
 9610               	.LASF105:
 9611 045e 4B45 595F 		.string	"KEY_DOWN"
 9611      444F 574E 
 9611      00
 9612               	.LASF162:
 9613 0467 4B45 595F 		.string	"KEY_EJECT"
 9613      454A 4543 
 9613      5400 
 9614               	.LASF192:
 9615 0471 7374 6172 		.string	"startKeyMappingDeep"
 9615      744B 6579 
 9615      4D61 7070 
 9615      696E 6744 
 9615      6565 7000 
 9616               	.LASF21:
 9617 0485 4B45 595F 		.string	"KEY_MAC10"
 9617      4D41 4331 
 9617      3000 
 9618               	.LASF22:
 9619 048f 4B45 595F 		.string	"KEY_MAC11"
 9619      4D41 4331 
 9619      3100 
 9620               	.LASF23:
 9621 0499 4B45 595F 		.string	"KEY_MAC12"
 9621      4D41 4331 
 9621      3200 
 9622               	.LASF103:
 9623 04a3 4B45 595F 		.string	"KEY_RIGHT"
 9623      5249 4748 
 9623      5400 
 9624               	.LASF166:
 9625 04ad 4B45 595F 		.string	"KEY_HANGLE"
 9625      4841 4E47 
 9625      4C45 00
 9626               	.LASF214:
 9627 04b8 6741 6464 		.string	"gAddress"
 9627      7265 7373 
 9627      00
 9628               	.LASF178:
 9629 04c1 784C 6179 		.string	"xLayer"
 9629      6572 00
 9630               	.LASF174:
 9631 04c8 5F5F 6D73 		.string	"__ms"
 9631      00
 9632               	.LASF27:
 9633 04cd 4B45 595F 		.string	"KEY_ErrorUndefined"
 9633      4572 726F 
 9633      7255 6E64 
GAS LISTING C:\Users\ADMINI~1\AppData\Local\Temp/ccYJNKdD.s 			page 181


 9633      6566 696E 
 9633      6564 00
 9634               	.LASF148:
 9635 04e0 4B45 595F 		.string	"KEY_NEXT_TRK"
 9635      4E45 5854 
 9635      5F54 524B 
 9635      00
 9636               	.LASF198:
 9637 04ed 7853 7472 		.string	"xStr"
 9637      00
 9638               	.LASF295:
 9639 04f2 5F6D 6163 		.string	"_macroPressedBuffer"
 9639      726F 5072 
 9639      6573 7365 
 9639      6442 7566 
 9639      6665 7200 
 9640               	.LASF111:
 9641 0506 4B45 595F 		.string	"KEY_KP_PLUS"
 9641      4B50 5F50 
 9641      4C55 5300 
 9642               	.LASF220:
 9643 0512 6C6F 6164 		.string	"loadCurrentLayer"
 9643      4375 7272 
 9643      656E 744C 
 9643      6179 6572 
 9643      00
 9644               	.LASF219:
 9645 0523 784D 6163 		.string	"xMacroIndex"
 9645      726F 496E 
 9645      6465 7800 
 9646               	.LASF222:
 9647 052f 7849 7344 		.string	"xIsDown"
 9647      6F77 6E00 
 9648               	.LASF183:
 9649 0537 6765 7444 		.string	"getDefaultKeyCode"
 9649      6566 6175 
 9649      6C74 4B65 
 9649      7943 6F64 
 9649      6500 
 9650               	.LASF221:
 9651 0549 7075 744B 		.string	"putKeyCode"
 9651      6579 436F 
 9651      6465 00
 9652               	.LASF150:
 9653 0554 4B45 595F 		.string	"KEY_STOP"
 9653      5354 4F50 
 9653      00
 9654               	.LASF249:
 9655 055d 5F62 7566 		.string	"_bufferIndex"
 9655      6665 7249 
 9655      6E64 6578 
 9655      00
 9656               	.LASF245:
 9657 056a 5F77 6169 		.string	"_wait"
 9657      7400 
 9658               	.LASF233:
 9659 0570 7072 6570 		.string	"prepareKeyMapping"
GAS LISTING C:\Users\ADMINI~1\AppData\Local\Temp/ccYJNKdD.s 			page 182


 9659      6172 654B 
 9659      6579 4D61 
 9659      7070 696E 
 9659      6700 
 9660               	.LASF305:
 9661 0582 7072 696E 		.string	"printEnter"
 9661      7445 6E74 
 9661      6572 00
 9662               	.LASF300:
 9663 058d 5F6E 6577 		.string	"_newKeyMap"
 9663      4B65 794D 
 9663      6170 00
 9664               	.LASF156:
 9665 0598 4B45 595F 		.string	"KEY_CALC"
 9665      4341 4C43 
 9665      00
 9666               	.LASF9:
 9667 05a1 6368 6172 		.string	"char"
 9667      00
 9668               	.LASF75:
 9669 05a6 4B45 595F 		.string	"KEY_COLON"
 9669      434F 4C4F 
 9669      4E00 
 9670               	.LASF242:
 9671 05b0 5F6D 6F64 		.string	"_mode"
 9671      6500 
 9672               	.LASF128:
 9673 05b6 4B45 595F 		.string	"KEY_LSHIFT"
 9673      4C53 4849 
 9673      4654 00
 9674               	.LASF147:
 9675 05c1 4B45 595F 		.string	"KEY_WWW_FAVORITE"
 9675      5757 575F 
 9675      4641 564F 
 9675      5249 5445 
 9675      00
 9676               	.LASF290:
 9677 05d2 7374 725F 		.string	"str_input_macro"
 9677      696E 7075 
 9677      745F 6D61 
 9677      6372 6F00 
 9678               	.LASF258:
 9679 05e2 7374 725F 		.string	"str_select_mode"
 9679      7365 6C65 
 9679      6374 5F6D 
 9679      6F64 6500 
 9680               	.LASF142:
 9681 05f2 4B45 595F 		.string	"KEY_WWW_HOME"
 9681      5757 575F 
 9681      484F 4D45 
 9681      00
 9682               	.LASF202:
 9683 05ff 6743 6861 		.string	"gChar"
 9683      7200 
 9684               	.LASF24:
 9685 0605 4B45 595F 		.string	"KEY_NONE"
 9685      4E4F 4E45 
GAS LISTING C:\Users\ADMINI~1\AppData\Local\Temp/ccYJNKdD.s 			page 183


 9685      00
 9686               	.LASF231:
 9687 060e 674D 6163 		.string	"gMacroIndex"
 9687      726F 496E 
 9687      6465 7800 
 9688               	.LASF94:
 9689 061a 4B45 595F 		.string	"KEY_PRNSCR"
 9689      5052 4E53 
 9689      4352 00
 9690               	.LASF288:
 9691 0625 7374 725F 		.string	"str_select_number"
 9691      7365 6C65 
 9691      6374 5F6E 
 9691      756D 6265 
 9691      7200 
 9692               	.LASF281:
 9693 0637 7374 725F 		.string	"str_input_command"
 9693      696E 7075 
 9693      745F 636F 
 9693      6D6D 616E 
 9693      6400 
 9694               	.LASF101:
 9695 0649 4B45 595F 		.string	"KEY_END"
 9695      454E 4400 
 9696               	.LASF10:
 9697 0651 7569 6E74 		.string	"uint8_t"
 9697      385F 7400 
 9698               	.LASF154:
 9699 0659 4B45 595F 		.string	"KEY_VOL_DOWN"
 9699      564F 4C5F 
 9699      444F 574E 
 9699      00
 9700               	.LASF71:
 9701 0666 4B45 595F 		.string	"KEY_LBR"
 9701      4C42 5200 
 9702               	.LASF204:
 9703 066e 6170 706C 		.string	"applyKeyMapping"
 9703      794B 6579 
 9703      4D61 7070 
 9703      696E 6700 
 9704               	.LASF100:
 9705 067e 4B45 595F 		.string	"KEY_DEL"
 9705      4445 4C00 
 9706               	.LASF267:
 9707 0686 7374 725F 		.string	"str_back_6"
 9707      6261 636B 
 9707      5F36 00
 9708               	.LASF205:
 9709 0691 7265 7365 		.string	"resetCurrentLayer"
 9709      7443 7572 
 9709      7265 6E74 
 9709      4C61 7965 
 9709      7200 
 9710               	.LASF125:
 9711 06a3 4B45 595F 		.string	"KEY_APPS"
 9711      4150 5053 
 9711      00
GAS LISTING C:\Users\ADMINI~1\AppData\Local\Temp/ccYJNKdD.s 			page 184


 9712               	.LASF175:
 9713 06ac 5F5F 7469 		.string	"__ticks"
 9713      636B 7300 
 9714               	.LASF210:
 9715 06b4 7072 696E 		.string	"printPrompt"
 9715      7450 726F 
 9715      6D70 7400 
 9716               	.LASF115:
 9717 06c0 4B45 595F 		.string	"KEY_KP_3"
 9717      4B50 5F33 
 9717      00
 9718               	.LASF263:
 9719 06c9 7374 725F 		.string	"str_macro_message"
 9719      6D61 6372 
 9719      6F5F 6D65 
 9719      7373 6167 
 9719      6500 
 9720               	.LASF7:
 9721 06db 6C6F 6E67 		.string	"long long int"
 9721      206C 6F6E 
 9721      6720 696E 
 9721      7400 
 9722               	.LASF118:
 9723 06e9 4B45 595F 		.string	"KEY_KP_6"
 9723      4B50 5F36 
 9723      00
 9724               	.LASF119:
 9725 06f2 4B45 595F 		.string	"KEY_KP_7"
 9725      4B50 5F37 
 9725      00
 9726               	.LASF120:
 9727 06fb 4B45 595F 		.string	"KEY_KP_8"
 9727      4B50 5F38 
 9727      00
 9728               	.LASF121:
 9729 0704 4B45 595F 		.string	"KEY_KP_9"
 9729      4B50 5F39 
 9729      00
 9730               	.LASF76:
 9731 070d 4B45 595F 		.string	"KEY_QUOTE"
 9731      5155 4F54 
 9731      4500 
 9732               	.LASF186:
 9733 0717 6749 6478 		.string	"gIdx"
 9733      00
 9734               	.LASF229:
 9735 071c 6170 706C 		.string	"applyMacro"
 9735      794D 6163 
 9735      726F 00
 9736               	.LASF70:
 9737 0727 4B45 595F 		.string	"KEY_EQUAL"
 9737      4551 5541 
 9737      4C00 
 9738               	.LASF240:
 9739 0731 6B65 794D 		.string	"keyMappingCountMax"
 9739      6170 7069 
 9739      6E67 436F 
GAS LISTING C:\Users\ADMINI~1\AppData\Local\Temp/ccYJNKdD.s 			page 185


 9739      756E 744D 
 9739      6178 00
 9740               	.LASF226:
 9741 0744 7361 7665 		.string	"saveCurrentLayerAfter"
 9741      4375 7272 
 9741      656E 744C 
 9741      6179 6572 
 9741      4166 7465 
 9742               	.LASF206:
 9743 075a 636C 6561 		.string	"clearMacro"
 9743      724D 6163 
 9743      726F 00
 9744               	.LASF209:
 9745 0765 7072 696E 		.string	"printMacroMessage"
 9745      744D 6163 
 9745      726F 4D65 
 9745      7373 6167 
 9745      6500 
 9746               	.LASF86:
 9747 0777 4B45 595F 		.string	"KEY_F5"
 9747      4635 00
 9748               	.LASF67:
 9749 077e 4B45 595F 		.string	"KEY_TAB"
 9749      5441 4200 
 9750               	.LASF292:
 9751 0786 7374 725F 		.string	"str_clear_all_macro"
 9751      636C 6561 
 9751      725F 616C 
 9751      6C5F 6D61 
 9751      6372 6F00 
 9752               	.LASF299:
 9753 079a 5F69 7354 		.string	"_isTiredEscapeKey"
 9753      6972 6564 
 9753      4573 6361 
 9753      7065 4B65 
 9753      7900 
 9754               	.LASF12:
 9755 07ac 4B45 595F 		.string	"KEY_MAC1"
 9755      4D41 4331 
 9755      00
 9756               	.LASF13:
 9757 07b5 4B45 595F 		.string	"KEY_MAC2"
 9757      4D41 4332 
 9757      00
 9758               	.LASF14:
 9759 07be 4B45 595F 		.string	"KEY_MAC3"
 9759      4D41 4333 
 9759      00
 9760               	.LASF15:
 9761 07c7 4B45 595F 		.string	"KEY_MAC4"
 9761      4D41 4334 
 9761      00
 9762               	.LASF16:
 9763 07d0 4B45 595F 		.string	"KEY_MAC5"
 9763      4D41 4335 
 9763      00
 9764               	.LASF17:
GAS LISTING C:\Users\ADMINI~1\AppData\Local\Temp/ccYJNKdD.s 			page 186


 9765 07d9 4B45 595F 		.string	"KEY_MAC6"
 9765      4D41 4336 
 9765      00
 9766               	.LASF18:
 9767 07e2 4B45 595F 		.string	"KEY_MAC7"
 9767      4D41 4337 
 9767      00
 9768               	.LASF19:
 9769 07eb 4B45 595F 		.string	"KEY_MAC8"
 9769      4D41 4338 
 9769      00
 9770               	.LASF20:
 9771 07f4 4B45 595F 		.string	"KEY_MAC9"
 9771      4D41 4339 
 9771      00
 9772               	.LASF108:
 9773 07fd 4B45 595F 		.string	"KEY_KP_SLASH"
 9773      4B50 5F53 
 9773      4C41 5348 
 9773      00
 9774               	.LASF82:
 9775 080a 4B45 595F 		.string	"KEY_F1"
 9775      4631 00
 9776               	.LASF83:
 9777 0811 4B45 595F 		.string	"KEY_F2"
 9777      4632 00
 9778               	.LASF84:
 9779 0818 4B45 595F 		.string	"KEY_F3"
 9779      4633 00
 9780               	.LASF85:
 9781 081f 4B45 595F 		.string	"KEY_F4"
 9781      4634 00
 9782               	.LASF303:
 9783 0826 443A 5C67 		.string	"D:\\git2\\ps2avrU\\.git\\source"
 9783      6974 325C 
 9783      7073 3261 
 9783      7672 555C 
 9783      2E67 6974 
 9784               	.LASF87:
 9785 0842 4B45 595F 		.string	"KEY_F6"
 9785      4636 00
 9786               	.LASF88:
 9787 0849 4B45 595F 		.string	"KEY_F7"
 9787      4637 00
 9788               	.LASF89:
 9789 0850 4B45 595F 		.string	"KEY_F8"
 9789      4638 00
 9790               	.LASF90:
 9791 0857 4B45 595F 		.string	"KEY_F9"
 9791      4639 00
 9792               	.LASF137:
 9793 085e 4B45 595F 		.string	"KEY_POWER"
 9793      504F 5745 
 9793      5200 
 9794               	.LASF173:
 9795 0868 5F64 656C 		.string	"_delay_ms"
 9795      6179 5F6D 
GAS LISTING C:\Users\ADMINI~1\AppData\Local\Temp/ccYJNKdD.s 			page 187


 9795      7300 
 9796               	.LASF167:
 9797 0872 4B45 595F 		.string	"KEY_extend_end"
 9797      6578 7465 
 9797      6E64 5F65 
 9797      6E64 00
 9798               	.LASF106:
 9799 0881 4B45 595F 		.string	"KEY_UP"
 9799      5550 00
 9800               	.LASF296:
 9801 0888 5F6D 6163 		.string	"_macroInputBuffer"
 9801      726F 496E 
 9801      7075 7442 
 9801      7566 6665 
 9801      7200 
 9802               	.LASF197:
 9803 089a 784D 6F64 		.string	"xModi"
 9803      6900 
 9804               	.LASF199:
 9805 08a0 7075 7368 		.string	"pushCharacter"
 9805      4368 6172 
 9805      6163 7465 
 9805      7200 
 9806               	.LASF224:
 9807 08ae 6753 7472 		.string	"gStr"
 9807      00
 9808               	.LASF261:
 9809 08b3 7374 725F 		.string	"str_select_mode3"
 9809      7365 6C65 
 9809      6374 5F6D 
 9809      6F64 6533 
 9809      00
 9810               	.LASF179:
 9811 08c4 7852 6F77 		.string	"xRow"
 9811      00
 9812               	.LASF129:
 9813 08c9 4B45 595F 		.string	"KEY_LALT"
 9813      4C41 4C54 
 9813      00
 9814               	.LASF301:
 9815 08d2 474E 5520 		.string	"GNU C 4.3.3"
 9815      4320 342E 
 9815      332E 3300 
 9816               	.LASF96:
 9817 08de 4B45 595F 		.string	"KEY_PAUSE"
 9817      5041 5553 
 9817      4500 
 9818               	.LASF11:
 9819 08e8 7569 6E74 		.string	"uint16_t"
 9819      3136 5F74 
 9819      00
 9820               	.LASF236:
 9821 08f1 7374 6172 		.string	"startKeyMappingOnBoot"
 9821      744B 6579 
 9821      4D61 7070 
 9821      696E 674F 
 9821      6E42 6F6F 
GAS LISTING C:\Users\ADMINI~1\AppData\Local\Temp/ccYJNKdD.s 			page 188


 9822               	.LASF163:
 9823 0907 4B45 595F 		.string	"KEY_Multimedia_end"
 9823      4D75 6C74 
 9823      696D 6564 
 9823      6961 5F65 
 9823      6E64 00
 9824               	.LASF152:
 9825 091a 4B45 595F 		.string	"KEY_MUTE"
 9825      4D55 5445 
 9825      00
 9826               	.LASF211:
 9827 0923 7072 696E 		.string	"printSelectMode"
 9827      7453 656C 
 9827      6563 744D 
 9827      6F64 6500 
 9828               	.LASF110:
 9829 0933 4B45 595F 		.string	"KEY_KP_MINUS"
 9829      4B50 5F4D 
 9829      494E 5553 
 9829      00
 9830               	.LASF182:
 9831 0940 5F5F 7265 		.string	"__result"
 9831      7375 6C74 
 9831      00
 9832               	.LASF208:
 9833 0949 7072 696E 		.string	"printPrepareString"
 9833      7450 7265 
 9833      7061 7265 
 9833      5374 7269 
 9833      6E67 00
 9834               	.LASF180:
 9835 095c 7843 6F6C 		.string	"xCol"
 9835      00
 9836               	.LASF69:
 9837 0961 4B45 595F 		.string	"KEY_MINUS"
 9837      4D49 4E55 
 9837      5300 
 9838               	.LASF172:
 9839 096b 5F64 656C 		.string	"_delay_loop_2"
 9839      6179 5F6C 
 9839      6F6F 705F 
 9839      3200 
 9840               	.LASF64:
 9841 0979 4B45 595F 		.string	"KEY_ENTER"
 9841      454E 5445 
 9841      5200 
 9842               	.LASF282:
 9843 0983 7374 725F 		.string	"str_nothing"
 9843      6E6F 7468 
 9843      696E 6700 
 9844               	.LASF78:
 9845 098f 4B45 595F 		.string	"KEY_COMMA"
 9845      434F 4D4D 
 9845      4100 
 9846               	.LASF241:
 9847 0999 5F6B 6579 		.string	"_keyMappingOnBoot"
 9847      4D61 7070 
GAS LISTING C:\Users\ADMINI~1\AppData\Local\Temp/ccYJNKdD.s 			page 189


 9847      696E 674F 
 9847      6E42 6F6F 
 9847      7400 
 9848               	.LASF3:
 9849 09ab 7368 6F72 		.string	"short int"
 9849      7420 696E 
 9849      7400 
 9850               	.LASF5:
 9851 09b5 6C6F 6E67 		.string	"long int"
 9851      2069 6E74 
 9851      00
 9852               	.LASF81:
 9853 09be 4B45 595F 		.string	"KEY_CAPS"
 9853      4341 5053 
 9853      00
 9854               	.LASF250:
 9855 09c7 5F65 6469 		.string	"_editCount"
 9855      7443 6F75 
 9855      6E74 00
 9856               	.LASF262:
 9857 09d2 7374 725F 		.string	"str_exit"
 9857      6578 6974 
 9857      00
 9858               	.LASF200:
 9859 09db 7072 696E 		.string	"printString"
 9859      7453 7472 
 9859      696E 6700 
 9860               	.LASF298:
 9861 09e7 5F69 7350 		.string	"_isPressedEscapeKey"
 9861      7265 7373 
 9861      6564 4573 
 9861      6361 7065 
 9861      4B65 7900 
 9862               	.LASF112:
 9863 09fb 4B45 595F 		.string	"KEY_KP_ENTER"
 9863      4B50 5F45 
 9863      4E54 4552 
 9863      00
 9864               	.LASF289:
 9865 0a08 7374 725F 		.string	"str_exit_macro"
 9865      6578 6974 
 9865      5F6D 6163 
 9865      726F 00
 9866               	.LASF123:
 9867 0a17 4B45 595F 		.string	"KEY_KP_DOT"
 9867      4B50 5F44 
 9867      4F54 00
 9868               	.LASF195:
 9869 0a22 7265 6164 		.string	"readyKeyMappingOnBoot"
 9869      794B 6579 
 9869      4D61 7070 
 9869      696E 674F 
 9869      6E42 6F6F 
 9870               	.LASF127:
 9871 0a38 4B45 595F 		.string	"KEY_LCTRL"
 9871      4C43 5452 
 9871      4C00 
GAS LISTING C:\Users\ADMINI~1\AppData\Local\Temp/ccYJNKdD.s 			page 190


 9872               	.LASF264:
 9873 0a42 7374 725F 		.string	"str_macro_1"
 9873      6D61 6372 
 9873      6F5F 3100 
 9874               	.LASF265:
 9875 0a4e 7374 725F 		.string	"str_macro_2"
 9875      6D61 6372 
 9875      6F5F 3200 
 9876               	.LASF196:
 9877 0a5a 7265 7365 		.string	"resetMacroInput"
 9877      744D 6163 
 9877      726F 496E 
 9877      7075 7400 
 9878               	.LASF230:
 9879 0a6a 784B 6579 		.string	"xKeyidx"
 9879      6964 7800 
 9880               	.LASF130:
 9881 0a72 4B45 595F 		.string	"KEY_LGUI"
 9881      4C47 5549 
 9881      00
 9882               	.LASF266:
 9883 0a7b 7374 725F 		.string	"str_macro_9"
 9883      6D61 6372 
 9883      6F5F 3900 
 9884               	.LASF232:
 9885 0a87 7374 6172 		.string	"startKeyMapping"
 9885      744B 6579 
 9885      4D61 7070 
 9885      696E 6700 
 9886               	.LASF25:
 9887 0a97 4B45 595F 		.string	"KEY_ErrorRollOver"
 9887      4572 726F 
 9887      7252 6F6C 
 9887      6C4F 7665 
 9887      7200 
 9888               	.LASF73:
 9889 0aa9 4B45 595F 		.string	"KEY_BKSLASH"
 9889      424B 534C 
 9889      4153 4800 
 9890               	.LASF77:
 9891 0ab5 4B45 595F 		.string	"KEY_HASH"
 9891      4841 5348 
 9891      00
 9892               	.LASF164:
 9893 0abe 4B45 595F 		.string	"KEY_extend"
 9893      6578 7465 
 9893      6E64 00
 9894               	.LASF228:
 9895 0ac9 6765 7443 		.string	"getCurrentKeycode"
 9895      7572 7265 
 9895      6E74 4B65 
 9895      7963 6F64 
 9895      6500 
 9896               	.LASF102:
 9897 0adb 4B45 595F 		.string	"KEY_PGDN"
 9897      5047 444E 
 9897      00
GAS LISTING C:\Users\ADMINI~1\AppData\Local\Temp/ccYJNKdD.s 			page 191


 9898               	.LASF65:
 9899 0ae4 4B45 595F 		.string	"KEY_ESC"
 9899      4553 4300 
 9900               	.LASF4:
 9901 0aec 6C6F 6E67 		.string	"long unsigned int"
 9901      2075 6E73 
 9901      6967 6E65 
 9901      6420 696E 
 9901      7400 
 9902               	.LASF140:
 9903 0afe 4B45 595F 		.string	"KEY_EMAIL"
 9903      454D 4149 
 9903      4C00 
 9904               	.LASF104:
 9905 0b08 4B45 595F 		.string	"KEY_LEFT"
 9905      4C45 4654 
 9905      00
 9906               	.LASF253:
 9907 0b11 5F63 7572 		.string	"_currentLayerAfter"
 9907      7265 6E74 
 9907      4C61 7965 
 9907      7241 6674 
 9907      6572 00
 9908               	.LASF286:
 9909 0b24 7374 725F 		.string	"str_col_row"
 9909      636F 6C5F 
 9909      726F 7700 
 9910               	.LASF294:
 9911 0b30 5F6D 6163 		.string	"_macroBufferIndex"
 9911      726F 4275 
 9911      6666 6572 
 9911      496E 6465 
 9911      7800 
 9912               	.LASF141:
 9913 0b42 4B45 595F 		.string	"KEY_WWW_SEARCH"
 9913      5757 575F 
 9913      5345 4152 
 9913      4348 00
 9914               	.LASF277:
 9915 0b51 7374 725F 		.string	"str_input_keycode"
 9915      696E 7075 
 9915      745F 6B65 
 9915      7963 6F64 
 9915      6500 
 9916               	.LASF0:
 9917 0b63 756E 7369 		.string	"unsigned char"
 9917      676E 6564 
 9917      2063 6861 
 9917      7200 
 9918               	.LASF191:
 9919 0b71 7072 696E 		.string	"printMapperMessage"
 9919      744D 6170 
 9919      7065 724D 
 9919      6573 7361 
 9919      6765 00
 9920               	.LASF72:
 9921 0b84 4B45 595F 		.string	"KEY_RBR"
GAS LISTING C:\Users\ADMINI~1\AppData\Local\Temp/ccYJNKdD.s 			page 192


 9921      5242 5200 
 9922               	.LASF190:
 9923 0b8c 6973 4465 		.string	"isDeepKeyMapping"
 9923      6570 4B65 
 9923      794D 6170 
 9923      7069 6E67 
 9923      00
 9924               	.LASF255:
 9925 0b9d 5F6D 6163 		.string	"_macroDownCount"
 9925      726F 446F 
 9925      776E 436F 
 9925      756E 7400 
 9926               	.LASF185:
 9927 0bad 674B 6579 		.string	"gKeyIndex"
 9927      496E 6465 
 9927      7800 
 9928               	.LASF216:
 9929 0bb7 674B 6579 		.string	"gKeyCode"
 9929      436F 6465 
 9929      00
 9930               	.LASF138:
 9931 0bc0 4B45 595F 		.string	"KEY_SLEEP"
 9931      534C 4545 
 9931      5000 
 9932               	.LASF239:
 9933 0bca 6B65 794D 		.string	"keyMappingCount"
 9933      6170 7069 
 9933      6E67 436F 
 9933      756E 7400 
 9934               	.LASF304:
 9935 0bda 6973 5265 		.string	"isReadyKeyMappingOnBoot"
 9935      6164 794B 
 9935      6579 4D61 
 9935      7070 696E 
 9935      674F 6E42 
 9936               	.LASF225:
 9937 0bf2 674C 656E 		.string	"gLen"
 9937      00
 9938               	.LASF109:
 9939 0bf7 4B45 595F 		.string	"KEY_KP_AST"
 9939      4B50 5F41 
 9939      5354 00
 9940               	.LASF139:
 9941 0c02 4B45 595F 		.string	"KEY_WAKE"
 9941      5741 4B45 
 9941      00
 9942               	.LASF274:
 9943 0c0b 7374 725F 		.string	"str_prepare_message"
 9943      7072 6570 
 9943      6172 655F 
 9943      6D65 7373 
 9943      6167 6500 
 9944               	.LASF217:
 9945 0c1f 6275 6666 		.string	"buffers"
 9945      6572 7300 
 9946               	.LASF99:
 9947 0c27 4B45 595F 		.string	"KEY_PGUP"
GAS LISTING C:\Users\ADMINI~1\AppData\Local\Temp/ccYJNKdD.s 			page 193


 9947      5047 5550 
 9947      00
 9948               	.LASF194:
 9949 0c30 7365 7457 		.string	"setWillStartKeyMapping"
 9949      696C 6C53 
 9949      7461 7274 
 9949      4B65 794D 
 9949      6170 7069 
 9950               	.LASF201:
 9951 0c47 7853 7472 		.string	"xString"
 9951      696E 6700 
 9952               	.LASF146:
 9953 0c4f 4B45 595F 		.string	"KEY_WWW_REFRESH"
 9953      5757 575F 
 9953      5245 4652 
 9953      4553 4800 
 9954               	.LASF153:
 9955 0c5f 4B45 595F 		.string	"KEY_VOL_UP"
 9955      564F 4C5F 
 9955      5550 00
 9956               	.LASF285:
 9957 0c6a 7374 725F 		.string	"str_saving"
 9957      7361 7669 
 9957      6E67 00
 9958               	.LASF97:
 9959 0c75 4B45 595F 		.string	"KEY_INSERT"
 9959      494E 5345 
 9959      5254 00
 9960               	.LASF26:
 9961 0c80 4B45 595F 		.string	"KEY_POSTFail"
 9961      504F 5354 
 9961      4661 696C 
 9961      00
 9962               	.LASF1:
 9963 0c8d 7369 676E 		.string	"signed char"
 9963      6564 2063 
 9963      6861 7200 
 9964               	.LASF98:
 9965 0c99 4B45 595F 		.string	"KEY_HOME"
 9965      484F 4D45 
 9965      00
 9966               	.LASF2:
 9967 0ca2 7368 6F72 		.string	"short unsigned int"
 9967      7420 756E 
 9967      7369 676E 
 9967      6564 2069 
 9967      6E74 00
 9968               	.LASF188:
 9969 0cb5 6573 6361 		.string	"escapeMacroKeycode"
 9969      7065 4D61 
 9969      6372 6F4B 
 9969      6579 636F 
 9969      6465 00
 9970               	.LASF143:
 9971 0cc8 4B45 595F 		.string	"KEY_WWW_BACK"
 9971      5757 575F 
 9971      4241 434B 
GAS LISTING C:\Users\ADMINI~1\AppData\Local\Temp/ccYJNKdD.s 			page 194


 9971      00
 9972               	.LASF270:
 9973 0cd5 7374 725F 		.string	"str_mapper_2"
 9973      6D61 7070 
 9973      6572 5F32 
 9973      00
 9974               	.LASF271:
 9975 0ce2 7374 725F 		.string	"str_mapper_3"
 9975      6D61 7070 
 9975      6572 5F33 
 9975      00
 9976               	.LASF176:
 9977 0cef 5F5F 746D 		.string	"__tmp"
 9977      7000 
 9978               	.LASF91:
 9979 0cf5 4B45 595F 		.string	"KEY_F10"
 9979      4631 3000 
 9980               	.LASF92:
 9981 0cfd 4B45 595F 		.string	"KEY_F11"
 9981      4631 3100 
 9982               	.LASF93:
 9983 0d05 4B45 595F 		.string	"KEY_F12"
 9983      4631 3200 
 9984               	.LASF273:
 9985 0d0d 7374 725F 		.string	"str_mapper_9"
 9985      6D61 7070 
 9985      6572 5F39 
 9985      00
 9986               	.LASF243:
 9987 0d1a 5F73 7465 		.string	"_step"
 9987      7000 
 9988               	.LASF177:
 9989 0d20 646F 7562 		.string	"double"
 9989      6C65 00
 9990               	.LASF144:
 9991 0d27 4B45 595F 		.string	"KEY_WWW_FORWARD"
 9991      5757 575F 
 9991      464F 5257 
 9991      4152 4400 
 9992               	.LASF287:
 9993 0d37 7374 725F 		.string	"str_invalid_keycode"
 9993      696E 7661 
 9993      6C69 645F 
 9993      6B65 7963 
 9993      6F64 6500 
 9994               	.LASF256:
 9995 0d4b 494E 5445 		.string	"INTERFACE"
 9995      5246 4143 
 9995      4500 
 9996               	.LASF131:
 9997 0d55 4B45 595F 		.string	"KEY_RCTRL"
 9997      5243 5452 
 9997      4C00 
 9998               	.LASF169:
 9999 0d5f 6B65 7963 		.string	"keycode"
 9999      6F64 6500 
 10000               	.LASF291:
GAS LISTING C:\Users\ADMINI~1\AppData\Local\Temp/ccYJNKdD.s 			page 195


 10001 0d67 7374 725F 		.string	"str_invalid_macro_number"
 10001      696E 7661 
 10001      6C69 645F 
 10001      6D61 6372 
 10001      6F5F 6E75 
 10002               	.LASF74:
 10003 0d80 4B45 595F 		.string	"KEY_Europe1"
 10003      4575 726F 
 10003      7065 3100 
 10004               	.LASF124:
 10005 0d8c 4B45 595F 		.string	"KEY_Europe2"
 10005      4575 726F 
 10005      7065 3200 
 10006               	.LASF189:
 10007 0d98 6973 4B65 		.string	"isKeyMapping"
 10007      794D 6170 
 10007      7069 6E67 
 10007      00
 10008               	.LASF302:
 10009 0da5 6B65 796D 		.string	"keymapper.c"
 10009      6170 7065 
 10009      722E 6300 
 10010               	.LASF187:
 10011 0db1 6973 4D61 		.string	"isMacroKey"
 10011      6372 6F4B 
 10011      6579 00
 10012               	.LASF247:
 10013 0dbc 5F72 6F77 		.string	"_row"
 10013      00
 10014               	.LASF80:
 10015 0dc1 4B45 595F 		.string	"KEY_SLASH"
 10015      534C 4153 
 10015      4800 
 10016               	.global __do_copy_data
 10017               	.global __do_clear_bss
GAS LISTING C:\Users\ADMINI~1\AppData\Local\Temp/ccYJNKdD.s 			page 196


DEFINED SYMBOLS
                            *ABS*:00000000 keymapper.c
C:\Users\ADMINI~1\AppData\Local\Temp/ccYJNKdD.s:2      *ABS*:0000003f __SREG__
C:\Users\ADMINI~1\AppData\Local\Temp/ccYJNKdD.s:3      *ABS*:0000003e __SP_H__
C:\Users\ADMINI~1\AppData\Local\Temp/ccYJNKdD.s:4      *ABS*:0000003d __SP_L__
C:\Users\ADMINI~1\AppData\Local\Temp/ccYJNKdD.s:5      *ABS*:00000034 __CCP__
C:\Users\ADMINI~1\AppData\Local\Temp/ccYJNKdD.s:6      *ABS*:00000000 __tmp_reg__
C:\Users\ADMINI~1\AppData\Local\Temp/ccYJNKdD.s:7      *ABS*:00000001 __zero_reg__
C:\Users\ADMINI~1\AppData\Local\Temp/ccYJNKdD.s:18     .text:00000000 setWillStartKeyMapping
C:\Users\ADMINI~1\AppData\Local\Temp/ccYJNKdD.s:2736   .bss:00000006 _isKeyMapping
C:\Users\ADMINI~1\AppData\Local\Temp/ccYJNKdD.s:34     .text:0000000c isKeyMapping
C:\Users\ADMINI~1\AppData\Local\Temp/ccYJNKdD.s:49     .text:00000014 isDeepKeyMapping
C:\Users\ADMINI~1\AppData\Local\Temp/ccYJNKdD.s:64     .text:0000001c applyKeyMapping
C:\Users\ADMINI~1\AppData\Local\Temp/ccYJNKdD.s:2738   .bss:00000008 keyMappingCount
C:\Users\ADMINI~1\AppData\Local\Temp/ccYJNKdD.s:2737   .bss:00000007 enabledKeyMappingCount
C:\Users\ADMINI~1\AppData\Local\Temp/ccYJNKdD.s:2742   .data:00000033 keyMappingCountMax
C:\Users\ADMINI~1\AppData\Local\Temp/ccYJNKdD.s:109    .text:0000005c isReadyKeyMappingOnBoot
C:\Users\ADMINI~1\AppData\Local\Temp/ccYJNKdD.s:2739   .bss:0000000a _keyMappingOnBoot
C:\Users\ADMINI~1\AppData\Local\Temp/ccYJNKdD.s:122    .text:00000062 readyKeyMappingOnBoot
C:\Users\ADMINI~1\AppData\Local\Temp/ccYJNKdD.s:137    .text:0000006a stopKeyMapping
C:\Users\ADMINI~1\AppData\Local\Temp/ccYJNKdD.s:2747   .bss:0000000e _wait
C:\Users\ADMINI~1\AppData\Local\Temp/ccYJNKdD.s:153    .text:00000074 isMacroKey
C:\Users\ADMINI~1\AppData\Local\Temp/ccYJNKdD.s:175    .text:00000082 escapeMacroKeycode
C:\Users\ADMINI~1\AppData\Local\Temp/ccYJNKdD.s:200    .text:00000090 printEnter
C:\Users\ADMINI~1\AppData\Local\Temp/ccYJNKdD.s:218    .text:0000009e resetMacroInput
                            *COM*:00000030 _macroInputBuffer
                            *COM*:00000001 _macroBufferIndex
                            *COM*:00000018 _macroPressedBuffer
C:\Users\ADMINI~1\AppData\Local\Temp/ccYJNKdD.s:2720   .bss:00000005 _macroDownCount
C:\Users\ADMINI~1\AppData\Local\Temp/ccYJNKdD.s:249    .text:000000c4 pushCharacter
C:\Users\ADMINI~1\AppData\Local\Temp/ccYJNKdD.s:302    .text:000000f8 printString
C:\Users\ADMINI~1\AppData\Local\Temp/ccYJNKdD.s:404    .text:0000019e printStringFromFlash
C:\Users\ADMINI~1\AppData\Local\Temp/ccYJNKdD.s:513    .text:0000022e resetCurrentLayer
C:\Users\ADMINI~1\AppData\Local\Temp/ccYJNKdD.s:2639   .progmem.data:0000019f str_reset_mapping
                            *COM*:00000088 _newKeyMap
C:\Users\ADMINI~1\AppData\Local\Temp/ccYJNKdD.s:2752   .bss:00000015 _editCount
C:\Users\ADMINI~1\AppData\Local\Temp/ccYJNKdD.s:567    .text:0000027a clearMacro
C:\Users\ADMINI~1\AppData\Local\Temp/ccYJNKdD.s:2699   .progmem.data:000002d2 str_clear_all_macro
                             .bss:00000004 _isWorkingForEmpty
C:\Users\ADMINI~1\AppData\Local\Temp/ccYJNKdD.s:2745   .bss:0000000c _step
C:\Users\ADMINI~1\AppData\Local\Temp/ccYJNKdD.s:593    .text:00000298 saveCurrentLayer
C:\Users\ADMINI~1\AppData\Local\Temp/ccYJNKdD.s:2664   .progmem.data:00000203 str_saving
C:\Users\ADMINI~1\AppData\Local\Temp/ccYJNKdD.s:2746   .bss:0000000d _stepAfterSave
C:\Users\ADMINI~1\AppData\Local\Temp/ccYJNKdD.s:635    .text:000002d4 printPrepareString
C:\Users\ADMINI~1\AppData\Local\Temp/ccYJNKdD.s:2609   .progmem.data:000000e8 str_prepare_message
C:\Users\ADMINI~1\AppData\Local\Temp/ccYJNKdD.s:653    .text:000002e2 printMacroMessage
C:\Users\ADMINI~1\AppData\Local\Temp/ccYJNKdD.s:2554   .progmem.data:00000033 str_macro_message
C:\Users\ADMINI~1\AppData\Local\Temp/ccYJNKdD.s:2559   .progmem.data:00000039 str_macro_1
C:\Users\ADMINI~1\AppData\Local\Temp/ccYJNKdD.s:2564   .progmem.data:0000004e str_macro_2
C:\Users\ADMINI~1\AppData\Local\Temp/ccYJNKdD.s:2574   .progmem.data:00000061 str_back_6
C:\Users\ADMINI~1\AppData\Local\Temp/ccYJNKdD.s:2569   .progmem.data:00000055 str_macro_9
C:\Users\ADMINI~1\AppData\Local\Temp/ccYJNKdD.s:699    .text:0000032a printPrompt
C:\Users\ADMINI~1\AppData\Local\Temp/ccYJNKdD.s:2614   .progmem.data:000000f0 str_choose_layer
C:\Users\ADMINI~1\AppData\Local\Temp/ccYJNKdD.s:2753   .bss:00000017 _currentLayer
C:\Users\ADMINI~1\AppData\Local\Temp/ccYJNKdD.s:2619   .progmem.data:00000122 str_choose_key
C:\Users\ADMINI~1\AppData\Local\Temp/ccYJNKdD.s:2624   .progmem.data:00000141 str_input_keycode
C:\Users\ADMINI~1\AppData\Local\Temp/ccYJNKdD.s:2629   .progmem.data:00000163 str_save_end_mapping
GAS LISTING C:\Users\ADMINI~1\AppData\Local\Temp/ccYJNKdD.s 			page 197


C:\Users\ADMINI~1\AppData\Local\Temp/ccYJNKdD.s:2634   .progmem.data:0000017b str_cancel_mapping
C:\Users\ADMINI~1\AppData\Local\Temp/ccYJNKdD.s:2644   .progmem.data:000001be str_input_command
C:\Users\ADMINI~1\AppData\Local\Temp/ccYJNKdD.s:2679   .progmem.data:00000237 str_select_number
C:\Users\ADMINI~1\AppData\Local\Temp/ccYJNKdD.s:2684   .progmem.data:00000264 str_exit_macro
C:\Users\ADMINI~1\AppData\Local\Temp/ccYJNKdD.s:2689   .progmem.data:0000027f str_input_macro
C:\Users\ADMINI~1\AppData\Local\Temp/ccYJNKdD.s:2549   .progmem.data:00000029 str_exit
C:\Users\ADMINI~1\AppData\Local\Temp/ccYJNKdD.s:856    .text:000003fa printSelectMode
C:\Users\ADMINI~1\AppData\Local\Temp/ccYJNKdD.s:2529   .progmem.data:00000000 str_select_mode
C:\Users\ADMINI~1\AppData\Local\Temp/ccYJNKdD.s:2534   .progmem.data:0000000c str_select_mode1
C:\Users\ADMINI~1\AppData\Local\Temp/ccYJNKdD.s:2539   .progmem.data:0000001a str_select_mode2
C:\Users\ADMINI~1\AppData\Local\Temp/ccYJNKdD.s:2544   .progmem.data:00000022 str_select_mode3
C:\Users\ADMINI~1\AppData\Local\Temp/ccYJNKdD.s:899    .text:0000043a printMapperMessageAfter
C:\Users\ADMINI~1\AppData\Local\Temp/ccYJNKdD.s:2594   .progmem.data:0000009f str_mapper_3
C:\Users\ADMINI~1\AppData\Local\Temp/ccYJNKdD.s:2599   .progmem.data:000000af str_mapper_4
C:\Users\ADMINI~1\AppData\Local\Temp/ccYJNKdD.s:2604   .progmem.data:000000c5 str_mapper_9
C:\Users\ADMINI~1\AppData\Local\Temp/ccYJNKdD.s:942    .text:0000047a clearMacroAfter
C:\Users\ADMINI~1\AppData\Local\Temp/ccYJNKdD.s:977    .text:000004a4 saveMacro
                            *COM*:00000001 _macroIndex
C:\Users\ADMINI~1\AppData\Local\Temp/ccYJNKdD.s:1026   .text:000004ec readMacro
C:\Users\ADMINI~1\AppData\Local\Temp/ccYJNKdD.s:1088   .text:00000534 loadCurrentLayer
C:\Users\ADMINI~1\AppData\Local\Temp/ccYJNKdD.s:1185   .text:000005bc putKeyCode
C:\Users\ADMINI~1\AppData\Local\Temp/ccYJNKdD.s:2724   .data:00000028 usingKeys
C:\Users\ADMINI~1\AppData\Local\Temp/ccYJNKdD.s:2718   .bss:00000003 _isTiredEscapeKey
C:\Users\ADMINI~1\AppData\Local\Temp/ccYJNKdD.s:2712   .bss:00000002 _isPressedEscapeKey
C:\Users\ADMINI~1\AppData\Local\Temp/ccYJNKdD.s:2706   .bss:00000000 _pressedEscapeKeyCount
C:\Users\ADMINI~1\AppData\Local\Temp/ccYJNKdD.s:2751   .bss:00000014 _bufferIndex
C:\Users\ADMINI~1\AppData\Local\Temp/ccYJNKdD.s:2750   .bss:00000011 _buffer
C:\Users\ADMINI~1\AppData\Local\Temp/ccYJNKdD.s:2744   .bss:0000000b _mode
C:\Users\ADMINI~1\AppData\Local\Temp/ccYJNKdD.s:2579   .progmem.data:00000068 str_mapper_message
C:\Users\ADMINI~1\AppData\Local\Temp/ccYJNKdD.s:2584   .progmem.data:00000073 str_mapper_1
C:\Users\ADMINI~1\AppData\Local\Temp/ccYJNKdD.s:2589   .progmem.data:00000082 str_mapper_2
C:\Users\ADMINI~1\AppData\Local\Temp/ccYJNKdD.s:2694   .progmem.data:000002b6 str_invalid_macro_number
C:\Users\ADMINI~1\AppData\Local\Temp/ccYJNKdD.s:2654   .progmem.data:000001dd str_save_layer
C:\Users\ADMINI~1\AppData\Local\Temp/ccYJNKdD.s:2754   .bss:00000018 _currentLayerAfter
C:\Users\ADMINI~1\AppData\Local\Temp/ccYJNKdD.s:2659   .progmem.data:000001f0 str_load_layer
C:\Users\ADMINI~1\AppData\Local\Temp/ccYJNKdD.s:2748   .bss:0000000f _col
C:\Users\ADMINI~1\AppData\Local\Temp/ccYJNKdD.s:2749   .bss:00000010 _row
C:\Users\ADMINI~1\AppData\Local\Temp/ccYJNKdD.s:2669   .progmem.data:0000020d str_col_row
C:\Users\ADMINI~1\AppData\Local\Temp/ccYJNKdD.s:2674   .progmem.data:00000219 str_invalid_keycode
C:\Users\ADMINI~1\AppData\Local\Temp/ccYJNKdD.s:2024   .text:00000b16 saveCurrentLayerAfter
C:\Users\ADMINI~1\AppData\Local\Temp/ccYJNKdD.s:2148   .text:00000be4 prepareKeyMapper
C:\Users\ADMINI~1\AppData\Local\Temp/ccYJNKdD.s:2178   .text:00000c08 getCurrentKeycode
C:\Users\ADMINI~1\AppData\Local\Temp/ccYJNKdD.s:2282   .text:00000c7e applyMacro
C:\Users\ADMINI~1\AppData\Local\Temp/ccYJNKdD.s:2329   .text:00000cae startKeyMapping
C:\Users\ADMINI~1\AppData\Local\Temp/ccYJNKdD.s:2364   .text:00000cd2 prepareKeyMapping
C:\Users\ADMINI~1\AppData\Local\Temp/ccYJNKdD.s:2403   .text:00000d02 countKeyMappingEnabled
C:\Users\ADMINI~1\AppData\Local\Temp/ccYJNKdD.s:2435   .text:00000d3c enterFrameForMapper
C:\Users\ADMINI~1\AppData\Local\Temp/ccYJNKdD.s:2508   .text:00000db6 startKeyMappingOnBoot
C:\Users\ADMINI~1\AppData\Local\Temp/ccYJNKdD.s:2649   .progmem.data:000001d5 str_nothing

UNDEFINED SYMBOLS
INTERFACE
pushM
charToKey
sprintf
toString
__eewr_byte_m32
GAS LISTING C:\Users\ADMINI~1\AppData\Local\Temp/ccYJNKdD.s 			page 198


__eerd_byte_m32
findIndex
append
delete
keymap_code
isEmptyM
clearMacroPressedBuffer
isAllKeyRelease
prepareKeyMappingUsb
prepareKeyMappingPs2
isMacroProcessEnd
__do_copy_data
__do_clear_bss
