GAS LISTING C:\Users\ADMINI~1\AppData\Local\Temp/ccAkNyMe.s 			page 1


   1               		.file	"keymap.c"
   2               	__SREG__ = 0x3f
   3               	__SP_H__ = 0x3e
   4               	__SP_L__ = 0x3d
   5               	__CCP__  = 0x34
   6               	__tmp_reg__ = 0
   7               	__zero_reg__ = 1
   8               		.section	.debug_abbrev,"",@progbits
   9               	.Ldebug_abbrev0:
  10               		.section	.debug_info,"",@progbits
  11               	.Ldebug_info0:
  12               		.section	.debug_line,"",@progbits
  13               	.Ldebug_line0:
  14               		.text
  15               	.Ltext0:
  16               	.global	isCanceledDualAction
  17               		.type	isCanceledDualAction, @function
  18               	isCanceledDualAction:
  19               	.LFB4:
  20               	.LM1:
  21               	/* prologue: function */
  22               	/* frame size = 0 */
  23               	.LM2:
  24 0000 8091 0000 		lds r24,_isCanceledDualAction
  25               	/* epilogue start */
  26 0004 0895      		ret
  27               	.LFE4:
  28               		.size	isCanceledDualAction, .-isCanceledDualAction
  29               	.global	applyDualActionDown
  30               		.type	applyDualActionDown, @function
  31               	applyDualActionDown:
  32               	.LFB5:
  33               	.LM3:
  34               	.LVL0:
  35               	/* prologue: function */
  36               	/* frame size = 0 */
  37 0006 9C01      		movw r18,r24
  38               	.LM4:
  39 0008 E091 0000 		lds r30,dualActionKeyIndex
  40               	.LVL1:
  41 000c EE23      		tst r30
  42 000e 01F0      		breq .L6
  43               	.LVL2:
  44 0010 8091 0000 		lds r24,_isCanceledDualAction
  45 0014 8823      		tst r24
  46 0016 01F0      		breq .L6
  47               	.LBB18:
  48               	.LBB19:
  49               	.LM5:
  50 0018 8E2F      		mov r24,r30
  51 001a 865D      		subi r24,lo8(-(42))
  52 001c 8031      		cpi r24,lo8(16)
  53 001e 00F4      		brsh .L5
  54               	.LM6:
  55 0020 F0E0      		ldi r31,lo8(0)
  56               	.LVL3:
  57 0022 E050      		subi r30,lo8(-(dualActionMaskDown-214))
GAS LISTING C:\Users\ADMINI~1\AppData\Local\Temp/ccAkNyMe.s 			page 2


  58 0024 F040      		sbci r31,hi8(-(dualActionMaskDown-214))
  59               	.LVL4:
  60 0026 E081      		ld r30,Z
  61               	.LVL5:
  62               	.L5:
  63               	.LBE19:
  64               	.LBE18:
  65               	.LM7:
  66 0028 8E2F      		mov r24,r30
  67 002a F901      		movw r30,r18
  68 002c 0995      		icall
  69               	.LVL6:
  70               	.LM8:
  71 002e 1092 0000 		sts dualActionKeyIndex,__zero_reg__
  72               	.LVL7:
  73               	.L6:
  74 0032 0895      		ret
  75               	.LFE5:
  76               		.size	applyDualActionDown, .-applyDualActionDown
  77               	.global	getDualActionDownKeyIdex
  78               		.type	getDualActionDownKeyIdex, @function
  79               	getDualActionDownKeyIdex:
  80               	.LFB8:
  81               	.LM9:
  82               	.LVL8:
  83               	/* prologue: function */
  84               	/* frame size = 0 */
  85 0034 E82F      		mov r30,r24
  86               	.LM10:
  87 0036 865D      		subi r24,lo8(-(42))
  88               	.LVL9:
  89 0038 8031      		cpi r24,lo8(16)
  90 003a 00F4      		brsh .L8
  91 003c 8091 0000 		lds r24,_isCanceledDualAction
  92 0040 8823      		tst r24
  93 0042 01F0      		breq .L8
  94               	.LM11:
  95 0044 F0E0      		ldi r31,lo8(0)
  96               	.LVL10:
  97 0046 E050      		subi r30,lo8(-(dualActionMaskDown-214))
  98 0048 F040      		sbci r31,hi8(-(dualActionMaskDown-214))
  99               	.LVL11:
 100 004a E081      		ld r30,Z
 101               	.LVL12:
 102               	.L8:
 103               	.LM12:
 104 004c 8E2F      		mov r24,r30
 105               	/* epilogue start */
 106 004e 0895      		ret
 107               	.LFE8:
 108               		.size	getDualActionDownKeyIdex, .-getDualActionDownKeyIdex
 109               	.global	setDualAction
 110               		.type	setDualAction, @function
 111               	setDualAction:
 112               	.LFB7:
 113               	.LM13:
 114               	.LVL13:
GAS LISTING C:\Users\ADMINI~1\AppData\Local\Temp/ccAkNyMe.s 			page 3


 115 0050 1F93      		push r17
 116               	/* prologue: function */
 117               	/* frame size = 0 */
 118 0052 982F      		mov r25,r24
 119 0054 865D      		subi r24,lo8(-(42))
 120               	.LVL14:
 121               	.LM14:
 122 0056 6623      		tst r22
 123 0058 01F0      		breq .L11
 124               	.LM15:
 125 005a 8031      		cpi r24,lo8(16)
 126 005c 00F4      		brsh .L12
 127               	.LM16:
 128 005e 8091 0000 		lds r24,_dualActionCount
 129 0062 8F5F      		subi r24,lo8(-(1))
 130 0064 8093 0000 		sts _dualActionCount,r24
 131               	.LM17:
 132 0068 8091 0000 		lds r24,_isActiveDualAction
 133 006c 8823      		tst r24
 134 006e 01F4      		brne .L17
 135               	.LM18:
 136 0070 9093 0000 		sts dualActionKeyIndex,r25
 137               	.LM19:
 138 0074 81E0      		ldi r24,lo8(1)
 139 0076 8093 0000 		sts _isActiveDualAction,r24
 140               	.LM20:
 141 007a 1092 0000 		sts _isCanceledDualAction,__zero_reg__
 142 007e 00C0      		rjmp .L16
 143               	.L12:
 144               	.LM21:
 145 0080 8091 0000 		lds r24,dualActionKeyIndex
 146 0084 8823      		tst r24
 147 0086 01F0      		breq .L16
 148               	.L17:
 149               	.LM22:
 150 0088 81E0      		ldi r24,lo8(1)
 151 008a 8093 0000 		sts _isCanceledDualAction,r24
 152 008e 00C0      		rjmp .L16
 153               	.L11:
 154               	.LM23:
 155 0090 8031      		cpi r24,lo8(16)
 156 0092 00F4      		brsh .L16
 157               	.LM24:
 158 0094 8091 0000 		lds r24,_dualActionCount
 159 0098 8150      		subi r24,lo8(-(-1))
 160 009a 8093 0000 		sts _dualActionCount,r24
 161               	.LBB20:
 162               	.LBB21:
 163               	.LM25:
 164 009e E091 0000 		lds r30,dualActionKeyIndex
 165 00a2 EE23      		tst r30
 166 00a4 01F0      		breq .L15
 167 00a6 8091 0000 		lds r24,_isCanceledDualAction
 168 00aa 8823      		tst r24
 169 00ac 01F4      		brne .L15
 170               	.LBB22:
 171               	.LM26:
GAS LISTING C:\Users\ADMINI~1\AppData\Local\Temp/ccAkNyMe.s 			page 4


 172 00ae F0E0      		ldi r31,lo8(0)
 173 00b0 E050      		subi r30,lo8(-(dualActionMaskUp-214))
 174 00b2 F040      		sbci r31,hi8(-(dualActionMaskUp-214))
 175 00b4 1081      		ld r17,Z
 176               	.LVL15:
 177               	.LM27:
 178 00b6 812F      		mov r24,r17
 179 00b8 0E94 0000 		call pushM
 180               	.LVL16:
 181               	.LM28:
 182 00bc 812F      		mov r24,r17
 183 00be 0E94 0000 		call pushM
 184               	.LM29:
 185 00c2 1092 0000 		sts dualActionKeyIndex,__zero_reg__
 186               	.LVL17:
 187               	.L15:
 188               	.LBE22:
 189               	.LM30:
 190 00c6 8091 0000 		lds r24,_dualActionCount
 191 00ca 8823      		tst r24
 192 00cc 01F4      		brne .L16
 193 00ce 1092 0000 		sts _isActiveDualAction,__zero_reg__
 194               	.L16:
 195               	/* epilogue start */
 196               	.LBE21:
 197               	.LBE20:
 198               	.LM31:
 199 00d2 1F91      		pop r17
 200               	.LVL18:
 201 00d4 0895      		ret
 202               	.LFE7:
 203               		.size	setDualAction, .-setDualAction
 204               	.global	dualActionMaskDown
 205               		.data
 206               		.type	dualActionMaskDown, @object
 207               		.size	dualActionMaskDown, 16
 208               	dualActionMaskDown:
 209 0000 FE        		.byte	-2
 210 0001 FE        		.byte	-2
 211 0002 F8        		.byte	-8
 212 0003 F8        		.byte	-8
 213 0004 6C        		.byte	108
 214 0005 6C        		.byte	108
 215 0006 68        		.byte	104
 216 0007 68        		.byte	104
 217 0008 6D        		.byte	109
 218 0009 6D        		.byte	109
 219 000a 69        		.byte	105
 220 000b 69        		.byte	105
 221 000c 6B        		.byte	107
 222 000d 6B        		.byte	107
 223 000e 67        		.byte	103
 224 000f 67        		.byte	103
 225               	.global	dualActionMaskUp
 226               		.type	dualActionMaskUp, @object
 227               		.size	dualActionMaskUp, 16
 228               	dualActionMaskUp:
GAS LISTING C:\Users\ADMINI~1\AppData\Local\Temp/ccAkNyMe.s 			page 5


 229 0010 8E        		.byte	-114
 230 0011 8D        		.byte	-115
 231 0012 8E        		.byte	-114
 232 0013 8D        		.byte	-115
 233 0014 8E        		.byte	-114
 234 0015 8D        		.byte	-115
 235 0016 8E        		.byte	-114
 236 0017 8D        		.byte	-115
 237 0018 8E        		.byte	-114
 238 0019 8D        		.byte	-115
 239 001a 8E        		.byte	-114
 240 001b 8D        		.byte	-115
 241 001c 8E        		.byte	-114
 242 001d 8D        		.byte	-115
 243 001e 8E        		.byte	-114
 244 001f 8D        		.byte	-115
 245               	.global	dualActionKeyIndex
 246               	.global	dualActionKeyIndex
 247               		.section .bss
 248               		.type	dualActionKeyIndex, @object
 249               		.size	dualActionKeyIndex, 1
 250               	dualActionKeyIndex:
 251 0000 00        		.skip 1,0
 252               	.global	keycode_set2
 253               		.section	.progmem.data,"a",@progbits
 254               		.type	keycode_set2, @object
 255               		.size	keycode_set2, 157
 256               	keycode_set2:
 257 0000 00        		.byte	0
 258 0001 00        		.byte	0
 259 0002 FC        		.byte	-4
 260 0003 00        		.byte	0
 261 0004 1C        		.byte	28
 262 0005 32        		.byte	50
 263 0006 21        		.byte	33
 264 0007 23        		.byte	35
 265 0008 24        		.byte	36
 266 0009 2B        		.byte	43
 267 000a 34        		.byte	52
 268 000b 33        		.byte	51
 269 000c 43        		.byte	67
 270 000d 3B        		.byte	59
 271 000e 42        		.byte	66
 272 000f 4B        		.byte	75
 273 0010 3A        		.byte	58
 274 0011 31        		.byte	49
 275 0012 44        		.byte	68
 276 0013 4D        		.byte	77
 277 0014 15        		.byte	21
 278 0015 2D        		.byte	45
 279 0016 1B        		.byte	27
 280 0017 2C        		.byte	44
 281 0018 3C        		.byte	60
 282 0019 2A        		.byte	42
 283 001a 1D        		.byte	29
 284 001b 22        		.byte	34
 285 001c 35        		.byte	53
GAS LISTING C:\Users\ADMINI~1\AppData\Local\Temp/ccAkNyMe.s 			page 6


 286 001d 1A        		.byte	26
 287 001e 16        		.byte	22
 288 001f 1E        		.byte	30
 289 0020 26        		.byte	38
 290 0021 25        		.byte	37
 291 0022 2E        		.byte	46
 292 0023 36        		.byte	54
 293 0024 3D        		.byte	61
 294 0025 3E        		.byte	62
 295 0026 46        		.byte	70
 296 0027 45        		.byte	69
 297 0028 5A        		.byte	90
 298 0029 76        		.byte	118
 299 002a 66        		.byte	102
 300 002b 0D        		.byte	13
 301 002c 29        		.byte	41
 302 002d 4E        		.byte	78
 303 002e 55        		.byte	85
 304 002f 54        		.byte	84
 305 0030 5B        		.byte	91
 306 0031 5D        		.byte	93
 307 0032 5D        		.byte	93
 308 0033 4C        		.byte	76
 309 0034 52        		.byte	82
 310 0035 0E        		.byte	14
 311 0036 41        		.byte	65
 312 0037 49        		.byte	73
 313 0038 4A        		.byte	74
 314 0039 58        		.byte	88
 315 003a 05        		.byte	5
 316 003b 06        		.byte	6
 317 003c 04        		.byte	4
 318 003d 0C        		.byte	12
 319 003e 03        		.byte	3
 320 003f 0B        		.byte	11
 321 0040 83        		.byte	-125
 322 0041 0A        		.byte	10
 323 0042 01        		.byte	1
 324 0043 09        		.byte	9
 325 0044 78        		.byte	120
 326 0045 07        		.byte	7
 327 0046 7C        		.byte	124
 328 0047 7E        		.byte	126
 329 0048 7C        		.byte	124
 330 0049 70        		.byte	112
 331 004a 6C        		.byte	108
 332 004b 7D        		.byte	125
 333 004c 71        		.byte	113
 334 004d 69        		.byte	105
 335 004e 7A        		.byte	122
 336 004f 74        		.byte	116
 337 0050 6B        		.byte	107
 338 0051 72        		.byte	114
 339 0052 75        		.byte	117
 340 0053 77        		.byte	119
 341 0054 4A        		.byte	74
 342 0055 7C        		.byte	124
GAS LISTING C:\Users\ADMINI~1\AppData\Local\Temp/ccAkNyMe.s 			page 7


 343 0056 7B        		.byte	123
 344 0057 79        		.byte	121
 345 0058 5A        		.byte	90
 346 0059 69        		.byte	105
 347 005a 72        		.byte	114
 348 005b 7A        		.byte	122
 349 005c 6B        		.byte	107
 350 005d 73        		.byte	115
 351 005e 74        		.byte	116
 352 005f 6C        		.byte	108
 353 0060 75        		.byte	117
 354 0061 7D        		.byte	125
 355 0062 70        		.byte	112
 356 0063 71        		.byte	113
 357 0064 61        		.byte	97
 358 0065 2F        		.byte	47
 359 0066 00        		.byte	0
 360 0067 14        		.byte	20
 361 0068 12        		.byte	18
 362 0069 11        		.byte	17
 363 006a 1F        		.byte	31
 364 006b 14        		.byte	20
 365 006c 59        		.byte	89
 366 006d 11        		.byte	17
 367 006e 27        		.byte	39
 368 006f 00        		.byte	0
 369 0070 00        		.byte	0
 370 0071 37        		.byte	55
 371 0072 3F        		.byte	63
 372 0073 5E        		.byte	94
 373 0074 48        		.byte	72
 374 0075 10        		.byte	16
 375 0076 3A        		.byte	58
 376 0077 38        		.byte	56
 377 0078 30        		.byte	48
 378 0079 28        		.byte	40
 379 007a 20        		.byte	32
 380 007b 18        		.byte	24
 381 007c 4D        		.byte	77
 382 007d 15        		.byte	21
 383 007e 3B        		.byte	59
 384 007f 34        		.byte	52
 385 0080 23        		.byte	35
 386 0081 32        		.byte	50
 387 0082 21        		.byte	33
 388 0083 50        		.byte	80
 389 0084 2B        		.byte	43
 390 0085 40        		.byte	64
 391 0086 4B        		.byte	75
 392 0087 1C        		.byte	28
 393 0088 43        		.byte	67
 394 0089 22        		.byte	34
 395 008a 1D        		.byte	29
 396 008b 00        		.byte	0
 397 008c 00        		.byte	0
 398 008d F1        		.byte	-15
 399 008e F2        		.byte	-14
GAS LISTING C:\Users\ADMINI~1\AppData\Local\Temp/ccAkNyMe.s 			page 8


 400 008f 37        		.byte	55
 401 0090 0F        		.byte	15
 402 0091 08        		.byte	8
 403 0092 10        		.byte	16
 404 0093 18        		.byte	24
 405 0094 20        		.byte	32
 406 0095 28        		.byte	40
 407 0096 30        		.byte	48
 408 0097 38        		.byte	56
 409 0098 40        		.byte	64
 410 0099 48        		.byte	72
 411 009a 50        		.byte	80
 412 009b 57        		.byte	87
 413 009c 5F        		.byte	95
 414               	.global	keycode_USB_multimedia
 415               		.type	keycode_USB_multimedia, @object
 416               		.size	keycode_USB_multimedia, 52
 417               	keycode_USB_multimedia:
 418 009d 0000      		.word	0
 419 009f 0000      		.word	0
 420 00a1 0000      		.word	0
 421 00a3 8A01      		.word	394
 422 00a5 2102      		.word	545
 423 00a7 2302      		.word	547
 424 00a9 2402      		.word	548
 425 00ab 2502      		.word	549
 426 00ad 2602      		.word	550
 427 00af 2702      		.word	551
 428 00b1 2A02      		.word	554
 429 00b3 B500      		.word	181
 430 00b5 B600      		.word	182
 431 00b7 B700      		.word	183
 432 00b9 CD00      		.word	205
 433 00bb E200      		.word	226
 434 00bd E900      		.word	233
 435 00bf EA00      		.word	234
 436 00c1 8301      		.word	387
 437 00c3 9201      		.word	402
 438 00c5 9401      		.word	404
 439 00c7 0000      		.word	0
 440 00c9 0000      		.word	0
 441 00cb 0000      		.word	0
 442 00cd 0000      		.word	0
 443 00cf 0000      		.word	0
 444               	.global	keycode_USB_extend
 445               		.type	keycode_USB_extend, @object
 446               		.size	keycode_USB_extend, 32
 447               	keycode_USB_extend:
 448 00d1 9100      		.word	145
 449 00d3 9000      		.word	144
 450 00d5 6600      		.word	102
 451 00d7 6700      		.word	103
 452 00d9 6800      		.word	104
 453 00db 6900      		.word	105
 454 00dd 6A00      		.word	106
 455 00df 6B00      		.word	107
 456 00e1 6C00      		.word	108
GAS LISTING C:\Users\ADMINI~1\AppData\Local\Temp/ccAkNyMe.s 			page 9


 457 00e3 6D00      		.word	109
 458 00e5 6E00      		.word	110
 459 00e7 6F00      		.word	111
 460 00e9 7000      		.word	112
 461 00eb 7100      		.word	113
 462 00ed 7200      		.word	114
 463 00ef 7300      		.word	115
 464               	.global	keycode_set2_special
 465               		.type	keycode_set2_special, @object
 466               		.size	keycode_set2_special, 3
 467               	keycode_set2_special:
 468 00f1 46        		.byte	70
 469 00f2 48        		.byte	72
 470 00f3 00        		.byte	0
 471               	.global	keycode_set2_makeonly
 472               		.type	keycode_set2_makeonly, @object
 473               		.size	keycode_set2_makeonly, 4
 474               	keycode_set2_makeonly:
 475 00f4 48        		.byte	72
 476 00f5 8E        		.byte	-114
 477 00f6 8D        		.byte	-115
 478 00f7 00        		.byte	0
 479               	.global	keycode_set2_make_break
 480               		.type	keycode_set2_make_break, @object
 481               		.size	keycode_set2_make_break, 5
 482               	keycode_set2_make_break:
 483 00f8 71        		.byte	113
 484 00f9 72        		.byte	114
 485 00fa 73        		.byte	115
 486 00fb 8F        		.byte	-113
 487 00fc 00        		.byte	0
 488               	.global	keycode_set2_extend
 489               		.type	keycode_set2_extend, @object
 490               		.size	keycode_set2_extend, 46
 491               	keycode_set2_extend:
 492 00fd 6A        		.byte	106
 493 00fe 6B        		.byte	107
 494 00ff 6E        		.byte	110
 495 0100 6D        		.byte	109
 496 0101 65        		.byte	101
 497 0102 46        		.byte	70
 498 0103 49        		.byte	73
 499 0104 4A        		.byte	74
 500 0105 4B        		.byte	75
 501 0106 4C        		.byte	76
 502 0107 4D        		.byte	77
 503 0108 4E        		.byte	78
 504 0109 52        		.byte	82
 505 010a 50        		.byte	80
 506 010b 4F        		.byte	79
 507 010c 51        		.byte	81
 508 010d 54        		.byte	84
 509 010e 58        		.byte	88
 510 010f 71        		.byte	113
 511 0110 72        		.byte	114
 512 0111 73        		.byte	115
 513 0112 74        		.byte	116
GAS LISTING C:\Users\ADMINI~1\AppData\Local\Temp/ccAkNyMe.s 			page 10


 514 0113 75        		.byte	117
 515 0114 76        		.byte	118
 516 0115 77        		.byte	119
 517 0116 78        		.byte	120
 518 0117 79        		.byte	121
 519 0118 7A        		.byte	122
 520 0119 7B        		.byte	123
 521 011a 7C        		.byte	124
 522 011b 7D        		.byte	125
 523 011c 7E        		.byte	126
 524 011d 7F        		.byte	127
 525 011e 80        		.byte	-128
 526 011f 81        		.byte	-127
 527 0120 82        		.byte	-126
 528 0121 83        		.byte	-125
 529 0122 84        		.byte	-124
 530 0123 85        		.byte	-123
 531 0124 86        		.byte	-122
 532 0125 87        		.byte	-121
 533 0126 88        		.byte	-120
 534 0127 89        		.byte	-119
 535 0128 8A        		.byte	-118
 536 0129 8F        		.byte	-113
 537 012a 00        		.byte	0
 538               	.global	keycode_set2_proc_shift
 539               		.type	keycode_set2_proc_shift, @object
 540               		.size	keycode_set2_proc_shift, 15
 541               	keycode_set2_proc_shift:
 542 012b 49        		.byte	73
 543 012c 4C        		.byte	76
 544 012d 4A        		.byte	74
 545 012e 4D        		.byte	77
 546 012f 4B        		.byte	75
 547 0130 4E        		.byte	78
 548 0131 6A        		.byte	106
 549 0132 6E        		.byte	110
 550 0133 65        		.byte	101
 551 0134 50        		.byte	80
 552 0135 4F        		.byte	79
 553 0136 52        		.byte	82
 554 0137 51        		.byte	81
 555 0138 54        		.byte	84
 556 0139 00        		.byte	0
 557               	.global	keymap_code
 558               		.type	keymap_code, @object
 559               		.size	keymap_code, 408
 560               	keymap_code:
 561 013a 48        		.byte	72
 562 013b 00        		.byte	0
 563 013c 00        		.byte	0
 564 013d 00        		.byte	0
 565 013e 6B        		.byte	107
 566 013f 00        		.byte	0
 567 0140 67        		.byte	103
 568 0141 3E        		.byte	62
 569 0142 14        		.byte	20
 570 0143 2B        		.byte	43
GAS LISTING C:\Users\ADMINI~1\AppData\Local\Temp/ccAkNyMe.s 			page 11


 571 0144 04        		.byte	4
 572 0145 29        		.byte	41
 573 0146 1D        		.byte	29
 574 0147 00        		.byte	0
 575 0148 35        		.byte	53
 576 0149 1E        		.byte	30
 577 014a 1A        		.byte	26
 578 014b 39        		.byte	57
 579 014c 16        		.byte	22
 580 014d 00        		.byte	0
 581 014e 1B        		.byte	27
 582 014f 00        		.byte	0
 583 0150 3A        		.byte	58
 584 0151 1F        		.byte	31
 585 0152 08        		.byte	8
 586 0153 3C        		.byte	60
 587 0154 07        		.byte	7
 588 0155 3D        		.byte	61
 589 0156 06        		.byte	6
 590 0157 00        		.byte	0
 591 0158 3B        		.byte	59
 592 0159 20        		.byte	32
 593 015a 15        		.byte	21
 594 015b 17        		.byte	23
 595 015c 09        		.byte	9
 596 015d 0A        		.byte	10
 597 015e 19        		.byte	25
 598 015f 05        		.byte	5
 599 0160 22        		.byte	34
 600 0161 21        		.byte	33
 601 0162 18        		.byte	24
 602 0163 1C        		.byte	28
 603 0164 0D        		.byte	13
 604 0165 0B        		.byte	11
 605 0166 10        		.byte	16
 606 0167 11        		.byte	17
 607 0168 23        		.byte	35
 608 0169 24        		.byte	36
 609 016a 0C        		.byte	12
 610 016b 30        		.byte	48
 611 016c 0E        		.byte	14
 612 016d 3F        		.byte	63
 613 016e 36        		.byte	54
 614 016f 00        		.byte	0
 615 0170 2E        		.byte	46
 616 0171 25        		.byte	37
 617 0172 12        		.byte	18
 618 0173 40        		.byte	64
 619 0174 0F        		.byte	15
 620 0175 00        		.byte	0
 621 0176 37        		.byte	55
 622 0177 FE        		.byte	-2
 623 0178 41        		.byte	65
 624 0179 26        		.byte	38
 625 017a 13        		.byte	19
 626 017b 2F        		.byte	47
 627 017c 33        		.byte	51
GAS LISTING C:\Users\ADMINI~1\AppData\Local\Temp/ccAkNyMe.s 			page 12


 628 017d 34        		.byte	52
 629 017e 32        		.byte	50
 630 017f 38        		.byte	56
 631 0180 2D        		.byte	45
 632 0181 27        		.byte	39
 633 0182 47        		.byte	71
 634 0183 00        		.byte	0
 635 0184 00        		.byte	0
 636 0185 69        		.byte	105
 637 0186 64        		.byte	100
 638 0187 6D        		.byte	109
 639 0188 00        		.byte	0
 640 0189 46        		.byte	70
 641 018a 00        		.byte	0
 642 018b 2A        		.byte	42
 643 018c 31        		.byte	49
 644 018d 44        		.byte	68
 645 018e 28        		.byte	40
 646 018f 45        		.byte	69
 647 0190 42        		.byte	66
 648 0191 43        		.byte	67
 649 0192 C9        		.byte	-55
 650 0193 53        		.byte	83
 651 0194 5F        		.byte	95
 652 0195 2C        		.byte	44
 653 0196 5C        		.byte	92
 654 0197 51        		.byte	81
 655 0198 4C        		.byte	76
 656 0199 00        		.byte	0
 657 019a CA        		.byte	-54
 658 019b 54        		.byte	84
 659 019c 60        		.byte	96
 660 019d 5D        		.byte	93
 661 019e 5A        		.byte	90
 662 019f 4F        		.byte	79
 663 01a0 49        		.byte	73
 664 01a1 00        		.byte	0
 665 01a2 CB        		.byte	-53
 666 01a3 55        		.byte	85
 667 01a4 61        		.byte	97
 668 01a5 5E        		.byte	94
 669 01a6 5B        		.byte	91
 670 01a7 00        		.byte	0
 671 01a8 4B        		.byte	75
 672 01a9 4E        		.byte	78
 673 01aa CC        		.byte	-52
 674 01ab 56        		.byte	86
 675 01ac 57        		.byte	87
 676 01ad 52        		.byte	82
 677 01ae 58        		.byte	88
 678 01af 50        		.byte	80
 679 01b0 4A        		.byte	74
 680 01b1 4D        		.byte	77
 681 01b2 62        		.byte	98
 682 01b3 68        		.byte	104
 683 01b4 6C        		.byte	108
 684 01b5 59        		.byte	89
GAS LISTING C:\Users\ADMINI~1\AppData\Local\Temp/ccAkNyMe.s 			page 13


 685 01b6 63        		.byte	99
 686 01b7 00        		.byte	0
 687 01b8 00        		.byte	0
 688 01b9 00        		.byte	0
 689 01ba 00        		.byte	0
 690 01bb 6A        		.byte	106
 691 01bc 6E        		.byte	110
 692 01bd 00        		.byte	0
 693 01be 00        		.byte	0
 694 01bf 00        		.byte	0
 695 01c0 00        		.byte	0
 696 01c1 00        		.byte	0
 697 01c2 8F        		.byte	-113
 698 01c3 00        		.byte	0
 699 01c4 00        		.byte	0
 700 01c5 00        		.byte	0
 701 01c6 6B        		.byte	107
 702 01c7 00        		.byte	0
 703 01c8 67        		.byte	103
 704 01c9 3E        		.byte	62
 705 01ca 14        		.byte	20
 706 01cb 2B        		.byte	43
 707 01cc 04        		.byte	4
 708 01cd 29        		.byte	41
 709 01ce 1D        		.byte	29
 710 01cf 00        		.byte	0
 711 01d0 35        		.byte	53
 712 01d1 91        		.byte	-111
 713 01d2 1A        		.byte	26
 714 01d3 FD        		.byte	-3
 715 01d4 16        		.byte	22
 716 01d5 00        		.byte	0
 717 01d6 1B        		.byte	27
 718 01d7 00        		.byte	0
 719 01d8 3A        		.byte	58
 720 01d9 92        		.byte	-110
 721 01da 08        		.byte	8
 722 01db 3C        		.byte	60
 723 01dc 07        		.byte	7
 724 01dd 3D        		.byte	61
 725 01de 06        		.byte	6
 726 01df 00        		.byte	0
 727 01e0 3B        		.byte	59
 728 01e1 93        		.byte	-109
 729 01e2 15        		.byte	21
 730 01e3 17        		.byte	23
 731 01e4 09        		.byte	9
 732 01e5 0A        		.byte	10
 733 01e6 19        		.byte	25
 734 01e7 05        		.byte	5
 735 01e8 95        		.byte	-107
 736 01e9 94        		.byte	-108
 737 01ea 5C        		.byte	92
 738 01eb 1C        		.byte	28
 739 01ec 59        		.byte	89
 740 01ed 0B        		.byte	11
 741 01ee 62        		.byte	98
GAS LISTING C:\Users\ADMINI~1\AppData\Local\Temp/ccAkNyMe.s 			page 14


 742 01ef 11        		.byte	17
 743 01f0 96        		.byte	-106
 744 01f1 97        		.byte	-105
 745 01f2 5D        		.byte	93
 746 01f3 30        		.byte	48
 747 01f4 5A        		.byte	90
 748 01f5 3F        		.byte	63
 749 01f6 62        		.byte	98
 750 01f7 00        		.byte	0
 751 01f8 9C        		.byte	-100
 752 01f9 98        		.byte	-104
 753 01fa 5E        		.byte	94
 754 01fb 40        		.byte	64
 755 01fc 5B        		.byte	91
 756 01fd 00        		.byte	0
 757 01fe 63        		.byte	99
 758 01ff FE        		.byte	-2
 759 0200 41        		.byte	65
 760 0201 99        		.byte	-103
 761 0202 55        		.byte	85
 762 0203 2F        		.byte	47
 763 0204 56        		.byte	86
 764 0205 34        		.byte	52
 765 0206 32        		.byte	50
 766 0207 57        		.byte	87
 767 0208 9B        		.byte	-101
 768 0209 9A        		.byte	-102
 769 020a 47        		.byte	71
 770 020b 00        		.byte	0
 771 020c 00        		.byte	0
 772 020d 69        		.byte	105
 773 020e 64        		.byte	100
 774 020f 6D        		.byte	109
 775 0210 00        		.byte	0
 776 0211 46        		.byte	70
 777 0212 00        		.byte	0
 778 0213 2A        		.byte	42
 779 0214 31        		.byte	49
 780 0215 44        		.byte	68
 781 0216 58        		.byte	88
 782 0217 45        		.byte	69
 783 0218 42        		.byte	66
 784 0219 43        		.byte	67
 785 021a C9        		.byte	-55
 786 021b 53        		.byte	83
 787 021c 5F        		.byte	95
 788 021d FC        		.byte	-4
 789 021e 5C        		.byte	92
 790 021f 51        		.byte	81
 791 0220 4C        		.byte	76
 792 0221 00        		.byte	0
 793 0222 CA        		.byte	-54
 794 0223 54        		.byte	84
 795 0224 60        		.byte	96
 796 0225 5D        		.byte	93
 797 0226 5A        		.byte	90
 798 0227 4F        		.byte	79
GAS LISTING C:\Users\ADMINI~1\AppData\Local\Temp/ccAkNyMe.s 			page 15


 799 0228 49        		.byte	73
 800 0229 00        		.byte	0
 801 022a CB        		.byte	-53
 802 022b 55        		.byte	85
 803 022c 61        		.byte	97
 804 022d 5E        		.byte	94
 805 022e 5B        		.byte	91
 806 022f 00        		.byte	0
 807 0230 4B        		.byte	75
 808 0231 4E        		.byte	78
 809 0232 CC        		.byte	-52
 810 0233 56        		.byte	86
 811 0234 57        		.byte	87
 812 0235 52        		.byte	82
 813 0236 58        		.byte	88
 814 0237 50        		.byte	80
 815 0238 4A        		.byte	74
 816 0239 4D        		.byte	77
 817 023a 62        		.byte	98
 818 023b 68        		.byte	104
 819 023c 6C        		.byte	108
 820 023d 59        		.byte	89
 821 023e 63        		.byte	99
 822 023f 00        		.byte	0
 823 0240 00        		.byte	0
 824 0241 00        		.byte	0
 825 0242 00        		.byte	0
 826 0243 6A        		.byte	106
 827 0244 6E        		.byte	110
 828 0245 00        		.byte	0
 829 0246 00        		.byte	0
 830 0247 00        		.byte	0
 831 0248 00        		.byte	0
 832 0249 00        		.byte	0
 833 024a 48        		.byte	72
 834 024b 00        		.byte	0
 835 024c 00        		.byte	0
 836 024d 00        		.byte	0
 837 024e 6B        		.byte	107
 838 024f 00        		.byte	0
 839 0250 67        		.byte	103
 840 0251 3E        		.byte	62
 841 0252 14        		.byte	20
 842 0253 2B        		.byte	43
 843 0254 04        		.byte	4
 844 0255 29        		.byte	41
 845 0256 1D        		.byte	29
 846 0257 00        		.byte	0
 847 0258 35        		.byte	53
 848 0259 1E        		.byte	30
 849 025a 1A        		.byte	26
 850 025b 39        		.byte	57
 851 025c 16        		.byte	22
 852 025d 00        		.byte	0
 853 025e 1B        		.byte	27
 854 025f 00        		.byte	0
 855 0260 3A        		.byte	58
GAS LISTING C:\Users\ADMINI~1\AppData\Local\Temp/ccAkNyMe.s 			page 16


 856 0261 1F        		.byte	31
 857 0262 08        		.byte	8
 858 0263 3C        		.byte	60
 859 0264 07        		.byte	7
 860 0265 3D        		.byte	61
 861 0266 06        		.byte	6
 862 0267 00        		.byte	0
 863 0268 3B        		.byte	59
 864 0269 20        		.byte	32
 865 026a 15        		.byte	21
 866 026b 17        		.byte	23
 867 026c 09        		.byte	9
 868 026d 0A        		.byte	10
 869 026e 19        		.byte	25
 870 026f 05        		.byte	5
 871 0270 22        		.byte	34
 872 0271 21        		.byte	33
 873 0272 18        		.byte	24
 874 0273 1C        		.byte	28
 875 0274 0D        		.byte	13
 876 0275 0B        		.byte	11
 877 0276 10        		.byte	16
 878 0277 11        		.byte	17
 879 0278 23        		.byte	35
 880 0279 24        		.byte	36
 881 027a 0C        		.byte	12
 882 027b 30        		.byte	48
 883 027c 0E        		.byte	14
 884 027d 3F        		.byte	63
 885 027e 36        		.byte	54
 886 027f 00        		.byte	0
 887 0280 2E        		.byte	46
 888 0281 25        		.byte	37
 889 0282 12        		.byte	18
 890 0283 40        		.byte	64
 891 0284 0F        		.byte	15
 892 0285 00        		.byte	0
 893 0286 37        		.byte	55
 894 0287 FE        		.byte	-2
 895 0288 41        		.byte	65
 896 0289 26        		.byte	38
 897 028a 13        		.byte	19
 898 028b 2F        		.byte	47
 899 028c 33        		.byte	51
 900 028d 34        		.byte	52
 901 028e 32        		.byte	50
 902 028f 38        		.byte	56
 903 0290 2D        		.byte	45
 904 0291 27        		.byte	39
 905 0292 47        		.byte	71
 906 0293 00        		.byte	0
 907 0294 00        		.byte	0
 908 0295 69        		.byte	105
 909 0296 64        		.byte	100
 910 0297 6D        		.byte	109
 911 0298 00        		.byte	0
 912 0299 46        		.byte	70
GAS LISTING C:\Users\ADMINI~1\AppData\Local\Temp/ccAkNyMe.s 			page 17


 913 029a 00        		.byte	0
 914 029b 2A        		.byte	42
 915 029c 31        		.byte	49
 916 029d 44        		.byte	68
 917 029e 28        		.byte	40
 918 029f 45        		.byte	69
 919 02a0 42        		.byte	66
 920 02a1 43        		.byte	67
 921 02a2 C9        		.byte	-55
 922 02a3 53        		.byte	83
 923 02a4 5F        		.byte	95
 924 02a5 2C        		.byte	44
 925 02a6 5C        		.byte	92
 926 02a7 51        		.byte	81
 927 02a8 4C        		.byte	76
 928 02a9 00        		.byte	0
 929 02aa CA        		.byte	-54
 930 02ab 54        		.byte	84
 931 02ac 60        		.byte	96
 932 02ad 5D        		.byte	93
 933 02ae 5A        		.byte	90
 934 02af 4F        		.byte	79
 935 02b0 49        		.byte	73
 936 02b1 00        		.byte	0
 937 02b2 CB        		.byte	-53
 938 02b3 55        		.byte	85
 939 02b4 61        		.byte	97
 940 02b5 5E        		.byte	94
 941 02b6 5B        		.byte	91
 942 02b7 00        		.byte	0
 943 02b8 4B        		.byte	75
 944 02b9 4E        		.byte	78
 945 02ba CC        		.byte	-52
 946 02bb 56        		.byte	86
 947 02bc 57        		.byte	87
 948 02bd 52        		.byte	82
 949 02be 58        		.byte	88
 950 02bf 50        		.byte	80
 951 02c0 4A        		.byte	74
 952 02c1 4D        		.byte	77
 953 02c2 62        		.byte	98
 954 02c3 68        		.byte	104
 955 02c4 6C        		.byte	108
 956 02c5 59        		.byte	89
 957 02c6 63        		.byte	99
 958 02c7 00        		.byte	0
 959 02c8 00        		.byte	0
 960 02c9 00        		.byte	0
 961 02ca 00        		.byte	0
 962 02cb 6A        		.byte	106
 963 02cc 6E        		.byte	110
 964 02cd 00        		.byte	0
 965 02ce 00        		.byte	0
 966 02cf 00        		.byte	0
 967 02d0 00        		.byte	0
 968 02d1 00        		.byte	0
 969               		.lcomm _dualActionCount,1
GAS LISTING C:\Users\ADMINI~1\AppData\Local\Temp/ccAkNyMe.s 			page 18


 970               		.lcomm _isActiveDualAction,1
 971               		.lcomm _isCanceledDualAction,1
 972               		.section	.debug_frame,"",@progbits
 973               	.Lframe0:
 974 0000 0C00 0000 		.long	.LECIE0-.LSCIE0
 975               	.LSCIE0:
 976 0004 FFFF FFFF 		.long	0xffffffff
 977 0008 01        		.byte	0x1
 978 0009 00        		.string	""
 979 000a 01        		.uleb128 0x1
 980 000b 7F        		.sleb128 -1
 981 000c 24        		.byte	0x24
 982 000d 0C        		.byte	0xc
 983 000e 20        		.uleb128 0x20
 984 000f 00        		.uleb128 0x0
 985               		.p2align	2
 986               	.LECIE0:
 987               	.LSFDE0:
 988 0010 0C00 0000 		.long	.LEFDE0-.LASFDE0
 989               	.LASFDE0:
 990 0014 0000 0000 		.long	.Lframe0
 991 0018 0000 0000 		.long	.LFB4
 992 001c 0600 0000 		.long	.LFE4-.LFB4
 993               		.p2align	2
 994               	.LEFDE0:
 995               	.LSFDE2:
 996 0020 0C00 0000 		.long	.LEFDE2-.LASFDE2
 997               	.LASFDE2:
 998 0024 0000 0000 		.long	.Lframe0
 999 0028 0000 0000 		.long	.LFB5
 1000 002c 2E00 0000 		.long	.LFE5-.LFB5
 1001               		.p2align	2
 1002               	.LEFDE2:
 1003               	.LSFDE4:
 1004 0030 0C00 0000 		.long	.LEFDE4-.LASFDE4
 1005               	.LASFDE4:
 1006 0034 0000 0000 		.long	.Lframe0
 1007 0038 0000 0000 		.long	.LFB8
 1008 003c 1C00 0000 		.long	.LFE8-.LFB8
 1009               		.p2align	2
 1010               	.LEFDE4:
 1011               	.LSFDE6:
 1012 0040 0C00 0000 		.long	.LEFDE6-.LASFDE6
 1013               	.LASFDE6:
 1014 0044 0000 0000 		.long	.Lframe0
 1015 0048 0000 0000 		.long	.LFB7
 1016 004c 8600 0000 		.long	.LFE7-.LFB7
 1017               		.p2align	2
 1018               	.LEFDE6:
 1019               		.text
 1020               	.Letext0:
 1021               		.section	.debug_loc,"",@progbits
 1022               	.Ldebug_loc0:
 1023               	.LLST2:
 1024 0000 0600 0000 		.long	.LVL0-.Ltext0
 1025 0004 1000 0000 		.long	.LVL2-.Ltext0
 1026 0008 0600      		.word	0x6
GAS LISTING C:\Users\ADMINI~1\AppData\Local\Temp/ccAkNyMe.s 			page 19


 1027 000a 68        		.byte	0x68
 1028 000b 93        		.byte	0x93
 1029 000c 01        		.uleb128 0x1
 1030 000d 69        		.byte	0x69
 1031 000e 93        		.byte	0x93
 1032 000f 01        		.uleb128 0x1
 1033 0010 1000 0000 		.long	.LVL2-.Ltext0
 1034 0014 2E00 0000 		.long	.LVL6-.Ltext0
 1035 0018 0600      		.word	0x6
 1036 001a 62        		.byte	0x62
 1037 001b 93        		.byte	0x93
 1038 001c 01        		.uleb128 0x1
 1039 001d 63        		.byte	0x63
 1040 001e 93        		.byte	0x93
 1041 001f 01        		.uleb128 0x1
 1042 0020 3200 0000 		.long	.LVL7-.Ltext0
 1043 0024 3400 0000 		.long	.LFE5-.Ltext0
 1044 0028 0600      		.word	0x6
 1045 002a 62        		.byte	0x62
 1046 002b 93        		.byte	0x93
 1047 002c 01        		.uleb128 0x1
 1048 002d 63        		.byte	0x63
 1049 002e 93        		.byte	0x93
 1050 002f 01        		.uleb128 0x1
 1051 0030 0000 0000 		.long	0x0
 1052 0034 0000 0000 		.long	0x0
 1053               	.LLST3:
 1054 0038 0600 0000 		.long	.LVL0-.Ltext0
 1055 003c 2E00 0000 		.long	.LVL6-.Ltext0
 1056 0040 0100      		.word	0x1
 1057 0042 66        		.byte	0x66
 1058 0043 3200 0000 		.long	.LVL7-.Ltext0
 1059 0047 3400 0000 		.long	.LFE5-.Ltext0
 1060 004b 0100      		.word	0x1
 1061 004d 66        		.byte	0x66
 1062 004e 0000 0000 		.long	0x0
 1063 0052 0000 0000 		.long	0x0
 1064               	.LLST4:
 1065 0056 0C00 0000 		.long	.LVL1-.Ltext0
 1066 005a 2200 0000 		.long	.LVL3-.Ltext0
 1067 005e 0100      		.word	0x1
 1068 0060 6E        		.byte	0x6e
 1069 0061 2200 0000 		.long	.LVL3-.Ltext0
 1070 0065 2E00 0000 		.long	.LVL6-.Ltext0
 1071 0069 0600      		.word	0x6
 1072 006b 6E        		.byte	0x6e
 1073 006c 93        		.byte	0x93
 1074 006d 01        		.uleb128 0x1
 1075 006e 6F        		.byte	0x6f
 1076 006f 93        		.byte	0x93
 1077 0070 01        		.uleb128 0x1
 1078 0071 3200 0000 		.long	.LVL7-.Ltext0
 1079 0075 3400 0000 		.long	.LFE5-.Ltext0
 1080 0079 0100      		.word	0x1
 1081 007b 6E        		.byte	0x6e
 1082 007c 0000 0000 		.long	0x0
 1083 0080 0000 0000 		.long	0x0
GAS LISTING C:\Users\ADMINI~1\AppData\Local\Temp/ccAkNyMe.s 			page 20


 1084               	.LLST6:
 1085 0084 3400 0000 		.long	.LVL8-.Ltext0
 1086 0088 3800 0000 		.long	.LVL9-.Ltext0
 1087 008c 0100      		.word	0x1
 1088 008e 68        		.byte	0x68
 1089 008f 3800 0000 		.long	.LVL9-.Ltext0
 1090 0093 4600 0000 		.long	.LVL10-.Ltext0
 1091 0097 0100      		.word	0x1
 1092 0099 6E        		.byte	0x6e
 1093 009a 4600 0000 		.long	.LVL10-.Ltext0
 1094 009e 5000 0000 		.long	.LFE8-.Ltext0
 1095 00a2 0600      		.word	0x6
 1096 00a4 6E        		.byte	0x6e
 1097 00a5 93        		.byte	0x93
 1098 00a6 01        		.uleb128 0x1
 1099 00a7 6F        		.byte	0x6f
 1100 00a8 93        		.byte	0x93
 1101 00a9 01        		.uleb128 0x1
 1102 00aa 0000 0000 		.long	0x0
 1103 00ae 0000 0000 		.long	0x0
 1104               	.LLST8:
 1105 00b2 5000 0000 		.long	.LVL13-.Ltext0
 1106 00b6 5600 0000 		.long	.LVL14-.Ltext0
 1107 00ba 0100      		.word	0x1
 1108 00bc 68        		.byte	0x68
 1109 00bd 5600 0000 		.long	.LVL14-.Ltext0
 1110 00c1 BC00 0000 		.long	.LVL16-.Ltext0
 1111 00c5 0100      		.word	0x1
 1112 00c7 69        		.byte	0x69
 1113 00c8 C600 0000 		.long	.LVL17-.Ltext0
 1114 00cc D600 0000 		.long	.LFE7-.Ltext0
 1115 00d0 0100      		.word	0x1
 1116 00d2 69        		.byte	0x69
 1117 00d3 0000 0000 		.long	0x0
 1118 00d7 0000 0000 		.long	0x0
 1119               	.LLST9:
 1120 00db 5000 0000 		.long	.LVL13-.Ltext0
 1121 00df BC00 0000 		.long	.LVL16-.Ltext0
 1122 00e3 0100      		.word	0x1
 1123 00e5 66        		.byte	0x66
 1124 00e6 C600 0000 		.long	.LVL17-.Ltext0
 1125 00ea D600 0000 		.long	.LFE7-.Ltext0
 1126 00ee 0100      		.word	0x1
 1127 00f0 66        		.byte	0x66
 1128 00f1 0000 0000 		.long	0x0
 1129 00f5 0000 0000 		.long	0x0
 1130               	.LLST10:
 1131 00f9 B600 0000 		.long	.LVL15-.Ltext0
 1132 00fd D400 0000 		.long	.LVL18-.Ltext0
 1133 0101 0100      		.word	0x1
 1134 0103 61        		.byte	0x61
 1135 0104 0000 0000 		.long	0x0
 1136 0108 0000 0000 		.long	0x0
 1137               		.section	.debug_info
 1138 0000 3104 0000 		.long	0x431
 1139 0004 0200      		.word	0x2
 1140 0006 0000 0000 		.long	.Ldebug_abbrev0
GAS LISTING C:\Users\ADMINI~1\AppData\Local\Temp/ccAkNyMe.s 			page 21


 1141 000a 04        		.byte	0x4
 1142 000b 01        		.uleb128 0x1
 1143 000c 0000 0000 		.long	.LASF48
 1144 0010 01        		.byte	0x1
 1145 0011 0000 0000 		.long	.LASF49
 1146 0015 0000 0000 		.long	.LASF50
 1147 0019 0000 0000 		.long	.Ltext0
 1148 001d 0000 0000 		.long	.Letext0
 1149 0021 0000 0000 		.long	.Ldebug_line0
 1150 0025 02        		.uleb128 0x2
 1151 0026 01        		.byte	0x1
 1152 0027 06        		.byte	0x6
 1153 0028 0000 0000 		.long	.LASF0
 1154 002c 03        		.uleb128 0x3
 1155 002d 0000 0000 		.long	.LASF2
 1156 0031 02        		.byte	0x2
 1157 0032 7A        		.byte	0x7a
 1158 0033 3700 0000 		.long	0x37
 1159 0037 02        		.uleb128 0x2
 1160 0038 01        		.byte	0x1
 1161 0039 08        		.byte	0x8
 1162 003a 0000 0000 		.long	.LASF1
 1163 003e 04        		.uleb128 0x4
 1164 003f 02        		.byte	0x2
 1165 0040 05        		.byte	0x5
 1166 0041 696E 7400 		.string	"int"
 1167 0045 03        		.uleb128 0x3
 1168 0046 0000 0000 		.long	.LASF3
 1169 004a 02        		.byte	0x2
 1170 004b 7C        		.byte	0x7c
 1171 004c 5000 0000 		.long	0x50
 1172 0050 02        		.uleb128 0x2
 1173 0051 02        		.byte	0x2
 1174 0052 07        		.byte	0x7
 1175 0053 0000 0000 		.long	.LASF4
 1176 0057 02        		.uleb128 0x2
 1177 0058 04        		.byte	0x4
 1178 0059 05        		.byte	0x5
 1179 005a 0000 0000 		.long	.LASF5
 1180 005e 02        		.uleb128 0x2
 1181 005f 04        		.byte	0x4
 1182 0060 07        		.byte	0x7
 1183 0061 0000 0000 		.long	.LASF6
 1184 0065 02        		.uleb128 0x2
 1185 0066 08        		.byte	0x8
 1186 0067 05        		.byte	0x5
 1187 0068 0000 0000 		.long	.LASF7
 1188 006c 02        		.uleb128 0x2
 1189 006d 08        		.byte	0x8
 1190 006e 07        		.byte	0x7
 1191 006f 0000 0000 		.long	.LASF8
 1192 0073 05        		.uleb128 0x5
 1193 0074 01        		.byte	0x1
 1194 0075 06        		.byte	0x6
 1195 0076 05        		.uleb128 0x5
 1196 0077 01        		.byte	0x1
 1197 0078 08        		.byte	0x8
GAS LISTING C:\Users\ADMINI~1\AppData\Local\Temp/ccAkNyMe.s 			page 22


 1198 0079 06        		.uleb128 0x6
 1199 007a 02        		.byte	0x2
 1200 007b 03        		.byte	0x3
 1201 007c 1A        		.byte	0x1a
 1202 007d 0001 0000 		.long	0x100
 1203 0081 07        		.uleb128 0x7
 1204 0082 0000 0000 		.long	.LASF9
 1205 0086 D501      		.sleb128 213
 1206 0088 07        		.uleb128 0x7
 1207 0089 0000 0000 		.long	.LASF10
 1208 008d D601      		.sleb128 214
 1209 008f 07        		.uleb128 0x7
 1210 0090 0000 0000 		.long	.LASF11
 1211 0094 D701      		.sleb128 215
 1212 0096 07        		.uleb128 0x7
 1213 0097 0000 0000 		.long	.LASF12
 1214 009b D801      		.sleb128 216
 1215 009d 07        		.uleb128 0x7
 1216 009e 0000 0000 		.long	.LASF13
 1217 00a2 D901      		.sleb128 217
 1218 00a4 07        		.uleb128 0x7
 1219 00a5 0000 0000 		.long	.LASF14
 1220 00a9 DA01      		.sleb128 218
 1221 00ab 07        		.uleb128 0x7
 1222 00ac 0000 0000 		.long	.LASF15
 1223 00b0 DB01      		.sleb128 219
 1224 00b2 07        		.uleb128 0x7
 1225 00b3 0000 0000 		.long	.LASF16
 1226 00b7 DC01      		.sleb128 220
 1227 00b9 07        		.uleb128 0x7
 1228 00ba 0000 0000 		.long	.LASF17
 1229 00be DD01      		.sleb128 221
 1230 00c0 07        		.uleb128 0x7
 1231 00c1 0000 0000 		.long	.LASF18
 1232 00c5 DE01      		.sleb128 222
 1233 00c7 07        		.uleb128 0x7
 1234 00c8 0000 0000 		.long	.LASF19
 1235 00cc DF01      		.sleb128 223
 1236 00ce 07        		.uleb128 0x7
 1237 00cf 0000 0000 		.long	.LASF20
 1238 00d3 E001      		.sleb128 224
 1239 00d5 07        		.uleb128 0x7
 1240 00d6 0000 0000 		.long	.LASF21
 1241 00da E101      		.sleb128 225
 1242 00dc 07        		.uleb128 0x7
 1243 00dd 0000 0000 		.long	.LASF22
 1244 00e1 E201      		.sleb128 226
 1245 00e3 07        		.uleb128 0x7
 1246 00e4 0000 0000 		.long	.LASF23
 1247 00e8 E301      		.sleb128 227
 1248 00ea 07        		.uleb128 0x7
 1249 00eb 0000 0000 		.long	.LASF24
 1250 00ef E401      		.sleb128 228
 1251 00f1 07        		.uleb128 0x7
 1252 00f2 0000 0000 		.long	.LASF25
 1253 00f6 E501      		.sleb128 229
 1254 00f8 07        		.uleb128 0x7
GAS LISTING C:\Users\ADMINI~1\AppData\Local\Temp/ccAkNyMe.s 			page 23


 1255 00f9 0000 0000 		.long	.LASF26
 1256 00fd E601      		.sleb128 230
 1257 00ff 00        		.byte	0x0
 1258 0100 02        		.uleb128 0x2
 1259 0101 01        		.byte	0x1
 1260 0102 06        		.byte	0x6
 1261 0103 0000 0000 		.long	.LASF27
 1262 0107 08        		.uleb128 0x8
 1263 0108 01        		.byte	0x1
 1264 0109 0000 0000 		.long	.LASF51
 1265 010d 01        		.byte	0x1
 1266 010e 36        		.byte	0x36
 1267 010f 01        		.byte	0x1
 1268 0110 2C00 0000 		.long	0x2c
 1269 0114 01        		.byte	0x1
 1270 0115 09        		.uleb128 0x9
 1271 0116 01        		.byte	0x1
 1272 0117 0000 0000 		.long	.LASF52
 1273 011b 01        		.byte	0x1
 1274 011c 6D        		.byte	0x6d
 1275 011d 01        		.byte	0x1
 1276 011e 2C00 0000 		.long	0x2c
 1277 0122 01        		.byte	0x1
 1278 0123 3401 0000 		.long	0x134
 1279 0127 0A        		.uleb128 0xa
 1280 0128 0000 0000 		.long	.LASF53
 1281 012c 01        		.byte	0x1
 1282 012d 6D        		.byte	0x6d
 1283 012e 2C00 0000 		.long	0x2c
 1284 0132 0B        		.uleb128 0xb
 1285 0133 00        		.byte	0x0
 1286 0134 0C        		.uleb128 0xc
 1287 0135 0000 0000 		.long	.LASF54
 1288 0139 01        		.byte	0x1
 1289 013a 44        		.byte	0x44
 1290 013b 01        		.byte	0x1
 1291 013c 01        		.byte	0x1
 1292 013d 5401 0000 		.long	0x154
 1293 0141 0D        		.uleb128 0xd
 1294 0142 5201 0000 		.long	0x152
 1295 0146 0E        		.uleb128 0xe
 1296 0147 0000 0000 		.long	.LASF55
 1297 014b 01        		.byte	0x1
 1298 014c 4A        		.byte	0x4a
 1299 014d 2C00 0000 		.long	0x2c
 1300 0151 00        		.byte	0x0
 1301 0152 0B        		.uleb128 0xb
 1302 0153 00        		.byte	0x0
 1303 0154 0F        		.uleb128 0xf
 1304 0155 0701 0000 		.long	0x107
 1305 0159 0000 0000 		.long	.LFB4
 1306 015d 0000 0000 		.long	.LFE4
 1307 0161 02        		.byte	0x2
 1308 0162 90        		.byte	0x90
 1309 0163 20        		.uleb128 0x20
 1310 0164 10        		.uleb128 0x10
 1311 0165 01        		.byte	0x1
GAS LISTING C:\Users\ADMINI~1\AppData\Local\Temp/ccAkNyMe.s 			page 24


 1312 0166 0000 0000 		.long	.LASF30
 1313 016a 01        		.byte	0x1
 1314 016b 3C        		.byte	0x3c
 1315 016c 01        		.byte	0x1
 1316 016d 0000 0000 		.long	.LFB5
 1317 0171 0000 0000 		.long	.LFE5
 1318 0175 02        		.byte	0x2
 1319 0176 90        		.byte	0x90
 1320 0177 20        		.uleb128 0x20
 1321 0178 B401 0000 		.long	0x1b4
 1322 017c 11        		.uleb128 0x11
 1323 017d 0000 0000 		.long	.LASF28
 1324 0181 01        		.byte	0x1
 1325 0182 3C        		.byte	0x3c
 1326 0183 C501 0000 		.long	0x1c5
 1327 0187 0000 0000 		.long	.LLST2
 1328 018b 11        		.uleb128 0x11
 1329 018c 0000 0000 		.long	.LASF29
 1330 0190 01        		.byte	0x1
 1331 0191 3C        		.byte	0x3c
 1332 0192 2C00 0000 		.long	0x2c
 1333 0196 0000 0000 		.long	.LLST3
 1334 019a 12        		.uleb128 0x12
 1335 019b 1501 0000 		.long	0x115
 1336 019f 0000 0000 		.long	.LBB18
 1337 01a3 0000 0000 		.long	.LBE18
 1338 01a7 01        		.byte	0x1
 1339 01a8 3F        		.byte	0x3f
 1340 01a9 13        		.uleb128 0x13
 1341 01aa 2701 0000 		.long	0x127
 1342 01ae 0000 0000 		.long	.LLST4
 1343 01b2 00        		.byte	0x0
 1344 01b3 00        		.byte	0x0
 1345 01b4 14        		.uleb128 0x14
 1346 01b5 01        		.byte	0x1
 1347 01b6 C501 0000 		.long	0x1c5
 1348 01ba 15        		.uleb128 0x15
 1349 01bb 2C00 0000 		.long	0x2c
 1350 01bf 15        		.uleb128 0x15
 1351 01c0 2C00 0000 		.long	0x2c
 1352 01c4 00        		.byte	0x0
 1353 01c5 16        		.uleb128 0x16
 1354 01c6 02        		.byte	0x2
 1355 01c7 B401 0000 		.long	0x1b4
 1356 01cb 17        		.uleb128 0x17
 1357 01cc 1501 0000 		.long	0x115
 1358 01d0 0000 0000 		.long	.LFB8
 1359 01d4 0000 0000 		.long	.LFE8
 1360 01d8 02        		.byte	0x2
 1361 01d9 90        		.byte	0x90
 1362 01da 20        		.uleb128 0x20
 1363 01db E901 0000 		.long	0x1e9
 1364 01df 13        		.uleb128 0x13
 1365 01e0 2701 0000 		.long	0x127
 1366 01e4 0000 0000 		.long	.LLST6
 1367 01e8 00        		.byte	0x0
 1368 01e9 10        		.uleb128 0x10
GAS LISTING C:\Users\ADMINI~1\AppData\Local\Temp/ccAkNyMe.s 			page 25


 1369 01ea 01        		.byte	0x1
 1370 01eb 0000 0000 		.long	.LASF31
 1371 01ef 01        		.byte	0x1
 1372 01f0 53        		.byte	0x53
 1373 01f1 01        		.byte	0x1
 1374 01f2 0000 0000 		.long	.LFB7
 1375 01f6 0000 0000 		.long	.LFE7
 1376 01fa 02        		.byte	0x2
 1377 01fb 90        		.byte	0x90
 1378 01fc 20        		.uleb128 0x20
 1379 01fd 4302 0000 		.long	0x243
 1380 0201 11        		.uleb128 0x11
 1381 0202 0000 0000 		.long	.LASF32
 1382 0206 01        		.byte	0x1
 1383 0207 53        		.byte	0x53
 1384 0208 2C00 0000 		.long	0x2c
 1385 020c 0000 0000 		.long	.LLST8
 1386 0210 11        		.uleb128 0x11
 1387 0211 0000 0000 		.long	.LASF29
 1388 0215 01        		.byte	0x1
 1389 0216 53        		.byte	0x53
 1390 0217 2C00 0000 		.long	0x2c
 1391 021b 0000 0000 		.long	.LLST9
 1392 021f 12        		.uleb128 0x12
 1393 0220 3401 0000 		.long	0x134
 1394 0224 0000 0000 		.long	.LBB20
 1395 0228 0000 0000 		.long	.LBE20
 1396 022c 01        		.byte	0x1
 1397 022d 68        		.byte	0x68
 1398 022e 18        		.uleb128 0x18
 1399 022f 0000 0000 		.long	.LBB22
 1400 0233 0000 0000 		.long	.LBE22
 1401 0237 19        		.uleb128 0x19
 1402 0238 4601 0000 		.long	0x146
 1403 023c 0000 0000 		.long	.LLST10
 1404 0240 00        		.byte	0x0
 1405 0241 00        		.byte	0x0
 1406 0242 00        		.byte	0x0
 1407 0243 1A        		.uleb128 0x1a
 1408 0244 0000 0000 		.long	.LASF33
 1409 0248 01        		.byte	0x1
 1410 0249 32        		.byte	0x32
 1411 024a 2C00 0000 		.long	0x2c
 1412 024e 05        		.byte	0x5
 1413 024f 03        		.byte	0x3
 1414 0250 0000 0000 		.long	_dualActionCount
 1415 0254 1A        		.uleb128 0x1a
 1416 0255 0000 0000 		.long	.LASF34
 1417 0259 01        		.byte	0x1
 1418 025a 34        		.byte	0x34
 1419 025b 2C00 0000 		.long	0x2c
 1420 025f 05        		.byte	0x5
 1421 0260 03        		.byte	0x3
 1422 0261 0000 0000 		.long	_isCanceledDualAction
 1423 0265 1A        		.uleb128 0x1a
 1424 0266 0000 0000 		.long	.LASF35
 1425 026a 01        		.byte	0x1
GAS LISTING C:\Users\ADMINI~1\AppData\Local\Temp/ccAkNyMe.s 			page 26


 1426 026b 3A        		.byte	0x3a
 1427 026c 2C00 0000 		.long	0x2c
 1428 0270 05        		.byte	0x5
 1429 0271 03        		.byte	0x3
 1430 0272 0000 0000 		.long	_isActiveDualAction
 1431 0276 1B        		.uleb128 0x1b
 1432 0277 2C00 0000 		.long	0x2c
 1433 027b 8602 0000 		.long	0x286
 1434 027f 1C        		.uleb128 0x1c
 1435 0280 8602 0000 		.long	0x286
 1436 0284 9C        		.byte	0x9c
 1437 0285 00        		.byte	0x0
 1438 0286 05        		.uleb128 0x5
 1439 0287 02        		.byte	0x2
 1440 0288 07        		.byte	0x7
 1441 0289 1D        		.uleb128 0x1d
 1442 028a 0000 0000 		.long	.LASF36
 1443 028e 01        		.byte	0x1
 1444 028f 75        		.byte	0x75
 1445 0290 9B02 0000 		.long	0x29b
 1446 0294 01        		.byte	0x1
 1447 0295 05        		.byte	0x5
 1448 0296 03        		.byte	0x3
 1449 0297 0000 0000 		.long	keycode_set2
 1450 029b 1E        		.uleb128 0x1e
 1451 029c 7602 0000 		.long	0x276
 1452 02a0 1B        		.uleb128 0x1b
 1453 02a1 4500 0000 		.long	0x45
 1454 02a5 B002 0000 		.long	0x2b0
 1455 02a9 1C        		.uleb128 0x1c
 1456 02aa 8602 0000 		.long	0x286
 1457 02ae 19        		.byte	0x19
 1458 02af 00        		.byte	0x0
 1459 02b0 1D        		.uleb128 0x1d
 1460 02b1 0000 0000 		.long	.LASF37
 1461 02b5 01        		.byte	0x1
 1462 02b6 98        		.byte	0x98
 1463 02b7 C202 0000 		.long	0x2c2
 1464 02bb 01        		.byte	0x1
 1465 02bc 05        		.byte	0x5
 1466 02bd 03        		.byte	0x3
 1467 02be 0000 0000 		.long	keycode_USB_multimedia
 1468 02c2 1E        		.uleb128 0x1e
 1469 02c3 A002 0000 		.long	0x2a0
 1470 02c7 1B        		.uleb128 0x1b
 1471 02c8 4500 0000 		.long	0x45
 1472 02cc D702 0000 		.long	0x2d7
 1473 02d0 1C        		.uleb128 0x1c
 1474 02d1 8602 0000 		.long	0x286
 1475 02d5 0F        		.byte	0xf
 1476 02d6 00        		.byte	0x0
 1477 02d7 1D        		.uleb128 0x1d
 1478 02d8 0000 0000 		.long	.LASF38
 1479 02dc 01        		.byte	0x1
 1480 02dd 9F        		.byte	0x9f
 1481 02de E902 0000 		.long	0x2e9
 1482 02e2 01        		.byte	0x1
GAS LISTING C:\Users\ADMINI~1\AppData\Local\Temp/ccAkNyMe.s 			page 27


 1483 02e3 05        		.byte	0x5
 1484 02e4 03        		.byte	0x3
 1485 02e5 0000 0000 		.long	keycode_USB_extend
 1486 02e9 1E        		.uleb128 0x1e
 1487 02ea C702 0000 		.long	0x2c7
 1488 02ee 1B        		.uleb128 0x1b
 1489 02ef 2C00 0000 		.long	0x2c
 1490 02f3 FE02 0000 		.long	0x2fe
 1491 02f7 1C        		.uleb128 0x1c
 1492 02f8 8602 0000 		.long	0x286
 1493 02fc 02        		.byte	0x2
 1494 02fd 00        		.byte	0x0
 1495 02fe 1D        		.uleb128 0x1d
 1496 02ff 0000 0000 		.long	.LASF39
 1497 0303 01        		.byte	0x1
 1498 0304 A4        		.byte	0xa4
 1499 0305 1003 0000 		.long	0x310
 1500 0309 01        		.byte	0x1
 1501 030a 05        		.byte	0x5
 1502 030b 03        		.byte	0x3
 1503 030c 0000 0000 		.long	keycode_set2_special
 1504 0310 1E        		.uleb128 0x1e
 1505 0311 EE02 0000 		.long	0x2ee
 1506 0315 1B        		.uleb128 0x1b
 1507 0316 2C00 0000 		.long	0x2c
 1508 031a 2503 0000 		.long	0x325
 1509 031e 1C        		.uleb128 0x1c
 1510 031f 8602 0000 		.long	0x286
 1511 0323 03        		.byte	0x3
 1512 0324 00        		.byte	0x0
 1513 0325 1D        		.uleb128 0x1d
 1514 0326 0000 0000 		.long	.LASF40
 1515 032a 01        		.byte	0x1
 1516 032b A8        		.byte	0xa8
 1517 032c 3703 0000 		.long	0x337
 1518 0330 01        		.byte	0x1
 1519 0331 05        		.byte	0x5
 1520 0332 03        		.byte	0x3
 1521 0333 0000 0000 		.long	keycode_set2_makeonly
 1522 0337 1E        		.uleb128 0x1e
 1523 0338 1503 0000 		.long	0x315
 1524 033c 1B        		.uleb128 0x1b
 1525 033d 2C00 0000 		.long	0x2c
 1526 0341 4C03 0000 		.long	0x34c
 1527 0345 1C        		.uleb128 0x1c
 1528 0346 8602 0000 		.long	0x286
 1529 034a 04        		.byte	0x4
 1530 034b 00        		.byte	0x0
 1531 034c 1D        		.uleb128 0x1d
 1532 034d 0000 0000 		.long	.LASF41
 1533 0351 01        		.byte	0x1
 1534 0352 AC        		.byte	0xac
 1535 0353 5E03 0000 		.long	0x35e
 1536 0357 01        		.byte	0x1
 1537 0358 05        		.byte	0x5
 1538 0359 03        		.byte	0x3
 1539 035a 0000 0000 		.long	keycode_set2_make_break
GAS LISTING C:\Users\ADMINI~1\AppData\Local\Temp/ccAkNyMe.s 			page 28


 1540 035e 1E        		.uleb128 0x1e
 1541 035f 3C03 0000 		.long	0x33c
 1542 0363 1B        		.uleb128 0x1b
 1543 0364 2C00 0000 		.long	0x2c
 1544 0368 7303 0000 		.long	0x373
 1545 036c 1C        		.uleb128 0x1c
 1546 036d 8602 0000 		.long	0x286
 1547 0371 2D        		.byte	0x2d
 1548 0372 00        		.byte	0x0
 1549 0373 1D        		.uleb128 0x1d
 1550 0374 0000 0000 		.long	.LASF42
 1551 0378 01        		.byte	0x1
 1552 0379 B0        		.byte	0xb0
 1553 037a 8503 0000 		.long	0x385
 1554 037e 01        		.byte	0x1
 1555 037f 05        		.byte	0x5
 1556 0380 03        		.byte	0x3
 1557 0381 0000 0000 		.long	keycode_set2_extend
 1558 0385 1E        		.uleb128 0x1e
 1559 0386 6303 0000 		.long	0x363
 1560 038a 1B        		.uleb128 0x1b
 1561 038b 2C00 0000 		.long	0x2c
 1562 038f 9A03 0000 		.long	0x39a
 1563 0393 1C        		.uleb128 0x1c
 1564 0394 8602 0000 		.long	0x286
 1565 0398 0E        		.byte	0xe
 1566 0399 00        		.byte	0x0
 1567 039a 1D        		.uleb128 0x1d
 1568 039b 0000 0000 		.long	.LASF43
 1569 039f 01        		.byte	0x1
 1570 03a0 BB        		.byte	0xbb
 1571 03a1 AC03 0000 		.long	0x3ac
 1572 03a5 01        		.byte	0x1
 1573 03a6 05        		.byte	0x5
 1574 03a7 03        		.byte	0x3
 1575 03a8 0000 0000 		.long	keycode_set2_proc_shift
 1576 03ac 1E        		.uleb128 0x1e
 1577 03ad 8A03 0000 		.long	0x38a
 1578 03b1 1B        		.uleb128 0x1b
 1579 03b2 2C00 0000 		.long	0x2c
 1580 03b6 CD03 0000 		.long	0x3cd
 1581 03ba 1C        		.uleb128 0x1c
 1582 03bb 8602 0000 		.long	0x286
 1583 03bf 02        		.byte	0x2
 1584 03c0 1C        		.uleb128 0x1c
 1585 03c1 8602 0000 		.long	0x286
 1586 03c5 10        		.byte	0x10
 1587 03c6 1C        		.uleb128 0x1c
 1588 03c7 8602 0000 		.long	0x286
 1589 03cb 07        		.byte	0x7
 1590 03cc 00        		.byte	0x0
 1591 03cd 1D        		.uleb128 0x1d
 1592 03ce 0000 0000 		.long	.LASF44
 1593 03d2 01        		.byte	0x1
 1594 03d3 C2        		.byte	0xc2
 1595 03d4 DF03 0000 		.long	0x3df
 1596 03d8 01        		.byte	0x1
GAS LISTING C:\Users\ADMINI~1\AppData\Local\Temp/ccAkNyMe.s 			page 29


 1597 03d9 05        		.byte	0x5
 1598 03da 03        		.byte	0x3
 1599 03db 0000 0000 		.long	keymap_code
 1600 03df 1E        		.uleb128 0x1e
 1601 03e0 B103 0000 		.long	0x3b1
 1602 03e4 1D        		.uleb128 0x1d
 1603 03e5 0000 0000 		.long	.LASF45
 1604 03e9 01        		.byte	0x1
 1605 03ea 33        		.byte	0x33
 1606 03eb 2C00 0000 		.long	0x2c
 1607 03ef 01        		.byte	0x1
 1608 03f0 05        		.byte	0x5
 1609 03f1 03        		.byte	0x3
 1610 03f2 0000 0000 		.long	dualActionKeyIndex
 1611 03f6 1B        		.uleb128 0x1b
 1612 03f7 2C00 0000 		.long	0x2c
 1613 03fb 0604 0000 		.long	0x406
 1614 03ff 1C        		.uleb128 0x1c
 1615 0400 8602 0000 		.long	0x286
 1616 0404 0F        		.byte	0xf
 1617 0405 00        		.byte	0x0
 1618 0406 1D        		.uleb128 0x1d
 1619 0407 0000 0000 		.long	.LASF46
 1620 040b 01        		.byte	0x1
 1621 040c 0D        		.byte	0xd
 1622 040d 1804 0000 		.long	0x418
 1623 0411 01        		.byte	0x1
 1624 0412 05        		.byte	0x5
 1625 0413 03        		.byte	0x3
 1626 0414 0000 0000 		.long	dualActionMaskDown
 1627 0418 1E        		.uleb128 0x1e
 1628 0419 F603 0000 		.long	0x3f6
 1629 041d 1D        		.uleb128 0x1d
 1630 041e 0000 0000 		.long	.LASF47
 1631 0422 01        		.byte	0x1
 1632 0423 1F        		.byte	0x1f
 1633 0424 2F04 0000 		.long	0x42f
 1634 0428 01        		.byte	0x1
 1635 0429 05        		.byte	0x5
 1636 042a 03        		.byte	0x3
 1637 042b 0000 0000 		.long	dualActionMaskUp
 1638 042f 1E        		.uleb128 0x1e
 1639 0430 F603 0000 		.long	0x3f6
 1640 0434 00        		.byte	0x0
 1641               		.section	.debug_abbrev
 1642 0000 01        		.uleb128 0x1
 1643 0001 11        		.uleb128 0x11
 1644 0002 01        		.byte	0x1
 1645 0003 25        		.uleb128 0x25
 1646 0004 0E        		.uleb128 0xe
 1647 0005 13        		.uleb128 0x13
 1648 0006 0B        		.uleb128 0xb
 1649 0007 03        		.uleb128 0x3
 1650 0008 0E        		.uleb128 0xe
 1651 0009 1B        		.uleb128 0x1b
 1652 000a 0E        		.uleb128 0xe
 1653 000b 11        		.uleb128 0x11
GAS LISTING C:\Users\ADMINI~1\AppData\Local\Temp/ccAkNyMe.s 			page 30


 1654 000c 01        		.uleb128 0x1
 1655 000d 12        		.uleb128 0x12
 1656 000e 01        		.uleb128 0x1
 1657 000f 10        		.uleb128 0x10
 1658 0010 06        		.uleb128 0x6
 1659 0011 00        		.byte	0x0
 1660 0012 00        		.byte	0x0
 1661 0013 02        		.uleb128 0x2
 1662 0014 24        		.uleb128 0x24
 1663 0015 00        		.byte	0x0
 1664 0016 0B        		.uleb128 0xb
 1665 0017 0B        		.uleb128 0xb
 1666 0018 3E        		.uleb128 0x3e
 1667 0019 0B        		.uleb128 0xb
 1668 001a 03        		.uleb128 0x3
 1669 001b 0E        		.uleb128 0xe
 1670 001c 00        		.byte	0x0
 1671 001d 00        		.byte	0x0
 1672 001e 03        		.uleb128 0x3
 1673 001f 16        		.uleb128 0x16
 1674 0020 00        		.byte	0x0
 1675 0021 03        		.uleb128 0x3
 1676 0022 0E        		.uleb128 0xe
 1677 0023 3A        		.uleb128 0x3a
 1678 0024 0B        		.uleb128 0xb
 1679 0025 3B        		.uleb128 0x3b
 1680 0026 0B        		.uleb128 0xb
 1681 0027 49        		.uleb128 0x49
 1682 0028 13        		.uleb128 0x13
 1683 0029 00        		.byte	0x0
 1684 002a 00        		.byte	0x0
 1685 002b 04        		.uleb128 0x4
 1686 002c 24        		.uleb128 0x24
 1687 002d 00        		.byte	0x0
 1688 002e 0B        		.uleb128 0xb
 1689 002f 0B        		.uleb128 0xb
 1690 0030 3E        		.uleb128 0x3e
 1691 0031 0B        		.uleb128 0xb
 1692 0032 03        		.uleb128 0x3
 1693 0033 08        		.uleb128 0x8
 1694 0034 00        		.byte	0x0
 1695 0035 00        		.byte	0x0
 1696 0036 05        		.uleb128 0x5
 1697 0037 24        		.uleb128 0x24
 1698 0038 00        		.byte	0x0
 1699 0039 0B        		.uleb128 0xb
 1700 003a 0B        		.uleb128 0xb
 1701 003b 3E        		.uleb128 0x3e
 1702 003c 0B        		.uleb128 0xb
 1703 003d 00        		.byte	0x0
 1704 003e 00        		.byte	0x0
 1705 003f 06        		.uleb128 0x6
 1706 0040 04        		.uleb128 0x4
 1707 0041 01        		.byte	0x1
 1708 0042 0B        		.uleb128 0xb
 1709 0043 0B        		.uleb128 0xb
 1710 0044 3A        		.uleb128 0x3a
GAS LISTING C:\Users\ADMINI~1\AppData\Local\Temp/ccAkNyMe.s 			page 31


 1711 0045 0B        		.uleb128 0xb
 1712 0046 3B        		.uleb128 0x3b
 1713 0047 0B        		.uleb128 0xb
 1714 0048 01        		.uleb128 0x1
 1715 0049 13        		.uleb128 0x13
 1716 004a 00        		.byte	0x0
 1717 004b 00        		.byte	0x0
 1718 004c 07        		.uleb128 0x7
 1719 004d 28        		.uleb128 0x28
 1720 004e 00        		.byte	0x0
 1721 004f 03        		.uleb128 0x3
 1722 0050 0E        		.uleb128 0xe
 1723 0051 1C        		.uleb128 0x1c
 1724 0052 0D        		.uleb128 0xd
 1725 0053 00        		.byte	0x0
 1726 0054 00        		.byte	0x0
 1727 0055 08        		.uleb128 0x8
 1728 0056 2E        		.uleb128 0x2e
 1729 0057 00        		.byte	0x0
 1730 0058 3F        		.uleb128 0x3f
 1731 0059 0C        		.uleb128 0xc
 1732 005a 03        		.uleb128 0x3
 1733 005b 0E        		.uleb128 0xe
 1734 005c 3A        		.uleb128 0x3a
 1735 005d 0B        		.uleb128 0xb
 1736 005e 3B        		.uleb128 0x3b
 1737 005f 0B        		.uleb128 0xb
 1738 0060 27        		.uleb128 0x27
 1739 0061 0C        		.uleb128 0xc
 1740 0062 49        		.uleb128 0x49
 1741 0063 13        		.uleb128 0x13
 1742 0064 20        		.uleb128 0x20
 1743 0065 0B        		.uleb128 0xb
 1744 0066 00        		.byte	0x0
 1745 0067 00        		.byte	0x0
 1746 0068 09        		.uleb128 0x9
 1747 0069 2E        		.uleb128 0x2e
 1748 006a 01        		.byte	0x1
 1749 006b 3F        		.uleb128 0x3f
 1750 006c 0C        		.uleb128 0xc
 1751 006d 03        		.uleb128 0x3
 1752 006e 0E        		.uleb128 0xe
 1753 006f 3A        		.uleb128 0x3a
 1754 0070 0B        		.uleb128 0xb
 1755 0071 3B        		.uleb128 0x3b
 1756 0072 0B        		.uleb128 0xb
 1757 0073 27        		.uleb128 0x27
 1758 0074 0C        		.uleb128 0xc
 1759 0075 49        		.uleb128 0x49
 1760 0076 13        		.uleb128 0x13
 1761 0077 20        		.uleb128 0x20
 1762 0078 0B        		.uleb128 0xb
 1763 0079 01        		.uleb128 0x1
 1764 007a 13        		.uleb128 0x13
 1765 007b 00        		.byte	0x0
 1766 007c 00        		.byte	0x0
 1767 007d 0A        		.uleb128 0xa
GAS LISTING C:\Users\ADMINI~1\AppData\Local\Temp/ccAkNyMe.s 			page 32


 1768 007e 05        		.uleb128 0x5
 1769 007f 00        		.byte	0x0
 1770 0080 03        		.uleb128 0x3
 1771 0081 0E        		.uleb128 0xe
 1772 0082 3A        		.uleb128 0x3a
 1773 0083 0B        		.uleb128 0xb
 1774 0084 3B        		.uleb128 0x3b
 1775 0085 0B        		.uleb128 0xb
 1776 0086 49        		.uleb128 0x49
 1777 0087 13        		.uleb128 0x13
 1778 0088 00        		.byte	0x0
 1779 0089 00        		.byte	0x0
 1780 008a 0B        		.uleb128 0xb
 1781 008b 0B        		.uleb128 0xb
 1782 008c 00        		.byte	0x0
 1783 008d 00        		.byte	0x0
 1784 008e 00        		.byte	0x0
 1785 008f 0C        		.uleb128 0xc
 1786 0090 2E        		.uleb128 0x2e
 1787 0091 01        		.byte	0x1
 1788 0092 03        		.uleb128 0x3
 1789 0093 0E        		.uleb128 0xe
 1790 0094 3A        		.uleb128 0x3a
 1791 0095 0B        		.uleb128 0xb
 1792 0096 3B        		.uleb128 0x3b
 1793 0097 0B        		.uleb128 0xb
 1794 0098 27        		.uleb128 0x27
 1795 0099 0C        		.uleb128 0xc
 1796 009a 20        		.uleb128 0x20
 1797 009b 0B        		.uleb128 0xb
 1798 009c 01        		.uleb128 0x1
 1799 009d 13        		.uleb128 0x13
 1800 009e 00        		.byte	0x0
 1801 009f 00        		.byte	0x0
 1802 00a0 0D        		.uleb128 0xd
 1803 00a1 0B        		.uleb128 0xb
 1804 00a2 01        		.byte	0x1
 1805 00a3 01        		.uleb128 0x1
 1806 00a4 13        		.uleb128 0x13
 1807 00a5 00        		.byte	0x0
 1808 00a6 00        		.byte	0x0
 1809 00a7 0E        		.uleb128 0xe
 1810 00a8 34        		.uleb128 0x34
 1811 00a9 00        		.byte	0x0
 1812 00aa 03        		.uleb128 0x3
 1813 00ab 0E        		.uleb128 0xe
 1814 00ac 3A        		.uleb128 0x3a
 1815 00ad 0B        		.uleb128 0xb
 1816 00ae 3B        		.uleb128 0x3b
 1817 00af 0B        		.uleb128 0xb
 1818 00b0 49        		.uleb128 0x49
 1819 00b1 13        		.uleb128 0x13
 1820 00b2 00        		.byte	0x0
 1821 00b3 00        		.byte	0x0
 1822 00b4 0F        		.uleb128 0xf
 1823 00b5 2E        		.uleb128 0x2e
 1824 00b6 00        		.byte	0x0
GAS LISTING C:\Users\ADMINI~1\AppData\Local\Temp/ccAkNyMe.s 			page 33


 1825 00b7 31        		.uleb128 0x31
 1826 00b8 13        		.uleb128 0x13
 1827 00b9 11        		.uleb128 0x11
 1828 00ba 01        		.uleb128 0x1
 1829 00bb 12        		.uleb128 0x12
 1830 00bc 01        		.uleb128 0x1
 1831 00bd 40        		.uleb128 0x40
 1832 00be 0A        		.uleb128 0xa
 1833 00bf 00        		.byte	0x0
 1834 00c0 00        		.byte	0x0
 1835 00c1 10        		.uleb128 0x10
 1836 00c2 2E        		.uleb128 0x2e
 1837 00c3 01        		.byte	0x1
 1838 00c4 3F        		.uleb128 0x3f
 1839 00c5 0C        		.uleb128 0xc
 1840 00c6 03        		.uleb128 0x3
 1841 00c7 0E        		.uleb128 0xe
 1842 00c8 3A        		.uleb128 0x3a
 1843 00c9 0B        		.uleb128 0xb
 1844 00ca 3B        		.uleb128 0x3b
 1845 00cb 0B        		.uleb128 0xb
 1846 00cc 27        		.uleb128 0x27
 1847 00cd 0C        		.uleb128 0xc
 1848 00ce 11        		.uleb128 0x11
 1849 00cf 01        		.uleb128 0x1
 1850 00d0 12        		.uleb128 0x12
 1851 00d1 01        		.uleb128 0x1
 1852 00d2 40        		.uleb128 0x40
 1853 00d3 0A        		.uleb128 0xa
 1854 00d4 01        		.uleb128 0x1
 1855 00d5 13        		.uleb128 0x13
 1856 00d6 00        		.byte	0x0
 1857 00d7 00        		.byte	0x0
 1858 00d8 11        		.uleb128 0x11
 1859 00d9 05        		.uleb128 0x5
 1860 00da 00        		.byte	0x0
 1861 00db 03        		.uleb128 0x3
 1862 00dc 0E        		.uleb128 0xe
 1863 00dd 3A        		.uleb128 0x3a
 1864 00de 0B        		.uleb128 0xb
 1865 00df 3B        		.uleb128 0x3b
 1866 00e0 0B        		.uleb128 0xb
 1867 00e1 49        		.uleb128 0x49
 1868 00e2 13        		.uleb128 0x13
 1869 00e3 02        		.uleb128 0x2
 1870 00e4 06        		.uleb128 0x6
 1871 00e5 00        		.byte	0x0
 1872 00e6 00        		.byte	0x0
 1873 00e7 12        		.uleb128 0x12
 1874 00e8 1D        		.uleb128 0x1d
 1875 00e9 01        		.byte	0x1
 1876 00ea 31        		.uleb128 0x31
 1877 00eb 13        		.uleb128 0x13
 1878 00ec 11        		.uleb128 0x11
 1879 00ed 01        		.uleb128 0x1
 1880 00ee 12        		.uleb128 0x12
 1881 00ef 01        		.uleb128 0x1
GAS LISTING C:\Users\ADMINI~1\AppData\Local\Temp/ccAkNyMe.s 			page 34


 1882 00f0 58        		.uleb128 0x58
 1883 00f1 0B        		.uleb128 0xb
 1884 00f2 59        		.uleb128 0x59
 1885 00f3 0B        		.uleb128 0xb
 1886 00f4 00        		.byte	0x0
 1887 00f5 00        		.byte	0x0
 1888 00f6 13        		.uleb128 0x13
 1889 00f7 05        		.uleb128 0x5
 1890 00f8 00        		.byte	0x0
 1891 00f9 31        		.uleb128 0x31
 1892 00fa 13        		.uleb128 0x13
 1893 00fb 02        		.uleb128 0x2
 1894 00fc 06        		.uleb128 0x6
 1895 00fd 00        		.byte	0x0
 1896 00fe 00        		.byte	0x0
 1897 00ff 14        		.uleb128 0x14
 1898 0100 15        		.uleb128 0x15
 1899 0101 01        		.byte	0x1
 1900 0102 27        		.uleb128 0x27
 1901 0103 0C        		.uleb128 0xc
 1902 0104 01        		.uleb128 0x1
 1903 0105 13        		.uleb128 0x13
 1904 0106 00        		.byte	0x0
 1905 0107 00        		.byte	0x0
 1906 0108 15        		.uleb128 0x15
 1907 0109 05        		.uleb128 0x5
 1908 010a 00        		.byte	0x0
 1909 010b 49        		.uleb128 0x49
 1910 010c 13        		.uleb128 0x13
 1911 010d 00        		.byte	0x0
 1912 010e 00        		.byte	0x0
 1913 010f 16        		.uleb128 0x16
 1914 0110 0F        		.uleb128 0xf
 1915 0111 00        		.byte	0x0
 1916 0112 0B        		.uleb128 0xb
 1917 0113 0B        		.uleb128 0xb
 1918 0114 49        		.uleb128 0x49
 1919 0115 13        		.uleb128 0x13
 1920 0116 00        		.byte	0x0
 1921 0117 00        		.byte	0x0
 1922 0118 17        		.uleb128 0x17
 1923 0119 2E        		.uleb128 0x2e
 1924 011a 01        		.byte	0x1
 1925 011b 31        		.uleb128 0x31
 1926 011c 13        		.uleb128 0x13
 1927 011d 11        		.uleb128 0x11
 1928 011e 01        		.uleb128 0x1
 1929 011f 12        		.uleb128 0x12
 1930 0120 01        		.uleb128 0x1
 1931 0121 40        		.uleb128 0x40
 1932 0122 0A        		.uleb128 0xa
 1933 0123 01        		.uleb128 0x1
 1934 0124 13        		.uleb128 0x13
 1935 0125 00        		.byte	0x0
 1936 0126 00        		.byte	0x0
 1937 0127 18        		.uleb128 0x18
 1938 0128 0B        		.uleb128 0xb
GAS LISTING C:\Users\ADMINI~1\AppData\Local\Temp/ccAkNyMe.s 			page 35


 1939 0129 01        		.byte	0x1
 1940 012a 11        		.uleb128 0x11
 1941 012b 01        		.uleb128 0x1
 1942 012c 12        		.uleb128 0x12
 1943 012d 01        		.uleb128 0x1
 1944 012e 00        		.byte	0x0
 1945 012f 00        		.byte	0x0
 1946 0130 19        		.uleb128 0x19
 1947 0131 34        		.uleb128 0x34
 1948 0132 00        		.byte	0x0
 1949 0133 31        		.uleb128 0x31
 1950 0134 13        		.uleb128 0x13
 1951 0135 02        		.uleb128 0x2
 1952 0136 06        		.uleb128 0x6
 1953 0137 00        		.byte	0x0
 1954 0138 00        		.byte	0x0
 1955 0139 1A        		.uleb128 0x1a
 1956 013a 34        		.uleb128 0x34
 1957 013b 00        		.byte	0x0
 1958 013c 03        		.uleb128 0x3
 1959 013d 0E        		.uleb128 0xe
 1960 013e 3A        		.uleb128 0x3a
 1961 013f 0B        		.uleb128 0xb
 1962 0140 3B        		.uleb128 0x3b
 1963 0141 0B        		.uleb128 0xb
 1964 0142 49        		.uleb128 0x49
 1965 0143 13        		.uleb128 0x13
 1966 0144 02        		.uleb128 0x2
 1967 0145 0A        		.uleb128 0xa
 1968 0146 00        		.byte	0x0
 1969 0147 00        		.byte	0x0
 1970 0148 1B        		.uleb128 0x1b
 1971 0149 01        		.uleb128 0x1
 1972 014a 01        		.byte	0x1
 1973 014b 49        		.uleb128 0x49
 1974 014c 13        		.uleb128 0x13
 1975 014d 01        		.uleb128 0x1
 1976 014e 13        		.uleb128 0x13
 1977 014f 00        		.byte	0x0
 1978 0150 00        		.byte	0x0
 1979 0151 1C        		.uleb128 0x1c
 1980 0152 21        		.uleb128 0x21
 1981 0153 00        		.byte	0x0
 1982 0154 49        		.uleb128 0x49
 1983 0155 13        		.uleb128 0x13
 1984 0156 2F        		.uleb128 0x2f
 1985 0157 0B        		.uleb128 0xb
 1986 0158 00        		.byte	0x0
 1987 0159 00        		.byte	0x0
 1988 015a 1D        		.uleb128 0x1d
 1989 015b 34        		.uleb128 0x34
 1990 015c 00        		.byte	0x0
 1991 015d 03        		.uleb128 0x3
 1992 015e 0E        		.uleb128 0xe
 1993 015f 3A        		.uleb128 0x3a
 1994 0160 0B        		.uleb128 0xb
 1995 0161 3B        		.uleb128 0x3b
GAS LISTING C:\Users\ADMINI~1\AppData\Local\Temp/ccAkNyMe.s 			page 36


 1996 0162 0B        		.uleb128 0xb
 1997 0163 49        		.uleb128 0x49
 1998 0164 13        		.uleb128 0x13
 1999 0165 3F        		.uleb128 0x3f
 2000 0166 0C        		.uleb128 0xc
 2001 0167 02        		.uleb128 0x2
 2002 0168 0A        		.uleb128 0xa
 2003 0169 00        		.byte	0x0
 2004 016a 00        		.byte	0x0
 2005 016b 1E        		.uleb128 0x1e
 2006 016c 26        		.uleb128 0x26
 2007 016d 00        		.byte	0x0
 2008 016e 49        		.uleb128 0x49
 2009 016f 13        		.uleb128 0x13
 2010 0170 00        		.byte	0x0
 2011 0171 00        		.byte	0x0
 2012 0172 00        		.byte	0x0
 2013               		.section	.debug_pubnames,"",@progbits
 2014 0000 8701 0000 		.long	0x187
 2015 0004 0200      		.word	0x2
 2016 0006 0000 0000 		.long	.Ldebug_info0
 2017 000a 3504 0000 		.long	0x435
 2018 000e 5401 0000 		.long	0x154
 2019 0012 6973 4361 		.string	"isCanceledDualAction"
 2019      6E63 656C 
 2019      6564 4475 
 2019      616C 4163 
 2019      7469 6F6E 
 2020 0027 6401 0000 		.long	0x164
 2021 002b 6170 706C 		.string	"applyDualActionDown"
 2021      7944 7561 
 2021      6C41 6374 
 2021      696F 6E44 
 2021      6F77 6E00 
 2022 003f CB01 0000 		.long	0x1cb
 2023 0043 6765 7444 		.string	"getDualActionDownKeyIdex"
 2023      7561 6C41 
 2023      6374 696F 
 2023      6E44 6F77 
 2023      6E4B 6579 
 2024 005c E901 0000 		.long	0x1e9
 2025 0060 7365 7444 		.string	"setDualAction"
 2025      7561 6C41 
 2025      6374 696F 
 2025      6E00 
 2026 006e 8902 0000 		.long	0x289
 2027 0072 6B65 7963 		.string	"keycode_set2"
 2027      6F64 655F 
 2027      7365 7432 
 2027      00
 2028 007f B002 0000 		.long	0x2b0
 2029 0083 6B65 7963 		.string	"keycode_USB_multimedia"
 2029      6F64 655F 
 2029      5553 425F 
 2029      6D75 6C74 
 2029      696D 6564 
 2030 009a D702 0000 		.long	0x2d7
GAS LISTING C:\Users\ADMINI~1\AppData\Local\Temp/ccAkNyMe.s 			page 37


 2031 009e 6B65 7963 		.string	"keycode_USB_extend"
 2031      6F64 655F 
 2031      5553 425F 
 2031      6578 7465 
 2031      6E64 00
 2032 00b1 FE02 0000 		.long	0x2fe
 2033 00b5 6B65 7963 		.string	"keycode_set2_special"
 2033      6F64 655F 
 2033      7365 7432 
 2033      5F73 7065 
 2033      6369 616C 
 2034 00ca 2503 0000 		.long	0x325
 2035 00ce 6B65 7963 		.string	"keycode_set2_makeonly"
 2035      6F64 655F 
 2035      7365 7432 
 2035      5F6D 616B 
 2035      656F 6E6C 
 2036 00e4 4C03 0000 		.long	0x34c
 2037 00e8 6B65 7963 		.string	"keycode_set2_make_break"
 2037      6F64 655F 
 2037      7365 7432 
 2037      5F6D 616B 
 2037      655F 6272 
 2038 0100 7303 0000 		.long	0x373
 2039 0104 6B65 7963 		.string	"keycode_set2_extend"
 2039      6F64 655F 
 2039      7365 7432 
 2039      5F65 7874 
 2039      656E 6400 
 2040 0118 9A03 0000 		.long	0x39a
 2041 011c 6B65 7963 		.string	"keycode_set2_proc_shift"
 2041      6F64 655F 
 2041      7365 7432 
 2041      5F70 726F 
 2041      635F 7368 
 2042 0134 CD03 0000 		.long	0x3cd
 2043 0138 6B65 796D 		.string	"keymap_code"
 2043      6170 5F63 
 2043      6F64 6500 
 2044 0144 E403 0000 		.long	0x3e4
 2045 0148 6475 616C 		.string	"dualActionKeyIndex"
 2045      4163 7469 
 2045      6F6E 4B65 
 2045      7949 6E64 
 2045      6578 00
 2046 015b 0604 0000 		.long	0x406
 2047 015f 6475 616C 		.string	"dualActionMaskDown"
 2047      4163 7469 
 2047      6F6E 4D61 
 2047      736B 446F 
 2047      776E 00
 2048 0172 1D04 0000 		.long	0x41d
 2049 0176 6475 616C 		.string	"dualActionMaskUp"
 2049      4163 7469 
 2049      6F6E 4D61 
 2049      736B 5570 
 2049      00
GAS LISTING C:\Users\ADMINI~1\AppData\Local\Temp/ccAkNyMe.s 			page 38


 2050 0187 0000 0000 		.long	0x0
 2051               		.section	.debug_aranges,"",@progbits
 2052 0000 1C00 0000 		.long	0x1c
 2053 0004 0200      		.word	0x2
 2054 0006 0000 0000 		.long	.Ldebug_info0
 2055 000a 04        		.byte	0x4
 2056 000b 00        		.byte	0x0
 2057 000c 0000      		.word	0x0
 2058 000e 0000      		.word	0x0
 2059 0010 0000 0000 		.long	.Ltext0
 2060 0014 D600 0000 		.long	.Letext0-.Ltext0
 2061 0018 0000 0000 		.long	0x0
 2062 001c 0000 0000 		.long	0x0
 2063               		.section	.debug_line
 2064 0000 6F01 0000 		.long	.LELT0-.LSLT0
 2065               	.LSLT0:
 2066 0004 0200      		.word	0x2
 2067 0006 6100 0000 		.long	.LELTP0-.LASLTP0
 2068               	.LASLTP0:
 2069 000a 01        		.byte	0x1
 2070 000b 01        		.byte	0x1
 2071 000c F6        		.byte	0xf6
 2072 000d F5        		.byte	0xf5
 2073 000e 0A        		.byte	0xa
 2074 000f 00        		.byte	0x0
 2075 0010 01        		.byte	0x1
 2076 0011 01        		.byte	0x1
 2077 0012 01        		.byte	0x1
 2078 0013 01        		.byte	0x1
 2079 0014 00        		.byte	0x0
 2080 0015 00        		.byte	0x0
 2081 0016 00        		.byte	0x0
 2082 0017 01        		.byte	0x1
 2083 0018 633A 2F77 		.ascii	"c:/winavr-20100110/lib/gcc/../../avr/include"
 2083      696E 6176 
 2083      722D 3230 
 2083      3130 3031 
 2083      3130 2F6C 
 2084 0044 00        		.byte	0
 2085 0045 00        		.byte	0x0
 2086 0046 6B65 796D 		.string	"keymap.c"
 2086      6170 2E63 
 2086      00
 2087 004f 00        		.uleb128 0x0
 2088 0050 00        		.uleb128 0x0
 2089 0051 00        		.uleb128 0x0
 2090 0052 7374 6469 		.string	"stdint.h"
 2090      6E74 2E68 
 2090      00
 2091 005b 01        		.uleb128 0x1
 2092 005c 00        		.uleb128 0x0
 2093 005d 00        		.uleb128 0x0
 2094 005e 6B65 796D 		.string	"keymap.h"
 2094      6170 2E68 
 2094      00
 2095 0067 00        		.uleb128 0x0
 2096 0068 00        		.uleb128 0x0
GAS LISTING C:\Users\ADMINI~1\AppData\Local\Temp/ccAkNyMe.s 			page 39


 2097 0069 00        		.uleb128 0x0
 2098 006a 00        		.byte	0x0
 2099               	.LELTP0:
 2100 006b 00        		.byte	0x0
 2101 006c 05        		.uleb128 0x5
 2102 006d 02        		.byte	0x2
 2103 006e 0000 0000 		.long	.LM1
 2104 0072 49        		.byte	0x49
 2105 0073 00        		.byte	0x0
 2106 0074 05        		.uleb128 0x5
 2107 0075 02        		.byte	0x2
 2108 0076 0000 0000 		.long	.LM2
 2109 007a 16        		.byte	0x16
 2110 007b 00        		.byte	0x0
 2111 007c 05        		.uleb128 0x5
 2112 007d 02        		.byte	0x2
 2113 007e 0000 0000 		.long	.LM3
 2114 0082 18        		.byte	0x18
 2115 0083 00        		.byte	0x0
 2116 0084 05        		.uleb128 0x5
 2117 0085 02        		.byte	0x2
 2118 0086 0000 0000 		.long	.LM4
 2119 008a 15        		.byte	0x15
 2120 008b 00        		.byte	0x0
 2121 008c 05        		.uleb128 0x5
 2122 008d 02        		.byte	0x2
 2123 008e 0000 0000 		.long	.LM5
 2124 0092 45        		.byte	0x45
 2125 0093 00        		.byte	0x0
 2126 0094 05        		.uleb128 0x5
 2127 0095 02        		.byte	0x2
 2128 0096 0000 0000 		.long	.LM6
 2129 009a 15        		.byte	0x15
 2130 009b 00        		.byte	0x0
 2131 009c 05        		.uleb128 0x5
 2132 009d 02        		.byte	0x2
 2133 009e 0000 0000 		.long	.LM7
 2134 00a2 03        		.byte	0x3
 2135 00a3 50        		.sleb128 -48
 2136 00a4 01        		.byte	0x1
 2137 00a5 00        		.byte	0x0
 2138 00a6 05        		.uleb128 0x5
 2139 00a7 02        		.byte	0x2
 2140 00a8 0000 0000 		.long	.LM8
 2141 00ac 15        		.byte	0x15
 2142 00ad 00        		.byte	0x0
 2143 00ae 05        		.uleb128 0x5
 2144 00af 02        		.byte	0x2
 2145 00b0 0000 0000 		.long	.LM9
 2146 00b4 41        		.byte	0x41
 2147 00b5 00        		.byte	0x0
 2148 00b6 05        		.uleb128 0x5
 2149 00b7 02        		.byte	0x2
 2150 00b8 0000 0000 		.long	.LM10
 2151 00bc 15        		.byte	0x15
 2152 00bd 00        		.byte	0x0
 2153 00be 05        		.uleb128 0x5
GAS LISTING C:\Users\ADMINI~1\AppData\Local\Temp/ccAkNyMe.s 			page 40


 2154 00bf 02        		.byte	0x2
 2155 00c0 0000 0000 		.long	.LM11
 2156 00c4 15        		.byte	0x15
 2157 00c5 00        		.byte	0x0
 2158 00c6 05        		.uleb128 0x5
 2159 00c7 02        		.byte	0x2
 2160 00c8 0000 0000 		.long	.LM12
 2161 00cc 17        		.byte	0x17
 2162 00cd 00        		.byte	0x0
 2163 00ce 05        		.uleb128 0x5
 2164 00cf 02        		.byte	0x2
 2165 00d0 0000 0000 		.long	.LM13
 2166 00d4 03        		.byte	0x3
 2167 00d5 61        		.sleb128 -31
 2168 00d6 01        		.byte	0x1
 2169 00d7 00        		.byte	0x0
 2170 00d8 05        		.uleb128 0x5
 2171 00d9 02        		.byte	0x2
 2172 00da 0000 0000 		.long	.LM14
 2173 00de 15        		.byte	0x15
 2174 00df 00        		.byte	0x0
 2175 00e0 05        		.uleb128 0x5
 2176 00e1 02        		.byte	0x2
 2177 00e2 0000 0000 		.long	.LM15
 2178 00e6 15        		.byte	0x15
 2179 00e7 00        		.byte	0x0
 2180 00e8 05        		.uleb128 0x5
 2181 00e9 02        		.byte	0x2
 2182 00ea 0000 0000 		.long	.LM16
 2183 00ee 15        		.byte	0x15
 2184 00ef 00        		.byte	0x0
 2185 00f0 05        		.uleb128 0x5
 2186 00f1 02        		.byte	0x2
 2187 00f2 0000 0000 		.long	.LM17
 2188 00f6 15        		.byte	0x15
 2189 00f7 00        		.byte	0x0
 2190 00f8 05        		.uleb128 0x5
 2191 00f9 02        		.byte	0x2
 2192 00fa 0000 0000 		.long	.LM18
 2193 00fe 15        		.byte	0x15
 2194 00ff 00        		.byte	0x0
 2195 0100 05        		.uleb128 0x5
 2196 0101 02        		.byte	0x2
 2197 0102 0000 0000 		.long	.LM19
 2198 0106 15        		.byte	0x15
 2199 0107 00        		.byte	0x0
 2200 0108 05        		.uleb128 0x5
 2201 0109 02        		.byte	0x2
 2202 010a 0000 0000 		.long	.LM20
 2203 010e 15        		.byte	0x15
 2204 010f 00        		.byte	0x0
 2205 0110 05        		.uleb128 0x5
 2206 0111 02        		.byte	0x2
 2207 0112 0000 0000 		.long	.LM21
 2208 0116 1A        		.byte	0x1a
 2209 0117 00        		.byte	0x0
 2210 0118 05        		.uleb128 0x5
GAS LISTING C:\Users\ADMINI~1\AppData\Local\Temp/ccAkNyMe.s 			page 41


 2211 0119 02        		.byte	0x2
 2212 011a 0000 0000 		.long	.LM22
 2213 011e 17        		.byte	0x17
 2214 011f 00        		.byte	0x0
 2215 0120 05        		.uleb128 0x5
 2216 0121 02        		.byte	0x2
 2217 0122 0000 0000 		.long	.LM23
 2218 0126 17        		.byte	0x17
 2219 0127 00        		.byte	0x0
 2220 0128 05        		.uleb128 0x5
 2221 0129 02        		.byte	0x2
 2222 012a 0000 0000 		.long	.LM24
 2223 012e 15        		.byte	0x15
 2224 012f 00        		.byte	0x0
 2225 0130 05        		.uleb128 0x5
 2226 0131 02        		.byte	0x2
 2227 0132 0000 0000 		.long	.LM25
 2228 0136 03        		.byte	0x3
 2229 0137 61        		.sleb128 -31
 2230 0138 01        		.byte	0x1
 2231 0139 00        		.byte	0x0
 2232 013a 05        		.uleb128 0x5
 2233 013b 02        		.byte	0x2
 2234 013c 0000 0000 		.long	.LM26
 2235 0140 16        		.byte	0x16
 2236 0141 00        		.byte	0x0
 2237 0142 05        		.uleb128 0x5
 2238 0143 02        		.byte	0x2
 2239 0144 0000 0000 		.long	.LM27
 2240 0148 15        		.byte	0x15
 2241 0149 00        		.byte	0x0
 2242 014a 05        		.uleb128 0x5
 2243 014b 02        		.byte	0x2
 2244 014c 0000 0000 		.long	.LM28
 2245 0150 15        		.byte	0x15
 2246 0151 00        		.byte	0x0
 2247 0152 05        		.uleb128 0x5
 2248 0153 02        		.byte	0x2
 2249 0154 0000 0000 		.long	.LM29
 2250 0158 15        		.byte	0x15
 2251 0159 00        		.byte	0x0
 2252 015a 05        		.uleb128 0x5
 2253 015b 02        		.byte	0x2
 2254 015c 0000 0000 		.long	.LM30
 2255 0160 17        		.byte	0x17
 2256 0161 00        		.byte	0x0
 2257 0162 05        		.uleb128 0x5
 2258 0163 02        		.byte	0x2
 2259 0164 0000 0000 		.long	.LM31
 2260 0168 2F        		.byte	0x2f
 2261 0169 00        		.byte	0x0
 2262 016a 05        		.uleb128 0x5
 2263 016b 02        		.byte	0x2
 2264 016c 0000 0000 		.long	.Letext0
 2265 0170 00        		.byte	0x0
 2266 0171 01        		.uleb128 0x1
 2267 0172 01        		.byte	0x1
GAS LISTING C:\Users\ADMINI~1\AppData\Local\Temp/ccAkNyMe.s 			page 42


 2268               	.LELT0:
 2269 0173 1600 0000 		.section	.debug_str,"MS",@progbits,1
 2269      0200 1000 
 2269      0000 0101 
 2269      FB0E 0A00 
 2269      0101 0101 
 2270               	.LASF30:
 2271 0000 6170 706C 		.string	"applyDualActionDown"
 2271      7944 7561 
 2271      6C41 6374 
 2271      696F 6E44 
 2271      6F77 6E00 
 2272               	.LASF15:
 2273 0014 4B45 595F 		.string	"KEY_RSHIFT_HANJA"
 2273      5253 4849 
 2273      4654 5F48 
 2273      414E 4A41 
 2273      00
 2274               	.LASF47:
 2275 0025 6475 616C 		.string	"dualActionMaskUp"
 2275      4163 7469 
 2275      6F6E 4D61 
 2275      736B 5570 
 2275      00
 2276               	.LASF36:
 2277 0036 6B65 7963 		.string	"keycode_set2"
 2277      6F64 655F 
 2277      7365 7432 
 2277      00
 2278               	.LASF24:
 2279 0043 4B45 595F 		.string	"KEY_LCTRL_HANGLE"
 2279      4C43 5452 
 2279      4C5F 4841 
 2279      4E47 4C45 
 2279      00
 2280               	.LASF34:
 2281 0054 5F69 7343 		.string	"_isCanceledDualAction"
 2281      616E 6365 
 2281      6C65 6444 
 2281      7561 6C41 
 2281      6374 696F 
 2282               	.LASF38:
 2283 006a 6B65 7963 		.string	"keycode_USB_extend"
 2283      6F64 655F 
 2283      5553 425F 
 2283      6578 7465 
 2283      6E64 00
 2284               	.LASF25:
 2285 007d 4B45 595F 		.string	"KEY_LCTRL_HANJA"
 2285      4C43 5452 
 2285      4C5F 4841 
 2285      4E4A 4100 
 2286               	.LASF33:
 2287 008d 5F64 7561 		.string	"_dualActionCount"
 2287      6C41 6374 
 2287      696F 6E43 
 2287      6F75 6E74 
GAS LISTING C:\Users\ADMINI~1\AppData\Local\Temp/ccAkNyMe.s 			page 43


 2287      00
 2288               	.LASF53:
 2289 009e 7841 6374 		.string	"xActionIndex"
 2289      696F 6E49 
 2289      6E64 6578 
 2289      00
 2290               	.LASF23:
 2291 00ab 4B45 595F 		.string	"KEY_RCTRL_HANJA"
 2291      5243 5452 
 2291      4C5F 4841 
 2291      4E4A 4100 
 2292               	.LASF11:
 2293 00bb 4B45 595F 		.string	"KEY_FN_HANJA"
 2293      464E 5F48 
 2293      414E 4A41 
 2293      00
 2294               	.LASF20:
 2295 00c8 4B45 595F 		.string	"KEY_LALT_HANGLE"
 2295      4C41 4C54 
 2295      5F48 414E 
 2295      474C 4500 
 2296               	.LASF1:
 2297 00d8 756E 7369 		.string	"unsigned char"
 2297      676E 6564 
 2297      2063 6861 
 2297      7200 
 2298               	.LASF45:
 2299 00e6 6475 616C 		.string	"dualActionKeyIndex"
 2299      4163 7469 
 2299      6F6E 4B65 
 2299      7949 6E64 
 2299      6578 00
 2300               	.LASF42:
 2301 00f9 6B65 7963 		.string	"keycode_set2_extend"
 2301      6F64 655F 
 2301      7365 7432 
 2301      5F65 7874 
 2301      656E 6400 
 2302               	.LASF43:
 2303 010d 6B65 7963 		.string	"keycode_set2_proc_shift"
 2303      6F64 655F 
 2303      7365 7432 
 2303      5F70 726F 
 2303      635F 7368 
 2304               	.LASF22:
 2305 0125 4B45 595F 		.string	"KEY_RCTRL_HANGLE"
 2305      5243 5452 
 2305      4C5F 4841 
 2305      4E47 4C45 
 2305      00
 2306               	.LASF16:
 2307 0136 4B45 595F 		.string	"KEY_LSHIFT_HANGLE"
 2307      4C53 4849 
 2307      4654 5F48 
 2307      414E 474C 
 2307      4500 
 2308               	.LASF48:
GAS LISTING C:\Users\ADMINI~1\AppData\Local\Temp/ccAkNyMe.s 			page 44


 2309 0148 474E 5520 		.string	"GNU C 4.3.3"
 2309      4320 342E 
 2309      332E 3300 
 2310               	.LASF35:
 2311 0154 5F69 7341 		.string	"_isActiveDualAction"
 2311      6374 6976 
 2311      6544 7561 
 2311      6C41 6374 
 2311      696F 6E00 
 2312               	.LASF46:
 2313 0168 6475 616C 		.string	"dualActionMaskDown"
 2313      4163 7469 
 2313      6F6E 4D61 
 2313      736B 446F 
 2313      776E 00
 2314               	.LASF6:
 2315 017b 6C6F 6E67 		.string	"long unsigned int"
 2315      2075 6E73 
 2315      6967 6E65 
 2315      6420 696E 
 2315      7400 
 2316               	.LASF14:
 2317 018d 4B45 595F 		.string	"KEY_RSHIFT_HANGLE"
 2317      5253 4849 
 2317      4654 5F48 
 2317      414E 474C 
 2317      4500 
 2318               	.LASF28:
 2319 019f 6675 6E63 		.string	"func"
 2319      00
 2320               	.LASF51:
 2321 01a4 6973 4361 		.string	"isCanceledDualAction"
 2321      6E63 656C 
 2321      6564 4475 
 2321      616C 4163 
 2321      7469 6F6E 
 2322               	.LASF41:
 2323 01b9 6B65 7963 		.string	"keycode_set2_make_break"
 2323      6F64 655F 
 2323      7365 7432 
 2323      5F6D 616B 
 2323      655F 6272 
 2324               	.LASF13:
 2325 01d1 4B45 595F 		.string	"KEY_FN2_HANJA"
 2325      464E 325F 
 2325      4841 4E4A 
 2325      4100 
 2326               	.LASF52:
 2327 01df 6765 7444 		.string	"getDualActionDownKeyIdex"
 2327      7561 6C41 
 2327      6374 696F 
 2327      6E44 6F77 
 2327      6E4B 6579 
 2328               	.LASF10:
 2329 01f8 4B45 595F 		.string	"KEY_FN_HANGLE"
 2329      464E 5F48 
 2329      414E 474C 
GAS LISTING C:\Users\ADMINI~1\AppData\Local\Temp/ccAkNyMe.s 			page 45


 2329      4500 
 2330               	.LASF17:
 2331 0206 4B45 595F 		.string	"KEY_LSHIFT_HANJA"
 2331      4C53 4849 
 2331      4654 5F48 
 2331      414E 4A41 
 2331      00
 2332               	.LASF4:
 2333 0217 756E 7369 		.string	"unsigned int"
 2333      676E 6564 
 2333      2069 6E74 
 2333      00
 2334               	.LASF8:
 2335 0224 6C6F 6E67 		.string	"long long unsigned int"
 2335      206C 6F6E 
 2335      6720 756E 
 2335      7369 676E 
 2335      6564 2069 
 2336               	.LASF2:
 2337 023b 7569 6E74 		.string	"uint8_t"
 2337      385F 7400 
 2338               	.LASF54:
 2339 0243 6170 706C 		.string	"applyDualActionUp"
 2339      7944 7561 
 2339      6C41 6374 
 2339      696F 6E55 
 2339      7000 
 2340               	.LASF50:
 2341 0255 443A 5C67 		.string	"D:\\git\\ps2avrU\\source"
 2341      6974 5C70 
 2341      7332 6176 
 2341      7255 5C73 
 2341      6F75 7263 
 2342               	.LASF44:
 2343 026b 6B65 796D 		.string	"keymap_code"
 2343      6170 5F63 
 2343      6F64 6500 
 2344               	.LASF7:
 2345 0277 6C6F 6E67 		.string	"long long int"
 2345      206C 6F6E 
 2345      6720 696E 
 2345      7400 
 2346               	.LASF27:
 2347 0285 6368 6172 		.string	"char"
 2347      00
 2348               	.LASF18:
 2349 028a 4B45 595F 		.string	"KEY_RALT_HANGLE"
 2349      5241 4C54 
 2349      5F48 414E 
 2349      474C 4500 
 2350               	.LASF37:
 2351 029a 6B65 7963 		.string	"keycode_USB_multimedia"
 2351      6F64 655F 
 2351      5553 425F 
 2351      6D75 6C74 
 2351      696D 6564 
 2352               	.LASF21:
GAS LISTING C:\Users\ADMINI~1\AppData\Local\Temp/ccAkNyMe.s 			page 46


 2353 02b1 4B45 595F 		.string	"KEY_LALT_HANJA"
 2353      4C41 4C54 
 2353      5F48 414E 
 2353      4A41 00
 2354               	.LASF26:
 2355 02c0 4B45 595F 		.string	"KEY_dualAction_end"
 2355      6475 616C 
 2355      4163 7469 
 2355      6F6E 5F65 
 2355      6E64 00
 2356               	.LASF9:
 2357 02d3 4B45 595F 		.string	"KEY_dualAction"
 2357      6475 616C 
 2357      4163 7469 
 2357      6F6E 00
 2358               	.LASF29:
 2359 02e2 6973 446F 		.string	"isDown"
 2359      776E 00
 2360               	.LASF3:
 2361 02e9 7569 6E74 		.string	"uint16_t"
 2361      3136 5F74 
 2361      00
 2362               	.LASF31:
 2363 02f2 7365 7444 		.string	"setDualAction"
 2363      7561 6C41 
 2363      6374 696F 
 2363      6E00 
 2364               	.LASF39:
 2365 0300 6B65 7963 		.string	"keycode_set2_special"
 2365      6F64 655F 
 2365      7365 7432 
 2365      5F73 7065 
 2365      6369 616C 
 2366               	.LASF19:
 2367 0315 4B45 595F 		.string	"KEY_RALT_HANJA"
 2367      5241 4C54 
 2367      5F48 414E 
 2367      4A41 00
 2368               	.LASF5:
 2369 0324 6C6F 6E67 		.string	"long int"
 2369      2069 6E74 
 2369      00
 2370               	.LASF40:
 2371 032d 6B65 7963 		.string	"keycode_set2_makeonly"
 2371      6F64 655F 
 2371      7365 7432 
 2371      5F6D 616B 
 2371      656F 6E6C 
 2372               	.LASF55:
 2373 0343 6741 6374 		.string	"gActionIdx"
 2373      696F 6E49 
 2373      6478 00
 2374               	.LASF0:
 2375 034e 7369 676E 		.string	"signed char"
 2375      6564 2063 
 2375      6861 7200 
 2376               	.LASF12:
GAS LISTING C:\Users\ADMINI~1\AppData\Local\Temp/ccAkNyMe.s 			page 47


 2377 035a 4B45 595F 		.string	"KEY_FN2_HANGLE"
 2377      464E 325F 
 2377      4841 4E47 
 2377      4C45 00
 2378               	.LASF32:
 2379 0369 6B65 7969 		.string	"keyidx"
 2379      6478 00
 2380               	.LASF49:
 2381 0370 6B65 796D 		.string	"keymap.c"
 2381      6170 2E63 
 2381      00
 2382               	.global __do_copy_data
 2383               	.global __do_clear_bss
GAS LISTING C:\Users\ADMINI~1\AppData\Local\Temp/ccAkNyMe.s 			page 48


DEFINED SYMBOLS
                            *ABS*:00000000 keymap.c
C:\Users\ADMINI~1\AppData\Local\Temp/ccAkNyMe.s:2      *ABS*:0000003f __SREG__
C:\Users\ADMINI~1\AppData\Local\Temp/ccAkNyMe.s:3      *ABS*:0000003e __SP_H__
C:\Users\ADMINI~1\AppData\Local\Temp/ccAkNyMe.s:4      *ABS*:0000003d __SP_L__
C:\Users\ADMINI~1\AppData\Local\Temp/ccAkNyMe.s:5      *ABS*:00000034 __CCP__
C:\Users\ADMINI~1\AppData\Local\Temp/ccAkNyMe.s:6      *ABS*:00000000 __tmp_reg__
C:\Users\ADMINI~1\AppData\Local\Temp/ccAkNyMe.s:7      *ABS*:00000001 __zero_reg__
C:\Users\ADMINI~1\AppData\Local\Temp/ccAkNyMe.s:18     .text:00000000 isCanceledDualAction
C:\Users\ADMINI~1\AppData\Local\Temp/ccAkNyMe.s:970    .bss:00000003 _isCanceledDualAction
C:\Users\ADMINI~1\AppData\Local\Temp/ccAkNyMe.s:31     .text:00000006 applyDualActionDown
C:\Users\ADMINI~1\AppData\Local\Temp/ccAkNyMe.s:250    .bss:00000000 dualActionKeyIndex
C:\Users\ADMINI~1\AppData\Local\Temp/ccAkNyMe.s:208    .data:00000000 dualActionMaskDown
C:\Users\ADMINI~1\AppData\Local\Temp/ccAkNyMe.s:79     .text:00000034 getDualActionDownKeyIdex
C:\Users\ADMINI~1\AppData\Local\Temp/ccAkNyMe.s:111    .text:00000050 setDualAction
                             .bss:00000001 _dualActionCount
C:\Users\ADMINI~1\AppData\Local\Temp/ccAkNyMe.s:969    .bss:00000002 _isActiveDualAction
C:\Users\ADMINI~1\AppData\Local\Temp/ccAkNyMe.s:228    .data:00000010 dualActionMaskUp
C:\Users\ADMINI~1\AppData\Local\Temp/ccAkNyMe.s:256    .progmem.data:00000000 keycode_set2
C:\Users\ADMINI~1\AppData\Local\Temp/ccAkNyMe.s:417    .progmem.data:0000009d keycode_USB_multimedia
C:\Users\ADMINI~1\AppData\Local\Temp/ccAkNyMe.s:447    .progmem.data:000000d1 keycode_USB_extend
C:\Users\ADMINI~1\AppData\Local\Temp/ccAkNyMe.s:467    .progmem.data:000000f1 keycode_set2_special
C:\Users\ADMINI~1\AppData\Local\Temp/ccAkNyMe.s:474    .progmem.data:000000f4 keycode_set2_makeonly
C:\Users\ADMINI~1\AppData\Local\Temp/ccAkNyMe.s:482    .progmem.data:000000f8 keycode_set2_make_break
C:\Users\ADMINI~1\AppData\Local\Temp/ccAkNyMe.s:491    .progmem.data:000000fd keycode_set2_extend
C:\Users\ADMINI~1\AppData\Local\Temp/ccAkNyMe.s:541    .progmem.data:0000012b keycode_set2_proc_shift
C:\Users\ADMINI~1\AppData\Local\Temp/ccAkNyMe.s:560    .progmem.data:0000013a keymap_code

UNDEFINED SYMBOLS
pushM
__do_copy_data
__do_clear_bss
