GAS LISTING C:\Users\ADMINI~1\AppData\Local\Temp/ccZjgOiQ.s 			page 1


   1               		.file	"keymapper.c"
   2               	__SREG__ = 0x3f
   3               	__SP_H__ = 0x3e
   4               	__SP_L__ = 0x3d
   5               	__CCP__  = 0x34
   6               	__tmp_reg__ = 0
   7               	__zero_reg__ = 1
   8               		.section	.debug_abbrev,"",@progbits
   9               	.Ldebug_abbrev0:
  10               		.section	.debug_info,"",@progbits
  11               	.Ldebug_info0:
  12               		.section	.debug_line,"",@progbits
  13               	.Ldebug_line0:
  14               		.text
  15               	.Ltext0:
  16               	.global	setWillStartKeyMapping
  17               		.type	setWillStartKeyMapping, @function
  18               	setWillStartKeyMapping:
  19               	.LFB8:
  20               	.LM1:
  21               	/* prologue: function */
  22               	/* frame size = 0 */
  23               	.LM2:
  24 0000 8091 0000 		lds r24,_isKeyMapping
  25 0004 8160      		ori r24,lo8(1)
  26 0006 8093 0000 		sts _isKeyMapping,r24
  27               	/* epilogue start */
  28               	.LM3:
  29 000a 0895      		ret
  30               	.LFE8:
  31               		.size	setWillStartKeyMapping, .-setWillStartKeyMapping
  32               	.global	isKeyMapping
  33               		.type	isKeyMapping, @function
  34               	isKeyMapping:
  35               	.LFB9:
  36               	.LM4:
  37               	/* prologue: function */
  38               	/* frame size = 0 */
  39               	.LM5:
  40 000c 8091 0000 		lds r24,_isKeyMapping
  41               	.LM6:
  42 0010 8170      		andi r24,lo8(1)
  43               	/* epilogue start */
  44 0012 0895      		ret
  45               	.LFE9:
  46               		.size	isKeyMapping, .-isKeyMapping
  47               	.global	isDeepKeyMapping
  48               		.type	isDeepKeyMapping, @function
  49               	isDeepKeyMapping:
  50               	.LFB10:
  51               	.LM7:
  52               	/* prologue: function */
  53               	/* frame size = 0 */
  54               	.LM8:
  55 0014 8091 0000 		lds r24,_isKeyMapping
  56               	.LM9:
  57 0018 8270      		andi r24,lo8(2)
GAS LISTING C:\Users\ADMINI~1\AppData\Local\Temp/ccZjgOiQ.s 			page 2


  58               	/* epilogue start */
  59 001a 0895      		ret
  60               	.LFE10:
  61               		.size	isDeepKeyMapping, .-isDeepKeyMapping
  62               	.global	applyKeyMapping
  63               		.type	applyKeyMapping, @function
  64               	applyKeyMapping:
  65               	.LFB11:
  66               	.LM10:
  67               	.LVL0:
  68               	/* prologue: function */
  69               	/* frame size = 0 */
  70 001c 982F      		mov r25,r24
  71               	.LM11:
  72 001e 8091 0000 		lds r24,_isKeyMapping
  73               	.LVL1:
  74 0022 80FD      		sbrc r24,0
  75 0024 00C0      		rjmp .L10
  76               	.LM12:
  77 0026 9730      		cpi r25,lo8(7)
  78 0028 01F4      		brne .L9
  79               	.LM13:
  80 002a 1092 0000 		sts (keyMappingCount)+1,__zero_reg__
  81 002e 1092 0000 		sts keyMappingCount,__zero_reg__
  82               	.LM14:
  83 0032 81E0      		ldi r24,lo8(1)
  84 0034 8093 0000 		sts enabledKeyMappingCount,r24
  85 0038 0895      		ret
  86               	.L9:
  87               	.LM15:
  88 003a 1092 0000 		sts _isKeyMapping,__zero_reg__
  89               	.LM16:
  90 003e 1092 0000 		sts enabledKeyMappingCount,__zero_reg__
  91               	.L10:
  92 0042 0895      		ret
  93               	.LFE11:
  94               		.size	applyKeyMapping, .-applyKeyMapping
  95               	.global	isReadyKeyMappingOnBoot
  96               		.type	isReadyKeyMappingOnBoot, @function
  97               	isReadyKeyMappingOnBoot:
  98               	.LFB14:
  99               	.LM17:
 100               	/* prologue: function */
 101               	/* frame size = 0 */
 102               	.LM18:
 103 0044 8091 0000 		lds r24,_keyMappingOnBoot
 104               	/* epilogue start */
 105 0048 0895      		ret
 106               	.LFE14:
 107               		.size	isReadyKeyMappingOnBoot, .-isReadyKeyMappingOnBoot
 108               	.global	readyKeyMappingOnBoot
 109               		.type	readyKeyMappingOnBoot, @function
 110               	readyKeyMappingOnBoot:
 111               	.LFB15:
 112               	.LM19:
 113               	/* prologue: function */
 114               	/* frame size = 0 */
GAS LISTING C:\Users\ADMINI~1\AppData\Local\Temp/ccZjgOiQ.s 			page 3


 115               	.LM20:
 116 004a 81E0      		ldi r24,lo8(1)
 117 004c 8093 0000 		sts _keyMappingOnBoot,r24
 118               	/* epilogue start */
 119               	.LM21:
 120 0050 0895      		ret
 121               	.LFE15:
 122               		.size	readyKeyMappingOnBoot, .-readyKeyMappingOnBoot
 123               	.global	stopKeyMapping
 124               		.type	stopKeyMapping, @function
 125               	stopKeyMapping:
 126               	.LFB18:
 127               	.LM22:
 128               	/* prologue: function */
 129               	/* frame size = 0 */
 130               	.LM23:
 131 0052 1092 0000 		sts _isKeyMapping,__zero_reg__
 132               	.LM24:
 133 0056 1092 0000 		sts _wait,__zero_reg__
 134               	/* epilogue start */
 135               	.LM25:
 136 005a 0895      		ret
 137               	.LFE18:
 138               		.size	stopKeyMapping, .-stopKeyMapping
 139               	.global	isMacroKey
 140               		.type	isMacroKey, @function
 141               	isMacroKey:
 142               	.LFB23:
 143               	.LM26:
 144               	.LVL2:
 145               	/* prologue: function */
 146               	/* frame size = 0 */
 147               	.LM27:
 148 005c 90E0      		ldi r25,lo8(0)
 149 005e 895C      		subi r24,lo8(-(55))
 150               	.LVL3:
 151 0060 8C30      		cpi r24,lo8(12)
 152 0062 00F4      		brsh .L18
 153 0064 91E0      		ldi r25,lo8(1)
 154               	.L18:
 155               	.LM28:
 156 0066 892F      		mov r24,r25
 157               	/* epilogue start */
 158 0068 0895      		ret
 159               	.LFE23:
 160               		.size	isMacroKey, .-isMacroKey
 161               	.global	escapeMacroKeycode
 162               		.type	escapeMacroKeycode, @function
 163               	escapeMacroKeycode:
 164               	.LFB24:
 165               	.LM29:
 166               	.LVL4:
 167               	/* prologue: function */
 168               	/* frame size = 0 */
 169 006a 982F      		mov r25,r24
 170               	.LBB69:
 171               	.LBB70:
GAS LISTING C:\Users\ADMINI~1\AppData\Local\Temp/ccZjgOiQ.s 			page 4


 172               	.LM30:
 173 006c 895C      		subi r24,lo8(-(55))
 174               	.LVL5:
 175 006e 8C30      		cpi r24,lo8(12)
 176 0070 00F4      		brsh .L21
 177 0072 90E0      		ldi r25,lo8(0)
 178               	.L21:
 179               	.LBE70:
 180               	.LBE69:
 181               	.LM31:
 182 0074 892F      		mov r24,r25
 183               	/* epilogue start */
 184 0076 0895      		ret
 185               	.LFE24:
 186               		.size	escapeMacroKeycode, .-escapeMacroKeycode
 187               		.type	printEnter, @function
 188               	printEnter:
 189               	.LFB27:
 190               	.LM32:
 191               	/* prologue: function */
 192               	/* frame size = 0 */
 193               	.LM33:
 194 0078 88E2      		ldi r24,lo8(40)
 195 007a 0E94 0000 		call pushM
 196               	.LM34:
 197 007e 88E2      		ldi r24,lo8(40)
 198 0080 0E94 0000 		call pushM
 199               	/* epilogue start */
 200               	.LM35:
 201 0084 0895      		ret
 202               	.LFE27:
 203               		.size	printEnter, .-printEnter
 204               	.global	resetMacroInput
 205               		.type	resetMacroInput, @function
 206               	resetMacroInput:
 207               	.LFB46:
 208               	.LM36:
 209               	/* prologue: function */
 210               	/* frame size = 0 */
 211               	.LM37:
 212 0086 80E2      		ldi r24,lo8(32)
 213 0088 E0E0      		ldi r30,lo8(_macroInputBuffer)
 214 008a F0E0      		ldi r31,hi8(_macroInputBuffer)
 215 008c DF01      		movw r26,r30
 216 008e 982F      		mov r25,r24
 217 0090 1D92      		st X+,__zero_reg__
 218 0092 9A95      	        dec r25
 219 0094 01F4      		brne .-6
 220               	.LM38:
 221 0096 1092 0000 		sts _macroBufferIndex,__zero_reg__
 222               	.LM39:
 223 009a E0E0      		ldi r30,lo8(_macroPressedBuffer)
 224 009c F0E0      		ldi r31,hi8(_macroPressedBuffer)
 225 009e DF01      		movw r26,r30
 226 00a0 1D92      		st X+,__zero_reg__
 227 00a2 8A95      	        dec r24
 228 00a4 01F4      		brne .-6
GAS LISTING C:\Users\ADMINI~1\AppData\Local\Temp/ccZjgOiQ.s 			page 5


 229               	.LM40:
 230 00a6 1092 0000 		sts _macroDownCount,__zero_reg__
 231               	/* epilogue start */
 232               	.LM41:
 233 00aa 0895      		ret
 234               	.LFE46:
 235               		.size	resetMacroInput, .-resetMacroInput
 236               		.type	pushCharacter, @function
 237               	pushCharacter:
 238               	.LFB26:
 239               	.LM42:
 240               	.LVL6:
 241 00ac 0F93      		push r16
 242 00ae 1F93      		push r17
 243               	/* prologue: function */
 244               	/* frame size = 0 */
 245 00b0 FC01      		movw r30,r24
 246               	.LM43:
 247 00b2 8081      		ld r24,Z
 248               	.LVL7:
 249 00b4 0E94 0000 		call charToKey
 250               	.LVL8:
 251 00b8 8C01      		movw r16,r24
 252               	.LM44:
 253 00ba 8823      		tst r24
 254               	.LVL9:
 255 00bc 01F0      		breq .L28
 256               	.LM45:
 257 00be 88E6      		ldi r24,lo8(104)
 258               	.LVL10:
 259 00c0 0E94 0000 		call pushM
 260               	.LVL11:
 261               	.L28:
 262               	.LM46:
 263 00c4 812F      		mov r24,r17
 264               	.LVL12:
 265 00c6 0E94 0000 		call pushM
 266               	.LM47:
 267 00ca 812F      		mov r24,r17
 268 00cc 0E94 0000 		call pushM
 269               	.LM48:
 270 00d0 0023      		tst r16
 271               	.LVL13:
 272 00d2 01F0      		breq .L30
 273               	.LM49:
 274 00d4 88E6      		ldi r24,lo8(104)
 275 00d6 0E94 0000 		call pushM
 276               	.L30:
 277               	/* epilogue start */
 278               	.LM50:
 279 00da 1F91      		pop r17
 280 00dc 0F91      		pop r16
 281               	.LVL14:
 282 00de 0895      		ret
 283               	.LFE26:
 284               		.size	pushCharacter, .-pushCharacter
 285               		.data
GAS LISTING C:\Users\ADMINI~1\AppData\Local\Temp/ccZjgOiQ.s 			page 6


 286               	.LC0:
 287 0000 2563 00   		.string	"%c"
 288               		.text
 289               		.type	printString, @function
 290               	printString:
 291               	.LFB28:
 292               	.LM51:
 293               	.LVL15:
 294 00e0 AF92      		push r10
 295 00e2 BF92      		push r11
 296 00e4 CF92      		push r12
 297 00e6 DF92      		push r13
 298 00e8 FF92      		push r15
 299 00ea 0F93      		push r16
 300 00ec 1F93      		push r17
 301 00ee DF93      		push r29
 302 00f0 CF93      		push r28
 303 00f2 0F92      		push __tmp_reg__
 304 00f4 CDB7      		in r28,__SP_L__
 305 00f6 DEB7      		in r29,__SP_H__
 306               	/* prologue: function */
 307               	/* frame size = 1 */
 308 00f8 8C01      		movw r16,r24
 309               	.LM52:
 310 00fa FF24      		clr r15
 311               	.LVL16:
 312               	.LM53:
 313 00fc 6E01      		movw r12,r28
 314 00fe 0894      		sec
 315 0100 C11C      		adc r12,__zero_reg__
 316 0102 D11C      		adc r13,__zero_reg__
 317 0104 80E0      		ldi r24,lo8(.LC0)
 318 0106 A82E      		mov r10,r24
 319 0108 80E0      		ldi r24,hi8(.LC0)
 320 010a B82E      		mov r11,r24
 321               	.LVL17:
 322 010c 00C0      		rjmp .L32
 323               	.L33:
 324 010e 00D0      		rcall .
 325 0110 00D0      		rcall .
 326 0112 00D0      		rcall .
 327 0114 EDB7      		in r30,__SP_L__
 328 0116 FEB7      		in r31,__SP_H__
 329 0118 3196      		adiw r30,1
 330 011a ADB7      		in r26,__SP_L__
 331 011c BEB7      		in r27,__SP_H__
 332 011e 1296      		adiw r26,1+1
 333 0120 DC92      		st X,r13
 334 0122 CE92      		st -X,r12
 335 0124 1197      		sbiw r26,1
 336 0126 B382      		std Z+3,r11
 337 0128 A282      		std Z+2,r10
 338 012a 800F      		add r24,r16
 339 012c 911F      		adc r25,r17
 340 012e DC01      		movw r26,r24
 341 0130 8C91      		ld r24,X
 342 0132 9927      		clr r25
GAS LISTING C:\Users\ADMINI~1\AppData\Local\Temp/ccZjgOiQ.s 			page 7


 343 0134 87FD      		sbrc r24,7
 344 0136 9095      		com r25
 345 0138 9583      		std Z+5,r25
 346 013a 8483      		std Z+4,r24
 347 013c 0E94 0000 		call sprintf
 348               	.LM54:
 349 0140 8DB7      		in r24,__SP_L__
 350 0142 9EB7      		in r25,__SP_H__
 351 0144 0696      		adiw r24,6
 352 0146 0FB6      		in __tmp_reg__,__SREG__
 353 0148 F894      		cli
 354 014a 9EBF      		out __SP_H__,r25
 355 014c 0FBE      		out __SREG__,__tmp_reg__
 356 014e 8DBF      		out __SP_L__,r24
 357 0150 C601      		movw r24,r12
 358 0152 0E94 0000 		call pushCharacter
 359               	.LM55:
 360 0156 F394      		inc r15
 361               	.L32:
 362 0158 8F2D      		mov r24,r15
 363 015a 90E0      		ldi r25,lo8(0)
 364 015c F801      		movw r30,r16
 365 015e 0190      		ld __tmp_reg__,Z+
 366 0160 0020      		tst __tmp_reg__
 367 0162 01F4      		brne .-6
 368 0164 3197      		sbiw r30,1
 369 0166 E01B      		sub r30,r16
 370 0168 F10B      		sbc r31,r17
 371 016a 8E17      		cp r24,r30
 372 016c 9F07      		cpc r25,r31
 373 016e 00F0      		brlo .L33
 374               	/* epilogue start */
 375               	.LM56:
 376 0170 0F90      		pop __tmp_reg__
 377 0172 CF91      		pop r28
 378 0174 DF91      		pop r29
 379 0176 1F91      		pop r17
 380 0178 0F91      		pop r16
 381               	.LVL18:
 382 017a FF90      		pop r15
 383               	.LVL19:
 384 017c DF90      		pop r13
 385 017e CF90      		pop r12
 386 0180 BF90      		pop r11
 387 0182 AF90      		pop r10
 388 0184 0895      		ret
 389               	.LFE28:
 390               		.size	printString, .-printString
 391               		.type	printStringFromFlash, @function
 392               	printStringFromFlash:
 393               	.LFB29:
 394               	.LM57:
 395               	.LVL20:
 396 0186 CF92      		push r12
 397 0188 DF92      		push r13
 398 018a EF92      		push r14
 399 018c FF92      		push r15
GAS LISTING C:\Users\ADMINI~1\AppData\Local\Temp/ccZjgOiQ.s 			page 8


 400 018e 0F93      		push r16
 401 0190 1F93      		push r17
 402 0192 DF93      		push r29
 403 0194 CF93      		push r28
 404 0196 0F92      		push __tmp_reg__
 405 0198 CDB7      		in r28,__SP_L__
 406 019a DEB7      		in r29,__SP_H__
 407               	/* prologue: function */
 408               	/* frame size = 1 */
 409 019c 8C01      		movw r16,r24
 410               	.LM58:
 411 019e 0097      		sbiw r24,0
 412 01a0 01F4      		brne .L40
 413 01a2 00C0      		rjmp .L39
 414               	.LVL21:
 415               	.L38:
 416               	.LM59:
 417 01a4 00D0      		rcall .
 418 01a6 00D0      		rcall .
 419 01a8 00D0      		rcall .
 420 01aa EDB7      		in r30,__SP_L__
 421 01ac FEB7      		in r31,__SP_H__
 422               	.LVL22:
 423 01ae 3196      		adiw r30,1
 424 01b0 ADB7      		in r26,__SP_L__
 425 01b2 BEB7      		in r27,__SP_H__
 426 01b4 1296      		adiw r26,1+1
 427 01b6 FC92      		st X,r15
 428 01b8 EE92      		st -X,r14
 429 01ba 1197      		sbiw r26,1
 430 01bc D382      		std Z+3,r13
 431 01be C282      		std Z+2,r12
 432 01c0 9927      		clr r25
 433 01c2 87FD      		sbrc r24,7
 434 01c4 9095      		com r25
 435               	.LVL23:
 436 01c6 9583      		std Z+5,r25
 437 01c8 8483      		std Z+4,r24
 438 01ca 0E94 0000 		call sprintf
 439               	.LVL24:
 440               	.LM60:
 441 01ce 8DB7      		in r24,__SP_L__
 442 01d0 9EB7      		in r25,__SP_H__
 443 01d2 0696      		adiw r24,6
 444 01d4 0FB6      		in __tmp_reg__,__SREG__
 445 01d6 F894      		cli
 446 01d8 9EBF      		out __SP_H__,r25
 447 01da 0FBE      		out __SREG__,__tmp_reg__
 448 01dc 8DBF      		out __SP_L__,r24
 449 01de C701      		movw r24,r14
 450 01e0 0E94 0000 		call pushCharacter
 451 01e4 00C0      		rjmp .L41
 452               	.LVL25:
 453               	.L40:
 454               	.LM61:
 455 01e6 7E01      		movw r14,r28
 456 01e8 0894      		sec
GAS LISTING C:\Users\ADMINI~1\AppData\Local\Temp/ccZjgOiQ.s 			page 9


 457 01ea E11C      		adc r14,__zero_reg__
 458 01ec F11C      		adc r15,__zero_reg__
 459 01ee 90E0      		ldi r25,lo8(.LC0)
 460 01f0 C92E      		mov r12,r25
 461 01f2 90E0      		ldi r25,hi8(.LC0)
 462 01f4 D92E      		mov r13,r25
 463               	.LVL26:
 464               	.L41:
 465               	.LM62:
 466 01f6 F801      		movw r30,r16
 467               	.LVL27:
 468               	.LBB71:
 469               	.LM63:
 470 01f8 0F5F      		subi r16,lo8(-(1))
 471 01fa 1F4F      		sbci r17,hi8(-(1))
 472               	/* #APP */
 473               	 ;  327 "keymapper.c" 1
 474 01fc 8491      		lpm r24, Z
 475               		
 476               	 ;  0 "" 2
 477               	.LVL28:
 478               	/* #NOAPP */
 479               	.LBE71:
 480 01fe 8823      		tst r24
 481 0200 01F4      		brne .L38
 482               	.LVL29:
 483               	.L39:
 484               	/* epilogue start */
 485               	.LM64:
 486 0202 0F90      		pop __tmp_reg__
 487 0204 CF91      		pop r28
 488 0206 DF91      		pop r29
 489 0208 1F91      		pop r17
 490 020a 0F91      		pop r16
 491               	.LVL30:
 492 020c FF90      		pop r15
 493 020e EF90      		pop r14
 494 0210 DF90      		pop r13
 495 0212 CF90      		pop r12
 496 0214 0895      		ret
 497               	.LFE29:
 498               		.size	printStringFromFlash, .-printStringFromFlash
 499               	.global	resetCurrentLayer
 500               		.type	resetCurrentLayer, @function
 501               	resetCurrentLayer:
 502               	.LFB45:
 503               	.LM65:
 504               	/* prologue: function */
 505               	/* frame size = 0 */
 506               	.LM66:
 507 0216 80E0      		ldi r24,lo8(str_reset_mapping)
 508 0218 90E0      		ldi r25,hi8(str_reset_mapping)
 509 021a 0E94 0000 		call printStringFromFlash
 510               	.LM67:
 511 021e 0E94 0000 		call printEnter
 512 0222 20E0      		ldi r18,lo8(_newKeyMap+8)
 513 0224 30E0      		ldi r19,hi8(_newKeyMap+8)
GAS LISTING C:\Users\ADMINI~1\AppData\Local\Temp/ccZjgOiQ.s 			page 10


 514 0226 80E0      		ldi r24,lo8(0)
 515 0228 90E0      		ldi r25,hi8(0)
 516 022a 00C0      		rjmp .L43
 517               	.L44:
 518               	.LM68:
 519 022c 1192      		st Z+,__zero_reg__
 520               	.LM69:
 521 022e E217      		cp r30,r18
 522 0230 F307      		cpc r31,r19
 523 0232 01F4      		brne .L44
 524 0234 0196      		adiw r24,1
 525 0236 9F01      		movw r18,r30
 526 0238 285F      		subi r18,lo8(-(8))
 527 023a 3F4F      		sbci r19,hi8(-(8))
 528               	.LM70:
 529 023c 8131      		cpi r24,17
 530 023e 9105      		cpc r25,__zero_reg__
 531 0240 01F0      		breq .L45
 532               	.L43:
 533 0242 FC01      		movw r30,r24
 534 0244 43E0      		ldi r20,3
 535 0246 EE0F      	1:	lsl r30
 536 0248 FF1F      		rol r31
 537 024a 4A95      		dec r20
 538 024c 01F4      		brne 1b
 539 024e E050      		subi r30,lo8(-(_newKeyMap))
 540 0250 F040      		sbci r31,hi8(-(_newKeyMap))
 541 0252 00C0      		rjmp .L44
 542               	.L45:
 543               	.LM71:
 544 0254 81E0      		ldi r24,lo8(1)
 545 0256 90E0      		ldi r25,hi8(1)
 546 0258 9093 0000 		sts (_editCount)+1,r25
 547 025c 8093 0000 		sts _editCount,r24
 548               	/* epilogue start */
 549               	.LM72:
 550 0260 0895      		ret
 551               	.LFE45:
 552               		.size	resetCurrentLayer, .-resetCurrentLayer
 553               	.global	clearMacro
 554               		.type	clearMacro, @function
 555               	clearMacro:
 556               	.LFB44:
 557               	.LM73:
 558               	/* prologue: function */
 559               	/* frame size = 0 */
 560               	.LM74:
 561 0262 80E0      		ldi r24,lo8(str_clear_all_macro)
 562 0264 90E0      		ldi r25,hi8(str_clear_all_macro)
 563 0266 0E94 0000 		call printStringFromFlash
 564               	.LM75:
 565 026a 0E94 0000 		call printEnter
 566               	.LM76:
 567 026e 81E0      		ldi r24,lo8(1)
 568 0270 8093 0000 		sts _isWorkingForEmpty,r24
 569               	.LM77:
 570 0274 8CE0      		ldi r24,lo8(12)
GAS LISTING C:\Users\ADMINI~1\AppData\Local\Temp/ccZjgOiQ.s 			page 11


 571 0276 8093 0000 		sts _wait,r24
 572               	.LM78:
 573 027a 1092 0000 		sts _step,__zero_reg__
 574               	/* epilogue start */
 575               	.LM79:
 576 027e 0895      		ret
 577               	.LFE44:
 578               		.size	clearMacro, .-clearMacro
 579               	.global	saveCurrentLayer
 580               		.type	saveCurrentLayer, @function
 581               	saveCurrentLayer:
 582               	.LFB39:
 583               	.LM80:
 584               	/* prologue: function */
 585               	/* frame size = 0 */
 586               	.LM81:
 587 0280 8091 0000 		lds r24,_editCount
 588 0284 9091 0000 		lds r25,(_editCount)+1
 589 0288 892B      		or r24,r25
 590 028a 01F4      		brne .L51
 591               	.LBB72:
 592               	.LBB73:
 593               	.LM82:
 594 028c 1092 0000 		sts _isKeyMapping,__zero_reg__
 595               	.LM83:
 596 0290 1092 0000 		sts _wait,__zero_reg__
 597 0294 0895      		ret
 598               	.L51:
 599               	.LBE73:
 600               	.LBE72:
 601               	.LM84:
 602 0296 80E0      		ldi r24,lo8(str_saving)
 603 0298 90E0      		ldi r25,hi8(str_saving)
 604 029a 0E94 0000 		call printStringFromFlash
 605               	.LM85:
 606 029e 0E94 0000 		call printEnter
 607               	.LM86:
 608 02a2 81E0      		ldi r24,lo8(1)
 609 02a4 8093 0000 		sts _isWorkingForEmpty,r24
 610               	.LM87:
 611 02a8 8BE0      		ldi r24,lo8(11)
 612 02aa 8093 0000 		sts _wait,r24
 613               	.LM88:
 614 02ae 8091 0000 		lds r24,_step
 615 02b2 8093 0000 		sts _stepAfterSave,r24
 616               	.LM89:
 617 02b6 1092 0000 		sts _step,__zero_reg__
 618 02ba 0895      		ret
 619               	.LFE39:
 620               		.size	saveCurrentLayer, .-saveCurrentLayer
 621               	.global	printPrepareString
 622               		.type	printPrepareString, @function
 623               	printPrepareString:
 624               	.LFB35:
 625               	.LM90:
 626               	/* prologue: function */
 627               	/* frame size = 0 */
GAS LISTING C:\Users\ADMINI~1\AppData\Local\Temp/ccZjgOiQ.s 			page 12


 628               	.LM91:
 629 02bc 80E0      		ldi r24,lo8(str_prepare_message)
 630 02be 90E0      		ldi r25,hi8(str_prepare_message)
 631 02c0 0E94 0000 		call printStringFromFlash
 632               	.LM92:
 633 02c4 0E94 0000 		call printEnter
 634               	/* epilogue start */
 635               	.LM93:
 636 02c8 0895      		ret
 637               	.LFE35:
 638               		.size	printPrepareString, .-printPrepareString
 639               	.global	printMacroMessage
 640               		.type	printMacroMessage, @function
 641               	printMacroMessage:
 642               	.LFB34:
 643               	.LM94:
 644               	/* prologue: function */
 645               	/* frame size = 0 */
 646               	.LM95:
 647 02ca 0E94 0000 		call printEnter
 648               	.LM96:
 649 02ce 80E0      		ldi r24,lo8(str_macro_message)
 650 02d0 90E0      		ldi r25,hi8(str_macro_message)
 651 02d2 0E94 0000 		call printStringFromFlash
 652               	.LM97:
 653 02d6 0E94 0000 		call printEnter
 654               	.LM98:
 655 02da 80E0      		ldi r24,lo8(str_macro_1)
 656 02dc 90E0      		ldi r25,hi8(str_macro_1)
 657 02de 0E94 0000 		call printStringFromFlash
 658               	.LM99:
 659 02e2 0E94 0000 		call printEnter
 660               	.LM100:
 661 02e6 80E0      		ldi r24,lo8(str_macro_2)
 662 02e8 90E0      		ldi r25,hi8(str_macro_2)
 663 02ea 0E94 0000 		call printStringFromFlash
 664               	.LM101:
 665 02ee 0E94 0000 		call printEnter
 666               	.LM102:
 667 02f2 80E0      		ldi r24,lo8(str_back_6)
 668 02f4 90E0      		ldi r25,hi8(str_back_6)
 669 02f6 0E94 0000 		call printStringFromFlash
 670               	.LM103:
 671 02fa 0E94 0000 		call printEnter
 672               	.LM104:
 673 02fe 80E0      		ldi r24,lo8(str_macro_9)
 674 0300 90E0      		ldi r25,hi8(str_macro_9)
 675 0302 0E94 0000 		call printStringFromFlash
 676               	.LM105:
 677 0306 0E94 0000 		call printEnter
 678               	.LM106:
 679 030a 87E0      		ldi r24,lo8(7)
 680 030c 8093 0000 		sts _step,r24
 681               	/* epilogue start */
 682               	.LM107:
 683 0310 0895      		ret
 684               	.LFE34:
GAS LISTING C:\Users\ADMINI~1\AppData\Local\Temp/ccZjgOiQ.s 			page 13


 685               		.size	printMacroMessage, .-printMacroMessage
 686               		.type	printPrompt, @function
 687               	printPrompt:
 688               	.LFB30:
 689               	.LM108:
 690               	/* prologue: function */
 691               	/* frame size = 0 */
 692               	.LM109:
 693 0312 81E0      		ldi r24,lo8(1)
 694 0314 8093 0000 		sts _isWorkingForEmpty,r24
 695               	.LM110:
 696 0318 8091 0000 		lds r24,_step
 697 031c 8930      		cpi r24,lo8(9)
 698 031e 00F4      		brsh .L72
 699 0320 8730      		cpi r24,lo8(7)
 700 0322 00F4      		brsh .L66
 701 0324 8330      		cpi r24,lo8(3)
 702 0326 01F0      		breq .L62
 703 0328 8430      		cpi r24,lo8(4)
 704 032a 00F4      		brsh .L73
 705 032c 8130      		cpi r24,lo8(1)
 706 032e 01F0      		breq .L60
 707 0330 8230      		cpi r24,lo8(2)
 708 0332 01F0      		breq .+2
 709 0334 00C0      		rjmp .L80
 710 0336 00C0      		rjmp .L85
 711               	.L73:
 712 0338 8530      		cpi r24,lo8(5)
 713 033a 01F0      		breq .L64
 714 033c 8630      		cpi r24,lo8(6)
 715 033e 00F4      		brsh .L65
 716 0340 00C0      		rjmp .L86
 717               	.L72:
 718 0342 8B30      		cpi r24,lo8(11)
 719 0344 01F0      		breq .L69
 720 0346 8C30      		cpi r24,lo8(12)
 721 0348 00F4      		brsh .L74
 722 034a 8930      		cpi r24,lo8(9)
 723 034c 01F0      		breq .L67
 724 034e 8A30      		cpi r24,lo8(10)
 725 0350 01F4      		brne .L80
 726 0352 00C0      		rjmp .L87
 727               	.L74:
 728 0354 8436      		cpi r24,lo8(100)
 729 0356 01F0      		breq .L70
 730 0358 8E36      		cpi r24,lo8(110)
 731 035a 01F4      		brne .L80
 732 035c 00C0      		rjmp .L71
 733               	.L60:
 734               	.LM111:
 735 035e 80E0      		ldi r24,lo8(str_choose_layer)
 736 0360 90E0      		ldi r25,hi8(str_choose_layer)
 737 0362 0E94 0000 		call printStringFromFlash
 738               	.LM112:
 739 0366 8091 0000 		lds r24,_currentLayer
 740 036a 8F5F      		subi r24,lo8(-(1))
 741 036c 0E94 0000 		call toString
GAS LISTING C:\Users\ADMINI~1\AppData\Local\Temp/ccZjgOiQ.s 			page 14


 742 0370 0E94 0000 		call printString
 743 0374 00C0      		rjmp .L83
 744               	.L85:
 745               	.LM113:
 746 0376 80E0      		ldi r24,lo8(str_choose_key)
 747 0378 90E0      		ldi r25,hi8(str_choose_key)
 748 037a 00C0      		rjmp .L84
 749               	.L62:
 750               	.LM114:
 751 037c 80E0      		ldi r24,lo8(str_input_keycode)
 752 037e 90E0      		ldi r25,hi8(str_input_keycode)
 753 0380 00C0      		rjmp .L81
 754               	.L86:
 755               	.LM115:
 756 0382 80E0      		ldi r24,lo8(str_save_end_mapping)
 757 0384 90E0      		ldi r25,hi8(str_save_end_mapping)
 758 0386 00C0      		rjmp .L82
 759               	.L64:
 760               	.LM116:
 761 0388 80E0      		ldi r24,lo8(str_cancel_mapping)
 762 038a 90E0      		ldi r25,hi8(str_cancel_mapping)
 763 038c 00C0      		rjmp .L82
 764               	.L65:
 765               	.LM117:
 766 038e 1092 0000 		sts _isWorkingForEmpty,__zero_reg__
 767 0392 00C0      		rjmp .L80
 768               	.L66:
 769               	.LM118:
 770 0394 80E0      		ldi r24,lo8(str_input_command)
 771 0396 90E0      		ldi r25,hi8(str_input_command)
 772               	.L81:
 773 0398 0E94 0000 		call printStringFromFlash
 774 039c 00C0      		rjmp .L80
 775               	.L67:
 776               	.LM119:
 777 039e 80E0      		ldi r24,lo8(str_select_number)
 778 03a0 90E0      		ldi r25,hi8(str_select_number)
 779 03a2 00C0      		rjmp .L81
 780               	.L87:
 781               	.LM120:
 782 03a4 80E0      		ldi r24,lo8(str_exit_macro)
 783 03a6 90E0      		ldi r25,hi8(str_exit_macro)
 784 03a8 00C0      		rjmp .L82
 785               	.L69:
 786               	.LM121:
 787 03aa 80E0      		ldi r24,lo8(str_input_macro)
 788 03ac 90E0      		ldi r25,hi8(str_input_macro)
 789               	.L84:
 790 03ae 0E94 0000 		call printStringFromFlash
 791               	.L83:
 792               	.LM122:
 793 03b2 0E94 0000 		call printEnter
 794 03b6 00C0      		rjmp .L80
 795               	.L70:
 796               	.LM123:
 797 03b8 80E0      		ldi r24,lo8(str_exit)
 798 03ba 90E0      		ldi r25,hi8(str_exit)
GAS LISTING C:\Users\ADMINI~1\AppData\Local\Temp/ccZjgOiQ.s 			page 15


 799               	.L82:
 800 03bc 0E94 0000 		call printStringFromFlash
 801               	.LM124:
 802 03c0 0E94 0000 		call printEnter
 803               	.LM125:
 804 03c4 1092 0000 		sts _step,__zero_reg__
 805 03c8 00C0      		rjmp .L80
 806               	.L71:
 807               	.LM126:
 808 03ca 0E94 0000 		call printSelectMode
 809               	.L80:
 810 03ce 88EE      		ldi r24,lo8(1000)
 811 03d0 93E0      		ldi r25,hi8(1000)
 812               	.LVL31:
 813               	.LBB74:
 814               	.LBB75:
 815               	.LBB76:
 816               	.LBB77:
 817               	.LM127:
 818 03d2 2CE2      		ldi r18,lo8(300)
 819 03d4 31E0      		ldi r19,hi8(300)
 820               	.L77:
 821 03d6 F901      		movw r30,r18
 822               	.LVL32:
 823               	/* #APP */
 824               	 ;  105 "c:/winavr-20100110/lib/gcc/../../avr/include/util/delay_basic.h" 1
 825 03d8 3197      		1: sbiw r30,1
 826 03da 01F4      		brne 1b
 827               	 ;  0 "" 2
 828               	/* #NOAPP */
 829               	.LBE77:
 830               	.LBE76:
 831               	.LM128:
 832 03dc 0197      		sbiw r24,1
 833               	.LM129:
 834 03de 01F4      		brne .L77
 835               	/* epilogue start */
 836               	.LBE75:
 837               	.LBE74:
 838               	.LM130:
 839 03e0 0895      		ret
 840               	.LFE30:
 841               		.size	printPrompt, .-printPrompt
 842               	.global	printSelectMode
 843               		.type	printSelectMode, @function
 844               	printSelectMode:
 845               	.LFB31:
 846               	.LM131:
 847               	/* prologue: function */
 848               	/* frame size = 0 */
 849               	.LM132:
 850 03e2 0E94 0000 		call printEnter
 851               	.LM133:
 852 03e6 80E0      		ldi r24,lo8(str_select_mode)
 853 03e8 90E0      		ldi r25,hi8(str_select_mode)
 854 03ea 0E94 0000 		call printStringFromFlash
 855               	.LM134:
GAS LISTING C:\Users\ADMINI~1\AppData\Local\Temp/ccZjgOiQ.s 			page 16


 856 03ee 0E94 0000 		call printEnter
 857               	.LM135:
 858 03f2 80E0      		ldi r24,lo8(str_select_mode1)
 859 03f4 90E0      		ldi r25,hi8(str_select_mode1)
 860 03f6 0E94 0000 		call printStringFromFlash
 861               	.LM136:
 862 03fa 0E94 0000 		call printEnter
 863               	.LM137:
 864 03fe 80E0      		ldi r24,lo8(str_select_mode2)
 865 0400 90E0      		ldi r25,hi8(str_select_mode2)
 866 0402 0E94 0000 		call printStringFromFlash
 867               	.LM138:
 868 0406 0E94 0000 		call printEnter
 869               	.LM139:
 870 040a 80E0      		ldi r24,lo8(str_select_mode3)
 871 040c 90E0      		ldi r25,hi8(str_select_mode3)
 872 040e 0E94 0000 		call printStringFromFlash
 873               	.LM140:
 874 0412 0E94 0000 		call printEnter
 875               	.LM141:
 876 0416 88E0      		ldi r24,lo8(8)
 877 0418 8093 0000 		sts _step,r24
 878               	.LM142:
 879 041c 0E94 0000 		call printPrompt
 880               	/* epilogue start */
 881               	.LM143:
 882 0420 0895      		ret
 883               	.LFE31:
 884               		.size	printSelectMode, .-printSelectMode
 885               	.global	printMapperMessageAfter
 886               		.type	printMapperMessageAfter, @function
 887               	printMapperMessageAfter:
 888               	.LFB32:
 889               	.LM144:
 890               	/* prologue: function */
 891               	/* frame size = 0 */
 892               	.LM145:
 893 0422 0E94 0000 		call printEnter
 894               	.LM146:
 895 0426 80E0      		ldi r24,lo8(str_mapper_3)
 896 0428 90E0      		ldi r25,hi8(str_mapper_3)
 897 042a 0E94 0000 		call printStringFromFlash
 898               	.LM147:
 899 042e 0E94 0000 		call printEnter
 900               	.LM148:
 901 0432 80E0      		ldi r24,lo8(str_mapper_4)
 902 0434 90E0      		ldi r25,hi8(str_mapper_4)
 903 0436 0E94 0000 		call printStringFromFlash
 904               	.LM149:
 905 043a 0E94 0000 		call printEnter
 906               	.LM150:
 907 043e 80E0      		ldi r24,lo8(str_back_6)
 908 0440 90E0      		ldi r25,hi8(str_back_6)
 909 0442 0E94 0000 		call printStringFromFlash
 910               	.LM151:
 911 0446 0E94 0000 		call printEnter
 912               	.LM152:
GAS LISTING C:\Users\ADMINI~1\AppData\Local\Temp/ccZjgOiQ.s 			page 17


 913 044a 80E0      		ldi r24,lo8(str_mapper_9)
 914 044c 90E0      		ldi r25,hi8(str_mapper_9)
 915 044e 0E94 0000 		call printStringFromFlash
 916               	.LM153:
 917 0452 0E94 0000 		call printEnter
 918               	.LM154:
 919 0456 87E0      		ldi r24,lo8(7)
 920 0458 8093 0000 		sts _step,r24
 921               	.LM155:
 922 045c 0E94 0000 		call printPrompt
 923               	/* epilogue start */
 924               	.LM156:
 925 0460 0895      		ret
 926               	.LFE32:
 927               		.size	printMapperMessageAfter, .-printMapperMessageAfter
 928               	.global	clearMacroAfter
 929               		.type	clearMacroAfter, @function
 930               	clearMacroAfter:
 931               	.LFB43:
 932               	.LM157:
 933 0462 CF93      		push r28
 934 0464 DF93      		push r29
 935               	/* prologue: function */
 936               	/* frame size = 0 */
 937               	.LM158:
 938 0466 C5EA      		ldi r28,lo8(421)
 939 0468 D1E0      		ldi r29,hi8(421)
 940               	.L93:
 941               	.LM159:
 942 046a CE01      		movw r24,r28
 943 046c 60E0      		ldi r22,lo8(0)
 944 046e 0E94 0000 		call __eewr_byte_m32
 945 0472 2196      		adiw r28,1
 946               	.LM160:
 947 0474 83E0      		ldi r24,hi8(805)
 948 0476 C532      		cpi r28,lo8(805)
 949 0478 D807      		cpc r29,r24
 950 047a 01F4      		brne .L93
 951               	.LM161:
 952 047c 87E0      		ldi r24,lo8(7)
 953 047e 8093 0000 		sts _step,r24
 954               	.LM162:
 955 0482 0E94 0000 		call printPrompt
 956               	/* epilogue start */
 957               	.LM163:
 958 0486 DF91      		pop r29
 959 0488 CF91      		pop r28
 960 048a 0895      		ret
 961               	.LFE43:
 962               		.size	clearMacroAfter, .-clearMacroAfter
 963               	.global	saveMacro
 964               		.type	saveMacro, @function
 965               	saveMacro:
 966               	.LFB42:
 967               	.LM164:
 968 048c CF93      		push r28
 969 048e DF93      		push r29
GAS LISTING C:\Users\ADMINI~1\AppData\Local\Temp/ccZjgOiQ.s 			page 18


 970               	/* prologue: function */
 971               	/* frame size = 0 */
 972               	.LM165:
 973 0490 8091 0000 		lds r24,_macroIndex
 974 0494 8C30      		cpi r24,lo8(12)
 975 0496 00F4      		brsh .L99
 976 0498 C0E0      		ldi r28,lo8(0)
 977 049a D0E0      		ldi r29,hi8(0)
 978               	.L98:
 979               	.LM166:
 980 049c 8091 0000 		lds r24,_macroIndex
 981 04a0 90E0      		ldi r25,lo8(0)
 982 04a2 55E0      		ldi r21,5
 983 04a4 880F      	1:	lsl r24
 984 04a6 991F      		rol r25
 985 04a8 5A95      		dec r21
 986 04aa 01F4      		brne 1b
 987 04ac 8B55      		subi r24,lo8(-(421))
 988 04ae 9E4F      		sbci r25,hi8(-(421))
 989 04b0 FE01      		movw r30,r28
 990 04b2 E050      		subi r30,lo8(-(_macroInputBuffer))
 991 04b4 F040      		sbci r31,hi8(-(_macroInputBuffer))
 992 04b6 8C0F      		add r24,r28
 993 04b8 9D1F      		adc r25,r29
 994 04ba 6081      		ld r22,Z
 995 04bc 0E94 0000 		call __eewr_byte_m32
 996 04c0 2196      		adiw r28,1
 997               	.LM167:
 998 04c2 C032      		cpi r28,32
 999 04c4 D105      		cpc r29,__zero_reg__
 1000 04c6 01F4      		brne .L98
 1001               	.LM168:
 1002 04c8 8FEF      		ldi r24,lo8(-1)
 1003 04ca 8093 0000 		sts _macroIndex,r24
 1004               	.L99:
 1005               	/* epilogue start */
 1006               	.LM169:
 1007 04ce DF91      		pop r29
 1008 04d0 CF91      		pop r28
 1009 04d2 0895      		ret
 1010               	.LFE42:
 1011               		.size	saveMacro, .-saveMacro
 1012               	.global	readMacro
 1013               		.type	readMacro, @function
 1014               	readMacro:
 1015               	.LFB41:
 1016               	.LM170:
 1017               	.LVL33:
 1018 04d4 0F93      		push r16
 1019 04d6 1F93      		push r17
 1020 04d8 CF93      		push r28
 1021 04da DF93      		push r29
 1022               	/* prologue: function */
 1023               	/* frame size = 0 */
 1024               	.LM171:
 1025 04dc 8C30      		cpi r24,lo8(12)
 1026 04de 00F4      		brsh .L105
GAS LISTING C:\Users\ADMINI~1\AppData\Local\Temp/ccZjgOiQ.s 			page 19


 1027               	.LM172:
 1028 04e0 90E0      		ldi r25,lo8(0)
 1029 04e2 65E0      		ldi r22,5
 1030 04e4 880F      	1:	lsl r24
 1031 04e6 991F      		rol r25
 1032 04e8 6A95      		dec r22
 1033 04ea 01F4      		brne 1b
 1034               	.LVL34:
 1035 04ec EC01      		movw r28,r24
 1036 04ee CB55      		subi r28,lo8(-(421))
 1037 04f0 DE4F      		sbci r29,hi8(-(421))
 1038               	.LM173:
 1039 04f2 8C01      		movw r16,r24
 1040 04f4 0B53      		subi r16,lo8(-(453))
 1041 04f6 1E4F      		sbci r17,hi8(-(453))
 1042               	.LVL35:
 1043               	.L104:
 1044               	.LM174:
 1045 04f8 CE01      		movw r24,r28
 1046 04fa 0E94 0000 		call __eerd_byte_m32
 1047               	.LVL36:
 1048 04fe 982F      		mov r25,r24
 1049               	.LVL37:
 1050               	.LM175:
 1051 0500 8150      		subi r24,lo8(-(-1))
 1052 0502 8E3F      		cpi r24,lo8(-2)
 1053 0504 00F4      		brsh .L103
 1054               	.LM176:
 1055 0506 892F      		mov r24,r25
 1056 0508 0E94 0000 		call pushM
 1057               	.LVL38:
 1058               	.L103:
 1059 050c 2196      		adiw r28,1
 1060               	.LM177:
 1061 050e C017      		cp r28,r16
 1062 0510 D107      		cpc r29,r17
 1063 0512 01F4      		brne .L104
 1064               	.LVL39:
 1065               	.L105:
 1066               	/* epilogue start */
 1067               	.LM178:
 1068 0514 DF91      		pop r29
 1069 0516 CF91      		pop r28
 1070 0518 1F91      		pop r17
 1071 051a 0F91      		pop r16
 1072 051c 0895      		ret
 1073               	.LFE41:
 1074               		.size	readMacro, .-readMacro
 1075               	.global	loadCurrentLayer
 1076               		.type	loadCurrentLayer, @function
 1077               	loadCurrentLayer:
 1078               	.LFB36:
 1079               	.LM179:
 1080 051e CF92      		push r12
 1081 0520 DF92      		push r13
 1082 0522 EF92      		push r14
 1083 0524 FF92      		push r15
GAS LISTING C:\Users\ADMINI~1\AppData\Local\Temp/ccZjgOiQ.s 			page 20


 1084 0526 0F93      		push r16
 1085 0528 1F93      		push r17
 1086 052a CF93      		push r28
 1087 052c DF93      		push r29
 1088               	/* prologue: function */
 1089               	/* frame size = 0 */
 1090               	.LM180:
 1091 052e 9091 0000 		lds r25,_currentLayer
 1092 0532 88E8      		ldi r24,lo8(-120)
 1093 0534 989F      		mul r25,r24
 1094 0536 7001      		movw r14,r0
 1095 0538 1124      		clr r1
 1096 053a 8DE0      		ldi r24,lo8(13)
 1097 053c 90E0      		ldi r25,hi8(13)
 1098 053e E80E      		add r14,r24
 1099 0540 F91E      		adc r15,r25
 1100 0542 CC24      		clr r12
 1101 0544 DD24      		clr r13
 1102 0546 00C0      		rjmp .L108
 1103               	.L109:
 1104               	.LM181:
 1105 0548 CE01      		movw r24,r28
 1106 054a 8E0D      		add r24,r14
 1107 054c 9F1D      		adc r25,r15
 1108 054e 0E94 0000 		call __eerd_byte_m32
 1109 0552 F801      		movw r30,r16
 1110 0554 8193      		st Z+,r24
 1111 0556 8F01      		movw r16,r30
 1112 0558 2196      		adiw r28,1
 1113               	.LM182:
 1114 055a C830      		cpi r28,8
 1115 055c D105      		cpc r29,__zero_reg__
 1116 055e 01F4      		brne .L109
 1117 0560 0894      		sec
 1118 0562 C11C      		adc r12,__zero_reg__
 1119 0564 D11C      		adc r13,__zero_reg__
 1120 0566 88E0      		ldi r24,lo8(8)
 1121 0568 90E0      		ldi r25,hi8(8)
 1122 056a E80E      		add r14,r24
 1123 056c F91E      		adc r15,r25
 1124               	.LM183:
 1125 056e 91E1      		ldi r25,lo8(17)
 1126 0570 C916      		cp r12,r25
 1127 0572 D104      		cpc r13,__zero_reg__
 1128 0574 01F0      		breq .L110
 1129               	.L108:
 1130 0576 8601      		movw r16,r12
 1131 0578 73E0      		ldi r23,3
 1132 057a 000F      	1:	lsl r16
 1133 057c 111F      		rol r17
 1134 057e 7A95      		dec r23
 1135 0580 01F4      		brne 1b
 1136 0582 0050      		subi r16,lo8(-(_newKeyMap))
 1137 0584 1040      		sbci r17,hi8(-(_newKeyMap))
 1138 0586 C0E0      		ldi r28,lo8(0)
 1139 0588 D0E0      		ldi r29,hi8(0)
 1140 058a 00C0      		rjmp .L109
GAS LISTING C:\Users\ADMINI~1\AppData\Local\Temp/ccZjgOiQ.s 			page 21


 1141               	.L110:
 1142               	.LM184:
 1143 058c 1092 0000 		sts (_editCount)+1,__zero_reg__
 1144 0590 1092 0000 		sts _editCount,__zero_reg__
 1145               	/* epilogue start */
 1146               	.LM185:
 1147 0594 DF91      		pop r29
 1148 0596 CF91      		pop r28
 1149 0598 1F91      		pop r17
 1150 059a 0F91      		pop r16
 1151 059c FF90      		pop r15
 1152 059e EF90      		pop r14
 1153 05a0 DF90      		pop r13
 1154 05a2 CF90      		pop r12
 1155 05a4 0895      		ret
 1156               	.LFE36:
 1157               		.size	loadCurrentLayer, .-loadCurrentLayer
 1158               		.data
 1159               	.LC1:
 1160 0003 2564 00   		.string	"%d"
 1161               	.LC2:
 1162 0006 2C20 00   		.string	", "
 1163               	.LC3:
 1164 0009 2028 6C61 		.string	" (layer="
 1164      7965 723D 
 1164      00
 1165               	.LC4:
 1166 0012 2064 6566 		.string	" default="
 1166      6175 6C74 
 1166      3D00 
 1167               	.LC5:
 1168 001c 206D 6170 		.string	" mapping="
 1168      7069 6E67 
 1168      3D00 
 1169               	.LC6:
 1170 0026 2900      		.string	")"
 1171               		.text
 1172               	.global	putKeyCode
 1173               		.type	putKeyCode, @function
 1174               	putKeyCode:
 1175               	.LFB47:
 1176               	.LM186:
 1177               	.LVL40:
 1178 05a6 AF92      		push r10
 1179 05a8 BF92      		push r11
 1180 05aa CF92      		push r12
 1181 05ac DF92      		push r13
 1182 05ae EF92      		push r14
 1183 05b0 FF92      		push r15
 1184 05b2 0F93      		push r16
 1185 05b4 1F93      		push r17
 1186 05b6 DF93      		push r29
 1187 05b8 CF93      		push r28
 1188 05ba 00D0      		rcall .
 1189 05bc 0F92      		push __tmp_reg__
 1190 05be CDB7      		in r28,__SP_L__
 1191 05c0 DEB7      		in r29,__SP_H__
GAS LISTING C:\Users\ADMINI~1\AppData\Local\Temp/ccZjgOiQ.s 			page 22


 1192               	/* prologue: function */
 1193               	/* frame size = 3 */
 1194 05c2 D82E      		mov r13,r24
 1195 05c4 B62E      		mov r11,r22
 1196 05c6 A42E      		mov r10,r20
 1197 05c8 C22E      		mov r12,r18
 1198               	.LM187:
 1199 05ca 8091 0000 		lds r24,_isWorkingForEmpty
 1200               	.LVL41:
 1201 05ce 8823      		tst r24
 1202 05d0 01F0      		breq .+2
 1203 05d2 00C0      		rjmp .L154
 1204               	.LVL42:
 1205               	.LM188:
 1206 05d4 8091 0000 		lds r24,_step
 1207 05d8 8B30      		cpi r24,lo8(11)
 1208 05da 01F0      		breq .L115
 1209 05dc 2223      		tst r18
 1210 05de 01F0      		breq .+2
 1211 05e0 00C0      		rjmp .L154
 1212               	.L115:
 1213               	.LM189:
 1214 05e2 80E0      		ldi r24,lo8(usingKeys)
 1215 05e4 90E0      		ldi r25,hi8(usingKeys)
 1216 05e6 6BE0      		ldi r22,lo8(11)
 1217 05e8 4D2D      		mov r20,r13
 1218 05ea 0E94 0000 		call findIndex
 1219 05ee 7C01      		movw r14,r24
 1220               	.LVL43:
 1221               	.LM190:
 1222 05f0 9091 0000 		lds r25,_step
 1223 05f4 9B30      		cpi r25,lo8(11)
 1224 05f6 01F0      		breq .+2
 1225 05f8 00C0      		rjmp .L116
 1226               	.LM191:
 1227 05fa 8091 0000 		lds r24,_isTiredEscapeKey
 1228 05fe 8823      		tst r24
 1229 0600 01F0      		breq .L117
 1230               	.LM192:
 1231 0602 1092 0000 		sts _isPressedEscapeKey,__zero_reg__
 1232               	.LM193:
 1233 0606 1092 0000 		sts _isTiredEscapeKey,__zero_reg__
 1234               	.LM194:
 1235 060a 8D2D      		mov r24,r13
 1236 060c 0E94 0000 		call pushM
 1237               	.LM195:
 1238 0610 E091 0000 		lds r30,_macroBufferIndex
 1239 0614 F0E0      		ldi r31,lo8(0)
 1240 0616 E050      		subi r30,lo8(-(_macroInputBuffer-1))
 1241 0618 F040      		sbci r31,hi8(-(_macroInputBuffer-1))
 1242 061a 1082      		st Z,__zero_reg__
 1243               	.LM196:
 1244 061c 0E94 0000 		call saveMacro
 1245               	.LM197:
 1246 0620 87E0      		ldi r24,lo8(7)
 1247 0622 8093 0000 		sts _step,r24
 1248 0626 00C0      		rjmp .L163
GAS LISTING C:\Users\ADMINI~1\AppData\Local\Temp/ccZjgOiQ.s 			page 23


 1249               	.L117:
 1250               	.LM198:
 1251 0628 CC20      		tst r12
 1252 062a 01F0      		breq .L118
 1253               	.LM199:
 1254 062c 8091 0000 		lds r24,_macroDownCount
 1255 0630 8031      		cpi r24,lo8(16)
 1256 0632 00F0      		brlo .+2
 1257 0634 00C0      		rjmp .L154
 1258               	.LM200:
 1259 0636 8F5F      		subi r24,lo8(-(1))
 1260 0638 8093 0000 		sts _macroDownCount,r24
 1261               	.LM201:
 1262 063c 80E0      		ldi r24,lo8(_macroPressedBuffer)
 1263 063e 90E0      		ldi r25,hi8(_macroPressedBuffer)
 1264 0640 6D2D      		mov r22,r13
 1265 0642 0E94 0000 		call append
 1266 0646 00C0      		rjmp .L119
 1267               	.L118:
 1268               	.LM202:
 1269 0648 00E0      		ldi r16,lo8(_macroPressedBuffer)
 1270 064a 10E0      		ldi r17,hi8(_macroPressedBuffer)
 1271 064c F801      		movw r30,r16
 1272 064e 0190      		ld __tmp_reg__,Z+
 1273 0650 0020      		tst __tmp_reg__
 1274 0652 01F4      		brne .-6
 1275 0654 3197      		sbiw r30,1
 1276 0656 E01B      		sub r30,r16
 1277 0658 F10B      		sbc r31,r17
 1278               	.LM203:
 1279 065a C801      		movw r24,r16
 1280 065c 6E2F      		mov r22,r30
 1281 065e 4D2D      		mov r20,r13
 1282 0660 0E94 0000 		call findIndex
 1283 0664 BC01      		movw r22,r24
 1284               	.LVL44:
 1285               	.LM204:
 1286 0666 8FEF      		ldi r24,hi8(-1)
 1287 0668 6F3F      		cpi r22,lo8(-1)
 1288 066a 7807      		cpc r23,r24
 1289 066c 01F4      		brne .+2
 1290 066e 00C0      		rjmp .L154
 1291               	.LM205:
 1292 0670 C801      		movw r24,r16
 1293 0672 0E94 0000 		call delete
 1294               	.LVL45:
 1295               	.L119:
 1296               	.LM206:
 1297 0676 8091 0000 		lds r24,_macroBufferIndex
 1298 067a E82F      		mov r30,r24
 1299 067c F0E0      		ldi r31,lo8(0)
 1300 067e E050      		subi r30,lo8(-(_macroInputBuffer))
 1301 0680 F040      		sbci r31,hi8(-(_macroInputBuffer))
 1302 0682 D082      		st Z,r13
 1303               	.LM207:
 1304 0684 8F5F      		subi r24,lo8(-(1))
 1305 0686 8093 0000 		sts _macroBufferIndex,r24
GAS LISTING C:\Users\ADMINI~1\AppData\Local\Temp/ccZjgOiQ.s 			page 24


 1306               	.LM208:
 1307 068a 8D2D      		mov r24,r13
 1308 068c 0E94 0000 		call pushM
 1309               	.LM209:
 1310 0690 8091 0000 		lds r24,_macroBufferIndex
 1311 0694 8032      		cpi r24,lo8(32)
 1312 0696 00F0      		brlo .L120
 1313               	.LM210:
 1314 0698 87E0      		ldi r24,lo8(7)
 1315 069a 8093 0000 		sts _step,r24
 1316               	.LM211:
 1317 069e 0E94 0000 		call saveMacro
 1318 06a2 00C0      		rjmp .L163
 1319               	.L120:
 1320               	.LM212:
 1321 06a4 CC20      		tst r12
 1322 06a6 01F0      		breq .L121
 1323 06a8 A0E0      		ldi r26,lo8(usingKeys)
 1324 06aa B0E0      		ldi r27,hi8(usingKeys)
 1325 06ac EA0E      		add r14,r26
 1326 06ae FB1E      		adc r15,r27
 1327 06b0 F701      		movw r30,r14
 1328 06b2 8081      		ld r24,Z
 1329 06b4 8932      		cpi r24,lo8(41)
 1330 06b6 01F4      		brne .L121
 1331               	.LM213:
 1332 06b8 81E0      		ldi r24,lo8(1)
 1333 06ba 8093 0000 		sts _isPressedEscapeKey,r24
 1334               	.LM214:
 1335 06be 1092 0000 		sts (_pressedEscapeKeyCount)+1,__zero_reg__
 1336 06c2 1092 0000 		sts _pressedEscapeKeyCount,__zero_reg__
 1337 06c6 00C0      		rjmp .L154
 1338               	.L121:
 1339               	.LM215:
 1340 06c8 1092 0000 		sts _isPressedEscapeKey,__zero_reg__
 1341               	.LM216:
 1342 06cc 1092 0000 		sts _isTiredEscapeKey,__zero_reg__
 1343 06d0 00C0      		rjmp .L154
 1344               	.L116:
 1345               	.LM217:
 1346 06d2 892F      		mov r24,r25
 1347 06d4 8750      		subi r24,lo8(-(-7))
 1348 06d6 8230      		cpi r24,lo8(2)
 1349 06d8 00F0      		brlo .+2
 1350 06da 00C0      		rjmp .L122
 1351               	.LM218:
 1352 06dc FAE0      		ldi r31,lo8(10)
 1353 06de EF16      		cp r14,r31
 1354 06e0 F104      		cpc r15,__zero_reg__
 1355 06e2 00F0      		brlo .+2
 1356 06e4 00C0      		rjmp .L154
 1357               	.LM219:
 1358 06e6 E091 0000 		lds r30,_bufferIndex
 1359 06ea F0E0      		ldi r31,lo8(0)
 1360 06ec E050      		subi r30,lo8(-(_buffer))
 1361 06ee F040      		sbci r31,hi8(-(_buffer))
 1362 06f0 E082      		st Z,r14
GAS LISTING C:\Users\ADMINI~1\AppData\Local\Temp/ccZjgOiQ.s 			page 25


 1363               	.LM220:
 1364 06f2 00D0      		rcall .
 1365 06f4 00D0      		rcall .
 1366 06f6 00D0      		rcall .
 1367 06f8 EDB7      		in r30,__SP_L__
 1368 06fa FEB7      		in r31,__SP_H__
 1369 06fc 3196      		adiw r30,1
 1370 06fe 8E01      		movw r16,r28
 1371 0700 0F5F      		subi r16,lo8(-(1))
 1372 0702 1F4F      		sbci r17,hi8(-(1))
 1373 0704 ADB7      		in r26,__SP_L__
 1374 0706 BEB7      		in r27,__SP_H__
 1375 0708 1296      		adiw r26,1+1
 1376 070a 1C93      		st X,r17
 1377 070c 0E93      		st -X,r16
 1378 070e 1197      		sbiw r26,1
 1379 0710 80E0      		ldi r24,lo8(.LC1)
 1380 0712 90E0      		ldi r25,hi8(.LC1)
 1381 0714 9383      		std Z+3,r25
 1382 0716 8283      		std Z+2,r24
 1383 0718 F582      		std Z+5,r15
 1384 071a E482      		std Z+4,r14
 1385 071c 0E94 0000 		call sprintf
 1386               	.LM221:
 1387 0720 EDB7      		in r30,__SP_L__
 1388 0722 FEB7      		in r31,__SP_H__
 1389 0724 3696      		adiw r30,6
 1390 0726 0FB6      		in __tmp_reg__,__SREG__
 1391 0728 F894      		cli
 1392 072a FEBF      		out __SP_H__,r31
 1393 072c 0FBE      		out __SREG__,__tmp_reg__
 1394 072e EDBF      		out __SP_L__,r30
 1395 0730 C801      		movw r24,r16
 1396 0732 0E94 0000 		call printString
 1397               	.LM222:
 1398 0736 0E94 0000 		call printEnter
 1399               	.LM223:
 1400 073a 0091 0000 		lds r16,_buffer
 1401               	.LVL46:
 1402               	.LM224:
 1403 073e 8091 0000 		lds r24,_step
 1404 0742 8830      		cpi r24,lo8(8)
 1405 0744 01F4      		brne .L123
 1406               	.LM225:
 1407 0746 0130      		cpi r16,lo8(1)
 1408 0748 01F4      		brne .L124
 1409               	.LM226:
 1410 074a 0093 0000 		sts _mode,r16
 1411               	.LBB78:
 1412               	.LBB79:
 1413               	.LM227:
 1414 074e 0E94 0000 		call printEnter
 1415               	.LM228:
 1416 0752 80E0      		ldi r24,lo8(str_mapper_message)
 1417 0754 90E0      		ldi r25,hi8(str_mapper_message)
 1418 0756 0E94 0000 		call printStringFromFlash
 1419               	.LM229:
GAS LISTING C:\Users\ADMINI~1\AppData\Local\Temp/ccZjgOiQ.s 			page 26


 1420 075a 0E94 0000 		call printEnter
 1421               	.LM230:
 1422 075e 80E0      		ldi r24,lo8(str_mapper_1)
 1423 0760 90E0      		ldi r25,hi8(str_mapper_1)
 1424 0762 0E94 0000 		call printStringFromFlash
 1425               	.LM231:
 1426 0766 0E94 0000 		call printEnter
 1427               	.LM232:
 1428 076a 80E0      		ldi r24,lo8(str_mapper_2)
 1429 076c 90E0      		ldi r25,hi8(str_mapper_2)
 1430 076e 0E94 0000 		call printStringFromFlash
 1431               	.LM233:
 1432 0772 0093 0000 		sts _isWorkingForEmpty,r16
 1433               	.LM234:
 1434 0776 8AE0      		ldi r24,lo8(10)
 1435 0778 8093 0000 		sts _wait,r24
 1436               	.LM235:
 1437 077c 1092 0000 		sts _step,__zero_reg__
 1438 0780 00C0      		rjmp .L160
 1439               	.L124:
 1440               	.LBE79:
 1441               	.LBE78:
 1442               	.LM236:
 1443 0782 0230      		cpi r16,lo8(2)
 1444 0784 01F4      		brne .L126
 1445               	.LM237:
 1446 0786 0093 0000 		sts _mode,r16
 1447               	.LM238:
 1448 078a 0E94 0000 		call printMacroMessage
 1449 078e 00C0      		rjmp .L160
 1450               	.L126:
 1451               	.LM239:
 1452 0790 0330      		cpi r16,lo8(3)
 1453 0792 01F0      		breq .+2
 1454 0794 00C0      		rjmp .L160
 1455               	.LM240:
 1456 0796 0093 0000 		sts _mode,r16
 1457               	.LM241:
 1458 079a 84E6      		ldi r24,lo8(100)
 1459 079c 00C0      		rjmp .L159
 1460               	.L123:
 1461               	.LM242:
 1462 079e 0630      		cpi r16,lo8(6)
 1463 07a0 01F4      		brne .L127
 1464               	.LM243:
 1465 07a2 8EE6      		ldi r24,lo8(110)
 1466 07a4 8093 0000 		sts _step,r24
 1467               	.L127:
 1468               	.LM244:
 1469 07a8 8091 0000 		lds r24,_mode
 1470 07ac 8130      		cpi r24,lo8(1)
 1471 07ae 01F4      		brne .L128
 1472               	.LM245:
 1473 07b0 0130      		cpi r16,lo8(1)
 1474 07b2 01F0      		breq .L157
 1475               	.L129:
 1476               	.LM246:
GAS LISTING C:\Users\ADMINI~1\AppData\Local\Temp/ccZjgOiQ.s 			page 27


 1477 07b4 0230      		cpi r16,lo8(2)
 1478 07b6 01F4      		brne .L130
 1479               	.L157:
 1480               	.LM247:
 1481 07b8 0093 0000 		sts _step,r16
 1482 07bc 00C0      		rjmp .L160
 1483               	.L130:
 1484               	.LM248:
 1485 07be 0330      		cpi r16,lo8(3)
 1486 07c0 01F4      		brne .L131
 1487               	.LM249:
 1488 07c2 84E0      		ldi r24,lo8(4)
 1489 07c4 8093 0000 		sts _step,r24
 1490               	.LM250:
 1491 07c8 0E94 0000 		call saveCurrentLayer
 1492 07cc 00C0      		rjmp .L160
 1493               	.L131:
 1494               	.LM251:
 1495 07ce 0430      		cpi r16,lo8(4)
 1496 07d0 01F4      		brne .L132
 1497               	.LM252:
 1498 07d2 85E0      		ldi r24,lo8(5)
 1499 07d4 00C0      		rjmp .L159
 1500               	.L132:
 1501               	.LM253:
 1502 07d6 0930      		cpi r16,lo8(9)
 1503 07d8 01F0      		breq .+2
 1504 07da 00C0      		rjmp .L160
 1505               	.LM254:
 1506 07dc 0E94 0000 		call resetCurrentLayer
 1507 07e0 00C0      		rjmp .L164
 1508               	.L128:
 1509               	.LM255:
 1510 07e2 8230      		cpi r24,lo8(2)
 1511 07e4 01F0      		breq .+2
 1512 07e6 00C0      		rjmp .L160
 1513               	.LM256:
 1514 07e8 0130      		cpi r16,lo8(1)
 1515 07ea 01F4      		brne .L133
 1516               	.LM257:
 1517 07ec 89E0      		ldi r24,lo8(9)
 1518 07ee 00C0      		rjmp .L161
 1519               	.L133:
 1520               	.LM258:
 1521 07f0 0230      		cpi r16,lo8(2)
 1522 07f2 01F4      		brne .L134
 1523               	.LM259:
 1524 07f4 8AE0      		ldi r24,lo8(10)
 1525               	.L159:
 1526 07f6 8093 0000 		sts _step,r24
 1527               	.LBB80:
 1528               	.LBB81:
 1529               	.LM260:
 1530 07fa 1092 0000 		sts _isKeyMapping,__zero_reg__
 1531               	.LM261:
 1532 07fe 1092 0000 		sts _wait,__zero_reg__
 1533 0802 00C0      		rjmp .L160
GAS LISTING C:\Users\ADMINI~1\AppData\Local\Temp/ccZjgOiQ.s 			page 28


 1534               	.L134:
 1535               	.LBE81:
 1536               	.LBE80:
 1537               	.LM262:
 1538 0804 0930      		cpi r16,lo8(9)
 1539 0806 01F0      		breq .+2
 1540 0808 00C0      		rjmp .L160
 1541               	.LM263:
 1542 080a 8CE0      		ldi r24,lo8(12)
 1543 080c 8093 0000 		sts _step,r24
 1544               	.LM264:
 1545 0810 0E94 0000 		call clearMacro
 1546 0814 00C0      		rjmp .L160
 1547               	.LVL47:
 1548               	.L122:
 1549               	.LM265:
 1550 0816 9230      		cpi r25,lo8(2)
 1551 0818 01F0      		breq .L135
 1552               	.LM266:
 1553 081a FAE0      		ldi r31,lo8(10)
 1554 081c EF16      		cp r14,r31
 1555 081e F104      		cpc r15,__zero_reg__
 1556 0820 00F0      		brlo .+2
 1557 0822 00C0      		rjmp .L154
 1558               	.LM267:
 1559 0824 8091 0000 		lds r24,_bufferIndex
 1560 0828 E82F      		mov r30,r24
 1561 082a F0E0      		ldi r31,lo8(0)
 1562 082c E050      		subi r30,lo8(-(_buffer))
 1563 082e F040      		sbci r31,hi8(-(_buffer))
 1564 0830 E082      		st Z,r14
 1565               	.LM268:
 1566 0832 8F5F      		subi r24,lo8(-(1))
 1567 0834 8093 0000 		sts _bufferIndex,r24
 1568               	.LM269:
 1569 0838 00D0      		rcall .
 1570 083a 00D0      		rcall .
 1571 083c 00D0      		rcall .
 1572 083e EDB7      		in r30,__SP_L__
 1573 0840 FEB7      		in r31,__SP_H__
 1574 0842 3196      		adiw r30,1
 1575 0844 8E01      		movw r16,r28
 1576 0846 0F5F      		subi r16,lo8(-(1))
 1577 0848 1F4F      		sbci r17,hi8(-(1))
 1578 084a ADB7      		in r26,__SP_L__
 1579 084c BEB7      		in r27,__SP_H__
 1580 084e 1296      		adiw r26,1+1
 1581 0850 1C93      		st X,r17
 1582 0852 0E93      		st -X,r16
 1583 0854 1197      		sbiw r26,1
 1584 0856 80E0      		ldi r24,lo8(.LC1)
 1585 0858 90E0      		ldi r25,hi8(.LC1)
 1586 085a 9383      		std Z+3,r25
 1587 085c 8283      		std Z+2,r24
 1588 085e F582      		std Z+5,r15
 1589 0860 E482      		std Z+4,r14
 1590 0862 0E94 0000 		call sprintf
GAS LISTING C:\Users\ADMINI~1\AppData\Local\Temp/ccZjgOiQ.s 			page 29


 1591               	.LM270:
 1592 0866 EDB7      		in r30,__SP_L__
 1593 0868 FEB7      		in r31,__SP_H__
 1594 086a 3696      		adiw r30,6
 1595 086c 0FB6      		in __tmp_reg__,__SREG__
 1596 086e F894      		cli
 1597 0870 FEBF      		out __SP_H__,r31
 1598 0872 0FBE      		out __SREG__,__tmp_reg__
 1599 0874 EDBF      		out __SP_L__,r30
 1600 0876 C801      		movw r24,r16
 1601 0878 0E94 0000 		call printString
 1602               	.L135:
 1603               	.LM271:
 1604 087c FAE0      		ldi r31,lo8(10)
 1605 087e EF16      		cp r14,r31
 1606 0880 F104      		cpc r15,__zero_reg__
 1607 0882 00F0      		brlo .L136
 1608 0884 8091 0000 		lds r24,_step
 1609 0888 8230      		cpi r24,lo8(2)
 1610 088a 01F0      		breq .+2
 1611 088c 00C0      		rjmp .L154
 1612               	.L136:
 1613               	.LM272:
 1614 088e 8091 0000 		lds r24,_step
 1615 0892 8230      		cpi r24,lo8(2)
 1616 0894 01F4      		brne .+2
 1617 0896 00C0      		rjmp .L139
 1618 0898 8330      		cpi r24,lo8(3)
 1619 089a 00F4      		brsh .L142
 1620 089c 8130      		cpi r24,lo8(1)
 1621 089e 01F0      		breq .+2
 1622 08a0 00C0      		rjmp .L137
 1623 08a2 00C0      		rjmp .L165
 1624               	.L142:
 1625 08a4 8330      		cpi r24,lo8(3)
 1626 08a6 01F4      		brne .+2
 1627 08a8 00C0      		rjmp .L140
 1628 08aa 8930      		cpi r24,lo8(9)
 1629 08ac 01F0      		breq .+2
 1630 08ae 00C0      		rjmp .L137
 1631               	.LM273:
 1632 08b0 8091 0000 		lds r24,_bufferIndex
 1633 08b4 8230      		cpi r24,lo8(2)
 1634 08b6 01F4      		brne .L143
 1635               	.LM274:
 1636 08b8 9091 0000 		lds r25,_buffer
 1637 08bc 8AE0      		ldi r24,lo8(10)
 1638 08be 989F      		mul r25,r24
 1639 08c0 9001      		movw r18,r0
 1640 08c2 1124      		clr r1
 1641               	.LVL48:
 1642               	.LM275:
 1643 08c4 8091 0000 		lds r24,_buffer+1
 1644 08c8 280F      		add r18,r24
 1645 08ca 311D      		adc r19,__zero_reg__
 1646               	.LM276:
 1647 08cc C901      		movw r24,r18
GAS LISTING C:\Users\ADMINI~1\AppData\Local\Temp/ccZjgOiQ.s 			page 30


 1648 08ce 0197      		sbiw r24,1
 1649 08d0 0C97      		sbiw r24,12
 1650 08d2 00F4      		brsh .L144
 1651               	.LM277:
 1652 08d4 822F      		mov r24,r18
 1653               	.LVL49:
 1654 08d6 8150      		subi r24,lo8(-(-1))
 1655 08d8 8093 0000 		sts _macroIndex,r24
 1656               	.LM278:
 1657 08dc 8BE0      		ldi r24,lo8(11)
 1658 08de 8093 0000 		sts _step,r24
 1659               	.LM279:
 1660 08e2 0E94 0000 		call resetMacroInput
 1661 08e6 00C0      		rjmp .L152
 1662               	.LVL50:
 1663               	.L144:
 1664               	.LM280:
 1665 08e8 0E94 0000 		call printEnter
 1666               	.LVL51:
 1667               	.LM281:
 1668 08ec 80E0      		ldi r24,lo8(str_invalid_macro_number)
 1669 08ee 90E0      		ldi r25,hi8(str_invalid_macro_number)
 1670 08f0 00C0      		rjmp .L162
 1671               	.L143:
 1672               	.LM282:
 1673 08f2 88EE      		ldi r24,lo8(1000)
 1674 08f4 93E0      		ldi r25,hi8(1000)
 1675               	.LVL52:
 1676               	.LBB82:
 1677               	.LBB83:
 1678               	.LBB84:
 1679               	.LBB85:
 1680               	.LM283:
 1681 08f6 2CE2      		ldi r18,lo8(300)
 1682 08f8 31E0      		ldi r19,hi8(300)
 1683               	.L146:
 1684 08fa F901      		movw r30,r18
 1685               	.LVL53:
 1686               	/* #APP */
 1687               	 ;  105 "c:/winavr-20100110/lib/gcc/../../avr/include/util/delay_basic.h" 1
 1688 08fc 3197      		1: sbiw r30,1
 1689 08fe 01F4      		brne 1b
 1690               	 ;  0 "" 2
 1691               	/* #NOAPP */
 1692               	.LBE85:
 1693               	.LBE84:
 1694               	.LM284:
 1695 0900 0197      		sbiw r24,1
 1696               	.LM285:
 1697 0902 01F4      		brne .L146
 1698 0904 00C0      		rjmp .L154
 1699               	.LVL54:
 1700               	.L165:
 1701               	.LBE83:
 1702               	.LBE82:
 1703               	.LM286:
 1704 0906 9091 0000 		lds r25,_buffer
GAS LISTING C:\Users\ADMINI~1\AppData\Local\Temp/ccZjgOiQ.s 			page 31


 1705               	.LM287:
 1706 090a 8091 0000 		lds r24,_currentLayer
 1707 090e 8330      		cpi r24,lo8(3)
 1708 0910 00F4      		brsh .L147
 1709               	.LM288:
 1710 0912 192F      		mov r17,r25
 1711               	.LVL55:
 1712 0914 1150      		subi r17,lo8(-(-1))
 1713               	.LM289:
 1714 0916 8117      		cp r24,r17
 1715 0918 01F0      		breq .L147
 1716 091a 1330      		cpi r17,lo8(3)
 1717 091c 00F4      		brsh .L147
 1718               	.LM290:
 1719 091e 8091 0000 		lds r24,_editCount
 1720 0922 9091 0000 		lds r25,(_editCount)+1
 1721 0926 1816      		cp __zero_reg__,r24
 1722 0928 1906      		cpc __zero_reg__,r25
 1723 092a 04F4      		brge .L148
 1724               	.LM291:
 1725 092c 0E94 0000 		call printEnter
 1726               	.LM292:
 1727 0930 80E0      		ldi r24,lo8(str_save_layer)
 1728 0932 90E0      		ldi r25,hi8(str_save_layer)
 1729 0934 0E94 0000 		call printStringFromFlash
 1730               	.LM293:
 1731 0938 0E94 0000 		call printEnter
 1732               	.LM294:
 1733 093c 0E94 0000 		call saveCurrentLayer
 1734               	.LM295:
 1735 0940 1093 0000 		sts _currentLayerAfter,r17
 1736 0944 00C0      		rjmp .L160
 1737               	.L148:
 1738               	.LM296:
 1739 0946 0E94 0000 		call printEnter
 1740               	.LM297:
 1741 094a 80E0      		ldi r24,lo8(str_load_layer)
 1742 094c 90E0      		ldi r25,hi8(str_load_layer)
 1743 094e 0E94 0000 		call printStringFromFlash
 1744               	.LM298:
 1745 0952 0E94 0000 		call printEnter
 1746               	.LM299:
 1747 0956 87E0      		ldi r24,lo8(7)
 1748 0958 8093 0000 		sts _step,r24
 1749               	.LM300:
 1750 095c 1093 0000 		sts _currentLayer,r17
 1751               	.LM301:
 1752 0960 0E94 0000 		call loadCurrentLayer
 1753 0964 00C0      		rjmp .L160
 1754               	.L147:
 1755               	.LM302:
 1756 0966 0E94 0000 		call printEnter
 1757               	.LVL56:
 1758               	.L164:
 1759               	.LM303:
 1760 096a 87E0      		ldi r24,lo8(7)
 1761 096c 00C0      		rjmp .L161
GAS LISTING C:\Users\ADMINI~1\AppData\Local\Temp/ccZjgOiQ.s 			page 32


 1762               	.LVL57:
 1763               	.L139:
 1764               	.LM304:
 1765 096e B092 0000 		sts _col,r11
 1766               	.LM305:
 1767 0972 A092 0000 		sts _row,r10
 1768               	.LM306:
 1769 0976 80E0      		ldi r24,lo8(str_col_row)
 1770 0978 90E0      		ldi r25,hi8(str_col_row)
 1771 097a 0E94 0000 		call printStringFromFlash
 1772               	.LM307:
 1773 097e 8091 0000 		lds r24,_col
 1774 0982 8F5F      		subi r24,lo8(-(1))
 1775 0984 0E94 0000 		call toString
 1776 0988 0E94 0000 		call printString
 1777               	.LM308:
 1778 098c 80E0      		ldi r24,lo8(.LC2)
 1779 098e 90E0      		ldi r25,hi8(.LC2)
 1780 0990 0E94 0000 		call printString
 1781               	.LM309:
 1782 0994 8091 0000 		lds r24,_row
 1783 0998 8F5F      		subi r24,lo8(-(1))
 1784 099a 0E94 0000 		call toString
 1785 099e 0E94 0000 		call printString
 1786               	.LM310:
 1787 09a2 80E0      		ldi r24,lo8(.LC3)
 1788 09a4 90E0      		ldi r25,hi8(.LC3)
 1789 09a6 0E94 0000 		call printString
 1790               	.LM311:
 1791 09aa 8091 0000 		lds r24,_currentLayer
 1792 09ae 8F5F      		subi r24,lo8(-(1))
 1793 09b0 0E94 0000 		call toString
 1794 09b4 0E94 0000 		call printString
 1795               	.LM312:
 1796 09b8 80E0      		ldi r24,lo8(.LC4)
 1797 09ba 90E0      		ldi r25,hi8(.LC4)
 1798 09bc 0E94 0000 		call printString
 1799               	.LBB86:
 1800               	.LBB87:
 1801               	.LBB88:
 1802               	.LM313:
 1803 09c0 E091 0000 		lds r30,_currentLayer
 1804 09c4 81E1      		ldi r24,lo8(17)
 1805 09c6 E89F      		mul r30,r24
 1806 09c8 F001      		movw r30,r0
 1807 09ca 1124      		clr r1
 1808 09cc 8091 0000 		lds r24,_row
 1809 09d0 E80F      		add r30,r24
 1810 09d2 F11D      		adc r31,__zero_reg__
 1811 09d4 13E0      		ldi r17,3
 1812 09d6 EE0F      	1:	lsl r30
 1813 09d8 FF1F      		rol r31
 1814 09da 1A95      		dec r17
 1815 09dc 01F4      		brne 1b
 1816 09de 8091 0000 		lds r24,_col
 1817 09e2 E80F      		add r30,r24
 1818 09e4 F11D      		adc r31,__zero_reg__
GAS LISTING C:\Users\ADMINI~1\AppData\Local\Temp/ccZjgOiQ.s 			page 33


 1819 09e6 E050      		subi r30,lo8(-(keymap_code))
 1820 09e8 F040      		sbci r31,hi8(-(keymap_code))
 1821               	/* #APP */
 1822               	 ;  226 "keymapper.c" 1
 1823 09ea E491      		lpm r30, Z
 1824               		
 1825               	 ;  0 "" 2
 1826               	.LVL58:
 1827               	/* #NOAPP */
 1828               	.LBE88:
 1829               	.LBE87:
 1830               	.LBE86:
 1831               	.LM314:
 1832 09ec 8E2F      		mov r24,r30
 1833 09ee 0E94 0000 		call toString
 1834               	.LVL59:
 1835 09f2 0E94 0000 		call printString
 1836               	.LM315:
 1837 09f6 80E0      		ldi r24,lo8(.LC5)
 1838 09f8 90E0      		ldi r25,hi8(.LC5)
 1839 09fa 0E94 0000 		call printString
 1840               	.LM316:
 1841 09fe 8091 0000 		lds r24,_col
 1842 0a02 E091 0000 		lds r30,_row
 1843 0a06 F0E0      		ldi r31,lo8(0)
 1844 0a08 B3E0      		ldi r27,3
 1845 0a0a EE0F      	1:	lsl r30
 1846 0a0c FF1F      		rol r31
 1847 0a0e BA95      		dec r27
 1848 0a10 01F4      		brne 1b
 1849 0a12 E80F      		add r30,r24
 1850 0a14 F11D      		adc r31,__zero_reg__
 1851 0a16 E050      		subi r30,lo8(-(_newKeyMap))
 1852 0a18 F040      		sbci r31,hi8(-(_newKeyMap))
 1853 0a1a 8081      		ld r24,Z
 1854 0a1c 0E94 0000 		call toString
 1855 0a20 0E94 0000 		call printString
 1856               	.LM317:
 1857 0a24 80E0      		ldi r24,lo8(.LC6)
 1858 0a26 90E0      		ldi r25,hi8(.LC6)
 1859 0a28 0E94 0000 		call printString
 1860               	.LM318:
 1861 0a2c 0E94 0000 		call printEnter
 1862               	.LM319:
 1863 0a30 83E0      		ldi r24,lo8(3)
 1864               	.LVL60:
 1865               	.L161:
 1866 0a32 8093 0000 		sts _step,r24
 1867               	.L160:
 1868               	.LM320:
 1869 0a36 1092 0000 		sts _bufferIndex,__zero_reg__
 1870 0a3a 00C0      		rjmp .L137
 1871               	.LVL61:
 1872               	.L140:
 1873               	.LM321:
 1874 0a3c 8091 0000 		lds r24,_bufferIndex
 1875 0a40 8330      		cpi r24,lo8(3)
GAS LISTING C:\Users\ADMINI~1\AppData\Local\Temp/ccZjgOiQ.s 			page 34


 1876 0a42 01F0      		breq .+2
 1877 0a44 00C0      		rjmp .L150
 1878               	.LM322:
 1879 0a46 9091 0000 		lds r25,_buffer
 1880 0a4a 84E6      		ldi r24,lo8(100)
 1881 0a4c 989F      		mul r25,r24
 1882 0a4e A001      		movw r20,r0
 1883 0a50 1124      		clr r1
 1884               	.LVL62:
 1885               	.LM323:
 1886 0a52 8091 0000 		lds r24,_buffer+1
 1887 0a56 2AE0      		ldi r18,lo8(10)
 1888 0a58 829F      		mul r24,r18
 1889 0a5a C001      		movw r24,r0
 1890 0a5c 1124      		clr r1
 1891 0a5e 480F      		add r20,r24
 1892 0a60 591F      		adc r21,r25
 1893               	.LM324:
 1894 0a62 8091 0000 		lds r24,_buffer+2
 1895 0a66 480F      		add r20,r24
 1896 0a68 511D      		adc r21,__zero_reg__
 1897               	.LM325:
 1898 0a6a 4F3F      		cpi r20,255
 1899 0a6c 5105      		cpc r21,__zero_reg__
 1900 0a6e 04F4      		brge .L151
 1901               	.LM326:
 1902 0a70 8091 0000 		lds r24,_col
 1903 0a74 E091 0000 		lds r30,_row
 1904 0a78 F0E0      		ldi r31,lo8(0)
 1905 0a7a A3E0      		ldi r26,3
 1906 0a7c EE0F      	1:	lsl r30
 1907 0a7e FF1F      		rol r31
 1908 0a80 AA95      		dec r26
 1909 0a82 01F4      		brne 1b
 1910 0a84 E80F      		add r30,r24
 1911 0a86 F11D      		adc r31,__zero_reg__
 1912 0a88 E050      		subi r30,lo8(-(_newKeyMap))
 1913 0a8a F040      		sbci r31,hi8(-(_newKeyMap))
 1914 0a8c 4083      		st Z,r20
 1915               	.LM327:
 1916 0a8e 87E0      		ldi r24,lo8(7)
 1917 0a90 8093 0000 		sts _step,r24
 1918               	.LM328:
 1919 0a94 8091 0000 		lds r24,_editCount
 1920 0a98 9091 0000 		lds r25,(_editCount)+1
 1921 0a9c 0196      		adiw r24,1
 1922 0a9e 9093 0000 		sts (_editCount)+1,r25
 1923 0aa2 8093 0000 		sts _editCount,r24
 1924 0aa6 00C0      		rjmp .L152
 1925               	.L151:
 1926               	.LM329:
 1927 0aa8 0E94 0000 		call printEnter
 1928               	.LVL63:
 1929               	.LM330:
 1930 0aac 80E0      		ldi r24,lo8(str_invalid_keycode)
 1931 0aae 90E0      		ldi r25,hi8(str_invalid_keycode)
 1932               	.L162:
GAS LISTING C:\Users\ADMINI~1\AppData\Local\Temp/ccZjgOiQ.s 			page 35


 1933 0ab0 0E94 0000 		call printStringFromFlash
 1934               	.LVL64:
 1935               	.L152:
 1936               	.LM331:
 1937 0ab4 83E0      		ldi r24,lo8(3)
 1938 0ab6 E0E0      		ldi r30,lo8(_buffer)
 1939 0ab8 F0E0      		ldi r31,hi8(_buffer)
 1940 0aba DF01      		movw r26,r30
 1941 0abc 1D92      		st X+,__zero_reg__
 1942 0abe 8A95      	        dec r24
 1943 0ac0 01F4      		brne .-6
 1944               	.LM332:
 1945 0ac2 1092 0000 		sts _bufferIndex,__zero_reg__
 1946               	.L163:
 1947               	.LM333:
 1948 0ac6 0E94 0000 		call printEnter
 1949               	.LVL65:
 1950 0aca 00C0      		rjmp .L137
 1951               	.L150:
 1952 0acc 88EE      		ldi r24,lo8(1000)
 1953 0ace 93E0      		ldi r25,hi8(1000)
 1954               	.LVL66:
 1955               	.LBB89:
 1956               	.LBB90:
 1957               	.LBB91:
 1958               	.LBB92:
 1959               	.LM334:
 1960 0ad0 2CE2      		ldi r18,lo8(300)
 1961 0ad2 31E0      		ldi r19,hi8(300)
 1962               	.L153:
 1963 0ad4 F901      		movw r30,r18
 1964               	.LVL67:
 1965               	/* #APP */
 1966               	 ;  105 "c:/winavr-20100110/lib/gcc/../../avr/include/util/delay_basic.h" 1
 1967 0ad6 3197      		1: sbiw r30,1
 1968 0ad8 01F4      		brne 1b
 1969               	 ;  0 "" 2
 1970               	/* #NOAPP */
 1971               	.LBE92:
 1972               	.LBE91:
 1973               	.LM335:
 1974 0ada 0197      		sbiw r24,1
 1975               	.LM336:
 1976 0adc 01F4      		brne .L153
 1977 0ade 00C0      		rjmp .L154
 1978               	.LVL68:
 1979               	.L137:
 1980               	.LBE90:
 1981               	.LBE89:
 1982               	.LM337:
 1983 0ae0 0E94 0000 		call printPrompt
 1984               	.LVL69:
 1985               	.L154:
 1986               	/* epilogue start */
 1987               	.LM338:
 1988 0ae4 0F90      		pop __tmp_reg__
 1989 0ae6 0F90      		pop __tmp_reg__
GAS LISTING C:\Users\ADMINI~1\AppData\Local\Temp/ccZjgOiQ.s 			page 36


 1990 0ae8 0F90      		pop __tmp_reg__
 1991 0aea CF91      		pop r28
 1992 0aec DF91      		pop r29
 1993 0aee 1F91      		pop r17
 1994               	.LVL70:
 1995 0af0 0F91      		pop r16
 1996               	.LVL71:
 1997 0af2 FF90      		pop r15
 1998 0af4 EF90      		pop r14
 1999               	.LVL72:
 2000 0af6 DF90      		pop r13
 2001               	.LVL73:
 2002 0af8 CF90      		pop r12
 2003               	.LVL74:
 2004 0afa BF90      		pop r11
 2005               	.LVL75:
 2006 0afc AF90      		pop r10
 2007               	.LVL76:
 2008 0afe 0895      		ret
 2009               	.LFE47:
 2010               		.size	putKeyCode, .-putKeyCode
 2011               	.global	saveCurrentLayerAfter
 2012               		.type	saveCurrentLayerAfter, @function
 2013               	saveCurrentLayerAfter:
 2014               	.LFB38:
 2015               	.LM339:
 2016 0b00 BF92      		push r11
 2017 0b02 CF92      		push r12
 2018 0b04 DF92      		push r13
 2019 0b06 EF92      		push r14
 2020 0b08 FF92      		push r15
 2021 0b0a 0F93      		push r16
 2022 0b0c 1F93      		push r17
 2023 0b0e CF93      		push r28
 2024 0b10 DF93      		push r29
 2025               	/* prologue: function */
 2026               	/* frame size = 0 */
 2027               	.LM340:
 2028 0b12 EE24      		clr r14
 2029 0b14 FF24      		clr r15
 2030 0b16 CC24      		clr r12
 2031 0b18 DD24      		clr r13
 2032               	.LM341:
 2033 0b1a 98E8      		ldi r25,lo8(-120)
 2034 0b1c B92E      		mov r11,r25
 2035 0b1e 00C0      		rjmp .L167
 2036               	.L168:
 2037 0b20 8091 0000 		lds r24,_currentLayer
 2038 0b24 8B9D      		mul r24,r11
 2039 0b26 C001      		movw r24,r0
 2040 0b28 1124      		clr r1
 2041 0b2a 0D96      		adiw r24,13
 2042 0b2c 8C0D      		add r24,r12
 2043 0b2e 9D1D      		adc r25,r13
 2044 0b30 8C0F      		add r24,r28
 2045 0b32 9D1F      		adc r25,r29
 2046 0b34 F801      		movw r30,r16
GAS LISTING C:\Users\ADMINI~1\AppData\Local\Temp/ccZjgOiQ.s 			page 37


 2047 0b36 6191      		ld r22,Z+
 2048 0b38 8F01      		movw r16,r30
 2049 0b3a 0E94 0000 		call __eewr_byte_m32
 2050 0b3e 2196      		adiw r28,1
 2051               	.LM342:
 2052 0b40 C830      		cpi r28,8
 2053 0b42 D105      		cpc r29,__zero_reg__
 2054 0b44 01F4      		brne .L168
 2055 0b46 0894      		sec
 2056 0b48 E11C      		adc r14,__zero_reg__
 2057 0b4a F11C      		adc r15,__zero_reg__
 2058 0b4c 88E0      		ldi r24,lo8(8)
 2059 0b4e 90E0      		ldi r25,hi8(8)
 2060 0b50 C80E      		add r12,r24
 2061 0b52 D91E      		adc r13,r25
 2062               	.LM343:
 2063 0b54 91E1      		ldi r25,lo8(17)
 2064 0b56 E916      		cp r14,r25
 2065 0b58 F104      		cpc r15,__zero_reg__
 2066 0b5a 01F0      		breq .L169
 2067               	.L167:
 2068 0b5c 8701      		movw r16,r14
 2069 0b5e 83E0      		ldi r24,3
 2070 0b60 000F      	1:	lsl r16
 2071 0b62 111F      		rol r17
 2072 0b64 8A95      		dec r24
 2073 0b66 01F4      		brne 1b
 2074 0b68 0050      		subi r16,lo8(-(_newKeyMap))
 2075 0b6a 1040      		sbci r17,hi8(-(_newKeyMap))
 2076 0b6c C0E0      		ldi r28,lo8(0)
 2077 0b6e D0E0      		ldi r29,hi8(0)
 2078 0b70 00C0      		rjmp .L168
 2079               	.L169:
 2080               	.LM344:
 2081 0b72 1092 0000 		sts (_editCount)+1,__zero_reg__
 2082 0b76 1092 0000 		sts _editCount,__zero_reg__
 2083               	.LM345:
 2084 0b7a 8091 0000 		lds r24,_stepAfterSave
 2085 0b7e 8430      		cpi r24,lo8(4)
 2086 0b80 01F4      		brne .L170
 2087               	.LM346:
 2088 0b82 8093 0000 		sts _step,r24
 2089               	.LBB93:
 2090               	.LBB94:
 2091               	.LM347:
 2092 0b86 1092 0000 		sts _isKeyMapping,__zero_reg__
 2093               	.LM348:
 2094 0b8a 1092 0000 		sts _wait,__zero_reg__
 2095 0b8e 00C0      		rjmp .L171
 2096               	.L170:
 2097               	.LBE94:
 2098               	.LBE93:
 2099               	.LM349:
 2100 0b90 8130      		cpi r24,lo8(1)
 2101 0b92 01F4      		brne .L171
 2102               	.LM350:
 2103 0b94 0E94 0000 		call printEnter
GAS LISTING C:\Users\ADMINI~1\AppData\Local\Temp/ccZjgOiQ.s 			page 38


 2104               	.LM351:
 2105 0b98 80E0      		ldi r24,lo8(str_load_layer)
 2106 0b9a 90E0      		ldi r25,hi8(str_load_layer)
 2107 0b9c 0E94 0000 		call printStringFromFlash
 2108               	.LM352:
 2109 0ba0 0E94 0000 		call printEnter
 2110               	.LM353:
 2111 0ba4 87E0      		ldi r24,lo8(7)
 2112 0ba6 8093 0000 		sts _step,r24
 2113               	.LM354:
 2114 0baa 8091 0000 		lds r24,_currentLayerAfter
 2115 0bae 8093 0000 		sts _currentLayer,r24
 2116               	.LM355:
 2117 0bb2 0E94 0000 		call loadCurrentLayer
 2118               	.L171:
 2119               	.LM356:
 2120 0bb6 0E94 0000 		call printPrompt
 2121               	/* epilogue start */
 2122               	.LM357:
 2123 0bba DF91      		pop r29
 2124 0bbc CF91      		pop r28
 2125 0bbe 1F91      		pop r17
 2126 0bc0 0F91      		pop r16
 2127 0bc2 FF90      		pop r15
 2128 0bc4 EF90      		pop r14
 2129 0bc6 DF90      		pop r13
 2130 0bc8 CF90      		pop r12
 2131 0bca BF90      		pop r11
 2132 0bcc 0895      		ret
 2133               	.LFE38:
 2134               		.size	saveCurrentLayerAfter, .-saveCurrentLayerAfter
 2135               	.global	prepareKeyMapper
 2136               		.type	prepareKeyMapper, @function
 2137               	prepareKeyMapper:
 2138               	.LFB37:
 2139               	.LM358:
 2140               	/* prologue: function */
 2141               	/* frame size = 0 */
 2142               	.LM359:
 2143 0bce 83E0      		ldi r24,lo8(3)
 2144 0bd0 E0E0      		ldi r30,lo8(_buffer)
 2145 0bd2 F0E0      		ldi r31,hi8(_buffer)
 2146 0bd4 DF01      		movw r26,r30
 2147 0bd6 1D92      		st X+,__zero_reg__
 2148 0bd8 8A95      	        dec r24
 2149 0bda 01F4      		brne .-6
 2150               	.LM360:
 2151 0bdc 1092 0000 		sts _bufferIndex,__zero_reg__
 2152               	.LM361:
 2153 0be0 1092 0000 		sts _currentLayer,__zero_reg__
 2154               	.LM362:
 2155 0be4 1092 0000 		sts _mode,__zero_reg__
 2156               	.LM363:
 2157 0be8 0E94 0000 		call loadCurrentLayer
 2158               	.LM364:
 2159 0bec 0E94 0000 		call printSelectMode
 2160               	/* epilogue start */
GAS LISTING C:\Users\ADMINI~1\AppData\Local\Temp/ccZjgOiQ.s 			page 39


 2161               	.LM365:
 2162 0bf0 0895      		ret
 2163               	.LFE37:
 2164               		.size	prepareKeyMapper, .-prepareKeyMapper
 2165               	.global	getCurrentKeycode
 2166               		.type	getCurrentKeycode, @function
 2167               	getCurrentKeycode:
 2168               	.LFB25:
 2169               	.LM366:
 2170               	.LVL77:
 2171 0bf2 FF92      		push r15
 2172 0bf4 0F93      		push r16
 2173 0bf6 1F93      		push r17
 2174 0bf8 CF93      		push r28
 2175 0bfa DF93      		push r29
 2176               	/* prologue: function */
 2177               	/* frame size = 0 */
 2178 0bfc F82E      		mov r15,r24
 2179               	.LM367:
 2180 0bfe 8091 0000 		lds r24,_isKeyMapping
 2181               	.LVL78:
 2182 0c02 C62F      		mov r28,r22
 2183 0c04 D0E0      		ldi r29,lo8(0)
 2184               	.LVL79:
 2185 0c06 042F      		mov r16,r20
 2186 0c08 10E0      		ldi r17,lo8(0)
 2187               	.LVL80:
 2188 0c0a 8823      		tst r24
 2189 0c0c 01F4      		brne .L180
 2190               	.LVL81:
 2191               	.L177:
 2192               	.LBB95:
 2193               	.LM368:
 2194 0c0e 88E8      		ldi r24,lo8(-120)
 2195 0c10 F89E      		mul r15,r24
 2196 0c12 C001      		movw r24,r0
 2197 0c14 1124      		clr r1
 2198 0c16 0D96      		adiw r24,13
 2199 0c18 9E01      		movw r18,r28
 2200 0c1a 43E0      		ldi r20,3
 2201 0c1c 220F      	1:	lsl r18
 2202 0c1e 331F      		rol r19
 2203 0c20 4A95      		dec r20
 2204 0c22 01F4      		brne 1b
 2205 0c24 820F      		add r24,r18
 2206 0c26 931F      		adc r25,r19
 2207 0c28 800F      		add r24,r16
 2208 0c2a 911F      		adc r25,r17
 2209 0c2c 0E94 0000 		call __eerd_byte_m32
 2210 0c30 982F      		mov r25,r24
 2211               	.LVL82:
 2212               	.LBE95:
 2213               	.LM369:
 2214 0c32 8150      		subi r24,lo8(-(-1))
 2215 0c34 8E3F      		cpi r24,lo8(-2)
 2216 0c36 00F0      		brlo .L178
 2217               	.LVL83:
GAS LISTING C:\Users\ADMINI~1\AppData\Local\Temp/ccZjgOiQ.s 			page 40


 2218               	.L180:
 2219               	.LBB96:
 2220               	.LBB97:
 2221               	.LBB98:
 2222               	.LM370:
 2223 0c38 81E1      		ldi r24,lo8(17)
 2224 0c3a F89E      		mul r15,r24
 2225 0c3c C001      		movw r24,r0
 2226 0c3e 1124      		clr r1
 2227 0c40 C80F      		add r28,r24
 2228 0c42 D91F      		adc r29,r25
 2229               	.LVL84:
 2230 0c44 23E0      		ldi r18,3
 2231 0c46 CC0F      	1:	lsl r28
 2232 0c48 DD1F      		rol r29
 2233 0c4a 2A95      		dec r18
 2234 0c4c 01F4      		brne 1b
 2235               	.LVL85:
 2236 0c4e C00F      		add r28,r16
 2237 0c50 D11F      		adc r29,r17
 2238               	.LVL86:
 2239 0c52 C050      		subi r28,lo8(-(keymap_code))
 2240 0c54 D040      		sbci r29,hi8(-(keymap_code))
 2241               	.LVL87:
 2242 0c56 FE01      		movw r30,r28
 2243               	/* #APP */
 2244               	 ;  226 "keymapper.c" 1
 2245 0c58 9491      		lpm r25, Z
 2246               		
 2247               	 ;  0 "" 2
 2248               	/* #NOAPP */
 2249               	.L178:
 2250               	.LBE98:
 2251               	.LBE97:
 2252               	.LBE96:
 2253               	.LM371:
 2254 0c5a 892F      		mov r24,r25
 2255               	/* epilogue start */
 2256 0c5c DF91      		pop r29
 2257               	.LVL88:
 2258 0c5e CF91      		pop r28
 2259               	.LVL89:
 2260 0c60 1F91      		pop r17
 2261               	.LVL90:
 2262 0c62 0F91      		pop r16
 2263               	.LVL91:
 2264 0c64 FF90      		pop r15
 2265               	.LVL92:
 2266 0c66 0895      		ret
 2267               	.LFE25:
 2268               		.size	getCurrentKeycode, .-getCurrentKeycode
 2269               	.global	applyMacro
 2270               		.type	applyMacro, @function
 2271               	applyMacro:
 2272               	.LFB40:
 2273               	.LM372:
 2274               	.LVL93:
GAS LISTING C:\Users\ADMINI~1\AppData\Local\Temp/ccZjgOiQ.s 			page 41


 2275 0c68 1F93      		push r17
 2276               	/* prologue: function */
 2277               	/* frame size = 0 */
 2278 0c6a 982F      		mov r25,r24
 2279               	.LM373:
 2280 0c6c 8091 0000 		lds r24,_isKeyMapping
 2281               	.LVL94:
 2282 0c70 80FD      		sbrc r24,0
 2283 0c72 00C0      		rjmp .L182
 2284               	.LBB99:
 2285               	.LBB100:
 2286               	.LM374:
 2287 0c74 192F      		mov r17,r25
 2288 0c76 195C      		subi r17,lo8(-(55))
 2289 0c78 1C30      		cpi r17,lo8(12)
 2290 0c7a 00F4      		brsh .L182
 2291               	.LBE100:
 2292               	.LBE99:
 2293               	.LM375:
 2294 0c7c 0E94 0000 		call isEmptyM
 2295               	.LVL95:
 2296 0c80 8823      		tst r24
 2297 0c82 01F0      		breq .L182
 2298               	.LM376:
 2299 0c84 0E94 0000 		call clearMacroPressedBuffer
 2300               	.LM377:
 2301 0c88 812F      		mov r24,r17
 2302 0c8a 90E0      		ldi r25,lo8(0)
 2303 0c8c 0E94 0000 		call readMacro
 2304 0c90 81E0      		ldi r24,lo8(1)
 2305 0c92 00C0      		rjmp .L183
 2306               	.LVL96:
 2307               	.L182:
 2308               	.LM378:
 2309 0c94 80E0      		ldi r24,lo8(0)
 2310               	.L183:
 2311               	/* epilogue start */
 2312               	.LM379:
 2313 0c96 1F91      		pop r17
 2314 0c98 0895      		ret
 2315               	.LFE40:
 2316               		.size	applyMacro, .-applyMacro
 2317               	.global	startKeyMapping
 2318               		.type	startKeyMapping, @function
 2319               	startKeyMapping:
 2320               	.LFB17:
 2321               	.LM380:
 2322               	/* prologue: function */
 2323               	/* frame size = 0 */
 2324               	.LBB101:
 2325               	.LBB102:
 2326               	.LM381:
 2327 0c9a 8091 0000 		lds r24,_isKeyMapping
 2328               	.LBE102:
 2329               	.LBE101:
 2330               	.LM382:
 2331 0c9e 80FF      		sbrs r24,0
GAS LISTING C:\Users\ADMINI~1\AppData\Local\Temp/ccZjgOiQ.s 			page 42


 2332 0ca0 00C0      		rjmp .L187
 2333 0ca2 81FD      		sbrc r24,1
 2334 0ca4 00C0      		rjmp .L187
 2335 0ca6 0E94 0000 		call isAllKeyRelease
 2336 0caa 8823      		tst r24
 2337 0cac 01F0      		breq .L187
 2338               	.LBB103:
 2339               	.LBB104:
 2340               	.LM383:
 2341 0cae 8091 0000 		lds r24,_isKeyMapping
 2342 0cb2 8260      		ori r24,lo8(2)
 2343 0cb4 8093 0000 		sts _isKeyMapping,r24
 2344               	.LM384:
 2345 0cb8 0E94 0000 		call prepareKeyMapper
 2346               	.L187:
 2347 0cbc 0895      		ret
 2348               	.LBE104:
 2349               	.LBE103:
 2350               	.LFE17:
 2351               		.size	startKeyMapping, .-startKeyMapping
 2352               	.global	prepareKeyMapping
 2353               		.type	prepareKeyMapping, @function
 2354               	prepareKeyMapping:
 2355               	.LFB12:
 2356               	.LM385:
 2357               	/* prologue: function */
 2358               	/* frame size = 0 */
 2359               	.LBB105:
 2360               	.LBB106:
 2361               	.LM386:
 2362 0cbe 8091 0000 		lds r24,_isKeyMapping
 2363 0cc2 8160      		ori r24,lo8(1)
 2364 0cc4 8093 0000 		sts _isKeyMapping,r24
 2365               	.LBE106:
 2366               	.LBE105:
 2367               	.LM387:
 2368 0cc8 8091 0000 		lds r24,INTERFACE
 2369 0ccc 8150      		subi r24,lo8(-(-1))
 2370 0cce 8230      		cpi r24,lo8(2)
 2371 0cd0 00F4      		brsh .L189
 2372               	.LM388:
 2373 0cd2 0E94 0000 		call prepareKeyMappingUsb
 2374 0cd6 00C0      		rjmp .L190
 2375               	.L189:
 2376               	.LM389:
 2377 0cd8 0E94 0000 		call prepareKeyMappingPs2
 2378               	.L190:
 2379               	.LM390:
 2380 0cdc 0E94 0000 		call printPrepareString
 2381               	/* epilogue start */
 2382               	.LM391:
 2383 0ce0 0895      		ret
 2384               	.LFE12:
 2385               		.size	prepareKeyMapping, .-prepareKeyMapping
 2386               	.global	countKeyMappingEnabled
 2387               		.type	countKeyMappingEnabled, @function
 2388               	countKeyMappingEnabled:
GAS LISTING C:\Users\ADMINI~1\AppData\Local\Temp/ccZjgOiQ.s 			page 43


 2389               	.LFB19:
 2390               	.LM392:
 2391               	/* prologue: function */
 2392               	/* frame size = 0 */
 2393               	.LM393:
 2394 0ce2 8091 0000 		lds r24,_isKeyMapping
 2395 0ce6 8823      		tst r24
 2396 0ce8 01F4      		brne .L194
 2397 0cea 8091 0000 		lds r24,enabledKeyMappingCount
 2398 0cee 8823      		tst r24
 2399 0cf0 01F0      		breq .L194
 2400 0cf2 8091 0000 		lds r24,keyMappingCount
 2401 0cf6 9091 0000 		lds r25,(keyMappingCount)+1
 2402 0cfa 0196      		adiw r24,1
 2403 0cfc 9093 0000 		sts (keyMappingCount)+1,r25
 2404 0d00 8093 0000 		sts keyMappingCount,r24
 2405 0d04 8958      		subi r24,lo8(5001)
 2406 0d06 9341      		sbci r25,hi8(5001)
 2407 0d08 04F0      		brlt .L194
 2408               	.LM394:
 2409 0d0a 1092 0000 		sts enabledKeyMappingCount,__zero_reg__
 2410               	.LM395:
 2411 0d0e 0E94 0000 		call prepareKeyMapping
 2412               	.L194:
 2413 0d12 0895      		ret
 2414               	.LFE19:
 2415               		.size	countKeyMappingEnabled, .-countKeyMappingEnabled
 2416               	.global	enterFrameForMapper
 2417               		.type	enterFrameForMapper, @function
 2418               	enterFrameForMapper:
 2419               	.LFB20:
 2420               	.LM396:
 2421               	/* prologue: function */
 2422               	/* frame size = 0 */
 2423               	.LM397:
 2424 0d14 0E94 0000 		call countKeyMappingEnabled
 2425               	.LM398:
 2426 0d18 8091 0000 		lds r24,_isKeyMapping
 2427 0d1c 81FF      		sbrs r24,1
 2428 0d1e 00C0      		rjmp .L202
 2429               	.LM399:
 2430 0d20 8091 0000 		lds r24,_isWorkingForEmpty
 2431 0d24 8823      		tst r24
 2432 0d26 01F0      		breq .L197
 2433 0d28 0E94 0000 		call isMacroProcessEnd
 2434 0d2c 8823      		tst r24
 2435 0d2e 01F0      		breq .L197
 2436               	.LM400:
 2437 0d30 8091 0000 		lds r24,_wait
 2438 0d34 8B30      		cpi r24,lo8(11)
 2439 0d36 01F4      		brne .L198
 2440               	.LM401:
 2441 0d38 0E94 0000 		call saveCurrentLayerAfter
 2442 0d3c 00C0      		rjmp .L199
 2443               	.L198:
 2444               	.LM402:
 2445 0d3e 8A30      		cpi r24,lo8(10)
GAS LISTING C:\Users\ADMINI~1\AppData\Local\Temp/ccZjgOiQ.s 			page 44


 2446 0d40 01F4      		brne .L200
 2447               	.LM403:
 2448 0d42 0E94 0000 		call printMapperMessageAfter
 2449 0d46 00C0      		rjmp .L199
 2450               	.L200:
 2451               	.LM404:
 2452 0d48 8C30      		cpi r24,lo8(12)
 2453 0d4a 01F4      		brne .L201
 2454               	.LM405:
 2455 0d4c 0E94 0000 		call clearMacroAfter
 2456 0d50 00C0      		rjmp .L199
 2457               	.L201:
 2458               	.LM406:
 2459 0d52 1092 0000 		sts _isWorkingForEmpty,__zero_reg__
 2460               	.L199:
 2461               	.LM407:
 2462 0d56 1092 0000 		sts _wait,__zero_reg__
 2463               	.L197:
 2464               	.LM408:
 2465 0d5a 8091 0000 		lds r24,_isPressedEscapeKey
 2466 0d5e 8823      		tst r24
 2467 0d60 01F0      		breq .L202
 2468 0d62 8091 0000 		lds r24,_pressedEscapeKeyCount
 2469 0d66 9091 0000 		lds r25,(_pressedEscapeKeyCount)+1
 2470 0d6a 0196      		adiw r24,1
 2471 0d6c 9093 0000 		sts (_pressedEscapeKeyCount)+1,r25
 2472 0d70 8093 0000 		sts _pressedEscapeKeyCount,r24
 2473 0d74 895E      		subi r24,lo8(1001)
 2474 0d76 9340      		sbci r25,hi8(1001)
 2475 0d78 04F0      		brlt .L202
 2476               	.LM409:
 2477 0d7a 81E0      		ldi r24,lo8(1)
 2478 0d7c 8093 0000 		sts _isTiredEscapeKey,r24
 2479               	.LM410:
 2480 0d80 89E2      		ldi r24,lo8(41)
 2481 0d82 6FEF      		ldi r22,lo8(-1)
 2482 0d84 4FEF      		ldi r20,lo8(-1)
 2483 0d86 20E0      		ldi r18,lo8(0)
 2484 0d88 0E94 0000 		call putKeyCode
 2485               	.L202:
 2486 0d8c 0895      		ret
 2487               	.LFE20:
 2488               		.size	enterFrameForMapper, .-enterFrameForMapper
 2489               	.global	startKeyMappingOnBoot
 2490               		.type	startKeyMappingOnBoot, @function
 2491               	startKeyMappingOnBoot:
 2492               	.LFB16:
 2493               	.LM411:
 2494               	/* prologue: function */
 2495               	/* frame size = 0 */
 2496               	.LM412:
 2497 0d8e 8091 0000 		lds r24,_keyMappingOnBoot
 2498 0d92 8130      		cpi r24,lo8(1)
 2499 0d94 01F4      		brne .L205
 2500               	.LM413:
 2501 0d96 0E94 0000 		call prepareKeyMapping
 2502               	.LM414:
GAS LISTING C:\Users\ADMINI~1\AppData\Local\Temp/ccZjgOiQ.s 			page 45


 2503 0d9a 1092 0000 		sts _keyMappingOnBoot,__zero_reg__
 2504               	.L205:
 2505 0d9e 0895      		ret
 2506               	.LFE16:
 2507               		.size	startKeyMappingOnBoot, .-startKeyMappingOnBoot
 2508               	.global	str_select_mode
 2509               		.section	.progmem.data,"a",@progbits
 2510               		.type	str_select_mode, @object
 2511               		.size	str_select_mode, 12
 2512               	str_select_mode:
 2513 0000 7365 6C65 		.string	"select mode"
 2513      6374 206D 
 2513      6F64 6500 
 2514               	.global	str_select_mode1
 2515               		.type	str_select_mode1, @object
 2516               		.size	str_select_mode1, 14
 2517               	str_select_mode1:
 2518 000c 313A 4B65 		.string	"1:Key Mapping"
 2518      7920 4D61 
 2518      7070 696E 
 2518      6700 
 2519               	.global	str_select_mode2
 2520               		.type	str_select_mode2, @object
 2521               		.size	str_select_mode2, 8
 2522               	str_select_mode2:
 2523 001a 323A 4D61 		.string	"2:Macro"
 2523      6372 6F00 
 2524               	.global	str_select_mode3
 2525               		.type	str_select_mode3, @object
 2526               		.size	str_select_mode3, 7
 2527               	str_select_mode3:
 2528 0022 333A 4578 		.string	"3:Exit"
 2528      6974 00
 2529               	.global	str_exit
 2530               		.type	str_exit, @object
 2531               		.size	str_exit, 10
 2532               	str_exit:
 2533 0029 676F 6F64 		.string	"good bye~"
 2533      2062 7965 
 2533      7E00 
 2534               	.global	str_macro_message
 2535               		.type	str_macro_message, @object
 2536               		.size	str_macro_message, 6
 2537               	str_macro_message:
 2538 0033 4D61 6372 		.string	"Macro"
 2538      6F00 
 2539               	.global	str_macro_1
 2540               		.type	str_macro_1, @object
 2541               		.size	str_macro_1, 21
 2542               	str_macro_1:
 2543 0039 313A 5365 		.string	"1:Select Macro Index"
 2543      6C65 6374 
 2543      204D 6163 
 2543      726F 2049 
 2543      6E64 6578 
 2544               	.global	str_macro_2
 2545               		.type	str_macro_2, @object
GAS LISTING C:\Users\ADMINI~1\AppData\Local\Temp/ccZjgOiQ.s 			page 46


 2546               		.size	str_macro_2, 7
 2547               	str_macro_2:
 2548 004e 323A 4578 		.string	"2:Exit"
 2548      6974 00
 2549               	.global	str_macro_9
 2550               		.type	str_macro_9, @object
 2551               		.size	str_macro_9, 12
 2552               	str_macro_9:
 2553 0055 393A 436C 		.string	"9:Clear All"
 2553      6561 7220 
 2553      416C 6C00 
 2554               	.global	str_back_6
 2555               		.type	str_back_6, @object
 2556               		.size	str_back_6, 7
 2557               	str_back_6:
 2558 0061 363A 4261 		.string	"6:Back"
 2558      636B 00
 2559               	.global	str_mapper_message
 2560               		.type	str_mapper_message, @object
 2561               		.size	str_mapper_message, 11
 2562               	str_mapper_message:
 2563 0068 4B65 7920 		.string	"Key Mapper"
 2563      4D61 7070 
 2563      6572 00
 2564               	.global	str_mapper_1
 2565               		.type	str_mapper_1, @object
 2566               		.size	str_mapper_1, 15
 2567               	str_mapper_1:
 2568 0073 313A 4368 		.string	"1:Change Layer"
 2568      616E 6765 
 2568      204C 6179 
 2568      6572 00
 2569               	.global	str_mapper_2
 2570               		.type	str_mapper_2, @object
 2571               		.size	str_mapper_2, 29
 2572               	str_mapper_2:
 2573 0082 323A 5365 		.string	"2:Select Key - input keycode"
 2573      6C65 6374 
 2573      204B 6579 
 2573      202D 2069 
 2573      6E70 7574 
 2574               	.global	str_mapper_3
 2575               		.type	str_mapper_3, @object
 2576               		.size	str_mapper_3, 16
 2577               	str_mapper_3:
 2578 009f 333A 5361 		.string	"3:Save and Exit"
 2578      7665 2061 
 2578      6E64 2045 
 2578      7869 7400 
 2579               	.global	str_mapper_4
 2580               		.type	str_mapper_4, @object
 2581               		.size	str_mapper_4, 22
 2582               	str_mapper_4:
 2583 00af 343A 4578 		.string	"4:Exit without Saving"
 2583      6974 2077 
 2583      6974 686F 
 2583      7574 2053 
GAS LISTING C:\Users\ADMINI~1\AppData\Local\Temp/ccZjgOiQ.s 			page 47


 2583      6176 696E 
 2584               	.global	str_mapper_9
 2585               		.type	str_mapper_9, @object
 2586               		.size	str_mapper_9, 35
 2587               	str_mapper_9:
 2588 00c5 393A 5265 		.string	"9:Reset to Default (Current Layer)"
 2588      7365 7420 
 2588      746F 2044 
 2588      6566 6175 
 2588      6C74 2028 
 2589               	.global	str_prepare_message
 2590               		.type	str_prepare_message, @object
 2591               		.size	str_prepare_message, 8
 2592               	str_prepare_message:
 2593 00e8 7073 3261 		.string	"ps2avrU"
 2593      7672 5500 
 2594               	.global	str_choose_layer
 2595               		.type	str_choose_layer, @object
 2596               		.size	str_choose_layer, 50
 2597               	str_choose_layer:
 2598 00f0 6368 6F6F 		.string	"choose layer (1: normal, 2: FN, 3: FN2) current= "
 2598      7365 206C 
 2598      6179 6572 
 2598      2028 313A 
 2598      206E 6F72 
 2599               	.global	str_choose_key
 2600               		.type	str_choose_key, @object
 2601               		.size	str_choose_key, 31
 2602               	str_choose_key:
 2603 0122 7365 6C65 		.string	"select key (any key you want) "
 2603      6374 206B 
 2603      6579 2028 
 2603      616E 7920 
 2603      6B65 7920 
 2604               	.global	str_input_keycode
 2605               		.type	str_input_keycode, @object
 2606               		.size	str_input_keycode, 34
 2607               	str_input_keycode:
 2608 0141 696E 7075 		.string	"input keycode (must 3 numbers) : "
 2608      7420 6B65 
 2608      7963 6F64 
 2608      6520 286D 
 2608      7573 7420 
 2609               	.global	str_save_end_mapping
 2610               		.type	str_save_end_mapping, @object
 2611               		.size	str_save_end_mapping, 24
 2612               	str_save_end_mapping:
 2613 0163 5361 7665 		.string	"Save & Exit, thank you."
 2613      2026 2045 
 2613      7869 742C 
 2613      2074 6861 
 2613      6E6B 2079 
 2614               	.global	str_cancel_mapping
 2615               		.type	str_cancel_mapping, @object
 2616               		.size	str_cancel_mapping, 36
 2617               	str_cancel_mapping:
 2618 017b 4578 6974 		.string	"Exit without Saving, see you later."
GAS LISTING C:\Users\ADMINI~1\AppData\Local\Temp/ccZjgOiQ.s 			page 48


 2618      2077 6974 
 2618      686F 7574 
 2618      2053 6176 
 2618      696E 672C 
 2619               	.global	str_reset_mapping
 2620               		.type	str_reset_mapping, @object
 2621               		.size	str_reset_mapping, 31
 2622               	str_reset_mapping:
 2623 019f 5265 7365 		.string	"Reset to default current layer"
 2623      7420 746F 
 2623      2064 6566 
 2623      6175 6C74 
 2623      2063 7572 
 2624               	.global	str_input_command
 2625               		.type	str_input_command, @object
 2626               		.size	str_input_command, 23
 2627               	str_input_command:
 2628 01be 496E 7075 		.string	"Input Command Number: "
 2628      7420 436F 
 2628      6D6D 616E 
 2628      6420 4E75 
 2628      6D62 6572 
 2629               	.global	str_nothing
 2630               		.type	str_nothing, @object
 2631               		.size	str_nothing, 8
 2632               	str_nothing:
 2633 01d5 6E6F 7468 		.string	"nothing"
 2633      696E 6700 
 2634               	.global	str_save_layer
 2635               		.type	str_save_layer, @object
 2636               		.size	str_save_layer, 19
 2637               	str_save_layer:
 2638 01dd 5361 7665 		.string	"Save current layer"
 2638      2063 7572 
 2638      7265 6E74 
 2638      206C 6179 
 2638      6572 00
 2639               	.global	str_load_layer
 2640               		.type	str_load_layer, @object
 2641               		.size	str_load_layer, 19
 2642               	str_load_layer:
 2643 01f0 4C6F 6164 		.string	"Load current layer"
 2643      2063 7572 
 2643      7265 6E74 
 2643      206C 6179 
 2643      6572 00
 2644               	.global	str_saving
 2645               		.type	str_saving, @object
 2646               		.size	str_saving, 10
 2647               	str_saving:
 2648 0203 7361 7669 		.string	"saving..."
 2648      6E67 2E2E 
 2648      2E00 
 2649               	.global	str_col_row
 2650               		.type	str_col_row, @object
 2651               		.size	str_col_row, 12
 2652               	str_col_row:
GAS LISTING C:\Users\ADMINI~1\AppData\Local\Temp/ccZjgOiQ.s 			page 49


 2653 020d 636F 6C2C 		.string	"col, row : "
 2653      2072 6F77 
 2653      203A 2000 
 2654               	.global	str_invalid_keycode
 2655               		.type	str_invalid_keycode, @object
 2656               		.size	str_invalid_keycode, 30
 2657               	str_invalid_keycode:
 2658 0219 696E 7661 		.string	"invalid keycode, input again."
 2658      6C69 6420 
 2658      6B65 7963 
 2658      6F64 652C 
 2658      2069 6E70 
 2659               	.global	str_select_number
 2660               		.type	str_select_number, @object
 2661               		.size	str_select_number, 45
 2662               	str_select_number:
 2663 0237 696E 7075 		.string	"input Macro Index (01~12, must 2 numbers) : "
 2663      7420 4D61 
 2663      6372 6F20 
 2663      496E 6465 
 2663      7820 2830 
 2664               	.global	str_exit_macro
 2665               		.type	str_exit_macro, @object
 2666               		.size	str_exit_macro, 27
 2667               	str_exit_macro:
 2668 0264 4578 6974 		.string	"Exit macro, see you later."
 2668      206D 6163 
 2668      726F 2C20 
 2668      7365 6520 
 2668      796F 7520 
 2669               	.global	str_input_macro
 2670               		.type	str_input_macro, @object
 2671               		.size	str_input_macro, 55
 2672               	str_input_macro:
 2673 027f 696E 7075 		.string	"input key (max 16 keys, stop : press ESC during 1 sec)"
 2673      7420 6B65 
 2673      7920 286D 
 2673      6178 2031 
 2673      3620 6B65 
 2674               	.global	str_invalid_macro_number
 2675               		.type	str_invalid_macro_number, @object
 2676               		.size	str_invalid_macro_number, 28
 2677               	str_invalid_macro_number:
 2678 02b6 696E 7661 		.string	"invalid Index, input again."
 2678      6C69 6420 
 2678      496E 6465 
 2678      782C 2069 
 2678      6E70 7574 
 2679               	.global	str_clear_all_macro
 2680               		.type	str_clear_all_macro, @object
 2681               		.size	str_clear_all_macro, 9
 2682               	str_clear_all_macro:
 2683 02d2 636C 6561 		.string	"clear..."
 2683      722E 2E2E 
 2683      00
 2684               	.global	_pressedEscapeKeyCount
 2685               	.global	_pressedEscapeKeyCount
GAS LISTING C:\Users\ADMINI~1\AppData\Local\Temp/ccZjgOiQ.s 			page 50


 2686               		.section .bss
 2687               		.type	_pressedEscapeKeyCount, @object
 2688               		.size	_pressedEscapeKeyCount, 2
 2689               	_pressedEscapeKeyCount:
 2690 0000 0000      		.skip 2,0
 2691               	.global	_isPressedEscapeKey
 2692               	.global	_isPressedEscapeKey
 2693               		.type	_isPressedEscapeKey, @object
 2694               		.size	_isPressedEscapeKey, 1
 2695               	_isPressedEscapeKey:
 2696 0002 00        		.skip 1,0
 2697               	.global	_isTiredEscapeKey
 2698               	.global	_isTiredEscapeKey
 2699               		.type	_isTiredEscapeKey, @object
 2700               		.size	_isTiredEscapeKey, 1
 2701               	_isTiredEscapeKey:
 2702 0003 00        		.skip 1,0
 2703               	.global	_newKeyMap
 2704               	.global	_newKeyMap
 2705               		.type	_newKeyMap, @object
 2706               		.size	_newKeyMap, 136
 2707               	_newKeyMap:
 2708 0004 0000 0000 		.skip 136,0
 2708      0000 0000 
 2708      0000 0000 
 2708      0000 0000 
 2708      0000 0000 
 2709               		.lcomm _isWorkingForEmpty,1
 2710               		.data
 2711               		.type	usingKeys, @object
 2712               		.size	usingKeys, 11
 2713               	usingKeys:
 2714 0028 27        		.byte	39
 2715 0029 1E        		.byte	30
 2716 002a 1F        		.byte	31
 2717 002b 20        		.byte	32
 2718 002c 21        		.byte	33
 2719 002d 22        		.byte	34
 2720 002e 23        		.byte	35
 2721 002f 24        		.byte	36
 2722 0030 25        		.byte	37
 2723 0031 26        		.byte	38
 2724 0032 29        		.byte	41
 2725               		.lcomm _macroDownCount,1
 2726               		.lcomm _isKeyMapping,1
 2727               		.lcomm enabledKeyMappingCount,1
 2728               		.lcomm keyMappingCount,2
 2729               		.lcomm _keyMappingOnBoot,1
 2730               		.lcomm _mode,1
 2731               		.lcomm _step,1
 2732               		.lcomm _stepAfterSave,1
 2733               		.lcomm _wait,1
 2734               		.lcomm _col,1
 2735               		.lcomm _row,1
 2736               		.lcomm _buffer,3
 2737               		.lcomm _bufferIndex,1
 2738               		.lcomm _editCount,2
GAS LISTING C:\Users\ADMINI~1\AppData\Local\Temp/ccZjgOiQ.s 			page 51


 2739               		.lcomm _currentLayer,1
 2740               		.lcomm _currentLayerAfter,1
 2741               		.comm _macroIndex,1,1
 2742               		.comm _macroBufferIndex,1,1
 2743               		.comm _macroPressedBuffer,16,1
 2744               		.comm _macroInputBuffer,32,1
 2745               		.section	.debug_frame,"",@progbits
 2746               	.Lframe0:
 2747 0000 0C00 0000 		.long	.LECIE0-.LSCIE0
 2748               	.LSCIE0:
 2749 0004 FFFF FFFF 		.long	0xffffffff
 2750 0008 01        		.byte	0x1
 2751 0009 00        		.string	""
 2752 000a 01        		.uleb128 0x1
 2753 000b 7F        		.sleb128 -1
 2754 000c 24        		.byte	0x24
 2755 000d 0C        		.byte	0xc
 2756 000e 20        		.uleb128 0x20
 2757 000f 00        		.uleb128 0x0
 2758               		.p2align	2
 2759               	.LECIE0:
 2760               	.LSFDE0:
 2761 0010 0C00 0000 		.long	.LEFDE0-.LASFDE0
 2762               	.LASFDE0:
 2763 0014 0000 0000 		.long	.Lframe0
 2764 0018 0000 0000 		.long	.LFB8
 2765 001c 0C00 0000 		.long	.LFE8-.LFB8
 2766               		.p2align	2
 2767               	.LEFDE0:
 2768               	.LSFDE2:
 2769 0020 0C00 0000 		.long	.LEFDE2-.LASFDE2
 2770               	.LASFDE2:
 2771 0024 0000 0000 		.long	.Lframe0
 2772 0028 0000 0000 		.long	.LFB9
 2773 002c 0800 0000 		.long	.LFE9-.LFB9
 2774               		.p2align	2
 2775               	.LEFDE2:
 2776               	.LSFDE4:
 2777 0030 0C00 0000 		.long	.LEFDE4-.LASFDE4
 2778               	.LASFDE4:
 2779 0034 0000 0000 		.long	.Lframe0
 2780 0038 0000 0000 		.long	.LFB10
 2781 003c 0800 0000 		.long	.LFE10-.LFB10
 2782               		.p2align	2
 2783               	.LEFDE4:
 2784               	.LSFDE6:
 2785 0040 0C00 0000 		.long	.LEFDE6-.LASFDE6
 2786               	.LASFDE6:
 2787 0044 0000 0000 		.long	.Lframe0
 2788 0048 0000 0000 		.long	.LFB11
 2789 004c 2800 0000 		.long	.LFE11-.LFB11
 2790               		.p2align	2
 2791               	.LEFDE6:
 2792               	.LSFDE8:
 2793 0050 0C00 0000 		.long	.LEFDE8-.LASFDE8
 2794               	.LASFDE8:
 2795 0054 0000 0000 		.long	.Lframe0
GAS LISTING C:\Users\ADMINI~1\AppData\Local\Temp/ccZjgOiQ.s 			page 52


 2796 0058 0000 0000 		.long	.LFB14
 2797 005c 0600 0000 		.long	.LFE14-.LFB14
 2798               		.p2align	2
 2799               	.LEFDE8:
 2800               	.LSFDE10:
 2801 0060 0C00 0000 		.long	.LEFDE10-.LASFDE10
 2802               	.LASFDE10:
 2803 0064 0000 0000 		.long	.Lframe0
 2804 0068 0000 0000 		.long	.LFB15
 2805 006c 0800 0000 		.long	.LFE15-.LFB15
 2806               		.p2align	2
 2807               	.LEFDE10:
 2808               	.LSFDE12:
 2809 0070 0C00 0000 		.long	.LEFDE12-.LASFDE12
 2810               	.LASFDE12:
 2811 0074 0000 0000 		.long	.Lframe0
 2812 0078 0000 0000 		.long	.LFB18
 2813 007c 0A00 0000 		.long	.LFE18-.LFB18
 2814               		.p2align	2
 2815               	.LEFDE12:
 2816               	.LSFDE14:
 2817 0080 0C00 0000 		.long	.LEFDE14-.LASFDE14
 2818               	.LASFDE14:
 2819 0084 0000 0000 		.long	.Lframe0
 2820 0088 0000 0000 		.long	.LFB23
 2821 008c 0E00 0000 		.long	.LFE23-.LFB23
 2822               		.p2align	2
 2823               	.LEFDE14:
 2824               	.LSFDE16:
 2825 0090 0C00 0000 		.long	.LEFDE16-.LASFDE16
 2826               	.LASFDE16:
 2827 0094 0000 0000 		.long	.Lframe0
 2828 0098 0000 0000 		.long	.LFB24
 2829 009c 0E00 0000 		.long	.LFE24-.LFB24
 2830               		.p2align	2
 2831               	.LEFDE16:
 2832               	.LSFDE18:
 2833 00a0 0C00 0000 		.long	.LEFDE18-.LASFDE18
 2834               	.LASFDE18:
 2835 00a4 0000 0000 		.long	.Lframe0
 2836 00a8 0000 0000 		.long	.LFB27
 2837 00ac 0E00 0000 		.long	.LFE27-.LFB27
 2838               		.p2align	2
 2839               	.LEFDE18:
 2840               	.LSFDE20:
 2841 00b0 0C00 0000 		.long	.LEFDE20-.LASFDE20
 2842               	.LASFDE20:
 2843 00b4 0000 0000 		.long	.Lframe0
 2844 00b8 0000 0000 		.long	.LFB46
 2845 00bc 2600 0000 		.long	.LFE46-.LFB46
 2846               		.p2align	2
 2847               	.LEFDE20:
 2848               	.LSFDE22:
 2849 00c0 0C00 0000 		.long	.LEFDE22-.LASFDE22
 2850               	.LASFDE22:
 2851 00c4 0000 0000 		.long	.Lframe0
 2852 00c8 0000 0000 		.long	.LFB26
GAS LISTING C:\Users\ADMINI~1\AppData\Local\Temp/ccZjgOiQ.s 			page 53


 2853 00cc 3400 0000 		.long	.LFE26-.LFB26
 2854               		.p2align	2
 2855               	.LEFDE22:
 2856               	.LSFDE24:
 2857 00d0 0C00 0000 		.long	.LEFDE24-.LASFDE24
 2858               	.LASFDE24:
 2859 00d4 0000 0000 		.long	.Lframe0
 2860 00d8 0000 0000 		.long	.LFB28
 2861 00dc A600 0000 		.long	.LFE28-.LFB28
 2862               		.p2align	2
 2863               	.LEFDE24:
 2864               	.LSFDE26:
 2865 00e0 0C00 0000 		.long	.LEFDE26-.LASFDE26
 2866               	.LASFDE26:
 2867 00e4 0000 0000 		.long	.Lframe0
 2868 00e8 0000 0000 		.long	.LFB29
 2869 00ec 9000 0000 		.long	.LFE29-.LFB29
 2870               		.p2align	2
 2871               	.LEFDE26:
 2872               	.LSFDE28:
 2873 00f0 0C00 0000 		.long	.LEFDE28-.LASFDE28
 2874               	.LASFDE28:
 2875 00f4 0000 0000 		.long	.Lframe0
 2876 00f8 0000 0000 		.long	.LFB45
 2877 00fc 4C00 0000 		.long	.LFE45-.LFB45
 2878               		.p2align	2
 2879               	.LEFDE28:
 2880               	.LSFDE30:
 2881 0100 0C00 0000 		.long	.LEFDE30-.LASFDE30
 2882               	.LASFDE30:
 2883 0104 0000 0000 		.long	.Lframe0
 2884 0108 0000 0000 		.long	.LFB44
 2885 010c 1E00 0000 		.long	.LFE44-.LFB44
 2886               		.p2align	2
 2887               	.LEFDE30:
 2888               	.LSFDE32:
 2889 0110 0C00 0000 		.long	.LEFDE32-.LASFDE32
 2890               	.LASFDE32:
 2891 0114 0000 0000 		.long	.Lframe0
 2892 0118 0000 0000 		.long	.LFB39
 2893 011c 3C00 0000 		.long	.LFE39-.LFB39
 2894               		.p2align	2
 2895               	.LEFDE32:
 2896               	.LSFDE34:
 2897 0120 0C00 0000 		.long	.LEFDE34-.LASFDE34
 2898               	.LASFDE34:
 2899 0124 0000 0000 		.long	.Lframe0
 2900 0128 0000 0000 		.long	.LFB35
 2901 012c 0E00 0000 		.long	.LFE35-.LFB35
 2902               		.p2align	2
 2903               	.LEFDE34:
 2904               	.LSFDE36:
 2905 0130 0C00 0000 		.long	.LEFDE36-.LASFDE36
 2906               	.LASFDE36:
 2907 0134 0000 0000 		.long	.Lframe0
 2908 0138 0000 0000 		.long	.LFB34
 2909 013c 4800 0000 		.long	.LFE34-.LFB34
GAS LISTING C:\Users\ADMINI~1\AppData\Local\Temp/ccZjgOiQ.s 			page 54


 2910               		.p2align	2
 2911               	.LEFDE36:
 2912               	.LSFDE38:
 2913 0140 0C00 0000 		.long	.LEFDE38-.LASFDE38
 2914               	.LASFDE38:
 2915 0144 0000 0000 		.long	.Lframe0
 2916 0148 0000 0000 		.long	.LFB30
 2917 014c D000 0000 		.long	.LFE30-.LFB30
 2918               		.p2align	2
 2919               	.LEFDE38:
 2920               	.LSFDE40:
 2921 0150 0C00 0000 		.long	.LEFDE40-.LASFDE40
 2922               	.LASFDE40:
 2923 0154 0000 0000 		.long	.Lframe0
 2924 0158 0000 0000 		.long	.LFB31
 2925 015c 4000 0000 		.long	.LFE31-.LFB31
 2926               		.p2align	2
 2927               	.LEFDE40:
 2928               	.LSFDE42:
 2929 0160 0C00 0000 		.long	.LEFDE42-.LASFDE42
 2930               	.LASFDE42:
 2931 0164 0000 0000 		.long	.Lframe0
 2932 0168 0000 0000 		.long	.LFB32
 2933 016c 4000 0000 		.long	.LFE32-.LFB32
 2934               		.p2align	2
 2935               	.LEFDE42:
 2936               	.LSFDE44:
 2937 0170 0C00 0000 		.long	.LEFDE44-.LASFDE44
 2938               	.LASFDE44:
 2939 0174 0000 0000 		.long	.Lframe0
 2940 0178 0000 0000 		.long	.LFB43
 2941 017c 2A00 0000 		.long	.LFE43-.LFB43
 2942               		.p2align	2
 2943               	.LEFDE44:
 2944               	.LSFDE46:
 2945 0180 0C00 0000 		.long	.LEFDE46-.LASFDE46
 2946               	.LASFDE46:
 2947 0184 0000 0000 		.long	.Lframe0
 2948 0188 0000 0000 		.long	.LFB42
 2949 018c 4800 0000 		.long	.LFE42-.LFB42
 2950               		.p2align	2
 2951               	.LEFDE46:
 2952               	.LSFDE48:
 2953 0190 0C00 0000 		.long	.LEFDE48-.LASFDE48
 2954               	.LASFDE48:
 2955 0194 0000 0000 		.long	.Lframe0
 2956 0198 0000 0000 		.long	.LFB41
 2957 019c 4A00 0000 		.long	.LFE41-.LFB41
 2958               		.p2align	2
 2959               	.LEFDE48:
 2960               	.LSFDE50:
 2961 01a0 0C00 0000 		.long	.LEFDE50-.LASFDE50
 2962               	.LASFDE50:
 2963 01a4 0000 0000 		.long	.Lframe0
 2964 01a8 0000 0000 		.long	.LFB36
 2965 01ac 8800 0000 		.long	.LFE36-.LFB36
 2966               		.p2align	2
GAS LISTING C:\Users\ADMINI~1\AppData\Local\Temp/ccZjgOiQ.s 			page 55


 2967               	.LEFDE50:
 2968               	.LSFDE52:
 2969 01b0 0C00 0000 		.long	.LEFDE52-.LASFDE52
 2970               	.LASFDE52:
 2971 01b4 0000 0000 		.long	.Lframe0
 2972 01b8 0000 0000 		.long	.LFB47
 2973 01bc 5A05 0000 		.long	.LFE47-.LFB47
 2974               		.p2align	2
 2975               	.LEFDE52:
 2976               	.LSFDE54:
 2977 01c0 0C00 0000 		.long	.LEFDE54-.LASFDE54
 2978               	.LASFDE54:
 2979 01c4 0000 0000 		.long	.Lframe0
 2980 01c8 0000 0000 		.long	.LFB38
 2981 01cc CE00 0000 		.long	.LFE38-.LFB38
 2982               		.p2align	2
 2983               	.LEFDE54:
 2984               	.LSFDE56:
 2985 01d0 0C00 0000 		.long	.LEFDE56-.LASFDE56
 2986               	.LASFDE56:
 2987 01d4 0000 0000 		.long	.Lframe0
 2988 01d8 0000 0000 		.long	.LFB37
 2989 01dc 2400 0000 		.long	.LFE37-.LFB37
 2990               		.p2align	2
 2991               	.LEFDE56:
 2992               	.LSFDE58:
 2993 01e0 0C00 0000 		.long	.LEFDE58-.LASFDE58
 2994               	.LASFDE58:
 2995 01e4 0000 0000 		.long	.Lframe0
 2996 01e8 0000 0000 		.long	.LFB25
 2997 01ec 7600 0000 		.long	.LFE25-.LFB25
 2998               		.p2align	2
 2999               	.LEFDE58:
 3000               	.LSFDE60:
 3001 01f0 0C00 0000 		.long	.LEFDE60-.LASFDE60
 3002               	.LASFDE60:
 3003 01f4 0000 0000 		.long	.Lframe0
 3004 01f8 0000 0000 		.long	.LFB40
 3005 01fc 3200 0000 		.long	.LFE40-.LFB40
 3006               		.p2align	2
 3007               	.LEFDE60:
 3008               	.LSFDE62:
 3009 0200 0C00 0000 		.long	.LEFDE62-.LASFDE62
 3010               	.LASFDE62:
 3011 0204 0000 0000 		.long	.Lframe0
 3012 0208 0000 0000 		.long	.LFB17
 3013 020c 2400 0000 		.long	.LFE17-.LFB17
 3014               		.p2align	2
 3015               	.LEFDE62:
 3016               	.LSFDE64:
 3017 0210 0C00 0000 		.long	.LEFDE64-.LASFDE64
 3018               	.LASFDE64:
 3019 0214 0000 0000 		.long	.Lframe0
 3020 0218 0000 0000 		.long	.LFB12
 3021 021c 2400 0000 		.long	.LFE12-.LFB12
 3022               		.p2align	2
 3023               	.LEFDE64:
GAS LISTING C:\Users\ADMINI~1\AppData\Local\Temp/ccZjgOiQ.s 			page 56


 3024               	.LSFDE66:
 3025 0220 0C00 0000 		.long	.LEFDE66-.LASFDE66
 3026               	.LASFDE66:
 3027 0224 0000 0000 		.long	.Lframe0
 3028 0228 0000 0000 		.long	.LFB19
 3029 022c 3200 0000 		.long	.LFE19-.LFB19
 3030               		.p2align	2
 3031               	.LEFDE66:
 3032               	.LSFDE68:
 3033 0230 0C00 0000 		.long	.LEFDE68-.LASFDE68
 3034               	.LASFDE68:
 3035 0234 0000 0000 		.long	.Lframe0
 3036 0238 0000 0000 		.long	.LFB20
 3037 023c 7A00 0000 		.long	.LFE20-.LFB20
 3038               		.p2align	2
 3039               	.LEFDE68:
 3040               	.LSFDE70:
 3041 0240 0C00 0000 		.long	.LEFDE70-.LASFDE70
 3042               	.LASFDE70:
 3043 0244 0000 0000 		.long	.Lframe0
 3044 0248 0000 0000 		.long	.LFB16
 3045 024c 1200 0000 		.long	.LFE16-.LFB16
 3046               		.p2align	2
 3047               	.LEFDE70:
 3048               		.text
 3049               	.Letext0:
 3050               		.section	.debug_loc,"",@progbits
 3051               	.Ldebug_loc0:
 3052               	.LLST4:
 3053 0000 1C00 0000 		.long	.LVL0-.Ltext0
 3054 0004 2200 0000 		.long	.LVL1-.Ltext0
 3055 0008 0100      		.word	0x1
 3056 000a 68        		.byte	0x68
 3057 000b 2200 0000 		.long	.LVL1-.Ltext0
 3058 000f 4400 0000 		.long	.LFE11-.Ltext0
 3059 0013 0100      		.word	0x1
 3060 0015 69        		.byte	0x69
 3061 0016 0000 0000 		.long	0x0
 3062 001a 0000 0000 		.long	0x0
 3063               	.LLST9:
 3064 001e 5C00 0000 		.long	.LVL2-.Ltext0
 3065 0022 6000 0000 		.long	.LVL3-.Ltext0
 3066 0026 0100      		.word	0x1
 3067 0028 68        		.byte	0x68
 3068 0029 0000 0000 		.long	0x0
 3069 002d 0000 0000 		.long	0x0
 3070               	.LLST11:
 3071 0031 6A00 0000 		.long	.LVL4-.Ltext0
 3072 0035 6E00 0000 		.long	.LVL5-.Ltext0
 3073 0039 0100      		.word	0x1
 3074 003b 68        		.byte	0x68
 3075 003c 6E00 0000 		.long	.LVL5-.Ltext0
 3076 0040 7800 0000 		.long	.LFE24-.Ltext0
 3077 0044 0100      		.word	0x1
 3078 0046 69        		.byte	0x69
 3079 0047 0000 0000 		.long	0x0
 3080 004b 0000 0000 		.long	0x0
GAS LISTING C:\Users\ADMINI~1\AppData\Local\Temp/ccZjgOiQ.s 			page 57


 3081               	.LLST15:
 3082 004f AC00 0000 		.long	.LVL6-.Ltext0
 3083 0053 B400 0000 		.long	.LVL7-.Ltext0
 3084 0057 0600      		.word	0x6
 3085 0059 68        		.byte	0x68
 3086 005a 93        		.byte	0x93
 3087 005b 01        		.uleb128 0x1
 3088 005c 69        		.byte	0x69
 3089 005d 93        		.byte	0x93
 3090 005e 01        		.uleb128 0x1
 3091 005f B400 0000 		.long	.LVL7-.Ltext0
 3092 0063 B800 0000 		.long	.LVL8-.Ltext0
 3093 0067 0600      		.word	0x6
 3094 0069 6E        		.byte	0x6e
 3095 006a 93        		.byte	0x93
 3096 006b 01        		.uleb128 0x1
 3097 006c 6F        		.byte	0x6f
 3098 006d 93        		.byte	0x93
 3099 006e 01        		.uleb128 0x1
 3100 006f 0000 0000 		.long	0x0
 3101 0073 0000 0000 		.long	0x0
 3102               	.LLST17:
 3103 0077 E000 0000 		.long	.LVL15-.Ltext0
 3104 007b 0C01 0000 		.long	.LVL17-.Ltext0
 3105 007f 0600      		.word	0x6
 3106 0081 68        		.byte	0x68
 3107 0082 93        		.byte	0x93
 3108 0083 01        		.uleb128 0x1
 3109 0084 69        		.byte	0x69
 3110 0085 93        		.byte	0x93
 3111 0086 01        		.uleb128 0x1
 3112 0087 0C01 0000 		.long	.LVL17-.Ltext0
 3113 008b 7A01 0000 		.long	.LVL18-.Ltext0
 3114 008f 0600      		.word	0x6
 3115 0091 60        		.byte	0x60
 3116 0092 93        		.byte	0x93
 3117 0093 01        		.uleb128 0x1
 3118 0094 61        		.byte	0x61
 3119 0095 93        		.byte	0x93
 3120 0096 01        		.uleb128 0x1
 3121 0097 0000 0000 		.long	0x0
 3122 009b 0000 0000 		.long	0x0
 3123               	.LLST18:
 3124 009f FC00 0000 		.long	.LVL16-.Ltext0
 3125 00a3 7C01 0000 		.long	.LVL19-.Ltext0
 3126 00a7 0100      		.word	0x1
 3127 00a9 5F        		.byte	0x5f
 3128 00aa 0000 0000 		.long	0x0
 3129 00ae 0000 0000 		.long	0x0
 3130               	.LLST20:
 3131 00b2 8601 0000 		.long	.LVL20-.Ltext0
 3132 00b6 A401 0000 		.long	.LVL21-.Ltext0
 3133 00ba 0600      		.word	0x6
 3134 00bc 68        		.byte	0x68
 3135 00bd 93        		.byte	0x93
 3136 00be 01        		.uleb128 0x1
 3137 00bf 69        		.byte	0x69
GAS LISTING C:\Users\ADMINI~1\AppData\Local\Temp/ccZjgOiQ.s 			page 58


 3138 00c0 93        		.byte	0x93
 3139 00c1 01        		.uleb128 0x1
 3140 00c2 A401 0000 		.long	.LVL21-.Ltext0
 3141 00c6 E601 0000 		.long	.LVL25-.Ltext0
 3142 00ca 0600      		.word	0x6
 3143 00cc 60        		.byte	0x60
 3144 00cd 93        		.byte	0x93
 3145 00ce 01        		.uleb128 0x1
 3146 00cf 61        		.byte	0x61
 3147 00d0 93        		.byte	0x93
 3148 00d1 01        		.uleb128 0x1
 3149 00d2 E601 0000 		.long	.LVL25-.Ltext0
 3150 00d6 F601 0000 		.long	.LVL26-.Ltext0
 3151 00da 0600      		.word	0x6
 3152 00dc 68        		.byte	0x68
 3153 00dd 93        		.byte	0x93
 3154 00de 01        		.uleb128 0x1
 3155 00df 69        		.byte	0x69
 3156 00e0 93        		.byte	0x93
 3157 00e1 01        		.uleb128 0x1
 3158 00e2 F601 0000 		.long	.LVL26-.Ltext0
 3159 00e6 0C02 0000 		.long	.LVL30-.Ltext0
 3160 00ea 0600      		.word	0x6
 3161 00ec 60        		.byte	0x60
 3162 00ed 93        		.byte	0x93
 3163 00ee 01        		.uleb128 0x1
 3164 00ef 61        		.byte	0x61
 3165 00f0 93        		.byte	0x93
 3166 00f1 01        		.uleb128 0x1
 3167 00f2 0C02 0000 		.long	.LVL30-.Ltext0
 3168 00f6 1602 0000 		.long	.LFE29-.Ltext0
 3169 00fa 0600      		.word	0x6
 3170 00fc 68        		.byte	0x68
 3171 00fd 93        		.byte	0x93
 3172 00fe 01        		.uleb128 0x1
 3173 00ff 69        		.byte	0x69
 3174 0100 93        		.byte	0x93
 3175 0101 01        		.uleb128 0x1
 3176 0102 0000 0000 		.long	0x0
 3177 0106 0000 0000 		.long	0x0
 3178               	.LLST21:
 3179 010a C601 0000 		.long	.LVL23-.Ltext0
 3180 010e CE01 0000 		.long	.LVL24-.Ltext0
 3181 0112 0100      		.word	0x1
 3182 0114 68        		.byte	0x68
 3183 0115 0000 0000 		.long	0x0
 3184 0119 0000 0000 		.long	0x0
 3185               	.LLST22:
 3186 011d A401 0000 		.long	.LVL21-.Ltext0
 3187 0121 AE01 0000 		.long	.LVL22-.Ltext0
 3188 0125 0600      		.word	0x6
 3189 0127 6E        		.byte	0x6e
 3190 0128 93        		.byte	0x93
 3191 0129 01        		.uleb128 0x1
 3192 012a 6F        		.byte	0x6f
 3193 012b 93        		.byte	0x93
 3194 012c 01        		.uleb128 0x1
GAS LISTING C:\Users\ADMINI~1\AppData\Local\Temp/ccZjgOiQ.s 			page 59


 3195 012d F801 0000 		.long	.LVL27-.Ltext0
 3196 0131 1602 0000 		.long	.LFE29-.Ltext0
 3197 0135 0600      		.word	0x6
 3198 0137 6E        		.byte	0x6e
 3199 0138 93        		.byte	0x93
 3200 0139 01        		.uleb128 0x1
 3201 013a 6F        		.byte	0x6f
 3202 013b 93        		.byte	0x93
 3203 013c 01        		.uleb128 0x1
 3204 013d 0000 0000 		.long	0x0
 3205 0141 0000 0000 		.long	0x0
 3206               	.LLST23:
 3207 0145 A401 0000 		.long	.LVL21-.Ltext0
 3208 0149 C601 0000 		.long	.LVL23-.Ltext0
 3209 014d 0100      		.word	0x1
 3210 014f 68        		.byte	0x68
 3211 0150 FE01 0000 		.long	.LVL28-.Ltext0
 3212 0154 1602 0000 		.long	.LFE29-.Ltext0
 3213 0158 0100      		.word	0x1
 3214 015a 68        		.byte	0x68
 3215 015b 0000 0000 		.long	0x0
 3216 015f 0000 0000 		.long	0x0
 3217               	.LLST35:
 3218 0163 D404 0000 		.long	.LVL33-.Ltext0
 3219 0167 EC04 0000 		.long	.LVL34-.Ltext0
 3220 016b 0100      		.word	0x1
 3221 016d 68        		.byte	0x68
 3222 016e 1405 0000 		.long	.LVL39-.Ltext0
 3223 0172 1E05 0000 		.long	.LFE41-.Ltext0
 3224 0176 0100      		.word	0x1
 3225 0178 68        		.byte	0x68
 3226 0179 0000 0000 		.long	0x0
 3227 017d 0000 0000 		.long	0x0
 3228               	.LLST36:
 3229 0181 F804 0000 		.long	.LVL35-.Ltext0
 3230 0185 FE04 0000 		.long	.LVL36-.Ltext0
 3231 0189 0100      		.word	0x1
 3232 018b 69        		.byte	0x69
 3233 018c 0005 0000 		.long	.LVL37-.Ltext0
 3234 0190 0C05 0000 		.long	.LVL38-.Ltext0
 3235 0194 0100      		.word	0x1
 3236 0196 69        		.byte	0x69
 3237 0197 0C05 0000 		.long	.LVL38-.Ltext0
 3238 019b 1E05 0000 		.long	.LFE41-.Ltext0
 3239 019f 0100      		.word	0x1
 3240 01a1 69        		.byte	0x69
 3241 01a2 0000 0000 		.long	0x0
 3242 01a6 0000 0000 		.long	0x0
 3243               	.LLST39:
 3244 01aa A605 0000 		.long	.LVL40-.Ltext0
 3245 01ae CE05 0000 		.long	.LVL41-.Ltext0
 3246 01b2 0100      		.word	0x1
 3247 01b4 68        		.byte	0x68
 3248 01b5 CE05 0000 		.long	.LVL41-.Ltext0
 3249 01b9 F80A 0000 		.long	.LVL73-.Ltext0
 3250 01bd 0100      		.word	0x1
 3251 01bf 5D        		.byte	0x5d
GAS LISTING C:\Users\ADMINI~1\AppData\Local\Temp/ccZjgOiQ.s 			page 60


 3252 01c0 0000 0000 		.long	0x0
 3253 01c4 0000 0000 		.long	0x0
 3254               	.LLST40:
 3255 01c8 A605 0000 		.long	.LVL40-.Ltext0
 3256 01cc D405 0000 		.long	.LVL42-.Ltext0
 3257 01d0 0100      		.word	0x1
 3258 01d2 66        		.byte	0x66
 3259 01d3 D405 0000 		.long	.LVL42-.Ltext0
 3260 01d7 FC0A 0000 		.long	.LVL75-.Ltext0
 3261 01db 0100      		.word	0x1
 3262 01dd 5B        		.byte	0x5b
 3263 01de FC0A 0000 		.long	.LVL75-.Ltext0
 3264 01e2 000B 0000 		.long	.LFE47-.Ltext0
 3265 01e6 0100      		.word	0x1
 3266 01e8 66        		.byte	0x66
 3267 01e9 0000 0000 		.long	0x0
 3268 01ed 0000 0000 		.long	0x0
 3269               	.LLST41:
 3270 01f1 A605 0000 		.long	.LVL40-.Ltext0
 3271 01f5 D405 0000 		.long	.LVL42-.Ltext0
 3272 01f9 0100      		.word	0x1
 3273 01fb 64        		.byte	0x64
 3274 01fc D405 0000 		.long	.LVL42-.Ltext0
 3275 0200 FE0A 0000 		.long	.LVL76-.Ltext0
 3276 0204 0100      		.word	0x1
 3277 0206 5A        		.byte	0x5a
 3278 0207 FE0A 0000 		.long	.LVL76-.Ltext0
 3279 020b 000B 0000 		.long	.LFE47-.Ltext0
 3280 020f 0100      		.word	0x1
 3281 0211 64        		.byte	0x64
 3282 0212 0000 0000 		.long	0x0
 3283 0216 0000 0000 		.long	0x0
 3284               	.LLST42:
 3285 021a A605 0000 		.long	.LVL40-.Ltext0
 3286 021e D405 0000 		.long	.LVL42-.Ltext0
 3287 0222 0100      		.word	0x1
 3288 0224 62        		.byte	0x62
 3289 0225 D405 0000 		.long	.LVL42-.Ltext0
 3290 0229 FA0A 0000 		.long	.LVL74-.Ltext0
 3291 022d 0100      		.word	0x1
 3292 022f 5C        		.byte	0x5c
 3293 0230 FA0A 0000 		.long	.LVL74-.Ltext0
 3294 0234 000B 0000 		.long	.LFE47-.Ltext0
 3295 0238 0100      		.word	0x1
 3296 023a 62        		.byte	0x62
 3297 023b 0000 0000 		.long	0x0
 3298 023f 0000 0000 		.long	0x0
 3299               	.LLST43:
 3300 0243 3E07 0000 		.long	.LVL46-.Ltext0
 3301 0247 1608 0000 		.long	.LVL47-.Ltext0
 3302 024b 0100      		.word	0x1
 3303 024d 60        		.byte	0x60
 3304 024e 6A09 0000 		.long	.LVL56-.Ltext0
 3305 0252 6E09 0000 		.long	.LVL57-.Ltext0
 3306 0256 0100      		.word	0x1
 3307 0258 60        		.byte	0x60
 3308 0259 320A 0000 		.long	.LVL60-.Ltext0
GAS LISTING C:\Users\ADMINI~1\AppData\Local\Temp/ccZjgOiQ.s 			page 61


 3309 025d 3C0A 0000 		.long	.LVL61-.Ltext0
 3310 0261 0100      		.word	0x1
 3311 0263 60        		.byte	0x60
 3312 0264 E00A 0000 		.long	.LVL68-.Ltext0
 3313 0268 F20A 0000 		.long	.LVL71-.Ltext0
 3314 026c 0100      		.word	0x1
 3315 026e 60        		.byte	0x60
 3316 026f 0000 0000 		.long	0x0
 3317 0273 0000 0000 		.long	0x0
 3318               	.LLST44:
 3319 0277 1409 0000 		.long	.LVL55-.Ltext0
 3320 027b 6E09 0000 		.long	.LVL57-.Ltext0
 3321 027f 0100      		.word	0x1
 3322 0281 61        		.byte	0x61
 3323 0282 320A 0000 		.long	.LVL60-.Ltext0
 3324 0286 3C0A 0000 		.long	.LVL61-.Ltext0
 3325 028a 0100      		.word	0x1
 3326 028c 61        		.byte	0x61
 3327 028d E00A 0000 		.long	.LVL68-.Ltext0
 3328 0291 F00A 0000 		.long	.LVL70-.Ltext0
 3329 0295 0100      		.word	0x1
 3330 0297 61        		.byte	0x61
 3331 0298 0000 0000 		.long	0x0
 3332 029c 0000 0000 		.long	0x0
 3333               	.LLST45:
 3334 02a0 C408 0000 		.long	.LVL48-.Ltext0
 3335 02a4 D608 0000 		.long	.LVL49-.Ltext0
 3336 02a8 0600      		.word	0x6
 3337 02aa 62        		.byte	0x62
 3338 02ab 93        		.byte	0x93
 3339 02ac 01        		.uleb128 0x1
 3340 02ad 63        		.byte	0x63
 3341 02ae 93        		.byte	0x93
 3342 02af 01        		.uleb128 0x1
 3343 02b0 E808 0000 		.long	.LVL50-.Ltext0
 3344 02b4 EC08 0000 		.long	.LVL51-.Ltext0
 3345 02b8 0600      		.word	0x6
 3346 02ba 62        		.byte	0x62
 3347 02bb 93        		.byte	0x93
 3348 02bc 01        		.uleb128 0x1
 3349 02bd 63        		.byte	0x63
 3350 02be 93        		.byte	0x93
 3351 02bf 01        		.uleb128 0x1
 3352 02c0 520A 0000 		.long	.LVL62-.Ltext0
 3353 02c4 AC0A 0000 		.long	.LVL63-.Ltext0
 3354 02c8 0600      		.word	0x6
 3355 02ca 64        		.byte	0x64
 3356 02cb 93        		.byte	0x93
 3357 02cc 01        		.uleb128 0x1
 3358 02cd 65        		.byte	0x65
 3359 02ce 93        		.byte	0x93
 3360 02cf 01        		.uleb128 0x1
 3361 02d0 B40A 0000 		.long	.LVL64-.Ltext0
 3362 02d4 CA0A 0000 		.long	.LVL65-.Ltext0
 3363 02d8 0600      		.word	0x6
 3364 02da 64        		.byte	0x64
 3365 02db 93        		.byte	0x93
GAS LISTING C:\Users\ADMINI~1\AppData\Local\Temp/ccZjgOiQ.s 			page 62


 3366 02dc 01        		.uleb128 0x1
 3367 02dd 65        		.byte	0x65
 3368 02de 93        		.byte	0x93
 3369 02df 01        		.uleb128 0x1
 3370 02e0 0000 0000 		.long	0x0
 3371 02e4 0000 0000 		.long	0x0
 3372               	.LLST46:
 3373 02e8 F005 0000 		.long	.LVL43-.Ltext0
 3374 02ec F60A 0000 		.long	.LVL72-.Ltext0
 3375 02f0 0600      		.word	0x6
 3376 02f2 5E        		.byte	0x5e
 3377 02f3 93        		.byte	0x93
 3378 02f4 01        		.uleb128 0x1
 3379 02f5 5F        		.byte	0x5f
 3380 02f6 93        		.byte	0x93
 3381 02f7 01        		.uleb128 0x1
 3382 02f8 0000 0000 		.long	0x0
 3383 02fc 0000 0000 		.long	0x0
 3384               	.LLST47:
 3385 0300 6606 0000 		.long	.LVL44-.Ltext0
 3386 0304 7606 0000 		.long	.LVL45-.Ltext0
 3387 0308 0600      		.word	0x6
 3388 030a 66        		.byte	0x66
 3389 030b 93        		.byte	0x93
 3390 030c 01        		.uleb128 0x1
 3391 030d 67        		.byte	0x67
 3392 030e 93        		.byte	0x93
 3393 030f 01        		.uleb128 0x1
 3394 0310 E40A 0000 		.long	.LVL69-.Ltext0
 3395 0314 000B 0000 		.long	.LFE47-.Ltext0
 3396 0318 0600      		.word	0x6
 3397 031a 66        		.byte	0x66
 3398 031b 93        		.byte	0x93
 3399 031c 01        		.uleb128 0x1
 3400 031d 67        		.byte	0x67
 3401 031e 93        		.byte	0x93
 3402 031f 01        		.uleb128 0x1
 3403 0320 0000 0000 		.long	0x0
 3404 0324 0000 0000 		.long	0x0
 3405               	.LLST48:
 3406 0328 F608 0000 		.long	.LVL52-.Ltext0
 3407 032c 0609 0000 		.long	.LVL54-.Ltext0
 3408 0330 0600      		.word	0x6
 3409 0332 68        		.byte	0x68
 3410 0333 93        		.byte	0x93
 3411 0334 01        		.uleb128 0x1
 3412 0335 69        		.byte	0x69
 3413 0336 93        		.byte	0x93
 3414 0337 01        		.uleb128 0x1
 3415 0338 E40A 0000 		.long	.LVL69-.Ltext0
 3416 033c 000B 0000 		.long	.LFE47-.Ltext0
 3417 0340 0600      		.word	0x6
 3418 0342 68        		.byte	0x68
 3419 0343 93        		.byte	0x93
 3420 0344 01        		.uleb128 0x1
 3421 0345 69        		.byte	0x69
 3422 0346 93        		.byte	0x93
GAS LISTING C:\Users\ADMINI~1\AppData\Local\Temp/ccZjgOiQ.s 			page 63


 3423 0347 01        		.uleb128 0x1
 3424 0348 0000 0000 		.long	0x0
 3425 034c 0000 0000 		.long	0x0
 3426               	.LLST49:
 3427 0350 FC08 0000 		.long	.LVL53-.Ltext0
 3428 0354 0609 0000 		.long	.LVL54-.Ltext0
 3429 0358 0600      		.word	0x6
 3430 035a 6E        		.byte	0x6e
 3431 035b 93        		.byte	0x93
 3432 035c 01        		.uleb128 0x1
 3433 035d 6F        		.byte	0x6f
 3434 035e 93        		.byte	0x93
 3435 035f 01        		.uleb128 0x1
 3436 0360 E40A 0000 		.long	.LVL69-.Ltext0
 3437 0364 000B 0000 		.long	.LFE47-.Ltext0
 3438 0368 0600      		.word	0x6
 3439 036a 6E        		.byte	0x6e
 3440 036b 93        		.byte	0x93
 3441 036c 01        		.uleb128 0x1
 3442 036d 6F        		.byte	0x6f
 3443 036e 93        		.byte	0x93
 3444 036f 01        		.uleb128 0x1
 3445 0370 0000 0000 		.long	0x0
 3446 0374 0000 0000 		.long	0x0
 3447               	.LLST50:
 3448 0378 EC09 0000 		.long	.LVL58-.Ltext0
 3449 037c F209 0000 		.long	.LVL59-.Ltext0
 3450 0380 0100      		.word	0x1
 3451 0382 6E        		.byte	0x6e
 3452 0383 0000 0000 		.long	0x0
 3453 0387 0000 0000 		.long	0x0
 3454               	.LLST51:
 3455 038b D00A 0000 		.long	.LVL66-.Ltext0
 3456 038f E00A 0000 		.long	.LVL68-.Ltext0
 3457 0393 0600      		.word	0x6
 3458 0395 68        		.byte	0x68
 3459 0396 93        		.byte	0x93
 3460 0397 01        		.uleb128 0x1
 3461 0398 69        		.byte	0x69
 3462 0399 93        		.byte	0x93
 3463 039a 01        		.uleb128 0x1
 3464 039b E40A 0000 		.long	.LVL69-.Ltext0
 3465 039f 000B 0000 		.long	.LFE47-.Ltext0
 3466 03a3 0600      		.word	0x6
 3467 03a5 68        		.byte	0x68
 3468 03a6 93        		.byte	0x93
 3469 03a7 01        		.uleb128 0x1
 3470 03a8 69        		.byte	0x69
 3471 03a9 93        		.byte	0x93
 3472 03aa 01        		.uleb128 0x1
 3473 03ab 0000 0000 		.long	0x0
 3474 03af 0000 0000 		.long	0x0
 3475               	.LLST52:
 3476 03b3 D60A 0000 		.long	.LVL67-.Ltext0
 3477 03b7 E00A 0000 		.long	.LVL68-.Ltext0
 3478 03bb 0600      		.word	0x6
 3479 03bd 6E        		.byte	0x6e
GAS LISTING C:\Users\ADMINI~1\AppData\Local\Temp/ccZjgOiQ.s 			page 64


 3480 03be 93        		.byte	0x93
 3481 03bf 01        		.uleb128 0x1
 3482 03c0 6F        		.byte	0x6f
 3483 03c1 93        		.byte	0x93
 3484 03c2 01        		.uleb128 0x1
 3485 03c3 E40A 0000 		.long	.LVL69-.Ltext0
 3486 03c7 000B 0000 		.long	.LFE47-.Ltext0
 3487 03cb 0600      		.word	0x6
 3488 03cd 6E        		.byte	0x6e
 3489 03ce 93        		.byte	0x93
 3490 03cf 01        		.uleb128 0x1
 3491 03d0 6F        		.byte	0x6f
 3492 03d1 93        		.byte	0x93
 3493 03d2 01        		.uleb128 0x1
 3494 03d3 0000 0000 		.long	0x0
 3495 03d7 0000 0000 		.long	0x0
 3496               	.LLST56:
 3497 03db F20B 0000 		.long	.LVL77-.Ltext0
 3498 03df 020C 0000 		.long	.LVL78-.Ltext0
 3499 03e3 0100      		.word	0x1
 3500 03e5 68        		.byte	0x68
 3501 03e6 020C 0000 		.long	.LVL78-.Ltext0
 3502 03ea 660C 0000 		.long	.LVL92-.Ltext0
 3503 03ee 0100      		.word	0x1
 3504 03f0 5F        		.byte	0x5f
 3505 03f1 0000 0000 		.long	0x0
 3506 03f5 0000 0000 		.long	0x0
 3507               	.LLST57:
 3508 03f9 F20B 0000 		.long	.LVL77-.Ltext0
 3509 03fd 060C 0000 		.long	.LVL79-.Ltext0
 3510 0401 0100      		.word	0x1
 3511 0403 66        		.byte	0x66
 3512 0404 060C 0000 		.long	.LVL79-.Ltext0
 3513 0408 5E0C 0000 		.long	.LVL88-.Ltext0
 3514 040c 0600      		.word	0x6
 3515 040e 6C        		.byte	0x6c
 3516 040f 93        		.byte	0x93
 3517 0410 01        		.uleb128 0x1
 3518 0411 6D        		.byte	0x6d
 3519 0412 93        		.byte	0x93
 3520 0413 01        		.uleb128 0x1
 3521 0414 5E0C 0000 		.long	.LVL88-.Ltext0
 3522 0418 600C 0000 		.long	.LVL89-.Ltext0
 3523 041c 0100      		.word	0x1
 3524 041e 6C        		.byte	0x6c
 3525 041f 0000 0000 		.long	0x0
 3526 0423 0000 0000 		.long	0x0
 3527               	.LLST58:
 3528 0427 F20B 0000 		.long	.LVL77-.Ltext0
 3529 042b 0A0C 0000 		.long	.LVL80-.Ltext0
 3530 042f 0100      		.word	0x1
 3531 0431 64        		.byte	0x64
 3532 0432 0A0C 0000 		.long	.LVL80-.Ltext0
 3533 0436 620C 0000 		.long	.LVL90-.Ltext0
 3534 043a 0600      		.word	0x6
 3535 043c 60        		.byte	0x60
 3536 043d 93        		.byte	0x93
GAS LISTING C:\Users\ADMINI~1\AppData\Local\Temp/ccZjgOiQ.s 			page 65


 3537 043e 01        		.uleb128 0x1
 3538 043f 61        		.byte	0x61
 3539 0440 93        		.byte	0x93
 3540 0441 01        		.uleb128 0x1
 3541 0442 620C 0000 		.long	.LVL90-.Ltext0
 3542 0446 640C 0000 		.long	.LVL91-.Ltext0
 3543 044a 0100      		.word	0x1
 3544 044c 60        		.byte	0x60
 3545 044d 640C 0000 		.long	.LVL91-.Ltext0
 3546 0451 680C 0000 		.long	.LFE25-.Ltext0
 3547 0455 0100      		.word	0x1
 3548 0457 64        		.byte	0x64
 3549 0458 0000 0000 		.long	0x0
 3550 045c 0000 0000 		.long	0x0
 3551               	.LLST60:
 3552 0460 680C 0000 		.long	.LVL93-.Ltext0
 3553 0464 700C 0000 		.long	.LVL94-.Ltext0
 3554 0468 0100      		.word	0x1
 3555 046a 68        		.byte	0x68
 3556 046b 700C 0000 		.long	.LVL94-.Ltext0
 3557 046f 800C 0000 		.long	.LVL95-.Ltext0
 3558 0473 0100      		.word	0x1
 3559 0475 69        		.byte	0x69
 3560 0476 940C 0000 		.long	.LVL96-.Ltext0
 3561 047a 9A0C 0000 		.long	.LFE40-.Ltext0
 3562 047e 0100      		.word	0x1
 3563 0480 69        		.byte	0x69
 3564 0481 0000 0000 		.long	0x0
 3565 0485 0000 0000 		.long	0x0
 3566               		.section	.debug_info
 3567 0000 8415 0000 		.long	0x1584
 3568 0004 0200      		.word	0x2
 3569 0006 0000 0000 		.long	.Ldebug_abbrev0
 3570 000a 04        		.byte	0x4
 3571 000b 01        		.uleb128 0x1
 3572 000c 0000 0000 		.long	.LASF300
 3573 0010 01        		.byte	0x1
 3574 0011 0000 0000 		.long	.LASF301
 3575 0015 0000 0000 		.long	.LASF302
 3576 0019 0000 0000 		.long	.Ltext0
 3577 001d 0000 0000 		.long	.Letext0
 3578 0021 0000 0000 		.long	.Ldebug_line0
 3579 0025 02        		.uleb128 0x2
 3580 0026 01        		.byte	0x1
 3581 0027 08        		.byte	0x8
 3582 0028 0000 0000 		.long	.LASF0
 3583 002c 02        		.uleb128 0x2
 3584 002d 01        		.byte	0x1
 3585 002e 06        		.byte	0x6
 3586 002f 0000 0000 		.long	.LASF1
 3587 0033 02        		.uleb128 0x2
 3588 0034 02        		.byte	0x2
 3589 0035 07        		.byte	0x7
 3590 0036 0000 0000 		.long	.LASF2
 3591 003a 02        		.uleb128 0x2
 3592 003b 02        		.byte	0x2
 3593 003c 05        		.byte	0x5
GAS LISTING C:\Users\ADMINI~1\AppData\Local\Temp/ccZjgOiQ.s 			page 66


 3594 003d 0000 0000 		.long	.LASF3
 3595 0041 02        		.uleb128 0x2
 3596 0042 04        		.byte	0x4
 3597 0043 07        		.byte	0x7
 3598 0044 0000 0000 		.long	.LASF4
 3599 0048 02        		.uleb128 0x2
 3600 0049 04        		.byte	0x4
 3601 004a 05        		.byte	0x5
 3602 004b 0000 0000 		.long	.LASF5
 3603 004f 02        		.uleb128 0x2
 3604 0050 08        		.byte	0x8
 3605 0051 07        		.byte	0x7
 3606 0052 0000 0000 		.long	.LASF6
 3607 0056 02        		.uleb128 0x2
 3608 0057 08        		.byte	0x8
 3609 0058 05        		.byte	0x5
 3610 0059 0000 0000 		.long	.LASF7
 3611 005d 02        		.uleb128 0x2
 3612 005e 02        		.byte	0x2
 3613 005f 07        		.byte	0x7
 3614 0060 0000 0000 		.long	.LASF8
 3615 0064 02        		.uleb128 0x2
 3616 0065 01        		.byte	0x1
 3617 0066 06        		.byte	0x6
 3618 0067 0000 0000 		.long	.LASF9
 3619 006b 03        		.uleb128 0x3
 3620 006c 02        		.byte	0x2
 3621 006d 05        		.byte	0x5
 3622 006e 696E 7400 		.string	"int"
 3623 0072 04        		.uleb128 0x4
 3624 0073 0000 0000 		.long	.LASF10
 3625 0077 04        		.byte	0x4
 3626 0078 7A        		.byte	0x7a
 3627 0079 2500 0000 		.long	0x25
 3628 007d 04        		.uleb128 0x4
 3629 007e 0000 0000 		.long	.LASF11
 3630 0082 04        		.byte	0x4
 3631 0083 7C        		.byte	0x7c
 3632 0084 5D00 0000 		.long	0x5d
 3633 0088 05        		.uleb128 0x5
 3634 0089 01        		.byte	0x1
 3635 008a 06        		.byte	0x6
 3636 008b 05        		.uleb128 0x5
 3637 008c 01        		.byte	0x1
 3638 008d 08        		.byte	0x8
 3639 008e 06        		.uleb128 0x6
 3640 008f 02        		.byte	0x2
 3641 0090 6400 0000 		.long	0x64
 3642 0094 07        		.uleb128 0x7
 3643 0095 02        		.byte	0x2
 3644 0096 05        		.byte	0x5
 3645 0097 17        		.byte	0x17
 3646 0098 F100 0000 		.long	0xf1
 3647 009c 08        		.uleb128 0x8
 3648 009d 0000 0000 		.long	.LASF12
 3649 00a1 C901      		.sleb128 201
 3650 00a3 08        		.uleb128 0x8
GAS LISTING C:\Users\ADMINI~1\AppData\Local\Temp/ccZjgOiQ.s 			page 67


 3651 00a4 0000 0000 		.long	.LASF13
 3652 00a8 CA01      		.sleb128 202
 3653 00aa 08        		.uleb128 0x8
 3654 00ab 0000 0000 		.long	.LASF14
 3655 00af CB01      		.sleb128 203
 3656 00b1 08        		.uleb128 0x8
 3657 00b2 0000 0000 		.long	.LASF15
 3658 00b6 CC01      		.sleb128 204
 3659 00b8 08        		.uleb128 0x8
 3660 00b9 0000 0000 		.long	.LASF16
 3661 00bd CD01      		.sleb128 205
 3662 00bf 08        		.uleb128 0x8
 3663 00c0 0000 0000 		.long	.LASF17
 3664 00c4 CE01      		.sleb128 206
 3665 00c6 08        		.uleb128 0x8
 3666 00c7 0000 0000 		.long	.LASF18
 3667 00cb CF01      		.sleb128 207
 3668 00cd 08        		.uleb128 0x8
 3669 00ce 0000 0000 		.long	.LASF19
 3670 00d2 D001      		.sleb128 208
 3671 00d4 08        		.uleb128 0x8
 3672 00d5 0000 0000 		.long	.LASF20
 3673 00d9 D101      		.sleb128 209
 3674 00db 08        		.uleb128 0x8
 3675 00dc 0000 0000 		.long	.LASF21
 3676 00e0 D201      		.sleb128 210
 3677 00e2 08        		.uleb128 0x8
 3678 00e3 0000 0000 		.long	.LASF22
 3679 00e7 D301      		.sleb128 211
 3680 00e9 08        		.uleb128 0x8
 3681 00ea 0000 0000 		.long	.LASF23
 3682 00ee D401      		.sleb128 212
 3683 00f0 00        		.byte	0x0
 3684 00f1 07        		.uleb128 0x7
 3685 00f2 02        		.byte	0x2
 3686 00f3 05        		.byte	0x5
 3687 00f4 26        		.byte	0x26
 3688 00f5 AA04 0000 		.long	0x4aa
 3689 00f9 08        		.uleb128 0x8
 3690 00fa 0000 0000 		.long	.LASF24
 3691 00fe 00        		.sleb128 0
 3692 00ff 08        		.uleb128 0x8
 3693 0100 0000 0000 		.long	.LASF25
 3694 0104 01        		.sleb128 1
 3695 0105 08        		.uleb128 0x8
 3696 0106 0000 0000 		.long	.LASF26
 3697 010a 02        		.sleb128 2
 3698 010b 08        		.uleb128 0x8
 3699 010c 0000 0000 		.long	.LASF27
 3700 0110 03        		.sleb128 3
 3701 0111 08        		.uleb128 0x8
 3702 0112 0000 0000 		.long	.LASF28
 3703 0116 04        		.sleb128 4
 3704 0117 08        		.uleb128 0x8
 3705 0118 0000 0000 		.long	.LASF29
 3706 011c 05        		.sleb128 5
 3707 011d 08        		.uleb128 0x8
GAS LISTING C:\Users\ADMINI~1\AppData\Local\Temp/ccZjgOiQ.s 			page 68


 3708 011e 0000 0000 		.long	.LASF30
 3709 0122 06        		.sleb128 6
 3710 0123 08        		.uleb128 0x8
 3711 0124 0000 0000 		.long	.LASF31
 3712 0128 07        		.sleb128 7
 3713 0129 08        		.uleb128 0x8
 3714 012a 0000 0000 		.long	.LASF32
 3715 012e 08        		.sleb128 8
 3716 012f 08        		.uleb128 0x8
 3717 0130 0000 0000 		.long	.LASF33
 3718 0134 09        		.sleb128 9
 3719 0135 08        		.uleb128 0x8
 3720 0136 0000 0000 		.long	.LASF34
 3721 013a 0A        		.sleb128 10
 3722 013b 08        		.uleb128 0x8
 3723 013c 0000 0000 		.long	.LASF35
 3724 0140 0B        		.sleb128 11
 3725 0141 08        		.uleb128 0x8
 3726 0142 0000 0000 		.long	.LASF36
 3727 0146 0C        		.sleb128 12
 3728 0147 08        		.uleb128 0x8
 3729 0148 0000 0000 		.long	.LASF37
 3730 014c 0D        		.sleb128 13
 3731 014d 08        		.uleb128 0x8
 3732 014e 0000 0000 		.long	.LASF38
 3733 0152 0E        		.sleb128 14
 3734 0153 08        		.uleb128 0x8
 3735 0154 0000 0000 		.long	.LASF39
 3736 0158 0F        		.sleb128 15
 3737 0159 08        		.uleb128 0x8
 3738 015a 0000 0000 		.long	.LASF40
 3739 015e 10        		.sleb128 16
 3740 015f 08        		.uleb128 0x8
 3741 0160 0000 0000 		.long	.LASF41
 3742 0164 11        		.sleb128 17
 3743 0165 08        		.uleb128 0x8
 3744 0166 0000 0000 		.long	.LASF42
 3745 016a 12        		.sleb128 18
 3746 016b 08        		.uleb128 0x8
 3747 016c 0000 0000 		.long	.LASF43
 3748 0170 13        		.sleb128 19
 3749 0171 08        		.uleb128 0x8
 3750 0172 0000 0000 		.long	.LASF44
 3751 0176 14        		.sleb128 20
 3752 0177 08        		.uleb128 0x8
 3753 0178 0000 0000 		.long	.LASF45
 3754 017c 15        		.sleb128 21
 3755 017d 08        		.uleb128 0x8
 3756 017e 0000 0000 		.long	.LASF46
 3757 0182 16        		.sleb128 22
 3758 0183 08        		.uleb128 0x8
 3759 0184 0000 0000 		.long	.LASF47
 3760 0188 17        		.sleb128 23
 3761 0189 08        		.uleb128 0x8
 3762 018a 0000 0000 		.long	.LASF48
 3763 018e 18        		.sleb128 24
 3764 018f 08        		.uleb128 0x8
GAS LISTING C:\Users\ADMINI~1\AppData\Local\Temp/ccZjgOiQ.s 			page 69


 3765 0190 0000 0000 		.long	.LASF49
 3766 0194 19        		.sleb128 25
 3767 0195 08        		.uleb128 0x8
 3768 0196 0000 0000 		.long	.LASF50
 3769 019a 1A        		.sleb128 26
 3770 019b 08        		.uleb128 0x8
 3771 019c 0000 0000 		.long	.LASF51
 3772 01a0 1B        		.sleb128 27
 3773 01a1 08        		.uleb128 0x8
 3774 01a2 0000 0000 		.long	.LASF52
 3775 01a6 1C        		.sleb128 28
 3776 01a7 08        		.uleb128 0x8
 3777 01a8 0000 0000 		.long	.LASF53
 3778 01ac 1D        		.sleb128 29
 3779 01ad 08        		.uleb128 0x8
 3780 01ae 0000 0000 		.long	.LASF54
 3781 01b2 1E        		.sleb128 30
 3782 01b3 08        		.uleb128 0x8
 3783 01b4 0000 0000 		.long	.LASF55
 3784 01b8 1F        		.sleb128 31
 3785 01b9 08        		.uleb128 0x8
 3786 01ba 0000 0000 		.long	.LASF56
 3787 01be 20        		.sleb128 32
 3788 01bf 08        		.uleb128 0x8
 3789 01c0 0000 0000 		.long	.LASF57
 3790 01c4 21        		.sleb128 33
 3791 01c5 08        		.uleb128 0x8
 3792 01c6 0000 0000 		.long	.LASF58
 3793 01ca 22        		.sleb128 34
 3794 01cb 08        		.uleb128 0x8
 3795 01cc 0000 0000 		.long	.LASF59
 3796 01d0 23        		.sleb128 35
 3797 01d1 08        		.uleb128 0x8
 3798 01d2 0000 0000 		.long	.LASF60
 3799 01d6 24        		.sleb128 36
 3800 01d7 08        		.uleb128 0x8
 3801 01d8 0000 0000 		.long	.LASF61
 3802 01dc 25        		.sleb128 37
 3803 01dd 08        		.uleb128 0x8
 3804 01de 0000 0000 		.long	.LASF62
 3805 01e2 26        		.sleb128 38
 3806 01e3 08        		.uleb128 0x8
 3807 01e4 0000 0000 		.long	.LASF63
 3808 01e8 27        		.sleb128 39
 3809 01e9 08        		.uleb128 0x8
 3810 01ea 0000 0000 		.long	.LASF64
 3811 01ee 28        		.sleb128 40
 3812 01ef 08        		.uleb128 0x8
 3813 01f0 0000 0000 		.long	.LASF65
 3814 01f4 29        		.sleb128 41
 3815 01f5 08        		.uleb128 0x8
 3816 01f6 0000 0000 		.long	.LASF66
 3817 01fa 2A        		.sleb128 42
 3818 01fb 08        		.uleb128 0x8
 3819 01fc 0000 0000 		.long	.LASF67
 3820 0200 2B        		.sleb128 43
 3821 0201 08        		.uleb128 0x8
GAS LISTING C:\Users\ADMINI~1\AppData\Local\Temp/ccZjgOiQ.s 			page 70


 3822 0202 0000 0000 		.long	.LASF68
 3823 0206 2C        		.sleb128 44
 3824 0207 08        		.uleb128 0x8
 3825 0208 0000 0000 		.long	.LASF69
 3826 020c 2D        		.sleb128 45
 3827 020d 08        		.uleb128 0x8
 3828 020e 0000 0000 		.long	.LASF70
 3829 0212 2E        		.sleb128 46
 3830 0213 08        		.uleb128 0x8
 3831 0214 0000 0000 		.long	.LASF71
 3832 0218 2F        		.sleb128 47
 3833 0219 08        		.uleb128 0x8
 3834 021a 0000 0000 		.long	.LASF72
 3835 021e 30        		.sleb128 48
 3836 021f 08        		.uleb128 0x8
 3837 0220 0000 0000 		.long	.LASF73
 3838 0224 31        		.sleb128 49
 3839 0225 08        		.uleb128 0x8
 3840 0226 0000 0000 		.long	.LASF74
 3841 022a 32        		.sleb128 50
 3842 022b 08        		.uleb128 0x8
 3843 022c 0000 0000 		.long	.LASF75
 3844 0230 33        		.sleb128 51
 3845 0231 08        		.uleb128 0x8
 3846 0232 0000 0000 		.long	.LASF76
 3847 0236 34        		.sleb128 52
 3848 0237 08        		.uleb128 0x8
 3849 0238 0000 0000 		.long	.LASF77
 3850 023c 35        		.sleb128 53
 3851 023d 08        		.uleb128 0x8
 3852 023e 0000 0000 		.long	.LASF78
 3853 0242 36        		.sleb128 54
 3854 0243 08        		.uleb128 0x8
 3855 0244 0000 0000 		.long	.LASF79
 3856 0248 37        		.sleb128 55
 3857 0249 08        		.uleb128 0x8
 3858 024a 0000 0000 		.long	.LASF80
 3859 024e 38        		.sleb128 56
 3860 024f 08        		.uleb128 0x8
 3861 0250 0000 0000 		.long	.LASF81
 3862 0254 39        		.sleb128 57
 3863 0255 08        		.uleb128 0x8
 3864 0256 0000 0000 		.long	.LASF82
 3865 025a 3A        		.sleb128 58
 3866 025b 08        		.uleb128 0x8
 3867 025c 0000 0000 		.long	.LASF83
 3868 0260 3B        		.sleb128 59
 3869 0261 08        		.uleb128 0x8
 3870 0262 0000 0000 		.long	.LASF84
 3871 0266 3C        		.sleb128 60
 3872 0267 08        		.uleb128 0x8
 3873 0268 0000 0000 		.long	.LASF85
 3874 026c 3D        		.sleb128 61
 3875 026d 08        		.uleb128 0x8
 3876 026e 0000 0000 		.long	.LASF86
 3877 0272 3E        		.sleb128 62
 3878 0273 08        		.uleb128 0x8
GAS LISTING C:\Users\ADMINI~1\AppData\Local\Temp/ccZjgOiQ.s 			page 71


 3879 0274 0000 0000 		.long	.LASF87
 3880 0278 3F        		.sleb128 63
 3881 0279 08        		.uleb128 0x8
 3882 027a 0000 0000 		.long	.LASF88
 3883 027e C000      		.sleb128 64
 3884 0280 08        		.uleb128 0x8
 3885 0281 0000 0000 		.long	.LASF89
 3886 0285 C100      		.sleb128 65
 3887 0287 08        		.uleb128 0x8
 3888 0288 0000 0000 		.long	.LASF90
 3889 028c C200      		.sleb128 66
 3890 028e 08        		.uleb128 0x8
 3891 028f 0000 0000 		.long	.LASF91
 3892 0293 C300      		.sleb128 67
 3893 0295 08        		.uleb128 0x8
 3894 0296 0000 0000 		.long	.LASF92
 3895 029a C400      		.sleb128 68
 3896 029c 08        		.uleb128 0x8
 3897 029d 0000 0000 		.long	.LASF93
 3898 02a1 C500      		.sleb128 69
 3899 02a3 08        		.uleb128 0x8
 3900 02a4 0000 0000 		.long	.LASF94
 3901 02a8 C600      		.sleb128 70
 3902 02aa 08        		.uleb128 0x8
 3903 02ab 0000 0000 		.long	.LASF95
 3904 02af C700      		.sleb128 71
 3905 02b1 08        		.uleb128 0x8
 3906 02b2 0000 0000 		.long	.LASF96
 3907 02b6 C800      		.sleb128 72
 3908 02b8 08        		.uleb128 0x8
 3909 02b9 0000 0000 		.long	.LASF97
 3910 02bd C900      		.sleb128 73
 3911 02bf 08        		.uleb128 0x8
 3912 02c0 0000 0000 		.long	.LASF98
 3913 02c4 CA00      		.sleb128 74
 3914 02c6 08        		.uleb128 0x8
 3915 02c7 0000 0000 		.long	.LASF99
 3916 02cb CB00      		.sleb128 75
 3917 02cd 08        		.uleb128 0x8
 3918 02ce 0000 0000 		.long	.LASF100
 3919 02d2 CC00      		.sleb128 76
 3920 02d4 08        		.uleb128 0x8
 3921 02d5 0000 0000 		.long	.LASF101
 3922 02d9 CD00      		.sleb128 77
 3923 02db 08        		.uleb128 0x8
 3924 02dc 0000 0000 		.long	.LASF102
 3925 02e0 CE00      		.sleb128 78
 3926 02e2 08        		.uleb128 0x8
 3927 02e3 0000 0000 		.long	.LASF103
 3928 02e7 CF00      		.sleb128 79
 3929 02e9 08        		.uleb128 0x8
 3930 02ea 0000 0000 		.long	.LASF104
 3931 02ee D000      		.sleb128 80
 3932 02f0 08        		.uleb128 0x8
 3933 02f1 0000 0000 		.long	.LASF105
 3934 02f5 D100      		.sleb128 81
 3935 02f7 08        		.uleb128 0x8
GAS LISTING C:\Users\ADMINI~1\AppData\Local\Temp/ccZjgOiQ.s 			page 72


 3936 02f8 0000 0000 		.long	.LASF106
 3937 02fc D200      		.sleb128 82
 3938 02fe 08        		.uleb128 0x8
 3939 02ff 0000 0000 		.long	.LASF107
 3940 0303 D300      		.sleb128 83
 3941 0305 08        		.uleb128 0x8
 3942 0306 0000 0000 		.long	.LASF108
 3943 030a D400      		.sleb128 84
 3944 030c 08        		.uleb128 0x8
 3945 030d 0000 0000 		.long	.LASF109
 3946 0311 D500      		.sleb128 85
 3947 0313 08        		.uleb128 0x8
 3948 0314 0000 0000 		.long	.LASF110
 3949 0318 D600      		.sleb128 86
 3950 031a 08        		.uleb128 0x8
 3951 031b 0000 0000 		.long	.LASF111
 3952 031f D700      		.sleb128 87
 3953 0321 08        		.uleb128 0x8
 3954 0322 0000 0000 		.long	.LASF112
 3955 0326 D800      		.sleb128 88
 3956 0328 08        		.uleb128 0x8
 3957 0329 0000 0000 		.long	.LASF113
 3958 032d D900      		.sleb128 89
 3959 032f 08        		.uleb128 0x8
 3960 0330 0000 0000 		.long	.LASF114
 3961 0334 DA00      		.sleb128 90
 3962 0336 08        		.uleb128 0x8
 3963 0337 0000 0000 		.long	.LASF115
 3964 033b DB00      		.sleb128 91
 3965 033d 08        		.uleb128 0x8
 3966 033e 0000 0000 		.long	.LASF116
 3967 0342 DC00      		.sleb128 92
 3968 0344 08        		.uleb128 0x8
 3969 0345 0000 0000 		.long	.LASF117
 3970 0349 DD00      		.sleb128 93
 3971 034b 08        		.uleb128 0x8
 3972 034c 0000 0000 		.long	.LASF118
 3973 0350 DE00      		.sleb128 94
 3974 0352 08        		.uleb128 0x8
 3975 0353 0000 0000 		.long	.LASF119
 3976 0357 DF00      		.sleb128 95
 3977 0359 08        		.uleb128 0x8
 3978 035a 0000 0000 		.long	.LASF120
 3979 035e E000      		.sleb128 96
 3980 0360 08        		.uleb128 0x8
 3981 0361 0000 0000 		.long	.LASF121
 3982 0365 E100      		.sleb128 97
 3983 0367 08        		.uleb128 0x8
 3984 0368 0000 0000 		.long	.LASF122
 3985 036c E200      		.sleb128 98
 3986 036e 08        		.uleb128 0x8
 3987 036f 0000 0000 		.long	.LASF123
 3988 0373 E300      		.sleb128 99
 3989 0375 08        		.uleb128 0x8
 3990 0376 0000 0000 		.long	.LASF124
 3991 037a E400      		.sleb128 100
 3992 037c 08        		.uleb128 0x8
GAS LISTING C:\Users\ADMINI~1\AppData\Local\Temp/ccZjgOiQ.s 			page 73


 3993 037d 0000 0000 		.long	.LASF125
 3994 0381 E500      		.sleb128 101
 3995 0383 08        		.uleb128 0x8
 3996 0384 0000 0000 		.long	.LASF126
 3997 0388 E600      		.sleb128 102
 3998 038a 08        		.uleb128 0x8
 3999 038b 0000 0000 		.long	.LASF127
 4000 038f E700      		.sleb128 103
 4001 0391 08        		.uleb128 0x8
 4002 0392 0000 0000 		.long	.LASF128
 4003 0396 E800      		.sleb128 104
 4004 0398 08        		.uleb128 0x8
 4005 0399 0000 0000 		.long	.LASF129
 4006 039d E900      		.sleb128 105
 4007 039f 08        		.uleb128 0x8
 4008 03a0 0000 0000 		.long	.LASF130
 4009 03a4 EA00      		.sleb128 106
 4010 03a6 08        		.uleb128 0x8
 4011 03a7 0000 0000 		.long	.LASF131
 4012 03ab EB00      		.sleb128 107
 4013 03ad 08        		.uleb128 0x8
 4014 03ae 0000 0000 		.long	.LASF132
 4015 03b2 EC00      		.sleb128 108
 4016 03b4 08        		.uleb128 0x8
 4017 03b5 0000 0000 		.long	.LASF133
 4018 03b9 ED00      		.sleb128 109
 4019 03bb 08        		.uleb128 0x8
 4020 03bc 0000 0000 		.long	.LASF134
 4021 03c0 EE00      		.sleb128 110
 4022 03c2 08        		.uleb128 0x8
 4023 03c3 0000 0000 		.long	.LASF135
 4024 03c7 EF00      		.sleb128 111
 4025 03c9 08        		.uleb128 0x8
 4026 03ca 0000 0000 		.long	.LASF136
 4027 03ce F000      		.sleb128 112
 4028 03d0 08        		.uleb128 0x8
 4029 03d1 0000 0000 		.long	.LASF137
 4030 03d5 F100      		.sleb128 113
 4031 03d7 08        		.uleb128 0x8
 4032 03d8 0000 0000 		.long	.LASF138
 4033 03dc F200      		.sleb128 114
 4034 03de 08        		.uleb128 0x8
 4035 03df 0000 0000 		.long	.LASF139
 4036 03e3 F300      		.sleb128 115
 4037 03e5 08        		.uleb128 0x8
 4038 03e6 0000 0000 		.long	.LASF140
 4039 03ea F400      		.sleb128 116
 4040 03ec 08        		.uleb128 0x8
 4041 03ed 0000 0000 		.long	.LASF141
 4042 03f1 F500      		.sleb128 117
 4043 03f3 08        		.uleb128 0x8
 4044 03f4 0000 0000 		.long	.LASF142
 4045 03f8 F600      		.sleb128 118
 4046 03fa 08        		.uleb128 0x8
 4047 03fb 0000 0000 		.long	.LASF143
 4048 03ff F700      		.sleb128 119
 4049 0401 08        		.uleb128 0x8
GAS LISTING C:\Users\ADMINI~1\AppData\Local\Temp/ccZjgOiQ.s 			page 74


 4050 0402 0000 0000 		.long	.LASF144
 4051 0406 F800      		.sleb128 120
 4052 0408 08        		.uleb128 0x8
 4053 0409 0000 0000 		.long	.LASF145
 4054 040d F900      		.sleb128 121
 4055 040f 08        		.uleb128 0x8
 4056 0410 0000 0000 		.long	.LASF146
 4057 0414 FA00      		.sleb128 122
 4058 0416 08        		.uleb128 0x8
 4059 0417 0000 0000 		.long	.LASF147
 4060 041b FB00      		.sleb128 123
 4061 041d 08        		.uleb128 0x8
 4062 041e 0000 0000 		.long	.LASF148
 4063 0422 FC00      		.sleb128 124
 4064 0424 08        		.uleb128 0x8
 4065 0425 0000 0000 		.long	.LASF149
 4066 0429 FD00      		.sleb128 125
 4067 042b 08        		.uleb128 0x8
 4068 042c 0000 0000 		.long	.LASF150
 4069 0430 FE00      		.sleb128 126
 4070 0432 08        		.uleb128 0x8
 4071 0433 0000 0000 		.long	.LASF151
 4072 0437 FF00      		.sleb128 127
 4073 0439 08        		.uleb128 0x8
 4074 043a 0000 0000 		.long	.LASF152
 4075 043e 8001      		.sleb128 128
 4076 0440 08        		.uleb128 0x8
 4077 0441 0000 0000 		.long	.LASF153
 4078 0445 8101      		.sleb128 129
 4079 0447 08        		.uleb128 0x8
 4080 0448 0000 0000 		.long	.LASF154
 4081 044c 8201      		.sleb128 130
 4082 044e 08        		.uleb128 0x8
 4083 044f 0000 0000 		.long	.LASF155
 4084 0453 8301      		.sleb128 131
 4085 0455 08        		.uleb128 0x8
 4086 0456 0000 0000 		.long	.LASF156
 4087 045a 8401      		.sleb128 132
 4088 045c 08        		.uleb128 0x8
 4089 045d 0000 0000 		.long	.LASF157
 4090 0461 8501      		.sleb128 133
 4091 0463 08        		.uleb128 0x8
 4092 0464 0000 0000 		.long	.LASF158
 4093 0468 8601      		.sleb128 134
 4094 046a 08        		.uleb128 0x8
 4095 046b 0000 0000 		.long	.LASF159
 4096 046f 8701      		.sleb128 135
 4097 0471 08        		.uleb128 0x8
 4098 0472 0000 0000 		.long	.LASF160
 4099 0476 8801      		.sleb128 136
 4100 0478 08        		.uleb128 0x8
 4101 0479 0000 0000 		.long	.LASF161
 4102 047d 8901      		.sleb128 137
 4103 047f 08        		.uleb128 0x8
 4104 0480 0000 0000 		.long	.LASF162
 4105 0484 8A01      		.sleb128 138
 4106 0486 08        		.uleb128 0x8
GAS LISTING C:\Users\ADMINI~1\AppData\Local\Temp/ccZjgOiQ.s 			page 75


 4107 0487 0000 0000 		.long	.LASF163
 4108 048b 8B01      		.sleb128 139
 4109 048d 08        		.uleb128 0x8
 4110 048e 0000 0000 		.long	.LASF164
 4111 0492 8C01      		.sleb128 140
 4112 0494 08        		.uleb128 0x8
 4113 0495 0000 0000 		.long	.LASF165
 4114 0499 8D01      		.sleb128 141
 4115 049b 08        		.uleb128 0x8
 4116 049c 0000 0000 		.long	.LASF166
 4117 04a0 8E01      		.sleb128 142
 4118 04a2 08        		.uleb128 0x8
 4119 04a3 0000 0000 		.long	.LASF167
 4120 04a7 8F01      		.sleb128 143
 4121 04a9 00        		.byte	0x0
 4122 04aa 09        		.uleb128 0x9
 4123 04ab 02        		.byte	0x2
 4124 04ac 06        		.byte	0x6
 4125 04ad 0F        		.byte	0xf
 4126 04ae CF04 0000 		.long	0x4cf
 4127 04b2 0A        		.uleb128 0xa
 4128 04b3 0000 0000 		.long	.LASF168
 4129 04b7 06        		.byte	0x6
 4130 04b8 10        		.byte	0x10
 4131 04b9 7200 0000 		.long	0x72
 4132 04bd 02        		.byte	0x2
 4133 04be 23        		.byte	0x23
 4134 04bf 00        		.uleb128 0x0
 4135 04c0 0A        		.uleb128 0xa
 4136 04c1 0000 0000 		.long	.LASF169
 4137 04c5 06        		.byte	0x6
 4138 04c6 11        		.byte	0x11
 4139 04c7 7200 0000 		.long	0x72
 4140 04cb 02        		.byte	0x2
 4141 04cc 23        		.byte	0x23
 4142 04cd 01        		.uleb128 0x1
 4143 04ce 00        		.byte	0x0
 4144 04cf 0B        		.uleb128 0xb
 4145 04d0 4B65 7900 		.string	"Key"
 4146 04d4 06        		.byte	0x6
 4147 04d5 12        		.byte	0x12
 4148 04d6 AA04 0000 		.long	0x4aa
 4149 04da 0C        		.uleb128 0xc
 4150 04db 0000 0000 		.long	.LASF172
 4151 04df 02        		.byte	0x2
 4152 04e0 68        		.byte	0x68
 4153 04e1 01        		.byte	0x1
 4154 04e2 03        		.byte	0x3
 4155 04e3 F304 0000 		.long	0x4f3
 4156 04e7 0D        		.uleb128 0xd
 4157 04e8 0000 0000 		.long	.LASF170
 4158 04ec 02        		.byte	0x2
 4159 04ed 67        		.byte	0x67
 4160 04ee 7D00 0000 		.long	0x7d
 4161 04f2 00        		.byte	0x0
 4162 04f3 0E        		.uleb128 0xe
 4163 04f4 01        		.byte	0x1
GAS LISTING C:\Users\ADMINI~1\AppData\Local\Temp/ccZjgOiQ.s 			page 76


 4164 04f5 0000 0000 		.long	.LASF189
 4165 04f9 01        		.byte	0x1
 4166 04fa 67        		.byte	0x67
 4167 04fb 01        		.byte	0x1
 4168 04fc 7200 0000 		.long	0x72
 4169 0500 01        		.byte	0x1
 4170 0501 0F        		.uleb128 0xf
 4171 0502 01        		.byte	0x1
 4172 0503 0000 0000 		.long	.LASF187
 4173 0507 01        		.byte	0x1
 4174 0508 EE        		.byte	0xee
 4175 0509 01        		.byte	0x1
 4176 050a 7200 0000 		.long	0x72
 4177 050e 01        		.byte	0x1
 4178 050f 1F05 0000 		.long	0x51f
 4179 0513 0D        		.uleb128 0xd
 4180 0514 0000 0000 		.long	.LASF171
 4181 0518 01        		.byte	0x1
 4182 0519 EE        		.byte	0xee
 4183 051a 7200 0000 		.long	0x72
 4184 051e 00        		.byte	0x0
 4185 051f 10        		.uleb128 0x10
 4186 0520 01        		.byte	0x1
 4187 0521 0000 0000 		.long	.LASF193
 4188 0525 01        		.byte	0x1
 4189 0526 B3        		.byte	0xb3
 4190 0527 01        		.byte	0x1
 4191 0528 01        		.byte	0x1
 4192 0529 0C        		.uleb128 0xc
 4193 052a 0000 0000 		.long	.LASF173
 4194 052e 03        		.byte	0x3
 4195 052f 6F        		.byte	0x6f
 4196 0530 01        		.byte	0x1
 4197 0531 03        		.byte	0x3
 4198 0532 5A05 0000 		.long	0x55a
 4199 0536 0D        		.uleb128 0xd
 4200 0537 0000 0000 		.long	.LASF174
 4201 053b 03        		.byte	0x3
 4202 053c 6E        		.byte	0x6e
 4203 053d 5A05 0000 		.long	0x55a
 4204 0541 11        		.uleb128 0x11
 4205 0542 0000 0000 		.long	.LASF175
 4206 0546 03        		.byte	0x3
 4207 0547 70        		.byte	0x70
 4208 0548 7D00 0000 		.long	0x7d
 4209 054c 11        		.uleb128 0x11
 4210 054d 0000 0000 		.long	.LASF176
 4211 0551 03        		.byte	0x3
 4212 0552 71        		.byte	0x71
 4213 0553 5A05 0000 		.long	0x55a
 4214 0557 12        		.uleb128 0x12
 4215 0558 12        		.uleb128 0x12
 4216 0559 00        		.byte	0x0
 4217 055a 02        		.uleb128 0x2
 4218 055b 04        		.byte	0x4
 4219 055c 04        		.byte	0x4
 4220 055d 0000 0000 		.long	.LASF177
GAS LISTING C:\Users\ADMINI~1\AppData\Local\Temp/ccZjgOiQ.s 			page 77


 4221 0561 13        		.uleb128 0x13
 4222 0562 0000 0000 		.long	.LASF191
 4223 0566 01        		.byte	0x1
 4224 0567 AF01      		.word	0x1af
 4225 0569 01        		.byte	0x1
 4226 056a 01        		.byte	0x1
 4227 056b 14        		.uleb128 0x14
 4228 056c 0000 0000 		.long	.LASF183
 4229 0570 01        		.byte	0x1
 4230 0571 E1        		.byte	0xe1
 4231 0572 01        		.byte	0x1
 4232 0573 7200 0000 		.long	0x72
 4233 0577 01        		.byte	0x1
 4234 0578 B605 0000 		.long	0x5b6
 4235 057c 0D        		.uleb128 0xd
 4236 057d 0000 0000 		.long	.LASF178
 4237 0581 01        		.byte	0x1
 4238 0582 E0        		.byte	0xe0
 4239 0583 7200 0000 		.long	0x72
 4240 0587 0D        		.uleb128 0xd
 4241 0588 0000 0000 		.long	.LASF179
 4242 058c 01        		.byte	0x1
 4243 058d E0        		.byte	0xe0
 4244 058e 7200 0000 		.long	0x72
 4245 0592 0D        		.uleb128 0xd
 4246 0593 0000 0000 		.long	.LASF180
 4247 0597 01        		.byte	0x1
 4248 0598 E0        		.byte	0xe0
 4249 0599 7200 0000 		.long	0x72
 4250 059d 15        		.uleb128 0x15
 4251 059e 11        		.uleb128 0x11
 4252 059f 0000 0000 		.long	.LASF181
 4253 05a3 01        		.byte	0x1
 4254 05a4 E2        		.byte	0xe2
 4255 05a5 7D00 0000 		.long	0x7d
 4256 05a9 11        		.uleb128 0x11
 4257 05aa 0000 0000 		.long	.LASF182
 4258 05ae 01        		.byte	0x1
 4259 05af E2        		.byte	0xe2
 4260 05b0 7200 0000 		.long	0x72
 4261 05b4 00        		.byte	0x0
 4262 05b5 00        		.byte	0x0
 4263 05b6 14        		.uleb128 0x14
 4264 05b7 0000 0000 		.long	.LASF184
 4265 05bb 01        		.byte	0x1
 4266 05bc E6        		.byte	0xe6
 4267 05bd 01        		.byte	0x1
 4268 05be 7200 0000 		.long	0x72
 4269 05c2 01        		.byte	0x1
 4270 05c3 FF05 0000 		.long	0x5ff
 4271 05c7 0D        		.uleb128 0xd
 4272 05c8 0000 0000 		.long	.LASF178
 4273 05cc 01        		.byte	0x1
 4274 05cd E5        		.byte	0xe5
 4275 05ce 7200 0000 		.long	0x72
 4276 05d2 0D        		.uleb128 0xd
 4277 05d3 0000 0000 		.long	.LASF179
GAS LISTING C:\Users\ADMINI~1\AppData\Local\Temp/ccZjgOiQ.s 			page 78


 4278 05d7 01        		.byte	0x1
 4279 05d8 E5        		.byte	0xe5
 4280 05d9 7200 0000 		.long	0x72
 4281 05dd 0D        		.uleb128 0xd
 4282 05de 0000 0000 		.long	.LASF180
 4283 05e2 01        		.byte	0x1
 4284 05e3 E5        		.byte	0xe5
 4285 05e4 7200 0000 		.long	0x72
 4286 05e8 11        		.uleb128 0x11
 4287 05e9 0000 0000 		.long	.LASF185
 4288 05ed 01        		.byte	0x1
 4289 05ee E7        		.byte	0xe7
 4290 05ef 7200 0000 		.long	0x72
 4291 05f3 11        		.uleb128 0x11
 4292 05f4 0000 0000 		.long	.LASF186
 4293 05f8 01        		.byte	0x1
 4294 05f9 E8        		.byte	0xe8
 4295 05fa 7D00 0000 		.long	0x7d
 4296 05fe 00        		.byte	0x0
 4297 05ff 0F        		.uleb128 0xf
 4298 0600 01        		.byte	0x1
 4299 0601 0000 0000 		.long	.LASF188
 4300 0605 01        		.byte	0x1
 4301 0606 F6        		.byte	0xf6
 4302 0607 01        		.byte	0x1
 4303 0608 7200 0000 		.long	0x72
 4304 060c 01        		.byte	0x1
 4305 060d 2406 0000 		.long	0x624
 4306 0611 0D        		.uleb128 0xd
 4307 0612 0000 0000 		.long	.LASF171
 4308 0616 01        		.byte	0x1
 4309 0617 F6        		.byte	0xf6
 4310 0618 7200 0000 		.long	0x72
 4311 061c 15        		.uleb128 0x15
 4312 061d 16        		.uleb128 0x16
 4313 061e 1305 0000 		.long	0x513
 4314 0622 00        		.byte	0x0
 4315 0623 00        		.byte	0x0
 4316 0624 0E        		.uleb128 0xe
 4317 0625 01        		.byte	0x1
 4318 0626 0000 0000 		.long	.LASF190
 4319 062a 01        		.byte	0x1
 4320 062b 6A        		.byte	0x6a
 4321 062c 01        		.byte	0x1
 4322 062d 7200 0000 		.long	0x72
 4323 0631 01        		.byte	0x1
 4324 0632 17        		.uleb128 0x17
 4325 0633 0000 0000 		.long	.LASF192
 4326 0637 01        		.byte	0x1
 4327 0638 8E        		.byte	0x8e
 4328 0639 01        		.byte	0x1
 4329 063a 01        		.byte	0x1
 4330 063b 10        		.uleb128 0x10
 4331 063c 01        		.byte	0x1
 4332 063d 0000 0000 		.long	.LASF194
 4333 0641 01        		.byte	0x1
 4334 0642 63        		.byte	0x63
GAS LISTING C:\Users\ADMINI~1\AppData\Local\Temp/ccZjgOiQ.s 			page 79


 4335 0643 01        		.byte	0x1
 4336 0644 01        		.byte	0x1
 4337 0645 18        		.uleb128 0x18
 4338 0646 3B06 0000 		.long	0x63b
 4339 064a 0000 0000 		.long	.LFB8
 4340 064e 0000 0000 		.long	.LFE8
 4341 0652 02        		.byte	0x2
 4342 0653 90        		.byte	0x90
 4343 0654 20        		.uleb128 0x20
 4344 0655 18        		.uleb128 0x18
 4345 0656 F304 0000 		.long	0x4f3
 4346 065a 0000 0000 		.long	.LFB9
 4347 065e 0000 0000 		.long	.LFE9
 4348 0662 02        		.byte	0x2
 4349 0663 90        		.byte	0x90
 4350 0664 20        		.uleb128 0x20
 4351 0665 18        		.uleb128 0x18
 4352 0666 2406 0000 		.long	0x624
 4353 066a 0000 0000 		.long	.LFB10
 4354 066e 0000 0000 		.long	.LFE10
 4355 0672 02        		.byte	0x2
 4356 0673 90        		.byte	0x90
 4357 0674 20        		.uleb128 0x20
 4358 0675 19        		.uleb128 0x19
 4359 0676 01        		.byte	0x1
 4360 0677 0000 0000 		.long	.LASF204
 4361 067b 01        		.byte	0x1
 4362 067c 6E        		.byte	0x6e
 4363 067d 01        		.byte	0x1
 4364 067e 0000 0000 		.long	.LFB11
 4365 0682 0000 0000 		.long	.LFE11
 4366 0686 02        		.byte	0x2
 4367 0687 90        		.byte	0x90
 4368 0688 20        		.uleb128 0x20
 4369 0689 9D06 0000 		.long	0x69d
 4370 068d 1A        		.uleb128 0x1a
 4371 068e 0000 0000 		.long	.LASF197
 4372 0692 01        		.byte	0x1
 4373 0693 6E        		.byte	0x6e
 4374 0694 7200 0000 		.long	0x72
 4375 0698 0000 0000 		.long	.LLST4
 4376 069c 00        		.byte	0x0
 4377 069d 1B        		.uleb128 0x1b
 4378 069e 01        		.byte	0x1
 4379 069f 0000 0000 		.long	.LASF303
 4380 06a3 01        		.byte	0x1
 4381 06a4 94        		.byte	0x94
 4382 06a5 01        		.byte	0x1
 4383 06a6 7200 0000 		.long	0x72
 4384 06aa 0000 0000 		.long	.LFB14
 4385 06ae 0000 0000 		.long	.LFE14
 4386 06b2 02        		.byte	0x2
 4387 06b3 90        		.byte	0x90
 4388 06b4 20        		.uleb128 0x20
 4389 06b5 1C        		.uleb128 0x1c
 4390 06b6 01        		.byte	0x1
 4391 06b7 0000 0000 		.long	.LASF195
GAS LISTING C:\Users\ADMINI~1\AppData\Local\Temp/ccZjgOiQ.s 			page 80


 4392 06bb 01        		.byte	0x1
 4393 06bc 9A        		.byte	0x9a
 4394 06bd 01        		.byte	0x1
 4395 06be 0000 0000 		.long	.LFB15
 4396 06c2 0000 0000 		.long	.LFE15
 4397 06c6 02        		.byte	0x2
 4398 06c7 90        		.byte	0x90
 4399 06c8 20        		.uleb128 0x20
 4400 06c9 18        		.uleb128 0x18
 4401 06ca 1F05 0000 		.long	0x51f
 4402 06ce 0000 0000 		.long	.LFB18
 4403 06d2 0000 0000 		.long	.LFE18
 4404 06d6 02        		.byte	0x2
 4405 06d7 90        		.byte	0x90
 4406 06d8 20        		.uleb128 0x20
 4407 06d9 1D        		.uleb128 0x1d
 4408 06da 0105 0000 		.long	0x501
 4409 06de 0000 0000 		.long	.LFB23
 4410 06e2 0000 0000 		.long	.LFE23
 4411 06e6 02        		.byte	0x2
 4412 06e7 90        		.byte	0x90
 4413 06e8 20        		.uleb128 0x20
 4414 06e9 F706 0000 		.long	0x6f7
 4415 06ed 1E        		.uleb128 0x1e
 4416 06ee 1305 0000 		.long	0x513
 4417 06f2 0000 0000 		.long	.LLST9
 4418 06f6 00        		.byte	0x0
 4419 06f7 1D        		.uleb128 0x1d
 4420 06f8 FF05 0000 		.long	0x5ff
 4421 06fc 0000 0000 		.long	.LFB24
 4422 0700 0000 0000 		.long	.LFE24
 4423 0704 02        		.byte	0x2
 4424 0705 90        		.byte	0x90
 4425 0706 20        		.uleb128 0x20
 4426 0707 2A07 0000 		.long	0x72a
 4427 070b 1E        		.uleb128 0x1e
 4428 070c 1106 0000 		.long	0x611
 4429 0710 0000 0000 		.long	.LLST11
 4430 0714 1F        		.uleb128 0x1f
 4431 0715 0105 0000 		.long	0x501
 4432 0719 0000 0000 		.long	.LBB69
 4433 071d 0000 0000 		.long	.LBE69
 4434 0721 01        		.byte	0x1
 4435 0722 F7        		.byte	0xf7
 4436 0723 16        		.uleb128 0x16
 4437 0724 ED06 0000 		.long	0x6ed
 4438 0728 00        		.byte	0x0
 4439 0729 00        		.byte	0x0
 4440 072a 20        		.uleb128 0x20
 4441 072b 0000 0000 		.long	.LASF304
 4442 072f 01        		.byte	0x1
 4443 0730 2E01      		.word	0x12e
 4444 0732 01        		.byte	0x1
 4445 0733 0000 0000 		.long	.LFB27
 4446 0737 0000 0000 		.long	.LFE27
 4447 073b 02        		.byte	0x2
 4448 073c 90        		.byte	0x90
GAS LISTING C:\Users\ADMINI~1\AppData\Local\Temp/ccZjgOiQ.s 			page 81


 4449 073d 20        		.uleb128 0x20
 4450 073e 21        		.uleb128 0x21
 4451 073f 01        		.byte	0x1
 4452 0740 0000 0000 		.long	.LASF196
 4453 0744 01        		.byte	0x1
 4454 0745 7C02      		.word	0x27c
 4455 0747 01        		.byte	0x1
 4456 0748 0000 0000 		.long	.LFB46
 4457 074c 0000 0000 		.long	.LFE46
 4458 0750 02        		.byte	0x2
 4459 0751 90        		.byte	0x90
 4460 0752 20        		.uleb128 0x20
 4461 0753 22        		.uleb128 0x22
 4462 0754 0000 0000 		.long	.LASF199
 4463 0758 01        		.byte	0x1
 4464 0759 1B01      		.word	0x11b
 4465 075b 01        		.byte	0x1
 4466 075c 0000 0000 		.long	.LFB26
 4467 0760 0000 0000 		.long	.LFE26
 4468 0764 02        		.byte	0x2
 4469 0765 90        		.byte	0x90
 4470 0766 20        		.uleb128 0x20
 4471 0767 8807 0000 		.long	0x788
 4472 076b 23        		.uleb128 0x23
 4473 076c 0000 0000 		.long	.LASF198
 4474 0770 01        		.byte	0x1
 4475 0771 1A01      		.word	0x11a
 4476 0773 8E00 0000 		.long	0x8e
 4477 0777 0000 0000 		.long	.LLST15
 4478 077b 24        		.uleb128 0x24
 4479 077c 6B65 7900 		.string	"key"
 4480 0780 01        		.byte	0x1
 4481 0781 1D01      		.word	0x11d
 4482 0783 CF04 0000 		.long	0x4cf
 4483 0787 00        		.byte	0x0
 4484 0788 22        		.uleb128 0x22
 4485 0789 0000 0000 		.long	.LASF200
 4486 078d 01        		.byte	0x1
 4487 078e 3401      		.word	0x134
 4488 0790 01        		.byte	0x1
 4489 0791 0000 0000 		.long	.LFB28
 4490 0795 0000 0000 		.long	.LFE28
 4491 0799 02        		.byte	0x2
 4492 079a 90        		.byte	0x90
 4493 079b 20        		.uleb128 0x20
 4494 079c D807 0000 		.long	0x7d8
 4495 07a0 23        		.uleb128 0x23
 4496 07a1 0000 0000 		.long	.LASF201
 4497 07a5 01        		.byte	0x1
 4498 07a6 3301      		.word	0x133
 4499 07a8 8E00 0000 		.long	0x8e
 4500 07ac 0000 0000 		.long	.LLST17
 4501 07b0 24        		.uleb128 0x24
 4502 07b1 6300      		.string	"c"
 4503 07b3 01        		.byte	0x1
 4504 07b4 3501      		.word	0x135
 4505 07b6 6400 0000 		.long	0x64
GAS LISTING C:\Users\ADMINI~1\AppData\Local\Temp/ccZjgOiQ.s 			page 82


 4506 07ba 25        		.uleb128 0x25
 4507 07bb 0000 0000 		.long	.LASF202
 4508 07bf 01        		.byte	0x1
 4509 07c0 3601      		.word	0x136
 4510 07c2 D807 0000 		.long	0x7d8
 4511 07c6 02        		.byte	0x2
 4512 07c7 8C        		.byte	0x8c
 4513 07c8 01        		.sleb128 1
 4514 07c9 26        		.uleb128 0x26
 4515 07ca 6900      		.string	"i"
 4516 07cc 01        		.byte	0x1
 4517 07cd 3701      		.word	0x137
 4518 07cf 7200 0000 		.long	0x72
 4519 07d3 0000 0000 		.long	.LLST18
 4520 07d7 00        		.byte	0x0
 4521 07d8 27        		.uleb128 0x27
 4522 07d9 6400 0000 		.long	0x64
 4523 07dd E807 0000 		.long	0x7e8
 4524 07e1 28        		.uleb128 0x28
 4525 07e2 E807 0000 		.long	0x7e8
 4526 07e6 00        		.byte	0x0
 4527 07e7 00        		.byte	0x0
 4528 07e8 05        		.uleb128 0x5
 4529 07e9 02        		.byte	0x2
 4530 07ea 07        		.byte	0x7
 4531 07eb 22        		.uleb128 0x22
 4532 07ec 0000 0000 		.long	.LASF203
 4533 07f0 01        		.byte	0x1
 4534 07f1 4201      		.word	0x142
 4535 07f3 01        		.byte	0x1
 4536 07f4 0000 0000 		.long	.LFB29
 4537 07f8 0000 0000 		.long	.LFE29
 4538 07fc 02        		.byte	0x2
 4539 07fd 90        		.byte	0x90
 4540 07fe 20        		.uleb128 0x20
 4541 07ff 5B08 0000 		.long	0x85b
 4542 0803 29        		.uleb128 0x29
 4543 0804 7374 7200 		.string	"str"
 4544 0808 01        		.byte	0x1
 4545 0809 4101      		.word	0x141
 4546 080b 5B08 0000 		.long	0x85b
 4547 080f 0000 0000 		.long	.LLST20
 4548 0813 26        		.uleb128 0x26
 4549 0814 6300      		.string	"c"
 4550 0816 01        		.byte	0x1
 4551 0817 4301      		.word	0x143
 4552 0819 6400 0000 		.long	0x64
 4553 081d 0000 0000 		.long	.LLST21
 4554 0821 25        		.uleb128 0x25
 4555 0822 0000 0000 		.long	.LASF202
 4556 0826 01        		.byte	0x1
 4557 0827 4401      		.word	0x144
 4558 0829 D807 0000 		.long	0x7d8
 4559 082d 02        		.byte	0x2
 4560 082e 8C        		.byte	0x8c
 4561 082f 01        		.sleb128 1
 4562 0830 2A        		.uleb128 0x2a
GAS LISTING C:\Users\ADMINI~1\AppData\Local\Temp/ccZjgOiQ.s 			page 83


 4563 0831 0000 0000 		.long	.LBB71
 4564 0835 0000 0000 		.long	.LBE71
 4565 0839 2B        		.uleb128 0x2b
 4566 083a 0000 0000 		.long	.LASF181
 4567 083e 01        		.byte	0x1
 4568 083f 4701      		.word	0x147
 4569 0841 7D00 0000 		.long	0x7d
 4570 0845 0000 0000 		.long	.LLST22
 4571 0849 2B        		.uleb128 0x2b
 4572 084a 0000 0000 		.long	.LASF182
 4573 084e 01        		.byte	0x1
 4574 084f 4701      		.word	0x147
 4575 0851 7200 0000 		.long	0x72
 4576 0855 0000 0000 		.long	.LLST23
 4577 0859 00        		.byte	0x0
 4578 085a 00        		.byte	0x0
 4579 085b 06        		.uleb128 0x6
 4580 085c 02        		.byte	0x2
 4581 085d 6108 0000 		.long	0x861
 4582 0861 2C        		.uleb128 0x2c
 4583 0862 6400 0000 		.long	0x64
 4584 0866 2D        		.uleb128 0x2d
 4585 0867 01        		.byte	0x1
 4586 0868 0000 0000 		.long	.LASF205
 4587 086c 01        		.byte	0x1
 4588 086d 6C02      		.word	0x26c
 4589 086f 01        		.byte	0x1
 4590 0870 0000 0000 		.long	.LFB45
 4591 0874 0000 0000 		.long	.LFE45
 4592 0878 02        		.byte	0x2
 4593 0879 90        		.byte	0x90
 4594 087a 20        		.uleb128 0x20
 4595 087b 9408 0000 		.long	0x894
 4596 087f 24        		.uleb128 0x24
 4597 0880 6B00      		.string	"k"
 4598 0882 01        		.byte	0x1
 4599 0883 7002      		.word	0x270
 4600 0885 7200 0000 		.long	0x72
 4601 0889 24        		.uleb128 0x24
 4602 088a 6A00      		.string	"j"
 4603 088c 01        		.byte	0x1
 4604 088d 7002      		.word	0x270
 4605 088f 7200 0000 		.long	0x72
 4606 0893 00        		.byte	0x0
 4607 0894 21        		.uleb128 0x21
 4608 0895 01        		.byte	0x1
 4609 0896 0000 0000 		.long	.LASF206
 4610 089a 01        		.byte	0x1
 4611 089b 6102      		.word	0x261
 4612 089d 01        		.byte	0x1
 4613 089e 0000 0000 		.long	.LFB44
 4614 08a2 0000 0000 		.long	.LFE44
 4615 08a6 02        		.byte	0x2
 4616 08a7 90        		.byte	0x90
 4617 08a8 20        		.uleb128 0x20
 4618 08a9 2D        		.uleb128 0x2d
 4619 08aa 01        		.byte	0x1
GAS LISTING C:\Users\ADMINI~1\AppData\Local\Temp/ccZjgOiQ.s 			page 84


 4620 08ab 0000 0000 		.long	.LASF207
 4621 08af 01        		.byte	0x1
 4622 08b0 0D02      		.word	0x20d
 4623 08b2 01        		.byte	0x1
 4624 08b3 0000 0000 		.long	.LFB39
 4625 08b7 0000 0000 		.long	.LFE39
 4626 08bb 02        		.byte	0x2
 4627 08bc 90        		.byte	0x90
 4628 08bd 20        		.uleb128 0x20
 4629 08be D308 0000 		.long	0x8d3
 4630 08c2 2E        		.uleb128 0x2e
 4631 08c3 1F05 0000 		.long	0x51f
 4632 08c7 0000 0000 		.long	.LBB72
 4633 08cb 0000 0000 		.long	.LBE72
 4634 08cf 01        		.byte	0x1
 4635 08d0 0F02      		.word	0x20f
 4636 08d2 00        		.byte	0x0
 4637 08d3 2F        		.uleb128 0x2f
 4638 08d4 01        		.byte	0x1
 4639 08d5 0000 0000 		.long	.LASF208
 4640 08d9 01        		.byte	0x1
 4641 08da CC01      		.word	0x1cc
 4642 08dc 0000 0000 		.long	.LFB35
 4643 08e0 0000 0000 		.long	.LFE35
 4644 08e4 02        		.byte	0x2
 4645 08e5 90        		.byte	0x90
 4646 08e6 20        		.uleb128 0x20
 4647 08e7 21        		.uleb128 0x21
 4648 08e8 01        		.byte	0x1
 4649 08e9 0000 0000 		.long	.LASF209
 4650 08ed 01        		.byte	0x1
 4651 08ee BC01      		.word	0x1bc
 4652 08f0 01        		.byte	0x1
 4653 08f1 0000 0000 		.long	.LFB34
 4654 08f5 0000 0000 		.long	.LFE34
 4655 08f9 02        		.byte	0x2
 4656 08fa 90        		.byte	0x90
 4657 08fb 20        		.uleb128 0x20
 4658 08fc 22        		.uleb128 0x22
 4659 08fd 0000 0000 		.long	.LASF210
 4660 0901 01        		.byte	0x1
 4661 0902 4E01      		.word	0x14e
 4662 0904 01        		.byte	0x1
 4663 0905 0000 0000 		.long	.LFB30
 4664 0909 0000 0000 		.long	.LFE30
 4665 090d 02        		.byte	0x2
 4666 090e 90        		.byte	0x90
 4667 090f 20        		.uleb128 0x20
 4668 0910 6E09 0000 		.long	0x96e
 4669 0914 30        		.uleb128 0x30
 4670 0915 0000 0000 		.long	.LASF211
 4671 0919 01        		.byte	0x1
 4672 091a 4F01      		.word	0x14f
 4673 091c D807 0000 		.long	0x7d8
 4674 0920 31        		.uleb128 0x31
 4675 0921 2905 0000 		.long	0x529
 4676 0925 0000 0000 		.long	.LBB74
GAS LISTING C:\Users\ADMINI~1\AppData\Local\Temp/ccZjgOiQ.s 			page 85


 4677 0929 0000 0000 		.long	.LBE74
 4678 092d 01        		.byte	0x1
 4679 092e 8C01      		.word	0x18c
 4680 0930 16        		.uleb128 0x16
 4681 0931 3605 0000 		.long	0x536
 4682 0935 2A        		.uleb128 0x2a
 4683 0936 0000 0000 		.long	.LBB75
 4684 093a 0000 0000 		.long	.LBE75
 4685 093e 32        		.uleb128 0x32
 4686 093f 4105 0000 		.long	0x541
 4687 0943 06        		.byte	0x6
 4688 0944 68        		.byte	0x68
 4689 0945 93        		.byte	0x93
 4690 0946 01        		.uleb128 0x1
 4691 0947 69        		.byte	0x69
 4692 0948 93        		.byte	0x93
 4693 0949 01        		.uleb128 0x1
 4694 094a 33        		.uleb128 0x33
 4695 094b 4C05 0000 		.long	0x54c
 4696 094f 1F        		.uleb128 0x1f
 4697 0950 DA04 0000 		.long	0x4da
 4698 0954 0000 0000 		.long	.LBB76
 4699 0958 0000 0000 		.long	.LBE76
 4700 095c 03        		.byte	0x3
 4701 095d 7B        		.byte	0x7b
 4702 095e 34        		.uleb128 0x34
 4703 095f E704 0000 		.long	0x4e7
 4704 0963 06        		.byte	0x6
 4705 0964 6E        		.byte	0x6e
 4706 0965 93        		.byte	0x93
 4707 0966 01        		.uleb128 0x1
 4708 0967 6F        		.byte	0x6f
 4709 0968 93        		.byte	0x93
 4710 0969 01        		.uleb128 0x1
 4711 096a 00        		.byte	0x0
 4712 096b 00        		.byte	0x0
 4713 096c 00        		.byte	0x0
 4714 096d 00        		.byte	0x0
 4715 096e 21        		.uleb128 0x21
 4716 096f 01        		.byte	0x1
 4717 0970 0000 0000 		.long	.LASF212
 4718 0974 01        		.byte	0x1
 4719 0975 8F01      		.word	0x18f
 4720 0977 01        		.byte	0x1
 4721 0978 0000 0000 		.long	.LFB31
 4722 097c 0000 0000 		.long	.LFE31
 4723 0980 02        		.byte	0x2
 4724 0981 90        		.byte	0x90
 4725 0982 20        		.uleb128 0x20
 4726 0983 21        		.uleb128 0x21
 4727 0984 01        		.byte	0x1
 4728 0985 0000 0000 		.long	.LASF213
 4729 0989 01        		.byte	0x1
 4730 098a 9F01      		.word	0x19f
 4731 098c 01        		.byte	0x1
 4732 098d 0000 0000 		.long	.LFB32
 4733 0991 0000 0000 		.long	.LFE32
GAS LISTING C:\Users\ADMINI~1\AppData\Local\Temp/ccZjgOiQ.s 			page 86


 4734 0995 02        		.byte	0x2
 4735 0996 90        		.byte	0x90
 4736 0997 20        		.uleb128 0x20
 4737 0998 2D        		.uleb128 0x2d
 4738 0999 01        		.byte	0x1
 4739 099a 0000 0000 		.long	.LASF214
 4740 099e 01        		.byte	0x1
 4741 099f 5302      		.word	0x253
 4742 09a1 01        		.byte	0x1
 4743 09a2 0000 0000 		.long	.LFB43
 4744 09a6 0000 0000 		.long	.LFE43
 4745 09aa 02        		.byte	0x2
 4746 09ab 90        		.byte	0x90
 4747 09ac 20        		.uleb128 0x20
 4748 09ad C809 0000 		.long	0x9c8
 4749 09b1 30        		.uleb128 0x30
 4750 09b2 0000 0000 		.long	.LASF215
 4751 09b6 01        		.byte	0x1
 4752 09b7 5402      		.word	0x254
 4753 09b9 7D00 0000 		.long	0x7d
 4754 09bd 24        		.uleb128 0x24
 4755 09be 6B00      		.string	"k"
 4756 09c0 01        		.byte	0x1
 4757 09c1 5502      		.word	0x255
 4758 09c3 6B00 0000 		.long	0x6b
 4759 09c7 00        		.byte	0x0
 4760 09c8 2D        		.uleb128 0x2d
 4761 09c9 01        		.byte	0x1
 4762 09ca 0000 0000 		.long	.LASF216
 4763 09ce 01        		.byte	0x1
 4764 09cf 4002      		.word	0x240
 4765 09d1 01        		.byte	0x1
 4766 09d2 0000 0000 		.long	.LFB42
 4767 09d6 0000 0000 		.long	.LFE42
 4768 09da 02        		.byte	0x2
 4769 09db 90        		.byte	0x90
 4770 09dc 20        		.uleb128 0x20
 4771 09dd 100A 0000 		.long	0xa10
 4772 09e1 30        		.uleb128 0x30
 4773 09e2 0000 0000 		.long	.LASF217
 4774 09e6 01        		.byte	0x1
 4775 09e7 4402      		.word	0x244
 4776 09e9 7200 0000 		.long	0x72
 4777 09ed 30        		.uleb128 0x30
 4778 09ee 0000 0000 		.long	.LASF215
 4779 09f2 01        		.byte	0x1
 4780 09f3 4502      		.word	0x245
 4781 09f5 7D00 0000 		.long	0x7d
 4782 09f9 30        		.uleb128 0x30
 4783 09fa 0000 0000 		.long	.LASF218
 4784 09fe 01        		.byte	0x1
 4785 09ff 4602      		.word	0x246
 4786 0a01 100A 0000 		.long	0xa10
 4787 0a05 24        		.uleb128 0x24
 4788 0a06 6B00      		.string	"k"
 4789 0a08 01        		.byte	0x1
 4790 0a09 4702      		.word	0x247
GAS LISTING C:\Users\ADMINI~1\AppData\Local\Temp/ccZjgOiQ.s 			page 87


 4791 0a0b 7200 0000 		.long	0x72
 4792 0a0f 00        		.byte	0x0
 4793 0a10 27        		.uleb128 0x27
 4794 0a11 7200 0000 		.long	0x72
 4795 0a15 200A 0000 		.long	0xa20
 4796 0a19 28        		.uleb128 0x28
 4797 0a1a E807 0000 		.long	0x7e8
 4798 0a1e 1F        		.byte	0x1f
 4799 0a1f 00        		.byte	0x0
 4800 0a20 2D        		.uleb128 0x2d
 4801 0a21 01        		.byte	0x1
 4802 0a22 0000 0000 		.long	.LASF219
 4803 0a26 01        		.byte	0x1
 4804 0a27 2D02      		.word	0x22d
 4805 0a29 01        		.byte	0x1
 4806 0a2a 0000 0000 		.long	.LFB41
 4807 0a2e 0000 0000 		.long	.LFE41
 4808 0a32 02        		.byte	0x2
 4809 0a33 90        		.byte	0x90
 4810 0a34 20        		.uleb128 0x20
 4811 0a35 7C0A 0000 		.long	0xa7c
 4812 0a39 23        		.uleb128 0x23
 4813 0a3a 0000 0000 		.long	.LASF220
 4814 0a3e 01        		.byte	0x1
 4815 0a3f 2D02      		.word	0x22d
 4816 0a41 7200 0000 		.long	0x72
 4817 0a45 0000 0000 		.long	.LLST35
 4818 0a49 30        		.uleb128 0x30
 4819 0a4a 0000 0000 		.long	.LASF215
 4820 0a4e 01        		.byte	0x1
 4821 0a4f 3102      		.word	0x231
 4822 0a51 7D00 0000 		.long	0x7d
 4823 0a55 2B        		.uleb128 0x2b
 4824 0a56 0000 0000 		.long	.LASF217
 4825 0a5a 01        		.byte	0x1
 4826 0a5b 3202      		.word	0x232
 4827 0a5d 7200 0000 		.long	0x72
 4828 0a61 0000 0000 		.long	.LLST36
 4829 0a65 30        		.uleb128 0x30
 4830 0a66 0000 0000 		.long	.LASF218
 4831 0a6a 01        		.byte	0x1
 4832 0a6b 3302      		.word	0x233
 4833 0a6d 100A 0000 		.long	0xa10
 4834 0a71 24        		.uleb128 0x24
 4835 0a72 6B00      		.string	"k"
 4836 0a74 01        		.byte	0x1
 4837 0a75 3402      		.word	0x234
 4838 0a77 7200 0000 		.long	0x72
 4839 0a7b 00        		.byte	0x0
 4840 0a7c 2D        		.uleb128 0x2d
 4841 0a7d 01        		.byte	0x1
 4842 0a7e 0000 0000 		.long	.LASF221
 4843 0a82 01        		.byte	0x1
 4844 0a83 D201      		.word	0x1d2
 4845 0a85 01        		.byte	0x1
 4846 0a86 0000 0000 		.long	.LFB36
 4847 0a8a 0000 0000 		.long	.LFE36
GAS LISTING C:\Users\ADMINI~1\AppData\Local\Temp/ccZjgOiQ.s 			page 88


 4848 0a8e 02        		.byte	0x2
 4849 0a8f 90        		.byte	0x90
 4850 0a90 20        		.uleb128 0x20
 4851 0a91 B60A 0000 		.long	0xab6
 4852 0a95 30        		.uleb128 0x30
 4853 0a96 0000 0000 		.long	.LASF215
 4854 0a9a 01        		.byte	0x1
 4855 0a9b D301      		.word	0x1d3
 4856 0a9d 7D00 0000 		.long	0x7d
 4857 0aa1 24        		.uleb128 0x24
 4858 0aa2 6B00      		.string	"k"
 4859 0aa4 01        		.byte	0x1
 4860 0aa5 D401      		.word	0x1d4
 4861 0aa7 7200 0000 		.long	0x72
 4862 0aab 24        		.uleb128 0x24
 4863 0aac 6A00      		.string	"j"
 4864 0aae 01        		.byte	0x1
 4865 0aaf D401      		.word	0x1d4
 4866 0ab1 7200 0000 		.long	0x72
 4867 0ab5 00        		.byte	0x0
 4868 0ab6 2D        		.uleb128 0x2d
 4869 0ab7 01        		.byte	0x1
 4870 0ab8 0000 0000 		.long	.LASF222
 4871 0abc 01        		.byte	0x1
 4872 0abd 8302      		.word	0x283
 4873 0abf 01        		.byte	0x1
 4874 0ac0 0000 0000 		.long	.LFB47
 4875 0ac4 0000 0000 		.long	.LFE47
 4876 0ac8 02        		.byte	0x2
 4877 0ac9 90        		.byte	0x90
 4878 0aca 20        		.uleb128 0x20
 4879 0acb 690C 0000 		.long	0xc69
 4880 0acf 23        		.uleb128 0x23
 4881 0ad0 0000 0000 		.long	.LASF171
 4882 0ad4 01        		.byte	0x1
 4883 0ad5 8202      		.word	0x282
 4884 0ad7 7200 0000 		.long	0x72
 4885 0adb 0000 0000 		.long	.LLST39
 4886 0adf 23        		.uleb128 0x23
 4887 0ae0 0000 0000 		.long	.LASF180
 4888 0ae4 01        		.byte	0x1
 4889 0ae5 8202      		.word	0x282
 4890 0ae7 7200 0000 		.long	0x72
 4891 0aeb 0000 0000 		.long	.LLST40
 4892 0aef 23        		.uleb128 0x23
 4893 0af0 0000 0000 		.long	.LASF179
 4894 0af4 01        		.byte	0x1
 4895 0af5 8202      		.word	0x282
 4896 0af7 7200 0000 		.long	0x72
 4897 0afb 0000 0000 		.long	.LLST41
 4898 0aff 23        		.uleb128 0x23
 4899 0b00 0000 0000 		.long	.LASF223
 4900 0b04 01        		.byte	0x1
 4901 0b05 8202      		.word	0x282
 4902 0b07 7200 0000 		.long	0x72
 4903 0b0b 0000 0000 		.long	.LLST42
 4904 0b0f 26        		.uleb128 0x26
GAS LISTING C:\Users\ADMINI~1\AppData\Local\Temp/ccZjgOiQ.s 			page 89


 4905 0b10 636D 6400 		.string	"cmd"
 4906 0b14 01        		.byte	0x1
 4907 0b15 8B02      		.word	0x28b
 4908 0b17 7200 0000 		.long	0x72
 4909 0b1b 0000 0000 		.long	.LLST43
 4910 0b1f 2B        		.uleb128 0x2b
 4911 0b20 0000 0000 		.long	.LASF224
 4912 0b24 01        		.byte	0x1
 4913 0b25 8B02      		.word	0x28b
 4914 0b27 7200 0000 		.long	0x72
 4915 0b2b 0000 0000 		.long	.LLST44
 4916 0b2f 2B        		.uleb128 0x2b
 4917 0b30 0000 0000 		.long	.LASF217
 4918 0b34 01        		.byte	0x1
 4919 0b35 8C02      		.word	0x28c
 4920 0b37 6B00 0000 		.long	0x6b
 4921 0b3b 0000 0000 		.long	.LLST45
 4922 0b3f 2B        		.uleb128 0x2b
 4923 0b40 0000 0000 		.long	.LASF185
 4924 0b44 01        		.byte	0x1
 4925 0b45 8D02      		.word	0x28d
 4926 0b47 6B00 0000 		.long	0x6b
 4927 0b4b 0000 0000 		.long	.LLST46
 4928 0b4f 25        		.uleb128 0x25
 4929 0b50 0000 0000 		.long	.LASF211
 4930 0b54 01        		.byte	0x1
 4931 0b55 8E02      		.word	0x28e
 4932 0b57 690C 0000 		.long	0xc69
 4933 0b5b 02        		.byte	0x2
 4934 0b5c 8C        		.byte	0x8c
 4935 0b5d 01        		.sleb128 1
 4936 0b5e 2B        		.uleb128 0x2b
 4937 0b5f 0000 0000 		.long	.LASF186
 4938 0b63 01        		.byte	0x1
 4939 0b64 8F02      		.word	0x28f
 4940 0b66 6B00 0000 		.long	0x6b
 4941 0b6a 0000 0000 		.long	.LLST47
 4942 0b6e 30        		.uleb128 0x30
 4943 0b6f 0000 0000 		.long	.LASF225
 4944 0b73 01        		.byte	0x1
 4945 0b74 9002      		.word	0x290
 4946 0b76 6B00 0000 		.long	0x6b
 4947 0b7a 2E        		.uleb128 0x2e
 4948 0b7b 6105 0000 		.long	0x561
 4949 0b7f 0000 0000 		.long	.LBB78
 4950 0b83 0000 0000 		.long	.LBE78
 4951 0b87 01        		.byte	0x1
 4952 0b88 E802      		.word	0x2e8
 4953 0b8a 2E        		.uleb128 0x2e
 4954 0b8b 1F05 0000 		.long	0x51f
 4955 0b8f 0000 0000 		.long	.LBB80
 4956 0b93 0000 0000 		.long	.LBE80
 4957 0b97 01        		.byte	0x1
 4958 0b98 0E03      		.word	0x30e
 4959 0b9a 35        		.uleb128 0x35
 4960 0b9b 2905 0000 		.long	0x529
 4961 0b9f 0000 0000 		.long	.LBB82
GAS LISTING C:\Users\ADMINI~1\AppData\Local\Temp/ccZjgOiQ.s 			page 90


 4962 0ba3 0000 0000 		.long	.LBE82
 4963 0ba7 01        		.byte	0x1
 4964 0ba8 4403      		.word	0x344
 4965 0baa E50B 0000 		.long	0xbe5
 4966 0bae 16        		.uleb128 0x16
 4967 0baf 3605 0000 		.long	0x536
 4968 0bb3 2A        		.uleb128 0x2a
 4969 0bb4 0000 0000 		.long	.LBB83
 4970 0bb8 0000 0000 		.long	.LBE83
 4971 0bbc 36        		.uleb128 0x36
 4972 0bbd 4105 0000 		.long	0x541
 4973 0bc1 0000 0000 		.long	.LLST48
 4974 0bc5 33        		.uleb128 0x33
 4975 0bc6 4C05 0000 		.long	0x54c
 4976 0bca 1F        		.uleb128 0x1f
 4977 0bcb DA04 0000 		.long	0x4da
 4978 0bcf 0000 0000 		.long	.LBB84
 4979 0bd3 0000 0000 		.long	.LBE84
 4980 0bd7 03        		.byte	0x3
 4981 0bd8 7B        		.byte	0x7b
 4982 0bd9 1E        		.uleb128 0x1e
 4983 0bda E704 0000 		.long	0x4e7
 4984 0bde 0000 0000 		.long	.LLST49
 4985 0be2 00        		.byte	0x0
 4986 0be3 00        		.byte	0x0
 4987 0be4 00        		.byte	0x0
 4988 0be5 35        		.uleb128 0x35
 4989 0be6 6B05 0000 		.long	0x56b
 4990 0bea 0000 0000 		.long	.LBB86
 4991 0bee 0000 0000 		.long	.LBE86
 4992 0bf2 01        		.byte	0x1
 4993 0bf3 6D03      		.word	0x36d
 4994 0bf5 210C 0000 		.long	0xc21
 4995 0bf9 16        		.uleb128 0x16
 4996 0bfa 9205 0000 		.long	0x592
 4997 0bfe 16        		.uleb128 0x16
 4998 0bff 8705 0000 		.long	0x587
 4999 0c03 16        		.uleb128 0x16
 5000 0c04 7C05 0000 		.long	0x57c
 5001 0c08 2A        		.uleb128 0x2a
 5002 0c09 0000 0000 		.long	.LBB88
 5003 0c0d 0000 0000 		.long	.LBE88
 5004 0c11 33        		.uleb128 0x33
 5005 0c12 9E05 0000 		.long	0x59e
 5006 0c16 36        		.uleb128 0x36
 5007 0c17 A905 0000 		.long	0x5a9
 5008 0c1b 0000 0000 		.long	.LLST50
 5009 0c1f 00        		.byte	0x0
 5010 0c20 00        		.byte	0x0
 5011 0c21 31        		.uleb128 0x31
 5012 0c22 2905 0000 		.long	0x529
 5013 0c26 0000 0000 		.long	.LBB89
 5014 0c2a 0000 0000 		.long	.LBE89
 5015 0c2e 01        		.byte	0x1
 5016 0c2f 9503      		.word	0x395
 5017 0c31 16        		.uleb128 0x16
 5018 0c32 3605 0000 		.long	0x536
GAS LISTING C:\Users\ADMINI~1\AppData\Local\Temp/ccZjgOiQ.s 			page 91


 5019 0c36 2A        		.uleb128 0x2a
 5020 0c37 0000 0000 		.long	.LBB90
 5021 0c3b 0000 0000 		.long	.LBE90
 5022 0c3f 36        		.uleb128 0x36
 5023 0c40 4105 0000 		.long	0x541
 5024 0c44 0000 0000 		.long	.LLST51
 5025 0c48 33        		.uleb128 0x33
 5026 0c49 4C05 0000 		.long	0x54c
 5027 0c4d 1F        		.uleb128 0x1f
 5028 0c4e DA04 0000 		.long	0x4da
 5029 0c52 0000 0000 		.long	.LBB91
 5030 0c56 0000 0000 		.long	.LBE91
 5031 0c5a 03        		.byte	0x3
 5032 0c5b 7B        		.byte	0x7b
 5033 0c5c 1E        		.uleb128 0x1e
 5034 0c5d E704 0000 		.long	0x4e7
 5035 0c61 0000 0000 		.long	.LLST52
 5036 0c65 00        		.byte	0x0
 5037 0c66 00        		.byte	0x0
 5038 0c67 00        		.byte	0x0
 5039 0c68 00        		.byte	0x0
 5040 0c69 27        		.uleb128 0x27
 5041 0c6a 6400 0000 		.long	0x64
 5042 0c6e 790C 0000 		.long	0xc79
 5043 0c72 28        		.uleb128 0x28
 5044 0c73 E807 0000 		.long	0x7e8
 5045 0c77 02        		.byte	0x2
 5046 0c78 00        		.byte	0x0
 5047 0c79 2D        		.uleb128 0x2d
 5048 0c7a 01        		.byte	0x1
 5049 0c7b 0000 0000 		.long	.LASF226
 5050 0c7f 01        		.byte	0x1
 5051 0c80 EC01      		.word	0x1ec
 5052 0c82 01        		.byte	0x1
 5053 0c83 0000 0000 		.long	.LFB38
 5054 0c87 0000 0000 		.long	.LFE38
 5055 0c8b 02        		.byte	0x2
 5056 0c8c 90        		.byte	0x90
 5057 0c8d 20        		.uleb128 0x20
 5058 0c8e CF0C 0000 		.long	0xccf
 5059 0c92 30        		.uleb128 0x30
 5060 0c93 0000 0000 		.long	.LASF217
 5061 0c97 01        		.byte	0x1
 5062 0c98 ED01      		.word	0x1ed
 5063 0c9a 7200 0000 		.long	0x72
 5064 0c9e 30        		.uleb128 0x30
 5065 0c9f 0000 0000 		.long	.LASF215
 5066 0ca3 01        		.byte	0x1
 5067 0ca4 EE01      		.word	0x1ee
 5068 0ca6 7D00 0000 		.long	0x7d
 5069 0caa 24        		.uleb128 0x24
 5070 0cab 6B00      		.string	"k"
 5071 0cad 01        		.byte	0x1
 5072 0cae EF01      		.word	0x1ef
 5073 0cb0 7200 0000 		.long	0x72
 5074 0cb4 24        		.uleb128 0x24
 5075 0cb5 6A00      		.string	"j"
GAS LISTING C:\Users\ADMINI~1\AppData\Local\Temp/ccZjgOiQ.s 			page 92


 5076 0cb7 01        		.byte	0x1
 5077 0cb8 EF01      		.word	0x1ef
 5078 0cba 7200 0000 		.long	0x72
 5079 0cbe 2E        		.uleb128 0x2e
 5080 0cbf 1F05 0000 		.long	0x51f
 5081 0cc3 0000 0000 		.long	.LBB93
 5082 0cc7 0000 0000 		.long	.LBE93
 5083 0ccb 01        		.byte	0x1
 5084 0ccc FD01      		.word	0x1fd
 5085 0cce 00        		.byte	0x0
 5086 0ccf 21        		.uleb128 0x21
 5087 0cd0 01        		.byte	0x1
 5088 0cd1 0000 0000 		.long	.LASF227
 5089 0cd5 01        		.byte	0x1
 5090 0cd6 E001      		.word	0x1e0
 5091 0cd8 01        		.byte	0x1
 5092 0cd9 0000 0000 		.long	.LFB37
 5093 0cdd 0000 0000 		.long	.LFE37
 5094 0ce1 02        		.byte	0x2
 5095 0ce2 90        		.byte	0x90
 5096 0ce3 20        		.uleb128 0x20
 5097 0ce4 37        		.uleb128 0x37
 5098 0ce5 01        		.byte	0x1
 5099 0ce6 0000 0000 		.long	.LASF228
 5100 0cea 01        		.byte	0x1
 5101 0ceb FE        		.byte	0xfe
 5102 0cec 01        		.byte	0x1
 5103 0ced 7200 0000 		.long	0x72
 5104 0cf1 0000 0000 		.long	.LFB25
 5105 0cf5 0000 0000 		.long	.LFE25
 5106 0cf9 02        		.byte	0x2
 5107 0cfa 90        		.byte	0x90
 5108 0cfb 20        		.uleb128 0x20
 5109 0cfc 930D 0000 		.long	0xd93
 5110 0d00 1A        		.uleb128 0x1a
 5111 0d01 0000 0000 		.long	.LASF178
 5112 0d05 01        		.byte	0x1
 5113 0d06 FD        		.byte	0xfd
 5114 0d07 7200 0000 		.long	0x72
 5115 0d0b 0000 0000 		.long	.LLST56
 5116 0d0f 1A        		.uleb128 0x1a
 5117 0d10 0000 0000 		.long	.LASF179
 5118 0d14 01        		.byte	0x1
 5119 0d15 FD        		.byte	0xfd
 5120 0d16 7200 0000 		.long	0x72
 5121 0d1a 0000 0000 		.long	.LLST57
 5122 0d1e 1A        		.uleb128 0x1a
 5123 0d1f 0000 0000 		.long	.LASF180
 5124 0d23 01        		.byte	0x1
 5125 0d24 FD        		.byte	0xfd
 5126 0d25 7200 0000 		.long	0x72
 5127 0d29 0000 0000 		.long	.LLST58
 5128 0d2d 38        		.uleb128 0x38
 5129 0d2e 0000 0000 		.long	.LASF185
 5130 0d32 01        		.byte	0x1
 5131 0d33 FF        		.byte	0xff
 5132 0d34 7200 0000 		.long	0x72
GAS LISTING C:\Users\ADMINI~1\AppData\Local\Temp/ccZjgOiQ.s 			page 93


 5133 0d38 01        		.byte	0x1
 5134 0d39 69        		.byte	0x69
 5135 0d3a 35        		.uleb128 0x35
 5136 0d3b B605 0000 		.long	0x5b6
 5137 0d3f 0000 0000 		.long	.LBB95
 5138 0d43 0000 0000 		.long	.LBE95
 5139 0d47 01        		.byte	0x1
 5140 0d48 0701      		.word	0x107
 5141 0d4a 5E0D 0000 		.long	0xd5e
 5142 0d4e 16        		.uleb128 0x16
 5143 0d4f DD05 0000 		.long	0x5dd
 5144 0d53 16        		.uleb128 0x16
 5145 0d54 D205 0000 		.long	0x5d2
 5146 0d58 16        		.uleb128 0x16
 5147 0d59 C705 0000 		.long	0x5c7
 5148 0d5d 00        		.byte	0x0
 5149 0d5e 31        		.uleb128 0x31
 5150 0d5f 6B05 0000 		.long	0x56b
 5151 0d63 0000 0000 		.long	.LBB96
 5152 0d67 0000 0000 		.long	.LBE96
 5153 0d6b 01        		.byte	0x1
 5154 0d6c 0F01      		.word	0x10f
 5155 0d6e 16        		.uleb128 0x16
 5156 0d6f 9205 0000 		.long	0x592
 5157 0d73 16        		.uleb128 0x16
 5158 0d74 8705 0000 		.long	0x587
 5159 0d78 16        		.uleb128 0x16
 5160 0d79 7C05 0000 		.long	0x57c
 5161 0d7d 2A        		.uleb128 0x2a
 5162 0d7e 0000 0000 		.long	.LBB98
 5163 0d82 0000 0000 		.long	.LBE98
 5164 0d86 33        		.uleb128 0x33
 5165 0d87 9E05 0000 		.long	0x59e
 5166 0d8b 33        		.uleb128 0x33
 5167 0d8c A905 0000 		.long	0x5a9
 5168 0d90 00        		.byte	0x0
 5169 0d91 00        		.byte	0x0
 5170 0d92 00        		.byte	0x0
 5171 0d93 39        		.uleb128 0x39
 5172 0d94 01        		.byte	0x1
 5173 0d95 0000 0000 		.long	.LASF229
 5174 0d99 01        		.byte	0x1
 5175 0d9a 1E02      		.word	0x21e
 5176 0d9c 01        		.byte	0x1
 5177 0d9d 7200 0000 		.long	0x72
 5178 0da1 0000 0000 		.long	.LFB40
 5179 0da5 0000 0000 		.long	.LFE40
 5180 0da9 02        		.byte	0x2
 5181 0daa 90        		.byte	0x90
 5182 0dab 20        		.uleb128 0x20
 5183 0dac E30D 0000 		.long	0xde3
 5184 0db0 23        		.uleb128 0x23
 5185 0db1 0000 0000 		.long	.LASF230
 5186 0db5 01        		.byte	0x1
 5187 0db6 1E02      		.word	0x21e
 5188 0db8 7200 0000 		.long	0x72
 5189 0dbc 0000 0000 		.long	.LLST60
GAS LISTING C:\Users\ADMINI~1\AppData\Local\Temp/ccZjgOiQ.s 			page 94


 5190 0dc0 30        		.uleb128 0x30
 5191 0dc1 0000 0000 		.long	.LASF231
 5192 0dc5 01        		.byte	0x1
 5193 0dc6 2102      		.word	0x221
 5194 0dc8 7200 0000 		.long	0x72
 5195 0dcc 31        		.uleb128 0x31
 5196 0dcd 0105 0000 		.long	0x501
 5197 0dd1 0000 0000 		.long	.LBB99
 5198 0dd5 0000 0000 		.long	.LBE99
 5199 0dd9 01        		.byte	0x1
 5200 0dda 2302      		.word	0x223
 5201 0ddc 16        		.uleb128 0x16
 5202 0ddd ED06 0000 		.long	0x6ed
 5203 0de1 00        		.byte	0x0
 5204 0de2 00        		.byte	0x0
 5205 0de3 19        		.uleb128 0x19
 5206 0de4 01        		.byte	0x1
 5207 0de5 0000 0000 		.long	.LASF232
 5208 0de9 01        		.byte	0x1
 5209 0dea AA        		.byte	0xaa
 5210 0deb 01        		.byte	0x1
 5211 0dec 0000 0000 		.long	.LFB17
 5212 0df0 0000 0000 		.long	.LFE17
 5213 0df4 02        		.byte	0x2
 5214 0df5 90        		.byte	0x90
 5215 0df6 20        		.uleb128 0x20
 5216 0df7 1A0E 0000 		.long	0xe1a
 5217 0dfb 3A        		.uleb128 0x3a
 5218 0dfc F304 0000 		.long	0x4f3
 5219 0e00 0000 0000 		.long	.LBB101
 5220 0e04 0000 0000 		.long	.LBE101
 5221 0e08 01        		.byte	0x1
 5222 0e09 AB        		.byte	0xab
 5223 0e0a 3A        		.uleb128 0x3a
 5224 0e0b 3206 0000 		.long	0x632
 5225 0e0f 0000 0000 		.long	.LBB103
 5226 0e13 0000 0000 		.long	.LBE103
 5227 0e17 01        		.byte	0x1
 5228 0e18 AC        		.byte	0xac
 5229 0e19 00        		.byte	0x0
 5230 0e1a 19        		.uleb128 0x19
 5231 0e1b 01        		.byte	0x1
 5232 0e1c 0000 0000 		.long	.LASF233
 5233 0e20 01        		.byte	0x1
 5234 0e21 7F        		.byte	0x7f
 5235 0e22 01        		.byte	0x1
 5236 0e23 0000 0000 		.long	.LFB12
 5237 0e27 0000 0000 		.long	.LFE12
 5238 0e2b 02        		.byte	0x2
 5239 0e2c 90        		.byte	0x90
 5240 0e2d 20        		.uleb128 0x20
 5241 0e2e 420E 0000 		.long	0xe42
 5242 0e32 3A        		.uleb128 0x3a
 5243 0e33 3B06 0000 		.long	0x63b
 5244 0e37 0000 0000 		.long	.LBB105
 5245 0e3b 0000 0000 		.long	.LBE105
 5246 0e3f 01        		.byte	0x1
GAS LISTING C:\Users\ADMINI~1\AppData\Local\Temp/ccZjgOiQ.s 			page 95


 5247 0e40 80        		.byte	0x80
 5248 0e41 00        		.byte	0x0
 5249 0e42 1C        		.uleb128 0x1c
 5250 0e43 01        		.byte	0x1
 5251 0e44 0000 0000 		.long	.LASF234
 5252 0e48 01        		.byte	0x1
 5253 0e49 BA        		.byte	0xba
 5254 0e4a 01        		.byte	0x1
 5255 0e4b 0000 0000 		.long	.LFB19
 5256 0e4f 0000 0000 		.long	.LFE19
 5257 0e53 02        		.byte	0x2
 5258 0e54 90        		.byte	0x90
 5259 0e55 20        		.uleb128 0x20
 5260 0e56 1C        		.uleb128 0x1c
 5261 0e57 01        		.byte	0x1
 5262 0e58 0000 0000 		.long	.LASF235
 5263 0e5c 01        		.byte	0x1
 5264 0e5d C2        		.byte	0xc2
 5265 0e5e 01        		.byte	0x1
 5266 0e5f 0000 0000 		.long	.LFB20
 5267 0e63 0000 0000 		.long	.LFE20
 5268 0e67 02        		.byte	0x2
 5269 0e68 90        		.byte	0x90
 5270 0e69 20        		.uleb128 0x20
 5271 0e6a 1C        		.uleb128 0x1c
 5272 0e6b 01        		.byte	0x1
 5273 0e6c 0000 0000 		.long	.LASF236
 5274 0e70 01        		.byte	0x1
 5275 0e71 A0        		.byte	0xa0
 5276 0e72 01        		.byte	0x1
 5277 0e73 0000 0000 		.long	.LFB16
 5278 0e77 0000 0000 		.long	.LFE16
 5279 0e7b 02        		.byte	0x2
 5280 0e7c 90        		.byte	0x90
 5281 0e7d 20        		.uleb128 0x20
 5282 0e7e 38        		.uleb128 0x38
 5283 0e7f 0000 0000 		.long	.LASF237
 5284 0e83 01        		.byte	0x1
 5285 0e84 42        		.byte	0x42
 5286 0e85 7200 0000 		.long	0x72
 5287 0e89 05        		.byte	0x5
 5288 0e8a 03        		.byte	0x3
 5289 0e8b 0000 0000 		.long	_isKeyMapping
 5290 0e8f 38        		.uleb128 0x38
 5291 0e90 0000 0000 		.long	.LASF238
 5292 0e94 01        		.byte	0x1
 5293 0e95 43        		.byte	0x43
 5294 0e96 7200 0000 		.long	0x72
 5295 0e9a 05        		.byte	0x5
 5296 0e9b 03        		.byte	0x3
 5297 0e9c 0000 0000 		.long	enabledKeyMappingCount
 5298 0ea0 38        		.uleb128 0x38
 5299 0ea1 0000 0000 		.long	.LASF239
 5300 0ea5 01        		.byte	0x1
 5301 0ea6 44        		.byte	0x44
 5302 0ea7 6B00 0000 		.long	0x6b
 5303 0eab 05        		.byte	0x5
GAS LISTING C:\Users\ADMINI~1\AppData\Local\Temp/ccZjgOiQ.s 			page 96


 5304 0eac 03        		.byte	0x3
 5305 0ead 0000 0000 		.long	keyMappingCount
 5306 0eb1 38        		.uleb128 0x38
 5307 0eb2 0000 0000 		.long	.LASF240
 5308 0eb6 01        		.byte	0x1
 5309 0eb7 45        		.byte	0x45
 5310 0eb8 7200 0000 		.long	0x72
 5311 0ebc 05        		.byte	0x5
 5312 0ebd 03        		.byte	0x3
 5313 0ebe 0000 0000 		.long	_keyMappingOnBoot
 5314 0ec2 38        		.uleb128 0x38
 5315 0ec3 0000 0000 		.long	.LASF241
 5316 0ec7 01        		.byte	0x1
 5317 0ec8 4F        		.byte	0x4f
 5318 0ec9 7200 0000 		.long	0x72
 5319 0ecd 05        		.byte	0x5
 5320 0ece 03        		.byte	0x3
 5321 0ecf 0000 0000 		.long	_mode
 5322 0ed3 38        		.uleb128 0x38
 5323 0ed4 0000 0000 		.long	.LASF242
 5324 0ed8 01        		.byte	0x1
 5325 0ed9 50        		.byte	0x50
 5326 0eda 7200 0000 		.long	0x72
 5327 0ede 05        		.byte	0x5
 5328 0edf 03        		.byte	0x3
 5329 0ee0 0000 0000 		.long	_step
 5330 0ee4 38        		.uleb128 0x38
 5331 0ee5 0000 0000 		.long	.LASF243
 5332 0ee9 01        		.byte	0x1
 5333 0eea 51        		.byte	0x51
 5334 0eeb 7200 0000 		.long	0x72
 5335 0eef 05        		.byte	0x5
 5336 0ef0 03        		.byte	0x3
 5337 0ef1 0000 0000 		.long	_stepAfterSave
 5338 0ef5 38        		.uleb128 0x38
 5339 0ef6 0000 0000 		.long	.LASF244
 5340 0efa 01        		.byte	0x1
 5341 0efb 52        		.byte	0x52
 5342 0efc 7200 0000 		.long	0x72
 5343 0f00 05        		.byte	0x5
 5344 0f01 03        		.byte	0x3
 5345 0f02 0000 0000 		.long	_wait
 5346 0f06 38        		.uleb128 0x38
 5347 0f07 0000 0000 		.long	.LASF245
 5348 0f0b 01        		.byte	0x1
 5349 0f0c 53        		.byte	0x53
 5350 0f0d 7200 0000 		.long	0x72
 5351 0f11 05        		.byte	0x5
 5352 0f12 03        		.byte	0x3
 5353 0f13 0000 0000 		.long	_col
 5354 0f17 38        		.uleb128 0x38
 5355 0f18 0000 0000 		.long	.LASF246
 5356 0f1c 01        		.byte	0x1
 5357 0f1d 53        		.byte	0x53
 5358 0f1e 7200 0000 		.long	0x72
 5359 0f22 05        		.byte	0x5
 5360 0f23 03        		.byte	0x3
GAS LISTING C:\Users\ADMINI~1\AppData\Local\Temp/ccZjgOiQ.s 			page 97


 5361 0f24 0000 0000 		.long	_row
 5362 0f28 27        		.uleb128 0x27
 5363 0f29 7200 0000 		.long	0x72
 5364 0f2d 380F 0000 		.long	0xf38
 5365 0f31 28        		.uleb128 0x28
 5366 0f32 E807 0000 		.long	0x7e8
 5367 0f36 02        		.byte	0x2
 5368 0f37 00        		.byte	0x0
 5369 0f38 38        		.uleb128 0x38
 5370 0f39 0000 0000 		.long	.LASF247
 5371 0f3d 01        		.byte	0x1
 5372 0f3e 54        		.byte	0x54
 5373 0f3f 280F 0000 		.long	0xf28
 5374 0f43 05        		.byte	0x5
 5375 0f44 03        		.byte	0x3
 5376 0f45 0000 0000 		.long	_buffer
 5377 0f49 38        		.uleb128 0x38
 5378 0f4a 0000 0000 		.long	.LASF248
 5379 0f4e 01        		.byte	0x1
 5380 0f4f 55        		.byte	0x55
 5381 0f50 7200 0000 		.long	0x72
 5382 0f54 05        		.byte	0x5
 5383 0f55 03        		.byte	0x3
 5384 0f56 0000 0000 		.long	_bufferIndex
 5385 0f5a 38        		.uleb128 0x38
 5386 0f5b 0000 0000 		.long	.LASF249
 5387 0f5f 01        		.byte	0x1
 5388 0f60 56        		.byte	0x56
 5389 0f61 6B00 0000 		.long	0x6b
 5390 0f65 05        		.byte	0x5
 5391 0f66 03        		.byte	0x3
 5392 0f67 0000 0000 		.long	_editCount
 5393 0f6b 38        		.uleb128 0x38
 5394 0f6c 0000 0000 		.long	.LASF250
 5395 0f70 01        		.byte	0x1
 5396 0f71 57        		.byte	0x57
 5397 0f72 7200 0000 		.long	0x72
 5398 0f76 05        		.byte	0x5
 5399 0f77 03        		.byte	0x3
 5400 0f78 0000 0000 		.long	_isWorkingForEmpty
 5401 0f7c 38        		.uleb128 0x38
 5402 0f7d 0000 0000 		.long	.LASF251
 5403 0f81 01        		.byte	0x1
 5404 0f82 5B        		.byte	0x5b
 5405 0f83 7200 0000 		.long	0x72
 5406 0f87 05        		.byte	0x5
 5407 0f88 03        		.byte	0x3
 5408 0f89 0000 0000 		.long	_currentLayer
 5409 0f8d 38        		.uleb128 0x38
 5410 0f8e 0000 0000 		.long	.LASF252
 5411 0f92 01        		.byte	0x1
 5412 0f93 5C        		.byte	0x5c
 5413 0f94 7200 0000 		.long	0x72
 5414 0f98 05        		.byte	0x5
 5415 0f99 03        		.byte	0x3
 5416 0f9a 0000 0000 		.long	_currentLayerAfter
 5417 0f9e 27        		.uleb128 0x27
GAS LISTING C:\Users\ADMINI~1\AppData\Local\Temp/ccZjgOiQ.s 			page 98


 5418 0f9f 7200 0000 		.long	0x72
 5419 0fa3 AE0F 0000 		.long	0xfae
 5420 0fa7 28        		.uleb128 0x28
 5421 0fa8 E807 0000 		.long	0x7e8
 5422 0fac 0A        		.byte	0xa
 5423 0fad 00        		.byte	0x0
 5424 0fae 38        		.uleb128 0x38
 5425 0faf 0000 0000 		.long	.LASF253
 5426 0fb3 01        		.byte	0x1
 5427 0fb4 5F        		.byte	0x5f
 5428 0fb5 9E0F 0000 		.long	0xf9e
 5429 0fb9 05        		.byte	0x5
 5430 0fba 03        		.byte	0x3
 5431 0fbb 0000 0000 		.long	usingKeys
 5432 0fbf 25        		.uleb128 0x25
 5433 0fc0 0000 0000 		.long	.LASF254
 5434 0fc4 01        		.byte	0x1
 5435 0fc5 7B02      		.word	0x27b
 5436 0fc7 7200 0000 		.long	0x72
 5437 0fcb 05        		.byte	0x5
 5438 0fcc 03        		.byte	0x3
 5439 0fcd 0000 0000 		.long	_macroDownCount
 5440 0fd1 3B        		.uleb128 0x3b
 5441 0fd2 0000 0000 		.long	.LASF255
 5442 0fd6 07        		.byte	0x7
 5443 0fd7 3B        		.byte	0x3b
 5444 0fd8 7200 0000 		.long	0x72
 5445 0fdc 01        		.byte	0x1
 5446 0fdd 01        		.byte	0x1
 5447 0fde 27        		.uleb128 0x27
 5448 0fdf 7200 0000 		.long	0x72
 5449 0fe3 FA0F 0000 		.long	0xffa
 5450 0fe7 28        		.uleb128 0x28
 5451 0fe8 E807 0000 		.long	0x7e8
 5452 0fec 02        		.byte	0x2
 5453 0fed 28        		.uleb128 0x28
 5454 0fee E807 0000 		.long	0x7e8
 5455 0ff2 10        		.byte	0x10
 5456 0ff3 28        		.uleb128 0x28
 5457 0ff4 E807 0000 		.long	0x7e8
 5458 0ff8 07        		.byte	0x7
 5459 0ff9 00        		.byte	0x0
 5460 0ffa 3B        		.uleb128 0x3b
 5461 0ffb 0000 0000 		.long	.LASF256
 5462 0fff 05        		.byte	0x5
 5463 1000 CB        		.byte	0xcb
 5464 1001 0710 0000 		.long	0x1007
 5465 1005 01        		.byte	0x1
 5466 1006 01        		.byte	0x1
 5467 1007 2C        		.uleb128 0x2c
 5468 1008 DE0F 0000 		.long	0xfde
 5469 100c 27        		.uleb128 0x27
 5470 100d 6400 0000 		.long	0x64
 5471 1011 1C10 0000 		.long	0x101c
 5472 1015 28        		.uleb128 0x28
 5473 1016 E807 0000 		.long	0x7e8
 5474 101a 0B        		.byte	0xb
GAS LISTING C:\Users\ADMINI~1\AppData\Local\Temp/ccZjgOiQ.s 			page 99


 5475 101b 00        		.byte	0x0
 5476 101c 3C        		.uleb128 0x3c
 5477 101d 0000 0000 		.long	.LASF257
 5478 1021 01        		.byte	0x1
 5479 1022 18        		.byte	0x18
 5480 1023 2E10 0000 		.long	0x102e
 5481 1027 01        		.byte	0x1
 5482 1028 05        		.byte	0x5
 5483 1029 03        		.byte	0x3
 5484 102a 0000 0000 		.long	str_select_mode
 5485 102e 2C        		.uleb128 0x2c
 5486 102f 0C10 0000 		.long	0x100c
 5487 1033 27        		.uleb128 0x27
 5488 1034 6400 0000 		.long	0x64
 5489 1038 4310 0000 		.long	0x1043
 5490 103c 28        		.uleb128 0x28
 5491 103d E807 0000 		.long	0x7e8
 5492 1041 0D        		.byte	0xd
 5493 1042 00        		.byte	0x0
 5494 1043 3C        		.uleb128 0x3c
 5495 1044 0000 0000 		.long	.LASF258
 5496 1048 01        		.byte	0x1
 5497 1049 19        		.byte	0x19
 5498 104a 5510 0000 		.long	0x1055
 5499 104e 01        		.byte	0x1
 5500 104f 05        		.byte	0x5
 5501 1050 03        		.byte	0x3
 5502 1051 0000 0000 		.long	str_select_mode1
 5503 1055 2C        		.uleb128 0x2c
 5504 1056 3310 0000 		.long	0x1033
 5505 105a 27        		.uleb128 0x27
 5506 105b 6400 0000 		.long	0x64
 5507 105f 6A10 0000 		.long	0x106a
 5508 1063 28        		.uleb128 0x28
 5509 1064 E807 0000 		.long	0x7e8
 5510 1068 07        		.byte	0x7
 5511 1069 00        		.byte	0x0
 5512 106a 3C        		.uleb128 0x3c
 5513 106b 0000 0000 		.long	.LASF259
 5514 106f 01        		.byte	0x1
 5515 1070 1A        		.byte	0x1a
 5516 1071 7C10 0000 		.long	0x107c
 5517 1075 01        		.byte	0x1
 5518 1076 05        		.byte	0x5
 5519 1077 03        		.byte	0x3
 5520 1078 0000 0000 		.long	str_select_mode2
 5521 107c 2C        		.uleb128 0x2c
 5522 107d 5A10 0000 		.long	0x105a
 5523 1081 27        		.uleb128 0x27
 5524 1082 6400 0000 		.long	0x64
 5525 1086 9110 0000 		.long	0x1091
 5526 108a 28        		.uleb128 0x28
 5527 108b E807 0000 		.long	0x7e8
 5528 108f 06        		.byte	0x6
 5529 1090 00        		.byte	0x0
 5530 1091 3C        		.uleb128 0x3c
 5531 1092 0000 0000 		.long	.LASF260
GAS LISTING C:\Users\ADMINI~1\AppData\Local\Temp/ccZjgOiQ.s 			page 100


 5532 1096 01        		.byte	0x1
 5533 1097 1B        		.byte	0x1b
 5534 1098 A310 0000 		.long	0x10a3
 5535 109c 01        		.byte	0x1
 5536 109d 05        		.byte	0x5
 5537 109e 03        		.byte	0x3
 5538 109f 0000 0000 		.long	str_select_mode3
 5539 10a3 2C        		.uleb128 0x2c
 5540 10a4 8110 0000 		.long	0x1081
 5541 10a8 27        		.uleb128 0x27
 5542 10a9 6400 0000 		.long	0x64
 5543 10ad B810 0000 		.long	0x10b8
 5544 10b1 28        		.uleb128 0x28
 5545 10b2 E807 0000 		.long	0x7e8
 5546 10b6 09        		.byte	0x9
 5547 10b7 00        		.byte	0x0
 5548 10b8 3C        		.uleb128 0x3c
 5549 10b9 0000 0000 		.long	.LASF261
 5550 10bd 01        		.byte	0x1
 5551 10be 1C        		.byte	0x1c
 5552 10bf CA10 0000 		.long	0x10ca
 5553 10c3 01        		.byte	0x1
 5554 10c4 05        		.byte	0x5
 5555 10c5 03        		.byte	0x3
 5556 10c6 0000 0000 		.long	str_exit
 5557 10ca 2C        		.uleb128 0x2c
 5558 10cb A810 0000 		.long	0x10a8
 5559 10cf 27        		.uleb128 0x27
 5560 10d0 6400 0000 		.long	0x64
 5561 10d4 DF10 0000 		.long	0x10df
 5562 10d8 28        		.uleb128 0x28
 5563 10d9 E807 0000 		.long	0x7e8
 5564 10dd 05        		.byte	0x5
 5565 10de 00        		.byte	0x0
 5566 10df 3C        		.uleb128 0x3c
 5567 10e0 0000 0000 		.long	.LASF262
 5568 10e4 01        		.byte	0x1
 5569 10e5 1E        		.byte	0x1e
 5570 10e6 F110 0000 		.long	0x10f1
 5571 10ea 01        		.byte	0x1
 5572 10eb 05        		.byte	0x5
 5573 10ec 03        		.byte	0x3
 5574 10ed 0000 0000 		.long	str_macro_message
 5575 10f1 2C        		.uleb128 0x2c
 5576 10f2 CF10 0000 		.long	0x10cf
 5577 10f6 27        		.uleb128 0x27
 5578 10f7 6400 0000 		.long	0x64
 5579 10fb 0611 0000 		.long	0x1106
 5580 10ff 28        		.uleb128 0x28
 5581 1100 E807 0000 		.long	0x7e8
 5582 1104 14        		.byte	0x14
 5583 1105 00        		.byte	0x0
 5584 1106 3C        		.uleb128 0x3c
 5585 1107 0000 0000 		.long	.LASF263
 5586 110b 01        		.byte	0x1
 5587 110c 1F        		.byte	0x1f
 5588 110d 1811 0000 		.long	0x1118
GAS LISTING C:\Users\ADMINI~1\AppData\Local\Temp/ccZjgOiQ.s 			page 101


 5589 1111 01        		.byte	0x1
 5590 1112 05        		.byte	0x5
 5591 1113 03        		.byte	0x3
 5592 1114 0000 0000 		.long	str_macro_1
 5593 1118 2C        		.uleb128 0x2c
 5594 1119 F610 0000 		.long	0x10f6
 5595 111d 3C        		.uleb128 0x3c
 5596 111e 0000 0000 		.long	.LASF264
 5597 1122 01        		.byte	0x1
 5598 1123 20        		.byte	0x20
 5599 1124 2F11 0000 		.long	0x112f
 5600 1128 01        		.byte	0x1
 5601 1129 05        		.byte	0x5
 5602 112a 03        		.byte	0x3
 5603 112b 0000 0000 		.long	str_macro_2
 5604 112f 2C        		.uleb128 0x2c
 5605 1130 8110 0000 		.long	0x1081
 5606 1134 3C        		.uleb128 0x3c
 5607 1135 0000 0000 		.long	.LASF265
 5608 1139 01        		.byte	0x1
 5609 113a 21        		.byte	0x21
 5610 113b 4611 0000 		.long	0x1146
 5611 113f 01        		.byte	0x1
 5612 1140 05        		.byte	0x5
 5613 1141 03        		.byte	0x3
 5614 1142 0000 0000 		.long	str_macro_9
 5615 1146 2C        		.uleb128 0x2c
 5616 1147 0C10 0000 		.long	0x100c
 5617 114b 3C        		.uleb128 0x3c
 5618 114c 0000 0000 		.long	.LASF266
 5619 1150 01        		.byte	0x1
 5620 1151 23        		.byte	0x23
 5621 1152 5D11 0000 		.long	0x115d
 5622 1156 01        		.byte	0x1
 5623 1157 05        		.byte	0x5
 5624 1158 03        		.byte	0x3
 5625 1159 0000 0000 		.long	str_back_6
 5626 115d 2C        		.uleb128 0x2c
 5627 115e 8110 0000 		.long	0x1081
 5628 1162 27        		.uleb128 0x27
 5629 1163 6400 0000 		.long	0x64
 5630 1167 7211 0000 		.long	0x1172
 5631 116b 28        		.uleb128 0x28
 5632 116c E807 0000 		.long	0x7e8
 5633 1170 0A        		.byte	0xa
 5634 1171 00        		.byte	0x0
 5635 1172 3C        		.uleb128 0x3c
 5636 1173 0000 0000 		.long	.LASF267
 5637 1177 01        		.byte	0x1
 5638 1178 25        		.byte	0x25
 5639 1179 8411 0000 		.long	0x1184
 5640 117d 01        		.byte	0x1
 5641 117e 05        		.byte	0x5
 5642 117f 03        		.byte	0x3
 5643 1180 0000 0000 		.long	str_mapper_message
 5644 1184 2C        		.uleb128 0x2c
 5645 1185 6211 0000 		.long	0x1162
GAS LISTING C:\Users\ADMINI~1\AppData\Local\Temp/ccZjgOiQ.s 			page 102


 5646 1189 27        		.uleb128 0x27
 5647 118a 6400 0000 		.long	0x64
 5648 118e 9911 0000 		.long	0x1199
 5649 1192 28        		.uleb128 0x28
 5650 1193 E807 0000 		.long	0x7e8
 5651 1197 0E        		.byte	0xe
 5652 1198 00        		.byte	0x0
 5653 1199 3C        		.uleb128 0x3c
 5654 119a 0000 0000 		.long	.LASF268
 5655 119e 01        		.byte	0x1
 5656 119f 26        		.byte	0x26
 5657 11a0 AB11 0000 		.long	0x11ab
 5658 11a4 01        		.byte	0x1
 5659 11a5 05        		.byte	0x5
 5660 11a6 03        		.byte	0x3
 5661 11a7 0000 0000 		.long	str_mapper_1
 5662 11ab 2C        		.uleb128 0x2c
 5663 11ac 8911 0000 		.long	0x1189
 5664 11b0 27        		.uleb128 0x27
 5665 11b1 6400 0000 		.long	0x64
 5666 11b5 C011 0000 		.long	0x11c0
 5667 11b9 28        		.uleb128 0x28
 5668 11ba E807 0000 		.long	0x7e8
 5669 11be 1C        		.byte	0x1c
 5670 11bf 00        		.byte	0x0
 5671 11c0 3C        		.uleb128 0x3c
 5672 11c1 0000 0000 		.long	.LASF269
 5673 11c5 01        		.byte	0x1
 5674 11c6 27        		.byte	0x27
 5675 11c7 D211 0000 		.long	0x11d2
 5676 11cb 01        		.byte	0x1
 5677 11cc 05        		.byte	0x5
 5678 11cd 03        		.byte	0x3
 5679 11ce 0000 0000 		.long	str_mapper_2
 5680 11d2 2C        		.uleb128 0x2c
 5681 11d3 B011 0000 		.long	0x11b0
 5682 11d7 27        		.uleb128 0x27
 5683 11d8 6400 0000 		.long	0x64
 5684 11dc E711 0000 		.long	0x11e7
 5685 11e0 28        		.uleb128 0x28
 5686 11e1 E807 0000 		.long	0x7e8
 5687 11e5 0F        		.byte	0xf
 5688 11e6 00        		.byte	0x0
 5689 11e7 3C        		.uleb128 0x3c
 5690 11e8 0000 0000 		.long	.LASF270
 5691 11ec 01        		.byte	0x1
 5692 11ed 28        		.byte	0x28
 5693 11ee F911 0000 		.long	0x11f9
 5694 11f2 01        		.byte	0x1
 5695 11f3 05        		.byte	0x5
 5696 11f4 03        		.byte	0x3
 5697 11f5 0000 0000 		.long	str_mapper_3
 5698 11f9 2C        		.uleb128 0x2c
 5699 11fa D711 0000 		.long	0x11d7
 5700 11fe 27        		.uleb128 0x27
 5701 11ff 6400 0000 		.long	0x64
 5702 1203 0E12 0000 		.long	0x120e
GAS LISTING C:\Users\ADMINI~1\AppData\Local\Temp/ccZjgOiQ.s 			page 103


 5703 1207 28        		.uleb128 0x28
 5704 1208 E807 0000 		.long	0x7e8
 5705 120c 15        		.byte	0x15
 5706 120d 00        		.byte	0x0
 5707 120e 3C        		.uleb128 0x3c
 5708 120f 0000 0000 		.long	.LASF271
 5709 1213 01        		.byte	0x1
 5710 1214 29        		.byte	0x29
 5711 1215 2012 0000 		.long	0x1220
 5712 1219 01        		.byte	0x1
 5713 121a 05        		.byte	0x5
 5714 121b 03        		.byte	0x3
 5715 121c 0000 0000 		.long	str_mapper_4
 5716 1220 2C        		.uleb128 0x2c
 5717 1221 FE11 0000 		.long	0x11fe
 5718 1225 27        		.uleb128 0x27
 5719 1226 6400 0000 		.long	0x64
 5720 122a 3512 0000 		.long	0x1235
 5721 122e 28        		.uleb128 0x28
 5722 122f E807 0000 		.long	0x7e8
 5723 1233 22        		.byte	0x22
 5724 1234 00        		.byte	0x0
 5725 1235 3C        		.uleb128 0x3c
 5726 1236 0000 0000 		.long	.LASF272
 5727 123a 01        		.byte	0x1
 5728 123b 2A        		.byte	0x2a
 5729 123c 4712 0000 		.long	0x1247
 5730 1240 01        		.byte	0x1
 5731 1241 05        		.byte	0x5
 5732 1242 03        		.byte	0x3
 5733 1243 0000 0000 		.long	str_mapper_9
 5734 1247 2C        		.uleb128 0x2c
 5735 1248 2512 0000 		.long	0x1225
 5736 124c 3C        		.uleb128 0x3c
 5737 124d 0000 0000 		.long	.LASF273
 5738 1251 01        		.byte	0x1
 5739 1252 2C        		.byte	0x2c
 5740 1253 5E12 0000 		.long	0x125e
 5741 1257 01        		.byte	0x1
 5742 1258 05        		.byte	0x5
 5743 1259 03        		.byte	0x3
 5744 125a 0000 0000 		.long	str_prepare_message
 5745 125e 2C        		.uleb128 0x2c
 5746 125f 5A10 0000 		.long	0x105a
 5747 1263 27        		.uleb128 0x27
 5748 1264 6400 0000 		.long	0x64
 5749 1268 7312 0000 		.long	0x1273
 5750 126c 28        		.uleb128 0x28
 5751 126d E807 0000 		.long	0x7e8
 5752 1271 31        		.byte	0x31
 5753 1272 00        		.byte	0x0
 5754 1273 3C        		.uleb128 0x3c
 5755 1274 0000 0000 		.long	.LASF274
 5756 1278 01        		.byte	0x1
 5757 1279 2D        		.byte	0x2d
 5758 127a 8512 0000 		.long	0x1285
 5759 127e 01        		.byte	0x1
GAS LISTING C:\Users\ADMINI~1\AppData\Local\Temp/ccZjgOiQ.s 			page 104


 5760 127f 05        		.byte	0x5
 5761 1280 03        		.byte	0x3
 5762 1281 0000 0000 		.long	str_choose_layer
 5763 1285 2C        		.uleb128 0x2c
 5764 1286 6312 0000 		.long	0x1263
 5765 128a 27        		.uleb128 0x27
 5766 128b 6400 0000 		.long	0x64
 5767 128f 9A12 0000 		.long	0x129a
 5768 1293 28        		.uleb128 0x28
 5769 1294 E807 0000 		.long	0x7e8
 5770 1298 1E        		.byte	0x1e
 5771 1299 00        		.byte	0x0
 5772 129a 3C        		.uleb128 0x3c
 5773 129b 0000 0000 		.long	.LASF275
 5774 129f 01        		.byte	0x1
 5775 12a0 2E        		.byte	0x2e
 5776 12a1 AC12 0000 		.long	0x12ac
 5777 12a5 01        		.byte	0x1
 5778 12a6 05        		.byte	0x5
 5779 12a7 03        		.byte	0x3
 5780 12a8 0000 0000 		.long	str_choose_key
 5781 12ac 2C        		.uleb128 0x2c
 5782 12ad 8A12 0000 		.long	0x128a
 5783 12b1 27        		.uleb128 0x27
 5784 12b2 6400 0000 		.long	0x64
 5785 12b6 C112 0000 		.long	0x12c1
 5786 12ba 28        		.uleb128 0x28
 5787 12bb E807 0000 		.long	0x7e8
 5788 12bf 21        		.byte	0x21
 5789 12c0 00        		.byte	0x0
 5790 12c1 3C        		.uleb128 0x3c
 5791 12c2 0000 0000 		.long	.LASF276
 5792 12c6 01        		.byte	0x1
 5793 12c7 2F        		.byte	0x2f
 5794 12c8 D312 0000 		.long	0x12d3
 5795 12cc 01        		.byte	0x1
 5796 12cd 05        		.byte	0x5
 5797 12ce 03        		.byte	0x3
 5798 12cf 0000 0000 		.long	str_input_keycode
 5799 12d3 2C        		.uleb128 0x2c
 5800 12d4 B112 0000 		.long	0x12b1
 5801 12d8 27        		.uleb128 0x27
 5802 12d9 6400 0000 		.long	0x64
 5803 12dd E812 0000 		.long	0x12e8
 5804 12e1 28        		.uleb128 0x28
 5805 12e2 E807 0000 		.long	0x7e8
 5806 12e6 17        		.byte	0x17
 5807 12e7 00        		.byte	0x0
 5808 12e8 3C        		.uleb128 0x3c
 5809 12e9 0000 0000 		.long	.LASF277
 5810 12ed 01        		.byte	0x1
 5811 12ee 30        		.byte	0x30
 5812 12ef FA12 0000 		.long	0x12fa
 5813 12f3 01        		.byte	0x1
 5814 12f4 05        		.byte	0x5
 5815 12f5 03        		.byte	0x3
 5816 12f6 0000 0000 		.long	str_save_end_mapping
GAS LISTING C:\Users\ADMINI~1\AppData\Local\Temp/ccZjgOiQ.s 			page 105


 5817 12fa 2C        		.uleb128 0x2c
 5818 12fb D812 0000 		.long	0x12d8
 5819 12ff 27        		.uleb128 0x27
 5820 1300 6400 0000 		.long	0x64
 5821 1304 0F13 0000 		.long	0x130f
 5822 1308 28        		.uleb128 0x28
 5823 1309 E807 0000 		.long	0x7e8
 5824 130d 23        		.byte	0x23
 5825 130e 00        		.byte	0x0
 5826 130f 3C        		.uleb128 0x3c
 5827 1310 0000 0000 		.long	.LASF278
 5828 1314 01        		.byte	0x1
 5829 1315 31        		.byte	0x31
 5830 1316 2113 0000 		.long	0x1321
 5831 131a 01        		.byte	0x1
 5832 131b 05        		.byte	0x5
 5833 131c 03        		.byte	0x3
 5834 131d 0000 0000 		.long	str_cancel_mapping
 5835 1321 2C        		.uleb128 0x2c
 5836 1322 FF12 0000 		.long	0x12ff
 5837 1326 3C        		.uleb128 0x3c
 5838 1327 0000 0000 		.long	.LASF279
 5839 132b 01        		.byte	0x1
 5840 132c 32        		.byte	0x32
 5841 132d 3813 0000 		.long	0x1338
 5842 1331 01        		.byte	0x1
 5843 1332 05        		.byte	0x5
 5844 1333 03        		.byte	0x3
 5845 1334 0000 0000 		.long	str_reset_mapping
 5846 1338 2C        		.uleb128 0x2c
 5847 1339 8A12 0000 		.long	0x128a
 5848 133d 27        		.uleb128 0x27
 5849 133e 6400 0000 		.long	0x64
 5850 1342 4D13 0000 		.long	0x134d
 5851 1346 28        		.uleb128 0x28
 5852 1347 E807 0000 		.long	0x7e8
 5853 134b 16        		.byte	0x16
 5854 134c 00        		.byte	0x0
 5855 134d 3C        		.uleb128 0x3c
 5856 134e 0000 0000 		.long	.LASF280
 5857 1352 01        		.byte	0x1
 5858 1353 33        		.byte	0x33
 5859 1354 5F13 0000 		.long	0x135f
 5860 1358 01        		.byte	0x1
 5861 1359 05        		.byte	0x5
 5862 135a 03        		.byte	0x3
 5863 135b 0000 0000 		.long	str_input_command
 5864 135f 2C        		.uleb128 0x2c
 5865 1360 3D13 0000 		.long	0x133d
 5866 1364 3C        		.uleb128 0x3c
 5867 1365 0000 0000 		.long	.LASF281
 5868 1369 01        		.byte	0x1
 5869 136a 34        		.byte	0x34
 5870 136b 7613 0000 		.long	0x1376
 5871 136f 01        		.byte	0x1
 5872 1370 05        		.byte	0x5
 5873 1371 03        		.byte	0x3
GAS LISTING C:\Users\ADMINI~1\AppData\Local\Temp/ccZjgOiQ.s 			page 106


 5874 1372 0000 0000 		.long	str_nothing
 5875 1376 2C        		.uleb128 0x2c
 5876 1377 5A10 0000 		.long	0x105a
 5877 137b 27        		.uleb128 0x27
 5878 137c 6400 0000 		.long	0x64
 5879 1380 8B13 0000 		.long	0x138b
 5880 1384 28        		.uleb128 0x28
 5881 1385 E807 0000 		.long	0x7e8
 5882 1389 12        		.byte	0x12
 5883 138a 00        		.byte	0x0
 5884 138b 3C        		.uleb128 0x3c
 5885 138c 0000 0000 		.long	.LASF282
 5886 1390 01        		.byte	0x1
 5887 1391 35        		.byte	0x35
 5888 1392 9D13 0000 		.long	0x139d
 5889 1396 01        		.byte	0x1
 5890 1397 05        		.byte	0x5
 5891 1398 03        		.byte	0x3
 5892 1399 0000 0000 		.long	str_save_layer
 5893 139d 2C        		.uleb128 0x2c
 5894 139e 7B13 0000 		.long	0x137b
 5895 13a2 3C        		.uleb128 0x3c
 5896 13a3 0000 0000 		.long	.LASF283
 5897 13a7 01        		.byte	0x1
 5898 13a8 36        		.byte	0x36
 5899 13a9 B413 0000 		.long	0x13b4
 5900 13ad 01        		.byte	0x1
 5901 13ae 05        		.byte	0x5
 5902 13af 03        		.byte	0x3
 5903 13b0 0000 0000 		.long	str_load_layer
 5904 13b4 2C        		.uleb128 0x2c
 5905 13b5 7B13 0000 		.long	0x137b
 5906 13b9 3C        		.uleb128 0x3c
 5907 13ba 0000 0000 		.long	.LASF284
 5908 13be 01        		.byte	0x1
 5909 13bf 37        		.byte	0x37
 5910 13c0 CB13 0000 		.long	0x13cb
 5911 13c4 01        		.byte	0x1
 5912 13c5 05        		.byte	0x5
 5913 13c6 03        		.byte	0x3
 5914 13c7 0000 0000 		.long	str_saving
 5915 13cb 2C        		.uleb128 0x2c
 5916 13cc A810 0000 		.long	0x10a8
 5917 13d0 3C        		.uleb128 0x3c
 5918 13d1 0000 0000 		.long	.LASF285
 5919 13d5 01        		.byte	0x1
 5920 13d6 38        		.byte	0x38
 5921 13d7 E213 0000 		.long	0x13e2
 5922 13db 01        		.byte	0x1
 5923 13dc 05        		.byte	0x5
 5924 13dd 03        		.byte	0x3
 5925 13de 0000 0000 		.long	str_col_row
 5926 13e2 2C        		.uleb128 0x2c
 5927 13e3 0C10 0000 		.long	0x100c
 5928 13e7 27        		.uleb128 0x27
 5929 13e8 6400 0000 		.long	0x64
 5930 13ec F713 0000 		.long	0x13f7
GAS LISTING C:\Users\ADMINI~1\AppData\Local\Temp/ccZjgOiQ.s 			page 107


 5931 13f0 28        		.uleb128 0x28
 5932 13f1 E807 0000 		.long	0x7e8
 5933 13f5 1D        		.byte	0x1d
 5934 13f6 00        		.byte	0x0
 5935 13f7 3C        		.uleb128 0x3c
 5936 13f8 0000 0000 		.long	.LASF286
 5937 13fc 01        		.byte	0x1
 5938 13fd 39        		.byte	0x39
 5939 13fe 0914 0000 		.long	0x1409
 5940 1402 01        		.byte	0x1
 5941 1403 05        		.byte	0x5
 5942 1404 03        		.byte	0x3
 5943 1405 0000 0000 		.long	str_invalid_keycode
 5944 1409 2C        		.uleb128 0x2c
 5945 140a E713 0000 		.long	0x13e7
 5946 140e 27        		.uleb128 0x27
 5947 140f 6400 0000 		.long	0x64
 5948 1413 1E14 0000 		.long	0x141e
 5949 1417 28        		.uleb128 0x28
 5950 1418 E807 0000 		.long	0x7e8
 5951 141c 2C        		.byte	0x2c
 5952 141d 00        		.byte	0x0
 5953 141e 3C        		.uleb128 0x3c
 5954 141f 0000 0000 		.long	.LASF287
 5955 1423 01        		.byte	0x1
 5956 1424 3B        		.byte	0x3b
 5957 1425 3014 0000 		.long	0x1430
 5958 1429 01        		.byte	0x1
 5959 142a 05        		.byte	0x5
 5960 142b 03        		.byte	0x3
 5961 142c 0000 0000 		.long	str_select_number
 5962 1430 2C        		.uleb128 0x2c
 5963 1431 0E14 0000 		.long	0x140e
 5964 1435 27        		.uleb128 0x27
 5965 1436 6400 0000 		.long	0x64
 5966 143a 4514 0000 		.long	0x1445
 5967 143e 28        		.uleb128 0x28
 5968 143f E807 0000 		.long	0x7e8
 5969 1443 1A        		.byte	0x1a
 5970 1444 00        		.byte	0x0
 5971 1445 3C        		.uleb128 0x3c
 5972 1446 0000 0000 		.long	.LASF288
 5973 144a 01        		.byte	0x1
 5974 144b 3C        		.byte	0x3c
 5975 144c 5714 0000 		.long	0x1457
 5976 1450 01        		.byte	0x1
 5977 1451 05        		.byte	0x5
 5978 1452 03        		.byte	0x3
 5979 1453 0000 0000 		.long	str_exit_macro
 5980 1457 2C        		.uleb128 0x2c
 5981 1458 3514 0000 		.long	0x1435
 5982 145c 27        		.uleb128 0x27
 5983 145d 6400 0000 		.long	0x64
 5984 1461 6C14 0000 		.long	0x146c
 5985 1465 28        		.uleb128 0x28
 5986 1466 E807 0000 		.long	0x7e8
 5987 146a 36        		.byte	0x36
GAS LISTING C:\Users\ADMINI~1\AppData\Local\Temp/ccZjgOiQ.s 			page 108


 5988 146b 00        		.byte	0x0
 5989 146c 3C        		.uleb128 0x3c
 5990 146d 0000 0000 		.long	.LASF289
 5991 1471 01        		.byte	0x1
 5992 1472 3D        		.byte	0x3d
 5993 1473 7E14 0000 		.long	0x147e
 5994 1477 01        		.byte	0x1
 5995 1478 05        		.byte	0x5
 5996 1479 03        		.byte	0x3
 5997 147a 0000 0000 		.long	str_input_macro
 5998 147e 2C        		.uleb128 0x2c
 5999 147f 5C14 0000 		.long	0x145c
 6000 1483 27        		.uleb128 0x27
 6001 1484 6400 0000 		.long	0x64
 6002 1488 9314 0000 		.long	0x1493
 6003 148c 28        		.uleb128 0x28
 6004 148d E807 0000 		.long	0x7e8
 6005 1491 1B        		.byte	0x1b
 6006 1492 00        		.byte	0x0
 6007 1493 3C        		.uleb128 0x3c
 6008 1494 0000 0000 		.long	.LASF290
 6009 1498 01        		.byte	0x1
 6010 1499 3E        		.byte	0x3e
 6011 149a A514 0000 		.long	0x14a5
 6012 149e 01        		.byte	0x1
 6013 149f 05        		.byte	0x5
 6014 14a0 03        		.byte	0x3
 6015 14a1 0000 0000 		.long	str_invalid_macro_number
 6016 14a5 2C        		.uleb128 0x2c
 6017 14a6 8314 0000 		.long	0x1483
 6018 14aa 27        		.uleb128 0x27
 6019 14ab 6400 0000 		.long	0x64
 6020 14af BA14 0000 		.long	0x14ba
 6021 14b3 28        		.uleb128 0x28
 6022 14b4 E807 0000 		.long	0x7e8
 6023 14b8 08        		.byte	0x8
 6024 14b9 00        		.byte	0x0
 6025 14ba 3C        		.uleb128 0x3c
 6026 14bb 0000 0000 		.long	.LASF291
 6027 14bf 01        		.byte	0x1
 6028 14c0 3F        		.byte	0x3f
 6029 14c1 CC14 0000 		.long	0x14cc
 6030 14c5 01        		.byte	0x1
 6031 14c6 05        		.byte	0x5
 6032 14c7 03        		.byte	0x3
 6033 14c8 0000 0000 		.long	str_clear_all_macro
 6034 14cc 2C        		.uleb128 0x2c
 6035 14cd AA14 0000 		.long	0x14aa
 6036 14d1 3C        		.uleb128 0x3c
 6037 14d2 0000 0000 		.long	.LASF292
 6038 14d6 01        		.byte	0x1
 6039 14d7 47        		.byte	0x47
 6040 14d8 7200 0000 		.long	0x72
 6041 14dc 01        		.byte	0x1
 6042 14dd 05        		.byte	0x5
 6043 14de 03        		.byte	0x3
 6044 14df 0000 0000 		.long	_macroIndex
GAS LISTING C:\Users\ADMINI~1\AppData\Local\Temp/ccZjgOiQ.s 			page 109


 6045 14e3 3C        		.uleb128 0x3c
 6046 14e4 0000 0000 		.long	.LASF293
 6047 14e8 01        		.byte	0x1
 6048 14e9 48        		.byte	0x48
 6049 14ea 7200 0000 		.long	0x72
 6050 14ee 01        		.byte	0x1
 6051 14ef 05        		.byte	0x5
 6052 14f0 03        		.byte	0x3
 6053 14f1 0000 0000 		.long	_macroBufferIndex
 6054 14f5 27        		.uleb128 0x27
 6055 14f6 7200 0000 		.long	0x72
 6056 14fa 0515 0000 		.long	0x1505
 6057 14fe 28        		.uleb128 0x28
 6058 14ff E807 0000 		.long	0x7e8
 6059 1503 0F        		.byte	0xf
 6060 1504 00        		.byte	0x0
 6061 1505 3C        		.uleb128 0x3c
 6062 1506 0000 0000 		.long	.LASF294
 6063 150a 01        		.byte	0x1
 6064 150b 49        		.byte	0x49
 6065 150c F514 0000 		.long	0x14f5
 6066 1510 01        		.byte	0x1
 6067 1511 05        		.byte	0x5
 6068 1512 03        		.byte	0x3
 6069 1513 0000 0000 		.long	_macroPressedBuffer
 6070 1517 3C        		.uleb128 0x3c
 6071 1518 0000 0000 		.long	.LASF295
 6072 151c 01        		.byte	0x1
 6073 151d 4A        		.byte	0x4a
 6074 151e 100A 0000 		.long	0xa10
 6075 1522 01        		.byte	0x1
 6076 1523 05        		.byte	0x5
 6077 1524 03        		.byte	0x3
 6078 1525 0000 0000 		.long	_macroInputBuffer
 6079 1529 3C        		.uleb128 0x3c
 6080 152a 0000 0000 		.long	.LASF296
 6081 152e 01        		.byte	0x1
 6082 152f 4B        		.byte	0x4b
 6083 1530 6B00 0000 		.long	0x6b
 6084 1534 01        		.byte	0x1
 6085 1535 05        		.byte	0x5
 6086 1536 03        		.byte	0x3
 6087 1537 0000 0000 		.long	_pressedEscapeKeyCount
 6088 153b 3C        		.uleb128 0x3c
 6089 153c 0000 0000 		.long	.LASF297
 6090 1540 01        		.byte	0x1
 6091 1541 4C        		.byte	0x4c
 6092 1542 7200 0000 		.long	0x72
 6093 1546 01        		.byte	0x1
 6094 1547 05        		.byte	0x5
 6095 1548 03        		.byte	0x3
 6096 1549 0000 0000 		.long	_isPressedEscapeKey
 6097 154d 3C        		.uleb128 0x3c
 6098 154e 0000 0000 		.long	.LASF298
 6099 1552 01        		.byte	0x1
 6100 1553 4D        		.byte	0x4d
 6101 1554 7200 0000 		.long	0x72
GAS LISTING C:\Users\ADMINI~1\AppData\Local\Temp/ccZjgOiQ.s 			page 110


 6102 1558 01        		.byte	0x1
 6103 1559 05        		.byte	0x5
 6104 155a 03        		.byte	0x3
 6105 155b 0000 0000 		.long	_isTiredEscapeKey
 6106 155f 27        		.uleb128 0x27
 6107 1560 7200 0000 		.long	0x72
 6108 1564 7515 0000 		.long	0x1575
 6109 1568 28        		.uleb128 0x28
 6110 1569 E807 0000 		.long	0x7e8
 6111 156d 10        		.byte	0x10
 6112 156e 28        		.uleb128 0x28
 6113 156f E807 0000 		.long	0x7e8
 6114 1573 07        		.byte	0x7
 6115 1574 00        		.byte	0x0
 6116 1575 3C        		.uleb128 0x3c
 6117 1576 0000 0000 		.long	.LASF299
 6118 157a 01        		.byte	0x1
 6119 157b 59        		.byte	0x59
 6120 157c 5F15 0000 		.long	0x155f
 6121 1580 01        		.byte	0x1
 6122 1581 05        		.byte	0x5
 6123 1582 03        		.byte	0x3
 6124 1583 0000 0000 		.long	_newKeyMap
 6125 1587 00        		.byte	0x0
 6126               		.section	.debug_abbrev
 6127 0000 01        		.uleb128 0x1
 6128 0001 11        		.uleb128 0x11
 6129 0002 01        		.byte	0x1
 6130 0003 25        		.uleb128 0x25
 6131 0004 0E        		.uleb128 0xe
 6132 0005 13        		.uleb128 0x13
 6133 0006 0B        		.uleb128 0xb
 6134 0007 03        		.uleb128 0x3
 6135 0008 0E        		.uleb128 0xe
 6136 0009 1B        		.uleb128 0x1b
 6137 000a 0E        		.uleb128 0xe
 6138 000b 11        		.uleb128 0x11
 6139 000c 01        		.uleb128 0x1
 6140 000d 12        		.uleb128 0x12
 6141 000e 01        		.uleb128 0x1
 6142 000f 10        		.uleb128 0x10
 6143 0010 06        		.uleb128 0x6
 6144 0011 00        		.byte	0x0
 6145 0012 00        		.byte	0x0
 6146 0013 02        		.uleb128 0x2
 6147 0014 24        		.uleb128 0x24
 6148 0015 00        		.byte	0x0
 6149 0016 0B        		.uleb128 0xb
 6150 0017 0B        		.uleb128 0xb
 6151 0018 3E        		.uleb128 0x3e
 6152 0019 0B        		.uleb128 0xb
 6153 001a 03        		.uleb128 0x3
 6154 001b 0E        		.uleb128 0xe
 6155 001c 00        		.byte	0x0
 6156 001d 00        		.byte	0x0
 6157 001e 03        		.uleb128 0x3
 6158 001f 24        		.uleb128 0x24
GAS LISTING C:\Users\ADMINI~1\AppData\Local\Temp/ccZjgOiQ.s 			page 111


 6159 0020 00        		.byte	0x0
 6160 0021 0B        		.uleb128 0xb
 6161 0022 0B        		.uleb128 0xb
 6162 0023 3E        		.uleb128 0x3e
 6163 0024 0B        		.uleb128 0xb
 6164 0025 03        		.uleb128 0x3
 6165 0026 08        		.uleb128 0x8
 6166 0027 00        		.byte	0x0
 6167 0028 00        		.byte	0x0
 6168 0029 04        		.uleb128 0x4
 6169 002a 16        		.uleb128 0x16
 6170 002b 00        		.byte	0x0
 6171 002c 03        		.uleb128 0x3
 6172 002d 0E        		.uleb128 0xe
 6173 002e 3A        		.uleb128 0x3a
 6174 002f 0B        		.uleb128 0xb
 6175 0030 3B        		.uleb128 0x3b
 6176 0031 0B        		.uleb128 0xb
 6177 0032 49        		.uleb128 0x49
 6178 0033 13        		.uleb128 0x13
 6179 0034 00        		.byte	0x0
 6180 0035 00        		.byte	0x0
 6181 0036 05        		.uleb128 0x5
 6182 0037 24        		.uleb128 0x24
 6183 0038 00        		.byte	0x0
 6184 0039 0B        		.uleb128 0xb
 6185 003a 0B        		.uleb128 0xb
 6186 003b 3E        		.uleb128 0x3e
 6187 003c 0B        		.uleb128 0xb
 6188 003d 00        		.byte	0x0
 6189 003e 00        		.byte	0x0
 6190 003f 06        		.uleb128 0x6
 6191 0040 0F        		.uleb128 0xf
 6192 0041 00        		.byte	0x0
 6193 0042 0B        		.uleb128 0xb
 6194 0043 0B        		.uleb128 0xb
 6195 0044 49        		.uleb128 0x49
 6196 0045 13        		.uleb128 0x13
 6197 0046 00        		.byte	0x0
 6198 0047 00        		.byte	0x0
 6199 0048 07        		.uleb128 0x7
 6200 0049 04        		.uleb128 0x4
 6201 004a 01        		.byte	0x1
 6202 004b 0B        		.uleb128 0xb
 6203 004c 0B        		.uleb128 0xb
 6204 004d 3A        		.uleb128 0x3a
 6205 004e 0B        		.uleb128 0xb
 6206 004f 3B        		.uleb128 0x3b
 6207 0050 0B        		.uleb128 0xb
 6208 0051 01        		.uleb128 0x1
 6209 0052 13        		.uleb128 0x13
 6210 0053 00        		.byte	0x0
 6211 0054 00        		.byte	0x0
 6212 0055 08        		.uleb128 0x8
 6213 0056 28        		.uleb128 0x28
 6214 0057 00        		.byte	0x0
 6215 0058 03        		.uleb128 0x3
GAS LISTING C:\Users\ADMINI~1\AppData\Local\Temp/ccZjgOiQ.s 			page 112


 6216 0059 0E        		.uleb128 0xe
 6217 005a 1C        		.uleb128 0x1c
 6218 005b 0D        		.uleb128 0xd
 6219 005c 00        		.byte	0x0
 6220 005d 00        		.byte	0x0
 6221 005e 09        		.uleb128 0x9
 6222 005f 13        		.uleb128 0x13
 6223 0060 01        		.byte	0x1
 6224 0061 0B        		.uleb128 0xb
 6225 0062 0B        		.uleb128 0xb
 6226 0063 3A        		.uleb128 0x3a
 6227 0064 0B        		.uleb128 0xb
 6228 0065 3B        		.uleb128 0x3b
 6229 0066 0B        		.uleb128 0xb
 6230 0067 01        		.uleb128 0x1
 6231 0068 13        		.uleb128 0x13
 6232 0069 00        		.byte	0x0
 6233 006a 00        		.byte	0x0
 6234 006b 0A        		.uleb128 0xa
 6235 006c 0D        		.uleb128 0xd
 6236 006d 00        		.byte	0x0
 6237 006e 03        		.uleb128 0x3
 6238 006f 0E        		.uleb128 0xe
 6239 0070 3A        		.uleb128 0x3a
 6240 0071 0B        		.uleb128 0xb
 6241 0072 3B        		.uleb128 0x3b
 6242 0073 0B        		.uleb128 0xb
 6243 0074 49        		.uleb128 0x49
 6244 0075 13        		.uleb128 0x13
 6245 0076 38        		.uleb128 0x38
 6246 0077 0A        		.uleb128 0xa
 6247 0078 00        		.byte	0x0
 6248 0079 00        		.byte	0x0
 6249 007a 0B        		.uleb128 0xb
 6250 007b 16        		.uleb128 0x16
 6251 007c 00        		.byte	0x0
 6252 007d 03        		.uleb128 0x3
 6253 007e 08        		.uleb128 0x8
 6254 007f 3A        		.uleb128 0x3a
 6255 0080 0B        		.uleb128 0xb
 6256 0081 3B        		.uleb128 0x3b
 6257 0082 0B        		.uleb128 0xb
 6258 0083 49        		.uleb128 0x49
 6259 0084 13        		.uleb128 0x13
 6260 0085 00        		.byte	0x0
 6261 0086 00        		.byte	0x0
 6262 0087 0C        		.uleb128 0xc
 6263 0088 2E        		.uleb128 0x2e
 6264 0089 01        		.byte	0x1
 6265 008a 03        		.uleb128 0x3
 6266 008b 0E        		.uleb128 0xe
 6267 008c 3A        		.uleb128 0x3a
 6268 008d 0B        		.uleb128 0xb
 6269 008e 3B        		.uleb128 0x3b
 6270 008f 0B        		.uleb128 0xb
 6271 0090 27        		.uleb128 0x27
 6272 0091 0C        		.uleb128 0xc
GAS LISTING C:\Users\ADMINI~1\AppData\Local\Temp/ccZjgOiQ.s 			page 113


 6273 0092 20        		.uleb128 0x20
 6274 0093 0B        		.uleb128 0xb
 6275 0094 01        		.uleb128 0x1
 6276 0095 13        		.uleb128 0x13
 6277 0096 00        		.byte	0x0
 6278 0097 00        		.byte	0x0
 6279 0098 0D        		.uleb128 0xd
 6280 0099 05        		.uleb128 0x5
 6281 009a 00        		.byte	0x0
 6282 009b 03        		.uleb128 0x3
 6283 009c 0E        		.uleb128 0xe
 6284 009d 3A        		.uleb128 0x3a
 6285 009e 0B        		.uleb128 0xb
 6286 009f 3B        		.uleb128 0x3b
 6287 00a0 0B        		.uleb128 0xb
 6288 00a1 49        		.uleb128 0x49
 6289 00a2 13        		.uleb128 0x13
 6290 00a3 00        		.byte	0x0
 6291 00a4 00        		.byte	0x0
 6292 00a5 0E        		.uleb128 0xe
 6293 00a6 2E        		.uleb128 0x2e
 6294 00a7 00        		.byte	0x0
 6295 00a8 3F        		.uleb128 0x3f
 6296 00a9 0C        		.uleb128 0xc
 6297 00aa 03        		.uleb128 0x3
 6298 00ab 0E        		.uleb128 0xe
 6299 00ac 3A        		.uleb128 0x3a
 6300 00ad 0B        		.uleb128 0xb
 6301 00ae 3B        		.uleb128 0x3b
 6302 00af 0B        		.uleb128 0xb
 6303 00b0 27        		.uleb128 0x27
 6304 00b1 0C        		.uleb128 0xc
 6305 00b2 49        		.uleb128 0x49
 6306 00b3 13        		.uleb128 0x13
 6307 00b4 20        		.uleb128 0x20
 6308 00b5 0B        		.uleb128 0xb
 6309 00b6 00        		.byte	0x0
 6310 00b7 00        		.byte	0x0
 6311 00b8 0F        		.uleb128 0xf
 6312 00b9 2E        		.uleb128 0x2e
 6313 00ba 01        		.byte	0x1
 6314 00bb 3F        		.uleb128 0x3f
 6315 00bc 0C        		.uleb128 0xc
 6316 00bd 03        		.uleb128 0x3
 6317 00be 0E        		.uleb128 0xe
 6318 00bf 3A        		.uleb128 0x3a
 6319 00c0 0B        		.uleb128 0xb
 6320 00c1 3B        		.uleb128 0x3b
 6321 00c2 0B        		.uleb128 0xb
 6322 00c3 27        		.uleb128 0x27
 6323 00c4 0C        		.uleb128 0xc
 6324 00c5 49        		.uleb128 0x49
 6325 00c6 13        		.uleb128 0x13
 6326 00c7 20        		.uleb128 0x20
 6327 00c8 0B        		.uleb128 0xb
 6328 00c9 01        		.uleb128 0x1
 6329 00ca 13        		.uleb128 0x13
GAS LISTING C:\Users\ADMINI~1\AppData\Local\Temp/ccZjgOiQ.s 			page 114


 6330 00cb 00        		.byte	0x0
 6331 00cc 00        		.byte	0x0
 6332 00cd 10        		.uleb128 0x10
 6333 00ce 2E        		.uleb128 0x2e
 6334 00cf 00        		.byte	0x0
 6335 00d0 3F        		.uleb128 0x3f
 6336 00d1 0C        		.uleb128 0xc
 6337 00d2 03        		.uleb128 0x3
 6338 00d3 0E        		.uleb128 0xe
 6339 00d4 3A        		.uleb128 0x3a
 6340 00d5 0B        		.uleb128 0xb
 6341 00d6 3B        		.uleb128 0x3b
 6342 00d7 0B        		.uleb128 0xb
 6343 00d8 27        		.uleb128 0x27
 6344 00d9 0C        		.uleb128 0xc
 6345 00da 20        		.uleb128 0x20
 6346 00db 0B        		.uleb128 0xb
 6347 00dc 00        		.byte	0x0
 6348 00dd 00        		.byte	0x0
 6349 00de 11        		.uleb128 0x11
 6350 00df 34        		.uleb128 0x34
 6351 00e0 00        		.byte	0x0
 6352 00e1 03        		.uleb128 0x3
 6353 00e2 0E        		.uleb128 0xe
 6354 00e3 3A        		.uleb128 0x3a
 6355 00e4 0B        		.uleb128 0xb
 6356 00e5 3B        		.uleb128 0x3b
 6357 00e6 0B        		.uleb128 0xb
 6358 00e7 49        		.uleb128 0x49
 6359 00e8 13        		.uleb128 0x13
 6360 00e9 00        		.byte	0x0
 6361 00ea 00        		.byte	0x0
 6362 00eb 12        		.uleb128 0x12
 6363 00ec 0B        		.uleb128 0xb
 6364 00ed 00        		.byte	0x0
 6365 00ee 00        		.byte	0x0
 6366 00ef 00        		.byte	0x0
 6367 00f0 13        		.uleb128 0x13
 6368 00f1 2E        		.uleb128 0x2e
 6369 00f2 00        		.byte	0x0
 6370 00f3 03        		.uleb128 0x3
 6371 00f4 0E        		.uleb128 0xe
 6372 00f5 3A        		.uleb128 0x3a
 6373 00f6 0B        		.uleb128 0xb
 6374 00f7 3B        		.uleb128 0x3b
 6375 00f8 05        		.uleb128 0x5
 6376 00f9 27        		.uleb128 0x27
 6377 00fa 0C        		.uleb128 0xc
 6378 00fb 20        		.uleb128 0x20
 6379 00fc 0B        		.uleb128 0xb
 6380 00fd 00        		.byte	0x0
 6381 00fe 00        		.byte	0x0
 6382 00ff 14        		.uleb128 0x14
 6383 0100 2E        		.uleb128 0x2e
 6384 0101 01        		.byte	0x1
 6385 0102 03        		.uleb128 0x3
 6386 0103 0E        		.uleb128 0xe
GAS LISTING C:\Users\ADMINI~1\AppData\Local\Temp/ccZjgOiQ.s 			page 115


 6387 0104 3A        		.uleb128 0x3a
 6388 0105 0B        		.uleb128 0xb
 6389 0106 3B        		.uleb128 0x3b
 6390 0107 0B        		.uleb128 0xb
 6391 0108 27        		.uleb128 0x27
 6392 0109 0C        		.uleb128 0xc
 6393 010a 49        		.uleb128 0x49
 6394 010b 13        		.uleb128 0x13
 6395 010c 20        		.uleb128 0x20
 6396 010d 0B        		.uleb128 0xb
 6397 010e 01        		.uleb128 0x1
 6398 010f 13        		.uleb128 0x13
 6399 0110 00        		.byte	0x0
 6400 0111 00        		.byte	0x0
 6401 0112 15        		.uleb128 0x15
 6402 0113 0B        		.uleb128 0xb
 6403 0114 01        		.byte	0x1
 6404 0115 00        		.byte	0x0
 6405 0116 00        		.byte	0x0
 6406 0117 16        		.uleb128 0x16
 6407 0118 05        		.uleb128 0x5
 6408 0119 00        		.byte	0x0
 6409 011a 31        		.uleb128 0x31
 6410 011b 13        		.uleb128 0x13
 6411 011c 00        		.byte	0x0
 6412 011d 00        		.byte	0x0
 6413 011e 17        		.uleb128 0x17
 6414 011f 2E        		.uleb128 0x2e
 6415 0120 00        		.byte	0x0
 6416 0121 03        		.uleb128 0x3
 6417 0122 0E        		.uleb128 0xe
 6418 0123 3A        		.uleb128 0x3a
 6419 0124 0B        		.uleb128 0xb
 6420 0125 3B        		.uleb128 0x3b
 6421 0126 0B        		.uleb128 0xb
 6422 0127 27        		.uleb128 0x27
 6423 0128 0C        		.uleb128 0xc
 6424 0129 20        		.uleb128 0x20
 6425 012a 0B        		.uleb128 0xb
 6426 012b 00        		.byte	0x0
 6427 012c 00        		.byte	0x0
 6428 012d 18        		.uleb128 0x18
 6429 012e 2E        		.uleb128 0x2e
 6430 012f 00        		.byte	0x0
 6431 0130 31        		.uleb128 0x31
 6432 0131 13        		.uleb128 0x13
 6433 0132 11        		.uleb128 0x11
 6434 0133 01        		.uleb128 0x1
 6435 0134 12        		.uleb128 0x12
 6436 0135 01        		.uleb128 0x1
 6437 0136 40        		.uleb128 0x40
 6438 0137 0A        		.uleb128 0xa
 6439 0138 00        		.byte	0x0
 6440 0139 00        		.byte	0x0
 6441 013a 19        		.uleb128 0x19
 6442 013b 2E        		.uleb128 0x2e
 6443 013c 01        		.byte	0x1
GAS LISTING C:\Users\ADMINI~1\AppData\Local\Temp/ccZjgOiQ.s 			page 116


 6444 013d 3F        		.uleb128 0x3f
 6445 013e 0C        		.uleb128 0xc
 6446 013f 03        		.uleb128 0x3
 6447 0140 0E        		.uleb128 0xe
 6448 0141 3A        		.uleb128 0x3a
 6449 0142 0B        		.uleb128 0xb
 6450 0143 3B        		.uleb128 0x3b
 6451 0144 0B        		.uleb128 0xb
 6452 0145 27        		.uleb128 0x27
 6453 0146 0C        		.uleb128 0xc
 6454 0147 11        		.uleb128 0x11
 6455 0148 01        		.uleb128 0x1
 6456 0149 12        		.uleb128 0x12
 6457 014a 01        		.uleb128 0x1
 6458 014b 40        		.uleb128 0x40
 6459 014c 0A        		.uleb128 0xa
 6460 014d 01        		.uleb128 0x1
 6461 014e 13        		.uleb128 0x13
 6462 014f 00        		.byte	0x0
 6463 0150 00        		.byte	0x0
 6464 0151 1A        		.uleb128 0x1a
 6465 0152 05        		.uleb128 0x5
 6466 0153 00        		.byte	0x0
 6467 0154 03        		.uleb128 0x3
 6468 0155 0E        		.uleb128 0xe
 6469 0156 3A        		.uleb128 0x3a
 6470 0157 0B        		.uleb128 0xb
 6471 0158 3B        		.uleb128 0x3b
 6472 0159 0B        		.uleb128 0xb
 6473 015a 49        		.uleb128 0x49
 6474 015b 13        		.uleb128 0x13
 6475 015c 02        		.uleb128 0x2
 6476 015d 06        		.uleb128 0x6
 6477 015e 00        		.byte	0x0
 6478 015f 00        		.byte	0x0
 6479 0160 1B        		.uleb128 0x1b
 6480 0161 2E        		.uleb128 0x2e
 6481 0162 00        		.byte	0x0
 6482 0163 3F        		.uleb128 0x3f
 6483 0164 0C        		.uleb128 0xc
 6484 0165 03        		.uleb128 0x3
 6485 0166 0E        		.uleb128 0xe
 6486 0167 3A        		.uleb128 0x3a
 6487 0168 0B        		.uleb128 0xb
 6488 0169 3B        		.uleb128 0x3b
 6489 016a 0B        		.uleb128 0xb
 6490 016b 27        		.uleb128 0x27
 6491 016c 0C        		.uleb128 0xc
 6492 016d 49        		.uleb128 0x49
 6493 016e 13        		.uleb128 0x13
 6494 016f 11        		.uleb128 0x11
 6495 0170 01        		.uleb128 0x1
 6496 0171 12        		.uleb128 0x12
 6497 0172 01        		.uleb128 0x1
 6498 0173 40        		.uleb128 0x40
 6499 0174 0A        		.uleb128 0xa
 6500 0175 00        		.byte	0x0
GAS LISTING C:\Users\ADMINI~1\AppData\Local\Temp/ccZjgOiQ.s 			page 117


 6501 0176 00        		.byte	0x0
 6502 0177 1C        		.uleb128 0x1c
 6503 0178 2E        		.uleb128 0x2e
 6504 0179 00        		.byte	0x0
 6505 017a 3F        		.uleb128 0x3f
 6506 017b 0C        		.uleb128 0xc
 6507 017c 03        		.uleb128 0x3
 6508 017d 0E        		.uleb128 0xe
 6509 017e 3A        		.uleb128 0x3a
 6510 017f 0B        		.uleb128 0xb
 6511 0180 3B        		.uleb128 0x3b
 6512 0181 0B        		.uleb128 0xb
 6513 0182 27        		.uleb128 0x27
 6514 0183 0C        		.uleb128 0xc
 6515 0184 11        		.uleb128 0x11
 6516 0185 01        		.uleb128 0x1
 6517 0186 12        		.uleb128 0x12
 6518 0187 01        		.uleb128 0x1
 6519 0188 40        		.uleb128 0x40
 6520 0189 0A        		.uleb128 0xa
 6521 018a 00        		.byte	0x0
 6522 018b 00        		.byte	0x0
 6523 018c 1D        		.uleb128 0x1d
 6524 018d 2E        		.uleb128 0x2e
 6525 018e 01        		.byte	0x1
 6526 018f 31        		.uleb128 0x31
 6527 0190 13        		.uleb128 0x13
 6528 0191 11        		.uleb128 0x11
 6529 0192 01        		.uleb128 0x1
 6530 0193 12        		.uleb128 0x12
 6531 0194 01        		.uleb128 0x1
 6532 0195 40        		.uleb128 0x40
 6533 0196 0A        		.uleb128 0xa
 6534 0197 01        		.uleb128 0x1
 6535 0198 13        		.uleb128 0x13
 6536 0199 00        		.byte	0x0
 6537 019a 00        		.byte	0x0
 6538 019b 1E        		.uleb128 0x1e
 6539 019c 05        		.uleb128 0x5
 6540 019d 00        		.byte	0x0
 6541 019e 31        		.uleb128 0x31
 6542 019f 13        		.uleb128 0x13
 6543 01a0 02        		.uleb128 0x2
 6544 01a1 06        		.uleb128 0x6
 6545 01a2 00        		.byte	0x0
 6546 01a3 00        		.byte	0x0
 6547 01a4 1F        		.uleb128 0x1f
 6548 01a5 1D        		.uleb128 0x1d
 6549 01a6 01        		.byte	0x1
 6550 01a7 31        		.uleb128 0x31
 6551 01a8 13        		.uleb128 0x13
 6552 01a9 11        		.uleb128 0x11
 6553 01aa 01        		.uleb128 0x1
 6554 01ab 12        		.uleb128 0x12
 6555 01ac 01        		.uleb128 0x1
 6556 01ad 58        		.uleb128 0x58
 6557 01ae 0B        		.uleb128 0xb
GAS LISTING C:\Users\ADMINI~1\AppData\Local\Temp/ccZjgOiQ.s 			page 118


 6558 01af 59        		.uleb128 0x59
 6559 01b0 0B        		.uleb128 0xb
 6560 01b1 00        		.byte	0x0
 6561 01b2 00        		.byte	0x0
 6562 01b3 20        		.uleb128 0x20
 6563 01b4 2E        		.uleb128 0x2e
 6564 01b5 00        		.byte	0x0
 6565 01b6 03        		.uleb128 0x3
 6566 01b7 0E        		.uleb128 0xe
 6567 01b8 3A        		.uleb128 0x3a
 6568 01b9 0B        		.uleb128 0xb
 6569 01ba 3B        		.uleb128 0x3b
 6570 01bb 05        		.uleb128 0x5
 6571 01bc 27        		.uleb128 0x27
 6572 01bd 0C        		.uleb128 0xc
 6573 01be 11        		.uleb128 0x11
 6574 01bf 01        		.uleb128 0x1
 6575 01c0 12        		.uleb128 0x12
 6576 01c1 01        		.uleb128 0x1
 6577 01c2 40        		.uleb128 0x40
 6578 01c3 0A        		.uleb128 0xa
 6579 01c4 00        		.byte	0x0
 6580 01c5 00        		.byte	0x0
 6581 01c6 21        		.uleb128 0x21
 6582 01c7 2E        		.uleb128 0x2e
 6583 01c8 00        		.byte	0x0
 6584 01c9 3F        		.uleb128 0x3f
 6585 01ca 0C        		.uleb128 0xc
 6586 01cb 03        		.uleb128 0x3
 6587 01cc 0E        		.uleb128 0xe
 6588 01cd 3A        		.uleb128 0x3a
 6589 01ce 0B        		.uleb128 0xb
 6590 01cf 3B        		.uleb128 0x3b
 6591 01d0 05        		.uleb128 0x5
 6592 01d1 27        		.uleb128 0x27
 6593 01d2 0C        		.uleb128 0xc
 6594 01d3 11        		.uleb128 0x11
 6595 01d4 01        		.uleb128 0x1
 6596 01d5 12        		.uleb128 0x12
 6597 01d6 01        		.uleb128 0x1
 6598 01d7 40        		.uleb128 0x40
 6599 01d8 0A        		.uleb128 0xa
 6600 01d9 00        		.byte	0x0
 6601 01da 00        		.byte	0x0
 6602 01db 22        		.uleb128 0x22
 6603 01dc 2E        		.uleb128 0x2e
 6604 01dd 01        		.byte	0x1
 6605 01de 03        		.uleb128 0x3
 6606 01df 0E        		.uleb128 0xe
 6607 01e0 3A        		.uleb128 0x3a
 6608 01e1 0B        		.uleb128 0xb
 6609 01e2 3B        		.uleb128 0x3b
 6610 01e3 05        		.uleb128 0x5
 6611 01e4 27        		.uleb128 0x27
 6612 01e5 0C        		.uleb128 0xc
 6613 01e6 11        		.uleb128 0x11
 6614 01e7 01        		.uleb128 0x1
GAS LISTING C:\Users\ADMINI~1\AppData\Local\Temp/ccZjgOiQ.s 			page 119


 6615 01e8 12        		.uleb128 0x12
 6616 01e9 01        		.uleb128 0x1
 6617 01ea 40        		.uleb128 0x40
 6618 01eb 0A        		.uleb128 0xa
 6619 01ec 01        		.uleb128 0x1
 6620 01ed 13        		.uleb128 0x13
 6621 01ee 00        		.byte	0x0
 6622 01ef 00        		.byte	0x0
 6623 01f0 23        		.uleb128 0x23
 6624 01f1 05        		.uleb128 0x5
 6625 01f2 00        		.byte	0x0
 6626 01f3 03        		.uleb128 0x3
 6627 01f4 0E        		.uleb128 0xe
 6628 01f5 3A        		.uleb128 0x3a
 6629 01f6 0B        		.uleb128 0xb
 6630 01f7 3B        		.uleb128 0x3b
 6631 01f8 05        		.uleb128 0x5
 6632 01f9 49        		.uleb128 0x49
 6633 01fa 13        		.uleb128 0x13
 6634 01fb 02        		.uleb128 0x2
 6635 01fc 06        		.uleb128 0x6
 6636 01fd 00        		.byte	0x0
 6637 01fe 00        		.byte	0x0
 6638 01ff 24        		.uleb128 0x24
 6639 0200 34        		.uleb128 0x34
 6640 0201 00        		.byte	0x0
 6641 0202 03        		.uleb128 0x3
 6642 0203 08        		.uleb128 0x8
 6643 0204 3A        		.uleb128 0x3a
 6644 0205 0B        		.uleb128 0xb
 6645 0206 3B        		.uleb128 0x3b
 6646 0207 05        		.uleb128 0x5
 6647 0208 49        		.uleb128 0x49
 6648 0209 13        		.uleb128 0x13
 6649 020a 00        		.byte	0x0
 6650 020b 00        		.byte	0x0
 6651 020c 25        		.uleb128 0x25
 6652 020d 34        		.uleb128 0x34
 6653 020e 00        		.byte	0x0
 6654 020f 03        		.uleb128 0x3
 6655 0210 0E        		.uleb128 0xe
 6656 0211 3A        		.uleb128 0x3a
 6657 0212 0B        		.uleb128 0xb
 6658 0213 3B        		.uleb128 0x3b
 6659 0214 05        		.uleb128 0x5
 6660 0215 49        		.uleb128 0x49
 6661 0216 13        		.uleb128 0x13
 6662 0217 02        		.uleb128 0x2
 6663 0218 0A        		.uleb128 0xa
 6664 0219 00        		.byte	0x0
 6665 021a 00        		.byte	0x0
 6666 021b 26        		.uleb128 0x26
 6667 021c 34        		.uleb128 0x34
 6668 021d 00        		.byte	0x0
 6669 021e 03        		.uleb128 0x3
 6670 021f 08        		.uleb128 0x8
 6671 0220 3A        		.uleb128 0x3a
GAS LISTING C:\Users\ADMINI~1\AppData\Local\Temp/ccZjgOiQ.s 			page 120


 6672 0221 0B        		.uleb128 0xb
 6673 0222 3B        		.uleb128 0x3b
 6674 0223 05        		.uleb128 0x5
 6675 0224 49        		.uleb128 0x49
 6676 0225 13        		.uleb128 0x13
 6677 0226 02        		.uleb128 0x2
 6678 0227 06        		.uleb128 0x6
 6679 0228 00        		.byte	0x0
 6680 0229 00        		.byte	0x0
 6681 022a 27        		.uleb128 0x27
 6682 022b 01        		.uleb128 0x1
 6683 022c 01        		.byte	0x1
 6684 022d 49        		.uleb128 0x49
 6685 022e 13        		.uleb128 0x13
 6686 022f 01        		.uleb128 0x1
 6687 0230 13        		.uleb128 0x13
 6688 0231 00        		.byte	0x0
 6689 0232 00        		.byte	0x0
 6690 0233 28        		.uleb128 0x28
 6691 0234 21        		.uleb128 0x21
 6692 0235 00        		.byte	0x0
 6693 0236 49        		.uleb128 0x49
 6694 0237 13        		.uleb128 0x13
 6695 0238 2F        		.uleb128 0x2f
 6696 0239 0B        		.uleb128 0xb
 6697 023a 00        		.byte	0x0
 6698 023b 00        		.byte	0x0
 6699 023c 29        		.uleb128 0x29
 6700 023d 05        		.uleb128 0x5
 6701 023e 00        		.byte	0x0
 6702 023f 03        		.uleb128 0x3
 6703 0240 08        		.uleb128 0x8
 6704 0241 3A        		.uleb128 0x3a
 6705 0242 0B        		.uleb128 0xb
 6706 0243 3B        		.uleb128 0x3b
 6707 0244 05        		.uleb128 0x5
 6708 0245 49        		.uleb128 0x49
 6709 0246 13        		.uleb128 0x13
 6710 0247 02        		.uleb128 0x2
 6711 0248 06        		.uleb128 0x6
 6712 0249 00        		.byte	0x0
 6713 024a 00        		.byte	0x0
 6714 024b 2A        		.uleb128 0x2a
 6715 024c 0B        		.uleb128 0xb
 6716 024d 01        		.byte	0x1
 6717 024e 11        		.uleb128 0x11
 6718 024f 01        		.uleb128 0x1
 6719 0250 12        		.uleb128 0x12
 6720 0251 01        		.uleb128 0x1
 6721 0252 00        		.byte	0x0
 6722 0253 00        		.byte	0x0
 6723 0254 2B        		.uleb128 0x2b
 6724 0255 34        		.uleb128 0x34
 6725 0256 00        		.byte	0x0
 6726 0257 03        		.uleb128 0x3
 6727 0258 0E        		.uleb128 0xe
 6728 0259 3A        		.uleb128 0x3a
GAS LISTING C:\Users\ADMINI~1\AppData\Local\Temp/ccZjgOiQ.s 			page 121


 6729 025a 0B        		.uleb128 0xb
 6730 025b 3B        		.uleb128 0x3b
 6731 025c 05        		.uleb128 0x5
 6732 025d 49        		.uleb128 0x49
 6733 025e 13        		.uleb128 0x13
 6734 025f 02        		.uleb128 0x2
 6735 0260 06        		.uleb128 0x6
 6736 0261 00        		.byte	0x0
 6737 0262 00        		.byte	0x0
 6738 0263 2C        		.uleb128 0x2c
 6739 0264 26        		.uleb128 0x26
 6740 0265 00        		.byte	0x0
 6741 0266 49        		.uleb128 0x49
 6742 0267 13        		.uleb128 0x13
 6743 0268 00        		.byte	0x0
 6744 0269 00        		.byte	0x0
 6745 026a 2D        		.uleb128 0x2d
 6746 026b 2E        		.uleb128 0x2e
 6747 026c 01        		.byte	0x1
 6748 026d 3F        		.uleb128 0x3f
 6749 026e 0C        		.uleb128 0xc
 6750 026f 03        		.uleb128 0x3
 6751 0270 0E        		.uleb128 0xe
 6752 0271 3A        		.uleb128 0x3a
 6753 0272 0B        		.uleb128 0xb
 6754 0273 3B        		.uleb128 0x3b
 6755 0274 05        		.uleb128 0x5
 6756 0275 27        		.uleb128 0x27
 6757 0276 0C        		.uleb128 0xc
 6758 0277 11        		.uleb128 0x11
 6759 0278 01        		.uleb128 0x1
 6760 0279 12        		.uleb128 0x12
 6761 027a 01        		.uleb128 0x1
 6762 027b 40        		.uleb128 0x40
 6763 027c 0A        		.uleb128 0xa
 6764 027d 01        		.uleb128 0x1
 6765 027e 13        		.uleb128 0x13
 6766 027f 00        		.byte	0x0
 6767 0280 00        		.byte	0x0
 6768 0281 2E        		.uleb128 0x2e
 6769 0282 1D        		.uleb128 0x1d
 6770 0283 00        		.byte	0x0
 6771 0284 31        		.uleb128 0x31
 6772 0285 13        		.uleb128 0x13
 6773 0286 11        		.uleb128 0x11
 6774 0287 01        		.uleb128 0x1
 6775 0288 12        		.uleb128 0x12
 6776 0289 01        		.uleb128 0x1
 6777 028a 58        		.uleb128 0x58
 6778 028b 0B        		.uleb128 0xb
 6779 028c 59        		.uleb128 0x59
 6780 028d 05        		.uleb128 0x5
 6781 028e 00        		.byte	0x0
 6782 028f 00        		.byte	0x0
 6783 0290 2F        		.uleb128 0x2f
 6784 0291 2E        		.uleb128 0x2e
 6785 0292 00        		.byte	0x0
GAS LISTING C:\Users\ADMINI~1\AppData\Local\Temp/ccZjgOiQ.s 			page 122


 6786 0293 3F        		.uleb128 0x3f
 6787 0294 0C        		.uleb128 0xc
 6788 0295 03        		.uleb128 0x3
 6789 0296 0E        		.uleb128 0xe
 6790 0297 3A        		.uleb128 0x3a
 6791 0298 0B        		.uleb128 0xb
 6792 0299 3B        		.uleb128 0x3b
 6793 029a 05        		.uleb128 0x5
 6794 029b 11        		.uleb128 0x11
 6795 029c 01        		.uleb128 0x1
 6796 029d 12        		.uleb128 0x12
 6797 029e 01        		.uleb128 0x1
 6798 029f 40        		.uleb128 0x40
 6799 02a0 0A        		.uleb128 0xa
 6800 02a1 00        		.byte	0x0
 6801 02a2 00        		.byte	0x0
 6802 02a3 30        		.uleb128 0x30
 6803 02a4 34        		.uleb128 0x34
 6804 02a5 00        		.byte	0x0
 6805 02a6 03        		.uleb128 0x3
 6806 02a7 0E        		.uleb128 0xe
 6807 02a8 3A        		.uleb128 0x3a
 6808 02a9 0B        		.uleb128 0xb
 6809 02aa 3B        		.uleb128 0x3b
 6810 02ab 05        		.uleb128 0x5
 6811 02ac 49        		.uleb128 0x49
 6812 02ad 13        		.uleb128 0x13
 6813 02ae 00        		.byte	0x0
 6814 02af 00        		.byte	0x0
 6815 02b0 31        		.uleb128 0x31
 6816 02b1 1D        		.uleb128 0x1d
 6817 02b2 01        		.byte	0x1
 6818 02b3 31        		.uleb128 0x31
 6819 02b4 13        		.uleb128 0x13
 6820 02b5 11        		.uleb128 0x11
 6821 02b6 01        		.uleb128 0x1
 6822 02b7 12        		.uleb128 0x12
 6823 02b8 01        		.uleb128 0x1
 6824 02b9 58        		.uleb128 0x58
 6825 02ba 0B        		.uleb128 0xb
 6826 02bb 59        		.uleb128 0x59
 6827 02bc 05        		.uleb128 0x5
 6828 02bd 00        		.byte	0x0
 6829 02be 00        		.byte	0x0
 6830 02bf 32        		.uleb128 0x32
 6831 02c0 34        		.uleb128 0x34
 6832 02c1 00        		.byte	0x0
 6833 02c2 31        		.uleb128 0x31
 6834 02c3 13        		.uleb128 0x13
 6835 02c4 02        		.uleb128 0x2
 6836 02c5 0A        		.uleb128 0xa
 6837 02c6 00        		.byte	0x0
 6838 02c7 00        		.byte	0x0
 6839 02c8 33        		.uleb128 0x33
 6840 02c9 34        		.uleb128 0x34
 6841 02ca 00        		.byte	0x0
 6842 02cb 31        		.uleb128 0x31
GAS LISTING C:\Users\ADMINI~1\AppData\Local\Temp/ccZjgOiQ.s 			page 123


 6843 02cc 13        		.uleb128 0x13
 6844 02cd 00        		.byte	0x0
 6845 02ce 00        		.byte	0x0
 6846 02cf 34        		.uleb128 0x34
 6847 02d0 05        		.uleb128 0x5
 6848 02d1 00        		.byte	0x0
 6849 02d2 31        		.uleb128 0x31
 6850 02d3 13        		.uleb128 0x13
 6851 02d4 02        		.uleb128 0x2
 6852 02d5 0A        		.uleb128 0xa
 6853 02d6 00        		.byte	0x0
 6854 02d7 00        		.byte	0x0
 6855 02d8 35        		.uleb128 0x35
 6856 02d9 1D        		.uleb128 0x1d
 6857 02da 01        		.byte	0x1
 6858 02db 31        		.uleb128 0x31
 6859 02dc 13        		.uleb128 0x13
 6860 02dd 11        		.uleb128 0x11
 6861 02de 01        		.uleb128 0x1
 6862 02df 12        		.uleb128 0x12
 6863 02e0 01        		.uleb128 0x1
 6864 02e1 58        		.uleb128 0x58
 6865 02e2 0B        		.uleb128 0xb
 6866 02e3 59        		.uleb128 0x59
 6867 02e4 05        		.uleb128 0x5
 6868 02e5 01        		.uleb128 0x1
 6869 02e6 13        		.uleb128 0x13
 6870 02e7 00        		.byte	0x0
 6871 02e8 00        		.byte	0x0
 6872 02e9 36        		.uleb128 0x36
 6873 02ea 34        		.uleb128 0x34
 6874 02eb 00        		.byte	0x0
 6875 02ec 31        		.uleb128 0x31
 6876 02ed 13        		.uleb128 0x13
 6877 02ee 02        		.uleb128 0x2
 6878 02ef 06        		.uleb128 0x6
 6879 02f0 00        		.byte	0x0
 6880 02f1 00        		.byte	0x0
 6881 02f2 37        		.uleb128 0x37
 6882 02f3 2E        		.uleb128 0x2e
 6883 02f4 01        		.byte	0x1
 6884 02f5 3F        		.uleb128 0x3f
 6885 02f6 0C        		.uleb128 0xc
 6886 02f7 03        		.uleb128 0x3
 6887 02f8 0E        		.uleb128 0xe
 6888 02f9 3A        		.uleb128 0x3a
 6889 02fa 0B        		.uleb128 0xb
 6890 02fb 3B        		.uleb128 0x3b
 6891 02fc 0B        		.uleb128 0xb
 6892 02fd 27        		.uleb128 0x27
 6893 02fe 0C        		.uleb128 0xc
 6894 02ff 49        		.uleb128 0x49
 6895 0300 13        		.uleb128 0x13
 6896 0301 11        		.uleb128 0x11
 6897 0302 01        		.uleb128 0x1
 6898 0303 12        		.uleb128 0x12
 6899 0304 01        		.uleb128 0x1
GAS LISTING C:\Users\ADMINI~1\AppData\Local\Temp/ccZjgOiQ.s 			page 124


 6900 0305 40        		.uleb128 0x40
 6901 0306 0A        		.uleb128 0xa
 6902 0307 01        		.uleb128 0x1
 6903 0308 13        		.uleb128 0x13
 6904 0309 00        		.byte	0x0
 6905 030a 00        		.byte	0x0
 6906 030b 38        		.uleb128 0x38
 6907 030c 34        		.uleb128 0x34
 6908 030d 00        		.byte	0x0
 6909 030e 03        		.uleb128 0x3
 6910 030f 0E        		.uleb128 0xe
 6911 0310 3A        		.uleb128 0x3a
 6912 0311 0B        		.uleb128 0xb
 6913 0312 3B        		.uleb128 0x3b
 6914 0313 0B        		.uleb128 0xb
 6915 0314 49        		.uleb128 0x49
 6916 0315 13        		.uleb128 0x13
 6917 0316 02        		.uleb128 0x2
 6918 0317 0A        		.uleb128 0xa
 6919 0318 00        		.byte	0x0
 6920 0319 00        		.byte	0x0
 6921 031a 39        		.uleb128 0x39
 6922 031b 2E        		.uleb128 0x2e
 6923 031c 01        		.byte	0x1
 6924 031d 3F        		.uleb128 0x3f
 6925 031e 0C        		.uleb128 0xc
 6926 031f 03        		.uleb128 0x3
 6927 0320 0E        		.uleb128 0xe
 6928 0321 3A        		.uleb128 0x3a
 6929 0322 0B        		.uleb128 0xb
 6930 0323 3B        		.uleb128 0x3b
 6931 0324 05        		.uleb128 0x5
 6932 0325 27        		.uleb128 0x27
 6933 0326 0C        		.uleb128 0xc
 6934 0327 49        		.uleb128 0x49
 6935 0328 13        		.uleb128 0x13
 6936 0329 11        		.uleb128 0x11
 6937 032a 01        		.uleb128 0x1
 6938 032b 12        		.uleb128 0x12
 6939 032c 01        		.uleb128 0x1
 6940 032d 40        		.uleb128 0x40
 6941 032e 0A        		.uleb128 0xa
 6942 032f 01        		.uleb128 0x1
 6943 0330 13        		.uleb128 0x13
 6944 0331 00        		.byte	0x0
 6945 0332 00        		.byte	0x0
 6946 0333 3A        		.uleb128 0x3a
 6947 0334 1D        		.uleb128 0x1d
 6948 0335 00        		.byte	0x0
 6949 0336 31        		.uleb128 0x31
 6950 0337 13        		.uleb128 0x13
 6951 0338 11        		.uleb128 0x11
 6952 0339 01        		.uleb128 0x1
 6953 033a 12        		.uleb128 0x12
 6954 033b 01        		.uleb128 0x1
 6955 033c 58        		.uleb128 0x58
 6956 033d 0B        		.uleb128 0xb
GAS LISTING C:\Users\ADMINI~1\AppData\Local\Temp/ccZjgOiQ.s 			page 125


 6957 033e 59        		.uleb128 0x59
 6958 033f 0B        		.uleb128 0xb
 6959 0340 00        		.byte	0x0
 6960 0341 00        		.byte	0x0
 6961 0342 3B        		.uleb128 0x3b
 6962 0343 34        		.uleb128 0x34
 6963 0344 00        		.byte	0x0
 6964 0345 03        		.uleb128 0x3
 6965 0346 0E        		.uleb128 0xe
 6966 0347 3A        		.uleb128 0x3a
 6967 0348 0B        		.uleb128 0xb
 6968 0349 3B        		.uleb128 0x3b
 6969 034a 0B        		.uleb128 0xb
 6970 034b 49        		.uleb128 0x49
 6971 034c 13        		.uleb128 0x13
 6972 034d 3F        		.uleb128 0x3f
 6973 034e 0C        		.uleb128 0xc
 6974 034f 3C        		.uleb128 0x3c
 6975 0350 0C        		.uleb128 0xc
 6976 0351 00        		.byte	0x0
 6977 0352 00        		.byte	0x0
 6978 0353 3C        		.uleb128 0x3c
 6979 0354 34        		.uleb128 0x34
 6980 0355 00        		.byte	0x0
 6981 0356 03        		.uleb128 0x3
 6982 0357 0E        		.uleb128 0xe
 6983 0358 3A        		.uleb128 0x3a
 6984 0359 0B        		.uleb128 0xb
 6985 035a 3B        		.uleb128 0x3b
 6986 035b 0B        		.uleb128 0xb
 6987 035c 49        		.uleb128 0x49
 6988 035d 13        		.uleb128 0x13
 6989 035e 3F        		.uleb128 0x3f
 6990 035f 0C        		.uleb128 0xc
 6991 0360 02        		.uleb128 0x2
 6992 0361 0A        		.uleb128 0xa
 6993 0362 00        		.byte	0x0
 6994 0363 00        		.byte	0x0
 6995 0364 00        		.byte	0x0
 6996               		.section	.debug_pubnames,"",@progbits
 6997 0000 FA05 0000 		.long	0x5fa
 6998 0004 0200      		.word	0x2
 6999 0006 0000 0000 		.long	.Ldebug_info0
 7000 000a 8815 0000 		.long	0x1588
 7001 000e 4506 0000 		.long	0x645
 7002 0012 7365 7457 		.string	"setWillStartKeyMapping"
 7002      696C 6C53 
 7002      7461 7274 
 7002      4B65 794D 
 7002      6170 7069 
 7003 0029 5506 0000 		.long	0x655
 7004 002d 6973 4B65 		.string	"isKeyMapping"
 7004      794D 6170 
 7004      7069 6E67 
 7004      00
 7005 003a 6506 0000 		.long	0x665
 7006 003e 6973 4465 		.string	"isDeepKeyMapping"
GAS LISTING C:\Users\ADMINI~1\AppData\Local\Temp/ccZjgOiQ.s 			page 126


 7006      6570 4B65 
 7006      794D 6170 
 7006      7069 6E67 
 7006      00
 7007 004f 7506 0000 		.long	0x675
 7008 0053 6170 706C 		.string	"applyKeyMapping"
 7008      794B 6579 
 7008      4D61 7070 
 7008      696E 6700 
 7009 0063 9D06 0000 		.long	0x69d
 7010 0067 6973 5265 		.string	"isReadyKeyMappingOnBoot"
 7010      6164 794B 
 7010      6579 4D61 
 7010      7070 696E 
 7010      674F 6E42 
 7011 007f B506 0000 		.long	0x6b5
 7012 0083 7265 6164 		.string	"readyKeyMappingOnBoot"
 7012      794B 6579 
 7012      4D61 7070 
 7012      696E 674F 
 7012      6E42 6F6F 
 7013 0099 C906 0000 		.long	0x6c9
 7014 009d 7374 6F70 		.string	"stopKeyMapping"
 7014      4B65 794D 
 7014      6170 7069 
 7014      6E67 00
 7015 00ac D906 0000 		.long	0x6d9
 7016 00b0 6973 4D61 		.string	"isMacroKey"
 7016      6372 6F4B 
 7016      6579 00
 7017 00bb F706 0000 		.long	0x6f7
 7018 00bf 6573 6361 		.string	"escapeMacroKeycode"
 7018      7065 4D61 
 7018      6372 6F4B 
 7018      6579 636F 
 7018      6465 00
 7019 00d2 3E07 0000 		.long	0x73e
 7020 00d6 7265 7365 		.string	"resetMacroInput"
 7020      744D 6163 
 7020      726F 496E 
 7020      7075 7400 
 7021 00e6 6608 0000 		.long	0x866
 7022 00ea 7265 7365 		.string	"resetCurrentLayer"
 7022      7443 7572 
 7022      7265 6E74 
 7022      4C61 7965 
 7022      7200 
 7023 00fc 9408 0000 		.long	0x894
 7024 0100 636C 6561 		.string	"clearMacro"
 7024      724D 6163 
 7024      726F 00
 7025 010b A908 0000 		.long	0x8a9
 7026 010f 7361 7665 		.string	"saveCurrentLayer"
 7026      4375 7272 
 7026      656E 744C 
 7026      6179 6572 
 7026      00
GAS LISTING C:\Users\ADMINI~1\AppData\Local\Temp/ccZjgOiQ.s 			page 127


 7027 0120 D308 0000 		.long	0x8d3
 7028 0124 7072 696E 		.string	"printPrepareString"
 7028      7450 7265 
 7028      7061 7265 
 7028      5374 7269 
 7028      6E67 00
 7029 0137 E708 0000 		.long	0x8e7
 7030 013b 7072 696E 		.string	"printMacroMessage"
 7030      744D 6163 
 7030      726F 4D65 
 7030      7373 6167 
 7030      6500 
 7031 014d 6E09 0000 		.long	0x96e
 7032 0151 7072 696E 		.string	"printSelectMode"
 7032      7453 656C 
 7032      6563 744D 
 7032      6F64 6500 
 7033 0161 8309 0000 		.long	0x983
 7034 0165 7072 696E 		.string	"printMapperMessageAfter"
 7034      744D 6170 
 7034      7065 724D 
 7034      6573 7361 
 7034      6765 4166 
 7035 017d 9809 0000 		.long	0x998
 7036 0181 636C 6561 		.string	"clearMacroAfter"
 7036      724D 6163 
 7036      726F 4166 
 7036      7465 7200 
 7037 0191 C809 0000 		.long	0x9c8
 7038 0195 7361 7665 		.string	"saveMacro"
 7038      4D61 6372 
 7038      6F00 
 7039 019f 200A 0000 		.long	0xa20
 7040 01a3 7265 6164 		.string	"readMacro"
 7040      4D61 6372 
 7040      6F00 
 7041 01ad 7C0A 0000 		.long	0xa7c
 7042 01b1 6C6F 6164 		.string	"loadCurrentLayer"
 7042      4375 7272 
 7042      656E 744C 
 7042      6179 6572 
 7042      00
 7043 01c2 B60A 0000 		.long	0xab6
 7044 01c6 7075 744B 		.string	"putKeyCode"
 7044      6579 436F 
 7044      6465 00
 7045 01d1 790C 0000 		.long	0xc79
 7046 01d5 7361 7665 		.string	"saveCurrentLayerAfter"
 7046      4375 7272 
 7046      656E 744C 
 7046      6179 6572 
 7046      4166 7465 
 7047 01eb CF0C 0000 		.long	0xccf
 7048 01ef 7072 6570 		.string	"prepareKeyMapper"
 7048      6172 654B 
 7048      6579 4D61 
 7048      7070 6572 
GAS LISTING C:\Users\ADMINI~1\AppData\Local\Temp/ccZjgOiQ.s 			page 128


 7048      00
 7049 0200 E40C 0000 		.long	0xce4
 7050 0204 6765 7443 		.string	"getCurrentKeycode"
 7050      7572 7265 
 7050      6E74 4B65 
 7050      7963 6F64 
 7050      6500 
 7051 0216 930D 0000 		.long	0xd93
 7052 021a 6170 706C 		.string	"applyMacro"
 7052      794D 6163 
 7052      726F 00
 7053 0225 E30D 0000 		.long	0xde3
 7054 0229 7374 6172 		.string	"startKeyMapping"
 7054      744B 6579 
 7054      4D61 7070 
 7054      696E 6700 
 7055 0239 1A0E 0000 		.long	0xe1a
 7056 023d 7072 6570 		.string	"prepareKeyMapping"
 7056      6172 654B 
 7056      6579 4D61 
 7056      7070 696E 
 7056      6700 
 7057 024f 420E 0000 		.long	0xe42
 7058 0253 636F 756E 		.string	"countKeyMappingEnabled"
 7058      744B 6579 
 7058      4D61 7070 
 7058      696E 6745 
 7058      6E61 626C 
 7059 026a 560E 0000 		.long	0xe56
 7060 026e 656E 7465 		.string	"enterFrameForMapper"
 7060      7246 7261 
 7060      6D65 466F 
 7060      724D 6170 
 7060      7065 7200 
 7061 0282 6A0E 0000 		.long	0xe6a
 7062 0286 7374 6172 		.string	"startKeyMappingOnBoot"
 7062      744B 6579 
 7062      4D61 7070 
 7062      696E 674F 
 7062      6E42 6F6F 
 7063 029c 1C10 0000 		.long	0x101c
 7064 02a0 7374 725F 		.string	"str_select_mode"
 7064      7365 6C65 
 7064      6374 5F6D 
 7064      6F64 6500 
 7065 02b0 4310 0000 		.long	0x1043
 7066 02b4 7374 725F 		.string	"str_select_mode1"
 7066      7365 6C65 
 7066      6374 5F6D 
 7066      6F64 6531 
 7066      00
 7067 02c5 6A10 0000 		.long	0x106a
 7068 02c9 7374 725F 		.string	"str_select_mode2"
 7068      7365 6C65 
 7068      6374 5F6D 
 7068      6F64 6532 
 7068      00
GAS LISTING C:\Users\ADMINI~1\AppData\Local\Temp/ccZjgOiQ.s 			page 129


 7069 02da 9110 0000 		.long	0x1091
 7070 02de 7374 725F 		.string	"str_select_mode3"
 7070      7365 6C65 
 7070      6374 5F6D 
 7070      6F64 6533 
 7070      00
 7071 02ef B810 0000 		.long	0x10b8
 7072 02f3 7374 725F 		.string	"str_exit"
 7072      6578 6974 
 7072      00
 7073 02fc DF10 0000 		.long	0x10df
 7074 0300 7374 725F 		.string	"str_macro_message"
 7074      6D61 6372 
 7074      6F5F 6D65 
 7074      7373 6167 
 7074      6500 
 7075 0312 0611 0000 		.long	0x1106
 7076 0316 7374 725F 		.string	"str_macro_1"
 7076      6D61 6372 
 7076      6F5F 3100 
 7077 0322 1D11 0000 		.long	0x111d
 7078 0326 7374 725F 		.string	"str_macro_2"
 7078      6D61 6372 
 7078      6F5F 3200 
 7079 0332 3411 0000 		.long	0x1134
 7080 0336 7374 725F 		.string	"str_macro_9"
 7080      6D61 6372 
 7080      6F5F 3900 
 7081 0342 4B11 0000 		.long	0x114b
 7082 0346 7374 725F 		.string	"str_back_6"
 7082      6261 636B 
 7082      5F36 00
 7083 0351 7211 0000 		.long	0x1172
 7084 0355 7374 725F 		.string	"str_mapper_message"
 7084      6D61 7070 
 7084      6572 5F6D 
 7084      6573 7361 
 7084      6765 00
 7085 0368 9911 0000 		.long	0x1199
 7086 036c 7374 725F 		.string	"str_mapper_1"
 7086      6D61 7070 
 7086      6572 5F31 
 7086      00
 7087 0379 C011 0000 		.long	0x11c0
 7088 037d 7374 725F 		.string	"str_mapper_2"
 7088      6D61 7070 
 7088      6572 5F32 
 7088      00
 7089 038a E711 0000 		.long	0x11e7
 7090 038e 7374 725F 		.string	"str_mapper_3"
 7090      6D61 7070 
 7090      6572 5F33 
 7090      00
 7091 039b 0E12 0000 		.long	0x120e
 7092 039f 7374 725F 		.string	"str_mapper_4"
 7092      6D61 7070 
 7092      6572 5F34 
GAS LISTING C:\Users\ADMINI~1\AppData\Local\Temp/ccZjgOiQ.s 			page 130


 7092      00
 7093 03ac 3512 0000 		.long	0x1235
 7094 03b0 7374 725F 		.string	"str_mapper_9"
 7094      6D61 7070 
 7094      6572 5F39 
 7094      00
 7095 03bd 4C12 0000 		.long	0x124c
 7096 03c1 7374 725F 		.string	"str_prepare_message"
 7096      7072 6570 
 7096      6172 655F 
 7096      6D65 7373 
 7096      6167 6500 
 7097 03d5 7312 0000 		.long	0x1273
 7098 03d9 7374 725F 		.string	"str_choose_layer"
 7098      6368 6F6F 
 7098      7365 5F6C 
 7098      6179 6572 
 7098      00
 7099 03ea 9A12 0000 		.long	0x129a
 7100 03ee 7374 725F 		.string	"str_choose_key"
 7100      6368 6F6F 
 7100      7365 5F6B 
 7100      6579 00
 7101 03fd C112 0000 		.long	0x12c1
 7102 0401 7374 725F 		.string	"str_input_keycode"
 7102      696E 7075 
 7102      745F 6B65 
 7102      7963 6F64 
 7102      6500 
 7103 0413 E812 0000 		.long	0x12e8
 7104 0417 7374 725F 		.string	"str_save_end_mapping"
 7104      7361 7665 
 7104      5F65 6E64 
 7104      5F6D 6170 
 7104      7069 6E67 
 7105 042c 0F13 0000 		.long	0x130f
 7106 0430 7374 725F 		.string	"str_cancel_mapping"
 7106      6361 6E63 
 7106      656C 5F6D 
 7106      6170 7069 
 7106      6E67 00
 7107 0443 2613 0000 		.long	0x1326
 7108 0447 7374 725F 		.string	"str_reset_mapping"
 7108      7265 7365 
 7108      745F 6D61 
 7108      7070 696E 
 7108      6700 
 7109 0459 4D13 0000 		.long	0x134d
 7110 045d 7374 725F 		.string	"str_input_command"
 7110      696E 7075 
 7110      745F 636F 
 7110      6D6D 616E 
 7110      6400 
 7111 046f 6413 0000 		.long	0x1364
 7112 0473 7374 725F 		.string	"str_nothing"
 7112      6E6F 7468 
 7112      696E 6700 
GAS LISTING C:\Users\ADMINI~1\AppData\Local\Temp/ccZjgOiQ.s 			page 131


 7113 047f 8B13 0000 		.long	0x138b
 7114 0483 7374 725F 		.string	"str_save_layer"
 7114      7361 7665 
 7114      5F6C 6179 
 7114      6572 00
 7115 0492 A213 0000 		.long	0x13a2
 7116 0496 7374 725F 		.string	"str_load_layer"
 7116      6C6F 6164 
 7116      5F6C 6179 
 7116      6572 00
 7117 04a5 B913 0000 		.long	0x13b9
 7118 04a9 7374 725F 		.string	"str_saving"
 7118      7361 7669 
 7118      6E67 00
 7119 04b4 D013 0000 		.long	0x13d0
 7120 04b8 7374 725F 		.string	"str_col_row"
 7120      636F 6C5F 
 7120      726F 7700 
 7121 04c4 F713 0000 		.long	0x13f7
 7122 04c8 7374 725F 		.string	"str_invalid_keycode"
 7122      696E 7661 
 7122      6C69 645F 
 7122      6B65 7963 
 7122      6F64 6500 
 7123 04dc 1E14 0000 		.long	0x141e
 7124 04e0 7374 725F 		.string	"str_select_number"
 7124      7365 6C65 
 7124      6374 5F6E 
 7124      756D 6265 
 7124      7200 
 7125 04f2 4514 0000 		.long	0x1445
 7126 04f6 7374 725F 		.string	"str_exit_macro"
 7126      6578 6974 
 7126      5F6D 6163 
 7126      726F 00
 7127 0505 6C14 0000 		.long	0x146c
 7128 0509 7374 725F 		.string	"str_input_macro"
 7128      696E 7075 
 7128      745F 6D61 
 7128      6372 6F00 
 7129 0519 9314 0000 		.long	0x1493
 7130 051d 7374 725F 		.string	"str_invalid_macro_number"
 7130      696E 7661 
 7130      6C69 645F 
 7130      6D61 6372 
 7130      6F5F 6E75 
 7131 0536 BA14 0000 		.long	0x14ba
 7132 053a 7374 725F 		.string	"str_clear_all_macro"
 7132      636C 6561 
 7132      725F 616C 
 7132      6C5F 6D61 
 7132      6372 6F00 
 7133 054e D114 0000 		.long	0x14d1
 7134 0552 5F6D 6163 		.string	"_macroIndex"
 7134      726F 496E 
 7134      6465 7800 
 7135 055e E314 0000 		.long	0x14e3
GAS LISTING C:\Users\ADMINI~1\AppData\Local\Temp/ccZjgOiQ.s 			page 132


 7136 0562 5F6D 6163 		.string	"_macroBufferIndex"
 7136      726F 4275 
 7136      6666 6572 
 7136      496E 6465 
 7136      7800 
 7137 0574 0515 0000 		.long	0x1505
 7138 0578 5F6D 6163 		.string	"_macroPressedBuffer"
 7138      726F 5072 
 7138      6573 7365 
 7138      6442 7566 
 7138      6665 7200 
 7139 058c 1715 0000 		.long	0x1517
 7140 0590 5F6D 6163 		.string	"_macroInputBuffer"
 7140      726F 496E 
 7140      7075 7442 
 7140      7566 6665 
 7140      7200 
 7141 05a2 2915 0000 		.long	0x1529
 7142 05a6 5F70 7265 		.string	"_pressedEscapeKeyCount"
 7142      7373 6564 
 7142      4573 6361 
 7142      7065 4B65 
 7142      7943 6F75 
 7143 05bd 3B15 0000 		.long	0x153b
 7144 05c1 5F69 7350 		.string	"_isPressedEscapeKey"
 7144      7265 7373 
 7144      6564 4573 
 7144      6361 7065 
 7144      4B65 7900 
 7145 05d5 4D15 0000 		.long	0x154d
 7146 05d9 5F69 7354 		.string	"_isTiredEscapeKey"
 7146      6972 6564 
 7146      4573 6361 
 7146      7065 4B65 
 7146      7900 
 7147 05eb 7515 0000 		.long	0x1575
 7148 05ef 5F6E 6577 		.string	"_newKeyMap"
 7148      4B65 794D 
 7148      6170 00
 7149 05fa 0000 0000 		.long	0x0
 7150               		.section	.debug_aranges,"",@progbits
 7151 0000 1C00 0000 		.long	0x1c
 7152 0004 0200      		.word	0x2
 7153 0006 0000 0000 		.long	.Ldebug_info0
 7154 000a 04        		.byte	0x4
 7155 000b 00        		.byte	0x0
 7156 000c 0000      		.word	0x0
 7157 000e 0000      		.word	0x0
 7158 0010 0000 0000 		.long	.Ltext0
 7159 0014 A00D 0000 		.long	.Letext0-.Ltext0
 7160 0018 0000 0000 		.long	0x0
 7161 001c 0000 0000 		.long	0x0
 7162               		.section	.debug_line
 7163 0000 610E 0000 		.long	.LELT0-.LSLT0
 7164               	.LSLT0:
 7165 0004 0200      		.word	0x2
 7166 0006 DF00 0000 		.long	.LELTP0-.LASLTP0
GAS LISTING C:\Users\ADMINI~1\AppData\Local\Temp/ccZjgOiQ.s 			page 133


 7167               	.LASLTP0:
 7168 000a 01        		.byte	0x1
 7169 000b 01        		.byte	0x1
 7170 000c F6        		.byte	0xf6
 7171 000d F5        		.byte	0xf5
 7172 000e 0A        		.byte	0xa
 7173 000f 00        		.byte	0x0
 7174 0010 01        		.byte	0x1
 7175 0011 01        		.byte	0x1
 7176 0012 01        		.byte	0x1
 7177 0013 01        		.byte	0x1
 7178 0014 00        		.byte	0x0
 7179 0015 00        		.byte	0x0
 7180 0016 00        		.byte	0x0
 7181 0017 01        		.byte	0x1
 7182 0018 633A 2F77 		.ascii	"c:/winavr-20100110/lib/gcc/../../avr/include"
 7182      696E 6176 
 7182      722D 3230 
 7182      3130 3031 
 7182      3130 2F6C 
 7183 0044 00        		.byte	0
 7184 0045 633A 2F77 		.ascii	"c:/winavr-20100110/lib/gcc/../../avr/include/util"
 7184      696E 6176 
 7184      722D 3230 
 7184      3130 3031 
 7184      3130 2F6C 
 7185 0076 00        		.byte	0
 7186 0077 00        		.byte	0x0
 7187 0078 6B65 796D 		.string	"keymapper.c"
 7187      6170 7065 
 7187      722E 6300 
 7188 0084 00        		.uleb128 0x0
 7189 0085 00        		.uleb128 0x0
 7190 0086 00        		.uleb128 0x0
 7191 0087 7574 696C 		.string	"util/delay_basic.h"
 7191      2F64 656C 
 7191      6179 5F62 
 7191      6173 6963 
 7191      2E68 00
 7192 009a 01        		.uleb128 0x1
 7193 009b 00        		.uleb128 0x0
 7194 009c 00        		.uleb128 0x0
 7195 009d 7574 696C 		.string	"util/delay.h"
 7195      2F64 656C 
 7195      6179 2E68 
 7195      00
 7196 00aa 01        		.uleb128 0x1
 7197 00ab 00        		.uleb128 0x0
 7198 00ac 00        		.uleb128 0x0
 7199 00ad 7374 6469 		.string	"stdint.h"
 7199      6E74 2E68 
 7199      00
 7200 00b6 01        		.uleb128 0x1
 7201 00b7 00        		.uleb128 0x0
 7202 00b8 00        		.uleb128 0x0
 7203 00b9 6B65 796D 		.string	"keymap.h"
 7203      6170 2E68 
GAS LISTING C:\Users\ADMINI~1\AppData\Local\Temp/ccZjgOiQ.s 			page 134


 7203      00
 7204 00c2 00        		.uleb128 0x0
 7205 00c3 00        		.uleb128 0x0
 7206 00c4 00        		.uleb128 0x0
 7207 00c5 6D61 6372 		.string	"macrobuffer.h"
 7207      6F62 7566 
 7207      6665 722E 
 7207      6800 
 7208 00d3 00        		.uleb128 0x0
 7209 00d4 00        		.uleb128 0x0
 7210 00d5 00        		.uleb128 0x0
 7211 00d6 6861 7264 		.string	"hardwareinfo.h"
 7211      7761 7265 
 7211      696E 666F 
 7211      2E68 00
 7212 00e5 00        		.uleb128 0x0
 7213 00e6 00        		.uleb128 0x0
 7214 00e7 00        		.uleb128 0x0
 7215 00e8 00        		.byte	0x0
 7216               	.LELTP0:
 7217 00e9 00        		.byte	0x0
 7218 00ea 05        		.uleb128 0x5
 7219 00eb 02        		.byte	0x2
 7220 00ec 0000 0000 		.long	.LM1
 7221 00f0 76        		.byte	0x76
 7222 00f1 00        		.byte	0x0
 7223 00f2 05        		.uleb128 0x5
 7224 00f3 02        		.byte	0x2
 7225 00f4 0000 0000 		.long	.LM2
 7226 00f8 15        		.byte	0x15
 7227 00f9 00        		.byte	0x0
 7228 00fa 05        		.uleb128 0x5
 7229 00fb 02        		.byte	0x2
 7230 00fc 0000 0000 		.long	.LM3
 7231 0100 15        		.byte	0x15
 7232 0101 00        		.byte	0x0
 7233 0102 05        		.uleb128 0x5
 7234 0103 02        		.byte	0x2
 7235 0104 0000 0000 		.long	.LM4
 7236 0108 16        		.byte	0x16
 7237 0109 00        		.byte	0x0
 7238 010a 05        		.uleb128 0x5
 7239 010b 02        		.byte	0x2
 7240 010c 0000 0000 		.long	.LM5
 7241 0110 01        		.byte	0x1
 7242 0111 00        		.byte	0x0
 7243 0112 05        		.uleb128 0x5
 7244 0113 02        		.byte	0x2
 7245 0114 0000 0000 		.long	.LM6
 7246 0118 16        		.byte	0x16
 7247 0119 00        		.byte	0x0
 7248 011a 05        		.uleb128 0x5
 7249 011b 02        		.byte	0x2
 7250 011c 0000 0000 		.long	.LM7
 7251 0120 15        		.byte	0x15
 7252 0121 00        		.byte	0x0
 7253 0122 05        		.uleb128 0x5
GAS LISTING C:\Users\ADMINI~1\AppData\Local\Temp/ccZjgOiQ.s 			page 135


 7254 0123 02        		.byte	0x2
 7255 0124 0000 0000 		.long	.LM8
 7256 0128 01        		.byte	0x1
 7257 0129 00        		.byte	0x0
 7258 012a 05        		.uleb128 0x5
 7259 012b 02        		.byte	0x2
 7260 012c 0000 0000 		.long	.LM9
 7261 0130 16        		.byte	0x16
 7262 0131 00        		.byte	0x0
 7263 0132 05        		.uleb128 0x5
 7264 0133 02        		.byte	0x2
 7265 0134 0000 0000 		.long	.LM10
 7266 0138 16        		.byte	0x16
 7267 0139 00        		.byte	0x0
 7268 013a 05        		.uleb128 0x5
 7269 013b 02        		.byte	0x2
 7270 013c 0000 0000 		.long	.LM11
 7271 0140 15        		.byte	0x15
 7272 0141 00        		.byte	0x0
 7273 0142 05        		.uleb128 0x5
 7274 0143 02        		.byte	0x2
 7275 0144 0000 0000 		.long	.LM12
 7276 0148 17        		.byte	0x17
 7277 0149 00        		.byte	0x0
 7278 014a 05        		.uleb128 0x5
 7279 014b 02        		.byte	0x2
 7280 014c 0000 0000 		.long	.LM13
 7281 0150 16        		.byte	0x16
 7282 0151 00        		.byte	0x0
 7283 0152 05        		.uleb128 0x5
 7284 0153 02        		.byte	0x2
 7285 0154 0000 0000 		.long	.LM14
 7286 0158 15        		.byte	0x15
 7287 0159 00        		.byte	0x0
 7288 015a 05        		.uleb128 0x5
 7289 015b 02        		.byte	0x2
 7290 015c 0000 0000 		.long	.LM15
 7291 0160 16        		.byte	0x16
 7292 0161 00        		.byte	0x0
 7293 0162 05        		.uleb128 0x5
 7294 0163 02        		.byte	0x2
 7295 0164 0000 0000 		.long	.LM16
 7296 0168 15        		.byte	0x15
 7297 0169 00        		.byte	0x0
 7298 016a 05        		.uleb128 0x5
 7299 016b 02        		.byte	0x2
 7300 016c 0000 0000 		.long	.LM17
 7301 0170 30        		.byte	0x30
 7302 0171 00        		.byte	0x0
 7303 0172 05        		.uleb128 0x5
 7304 0173 02        		.byte	0x2
 7305 0174 0000 0000 		.long	.LM18
 7306 0178 16        		.byte	0x16
 7307 0179 00        		.byte	0x0
 7308 017a 05        		.uleb128 0x5
 7309 017b 02        		.byte	0x2
 7310 017c 0000 0000 		.long	.LM19
GAS LISTING C:\Users\ADMINI~1\AppData\Local\Temp/ccZjgOiQ.s 			page 136


 7311 0180 18        		.byte	0x18
 7312 0181 00        		.byte	0x0
 7313 0182 05        		.uleb128 0x5
 7314 0183 02        		.byte	0x2
 7315 0184 0000 0000 		.long	.LM20
 7316 0188 15        		.byte	0x15
 7317 0189 00        		.byte	0x0
 7318 018a 05        		.uleb128 0x5
 7319 018b 02        		.byte	0x2
 7320 018c 0000 0000 		.long	.LM21
 7321 0190 16        		.byte	0x16
 7322 0191 00        		.byte	0x0
 7323 0192 05        		.uleb128 0x5
 7324 0193 02        		.byte	0x2
 7325 0194 0000 0000 		.long	.LM22
 7326 0198 2A        		.byte	0x2a
 7327 0199 00        		.byte	0x0
 7328 019a 05        		.uleb128 0x5
 7329 019b 02        		.byte	0x2
 7330 019c 0000 0000 		.long	.LM23
 7331 01a0 15        		.byte	0x15
 7332 01a1 00        		.byte	0x0
 7333 01a2 05        		.uleb128 0x5
 7334 01a3 02        		.byte	0x2
 7335 01a4 0000 0000 		.long	.LM24
 7336 01a8 15        		.byte	0x15
 7337 01a9 00        		.byte	0x0
 7338 01aa 05        		.uleb128 0x5
 7339 01ab 02        		.byte	0x2
 7340 01ac 0000 0000 		.long	.LM25
 7341 01b0 16        		.byte	0x16
 7342 01b1 00        		.byte	0x0
 7343 01b2 05        		.uleb128 0x5
 7344 01b3 02        		.byte	0x2
 7345 01b4 0000 0000 		.long	.LM26
 7346 01b8 4B        		.byte	0x4b
 7347 01b9 00        		.byte	0x0
 7348 01ba 05        		.uleb128 0x5
 7349 01bb 02        		.byte	0x2
 7350 01bc 0000 0000 		.long	.LM27
 7351 01c0 01        		.byte	0x1
 7352 01c1 00        		.byte	0x0
 7353 01c2 05        		.uleb128 0x5
 7354 01c3 02        		.byte	0x2
 7355 01c4 0000 0000 		.long	.LM28
 7356 01c8 1A        		.byte	0x1a
 7357 01c9 00        		.byte	0x0
 7358 01ca 05        		.uleb128 0x5
 7359 01cb 02        		.byte	0x2
 7360 01cc 0000 0000 		.long	.LM29
 7361 01d0 16        		.byte	0x16
 7362 01d1 00        		.byte	0x0
 7363 01d2 05        		.uleb128 0x5
 7364 01d3 02        		.byte	0x2
 7365 01d4 0000 0000 		.long	.LM30
 7366 01d8 0D        		.byte	0xd
 7367 01d9 00        		.byte	0x0
GAS LISTING C:\Users\ADMINI~1\AppData\Local\Temp/ccZjgOiQ.s 			page 137


 7368 01da 05        		.uleb128 0x5
 7369 01db 02        		.byte	0x2
 7370 01dc 0000 0000 		.long	.LM31
 7371 01e0 20        		.byte	0x20
 7372 01e1 00        		.byte	0x0
 7373 01e2 05        		.uleb128 0x5
 7374 01e3 02        		.byte	0x2
 7375 01e4 0000 0000 		.long	.LM32
 7376 01e8 47        		.byte	0x47
 7377 01e9 00        		.byte	0x0
 7378 01ea 05        		.uleb128 0x5
 7379 01eb 02        		.byte	0x2
 7380 01ec 0000 0000 		.long	.LM33
 7381 01f0 15        		.byte	0x15
 7382 01f1 00        		.byte	0x0
 7383 01f2 05        		.uleb128 0x5
 7384 01f3 02        		.byte	0x2
 7385 01f4 0000 0000 		.long	.LM34
 7386 01f8 15        		.byte	0x15
 7387 01f9 00        		.byte	0x0
 7388 01fa 05        		.uleb128 0x5
 7389 01fb 02        		.byte	0x2
 7390 01fc 0000 0000 		.long	.LM35
 7391 0200 15        		.byte	0x15
 7392 0201 00        		.byte	0x0
 7393 0202 05        		.uleb128 0x5
 7394 0203 02        		.byte	0x2
 7395 0204 0000 0000 		.long	.LM36
 7396 0208 03        		.byte	0x3
 7397 0209 CB02      		.sleb128 331
 7398 020b 01        		.byte	0x1
 7399 020c 00        		.byte	0x0
 7400 020d 05        		.uleb128 0x5
 7401 020e 02        		.byte	0x2
 7402 020f 0000 0000 		.long	.LM37
 7403 0213 15        		.byte	0x15
 7404 0214 00        		.byte	0x0
 7405 0215 05        		.uleb128 0x5
 7406 0216 02        		.byte	0x2
 7407 0217 0000 0000 		.long	.LM38
 7408 021b 15        		.byte	0x15
 7409 021c 00        		.byte	0x0
 7410 021d 05        		.uleb128 0x5
 7411 021e 02        		.byte	0x2
 7412 021f 0000 0000 		.long	.LM39
 7413 0223 15        		.byte	0x15
 7414 0224 00        		.byte	0x0
 7415 0225 05        		.uleb128 0x5
 7416 0226 02        		.byte	0x2
 7417 0227 0000 0000 		.long	.LM40
 7418 022b 15        		.byte	0x15
 7419 022c 00        		.byte	0x0
 7420 022d 05        		.uleb128 0x5
 7421 022e 02        		.byte	0x2
 7422 022f 0000 0000 		.long	.LM41
 7423 0233 15        		.byte	0x15
 7424 0234 00        		.byte	0x0
GAS LISTING C:\Users\ADMINI~1\AppData\Local\Temp/ccZjgOiQ.s 			page 138


 7425 0235 05        		.uleb128 0x5
 7426 0236 02        		.byte	0x2
 7427 0237 0000 0000 		.long	.LM42
 7428 023b 03        		.byte	0x3
 7429 023c 9A7D      		.sleb128 -358
 7430 023e 01        		.byte	0x1
 7431 023f 00        		.byte	0x0
 7432 0240 05        		.uleb128 0x5
 7433 0241 02        		.byte	0x2
 7434 0242 0000 0000 		.long	.LM43
 7435 0246 18        		.byte	0x18
 7436 0247 00        		.byte	0x0
 7437 0248 05        		.uleb128 0x5
 7438 0249 02        		.byte	0x2
 7439 024a 0000 0000 		.long	.LM44
 7440 024e 15        		.byte	0x15
 7441 024f 00        		.byte	0x0
 7442 0250 05        		.uleb128 0x5
 7443 0251 02        		.byte	0x2
 7444 0252 0000 0000 		.long	.LM45
 7445 0256 15        		.byte	0x15
 7446 0257 00        		.byte	0x0
 7447 0258 05        		.uleb128 0x5
 7448 0259 02        		.byte	0x2
 7449 025a 0000 0000 		.long	.LM46
 7450 025e 16        		.byte	0x16
 7451 025f 00        		.byte	0x0
 7452 0260 05        		.uleb128 0x5
 7453 0261 02        		.byte	0x2
 7454 0262 0000 0000 		.long	.LM47
 7455 0266 15        		.byte	0x15
 7456 0267 00        		.byte	0x0
 7457 0268 05        		.uleb128 0x5
 7458 0269 02        		.byte	0x2
 7459 026a 0000 0000 		.long	.LM48
 7460 026e 16        		.byte	0x16
 7461 026f 00        		.byte	0x0
 7462 0270 05        		.uleb128 0x5
 7463 0271 02        		.byte	0x2
 7464 0272 0000 0000 		.long	.LM49
 7465 0276 15        		.byte	0x15
 7466 0277 00        		.byte	0x0
 7467 0278 05        		.uleb128 0x5
 7468 0279 02        		.byte	0x2
 7469 027a 0000 0000 		.long	.LM50
 7470 027e 17        		.byte	0x17
 7471 027f 00        		.byte	0x0
 7472 0280 05        		.uleb128 0x5
 7473 0281 02        		.byte	0x2
 7474 0282 0000 0000 		.long	.LM51
 7475 0286 1E        		.byte	0x1e
 7476 0287 00        		.byte	0x0
 7477 0288 05        		.uleb128 0x5
 7478 0289 02        		.byte	0x2
 7479 028a 0000 0000 		.long	.LM52
 7480 028e 01        		.byte	0x1
 7481 028f 00        		.byte	0x0
GAS LISTING C:\Users\ADMINI~1\AppData\Local\Temp/ccZjgOiQ.s 			page 139


 7482 0290 05        		.uleb128 0x5
 7483 0291 02        		.byte	0x2
 7484 0292 0000 0000 		.long	.LM53
 7485 0296 1C        		.byte	0x1c
 7486 0297 00        		.byte	0x0
 7487 0298 05        		.uleb128 0x5
 7488 0299 02        		.byte	0x2
 7489 029a 0000 0000 		.long	.LM54
 7490 029e 15        		.byte	0x15
 7491 029f 00        		.byte	0x0
 7492 02a0 05        		.uleb128 0x5
 7493 02a1 02        		.byte	0x2
 7494 02a2 0000 0000 		.long	.LM55
 7495 02a6 10        		.byte	0x10
 7496 02a7 00        		.byte	0x0
 7497 02a8 05        		.uleb128 0x5
 7498 02a9 02        		.byte	0x2
 7499 02aa 0000 0000 		.long	.LM56
 7500 02ae 1B        		.byte	0x1b
 7501 02af 00        		.byte	0x0
 7502 02b0 05        		.uleb128 0x5
 7503 02b1 02        		.byte	0x2
 7504 02b2 0000 0000 		.long	.LM57
 7505 02b6 16        		.byte	0x16
 7506 02b7 00        		.byte	0x0
 7507 02b8 05        		.uleb128 0x5
 7508 02b9 02        		.byte	0x2
 7509 02ba 0000 0000 		.long	.LM58
 7510 02be 18        		.byte	0x18
 7511 02bf 00        		.byte	0x0
 7512 02c0 05        		.uleb128 0x5
 7513 02c1 02        		.byte	0x2
 7514 02c2 0000 0000 		.long	.LM59
 7515 02c6 16        		.byte	0x16
 7516 02c7 00        		.byte	0x0
 7517 02c8 05        		.uleb128 0x5
 7518 02c9 02        		.byte	0x2
 7519 02ca 0000 0000 		.long	.LM60
 7520 02ce 15        		.byte	0x15
 7521 02cf 00        		.byte	0x0
 7522 02d0 05        		.uleb128 0x5
 7523 02d1 02        		.byte	0x2
 7524 02d2 0000 0000 		.long	.LM61
 7525 02d6 13        		.byte	0x13
 7526 02d7 00        		.byte	0x0
 7527 02d8 05        		.uleb128 0x5
 7528 02d9 02        		.byte	0x2
 7529 02da 0000 0000 		.long	.LM62
 7530 02de 15        		.byte	0x15
 7531 02df 00        		.byte	0x0
 7532 02e0 05        		.uleb128 0x5
 7533 02e1 02        		.byte	0x2
 7534 02e2 0000 0000 		.long	.LM63
 7535 02e6 12        		.byte	0x12
 7536 02e7 00        		.byte	0x0
 7537 02e8 05        		.uleb128 0x5
 7538 02e9 02        		.byte	0x2
GAS LISTING C:\Users\ADMINI~1\AppData\Local\Temp/ccZjgOiQ.s 			page 140


 7539 02ea 0000 0000 		.long	.LM64
 7540 02ee 18        		.byte	0x18
 7541 02ef 00        		.byte	0x0
 7542 02f0 05        		.uleb128 0x5
 7543 02f1 02        		.byte	0x2
 7544 02f2 0000 0000 		.long	.LM65
 7545 02f6 03        		.byte	0x3
 7546 02f7 A102      		.sleb128 289
 7547 02f9 01        		.byte	0x1
 7548 02fa 00        		.byte	0x0
 7549 02fb 05        		.uleb128 0x5
 7550 02fc 02        		.byte	0x2
 7551 02fd 0000 0000 		.long	.LM66
 7552 0301 15        		.byte	0x15
 7553 0302 00        		.byte	0x0
 7554 0303 05        		.uleb128 0x5
 7555 0304 02        		.byte	0x2
 7556 0305 0000 0000 		.long	.LM67
 7557 0309 15        		.byte	0x15
 7558 030a 00        		.byte	0x0
 7559 030b 05        		.uleb128 0x5
 7560 030c 02        		.byte	0x2
 7561 030d 0000 0000 		.long	.LM68
 7562 0311 1A        		.byte	0x1a
 7563 0312 00        		.byte	0x0
 7564 0313 05        		.uleb128 0x5
 7565 0314 02        		.byte	0x2
 7566 0315 0000 0000 		.long	.LM69
 7567 0319 12        		.byte	0x12
 7568 031a 00        		.byte	0x0
 7569 031b 05        		.uleb128 0x5
 7570 031c 02        		.byte	0x2
 7571 031d 0000 0000 		.long	.LM70
 7572 0321 13        		.byte	0x13
 7573 0322 00        		.byte	0x0
 7574 0323 05        		.uleb128 0x5
 7575 0324 02        		.byte	0x2
 7576 0325 0000 0000 		.long	.LM71
 7577 0329 1A        		.byte	0x1a
 7578 032a 00        		.byte	0x0
 7579 032b 05        		.uleb128 0x5
 7580 032c 02        		.byte	0x2
 7581 032d 0000 0000 		.long	.LM72
 7582 0331 16        		.byte	0x16
 7583 0332 00        		.byte	0x0
 7584 0333 05        		.uleb128 0x5
 7585 0334 02        		.byte	0x2
 7586 0335 0000 0000 		.long	.LM73
 7587 0339 03        		.byte	0x3
 7588 033a 68        		.sleb128 -24
 7589 033b 01        		.byte	0x1
 7590 033c 00        		.byte	0x0
 7591 033d 05        		.uleb128 0x5
 7592 033e 02        		.byte	0x2
 7593 033f 0000 0000 		.long	.LM74
 7594 0343 15        		.byte	0x15
 7595 0344 00        		.byte	0x0
GAS LISTING C:\Users\ADMINI~1\AppData\Local\Temp/ccZjgOiQ.s 			page 141


 7596 0345 05        		.uleb128 0x5
 7597 0346 02        		.byte	0x2
 7598 0347 0000 0000 		.long	.LM75
 7599 034b 15        		.byte	0x15
 7600 034c 00        		.byte	0x0
 7601 034d 05        		.uleb128 0x5
 7602 034e 02        		.byte	0x2
 7603 034f 0000 0000 		.long	.LM76
 7604 0353 16        		.byte	0x16
 7605 0354 00        		.byte	0x0
 7606 0355 05        		.uleb128 0x5
 7607 0356 02        		.byte	0x2
 7608 0357 0000 0000 		.long	.LM77
 7609 035b 16        		.byte	0x16
 7610 035c 00        		.byte	0x0
 7611 035d 05        		.uleb128 0x5
 7612 035e 02        		.byte	0x2
 7613 035f 0000 0000 		.long	.LM78
 7614 0363 15        		.byte	0x15
 7615 0364 00        		.byte	0x0
 7616 0365 05        		.uleb128 0x5
 7617 0366 02        		.byte	0x2
 7618 0367 0000 0000 		.long	.LM79
 7619 036b 15        		.byte	0x15
 7620 036c 00        		.byte	0x0
 7621 036d 05        		.uleb128 0x5
 7622 036e 02        		.byte	0x2
 7623 036f 0000 0000 		.long	.LM80
 7624 0373 03        		.byte	0x3
 7625 0374 A47F      		.sleb128 -92
 7626 0376 01        		.byte	0x1
 7627 0377 00        		.byte	0x0
 7628 0378 05        		.uleb128 0x5
 7629 0379 02        		.byte	0x2
 7630 037a 0000 0000 		.long	.LM81
 7631 037e 15        		.byte	0x15
 7632 037f 00        		.byte	0x0
 7633 0380 05        		.uleb128 0x5
 7634 0381 02        		.byte	0x2
 7635 0382 0000 0000 		.long	.LM82
 7636 0386 03        		.byte	0x3
 7637 0387 A67D      		.sleb128 -346
 7638 0389 01        		.byte	0x1
 7639 038a 00        		.byte	0x0
 7640 038b 05        		.uleb128 0x5
 7641 038c 02        		.byte	0x2
 7642 038d 0000 0000 		.long	.LM83
 7643 0391 15        		.byte	0x15
 7644 0392 00        		.byte	0x0
 7645 0393 05        		.uleb128 0x5
 7646 0394 02        		.byte	0x2
 7647 0395 0000 0000 		.long	.LM84
 7648 0399 03        		.byte	0x3
 7649 039a DE02      		.sleb128 350
 7650 039c 01        		.byte	0x1
 7651 039d 00        		.byte	0x0
 7652 039e 05        		.uleb128 0x5
GAS LISTING C:\Users\ADMINI~1\AppData\Local\Temp/ccZjgOiQ.s 			page 142


 7653 039f 02        		.byte	0x2
 7654 03a0 0000 0000 		.long	.LM85
 7655 03a4 15        		.byte	0x15
 7656 03a5 00        		.byte	0x0
 7657 03a6 05        		.uleb128 0x5
 7658 03a7 02        		.byte	0x2
 7659 03a8 0000 0000 		.long	.LM86
 7660 03ac 16        		.byte	0x16
 7661 03ad 00        		.byte	0x0
 7662 03ae 05        		.uleb128 0x5
 7663 03af 02        		.byte	0x2
 7664 03b0 0000 0000 		.long	.LM87
 7665 03b4 16        		.byte	0x16
 7666 03b5 00        		.byte	0x0
 7667 03b6 05        		.uleb128 0x5
 7668 03b7 02        		.byte	0x2
 7669 03b8 0000 0000 		.long	.LM88
 7670 03bc 15        		.byte	0x15
 7671 03bd 00        		.byte	0x0
 7672 03be 05        		.uleb128 0x5
 7673 03bf 02        		.byte	0x2
 7674 03c0 0000 0000 		.long	.LM89
 7675 03c4 15        		.byte	0x15
 7676 03c5 00        		.byte	0x0
 7677 03c6 05        		.uleb128 0x5
 7678 03c7 02        		.byte	0x2
 7679 03c8 0000 0000 		.long	.LM90
 7680 03cc 03        		.byte	0x3
 7681 03cd B27F      		.sleb128 -78
 7682 03cf 01        		.byte	0x1
 7683 03d0 00        		.byte	0x0
 7684 03d1 05        		.uleb128 0x5
 7685 03d2 02        		.byte	0x2
 7686 03d3 0000 0000 		.long	.LM91
 7687 03d7 15        		.byte	0x15
 7688 03d8 00        		.byte	0x0
 7689 03d9 05        		.uleb128 0x5
 7690 03da 02        		.byte	0x2
 7691 03db 0000 0000 		.long	.LM92
 7692 03df 15        		.byte	0x15
 7693 03e0 00        		.byte	0x0
 7694 03e1 05        		.uleb128 0x5
 7695 03e2 02        		.byte	0x2
 7696 03e3 0000 0000 		.long	.LM93
 7697 03e7 15        		.byte	0x15
 7698 03e8 00        		.byte	0x0
 7699 03e9 05        		.uleb128 0x5
 7700 03ea 02        		.byte	0x2
 7701 03eb 0000 0000 		.long	.LM94
 7702 03ef 03        		.byte	0x3
 7703 03f0 6D        		.sleb128 -19
 7704 03f1 01        		.byte	0x1
 7705 03f2 00        		.byte	0x0
 7706 03f3 05        		.uleb128 0x5
 7707 03f4 02        		.byte	0x2
 7708 03f5 0000 0000 		.long	.LM95
 7709 03f9 15        		.byte	0x15
GAS LISTING C:\Users\ADMINI~1\AppData\Local\Temp/ccZjgOiQ.s 			page 143


 7710 03fa 00        		.byte	0x0
 7711 03fb 05        		.uleb128 0x5
 7712 03fc 02        		.byte	0x2
 7713 03fd 0000 0000 		.long	.LM96
 7714 0401 15        		.byte	0x15
 7715 0402 00        		.byte	0x0
 7716 0403 05        		.uleb128 0x5
 7717 0404 02        		.byte	0x2
 7718 0405 0000 0000 		.long	.LM97
 7719 0409 15        		.byte	0x15
 7720 040a 00        		.byte	0x0
 7721 040b 05        		.uleb128 0x5
 7722 040c 02        		.byte	0x2
 7723 040d 0000 0000 		.long	.LM98
 7724 0411 15        		.byte	0x15
 7725 0412 00        		.byte	0x0
 7726 0413 05        		.uleb128 0x5
 7727 0414 02        		.byte	0x2
 7728 0415 0000 0000 		.long	.LM99
 7729 0419 15        		.byte	0x15
 7730 041a 00        		.byte	0x0
 7731 041b 05        		.uleb128 0x5
 7732 041c 02        		.byte	0x2
 7733 041d 0000 0000 		.long	.LM100
 7734 0421 15        		.byte	0x15
 7735 0422 00        		.byte	0x0
 7736 0423 05        		.uleb128 0x5
 7737 0424 02        		.byte	0x2
 7738 0425 0000 0000 		.long	.LM101
 7739 0429 15        		.byte	0x15
 7740 042a 00        		.byte	0x0
 7741 042b 05        		.uleb128 0x5
 7742 042c 02        		.byte	0x2
 7743 042d 0000 0000 		.long	.LM102
 7744 0431 15        		.byte	0x15
 7745 0432 00        		.byte	0x0
 7746 0433 05        		.uleb128 0x5
 7747 0434 02        		.byte	0x2
 7748 0435 0000 0000 		.long	.LM103
 7749 0439 15        		.byte	0x15
 7750 043a 00        		.byte	0x0
 7751 043b 05        		.uleb128 0x5
 7752 043c 02        		.byte	0x2
 7753 043d 0000 0000 		.long	.LM104
 7754 0441 15        		.byte	0x15
 7755 0442 00        		.byte	0x0
 7756 0443 05        		.uleb128 0x5
 7757 0444 02        		.byte	0x2
 7758 0445 0000 0000 		.long	.LM105
 7759 0449 15        		.byte	0x15
 7760 044a 00        		.byte	0x0
 7761 044b 05        		.uleb128 0x5
 7762 044c 02        		.byte	0x2
 7763 044d 0000 0000 		.long	.LM106
 7764 0451 16        		.byte	0x16
 7765 0452 00        		.byte	0x0
 7766 0453 05        		.uleb128 0x5
GAS LISTING C:\Users\ADMINI~1\AppData\Local\Temp/ccZjgOiQ.s 			page 144


 7767 0454 02        		.byte	0x2
 7768 0455 0000 0000 		.long	.LM107
 7769 0459 15        		.byte	0x15
 7770 045a 00        		.byte	0x0
 7771 045b 05        		.uleb128 0x5
 7772 045c 02        		.byte	0x2
 7773 045d 0000 0000 		.long	.LM108
 7774 0461 03        		.byte	0x3
 7775 0462 847F      		.sleb128 -124
 7776 0464 01        		.byte	0x1
 7777 0465 00        		.byte	0x0
 7778 0466 05        		.uleb128 0x5
 7779 0467 02        		.byte	0x2
 7780 0468 0000 0000 		.long	.LM109
 7781 046c 18        		.byte	0x18
 7782 046d 00        		.byte	0x0
 7783 046e 05        		.uleb128 0x5
 7784 046f 02        		.byte	0x2
 7785 0470 0000 0000 		.long	.LM110
 7786 0474 15        		.byte	0x15
 7787 0475 00        		.byte	0x0
 7788 0476 05        		.uleb128 0x5
 7789 0477 02        		.byte	0x2
 7790 0478 0000 0000 		.long	.LM111
 7791 047c 17        		.byte	0x17
 7792 047d 00        		.byte	0x0
 7793 047e 05        		.uleb128 0x5
 7794 047f 02        		.byte	0x2
 7795 0480 0000 0000 		.long	.LM112
 7796 0484 16        		.byte	0x16
 7797 0485 00        		.byte	0x0
 7798 0486 05        		.uleb128 0x5
 7799 0487 02        		.byte	0x2
 7800 0488 0000 0000 		.long	.LM113
 7801 048c 18        		.byte	0x18
 7802 048d 00        		.byte	0x0
 7803 048e 05        		.uleb128 0x5
 7804 048f 02        		.byte	0x2
 7805 0490 0000 0000 		.long	.LM114
 7806 0494 18        		.byte	0x18
 7807 0495 00        		.byte	0x0
 7808 0496 05        		.uleb128 0x5
 7809 0497 02        		.byte	0x2
 7810 0498 0000 0000 		.long	.LM115
 7811 049c 17        		.byte	0x17
 7812 049d 00        		.byte	0x0
 7813 049e 05        		.uleb128 0x5
 7814 049f 02        		.byte	0x2
 7815 04a0 0000 0000 		.long	.LM116
 7816 04a4 19        		.byte	0x19
 7817 04a5 00        		.byte	0x0
 7818 04a6 05        		.uleb128 0x5
 7819 04a7 02        		.byte	0x2
 7820 04a8 0000 0000 		.long	.LM117
 7821 04ac 19        		.byte	0x19
 7822 04ad 00        		.byte	0x0
 7823 04ae 05        		.uleb128 0x5
GAS LISTING C:\Users\ADMINI~1\AppData\Local\Temp/ccZjgOiQ.s 			page 145


 7824 04af 02        		.byte	0x2
 7825 04b0 0000 0000 		.long	.LM118
 7826 04b4 18        		.byte	0x18
 7827 04b5 00        		.byte	0x0
 7828 04b6 05        		.uleb128 0x5
 7829 04b7 02        		.byte	0x2
 7830 04b8 0000 0000 		.long	.LM119
 7831 04bc 17        		.byte	0x17
 7832 04bd 00        		.byte	0x0
 7833 04be 05        		.uleb128 0x5
 7834 04bf 02        		.byte	0x2
 7835 04c0 0000 0000 		.long	.LM120
 7836 04c4 17        		.byte	0x17
 7837 04c5 00        		.byte	0x0
 7838 04c6 05        		.uleb128 0x5
 7839 04c7 02        		.byte	0x2
 7840 04c8 0000 0000 		.long	.LM121
 7841 04cc 19        		.byte	0x19
 7842 04cd 00        		.byte	0x0
 7843 04ce 05        		.uleb128 0x5
 7844 04cf 02        		.byte	0x2
 7845 04d0 0000 0000 		.long	.LM122
 7846 04d4 15        		.byte	0x15
 7847 04d5 00        		.byte	0x0
 7848 04d6 05        		.uleb128 0x5
 7849 04d7 02        		.byte	0x2
 7850 04d8 0000 0000 		.long	.LM123
 7851 04dc 17        		.byte	0x17
 7852 04dd 00        		.byte	0x0
 7853 04de 05        		.uleb128 0x5
 7854 04df 02        		.byte	0x2
 7855 04e0 0000 0000 		.long	.LM124
 7856 04e4 15        		.byte	0x15
 7857 04e5 00        		.byte	0x0
 7858 04e6 05        		.uleb128 0x5
 7859 04e7 02        		.byte	0x2
 7860 04e8 0000 0000 		.long	.LM125
 7861 04ec 15        		.byte	0x15
 7862 04ed 00        		.byte	0x0
 7863 04ee 05        		.uleb128 0x5
 7864 04ef 02        		.byte	0x2
 7865 04f0 0000 0000 		.long	.LM126
 7866 04f4 17        		.byte	0x17
 7867 04f5 00        		.byte	0x0
 7868 04f6 05        		.uleb128 0x5
 7869 04f7 02        		.byte	0x2
 7870 04f8 0000 0000 		.long	.LM127
 7871 04fc 04        		.byte	0x4
 7872 04fd 02        		.uleb128 0x2
 7873 04fe 03        		.byte	0x3
 7874 04ff E47D      		.sleb128 -284
 7875 0501 01        		.byte	0x1
 7876 0502 00        		.byte	0x0
 7877 0503 05        		.uleb128 0x5
 7878 0504 02        		.byte	0x2
 7879 0505 0000 0000 		.long	.LM128
 7880 0509 04        		.byte	0x4
GAS LISTING C:\Users\ADMINI~1\AppData\Local\Temp/ccZjgOiQ.s 			page 146


 7881 050a 03        		.uleb128 0x3
 7882 050b 27        		.byte	0x27
 7883 050c 00        		.byte	0x0
 7884 050d 05        		.uleb128 0x5
 7885 050e 02        		.byte	0x2
 7886 050f 0000 0000 		.long	.LM129
 7887 0513 10        		.byte	0x10
 7888 0514 00        		.byte	0x0
 7889 0515 05        		.uleb128 0x5
 7890 0516 02        		.byte	0x2
 7891 0517 0000 0000 		.long	.LM130
 7892 051b 04        		.byte	0x4
 7893 051c 01        		.uleb128 0x1
 7894 051d 03        		.byte	0x3
 7895 051e 9502      		.sleb128 277
 7896 0520 01        		.byte	0x1
 7897 0521 00        		.byte	0x0
 7898 0522 05        		.uleb128 0x5
 7899 0523 02        		.byte	0x2
 7900 0524 0000 0000 		.long	.LM131
 7901 0528 16        		.byte	0x16
 7902 0529 00        		.byte	0x0
 7903 052a 05        		.uleb128 0x5
 7904 052b 02        		.byte	0x2
 7905 052c 0000 0000 		.long	.LM132
 7906 0530 15        		.byte	0x15
 7907 0531 00        		.byte	0x0
 7908 0532 05        		.uleb128 0x5
 7909 0533 02        		.byte	0x2
 7910 0534 0000 0000 		.long	.LM133
 7911 0538 15        		.byte	0x15
 7912 0539 00        		.byte	0x0
 7913 053a 05        		.uleb128 0x5
 7914 053b 02        		.byte	0x2
 7915 053c 0000 0000 		.long	.LM134
 7916 0540 15        		.byte	0x15
 7917 0541 00        		.byte	0x0
 7918 0542 05        		.uleb128 0x5
 7919 0543 02        		.byte	0x2
 7920 0544 0000 0000 		.long	.LM135
 7921 0548 15        		.byte	0x15
 7922 0549 00        		.byte	0x0
 7923 054a 05        		.uleb128 0x5
 7924 054b 02        		.byte	0x2
 7925 054c 0000 0000 		.long	.LM136
 7926 0550 15        		.byte	0x15
 7927 0551 00        		.byte	0x0
 7928 0552 05        		.uleb128 0x5
 7929 0553 02        		.byte	0x2
 7930 0554 0000 0000 		.long	.LM137
 7931 0558 15        		.byte	0x15
 7932 0559 00        		.byte	0x0
 7933 055a 05        		.uleb128 0x5
 7934 055b 02        		.byte	0x2
 7935 055c 0000 0000 		.long	.LM138
 7936 0560 15        		.byte	0x15
 7937 0561 00        		.byte	0x0
GAS LISTING C:\Users\ADMINI~1\AppData\Local\Temp/ccZjgOiQ.s 			page 147


 7938 0562 05        		.uleb128 0x5
 7939 0563 02        		.byte	0x2
 7940 0564 0000 0000 		.long	.LM139
 7941 0568 15        		.byte	0x15
 7942 0569 00        		.byte	0x0
 7943 056a 05        		.uleb128 0x5
 7944 056b 02        		.byte	0x2
 7945 056c 0000 0000 		.long	.LM140
 7946 0570 15        		.byte	0x15
 7947 0571 00        		.byte	0x0
 7948 0572 05        		.uleb128 0x5
 7949 0573 02        		.byte	0x2
 7950 0574 0000 0000 		.long	.LM141
 7951 0578 16        		.byte	0x16
 7952 0579 00        		.byte	0x0
 7953 057a 05        		.uleb128 0x5
 7954 057b 02        		.byte	0x2
 7955 057c 0000 0000 		.long	.LM142
 7956 0580 15        		.byte	0x15
 7957 0581 00        		.byte	0x0
 7958 0582 05        		.uleb128 0x5
 7959 0583 02        		.byte	0x2
 7960 0584 0000 0000 		.long	.LM143
 7961 0588 15        		.byte	0x15
 7962 0589 00        		.byte	0x0
 7963 058a 05        		.uleb128 0x5
 7964 058b 02        		.byte	0x2
 7965 058c 0000 0000 		.long	.LM144
 7966 0590 17        		.byte	0x17
 7967 0591 00        		.byte	0x0
 7968 0592 05        		.uleb128 0x5
 7969 0593 02        		.byte	0x2
 7970 0594 0000 0000 		.long	.LM145
 7971 0598 15        		.byte	0x15
 7972 0599 00        		.byte	0x0
 7973 059a 05        		.uleb128 0x5
 7974 059b 02        		.byte	0x2
 7975 059c 0000 0000 		.long	.LM146
 7976 05a0 15        		.byte	0x15
 7977 05a1 00        		.byte	0x0
 7978 05a2 05        		.uleb128 0x5
 7979 05a3 02        		.byte	0x2
 7980 05a4 0000 0000 		.long	.LM147
 7981 05a8 15        		.byte	0x15
 7982 05a9 00        		.byte	0x0
 7983 05aa 05        		.uleb128 0x5
 7984 05ab 02        		.byte	0x2
 7985 05ac 0000 0000 		.long	.LM148
 7986 05b0 15        		.byte	0x15
 7987 05b1 00        		.byte	0x0
 7988 05b2 05        		.uleb128 0x5
 7989 05b3 02        		.byte	0x2
 7990 05b4 0000 0000 		.long	.LM149
 7991 05b8 15        		.byte	0x15
 7992 05b9 00        		.byte	0x0
 7993 05ba 05        		.uleb128 0x5
 7994 05bb 02        		.byte	0x2
GAS LISTING C:\Users\ADMINI~1\AppData\Local\Temp/ccZjgOiQ.s 			page 148


 7995 05bc 0000 0000 		.long	.LM150
 7996 05c0 15        		.byte	0x15
 7997 05c1 00        		.byte	0x0
 7998 05c2 05        		.uleb128 0x5
 7999 05c3 02        		.byte	0x2
 8000 05c4 0000 0000 		.long	.LM151
 8001 05c8 15        		.byte	0x15
 8002 05c9 00        		.byte	0x0
 8003 05ca 05        		.uleb128 0x5
 8004 05cb 02        		.byte	0x2
 8005 05cc 0000 0000 		.long	.LM152
 8006 05d0 15        		.byte	0x15
 8007 05d1 00        		.byte	0x0
 8008 05d2 05        		.uleb128 0x5
 8009 05d3 02        		.byte	0x2
 8010 05d4 0000 0000 		.long	.LM153
 8011 05d8 15        		.byte	0x15
 8012 05d9 00        		.byte	0x0
 8013 05da 05        		.uleb128 0x5
 8014 05db 02        		.byte	0x2
 8015 05dc 0000 0000 		.long	.LM154
 8016 05e0 16        		.byte	0x16
 8017 05e1 00        		.byte	0x0
 8018 05e2 05        		.uleb128 0x5
 8019 05e3 02        		.byte	0x2
 8020 05e4 0000 0000 		.long	.LM155
 8021 05e8 15        		.byte	0x15
 8022 05e9 00        		.byte	0x0
 8023 05ea 05        		.uleb128 0x5
 8024 05eb 02        		.byte	0x2
 8025 05ec 0000 0000 		.long	.LM156
 8026 05f0 16        		.byte	0x16
 8027 05f1 00        		.byte	0x0
 8028 05f2 05        		.uleb128 0x5
 8029 05f3 02        		.byte	0x2
 8030 05f4 0000 0000 		.long	.LM157
 8031 05f8 BA        		.byte	0xba
 8032 05f9 00        		.byte	0x0
 8033 05fa 05        		.uleb128 0x5
 8034 05fb 02        		.byte	0x2
 8035 05fc 0000 0000 		.long	.LM158
 8036 0600 01        		.byte	0x1
 8037 0601 00        		.byte	0x0
 8038 0602 05        		.uleb128 0x5
 8039 0603 02        		.byte	0x2
 8040 0604 0000 0000 		.long	.LM159
 8041 0608 19        		.byte	0x19
 8042 0609 00        		.byte	0x0
 8043 060a 05        		.uleb128 0x5
 8044 060b 02        		.byte	0x2
 8045 060c 0000 0000 		.long	.LM160
 8046 0610 12        		.byte	0x12
 8047 0611 00        		.byte	0x0
 8048 0612 05        		.uleb128 0x5
 8049 0613 02        		.byte	0x2
 8050 0614 0000 0000 		.long	.LM161
 8051 0618 1A        		.byte	0x1a
GAS LISTING C:\Users\ADMINI~1\AppData\Local\Temp/ccZjgOiQ.s 			page 149


 8052 0619 00        		.byte	0x0
 8053 061a 05        		.uleb128 0x5
 8054 061b 02        		.byte	0x2
 8055 061c 0000 0000 		.long	.LM162
 8056 0620 15        		.byte	0x15
 8057 0621 00        		.byte	0x0
 8058 0622 05        		.uleb128 0x5
 8059 0623 02        		.byte	0x2
 8060 0624 0000 0000 		.long	.LM163
 8061 0628 15        		.byte	0x15
 8062 0629 00        		.byte	0x0
 8063 062a 05        		.uleb128 0x5
 8064 062b 02        		.byte	0x2
 8065 062c 0000 0000 		.long	.LM164
 8066 0630 03        		.byte	0x3
 8067 0631 62        		.sleb128 -30
 8068 0632 01        		.byte	0x1
 8069 0633 00        		.byte	0x0
 8070 0634 05        		.uleb128 0x5
 8071 0635 02        		.byte	0x2
 8072 0636 0000 0000 		.long	.LM165
 8073 063a 15        		.byte	0x15
 8074 063b 00        		.byte	0x0
 8075 063c 05        		.uleb128 0x5
 8076 063d 02        		.byte	0x2
 8077 063e 0000 0000 		.long	.LM166
 8078 0642 1F        		.byte	0x1f
 8079 0643 00        		.byte	0x0
 8080 0644 05        		.uleb128 0x5
 8081 0645 02        		.byte	0x2
 8082 0646 0000 0000 		.long	.LM167
 8083 064a 10        		.byte	0x10
 8084 064b 00        		.byte	0x0
 8085 064c 05        		.uleb128 0x5
 8086 064d 02        		.byte	0x2
 8087 064e 0000 0000 		.long	.LM168
 8088 0652 1C        		.byte	0x1c
 8089 0653 00        		.byte	0x0
 8090 0654 05        		.uleb128 0x5
 8091 0655 02        		.byte	0x2
 8092 0656 0000 0000 		.long	.LM169
 8093 065a 15        		.byte	0x15
 8094 065b 00        		.byte	0x0
 8095 065c 05        		.uleb128 0x5
 8096 065d 02        		.byte	0x2
 8097 065e 0000 0000 		.long	.LM170
 8098 0662 03        		.byte	0x3
 8099 0663 5C        		.sleb128 -36
 8100 0664 01        		.byte	0x1
 8101 0665 00        		.byte	0x0
 8102 0666 05        		.uleb128 0x5
 8103 0667 02        		.byte	0x2
 8104 0668 0000 0000 		.long	.LM171
 8105 066c 15        		.byte	0x15
 8106 066d 00        		.byte	0x0
 8107 066e 05        		.uleb128 0x5
 8108 066f 02        		.byte	0x2
GAS LISTING C:\Users\ADMINI~1\AppData\Local\Temp/ccZjgOiQ.s 			page 150


 8109 0670 0000 0000 		.long	.LM172
 8110 0674 1C        		.byte	0x1c
 8111 0675 00        		.byte	0x0
 8112 0676 05        		.uleb128 0x5
 8113 0677 02        		.byte	0x2
 8114 0678 0000 0000 		.long	.LM173
 8115 067c 13        		.byte	0x13
 8116 067d 00        		.byte	0x0
 8117 067e 05        		.uleb128 0x5
 8118 067f 02        		.byte	0x2
 8119 0680 0000 0000 		.long	.LM174
 8120 0684 16        		.byte	0x16
 8121 0685 00        		.byte	0x0
 8122 0686 05        		.uleb128 0x5
 8123 0687 02        		.byte	0x2
 8124 0688 0000 0000 		.long	.LM175
 8125 068c 16        		.byte	0x16
 8126 068d 00        		.byte	0x0
 8127 068e 05        		.uleb128 0x5
 8128 068f 02        		.byte	0x2
 8129 0690 0000 0000 		.long	.LM176
 8130 0694 15        		.byte	0x15
 8131 0695 00        		.byte	0x0
 8132 0696 05        		.uleb128 0x5
 8133 0697 02        		.byte	0x2
 8134 0698 0000 0000 		.long	.LM177
 8135 069c 0F        		.byte	0xf
 8136 069d 00        		.byte	0x0
 8137 069e 05        		.uleb128 0x5
 8138 069f 02        		.byte	0x2
 8139 06a0 0000 0000 		.long	.LM178
 8140 06a4 1D        		.byte	0x1d
 8141 06a5 00        		.byte	0x0
 8142 06a6 05        		.uleb128 0x5
 8143 06a7 02        		.byte	0x2
 8144 06a8 0000 0000 		.long	.LM179
 8145 06ac 03        		.byte	0x3
 8146 06ad 947F      		.sleb128 -108
 8147 06af 01        		.byte	0x1
 8148 06b0 00        		.byte	0x0
 8149 06b1 05        		.uleb128 0x5
 8150 06b2 02        		.byte	0x2
 8151 06b3 0000 0000 		.long	.LM180
 8152 06b7 01        		.byte	0x1
 8153 06b8 00        		.byte	0x0
 8154 06b9 05        		.uleb128 0x5
 8155 06ba 02        		.byte	0x2
 8156 06bb 0000 0000 		.long	.LM181
 8157 06bf 1B        		.byte	0x1b
 8158 06c0 00        		.byte	0x0
 8159 06c1 05        		.uleb128 0x5
 8160 06c2 02        		.byte	0x2
 8161 06c3 0000 0000 		.long	.LM182
 8162 06c7 11        		.byte	0x11
 8163 06c8 00        		.byte	0x0
 8164 06c9 05        		.uleb128 0x5
 8165 06ca 02        		.byte	0x2
GAS LISTING C:\Users\ADMINI~1\AppData\Local\Temp/ccZjgOiQ.s 			page 151


 8166 06cb 0000 0000 		.long	.LM183
 8167 06cf 13        		.byte	0x13
 8168 06d0 00        		.byte	0x0
 8169 06d1 05        		.uleb128 0x5
 8170 06d2 02        		.byte	0x2
 8171 06d3 0000 0000 		.long	.LM184
 8172 06d7 1B        		.byte	0x1b
 8173 06d8 00        		.byte	0x0
 8174 06d9 05        		.uleb128 0x5
 8175 06da 02        		.byte	0x2
 8176 06db 0000 0000 		.long	.LM185
 8177 06df 15        		.byte	0x15
 8178 06e0 00        		.byte	0x0
 8179 06e1 05        		.uleb128 0x5
 8180 06e2 02        		.byte	0x2
 8181 06e3 0000 0000 		.long	.LM186
 8182 06e7 BA        		.byte	0xba
 8183 06e8 00        		.byte	0x0
 8184 06e9 05        		.uleb128 0x5
 8185 06ea 02        		.byte	0x2
 8186 06eb 0000 0000 		.long	.LM187
 8187 06ef 16        		.byte	0x16
 8188 06f0 00        		.byte	0x0
 8189 06f1 05        		.uleb128 0x5
 8190 06f2 02        		.byte	0x2
 8191 06f3 0000 0000 		.long	.LM188
 8192 06f7 18        		.byte	0x18
 8193 06f8 00        		.byte	0x0
 8194 06f9 05        		.uleb128 0x5
 8195 06fa 02        		.byte	0x2
 8196 06fb 0000 0000 		.long	.LM189
 8197 06ff 1D        		.byte	0x1d
 8198 0700 00        		.byte	0x0
 8199 0701 05        		.uleb128 0x5
 8200 0702 02        		.byte	0x2
 8201 0703 0000 0000 		.long	.LM190
 8202 0707 16        		.byte	0x16
 8203 0708 00        		.byte	0x0
 8204 0709 05        		.uleb128 0x5
 8205 070a 02        		.byte	0x2
 8206 070b 0000 0000 		.long	.LM191
 8207 070f 15        		.byte	0x15
 8208 0710 00        		.byte	0x0
 8209 0711 05        		.uleb128 0x5
 8210 0712 02        		.byte	0x2
 8211 0713 0000 0000 		.long	.LM192
 8212 0717 15        		.byte	0x15
 8213 0718 00        		.byte	0x0
 8214 0719 05        		.uleb128 0x5
 8215 071a 02        		.byte	0x2
 8216 071b 0000 0000 		.long	.LM193
 8217 071f 15        		.byte	0x15
 8218 0720 00        		.byte	0x0
 8219 0721 05        		.uleb128 0x5
 8220 0722 02        		.byte	0x2
 8221 0723 0000 0000 		.long	.LM194
 8222 0727 16        		.byte	0x16
GAS LISTING C:\Users\ADMINI~1\AppData\Local\Temp/ccZjgOiQ.s 			page 152


 8223 0728 00        		.byte	0x0
 8224 0729 05        		.uleb128 0x5
 8225 072a 02        		.byte	0x2
 8226 072b 0000 0000 		.long	.LM195
 8227 072f 16        		.byte	0x16
 8228 0730 00        		.byte	0x0
 8229 0731 05        		.uleb128 0x5
 8230 0732 02        		.byte	0x2
 8231 0733 0000 0000 		.long	.LM196
 8232 0737 15        		.byte	0x15
 8233 0738 00        		.byte	0x0
 8234 0739 05        		.uleb128 0x5
 8235 073a 02        		.byte	0x2
 8236 073b 0000 0000 		.long	.LM197
 8237 073f 15        		.byte	0x15
 8238 0740 00        		.byte	0x0
 8239 0741 05        		.uleb128 0x5
 8240 0742 02        		.byte	0x2
 8241 0743 0000 0000 		.long	.LM198
 8242 0747 1B        		.byte	0x1b
 8243 0748 00        		.byte	0x0
 8244 0749 05        		.uleb128 0x5
 8245 074a 02        		.byte	0x2
 8246 074b 0000 0000 		.long	.LM199
 8247 074f 15        		.byte	0x15
 8248 0750 00        		.byte	0x0
 8249 0751 05        		.uleb128 0x5
 8250 0752 02        		.byte	0x2
 8251 0753 0000 0000 		.long	.LM200
 8252 0757 17        		.byte	0x17
 8253 0758 00        		.byte	0x0
 8254 0759 05        		.uleb128 0x5
 8255 075a 02        		.byte	0x2
 8256 075b 0000 0000 		.long	.LM201
 8257 075f 17        		.byte	0x17
 8258 0760 00        		.byte	0x0
 8259 0761 05        		.uleb128 0x5
 8260 0762 02        		.byte	0x2
 8261 0763 0000 0000 		.long	.LM202
 8262 0767 17        		.byte	0x17
 8263 0768 00        		.byte	0x0
 8264 0769 05        		.uleb128 0x5
 8265 076a 02        		.byte	0x2
 8266 076b 0000 0000 		.long	.LM203
 8267 076f 15        		.byte	0x15
 8268 0770 00        		.byte	0x0
 8269 0771 05        		.uleb128 0x5
 8270 0772 02        		.byte	0x2
 8271 0773 0000 0000 		.long	.LM204
 8272 0777 16        		.byte	0x16
 8273 0778 00        		.byte	0x0
 8274 0779 05        		.uleb128 0x5
 8275 077a 02        		.byte	0x2
 8276 077b 0000 0000 		.long	.LM205
 8277 077f 17        		.byte	0x17
 8278 0780 00        		.byte	0x0
 8279 0781 05        		.uleb128 0x5
GAS LISTING C:\Users\ADMINI~1\AppData\Local\Temp/ccZjgOiQ.s 			page 153


 8280 0782 02        		.byte	0x2
 8281 0783 0000 0000 		.long	.LM206
 8282 0787 18        		.byte	0x18
 8283 0788 00        		.byte	0x0
 8284 0789 05        		.uleb128 0x5
 8285 078a 02        		.byte	0x2
 8286 078b 0000 0000 		.long	.LM207
 8287 078f 15        		.byte	0x15
 8288 0790 00        		.byte	0x0
 8289 0791 05        		.uleb128 0x5
 8290 0792 02        		.byte	0x2
 8291 0793 0000 0000 		.long	.LM208
 8292 0797 16        		.byte	0x16
 8293 0798 00        		.byte	0x0
 8294 0799 05        		.uleb128 0x5
 8295 079a 02        		.byte	0x2
 8296 079b 0000 0000 		.long	.LM209
 8297 079f 19        		.byte	0x19
 8298 07a0 00        		.byte	0x0
 8299 07a1 05        		.uleb128 0x5
 8300 07a2 02        		.byte	0x2
 8301 07a3 0000 0000 		.long	.LM210
 8302 07a7 15        		.byte	0x15
 8303 07a8 00        		.byte	0x0
 8304 07a9 05        		.uleb128 0x5
 8305 07aa 02        		.byte	0x2
 8306 07ab 0000 0000 		.long	.LM211
 8307 07af 17        		.byte	0x17
 8308 07b0 00        		.byte	0x0
 8309 07b1 05        		.uleb128 0x5
 8310 07b2 02        		.byte	0x2
 8311 07b3 0000 0000 		.long	.LM212
 8312 07b7 1B        		.byte	0x1b
 8313 07b8 00        		.byte	0x0
 8314 07b9 05        		.uleb128 0x5
 8315 07ba 02        		.byte	0x2
 8316 07bb 0000 0000 		.long	.LM213
 8317 07bf 16        		.byte	0x16
 8318 07c0 00        		.byte	0x0
 8319 07c1 05        		.uleb128 0x5
 8320 07c2 02        		.byte	0x2
 8321 07c3 0000 0000 		.long	.LM214
 8322 07c7 15        		.byte	0x15
 8323 07c8 00        		.byte	0x0
 8324 07c9 05        		.uleb128 0x5
 8325 07ca 02        		.byte	0x2
 8326 07cb 0000 0000 		.long	.LM215
 8327 07cf 16        		.byte	0x16
 8328 07d0 00        		.byte	0x0
 8329 07d1 05        		.uleb128 0x5
 8330 07d2 02        		.byte	0x2
 8331 07d3 0000 0000 		.long	.LM216
 8332 07d7 15        		.byte	0x15
 8333 07d8 00        		.byte	0x0
 8334 07d9 05        		.uleb128 0x5
 8335 07da 02        		.byte	0x2
 8336 07db 0000 0000 		.long	.LM217
GAS LISTING C:\Users\ADMINI~1\AppData\Local\Temp/ccZjgOiQ.s 			page 154


 8337 07df 1D        		.byte	0x1d
 8338 07e0 00        		.byte	0x0
 8339 07e1 05        		.uleb128 0x5
 8340 07e2 02        		.byte	0x2
 8341 07e3 0000 0000 		.long	.LM218
 8342 07e7 15        		.byte	0x15
 8343 07e8 00        		.byte	0x0
 8344 07e9 05        		.uleb128 0x5
 8345 07ea 02        		.byte	0x2
 8346 07eb 0000 0000 		.long	.LM219
 8347 07ef 15        		.byte	0x15
 8348 07f0 00        		.byte	0x0
 8349 07f1 05        		.uleb128 0x5
 8350 07f2 02        		.byte	0x2
 8351 07f3 0000 0000 		.long	.LM220
 8352 07f7 16        		.byte	0x16
 8353 07f8 00        		.byte	0x0
 8354 07f9 05        		.uleb128 0x5
 8355 07fa 02        		.byte	0x2
 8356 07fb 0000 0000 		.long	.LM221
 8357 07ff 15        		.byte	0x15
 8358 0800 00        		.byte	0x0
 8359 0801 05        		.uleb128 0x5
 8360 0802 02        		.byte	0x2
 8361 0803 0000 0000 		.long	.LM222
 8362 0807 15        		.byte	0x15
 8363 0808 00        		.byte	0x0
 8364 0809 05        		.uleb128 0x5
 8365 080a 02        		.byte	0x2
 8366 080b 0000 0000 		.long	.LM223
 8367 080f 17        		.byte	0x17
 8368 0810 00        		.byte	0x0
 8369 0811 05        		.uleb128 0x5
 8370 0812 02        		.byte	0x2
 8371 0813 0000 0000 		.long	.LM224
 8372 0817 16        		.byte	0x16
 8373 0818 00        		.byte	0x0
 8374 0819 05        		.uleb128 0x5
 8375 081a 02        		.byte	0x2
 8376 081b 0000 0000 		.long	.LM225
 8377 081f 15        		.byte	0x15
 8378 0820 00        		.byte	0x0
 8379 0821 05        		.uleb128 0x5
 8380 0822 02        		.byte	0x2
 8381 0823 0000 0000 		.long	.LM226
 8382 0827 15        		.byte	0x15
 8383 0828 00        		.byte	0x0
 8384 0829 05        		.uleb128 0x5
 8385 082a 02        		.byte	0x2
 8386 082b 0000 0000 		.long	.LM227
 8387 082f 03        		.byte	0x3
 8388 0830 C97D      		.sleb128 -311
 8389 0832 01        		.byte	0x1
 8390 0833 00        		.byte	0x0
 8391 0834 05        		.uleb128 0x5
 8392 0835 02        		.byte	0x2
 8393 0836 0000 0000 		.long	.LM228
GAS LISTING C:\Users\ADMINI~1\AppData\Local\Temp/ccZjgOiQ.s 			page 155


 8394 083a 15        		.byte	0x15
 8395 083b 00        		.byte	0x0
 8396 083c 05        		.uleb128 0x5
 8397 083d 02        		.byte	0x2
 8398 083e 0000 0000 		.long	.LM229
 8399 0842 15        		.byte	0x15
 8400 0843 00        		.byte	0x0
 8401 0844 05        		.uleb128 0x5
 8402 0845 02        		.byte	0x2
 8403 0846 0000 0000 		.long	.LM230
 8404 084a 15        		.byte	0x15
 8405 084b 00        		.byte	0x0
 8406 084c 05        		.uleb128 0x5
 8407 084d 02        		.byte	0x2
 8408 084e 0000 0000 		.long	.LM231
 8409 0852 15        		.byte	0x15
 8410 0853 00        		.byte	0x0
 8411 0854 05        		.uleb128 0x5
 8412 0855 02        		.byte	0x2
 8413 0856 0000 0000 		.long	.LM232
 8414 085a 15        		.byte	0x15
 8415 085b 00        		.byte	0x0
 8416 085c 05        		.uleb128 0x5
 8417 085d 02        		.byte	0x2
 8418 085e 0000 0000 		.long	.LM233
 8419 0862 17        		.byte	0x17
 8420 0863 00        		.byte	0x0
 8421 0864 05        		.uleb128 0x5
 8422 0865 02        		.byte	0x2
 8423 0866 0000 0000 		.long	.LM234
 8424 086a 15        		.byte	0x15
 8425 086b 00        		.byte	0x0
 8426 086c 05        		.uleb128 0x5
 8427 086d 02        		.byte	0x2
 8428 086e 0000 0000 		.long	.LM235
 8429 0872 15        		.byte	0x15
 8430 0873 00        		.byte	0x0
 8431 0874 05        		.uleb128 0x5
 8432 0875 02        		.byte	0x2
 8433 0876 0000 0000 		.long	.LM236
 8434 087a 03        		.byte	0x3
 8435 087b AF02      		.sleb128 303
 8436 087d 01        		.byte	0x1
 8437 087e 00        		.byte	0x0
 8438 087f 05        		.uleb128 0x5
 8439 0880 02        		.byte	0x2
 8440 0881 0000 0000 		.long	.LM237
 8441 0885 15        		.byte	0x15
 8442 0886 00        		.byte	0x0
 8443 0887 05        		.uleb128 0x5
 8444 0888 02        		.byte	0x2
 8445 0889 0000 0000 		.long	.LM238
 8446 088d 15        		.byte	0x15
 8447 088e 00        		.byte	0x0
 8448 088f 05        		.uleb128 0x5
 8449 0890 02        		.byte	0x2
 8450 0891 0000 0000 		.long	.LM239
GAS LISTING C:\Users\ADMINI~1\AppData\Local\Temp/ccZjgOiQ.s 			page 156


 8451 0895 15        		.byte	0x15
 8452 0896 00        		.byte	0x0
 8453 0897 05        		.uleb128 0x5
 8454 0898 02        		.byte	0x2
 8455 0899 0000 0000 		.long	.LM240
 8456 089d 15        		.byte	0x15
 8457 089e 00        		.byte	0x0
 8458 089f 05        		.uleb128 0x5
 8459 08a0 02        		.byte	0x2
 8460 08a1 0000 0000 		.long	.LM241
 8461 08a5 15        		.byte	0x15
 8462 08a6 00        		.byte	0x0
 8463 08a7 05        		.uleb128 0x5
 8464 08a8 02        		.byte	0x2
 8465 08a9 0000 0000 		.long	.LM242
 8466 08ad 18        		.byte	0x18
 8467 08ae 00        		.byte	0x0
 8468 08af 05        		.uleb128 0x5
 8469 08b0 02        		.byte	0x2
 8470 08b1 0000 0000 		.long	.LM243
 8471 08b5 15        		.byte	0x15
 8472 08b6 00        		.byte	0x0
 8473 08b7 05        		.uleb128 0x5
 8474 08b8 02        		.byte	0x2
 8475 08b9 0000 0000 		.long	.LM244
 8476 08bd 17        		.byte	0x17
 8477 08be 00        		.byte	0x0
 8478 08bf 05        		.uleb128 0x5
 8479 08c0 02        		.byte	0x2
 8480 08c1 0000 0000 		.long	.LM245
 8481 08c5 15        		.byte	0x15
 8482 08c6 00        		.byte	0x0
 8483 08c7 05        		.uleb128 0x5
 8484 08c8 02        		.byte	0x2
 8485 08c9 0000 0000 		.long	.LM246
 8486 08cd 16        		.byte	0x16
 8487 08ce 00        		.byte	0x0
 8488 08cf 05        		.uleb128 0x5
 8489 08d0 02        		.byte	0x2
 8490 08d1 0000 0000 		.long	.LM247
 8491 08d5 15        		.byte	0x15
 8492 08d6 00        		.byte	0x0
 8493 08d7 05        		.uleb128 0x5
 8494 08d8 02        		.byte	0x2
 8495 08d9 0000 0000 		.long	.LM248
 8496 08dd 15        		.byte	0x15
 8497 08de 00        		.byte	0x0
 8498 08df 05        		.uleb128 0x5
 8499 08e0 02        		.byte	0x2
 8500 08e1 0000 0000 		.long	.LM249
 8501 08e5 15        		.byte	0x15
 8502 08e6 00        		.byte	0x0
 8503 08e7 05        		.uleb128 0x5
 8504 08e8 02        		.byte	0x2
 8505 08e9 0000 0000 		.long	.LM250
 8506 08ed 17        		.byte	0x17
 8507 08ee 00        		.byte	0x0
GAS LISTING C:\Users\ADMINI~1\AppData\Local\Temp/ccZjgOiQ.s 			page 157


 8508 08ef 05        		.uleb128 0x5
 8509 08f0 02        		.byte	0x2
 8510 08f1 0000 0000 		.long	.LM251
 8511 08f5 15        		.byte	0x15
 8512 08f6 00        		.byte	0x0
 8513 08f7 05        		.uleb128 0x5
 8514 08f8 02        		.byte	0x2
 8515 08f9 0000 0000 		.long	.LM252
 8516 08fd 15        		.byte	0x15
 8517 08fe 00        		.byte	0x0
 8518 08ff 05        		.uleb128 0x5
 8519 0900 02        		.byte	0x2
 8520 0901 0000 0000 		.long	.LM253
 8521 0905 17        		.byte	0x17
 8522 0906 00        		.byte	0x0
 8523 0907 05        		.uleb128 0x5
 8524 0908 02        		.byte	0x2
 8525 0909 0000 0000 		.long	.LM254
 8526 090d 16        		.byte	0x16
 8527 090e 00        		.byte	0x0
 8528 090f 05        		.uleb128 0x5
 8529 0910 02        		.byte	0x2
 8530 0911 0000 0000 		.long	.LM255
 8531 0915 17        		.byte	0x17
 8532 0916 00        		.byte	0x0
 8533 0917 05        		.uleb128 0x5
 8534 0918 02        		.byte	0x2
 8535 0919 0000 0000 		.long	.LM256
 8536 091d 15        		.byte	0x15
 8537 091e 00        		.byte	0x0
 8538 091f 05        		.uleb128 0x5
 8539 0920 02        		.byte	0x2
 8540 0921 0000 0000 		.long	.LM257
 8541 0925 15        		.byte	0x15
 8542 0926 00        		.byte	0x0
 8543 0927 05        		.uleb128 0x5
 8544 0928 02        		.byte	0x2
 8545 0929 0000 0000 		.long	.LM258
 8546 092d 15        		.byte	0x15
 8547 092e 00        		.byte	0x0
 8548 092f 05        		.uleb128 0x5
 8549 0930 02        		.byte	0x2
 8550 0931 0000 0000 		.long	.LM259
 8551 0935 15        		.byte	0x15
 8552 0936 00        		.byte	0x0
 8553 0937 05        		.uleb128 0x5
 8554 0938 02        		.byte	0x2
 8555 0939 0000 0000 		.long	.LM260
 8556 093d 03        		.byte	0x3
 8557 093e A77B      		.sleb128 -601
 8558 0940 01        		.byte	0x1
 8559 0941 00        		.byte	0x0
 8560 0942 05        		.uleb128 0x5
 8561 0943 02        		.byte	0x2
 8562 0944 0000 0000 		.long	.LM261
 8563 0948 15        		.byte	0x15
 8564 0949 00        		.byte	0x0
GAS LISTING C:\Users\ADMINI~1\AppData\Local\Temp/ccZjgOiQ.s 			page 158


 8565 094a 05        		.uleb128 0x5
 8566 094b 02        		.byte	0x2
 8567 094c 0000 0000 		.long	.LM262
 8568 0950 03        		.byte	0x3
 8569 0951 DA04      		.sleb128 602
 8570 0953 01        		.byte	0x1
 8571 0954 00        		.byte	0x0
 8572 0955 05        		.uleb128 0x5
 8573 0956 02        		.byte	0x2
 8574 0957 0000 0000 		.long	.LM263
 8575 095b 15        		.byte	0x15
 8576 095c 00        		.byte	0x0
 8577 095d 05        		.uleb128 0x5
 8578 095e 02        		.byte	0x2
 8579 095f 0000 0000 		.long	.LM264
 8580 0963 15        		.byte	0x15
 8581 0964 00        		.byte	0x0
 8582 0965 05        		.uleb128 0x5
 8583 0966 02        		.byte	0x2
 8584 0967 0000 0000 		.long	.LM265
 8585 096b 1E        		.byte	0x1e
 8586 096c 00        		.byte	0x0
 8587 096d 05        		.uleb128 0x5
 8588 096e 02        		.byte	0x2
 8589 096f 0000 0000 		.long	.LM266
 8590 0973 16        		.byte	0x16
 8591 0974 00        		.byte	0x0
 8592 0975 05        		.uleb128 0x5
 8593 0976 02        		.byte	0x2
 8594 0977 0000 0000 		.long	.LM267
 8595 097b 16        		.byte	0x16
 8596 097c 00        		.byte	0x0
 8597 097d 05        		.uleb128 0x5
 8598 097e 02        		.byte	0x2
 8599 097f 0000 0000 		.long	.LM268
 8600 0983 15        		.byte	0x15
 8601 0984 00        		.byte	0x0
 8602 0985 05        		.uleb128 0x5
 8603 0986 02        		.byte	0x2
 8604 0987 0000 0000 		.long	.LM269
 8605 098b 16        		.byte	0x16
 8606 098c 00        		.byte	0x0
 8607 098d 05        		.uleb128 0x5
 8608 098e 02        		.byte	0x2
 8609 098f 0000 0000 		.long	.LM270
 8610 0993 15        		.byte	0x15
 8611 0994 00        		.byte	0x0
 8612 0995 05        		.uleb128 0x5
 8613 0996 02        		.byte	0x2
 8614 0997 0000 0000 		.long	.LM271
 8615 099b 1D        		.byte	0x1d
 8616 099c 00        		.byte	0x0
 8617 099d 05        		.uleb128 0x5
 8618 099e 02        		.byte	0x2
 8619 099f 0000 0000 		.long	.LM272
 8620 09a3 16        		.byte	0x16
 8621 09a4 00        		.byte	0x0
GAS LISTING C:\Users\ADMINI~1\AppData\Local\Temp/ccZjgOiQ.s 			page 159


 8622 09a5 05        		.uleb128 0x5
 8623 09a6 02        		.byte	0x2
 8624 09a7 0000 0000 		.long	.LM273
 8625 09ab 16        		.byte	0x16
 8626 09ac 00        		.byte	0x0
 8627 09ad 05        		.uleb128 0x5
 8628 09ae 02        		.byte	0x2
 8629 09af 0000 0000 		.long	.LM274
 8630 09b3 16        		.byte	0x16
 8631 09b4 00        		.byte	0x0
 8632 09b5 05        		.uleb128 0x5
 8633 09b6 02        		.byte	0x2
 8634 09b7 0000 0000 		.long	.LM275
 8635 09bb 16        		.byte	0x16
 8636 09bc 00        		.byte	0x0
 8637 09bd 05        		.uleb128 0x5
 8638 09be 02        		.byte	0x2
 8639 09bf 0000 0000 		.long	.LM276
 8640 09c3 17        		.byte	0x17
 8641 09c4 00        		.byte	0x0
 8642 09c5 05        		.uleb128 0x5
 8643 09c6 02        		.byte	0x2
 8644 09c7 0000 0000 		.long	.LM277
 8645 09cb 15        		.byte	0x15
 8646 09cc 00        		.byte	0x0
 8647 09cd 05        		.uleb128 0x5
 8648 09ce 02        		.byte	0x2
 8649 09cf 0000 0000 		.long	.LM278
 8650 09d3 15        		.byte	0x15
 8651 09d4 00        		.byte	0x0
 8652 09d5 05        		.uleb128 0x5
 8653 09d6 02        		.byte	0x2
 8654 09d7 0000 0000 		.long	.LM279
 8655 09db 15        		.byte	0x15
 8656 09dc 00        		.byte	0x0
 8657 09dd 05        		.uleb128 0x5
 8658 09de 02        		.byte	0x2
 8659 09df 0000 0000 		.long	.LM280
 8660 09e3 16        		.byte	0x16
 8661 09e4 00        		.byte	0x0
 8662 09e5 05        		.uleb128 0x5
 8663 09e6 02        		.byte	0x2
 8664 09e7 0000 0000 		.long	.LM281
 8665 09eb 15        		.byte	0x15
 8666 09ec 00        		.byte	0x0
 8667 09ed 05        		.uleb128 0x5
 8668 09ee 02        		.byte	0x2
 8669 09ef 0000 0000 		.long	.LM282
 8670 09f3 1E        		.byte	0x1e
 8671 09f4 00        		.byte	0x0
 8672 09f5 05        		.uleb128 0x5
 8673 09f6 02        		.byte	0x2
 8674 09f7 0000 0000 		.long	.LM283
 8675 09fb 04        		.byte	0x4
 8676 09fc 02        		.uleb128 0x2
 8677 09fd 03        		.byte	0x3
 8678 09fe A27A      		.sleb128 -734
GAS LISTING C:\Users\ADMINI~1\AppData\Local\Temp/ccZjgOiQ.s 			page 160


 8679 0a00 01        		.byte	0x1
 8680 0a01 00        		.byte	0x0
 8681 0a02 05        		.uleb128 0x5
 8682 0a03 02        		.byte	0x2
 8683 0a04 0000 0000 		.long	.LM284
 8684 0a08 04        		.byte	0x4
 8685 0a09 03        		.uleb128 0x3
 8686 0a0a 27        		.byte	0x27
 8687 0a0b 00        		.byte	0x0
 8688 0a0c 05        		.uleb128 0x5
 8689 0a0d 02        		.byte	0x2
 8690 0a0e 0000 0000 		.long	.LM285
 8691 0a12 10        		.byte	0x10
 8692 0a13 00        		.byte	0x0
 8693 0a14 05        		.uleb128 0x5
 8694 0a15 02        		.byte	0x2
 8695 0a16 0000 0000 		.long	.LM286
 8696 0a1a 04        		.byte	0x4
 8697 0a1b 01        		.uleb128 0x1
 8698 0a1c 03        		.byte	0x3
 8699 0a1d D205      		.sleb128 722
 8700 0a1f 01        		.byte	0x1
 8701 0a20 00        		.byte	0x0
 8702 0a21 05        		.uleb128 0x5
 8703 0a22 02        		.byte	0x2
 8704 0a23 0000 0000 		.long	.LM287
 8705 0a27 16        		.byte	0x16
 8706 0a28 00        		.byte	0x0
 8707 0a29 05        		.uleb128 0x5
 8708 0a2a 02        		.byte	0x2
 8709 0a2b 0000 0000 		.long	.LM288
 8710 0a2f 12        		.byte	0x12
 8711 0a30 00        		.byte	0x0
 8712 0a31 05        		.uleb128 0x5
 8713 0a32 02        		.byte	0x2
 8714 0a33 0000 0000 		.long	.LM289
 8715 0a37 16        		.byte	0x16
 8716 0a38 00        		.byte	0x0
 8717 0a39 05        		.uleb128 0x5
 8718 0a3a 02        		.byte	0x2
 8719 0a3b 0000 0000 		.long	.LM290
 8720 0a3f 15        		.byte	0x15
 8721 0a40 00        		.byte	0x0
 8722 0a41 05        		.uleb128 0x5
 8723 0a42 02        		.byte	0x2
 8724 0a43 0000 0000 		.long	.LM291
 8725 0a47 15        		.byte	0x15
 8726 0a48 00        		.byte	0x0
 8727 0a49 05        		.uleb128 0x5
 8728 0a4a 02        		.byte	0x2
 8729 0a4b 0000 0000 		.long	.LM292
 8730 0a4f 15        		.byte	0x15
 8731 0a50 00        		.byte	0x0
 8732 0a51 05        		.uleb128 0x5
 8733 0a52 02        		.byte	0x2
 8734 0a53 0000 0000 		.long	.LM293
 8735 0a57 15        		.byte	0x15
GAS LISTING C:\Users\ADMINI~1\AppData\Local\Temp/ccZjgOiQ.s 			page 161


 8736 0a58 00        		.byte	0x0
 8737 0a59 05        		.uleb128 0x5
 8738 0a5a 02        		.byte	0x2
 8739 0a5b 0000 0000 		.long	.LM294
 8740 0a5f 15        		.byte	0x15
 8741 0a60 00        		.byte	0x0
 8742 0a61 05        		.uleb128 0x5
 8743 0a62 02        		.byte	0x2
 8744 0a63 0000 0000 		.long	.LM295
 8745 0a67 15        		.byte	0x15
 8746 0a68 00        		.byte	0x0
 8747 0a69 05        		.uleb128 0x5
 8748 0a6a 02        		.byte	0x2
 8749 0a6b 0000 0000 		.long	.LM296
 8750 0a6f 16        		.byte	0x16
 8751 0a70 00        		.byte	0x0
 8752 0a71 05        		.uleb128 0x5
 8753 0a72 02        		.byte	0x2
 8754 0a73 0000 0000 		.long	.LM297
 8755 0a77 15        		.byte	0x15
 8756 0a78 00        		.byte	0x0
 8757 0a79 05        		.uleb128 0x5
 8758 0a7a 02        		.byte	0x2
 8759 0a7b 0000 0000 		.long	.LM298
 8760 0a7f 15        		.byte	0x15
 8761 0a80 00        		.byte	0x0
 8762 0a81 05        		.uleb128 0x5
 8763 0a82 02        		.byte	0x2
 8764 0a83 0000 0000 		.long	.LM299
 8765 0a87 15        		.byte	0x15
 8766 0a88 00        		.byte	0x0
 8767 0a89 05        		.uleb128 0x5
 8768 0a8a 02        		.byte	0x2
 8769 0a8b 0000 0000 		.long	.LM300
 8770 0a8f 15        		.byte	0x15
 8771 0a90 00        		.byte	0x0
 8772 0a91 05        		.uleb128 0x5
 8773 0a92 02        		.byte	0x2
 8774 0a93 0000 0000 		.long	.LM301
 8775 0a97 15        		.byte	0x15
 8776 0a98 00        		.byte	0x0
 8777 0a99 05        		.uleb128 0x5
 8778 0a9a 02        		.byte	0x2
 8779 0a9b 0000 0000 		.long	.LM302
 8780 0a9f 17        		.byte	0x17
 8781 0aa0 00        		.byte	0x0
 8782 0aa1 05        		.uleb128 0x5
 8783 0aa2 02        		.byte	0x2
 8784 0aa3 0000 0000 		.long	.LM303
 8785 0aa7 15        		.byte	0x15
 8786 0aa8 00        		.byte	0x0
 8787 0aa9 05        		.uleb128 0x5
 8788 0aaa 02        		.byte	0x2
 8789 0aab 0000 0000 		.long	.LM304
 8790 0aaf 1B        		.byte	0x1b
 8791 0ab0 00        		.byte	0x0
 8792 0ab1 05        		.uleb128 0x5
GAS LISTING C:\Users\ADMINI~1\AppData\Local\Temp/ccZjgOiQ.s 			page 162


 8793 0ab2 02        		.byte	0x2
 8794 0ab3 0000 0000 		.long	.LM305
 8795 0ab7 15        		.byte	0x15
 8796 0ab8 00        		.byte	0x0
 8797 0ab9 05        		.uleb128 0x5
 8798 0aba 02        		.byte	0x2
 8799 0abb 0000 0000 		.long	.LM306
 8800 0abf 15        		.byte	0x15
 8801 0ac0 00        		.byte	0x0
 8802 0ac1 05        		.uleb128 0x5
 8803 0ac2 02        		.byte	0x2
 8804 0ac3 0000 0000 		.long	.LM307
 8805 0ac7 15        		.byte	0x15
 8806 0ac8 00        		.byte	0x0
 8807 0ac9 05        		.uleb128 0x5
 8808 0aca 02        		.byte	0x2
 8809 0acb 0000 0000 		.long	.LM308
 8810 0acf 15        		.byte	0x15
 8811 0ad0 00        		.byte	0x0
 8812 0ad1 05        		.uleb128 0x5
 8813 0ad2 02        		.byte	0x2
 8814 0ad3 0000 0000 		.long	.LM309
 8815 0ad7 15        		.byte	0x15
 8816 0ad8 00        		.byte	0x0
 8817 0ad9 05        		.uleb128 0x5
 8818 0ada 02        		.byte	0x2
 8819 0adb 0000 0000 		.long	.LM310
 8820 0adf 15        		.byte	0x15
 8821 0ae0 00        		.byte	0x0
 8822 0ae1 05        		.uleb128 0x5
 8823 0ae2 02        		.byte	0x2
 8824 0ae3 0000 0000 		.long	.LM311
 8825 0ae7 15        		.byte	0x15
 8826 0ae8 00        		.byte	0x0
 8827 0ae9 05        		.uleb128 0x5
 8828 0aea 02        		.byte	0x2
 8829 0aeb 0000 0000 		.long	.LM312
 8830 0aef 15        		.byte	0x15
 8831 0af0 00        		.byte	0x0
 8832 0af1 05        		.uleb128 0x5
 8833 0af2 02        		.byte	0x2
 8834 0af3 0000 0000 		.long	.LM313
 8835 0af7 03        		.byte	0x3
 8836 0af8 F67A      		.sleb128 -650
 8837 0afa 01        		.byte	0x1
 8838 0afb 00        		.byte	0x0
 8839 0afc 05        		.uleb128 0x5
 8840 0afd 02        		.byte	0x2
 8841 0afe 0000 0000 		.long	.LM314
 8842 0b02 03        		.byte	0x3
 8843 0b03 8C05      		.sleb128 652
 8844 0b05 01        		.byte	0x1
 8845 0b06 00        		.byte	0x0
 8846 0b07 05        		.uleb128 0x5
 8847 0b08 02        		.byte	0x2
 8848 0b09 0000 0000 		.long	.LM315
 8849 0b0d 15        		.byte	0x15
GAS LISTING C:\Users\ADMINI~1\AppData\Local\Temp/ccZjgOiQ.s 			page 163


 8850 0b0e 00        		.byte	0x0
 8851 0b0f 05        		.uleb128 0x5
 8852 0b10 02        		.byte	0x2
 8853 0b11 0000 0000 		.long	.LM316
 8854 0b15 16        		.byte	0x16
 8855 0b16 00        		.byte	0x0
 8856 0b17 05        		.uleb128 0x5
 8857 0b18 02        		.byte	0x2
 8858 0b19 0000 0000 		.long	.LM317
 8859 0b1d 15        		.byte	0x15
 8860 0b1e 00        		.byte	0x0
 8861 0b1f 05        		.uleb128 0x5
 8862 0b20 02        		.byte	0x2
 8863 0b21 0000 0000 		.long	.LM318
 8864 0b25 15        		.byte	0x15
 8865 0b26 00        		.byte	0x0
 8866 0b27 05        		.uleb128 0x5
 8867 0b28 02        		.byte	0x2
 8868 0b29 0000 0000 		.long	.LM319
 8869 0b2d 16        		.byte	0x16
 8870 0b2e 00        		.byte	0x0
 8871 0b2f 05        		.uleb128 0x5
 8872 0b30 02        		.byte	0x2
 8873 0b31 0000 0000 		.long	.LM320
 8874 0b35 16        		.byte	0x16
 8875 0b36 00        		.byte	0x0
 8876 0b37 05        		.uleb128 0x5
 8877 0b38 02        		.byte	0x2
 8878 0b39 0000 0000 		.long	.LM321
 8879 0b3d 18        		.byte	0x18
 8880 0b3e 00        		.byte	0x0
 8881 0b3f 05        		.uleb128 0x5
 8882 0b40 02        		.byte	0x2
 8883 0b41 0000 0000 		.long	.LM322
 8884 0b45 16        		.byte	0x16
 8885 0b46 00        		.byte	0x0
 8886 0b47 05        		.uleb128 0x5
 8887 0b48 02        		.byte	0x2
 8888 0b49 0000 0000 		.long	.LM323
 8889 0b4d 16        		.byte	0x16
 8890 0b4e 00        		.byte	0x0
 8891 0b4f 05        		.uleb128 0x5
 8892 0b50 02        		.byte	0x2
 8893 0b51 0000 0000 		.long	.LM324
 8894 0b55 17        		.byte	0x17
 8895 0b56 00        		.byte	0x0
 8896 0b57 05        		.uleb128 0x5
 8897 0b58 02        		.byte	0x2
 8898 0b59 0000 0000 		.long	.LM325
 8899 0b5d 19        		.byte	0x19
 8900 0b5e 00        		.byte	0x0
 8901 0b5f 05        		.uleb128 0x5
 8902 0b60 02        		.byte	0x2
 8903 0b61 0000 0000 		.long	.LM326
 8904 0b65 15        		.byte	0x15
 8905 0b66 00        		.byte	0x0
 8906 0b67 05        		.uleb128 0x5
GAS LISTING C:\Users\ADMINI~1\AppData\Local\Temp/ccZjgOiQ.s 			page 164


 8907 0b68 02        		.byte	0x2
 8908 0b69 0000 0000 		.long	.LM327
 8909 0b6d 15        		.byte	0x15
 8910 0b6e 00        		.byte	0x0
 8911 0b6f 05        		.uleb128 0x5
 8912 0b70 02        		.byte	0x2
 8913 0b71 0000 0000 		.long	.LM328
 8914 0b75 15        		.byte	0x15
 8915 0b76 00        		.byte	0x0
 8916 0b77 05        		.uleb128 0x5
 8917 0b78 02        		.byte	0x2
 8918 0b79 0000 0000 		.long	.LM329
 8919 0b7d 17        		.byte	0x17
 8920 0b7e 00        		.byte	0x0
 8921 0b7f 05        		.uleb128 0x5
 8922 0b80 02        		.byte	0x2
 8923 0b81 0000 0000 		.long	.LM330
 8924 0b85 15        		.byte	0x15
 8925 0b86 00        		.byte	0x0
 8926 0b87 05        		.uleb128 0x5
 8927 0b88 02        		.byte	0x2
 8928 0b89 0000 0000 		.long	.LM331
 8929 0b8d 17        		.byte	0x17
 8930 0b8e 00        		.byte	0x0
 8931 0b8f 05        		.uleb128 0x5
 8932 0b90 02        		.byte	0x2
 8933 0b91 0000 0000 		.long	.LM332
 8934 0b95 15        		.byte	0x15
 8935 0b96 00        		.byte	0x0
 8936 0b97 05        		.uleb128 0x5
 8937 0b98 02        		.byte	0x2
 8938 0b99 0000 0000 		.long	.LM333
 8939 0b9d 15        		.byte	0x15
 8940 0b9e 00        		.byte	0x0
 8941 0b9f 05        		.uleb128 0x5
 8942 0ba0 02        		.byte	0x2
 8943 0ba1 0000 0000 		.long	.LM334
 8944 0ba5 04        		.byte	0x4
 8945 0ba6 02        		.uleb128 0x2
 8946 0ba7 03        		.byte	0x3
 8947 0ba8 D679      		.sleb128 -810
 8948 0baa 01        		.byte	0x1
 8949 0bab 00        		.byte	0x0
 8950 0bac 05        		.uleb128 0x5
 8951 0bad 02        		.byte	0x2
 8952 0bae 0000 0000 		.long	.LM335
 8953 0bb2 04        		.byte	0x4
 8954 0bb3 03        		.uleb128 0x3
 8955 0bb4 27        		.byte	0x27
 8956 0bb5 00        		.byte	0x0
 8957 0bb6 05        		.uleb128 0x5
 8958 0bb7 02        		.byte	0x2
 8959 0bb8 0000 0000 		.long	.LM336
 8960 0bbc 10        		.byte	0x10
 8961 0bbd 00        		.byte	0x0
 8962 0bbe 05        		.uleb128 0x5
 8963 0bbf 02        		.byte	0x2
GAS LISTING C:\Users\ADMINI~1\AppData\Local\Temp/ccZjgOiQ.s 			page 165


 8964 0bc0 0000 0000 		.long	.LM337
 8965 0bc4 04        		.byte	0x4
 8966 0bc5 01        		.uleb128 0x1
 8967 0bc6 03        		.byte	0x3
 8968 0bc7 A306      		.sleb128 803
 8969 0bc9 01        		.byte	0x1
 8970 0bca 00        		.byte	0x0
 8971 0bcb 05        		.uleb128 0x5
 8972 0bcc 02        		.byte	0x2
 8973 0bcd 0000 0000 		.long	.LM338
 8974 0bd1 17        		.byte	0x17
 8975 0bd2 00        		.byte	0x0
 8976 0bd3 05        		.uleb128 0x5
 8977 0bd4 02        		.byte	0x2
 8978 0bd5 0000 0000 		.long	.LM339
 8979 0bd9 03        		.byte	0x3
 8980 0bda CE7C      		.sleb128 -434
 8981 0bdc 01        		.byte	0x1
 8982 0bdd 00        		.byte	0x0
 8983 0bde 05        		.uleb128 0x5
 8984 0bdf 02        		.byte	0x2
 8985 0be0 0000 0000 		.long	.LM340
 8986 0be4 01        		.byte	0x1
 8987 0be5 00        		.byte	0x0
 8988 0be6 05        		.uleb128 0x5
 8989 0be7 02        		.byte	0x2
 8990 0be8 0000 0000 		.long	.LM341
 8991 0bec 1D        		.byte	0x1d
 8992 0bed 00        		.byte	0x0
 8993 0bee 05        		.uleb128 0x5
 8994 0bef 02        		.byte	0x2
 8995 0bf0 0000 0000 		.long	.LM342
 8996 0bf4 10        		.byte	0x10
 8997 0bf5 00        		.byte	0x0
 8998 0bf6 05        		.uleb128 0x5
 8999 0bf7 02        		.byte	0x2
 9000 0bf8 0000 0000 		.long	.LM343
 9001 0bfc 13        		.byte	0x13
 9002 0bfd 00        		.byte	0x0
 9003 0bfe 05        		.uleb128 0x5
 9004 0bff 02        		.byte	0x2
 9005 0c00 0000 0000 		.long	.LM344
 9006 0c04 1C        		.byte	0x1c
 9007 0c05 00        		.byte	0x0
 9008 0c06 05        		.uleb128 0x5
 9009 0c07 02        		.byte	0x2
 9010 0c08 0000 0000 		.long	.LM345
 9011 0c0c 16        		.byte	0x16
 9012 0c0d 00        		.byte	0x0
 9013 0c0e 05        		.uleb128 0x5
 9014 0c0f 02        		.byte	0x2
 9015 0c10 0000 0000 		.long	.LM346
 9016 0c14 16        		.byte	0x16
 9017 0c15 00        		.byte	0x0
 9018 0c16 05        		.uleb128 0x5
 9019 0c17 02        		.byte	0x2
 9020 0c18 0000 0000 		.long	.LM347
GAS LISTING C:\Users\ADMINI~1\AppData\Local\Temp/ccZjgOiQ.s 			page 166


 9021 0c1c 03        		.byte	0x3
 9022 0c1d B87D      		.sleb128 -328
 9023 0c1f 01        		.byte	0x1
 9024 0c20 00        		.byte	0x0
 9025 0c21 05        		.uleb128 0x5
 9026 0c22 02        		.byte	0x2
 9027 0c23 0000 0000 		.long	.LM348
 9028 0c27 15        		.byte	0x15
 9029 0c28 00        		.byte	0x0
 9030 0c29 05        		.uleb128 0x5
 9031 0c2a 02        		.byte	0x2
 9032 0c2b 0000 0000 		.long	.LM349
 9033 0c2f 03        		.byte	0x3
 9034 0c30 C902      		.sleb128 329
 9035 0c32 01        		.byte	0x1
 9036 0c33 00        		.byte	0x0
 9037 0c34 05        		.uleb128 0x5
 9038 0c35 02        		.byte	0x2
 9039 0c36 0000 0000 		.long	.LM350
 9040 0c3a 16        		.byte	0x16
 9041 0c3b 00        		.byte	0x0
 9042 0c3c 05        		.uleb128 0x5
 9043 0c3d 02        		.byte	0x2
 9044 0c3e 0000 0000 		.long	.LM351
 9045 0c42 15        		.byte	0x15
 9046 0c43 00        		.byte	0x0
 9047 0c44 05        		.uleb128 0x5
 9048 0c45 02        		.byte	0x2
 9049 0c46 0000 0000 		.long	.LM352
 9050 0c4a 15        		.byte	0x15
 9051 0c4b 00        		.byte	0x0
 9052 0c4c 05        		.uleb128 0x5
 9053 0c4d 02        		.byte	0x2
 9054 0c4e 0000 0000 		.long	.LM353
 9055 0c52 15        		.byte	0x15
 9056 0c53 00        		.byte	0x0
 9057 0c54 05        		.uleb128 0x5
 9058 0c55 02        		.byte	0x2
 9059 0c56 0000 0000 		.long	.LM354
 9060 0c5a 15        		.byte	0x15
 9061 0c5b 00        		.byte	0x0
 9062 0c5c 05        		.uleb128 0x5
 9063 0c5d 02        		.byte	0x2
 9064 0c5e 0000 0000 		.long	.LM355
 9065 0c62 15        		.byte	0x15
 9066 0c63 00        		.byte	0x0
 9067 0c64 05        		.uleb128 0x5
 9068 0c65 02        		.byte	0x2
 9069 0c66 0000 0000 		.long	.LM356
 9070 0c6a 18        		.byte	0x18
 9071 0c6b 00        		.byte	0x0
 9072 0c6c 05        		.uleb128 0x5
 9073 0c6d 02        		.byte	0x2
 9074 0c6e 0000 0000 		.long	.LM357
 9075 0c72 15        		.byte	0x15
 9076 0c73 00        		.byte	0x0
 9077 0c74 05        		.uleb128 0x5
GAS LISTING C:\Users\ADMINI~1\AppData\Local\Temp/ccZjgOiQ.s 			page 167


 9078 0c75 02        		.byte	0x2
 9079 0c76 0000 0000 		.long	.LM358
 9080 0c7a 03        		.byte	0x3
 9081 0c7b 56        		.sleb128 -42
 9082 0c7c 01        		.byte	0x1
 9083 0c7d 00        		.byte	0x0
 9084 0c7e 05        		.uleb128 0x5
 9085 0c7f 02        		.byte	0x2
 9086 0c80 0000 0000 		.long	.LM359
 9087 0c84 15        		.byte	0x15
 9088 0c85 00        		.byte	0x0
 9089 0c86 05        		.uleb128 0x5
 9090 0c87 02        		.byte	0x2
 9091 0c88 0000 0000 		.long	.LM360
 9092 0c8c 15        		.byte	0x15
 9093 0c8d 00        		.byte	0x0
 9094 0c8e 05        		.uleb128 0x5
 9095 0c8f 02        		.byte	0x2
 9096 0c90 0000 0000 		.long	.LM361
 9097 0c94 15        		.byte	0x15
 9098 0c95 00        		.byte	0x0
 9099 0c96 05        		.uleb128 0x5
 9100 0c97 02        		.byte	0x2
 9101 0c98 0000 0000 		.long	.LM362
 9102 0c9c 15        		.byte	0x15
 9103 0c9d 00        		.byte	0x0
 9104 0c9e 05        		.uleb128 0x5
 9105 0c9f 02        		.byte	0x2
 9106 0ca0 0000 0000 		.long	.LM363
 9107 0ca4 16        		.byte	0x16
 9108 0ca5 00        		.byte	0x0
 9109 0ca6 05        		.uleb128 0x5
 9110 0ca7 02        		.byte	0x2
 9111 0ca8 0000 0000 		.long	.LM364
 9112 0cac 16        		.byte	0x16
 9113 0cad 00        		.byte	0x0
 9114 0cae 05        		.uleb128 0x5
 9115 0caf 02        		.byte	0x2
 9116 0cb0 0000 0000 		.long	.LM365
 9117 0cb4 15        		.byte	0x15
 9118 0cb5 00        		.byte	0x0
 9119 0cb6 05        		.uleb128 0x5
 9120 0cb7 02        		.byte	0x2
 9121 0cb8 0000 0000 		.long	.LM366
 9122 0cbc 03        		.byte	0x3
 9123 0cbd 957E      		.sleb128 -235
 9124 0cbf 01        		.byte	0x1
 9125 0cc0 00        		.byte	0x0
 9126 0cc1 05        		.uleb128 0x5
 9127 0cc2 02        		.byte	0x2
 9128 0cc3 0000 0000 		.long	.LM367
 9129 0cc7 16        		.byte	0x16
 9130 0cc8 00        		.byte	0x0
 9131 0cc9 05        		.uleb128 0x5
 9132 0cca 02        		.byte	0x2
 9133 0ccb 0000 0000 		.long	.LM368
 9134 0ccf 03        		.byte	0x3
GAS LISTING C:\Users\ADMINI~1\AppData\Local\Temp/ccZjgOiQ.s 			page 168


 9135 0cd0 6A        		.sleb128 -22
 9136 0cd1 01        		.byte	0x1
 9137 0cd2 00        		.byte	0x0
 9138 0cd3 05        		.uleb128 0x5
 9139 0cd4 02        		.byte	0x2
 9140 0cd5 0000 0000 		.long	.LM369
 9141 0cd9 38        		.byte	0x38
 9142 0cda 00        		.byte	0x0
 9143 0cdb 05        		.uleb128 0x5
 9144 0cdc 02        		.byte	0x2
 9145 0cdd 0000 0000 		.long	.LM370
 9146 0ce1 03        		.byte	0x3
 9147 0ce2 54        		.sleb128 -44
 9148 0ce3 01        		.byte	0x1
 9149 0ce4 00        		.byte	0x0
 9150 0ce5 05        		.uleb128 0x5
 9151 0ce6 02        		.byte	0x2
 9152 0ce7 0000 0000 		.long	.LM371
 9153 0ceb 45        		.byte	0x45
 9154 0cec 00        		.byte	0x0
 9155 0ced 05        		.uleb128 0x5
 9156 0cee 02        		.byte	0x2
 9157 0cef 0000 0000 		.long	.LM372
 9158 0cf3 03        		.byte	0x3
 9159 0cf4 8B02      		.sleb128 267
 9160 0cf6 01        		.byte	0x1
 9161 0cf7 00        		.byte	0x0
 9162 0cf8 05        		.uleb128 0x5
 9163 0cf9 02        		.byte	0x2
 9164 0cfa 0000 0000 		.long	.LM373
 9165 0cfe 15        		.byte	0x15
 9166 0cff 00        		.byte	0x0
 9167 0d00 05        		.uleb128 0x5
 9168 0d01 02        		.byte	0x2
 9169 0d02 0000 0000 		.long	.LM374
 9170 0d06 03        		.byte	0x3
 9171 0d07 D07D      		.sleb128 -304
 9172 0d09 01        		.byte	0x1
 9173 0d0a 00        		.byte	0x0
 9174 0d0b 05        		.uleb128 0x5
 9175 0d0c 02        		.byte	0x2
 9176 0d0d 0000 0000 		.long	.LM375
 9177 0d11 03        		.byte	0x3
 9178 0d12 B402      		.sleb128 308
 9179 0d14 01        		.byte	0x1
 9180 0d15 00        		.byte	0x0
 9181 0d16 05        		.uleb128 0x5
 9182 0d17 02        		.byte	0x2
 9183 0d18 0000 0000 		.long	.LM376
 9184 0d1c 16        		.byte	0x16
 9185 0d1d 00        		.byte	0x0
 9186 0d1e 05        		.uleb128 0x5
 9187 0d1f 02        		.byte	0x2
 9188 0d20 0000 0000 		.long	.LM377
 9189 0d24 15        		.byte	0x15
 9190 0d25 00        		.byte	0x0
 9191 0d26 05        		.uleb128 0x5
GAS LISTING C:\Users\ADMINI~1\AppData\Local\Temp/ccZjgOiQ.s 			page 169


 9192 0d27 02        		.byte	0x2
 9193 0d28 0000 0000 		.long	.LM378
 9194 0d2c 16        		.byte	0x16
 9195 0d2d 00        		.byte	0x0
 9196 0d2e 05        		.uleb128 0x5
 9197 0d2f 02        		.byte	0x2
 9198 0d30 0000 0000 		.long	.LM379
 9199 0d34 17        		.byte	0x17
 9200 0d35 00        		.byte	0x0
 9201 0d36 05        		.uleb128 0x5
 9202 0d37 02        		.byte	0x2
 9203 0d38 0000 0000 		.long	.LM380
 9204 0d3c 03        		.byte	0x3
 9205 0d3d FF7C      		.sleb128 -385
 9206 0d3f 01        		.byte	0x1
 9207 0d40 00        		.byte	0x0
 9208 0d41 05        		.uleb128 0x5
 9209 0d42 02        		.byte	0x2
 9210 0d43 0000 0000 		.long	.LM381
 9211 0d47 03        		.byte	0x3
 9212 0d48 BE7F      		.sleb128 -66
 9213 0d4a 01        		.byte	0x1
 9214 0d4b 00        		.byte	0x0
 9215 0d4c 05        		.uleb128 0x5
 9216 0d4d 02        		.byte	0x2
 9217 0d4e 0000 0000 		.long	.LM382
 9218 0d52 57        		.byte	0x57
 9219 0d53 00        		.byte	0x0
 9220 0d54 05        		.uleb128 0x5
 9221 0d55 02        		.byte	0x2
 9222 0d56 0000 0000 		.long	.LM383
 9223 0d5a 03        		.byte	0x3
 9224 0d5b 64        		.sleb128 -28
 9225 0d5c 01        		.byte	0x1
 9226 0d5d 00        		.byte	0x0
 9227 0d5e 05        		.uleb128 0x5
 9228 0d5f 02        		.byte	0x2
 9229 0d60 0000 0000 		.long	.LM384
 9230 0d64 16        		.byte	0x16
 9231 0d65 00        		.byte	0x0
 9232 0d66 05        		.uleb128 0x5
 9233 0d67 02        		.byte	0x2
 9234 0d68 0000 0000 		.long	.LM385
 9235 0d6c 03        		.byte	0x3
 9236 0d6d 6E        		.sleb128 -18
 9237 0d6e 01        		.byte	0x1
 9238 0d6f 00        		.byte	0x0
 9239 0d70 05        		.uleb128 0x5
 9240 0d71 02        		.byte	0x2
 9241 0d72 0000 0000 		.long	.LM386
 9242 0d76 03        		.byte	0x3
 9243 0d77 65        		.sleb128 -27
 9244 0d78 01        		.byte	0x1
 9245 0d79 00        		.byte	0x0
 9246 0d7a 05        		.uleb128 0x5
 9247 0d7b 02        		.byte	0x2
 9248 0d7c 0000 0000 		.long	.LM387
GAS LISTING C:\Users\ADMINI~1\AppData\Local\Temp/ccZjgOiQ.s 			page 170


 9249 0d80 33        		.byte	0x33
 9250 0d81 00        		.byte	0x0
 9251 0d82 05        		.uleb128 0x5
 9252 0d83 02        		.byte	0x2
 9253 0d84 0000 0000 		.long	.LM388
 9254 0d88 15        		.byte	0x15
 9255 0d89 00        		.byte	0x0
 9256 0d8a 05        		.uleb128 0x5
 9257 0d8b 02        		.byte	0x2
 9258 0d8c 0000 0000 		.long	.LM389
 9259 0d90 16        		.byte	0x16
 9260 0d91 00        		.byte	0x0
 9261 0d92 05        		.uleb128 0x5
 9262 0d93 02        		.byte	0x2
 9263 0d94 0000 0000 		.long	.LM390
 9264 0d98 18        		.byte	0x18
 9265 0d99 00        		.byte	0x0
 9266 0d9a 05        		.uleb128 0x5
 9267 0d9b 02        		.byte	0x2
 9268 0d9c 0000 0000 		.long	.LM391
 9269 0da0 16        		.byte	0x16
 9270 0da1 00        		.byte	0x0
 9271 0da2 05        		.uleb128 0x5
 9272 0da3 02        		.byte	0x2
 9273 0da4 0000 0000 		.long	.LM392
 9274 0da8 42        		.byte	0x42
 9275 0da9 00        		.byte	0x0
 9276 0daa 05        		.uleb128 0x5
 9277 0dab 02        		.byte	0x2
 9278 0dac 0000 0000 		.long	.LM393
 9279 0db0 15        		.byte	0x15
 9280 0db1 00        		.byte	0x0
 9281 0db2 05        		.uleb128 0x5
 9282 0db3 02        		.byte	0x2
 9283 0db4 0000 0000 		.long	.LM394
 9284 0db8 15        		.byte	0x15
 9285 0db9 00        		.byte	0x0
 9286 0dba 05        		.uleb128 0x5
 9287 0dbb 02        		.byte	0x2
 9288 0dbc 0000 0000 		.long	.LM395
 9289 0dc0 15        		.byte	0x15
 9290 0dc1 00        		.byte	0x0
 9291 0dc2 05        		.uleb128 0x5
 9292 0dc3 02        		.byte	0x2
 9293 0dc4 0000 0000 		.long	.LM396
 9294 0dc8 19        		.byte	0x19
 9295 0dc9 00        		.byte	0x0
 9296 0dca 05        		.uleb128 0x5
 9297 0dcb 02        		.byte	0x2
 9298 0dcc 0000 0000 		.long	.LM397
 9299 0dd0 15        		.byte	0x15
 9300 0dd1 00        		.byte	0x0
 9301 0dd2 05        		.uleb128 0x5
 9302 0dd3 02        		.byte	0x2
 9303 0dd4 0000 0000 		.long	.LM398
 9304 0dd8 16        		.byte	0x16
 9305 0dd9 00        		.byte	0x0
GAS LISTING C:\Users\ADMINI~1\AppData\Local\Temp/ccZjgOiQ.s 			page 171


 9306 0dda 05        		.uleb128 0x5
 9307 0ddb 02        		.byte	0x2
 9308 0ddc 0000 0000 		.long	.LM399
 9309 0de0 15        		.byte	0x15
 9310 0de1 00        		.byte	0x0
 9311 0de2 05        		.uleb128 0x5
 9312 0de3 02        		.byte	0x2
 9313 0de4 0000 0000 		.long	.LM400
 9314 0de8 17        		.byte	0x17
 9315 0de9 00        		.byte	0x0
 9316 0dea 05        		.uleb128 0x5
 9317 0deb 02        		.byte	0x2
 9318 0dec 0000 0000 		.long	.LM401
 9319 0df0 15        		.byte	0x15
 9320 0df1 00        		.byte	0x0
 9321 0df2 05        		.uleb128 0x5
 9322 0df3 02        		.byte	0x2
 9323 0df4 0000 0000 		.long	.LM402
 9324 0df8 16        		.byte	0x16
 9325 0df9 00        		.byte	0x0
 9326 0dfa 05        		.uleb128 0x5
 9327 0dfb 02        		.byte	0x2
 9328 0dfc 0000 0000 		.long	.LM403
 9329 0e00 15        		.byte	0x15
 9330 0e01 00        		.byte	0x0
 9331 0e02 05        		.uleb128 0x5
 9332 0e03 02        		.byte	0x2
 9333 0e04 0000 0000 		.long	.LM404
 9334 0e08 16        		.byte	0x16
 9335 0e09 00        		.byte	0x0
 9336 0e0a 05        		.uleb128 0x5
 9337 0e0b 02        		.byte	0x2
 9338 0e0c 0000 0000 		.long	.LM405
 9339 0e10 15        		.byte	0x15
 9340 0e11 00        		.byte	0x0
 9341 0e12 05        		.uleb128 0x5
 9342 0e13 02        		.byte	0x2
 9343 0e14 0000 0000 		.long	.LM406
 9344 0e18 17        		.byte	0x17
 9345 0e19 00        		.byte	0x0
 9346 0e1a 05        		.uleb128 0x5
 9347 0e1b 02        		.byte	0x2
 9348 0e1c 0000 0000 		.long	.LM407
 9349 0e20 16        		.byte	0x16
 9350 0e21 00        		.byte	0x0
 9351 0e22 05        		.uleb128 0x5
 9352 0e23 02        		.byte	0x2
 9353 0e24 0000 0000 		.long	.LM408
 9354 0e28 17        		.byte	0x17
 9355 0e29 00        		.byte	0x0
 9356 0e2a 05        		.uleb128 0x5
 9357 0e2b 02        		.byte	0x2
 9358 0e2c 0000 0000 		.long	.LM409
 9359 0e30 15        		.byte	0x15
 9360 0e31 00        		.byte	0x0
 9361 0e32 05        		.uleb128 0x5
 9362 0e33 02        		.byte	0x2
GAS LISTING C:\Users\ADMINI~1\AppData\Local\Temp/ccZjgOiQ.s 			page 172


 9363 0e34 0000 0000 		.long	.LM410
 9364 0e38 15        		.byte	0x15
 9365 0e39 00        		.byte	0x0
 9366 0e3a 05        		.uleb128 0x5
 9367 0e3b 02        		.byte	0x2
 9368 0e3c 0000 0000 		.long	.LM411
 9369 0e40 03        		.byte	0x3
 9370 0e41 46        		.sleb128 -58
 9371 0e42 01        		.byte	0x1
 9372 0e43 00        		.byte	0x0
 9373 0e44 05        		.uleb128 0x5
 9374 0e45 02        		.byte	0x2
 9375 0e46 0000 0000 		.long	.LM412
 9376 0e4a 15        		.byte	0x15
 9377 0e4b 00        		.byte	0x0
 9378 0e4c 05        		.uleb128 0x5
 9379 0e4d 02        		.byte	0x2
 9380 0e4e 0000 0000 		.long	.LM413
 9381 0e52 15        		.byte	0x15
 9382 0e53 00        		.byte	0x0
 9383 0e54 05        		.uleb128 0x5
 9384 0e55 02        		.byte	0x2
 9385 0e56 0000 0000 		.long	.LM414
 9386 0e5a 15        		.byte	0x15
 9387 0e5b 00        		.byte	0x0
 9388 0e5c 05        		.uleb128 0x5
 9389 0e5d 02        		.byte	0x2
 9390 0e5e 0000 0000 		.long	.Letext0
 9391 0e62 00        		.byte	0x0
 9392 0e63 01        		.uleb128 0x1
 9393 0e64 01        		.byte	0x1
 9394               	.LELT0:
 9395 0e65 1600 0000 		.section	.debug_str,"MS",@progbits,1
 9395      0200 1000 
 9395      0000 0101 
 9395      FB0E 0A00 
 9395      0101 0101 
 9396               	.LASF181:
 9397 0000 5F5F 6164 		.string	"__addr16"
 9397      6472 3136 
 9397      00
 9398               	.LASF302:
 9399 0009 443A 5C64 		.string	"D:\\desktop\\keyboard\\firmware\\ps2avrU_goto_git\\.git\\source"
 9399      6573 6B74 
 9399      6F70 5C6B 
 9399      6579 626F 
 9399      6172 645C 
 9400               	.LASF203:
 9401 0043 7072 696E 		.string	"printStringFromFlash"
 9401      7453 7472 
 9401      696E 6746 
 9401      726F 6D46 
 9401      6C61 7368 
 9402               	.LASF251:
 9403 0058 5F63 7572 		.string	"_currentLayer"
 9403      7265 6E74 
 9403      4C61 7965 
GAS LISTING C:\Users\ADMINI~1\AppData\Local\Temp/ccZjgOiQ.s 			page 173


 9403      7200 
 9404               	.LASF95:
 9405 0066 4B45 595F 		.string	"KEY_SCRLCK"
 9405      5343 524C 
 9405      434B 00
 9406               	.LASF247:
 9407 0071 5F62 7566 		.string	"_buffer"
 9407      6665 7200 
 9408               	.LASF253:
 9409 0079 7573 696E 		.string	"usingKeys"
 9409      674B 6579 
 9409      7300 
 9410               	.LASF159:
 9411 0083 4B45 595F 		.string	"KEY_REC"
 9411      5245 4300 
 9412               	.LASF278:
 9413 008b 7374 725F 		.string	"str_cancel_mapping"
 9413      6361 6E63 
 9413      656C 5F6D 
 9413      6170 7069 
 9413      6E67 00
 9414               	.LASF213:
 9415 009e 7072 696E 		.string	"printMapperMessageAfter"
 9415      744D 6170 
 9415      7065 724D 
 9415      6573 7361 
 9415      6765 4166 
 9416               	.LASF282:
 9417 00b6 7374 725F 		.string	"str_save_layer"
 9417      7361 7665 
 9417      5F6C 6179 
 9417      6572 00
 9418               	.LASF267:
 9419 00c5 7374 725F 		.string	"str_mapper_message"
 9419      6D61 7070 
 9419      6572 5F6D 
 9419      6573 7361 
 9419      6765 00
 9420               	.LASF219:
 9421 00d8 7265 6164 		.string	"readMacro"
 9421      4D61 6372 
 9421      6F00 
 9422               	.LASF245:
 9423 00e2 5F63 6F6C 		.string	"_col"
 9423      00
 9424               	.LASF258:
 9425 00e7 7374 725F 		.string	"str_select_mode1"
 9425      7365 6C65 
 9425      6374 5F6D 
 9425      6F64 6531 
 9425      00
 9426               	.LASF259:
 9427 00f8 7374 725F 		.string	"str_select_mode2"
 9427      7365 6C65 
 9427      6374 5F6D 
 9427      6F64 6532 
 9427      00
GAS LISTING C:\Users\ADMINI~1\AppData\Local\Temp/ccZjgOiQ.s 			page 174


 9428               	.LASF132:
 9429 0109 4B45 595F 		.string	"KEY_RSHIFT"
 9429      5253 4849 
 9429      4654 00
 9430               	.LASF207:
 9431 0114 7361 7665 		.string	"saveCurrentLayer"
 9431      4375 7272 
 9431      656E 744C 
 9431      6179 6572 
 9431      00
 9432               	.LASF165:
 9433 0125 4B45 595F 		.string	"KEY_HANJA"
 9433      4841 4E4A 
 9433      4100 
 9434               	.LASF227:
 9435 012f 7072 6570 		.string	"prepareKeyMapper"
 9435      6172 654B 
 9435      6579 4D61 
 9435      7070 6572 
 9435      00
 9436               	.LASF145:
 9437 0140 4B45 595F 		.string	"KEY_WWW_STOP"
 9437      5757 575F 
 9437      5354 4F50 
 9437      00
 9438               	.LASF117:
 9439 014d 4B45 595F 		.string	"KEY_KP_5"
 9439      4B50 5F35 
 9439      00
 9440               	.LASF158:
 9441 0156 4B45 595F 		.string	"KEY_SCREENSAVE"
 9441      5343 5245 
 9441      454E 5341 
 9441      5645 00
 9442               	.LASF151:
 9443 0165 4B45 595F 		.string	"KEY_PLAY"
 9443      504C 4159 
 9443      00
 9444               	.LASF8:
 9445 016e 756E 7369 		.string	"unsigned int"
 9445      676E 6564 
 9445      2069 6E74 
 9445      00
 9446               	.LASF161:
 9447 017b 4B45 595F 		.string	"KEY_MINIMIZE"
 9447      4D49 4E49 
 9447      4D49 5A45 
 9447      00
 9448               	.LASF133:
 9449 0188 4B45 595F 		.string	"KEY_RALT"
 9449      5241 4C54 
 9449      00
 9450               	.LASF275:
 9451 0191 7374 725F 		.string	"str_choose_key"
 9451      6368 6F6F 
 9451      7365 5F6B 
 9451      6579 00
GAS LISTING C:\Users\ADMINI~1\AppData\Local\Temp/ccZjgOiQ.s 			page 175


 9452               	.LASF160:
 9453 01a0 4B45 595F 		.string	"KEY_REWIND"
 9453      5245 5749 
 9453      4E44 00
 9454               	.LASF107:
 9455 01ab 4B45 595F 		.string	"KEY_NUMLOCK"
 9455      4E55 4D4C 
 9455      4F43 4B00 
 9456               	.LASF238:
 9457 01b7 656E 6162 		.string	"enabledKeyMappingCount"
 9457      6C65 644B 
 9457      6579 4D61 
 9457      7070 696E 
 9457      6743 6F75 
 9458               	.LASF224:
 9459 01ce 674C 6179 		.string	"gLayer"
 9459      6572 00
 9460               	.LASF193:
 9461 01d5 7374 6F70 		.string	"stopKeyMapping"
 9461      4B65 794D 
 9461      6170 7069 
 9461      6E67 00
 9462               	.LASF279:
 9463 01e4 7374 725F 		.string	"str_reset_mapping"
 9463      7265 7365 
 9463      745F 6D61 
 9463      7070 696E 
 9463      6700 
 9464               	.LASF256:
 9465 01f6 6B65 796D 		.string	"keymap_code"
 9465      6170 5F63 
 9465      6F64 6500 
 9466               	.LASF149:
 9467 0202 4B45 595F 		.string	"KEY_PREV_TRK"
 9467      5052 4556 
 9467      5F54 524B 
 9467      00
 9468               	.LASF235:
 9469 020f 656E 7465 		.string	"enterFrameForMapper"
 9469      7246 7261 
 9469      6D65 466F 
 9469      724D 6170 
 9469      7065 7200 
 9470               	.LASF157:
 9471 0223 4B45 595F 		.string	"KEY_MYCOM"
 9471      4D59 434F 
 9471      4D00 
 9472               	.LASF134:
 9473 022d 4B45 595F 		.string	"KEY_RGUI"
 9473      5247 5549 
 9473      00
 9474               	.LASF79:
 9475 0236 4B45 595F 		.string	"KEY_DOT"
 9475      444F 5400 
 9476               	.LASF168:
 9477 023e 6D6F 6465 		.string	"mode"
 9477      00
GAS LISTING C:\Users\ADMINI~1\AppData\Local\Temp/ccZjgOiQ.s 			page 176


 9478               	.LASF136:
 9479 0243 4B45 595F 		.string	"KEY_Multimedia"
 9479      4D75 6C74 
 9479      696D 6564 
 9479      6961 00
 9480               	.LASF274:
 9481 0252 7374 725F 		.string	"str_choose_layer"
 9481      6368 6F6F 
 9481      7365 5F6C 
 9481      6179 6572 
 9481      00
 9482               	.LASF170:
 9483 0263 5F5F 636F 		.string	"__count"
 9483      756E 7400 
 9484               	.LASF243:
 9485 026b 5F73 7465 		.string	"_stepAfterSave"
 9485      7041 6674 
 9485      6572 5361 
 9485      7665 00
 9486               	.LASF184:
 9487 027a 6765 744D 		.string	"getMappingKeyCode"
 9487      6170 7069 
 9487      6E67 4B65 
 9487      7943 6F64 
 9487      6500 
 9488               	.LASF296:
 9489 028c 5F70 7265 		.string	"_pressedEscapeKeyCount"
 9489      7373 6564 
 9489      4573 6361 
 9489      7065 4B65 
 9489      7943 6F75 
 9490               	.LASF171:
 9491 02a3 784B 6579 		.string	"xKeyCode"
 9491      436F 6465 
 9491      00
 9492               	.LASF237:
 9493 02ac 5F69 734B 		.string	"_isKeyMapping"
 9493      6579 4D61 
 9493      7070 696E 
 9493      6700 
 9494               	.LASF155:
 9495 02ba 4B45 595F 		.string	"KEY_MEDIA"
 9495      4D45 4449 
 9495      4100 
 9496               	.LASF135:
 9497 02c4 4B45 595F 		.string	"KEY_Modifiers_end"
 9497      4D6F 6469 
 9497      6669 6572 
 9497      735F 656E 
 9497      6400 
 9498               	.LASF214:
 9499 02d6 636C 6561 		.string	"clearMacroAfter"
 9499      724D 6163 
 9499      726F 4166 
 9499      7465 7200 
 9500               	.LASF216:
 9501 02e6 7361 7665 		.string	"saveMacro"
GAS LISTING C:\Users\ADMINI~1\AppData\Local\Temp/ccZjgOiQ.s 			page 177


 9501      4D61 6372 
 9501      6F00 
 9502               	.LASF292:
 9503 02f0 5F6D 6163 		.string	"_macroIndex"
 9503      726F 496E 
 9503      6465 7800 
 9504               	.LASF122:
 9505 02fc 4B45 595F 		.string	"KEY_KP_0"
 9505      4B50 5F30 
 9505      00
 9506               	.LASF113:
 9507 0305 4B45 595F 		.string	"KEY_KP_1"
 9507      4B50 5F31 
 9507      00
 9508               	.LASF114:
 9509 030e 4B45 595F 		.string	"KEY_KP_2"
 9509      4B50 5F32 
 9509      00
 9510               	.LASF48:
 9511 0317 4B45 595F 		.string	"KEY_U"
 9511      5500 
 9512               	.LASF116:
 9513 031d 4B45 595F 		.string	"KEY_KP_4"
 9513      4B50 5F34 
 9513      00
 9514               	.LASF63:
 9515 0326 4B45 595F 		.string	"KEY_0"
 9515      3000 
 9516               	.LASF54:
 9517 032c 4B45 595F 		.string	"KEY_1"
 9517      3100 
 9518               	.LASF55:
 9519 0332 4B45 595F 		.string	"KEY_2"
 9519      3200 
 9520               	.LASF56:
 9521 0338 4B45 595F 		.string	"KEY_3"
 9521      3300 
 9522               	.LASF57:
 9523 033e 4B45 595F 		.string	"KEY_4"
 9523      3400 
 9524               	.LASF58:
 9525 0344 4B45 595F 		.string	"KEY_5"
 9525      3500 
 9526               	.LASF59:
 9527 034a 4B45 595F 		.string	"KEY_6"
 9527      3600 
 9528               	.LASF60:
 9529 0350 4B45 595F 		.string	"KEY_7"
 9529      3700 
 9530               	.LASF61:
 9531 0356 4B45 595F 		.string	"KEY_8"
 9531      3800 
 9532               	.LASF62:
 9533 035c 4B45 595F 		.string	"KEY_9"
 9533      3900 
 9534               	.LASF234:
 9535 0362 636F 756E 		.string	"countKeyMappingEnabled"
GAS LISTING C:\Users\ADMINI~1\AppData\Local\Temp/ccZjgOiQ.s 			page 178


 9535      744B 6579 
 9535      4D61 7070 
 9535      696E 6745 
 9535      6E61 626C 
 9536               	.LASF283:
 9537 0379 7374 725F 		.string	"str_load_layer"
 9537      6C6F 6164 
 9537      5F6C 6179 
 9537      6572 00
 9538               	.LASF28:
 9539 0388 4B45 595F 		.string	"KEY_A"
 9539      4100 
 9540               	.LASF29:
 9541 038e 4B45 595F 		.string	"KEY_B"
 9541      4200 
 9542               	.LASF30:
 9543 0394 4B45 595F 		.string	"KEY_C"
 9543      4300 
 9544               	.LASF31:
 9545 039a 4B45 595F 		.string	"KEY_D"
 9545      4400 
 9546               	.LASF32:
 9547 03a0 4B45 595F 		.string	"KEY_E"
 9547      4500 
 9548               	.LASF33:
 9549 03a6 4B45 595F 		.string	"KEY_F"
 9549      4600 
 9550               	.LASF34:
 9551 03ac 4B45 595F 		.string	"KEY_G"
 9551      4700 
 9552               	.LASF35:
 9553 03b2 4B45 595F 		.string	"KEY_H"
 9553      4800 
 9554               	.LASF36:
 9555 03b8 4B45 595F 		.string	"KEY_I"
 9555      4900 
 9556               	.LASF37:
 9557 03be 4B45 595F 		.string	"KEY_J"
 9557      4A00 
 9558               	.LASF38:
 9559 03c4 4B45 595F 		.string	"KEY_K"
 9559      4B00 
 9560               	.LASF39:
 9561 03ca 4B45 595F 		.string	"KEY_L"
 9561      4C00 
 9562               	.LASF40:
 9563 03d0 4B45 595F 		.string	"KEY_M"
 9563      4D00 
 9564               	.LASF41:
 9565 03d6 4B45 595F 		.string	"KEY_N"
 9565      4E00 
 9566               	.LASF42:
 9567 03dc 4B45 595F 		.string	"KEY_O"
 9567      4F00 
 9568               	.LASF43:
 9569 03e2 4B45 595F 		.string	"KEY_P"
 9569      5000 
GAS LISTING C:\Users\ADMINI~1\AppData\Local\Temp/ccZjgOiQ.s 			page 179


 9570               	.LASF44:
 9571 03e8 4B45 595F 		.string	"KEY_Q"
 9571      5100 
 9572               	.LASF45:
 9573 03ee 4B45 595F 		.string	"KEY_R"
 9573      5200 
 9574               	.LASF46:
 9575 03f4 4B45 595F 		.string	"KEY_S"
 9575      5300 
 9576               	.LASF47:
 9577 03fa 4B45 595F 		.string	"KEY_T"
 9577      5400 
 9578               	.LASF6:
 9579 0400 6C6F 6E67 		.string	"long long unsigned int"
 9579      206C 6F6E 
 9579      6720 756E 
 9579      7369 676E 
 9579      6564 2069 
 9580               	.LASF49:
 9581 0417 4B45 595F 		.string	"KEY_V"
 9581      5600 
 9582               	.LASF50:
 9583 041d 4B45 595F 		.string	"KEY_W"
 9583      5700 
 9584               	.LASF51:
 9585 0423 4B45 595F 		.string	"KEY_X"
 9585      5800 
 9586               	.LASF52:
 9587 0429 4B45 595F 		.string	"KEY_Y"
 9587      5900 
 9588               	.LASF53:
 9589 042f 4B45 595F 		.string	"KEY_Z"
 9589      5A00 
 9590               	.LASF68:
 9591 0435 4B45 595F 		.string	"KEY_SPACE"
 9591      5350 4143 
 9591      4500 
 9592               	.LASF277:
 9593 043f 7374 725F 		.string	"str_save_end_mapping"
 9593      7361 7665 
 9593      5F65 6E64 
 9593      5F6D 6170 
 9593      7069 6E67 
 9594               	.LASF268:
 9595 0454 7374 725F 		.string	"str_mapper_1"
 9595      6D61 7070 
 9595      6572 5F31 
 9595      00
 9596               	.LASF271:
 9597 0461 7374 725F 		.string	"str_mapper_4"
 9597      6D61 7070 
 9597      6572 5F34 
 9597      00
 9598               	.LASF126:
 9599 046e 4B45 595F 		.string	"KEY_Modifiers"
 9599      4D6F 6469 
 9599      6669 6572 
GAS LISTING C:\Users\ADMINI~1\AppData\Local\Temp/ccZjgOiQ.s 			page 180


 9599      7300 
 9600               	.LASF66:
 9601 047c 4B45 595F 		.string	"KEY_BKSP"
 9601      424B 5350 
 9601      00
 9602               	.LASF105:
 9603 0485 4B45 595F 		.string	"KEY_DOWN"
 9603      444F 574E 
 9603      00
 9604               	.LASF162:
 9605 048e 4B45 595F 		.string	"KEY_EJECT"
 9605      454A 4543 
 9605      5400 
 9606               	.LASF192:
 9607 0498 7374 6172 		.string	"startKeyMappingDeep"
 9607      744B 6579 
 9607      4D61 7070 
 9607      696E 6744 
 9607      6565 7000 
 9608               	.LASF21:
 9609 04ac 4B45 595F 		.string	"KEY_MAC10"
 9609      4D41 4331 
 9609      3000 
 9610               	.LASF22:
 9611 04b6 4B45 595F 		.string	"KEY_MAC11"
 9611      4D41 4331 
 9611      3100 
 9612               	.LASF23:
 9613 04c0 4B45 595F 		.string	"KEY_MAC12"
 9613      4D41 4331 
 9613      3200 
 9614               	.LASF103:
 9615 04ca 4B45 595F 		.string	"KEY_RIGHT"
 9615      5249 4748 
 9615      5400 
 9616               	.LASF166:
 9617 04d4 4B45 595F 		.string	"KEY_HANGLE"
 9617      4841 4E47 
 9617      4C45 00
 9618               	.LASF215:
 9619 04df 6741 6464 		.string	"gAddress"
 9619      7265 7373 
 9619      00
 9620               	.LASF178:
 9621 04e8 784C 6179 		.string	"xLayer"
 9621      6572 00
 9622               	.LASF174:
 9623 04ef 5F5F 6D73 		.string	"__ms"
 9623      00
 9624               	.LASF27:
 9625 04f4 4B45 595F 		.string	"KEY_ErrorUndefined"
 9625      4572 726F 
 9625      7255 6E64 
 9625      6566 696E 
 9625      6564 00
 9626               	.LASF148:
 9627 0507 4B45 595F 		.string	"KEY_NEXT_TRK"
GAS LISTING C:\Users\ADMINI~1\AppData\Local\Temp/ccZjgOiQ.s 			page 181


 9627      4E45 5854 
 9627      5F54 524B 
 9627      00
 9628               	.LASF198:
 9629 0514 7853 7472 		.string	"xStr"
 9629      00
 9630               	.LASF294:
 9631 0519 5F6D 6163 		.string	"_macroPressedBuffer"
 9631      726F 5072 
 9631      6573 7365 
 9631      6442 7566 
 9631      6665 7200 
 9632               	.LASF111:
 9633 052d 4B45 595F 		.string	"KEY_KP_PLUS"
 9633      4B50 5F50 
 9633      4C55 5300 
 9634               	.LASF221:
 9635 0539 6C6F 6164 		.string	"loadCurrentLayer"
 9635      4375 7272 
 9635      656E 744C 
 9635      6179 6572 
 9635      00
 9636               	.LASF220:
 9637 054a 784D 6163 		.string	"xMacroIndex"
 9637      726F 496E 
 9637      6465 7800 
 9638               	.LASF223:
 9639 0556 7849 7344 		.string	"xIsDown"
 9639      6F77 6E00 
 9640               	.LASF183:
 9641 055e 6765 7444 		.string	"getDefaultKeyCode"
 9641      6566 6175 
 9641      6C74 4B65 
 9641      7943 6F64 
 9641      6500 
 9642               	.LASF222:
 9643 0570 7075 744B 		.string	"putKeyCode"
 9643      6579 436F 
 9643      6465 00
 9644               	.LASF150:
 9645 057b 4B45 595F 		.string	"KEY_STOP"
 9645      5354 4F50 
 9645      00
 9646               	.LASF248:
 9647 0584 5F62 7566 		.string	"_bufferIndex"
 9647      6665 7249 
 9647      6E64 6578 
 9647      00
 9648               	.LASF244:
 9649 0591 5F77 6169 		.string	"_wait"
 9649      7400 
 9650               	.LASF233:
 9651 0597 7072 6570 		.string	"prepareKeyMapping"
 9651      6172 654B 
 9651      6579 4D61 
 9651      7070 696E 
 9651      6700 
GAS LISTING C:\Users\ADMINI~1\AppData\Local\Temp/ccZjgOiQ.s 			page 182


 9652               	.LASF304:
 9653 05a9 7072 696E 		.string	"printEnter"
 9653      7445 6E74 
 9653      6572 00
 9654               	.LASF299:
 9655 05b4 5F6E 6577 		.string	"_newKeyMap"
 9655      4B65 794D 
 9655      6170 00
 9656               	.LASF156:
 9657 05bf 4B45 595F 		.string	"KEY_CALC"
 9657      4341 4C43 
 9657      00
 9658               	.LASF9:
 9659 05c8 6368 6172 		.string	"char"
 9659      00
 9660               	.LASF75:
 9661 05cd 4B45 595F 		.string	"KEY_COLON"
 9661      434F 4C4F 
 9661      4E00 
 9662               	.LASF241:
 9663 05d7 5F6D 6F64 		.string	"_mode"
 9663      6500 
 9664               	.LASF128:
 9665 05dd 4B45 595F 		.string	"KEY_LSHIFT"
 9665      4C53 4849 
 9665      4654 00
 9666               	.LASF147:
 9667 05e8 4B45 595F 		.string	"KEY_WWW_FAVORITE"
 9667      5757 575F 
 9667      4641 564F 
 9667      5249 5445 
 9667      00
 9668               	.LASF289:
 9669 05f9 7374 725F 		.string	"str_input_macro"
 9669      696E 7075 
 9669      745F 6D61 
 9669      6372 6F00 
 9670               	.LASF257:
 9671 0609 7374 725F 		.string	"str_select_mode"
 9671      7365 6C65 
 9671      6374 5F6D 
 9671      6F64 6500 
 9672               	.LASF142:
 9673 0619 4B45 595F 		.string	"KEY_WWW_HOME"
 9673      5757 575F 
 9673      484F 4D45 
 9673      00
 9674               	.LASF202:
 9675 0626 6743 6861 		.string	"gChar"
 9675      7200 
 9676               	.LASF24:
 9677 062c 4B45 595F 		.string	"KEY_NONE"
 9677      4E4F 4E45 
 9677      00
 9678               	.LASF231:
 9679 0635 674D 6163 		.string	"gMacroIndex"
 9679      726F 496E 
GAS LISTING C:\Users\ADMINI~1\AppData\Local\Temp/ccZjgOiQ.s 			page 183


 9679      6465 7800 
 9680               	.LASF94:
 9681 0641 4B45 595F 		.string	"KEY_PRNSCR"
 9681      5052 4E53 
 9681      4352 00
 9682               	.LASF287:
 9683 064c 7374 725F 		.string	"str_select_number"
 9683      7365 6C65 
 9683      6374 5F6E 
 9683      756D 6265 
 9683      7200 
 9684               	.LASF280:
 9685 065e 7374 725F 		.string	"str_input_command"
 9685      696E 7075 
 9685      745F 636F 
 9685      6D6D 616E 
 9685      6400 
 9686               	.LASF101:
 9687 0670 4B45 595F 		.string	"KEY_END"
 9687      454E 4400 
 9688               	.LASF10:
 9689 0678 7569 6E74 		.string	"uint8_t"
 9689      385F 7400 
 9690               	.LASF154:
 9691 0680 4B45 595F 		.string	"KEY_VOL_DOWN"
 9691      564F 4C5F 
 9691      444F 574E 
 9691      00
 9692               	.LASF71:
 9693 068d 4B45 595F 		.string	"KEY_LBR"
 9693      4C42 5200 
 9694               	.LASF204:
 9695 0695 6170 706C 		.string	"applyKeyMapping"
 9695      794B 6579 
 9695      4D61 7070 
 9695      696E 6700 
 9696               	.LASF100:
 9697 06a5 4B45 595F 		.string	"KEY_DEL"
 9697      4445 4C00 
 9698               	.LASF266:
 9699 06ad 7374 725F 		.string	"str_back_6"
 9699      6261 636B 
 9699      5F36 00
 9700               	.LASF205:
 9701 06b8 7265 7365 		.string	"resetCurrentLayer"
 9701      7443 7572 
 9701      7265 6E74 
 9701      4C61 7965 
 9701      7200 
 9702               	.LASF125:
 9703 06ca 4B45 595F 		.string	"KEY_APPS"
 9703      4150 5053 
 9703      00
 9704               	.LASF175:
 9705 06d3 5F5F 7469 		.string	"__ticks"
 9705      636B 7300 
 9706               	.LASF210:
GAS LISTING C:\Users\ADMINI~1\AppData\Local\Temp/ccZjgOiQ.s 			page 184


 9707 06db 7072 696E 		.string	"printPrompt"
 9707      7450 726F 
 9707      6D70 7400 
 9708               	.LASF115:
 9709 06e7 4B45 595F 		.string	"KEY_KP_3"
 9709      4B50 5F33 
 9709      00
 9710               	.LASF262:
 9711 06f0 7374 725F 		.string	"str_macro_message"
 9711      6D61 6372 
 9711      6F5F 6D65 
 9711      7373 6167 
 9711      6500 
 9712               	.LASF7:
 9713 0702 6C6F 6E67 		.string	"long long int"
 9713      206C 6F6E 
 9713      6720 696E 
 9713      7400 
 9714               	.LASF118:
 9715 0710 4B45 595F 		.string	"KEY_KP_6"
 9715      4B50 5F36 
 9715      00
 9716               	.LASF119:
 9717 0719 4B45 595F 		.string	"KEY_KP_7"
 9717      4B50 5F37 
 9717      00
 9718               	.LASF120:
 9719 0722 4B45 595F 		.string	"KEY_KP_8"
 9719      4B50 5F38 
 9719      00
 9720               	.LASF121:
 9721 072b 4B45 595F 		.string	"KEY_KP_9"
 9721      4B50 5F39 
 9721      00
 9722               	.LASF76:
 9723 0734 4B45 595F 		.string	"KEY_QUOTE"
 9723      5155 4F54 
 9723      4500 
 9724               	.LASF186:
 9725 073e 6749 6478 		.string	"gIdx"
 9725      00
 9726               	.LASF229:
 9727 0743 6170 706C 		.string	"applyMacro"
 9727      794D 6163 
 9727      726F 00
 9728               	.LASF70:
 9729 074e 4B45 595F 		.string	"KEY_EQUAL"
 9729      4551 5541 
 9729      4C00 
 9730               	.LASF250:
 9731 0758 5F69 7357 		.string	"_isWorkingForEmpty"
 9731      6F72 6B69 
 9731      6E67 466F 
 9731      7245 6D70 
 9731      7479 00
 9732               	.LASF226:
 9733 076b 7361 7665 		.string	"saveCurrentLayerAfter"
GAS LISTING C:\Users\ADMINI~1\AppData\Local\Temp/ccZjgOiQ.s 			page 185


 9733      4375 7272 
 9733      656E 744C 
 9733      6179 6572 
 9733      4166 7465 
 9734               	.LASF206:
 9735 0781 636C 6561 		.string	"clearMacro"
 9735      724D 6163 
 9735      726F 00
 9736               	.LASF209:
 9737 078c 7072 696E 		.string	"printMacroMessage"
 9737      744D 6163 
 9737      726F 4D65 
 9737      7373 6167 
 9737      6500 
 9738               	.LASF67:
 9739 079e 4B45 595F 		.string	"KEY_TAB"
 9739      5441 4200 
 9740               	.LASF291:
 9741 07a6 7374 725F 		.string	"str_clear_all_macro"
 9741      636C 6561 
 9741      725F 616C 
 9741      6C5F 6D61 
 9741      6372 6F00 
 9742               	.LASF298:
 9743 07ba 5F69 7354 		.string	"_isTiredEscapeKey"
 9743      6972 6564 
 9743      4573 6361 
 9743      7065 4B65 
 9743      7900 
 9744               	.LASF12:
 9745 07cc 4B45 595F 		.string	"KEY_MAC1"
 9745      4D41 4331 
 9745      00
 9746               	.LASF13:
 9747 07d5 4B45 595F 		.string	"KEY_MAC2"
 9747      4D41 4332 
 9747      00
 9748               	.LASF14:
 9749 07de 4B45 595F 		.string	"KEY_MAC3"
 9749      4D41 4333 
 9749      00
 9750               	.LASF15:
 9751 07e7 4B45 595F 		.string	"KEY_MAC4"
 9751      4D41 4334 
 9751      00
 9752               	.LASF16:
 9753 07f0 4B45 595F 		.string	"KEY_MAC5"
 9753      4D41 4335 
 9753      00
 9754               	.LASF17:
 9755 07f9 4B45 595F 		.string	"KEY_MAC6"
 9755      4D41 4336 
 9755      00
 9756               	.LASF18:
 9757 0802 4B45 595F 		.string	"KEY_MAC7"
 9757      4D41 4337 
 9757      00
GAS LISTING C:\Users\ADMINI~1\AppData\Local\Temp/ccZjgOiQ.s 			page 186


 9758               	.LASF19:
 9759 080b 4B45 595F 		.string	"KEY_MAC8"
 9759      4D41 4338 
 9759      00
 9760               	.LASF20:
 9761 0814 4B45 595F 		.string	"KEY_MAC9"
 9761      4D41 4339 
 9761      00
 9762               	.LASF108:
 9763 081d 4B45 595F 		.string	"KEY_KP_SLASH"
 9763      4B50 5F53 
 9763      4C41 5348 
 9763      00
 9764               	.LASF82:
 9765 082a 4B45 595F 		.string	"KEY_F1"
 9765      4631 00
 9766               	.LASF83:
 9767 0831 4B45 595F 		.string	"KEY_F2"
 9767      4632 00
 9768               	.LASF84:
 9769 0838 4B45 595F 		.string	"KEY_F3"
 9769      4633 00
 9770               	.LASF85:
 9771 083f 4B45 595F 		.string	"KEY_F4"
 9771      4634 00
 9772               	.LASF86:
 9773 0846 4B45 595F 		.string	"KEY_F5"
 9773      4635 00
 9774               	.LASF87:
 9775 084d 4B45 595F 		.string	"KEY_F6"
 9775      4636 00
 9776               	.LASF88:
 9777 0854 4B45 595F 		.string	"KEY_F7"
 9777      4637 00
 9778               	.LASF89:
 9779 085b 4B45 595F 		.string	"KEY_F8"
 9779      4638 00
 9780               	.LASF90:
 9781 0862 4B45 595F 		.string	"KEY_F9"
 9781      4639 00
 9782               	.LASF137:
 9783 0869 4B45 595F 		.string	"KEY_POWER"
 9783      504F 5745 
 9783      5200 
 9784               	.LASF173:
 9785 0873 5F64 656C 		.string	"_delay_ms"
 9785      6179 5F6D 
 9785      7300 
 9786               	.LASF167:
 9787 087d 4B45 595F 		.string	"KEY_extend_end"
 9787      6578 7465 
 9787      6E64 5F65 
 9787      6E64 00
 9788               	.LASF106:
 9789 088c 4B45 595F 		.string	"KEY_UP"
 9789      5550 00
 9790               	.LASF295:
GAS LISTING C:\Users\ADMINI~1\AppData\Local\Temp/ccZjgOiQ.s 			page 187


 9791 0893 5F6D 6163 		.string	"_macroInputBuffer"
 9791      726F 496E 
 9791      7075 7442 
 9791      7566 6665 
 9791      7200 
 9792               	.LASF197:
 9793 08a5 784D 6F64 		.string	"xModi"
 9793      6900 
 9794               	.LASF199:
 9795 08ab 7075 7368 		.string	"pushCharacter"
 9795      4368 6172 
 9795      6163 7465 
 9795      7200 
 9796               	.LASF211:
 9797 08b9 6753 7472 		.string	"gStr"
 9797      00
 9798               	.LASF260:
 9799 08be 7374 725F 		.string	"str_select_mode3"
 9799      7365 6C65 
 9799      6374 5F6D 
 9799      6F64 6533 
 9799      00
 9800               	.LASF179:
 9801 08cf 7852 6F77 		.string	"xRow"
 9801      00
 9802               	.LASF129:
 9803 08d4 4B45 595F 		.string	"KEY_LALT"
 9803      4C41 4C54 
 9803      00
 9804               	.LASF300:
 9805 08dd 474E 5520 		.string	"GNU C 4.3.3"
 9805      4320 342E 
 9805      332E 3300 
 9806               	.LASF96:
 9807 08e9 4B45 595F 		.string	"KEY_PAUSE"
 9807      5041 5553 
 9807      4500 
 9808               	.LASF11:
 9809 08f3 7569 6E74 		.string	"uint16_t"
 9809      3136 5F74 
 9809      00
 9810               	.LASF236:
 9811 08fc 7374 6172 		.string	"startKeyMappingOnBoot"
 9811      744B 6579 
 9811      4D61 7070 
 9811      696E 674F 
 9811      6E42 6F6F 
 9812               	.LASF163:
 9813 0912 4B45 595F 		.string	"KEY_Multimedia_end"
 9813      4D75 6C74 
 9813      696D 6564 
 9813      6961 5F65 
 9813      6E64 00
 9814               	.LASF152:
 9815 0925 4B45 595F 		.string	"KEY_MUTE"
 9815      4D55 5445 
 9815      00
GAS LISTING C:\Users\ADMINI~1\AppData\Local\Temp/ccZjgOiQ.s 			page 188


 9816               	.LASF212:
 9817 092e 7072 696E 		.string	"printSelectMode"
 9817      7453 656C 
 9817      6563 744D 
 9817      6F64 6500 
 9818               	.LASF110:
 9819 093e 4B45 595F 		.string	"KEY_KP_MINUS"
 9819      4B50 5F4D 
 9819      494E 5553 
 9819      00
 9820               	.LASF182:
 9821 094b 5F5F 7265 		.string	"__result"
 9821      7375 6C74 
 9821      00
 9822               	.LASF208:
 9823 0954 7072 696E 		.string	"printPrepareString"
 9823      7450 7265 
 9823      7061 7265 
 9823      5374 7269 
 9823      6E67 00
 9824               	.LASF180:
 9825 0967 7843 6F6C 		.string	"xCol"
 9825      00
 9826               	.LASF69:
 9827 096c 4B45 595F 		.string	"KEY_MINUS"
 9827      4D49 4E55 
 9827      5300 
 9828               	.LASF172:
 9829 0976 5F64 656C 		.string	"_delay_loop_2"
 9829      6179 5F6C 
 9829      6F6F 705F 
 9829      3200 
 9830               	.LASF64:
 9831 0984 4B45 595F 		.string	"KEY_ENTER"
 9831      454E 5445 
 9831      5200 
 9832               	.LASF281:
 9833 098e 7374 725F 		.string	"str_nothing"
 9833      6E6F 7468 
 9833      696E 6700 
 9834               	.LASF78:
 9835 099a 4B45 595F 		.string	"KEY_COMMA"
 9835      434F 4D4D 
 9835      4100 
 9836               	.LASF240:
 9837 09a4 5F6B 6579 		.string	"_keyMappingOnBoot"
 9837      4D61 7070 
 9837      696E 674F 
 9837      6E42 6F6F 
 9837      7400 
 9838               	.LASF3:
 9839 09b6 7368 6F72 		.string	"short int"
 9839      7420 696E 
 9839      7400 
 9840               	.LASF5:
 9841 09c0 6C6F 6E67 		.string	"long int"
 9841      2069 6E74 
GAS LISTING C:\Users\ADMINI~1\AppData\Local\Temp/ccZjgOiQ.s 			page 189


 9841      00
 9842               	.LASF81:
 9843 09c9 4B45 595F 		.string	"KEY_CAPS"
 9843      4341 5053 
 9843      00
 9844               	.LASF249:
 9845 09d2 5F65 6469 		.string	"_editCount"
 9845      7443 6F75 
 9845      6E74 00
 9846               	.LASF261:
 9847 09dd 7374 725F 		.string	"str_exit"
 9847      6578 6974 
 9847      00
 9848               	.LASF200:
 9849 09e6 7072 696E 		.string	"printString"
 9849      7453 7472 
 9849      696E 6700 
 9850               	.LASF297:
 9851 09f2 5F69 7350 		.string	"_isPressedEscapeKey"
 9851      7265 7373 
 9851      6564 4573 
 9851      6361 7065 
 9851      4B65 7900 
 9852               	.LASF112:
 9853 0a06 4B45 595F 		.string	"KEY_KP_ENTER"
 9853      4B50 5F45 
 9853      4E54 4552 
 9853      00
 9854               	.LASF288:
 9855 0a13 7374 725F 		.string	"str_exit_macro"
 9855      6578 6974 
 9855      5F6D 6163 
 9855      726F 00
 9856               	.LASF123:
 9857 0a22 4B45 595F 		.string	"KEY_KP_DOT"
 9857      4B50 5F44 
 9857      4F54 00
 9858               	.LASF195:
 9859 0a2d 7265 6164 		.string	"readyKeyMappingOnBoot"
 9859      794B 6579 
 9859      4D61 7070 
 9859      696E 674F 
 9859      6E42 6F6F 
 9860               	.LASF127:
 9861 0a43 4B45 595F 		.string	"KEY_LCTRL"
 9861      4C43 5452 
 9861      4C00 
 9862               	.LASF263:
 9863 0a4d 7374 725F 		.string	"str_macro_1"
 9863      6D61 6372 
 9863      6F5F 3100 
 9864               	.LASF264:
 9865 0a59 7374 725F 		.string	"str_macro_2"
 9865      6D61 6372 
 9865      6F5F 3200 
 9866               	.LASF196:
 9867 0a65 7265 7365 		.string	"resetMacroInput"
GAS LISTING C:\Users\ADMINI~1\AppData\Local\Temp/ccZjgOiQ.s 			page 190


 9867      744D 6163 
 9867      726F 496E 
 9867      7075 7400 
 9868               	.LASF230:
 9869 0a75 784B 6579 		.string	"xKeyidx"
 9869      6964 7800 
 9870               	.LASF130:
 9871 0a7d 4B45 595F 		.string	"KEY_LGUI"
 9871      4C47 5549 
 9871      00
 9872               	.LASF265:
 9873 0a86 7374 725F 		.string	"str_macro_9"
 9873      6D61 6372 
 9873      6F5F 3900 
 9874               	.LASF232:
 9875 0a92 7374 6172 		.string	"startKeyMapping"
 9875      744B 6579 
 9875      4D61 7070 
 9875      696E 6700 
 9876               	.LASF25:
 9877 0aa2 4B45 595F 		.string	"KEY_ErrorRollOver"
 9877      4572 726F 
 9877      7252 6F6C 
 9877      6C4F 7665 
 9877      7200 
 9878               	.LASF73:
 9879 0ab4 4B45 595F 		.string	"KEY_BKSLASH"
 9879      424B 534C 
 9879      4153 4800 
 9880               	.LASF77:
 9881 0ac0 4B45 595F 		.string	"KEY_HASH"
 9881      4841 5348 
 9881      00
 9882               	.LASF164:
 9883 0ac9 4B45 595F 		.string	"KEY_extend"
 9883      6578 7465 
 9883      6E64 00
 9884               	.LASF228:
 9885 0ad4 6765 7443 		.string	"getCurrentKeycode"
 9885      7572 7265 
 9885      6E74 4B65 
 9885      7963 6F64 
 9885      6500 
 9886               	.LASF102:
 9887 0ae6 4B45 595F 		.string	"KEY_PGDN"
 9887      5047 444E 
 9887      00
 9888               	.LASF65:
 9889 0aef 4B45 595F 		.string	"KEY_ESC"
 9889      4553 4300 
 9890               	.LASF4:
 9891 0af7 6C6F 6E67 		.string	"long unsigned int"
 9891      2075 6E73 
 9891      6967 6E65 
 9891      6420 696E 
 9891      7400 
 9892               	.LASF140:
GAS LISTING C:\Users\ADMINI~1\AppData\Local\Temp/ccZjgOiQ.s 			page 191


 9893 0b09 4B45 595F 		.string	"KEY_EMAIL"
 9893      454D 4149 
 9893      4C00 
 9894               	.LASF104:
 9895 0b13 4B45 595F 		.string	"KEY_LEFT"
 9895      4C45 4654 
 9895      00
 9896               	.LASF252:
 9897 0b1c 5F63 7572 		.string	"_currentLayerAfter"
 9897      7265 6E74 
 9897      4C61 7965 
 9897      7241 6674 
 9897      6572 00
 9898               	.LASF285:
 9899 0b2f 7374 725F 		.string	"str_col_row"
 9899      636F 6C5F 
 9899      726F 7700 
 9900               	.LASF293:
 9901 0b3b 5F6D 6163 		.string	"_macroBufferIndex"
 9901      726F 4275 
 9901      6666 6572 
 9901      496E 6465 
 9901      7800 
 9902               	.LASF141:
 9903 0b4d 4B45 595F 		.string	"KEY_WWW_SEARCH"
 9903      5757 575F 
 9903      5345 4152 
 9903      4348 00
 9904               	.LASF276:
 9905 0b5c 7374 725F 		.string	"str_input_keycode"
 9905      696E 7075 
 9905      745F 6B65 
 9905      7963 6F64 
 9905      6500 
 9906               	.LASF0:
 9907 0b6e 756E 7369 		.string	"unsigned char"
 9907      676E 6564 
 9907      2063 6861 
 9907      7200 
 9908               	.LASF191:
 9909 0b7c 7072 696E 		.string	"printMapperMessage"
 9909      744D 6170 
 9909      7065 724D 
 9909      6573 7361 
 9909      6765 00
 9910               	.LASF72:
 9911 0b8f 4B45 595F 		.string	"KEY_RBR"
 9911      5242 5200 
 9912               	.LASF190:
 9913 0b97 6973 4465 		.string	"isDeepKeyMapping"
 9913      6570 4B65 
 9913      794D 6170 
 9913      7069 6E67 
 9913      00
 9914               	.LASF254:
 9915 0ba8 5F6D 6163 		.string	"_macroDownCount"
 9915      726F 446F 
GAS LISTING C:\Users\ADMINI~1\AppData\Local\Temp/ccZjgOiQ.s 			page 192


 9915      776E 436F 
 9915      756E 7400 
 9916               	.LASF185:
 9917 0bb8 674B 6579 		.string	"gKeyIndex"
 9917      496E 6465 
 9917      7800 
 9918               	.LASF217:
 9919 0bc2 674B 6579 		.string	"gKeyCode"
 9919      436F 6465 
 9919      00
 9920               	.LASF138:
 9921 0bcb 4B45 595F 		.string	"KEY_SLEEP"
 9921      534C 4545 
 9921      5000 
 9922               	.LASF239:
 9923 0bd5 6B65 794D 		.string	"keyMappingCount"
 9923      6170 7069 
 9923      6E67 436F 
 9923      756E 7400 
 9924               	.LASF303:
 9925 0be5 6973 5265 		.string	"isReadyKeyMappingOnBoot"
 9925      6164 794B 
 9925      6579 4D61 
 9925      7070 696E 
 9925      674F 6E42 
 9926               	.LASF225:
 9927 0bfd 674C 656E 		.string	"gLen"
 9927      00
 9928               	.LASF109:
 9929 0c02 4B45 595F 		.string	"KEY_KP_AST"
 9929      4B50 5F41 
 9929      5354 00
 9930               	.LASF139:
 9931 0c0d 4B45 595F 		.string	"KEY_WAKE"
 9931      5741 4B45 
 9931      00
 9932               	.LASF273:
 9933 0c16 7374 725F 		.string	"str_prepare_message"
 9933      7072 6570 
 9933      6172 655F 
 9933      6D65 7373 
 9933      6167 6500 
 9934               	.LASF218:
 9935 0c2a 6275 6666 		.string	"buffers"
 9935      6572 7300 
 9936               	.LASF99:
 9937 0c32 4B45 595F 		.string	"KEY_PGUP"
 9937      5047 5550 
 9937      00
 9938               	.LASF194:
 9939 0c3b 7365 7457 		.string	"setWillStartKeyMapping"
 9939      696C 6C53 
 9939      7461 7274 
 9939      4B65 794D 
 9939      6170 7069 
 9940               	.LASF201:
 9941 0c52 7853 7472 		.string	"xString"
GAS LISTING C:\Users\ADMINI~1\AppData\Local\Temp/ccZjgOiQ.s 			page 193


 9941      696E 6700 
 9942               	.LASF146:
 9943 0c5a 4B45 595F 		.string	"KEY_WWW_REFRESH"
 9943      5757 575F 
 9943      5245 4652 
 9943      4553 4800 
 9944               	.LASF153:
 9945 0c6a 4B45 595F 		.string	"KEY_VOL_UP"
 9945      564F 4C5F 
 9945      5550 00
 9946               	.LASF284:
 9947 0c75 7374 725F 		.string	"str_saving"
 9947      7361 7669 
 9947      6E67 00
 9948               	.LASF97:
 9949 0c80 4B45 595F 		.string	"KEY_INSERT"
 9949      494E 5345 
 9949      5254 00
 9950               	.LASF26:
 9951 0c8b 4B45 595F 		.string	"KEY_POSTFail"
 9951      504F 5354 
 9951      4661 696C 
 9951      00
 9952               	.LASF1:
 9953 0c98 7369 676E 		.string	"signed char"
 9953      6564 2063 
 9953      6861 7200 
 9954               	.LASF98:
 9955 0ca4 4B45 595F 		.string	"KEY_HOME"
 9955      484F 4D45 
 9955      00
 9956               	.LASF2:
 9957 0cad 7368 6F72 		.string	"short unsigned int"
 9957      7420 756E 
 9957      7369 676E 
 9957      6564 2069 
 9957      6E74 00
 9958               	.LASF188:
 9959 0cc0 6573 6361 		.string	"escapeMacroKeycode"
 9959      7065 4D61 
 9959      6372 6F4B 
 9959      6579 636F 
 9959      6465 00
 9960               	.LASF143:
 9961 0cd3 4B45 595F 		.string	"KEY_WWW_BACK"
 9961      5757 575F 
 9961      4241 434B 
 9961      00
 9962               	.LASF269:
 9963 0ce0 7374 725F 		.string	"str_mapper_2"
 9963      6D61 7070 
 9963      6572 5F32 
 9963      00
 9964               	.LASF270:
 9965 0ced 7374 725F 		.string	"str_mapper_3"
 9965      6D61 7070 
 9965      6572 5F33 
GAS LISTING C:\Users\ADMINI~1\AppData\Local\Temp/ccZjgOiQ.s 			page 194


 9965      00
 9966               	.LASF176:
 9967 0cfa 5F5F 746D 		.string	"__tmp"
 9967      7000 
 9968               	.LASF91:
 9969 0d00 4B45 595F 		.string	"KEY_F10"
 9969      4631 3000 
 9970               	.LASF92:
 9971 0d08 4B45 595F 		.string	"KEY_F11"
 9971      4631 3100 
 9972               	.LASF93:
 9973 0d10 4B45 595F 		.string	"KEY_F12"
 9973      4631 3200 
 9974               	.LASF272:
 9975 0d18 7374 725F 		.string	"str_mapper_9"
 9975      6D61 7070 
 9975      6572 5F39 
 9975      00
 9976               	.LASF242:
 9977 0d25 5F73 7465 		.string	"_step"
 9977      7000 
 9978               	.LASF177:
 9979 0d2b 646F 7562 		.string	"double"
 9979      6C65 00
 9980               	.LASF144:
 9981 0d32 4B45 595F 		.string	"KEY_WWW_FORWARD"
 9981      5757 575F 
 9981      464F 5257 
 9981      4152 4400 
 9982               	.LASF286:
 9983 0d42 7374 725F 		.string	"str_invalid_keycode"
 9983      696E 7661 
 9983      6C69 645F 
 9983      6B65 7963 
 9983      6F64 6500 
 9984               	.LASF255:
 9985 0d56 494E 5445 		.string	"INTERFACE"
 9985      5246 4143 
 9985      4500 
 9986               	.LASF131:
 9987 0d60 4B45 595F 		.string	"KEY_RCTRL"
 9987      5243 5452 
 9987      4C00 
 9988               	.LASF169:
 9989 0d6a 6B65 7963 		.string	"keycode"
 9989      6F64 6500 
 9990               	.LASF290:
 9991 0d72 7374 725F 		.string	"str_invalid_macro_number"
 9991      696E 7661 
 9991      6C69 645F 
 9991      6D61 6372 
 9991      6F5F 6E75 
 9992               	.LASF74:
 9993 0d8b 4B45 595F 		.string	"KEY_Europe1"
 9993      4575 726F 
 9993      7065 3100 
 9994               	.LASF124:
GAS LISTING C:\Users\ADMINI~1\AppData\Local\Temp/ccZjgOiQ.s 			page 195


 9995 0d97 4B45 595F 		.string	"KEY_Europe2"
 9995      4575 726F 
 9995      7065 3200 
 9996               	.LASF189:
 9997 0da3 6973 4B65 		.string	"isKeyMapping"
 9997      794D 6170 
 9997      7069 6E67 
 9997      00
 9998               	.LASF301:
 9999 0db0 6B65 796D 		.string	"keymapper.c"
 9999      6170 7065 
 9999      722E 6300 
 10000               	.LASF187:
 10001 0dbc 6973 4D61 		.string	"isMacroKey"
 10001      6372 6F4B 
 10001      6579 00
 10002               	.LASF246:
 10003 0dc7 5F72 6F77 		.string	"_row"
 10003      00
 10004               	.LASF80:
 10005 0dcc 4B45 595F 		.string	"KEY_SLASH"
 10005      534C 4153 
 10005      4800 
 10006               	.global __do_copy_data
 10007               	.global __do_clear_bss
GAS LISTING C:\Users\ADMINI~1\AppData\Local\Temp/ccZjgOiQ.s 			page 196


DEFINED SYMBOLS
                            *ABS*:00000000 keymapper.c
C:\Users\ADMINI~1\AppData\Local\Temp/ccZjgOiQ.s:2      *ABS*:0000003f __SREG__
C:\Users\ADMINI~1\AppData\Local\Temp/ccZjgOiQ.s:3      *ABS*:0000003e __SP_H__
C:\Users\ADMINI~1\AppData\Local\Temp/ccZjgOiQ.s:4      *ABS*:0000003d __SP_L__
C:\Users\ADMINI~1\AppData\Local\Temp/ccZjgOiQ.s:5      *ABS*:00000034 __CCP__
C:\Users\ADMINI~1\AppData\Local\Temp/ccZjgOiQ.s:6      *ABS*:00000000 __tmp_reg__
C:\Users\ADMINI~1\AppData\Local\Temp/ccZjgOiQ.s:7      *ABS*:00000001 __zero_reg__
C:\Users\ADMINI~1\AppData\Local\Temp/ccZjgOiQ.s:18     .text:00000000 setWillStartKeyMapping
C:\Users\ADMINI~1\AppData\Local\Temp/ccZjgOiQ.s:2725   .bss:0000008e _isKeyMapping
C:\Users\ADMINI~1\AppData\Local\Temp/ccZjgOiQ.s:34     .text:0000000c isKeyMapping
C:\Users\ADMINI~1\AppData\Local\Temp/ccZjgOiQ.s:49     .text:00000014 isDeepKeyMapping
C:\Users\ADMINI~1\AppData\Local\Temp/ccZjgOiQ.s:64     .text:0000001c applyKeyMapping
C:\Users\ADMINI~1\AppData\Local\Temp/ccZjgOiQ.s:2727   .bss:00000090 keyMappingCount
C:\Users\ADMINI~1\AppData\Local\Temp/ccZjgOiQ.s:2726   .bss:0000008f enabledKeyMappingCount
C:\Users\ADMINI~1\AppData\Local\Temp/ccZjgOiQ.s:97     .text:00000044 isReadyKeyMappingOnBoot
C:\Users\ADMINI~1\AppData\Local\Temp/ccZjgOiQ.s:2728   .bss:00000092 _keyMappingOnBoot
C:\Users\ADMINI~1\AppData\Local\Temp/ccZjgOiQ.s:110    .text:0000004a readyKeyMappingOnBoot
C:\Users\ADMINI~1\AppData\Local\Temp/ccZjgOiQ.s:125    .text:00000052 stopKeyMapping
C:\Users\ADMINI~1\AppData\Local\Temp/ccZjgOiQ.s:2732   .bss:00000096 _wait
C:\Users\ADMINI~1\AppData\Local\Temp/ccZjgOiQ.s:141    .text:0000005c isMacroKey
C:\Users\ADMINI~1\AppData\Local\Temp/ccZjgOiQ.s:163    .text:0000006a escapeMacroKeycode
C:\Users\ADMINI~1\AppData\Local\Temp/ccZjgOiQ.s:188    .text:00000078 printEnter
C:\Users\ADMINI~1\AppData\Local\Temp/ccZjgOiQ.s:206    .text:00000086 resetMacroInput
                            *COM*:00000020 _macroInputBuffer
                            *COM*:00000001 _macroBufferIndex
                            *COM*:00000010 _macroPressedBuffer
C:\Users\ADMINI~1\AppData\Local\Temp/ccZjgOiQ.s:2709   .bss:0000008d _macroDownCount
C:\Users\ADMINI~1\AppData\Local\Temp/ccZjgOiQ.s:237    .text:000000ac pushCharacter
C:\Users\ADMINI~1\AppData\Local\Temp/ccZjgOiQ.s:290    .text:000000e0 printString
C:\Users\ADMINI~1\AppData\Local\Temp/ccZjgOiQ.s:392    .text:00000186 printStringFromFlash
C:\Users\ADMINI~1\AppData\Local\Temp/ccZjgOiQ.s:501    .text:00000216 resetCurrentLayer
C:\Users\ADMINI~1\AppData\Local\Temp/ccZjgOiQ.s:2622   .progmem.data:0000019f str_reset_mapping
C:\Users\ADMINI~1\AppData\Local\Temp/ccZjgOiQ.s:2707   .bss:00000004 _newKeyMap
C:\Users\ADMINI~1\AppData\Local\Temp/ccZjgOiQ.s:2737   .bss:0000009d _editCount
C:\Users\ADMINI~1\AppData\Local\Temp/ccZjgOiQ.s:555    .text:00000262 clearMacro
C:\Users\ADMINI~1\AppData\Local\Temp/ccZjgOiQ.s:2682   .progmem.data:000002d2 str_clear_all_macro
                             .bss:0000008c _isWorkingForEmpty
C:\Users\ADMINI~1\AppData\Local\Temp/ccZjgOiQ.s:2730   .bss:00000094 _step
C:\Users\ADMINI~1\AppData\Local\Temp/ccZjgOiQ.s:581    .text:00000280 saveCurrentLayer
C:\Users\ADMINI~1\AppData\Local\Temp/ccZjgOiQ.s:2647   .progmem.data:00000203 str_saving
C:\Users\ADMINI~1\AppData\Local\Temp/ccZjgOiQ.s:2731   .bss:00000095 _stepAfterSave
C:\Users\ADMINI~1\AppData\Local\Temp/ccZjgOiQ.s:623    .text:000002bc printPrepareString
C:\Users\ADMINI~1\AppData\Local\Temp/ccZjgOiQ.s:2592   .progmem.data:000000e8 str_prepare_message
C:\Users\ADMINI~1\AppData\Local\Temp/ccZjgOiQ.s:641    .text:000002ca printMacroMessage
C:\Users\ADMINI~1\AppData\Local\Temp/ccZjgOiQ.s:2537   .progmem.data:00000033 str_macro_message
C:\Users\ADMINI~1\AppData\Local\Temp/ccZjgOiQ.s:2542   .progmem.data:00000039 str_macro_1
C:\Users\ADMINI~1\AppData\Local\Temp/ccZjgOiQ.s:2547   .progmem.data:0000004e str_macro_2
C:\Users\ADMINI~1\AppData\Local\Temp/ccZjgOiQ.s:2557   .progmem.data:00000061 str_back_6
C:\Users\ADMINI~1\AppData\Local\Temp/ccZjgOiQ.s:2552   .progmem.data:00000055 str_macro_9
C:\Users\ADMINI~1\AppData\Local\Temp/ccZjgOiQ.s:687    .text:00000312 printPrompt
C:\Users\ADMINI~1\AppData\Local\Temp/ccZjgOiQ.s:2597   .progmem.data:000000f0 str_choose_layer
C:\Users\ADMINI~1\AppData\Local\Temp/ccZjgOiQ.s:2738   .bss:0000009f _currentLayer
C:\Users\ADMINI~1\AppData\Local\Temp/ccZjgOiQ.s:2602   .progmem.data:00000122 str_choose_key
C:\Users\ADMINI~1\AppData\Local\Temp/ccZjgOiQ.s:2607   .progmem.data:00000141 str_input_keycode
C:\Users\ADMINI~1\AppData\Local\Temp/ccZjgOiQ.s:2612   .progmem.data:00000163 str_save_end_mapping
C:\Users\ADMINI~1\AppData\Local\Temp/ccZjgOiQ.s:2617   .progmem.data:0000017b str_cancel_mapping
GAS LISTING C:\Users\ADMINI~1\AppData\Local\Temp/ccZjgOiQ.s 			page 197


C:\Users\ADMINI~1\AppData\Local\Temp/ccZjgOiQ.s:2627   .progmem.data:000001be str_input_command
C:\Users\ADMINI~1\AppData\Local\Temp/ccZjgOiQ.s:2662   .progmem.data:00000237 str_select_number
C:\Users\ADMINI~1\AppData\Local\Temp/ccZjgOiQ.s:2667   .progmem.data:00000264 str_exit_macro
C:\Users\ADMINI~1\AppData\Local\Temp/ccZjgOiQ.s:2672   .progmem.data:0000027f str_input_macro
C:\Users\ADMINI~1\AppData\Local\Temp/ccZjgOiQ.s:2532   .progmem.data:00000029 str_exit
C:\Users\ADMINI~1\AppData\Local\Temp/ccZjgOiQ.s:844    .text:000003e2 printSelectMode
C:\Users\ADMINI~1\AppData\Local\Temp/ccZjgOiQ.s:2512   .progmem.data:00000000 str_select_mode
C:\Users\ADMINI~1\AppData\Local\Temp/ccZjgOiQ.s:2517   .progmem.data:0000000c str_select_mode1
C:\Users\ADMINI~1\AppData\Local\Temp/ccZjgOiQ.s:2522   .progmem.data:0000001a str_select_mode2
C:\Users\ADMINI~1\AppData\Local\Temp/ccZjgOiQ.s:2527   .progmem.data:00000022 str_select_mode3
C:\Users\ADMINI~1\AppData\Local\Temp/ccZjgOiQ.s:887    .text:00000422 printMapperMessageAfter
C:\Users\ADMINI~1\AppData\Local\Temp/ccZjgOiQ.s:2577   .progmem.data:0000009f str_mapper_3
C:\Users\ADMINI~1\AppData\Local\Temp/ccZjgOiQ.s:2582   .progmem.data:000000af str_mapper_4
C:\Users\ADMINI~1\AppData\Local\Temp/ccZjgOiQ.s:2587   .progmem.data:000000c5 str_mapper_9
C:\Users\ADMINI~1\AppData\Local\Temp/ccZjgOiQ.s:930    .text:00000462 clearMacroAfter
C:\Users\ADMINI~1\AppData\Local\Temp/ccZjgOiQ.s:965    .text:0000048c saveMacro
                            *COM*:00000001 _macroIndex
C:\Users\ADMINI~1\AppData\Local\Temp/ccZjgOiQ.s:1014   .text:000004d4 readMacro
C:\Users\ADMINI~1\AppData\Local\Temp/ccZjgOiQ.s:1077   .text:0000051e loadCurrentLayer
C:\Users\ADMINI~1\AppData\Local\Temp/ccZjgOiQ.s:1174   .text:000005a6 putKeyCode
C:\Users\ADMINI~1\AppData\Local\Temp/ccZjgOiQ.s:2713   .data:00000028 usingKeys
C:\Users\ADMINI~1\AppData\Local\Temp/ccZjgOiQ.s:2701   .bss:00000003 _isTiredEscapeKey
C:\Users\ADMINI~1\AppData\Local\Temp/ccZjgOiQ.s:2695   .bss:00000002 _isPressedEscapeKey
C:\Users\ADMINI~1\AppData\Local\Temp/ccZjgOiQ.s:2689   .bss:00000000 _pressedEscapeKeyCount
C:\Users\ADMINI~1\AppData\Local\Temp/ccZjgOiQ.s:2736   .bss:0000009c _bufferIndex
C:\Users\ADMINI~1\AppData\Local\Temp/ccZjgOiQ.s:2735   .bss:00000099 _buffer
C:\Users\ADMINI~1\AppData\Local\Temp/ccZjgOiQ.s:2729   .bss:00000093 _mode
C:\Users\ADMINI~1\AppData\Local\Temp/ccZjgOiQ.s:2562   .progmem.data:00000068 str_mapper_message
C:\Users\ADMINI~1\AppData\Local\Temp/ccZjgOiQ.s:2567   .progmem.data:00000073 str_mapper_1
C:\Users\ADMINI~1\AppData\Local\Temp/ccZjgOiQ.s:2572   .progmem.data:00000082 str_mapper_2
C:\Users\ADMINI~1\AppData\Local\Temp/ccZjgOiQ.s:2677   .progmem.data:000002b6 str_invalid_macro_number
C:\Users\ADMINI~1\AppData\Local\Temp/ccZjgOiQ.s:2637   .progmem.data:000001dd str_save_layer
C:\Users\ADMINI~1\AppData\Local\Temp/ccZjgOiQ.s:2739   .bss:000000a0 _currentLayerAfter
C:\Users\ADMINI~1\AppData\Local\Temp/ccZjgOiQ.s:2642   .progmem.data:000001f0 str_load_layer
C:\Users\ADMINI~1\AppData\Local\Temp/ccZjgOiQ.s:2733   .bss:00000097 _col
C:\Users\ADMINI~1\AppData\Local\Temp/ccZjgOiQ.s:2734   .bss:00000098 _row
C:\Users\ADMINI~1\AppData\Local\Temp/ccZjgOiQ.s:2652   .progmem.data:0000020d str_col_row
C:\Users\ADMINI~1\AppData\Local\Temp/ccZjgOiQ.s:2657   .progmem.data:00000219 str_invalid_keycode
C:\Users\ADMINI~1\AppData\Local\Temp/ccZjgOiQ.s:2013   .text:00000b00 saveCurrentLayerAfter
C:\Users\ADMINI~1\AppData\Local\Temp/ccZjgOiQ.s:2137   .text:00000bce prepareKeyMapper
C:\Users\ADMINI~1\AppData\Local\Temp/ccZjgOiQ.s:2167   .text:00000bf2 getCurrentKeycode
C:\Users\ADMINI~1\AppData\Local\Temp/ccZjgOiQ.s:2271   .text:00000c68 applyMacro
C:\Users\ADMINI~1\AppData\Local\Temp/ccZjgOiQ.s:2319   .text:00000c9a startKeyMapping
C:\Users\ADMINI~1\AppData\Local\Temp/ccZjgOiQ.s:2354   .text:00000cbe prepareKeyMapping
C:\Users\ADMINI~1\AppData\Local\Temp/ccZjgOiQ.s:2388   .text:00000ce2 countKeyMappingEnabled
C:\Users\ADMINI~1\AppData\Local\Temp/ccZjgOiQ.s:2418   .text:00000d14 enterFrameForMapper
C:\Users\ADMINI~1\AppData\Local\Temp/ccZjgOiQ.s:2491   .text:00000d8e startKeyMappingOnBoot
C:\Users\ADMINI~1\AppData\Local\Temp/ccZjgOiQ.s:2632   .progmem.data:000001d5 str_nothing

UNDEFINED SYMBOLS
pushM
charToKey
sprintf
toString
__eewr_byte_m32
__eerd_byte_m32
findIndex
GAS LISTING C:\Users\ADMINI~1\AppData\Local\Temp/ccZjgOiQ.s 			page 198


append
delete
keymap_code
isEmptyM
clearMacroPressedBuffer
isAllKeyRelease
INTERFACE
prepareKeyMappingUsb
prepareKeyMappingPs2
isMacroProcessEnd
__do_copy_data
__do_clear_bss
