GAS LISTING C:\Users\ADMINI~1\AppData\Local\Temp/ccnPzUe6.s 			page 1


   1               		.file	"keymapper.c"
   2               	__SREG__ = 0x3f
   3               	__SP_H__ = 0x3e
   4               	__SP_L__ = 0x3d
   5               	__CCP__  = 0x34
   6               	__tmp_reg__ = 0
   7               	__zero_reg__ = 1
   8               		.section	.debug_abbrev,"",@progbits
   9               	.Ldebug_abbrev0:
  10               		.section	.debug_info,"",@progbits
  11               	.Ldebug_info0:
  12               		.section	.debug_line,"",@progbits
  13               	.Ldebug_line0:
  14               		.text
  15               	.Ltext0:
  16               	.global	setWillStartKeyMapping
  17               		.type	setWillStartKeyMapping, @function
  18               	setWillStartKeyMapping:
  19               	.LFB9:
  20               	.LM1:
  21               	/* prologue: function */
  22               	/* frame size = 0 */
  23               	.LM2:
  24 0000 8091 0000 		lds r24,_isKeyMapping
  25 0004 8160      		ori r24,lo8(1)
  26 0006 8093 0000 		sts _isKeyMapping,r24
  27               	/* epilogue start */
  28               	.LM3:
  29 000a 0895      		ret
  30               	.LFE9:
  31               		.size	setWillStartKeyMapping, .-setWillStartKeyMapping
  32               	.global	isKeyMapping
  33               		.type	isKeyMapping, @function
  34               	isKeyMapping:
  35               	.LFB10:
  36               	.LM4:
  37               	/* prologue: function */
  38               	/* frame size = 0 */
  39               	.LM5:
  40 000c 8091 0000 		lds r24,_isKeyMapping
  41               	.LM6:
  42 0010 8170      		andi r24,lo8(1)
  43               	/* epilogue start */
  44 0012 0895      		ret
  45               	.LFE10:
  46               		.size	isKeyMapping, .-isKeyMapping
  47               	.global	isDeepKeyMapping
  48               		.type	isDeepKeyMapping, @function
  49               	isDeepKeyMapping:
  50               	.LFB11:
  51               	.LM7:
  52               	/* prologue: function */
  53               	/* frame size = 0 */
  54               	.LM8:
  55 0014 8091 0000 		lds r24,_isKeyMapping
  56               	.LM9:
  57 0018 8270      		andi r24,lo8(2)
GAS LISTING C:\Users\ADMINI~1\AppData\Local\Temp/ccnPzUe6.s 			page 2


  58               	/* epilogue start */
  59 001a 0895      		ret
  60               	.LFE11:
  61               		.size	isDeepKeyMapping, .-isDeepKeyMapping
  62               	.global	isReadyKeyMappingOnBoot
  63               		.type	isReadyKeyMappingOnBoot, @function
  64               	isReadyKeyMappingOnBoot:
  65               	.LFB15:
  66               	.LM10:
  67               	/* prologue: function */
  68               	/* frame size = 0 */
  69               	.LM11:
  70 001c 8091 0000 		lds r24,_keyMappingOnBoot
  71               	/* epilogue start */
  72 0020 0895      		ret
  73               	.LFE15:
  74               		.size	isReadyKeyMappingOnBoot, .-isReadyKeyMappingOnBoot
  75               	.global	readyKeyMappingOnBoot
  76               		.type	readyKeyMappingOnBoot, @function
  77               	readyKeyMappingOnBoot:
  78               	.LFB16:
  79               	.LM12:
  80               	/* prologue: function */
  81               	/* frame size = 0 */
  82               	.LM13:
  83 0022 81E0      		ldi r24,lo8(1)
  84 0024 8093 0000 		sts _keyMappingOnBoot,r24
  85               	/* epilogue start */
  86               	.LM14:
  87 0028 0895      		ret
  88               	.LFE16:
  89               		.size	readyKeyMappingOnBoot, .-readyKeyMappingOnBoot
  90               	.global	stopKeyMapping
  91               		.type	stopKeyMapping, @function
  92               	stopKeyMapping:
  93               	.LFB19:
  94               	.LM15:
  95               	/* prologue: function */
  96               	/* frame size = 0 */
  97               	.LM16:
  98 002a 1092 0000 		sts _isKeyMapping,__zero_reg__
  99               	.LM17:
 100 002e 1092 0000 		sts _wait,__zero_reg__
 101               	/* epilogue start */
 102               	.LM18:
 103 0032 0895      		ret
 104               	.LFE19:
 105               		.size	stopKeyMapping, .-stopKeyMapping
 106               	.global	isMacroKey
 107               		.type	isMacroKey, @function
 108               	isMacroKey:
 109               	.LFB24:
 110               	.LM19:
 111               	.LVL0:
 112               	/* prologue: function */
 113               	/* frame size = 0 */
 114               	.LM20:
GAS LISTING C:\Users\ADMINI~1\AppData\Local\Temp/ccnPzUe6.s 			page 3


 115 0034 90E0      		ldi r25,lo8(0)
 116 0036 895C      		subi r24,lo8(-(55))
 117               	.LVL1:
 118 0038 8C30      		cpi r24,lo8(12)
 119 003a 00F4      		brsh .L14
 120 003c 91E0      		ldi r25,lo8(1)
 121               	.L14:
 122               	.LM21:
 123 003e 892F      		mov r24,r25
 124               	/* epilogue start */
 125 0040 0895      		ret
 126               	.LFE24:
 127               		.size	isMacroKey, .-isMacroKey
 128               	.global	escapeMacroKeycode
 129               		.type	escapeMacroKeycode, @function
 130               	escapeMacroKeycode:
 131               	.LFB25:
 132               	.LM22:
 133               	.LVL2:
 134               	/* prologue: function */
 135               	/* frame size = 0 */
 136 0042 982F      		mov r25,r24
 137               	.LBB68:
 138               	.LBB69:
 139               	.LM23:
 140 0044 895C      		subi r24,lo8(-(55))
 141               	.LVL3:
 142 0046 8C30      		cpi r24,lo8(12)
 143 0048 00F4      		brsh .L17
 144 004a 90E0      		ldi r25,lo8(0)
 145               	.L17:
 146               	.LBE69:
 147               	.LBE68:
 148               	.LM24:
 149 004c 892F      		mov r24,r25
 150               	/* epilogue start */
 151 004e 0895      		ret
 152               	.LFE25:
 153               		.size	escapeMacroKeycode, .-escapeMacroKeycode
 154               	.global	isMacroInput
 155               		.type	isMacroInput, @function
 156               	isMacroInput:
 157               	.LFB47:
 158               	.LM25:
 159               	/* prologue: function */
 160               	/* frame size = 0 */
 161               	.LM26:
 162 0050 90E0      		ldi r25,lo8(0)
 163 0052 8091 0000 		lds r24,_step
 164 0056 8B30      		cpi r24,lo8(11)
 165 0058 01F4      		brne .L20
 166 005a 91E0      		ldi r25,lo8(1)
 167               	.L20:
 168               	.LM27:
 169 005c 892F      		mov r24,r25
 170               	/* epilogue start */
 171 005e 0895      		ret
GAS LISTING C:\Users\ADMINI~1\AppData\Local\Temp/ccnPzUe6.s 			page 4


 172               	.LFE47:
 173               		.size	isMacroInput, .-isMacroInput
 174               		.type	printEnter, @function
 175               	printEnter:
 176               	.LFB28:
 177               	.LM28:
 178               	/* prologue: function */
 179               	/* frame size = 0 */
 180               	.LM29:
 181 0060 88E2      		ldi r24,lo8(40)
 182 0062 0E94 0000 		call pushM
 183               	.LM30:
 184 0066 88E2      		ldi r24,lo8(40)
 185 0068 0E94 0000 		call pushM
 186               	/* epilogue start */
 187               	.LM31:
 188 006c 0895      		ret
 189               	.LFE28:
 190               		.size	printEnter, .-printEnter
 191               		.data
 192               	.LC0:
 193 0000 784D 6F64 		.string	"xModi= %d, _isKeyMapping= %d \n"
 193      693D 2025 
 193      642C 205F 
 193      6973 4B65 
 193      794D 6170 
 194               		.text
 195               	.global	applyKeyMapping
 196               		.type	applyKeyMapping, @function
 197               	applyKeyMapping:
 198               	.LFB12:
 199               	.LM32:
 200 006e 1F93      		push r17
 201               	/* prologue: function */
 202               	/* frame size = 0 */
 203 0070 182F      		mov r17,r24
 204               	.LBB70:
 205               	.LBB71:
 206               	.LM33:
 207 0072 2091 0000 		lds r18,_isKeyMapping
 208               	.LBE71:
 209               	.LBE70:
 210               	.LM34:
 211 0076 20FD      		sbrc r18,0
 212 0078 00C0      		rjmp .L28
 213               	.LM35:
 214 007a 00D0      		rcall .
 215 007c 00D0      		rcall .
 216 007e 00D0      		rcall .
 217 0080 EDB7      		in r30,__SP_L__
 218 0082 FEB7      		in r31,__SP_H__
 219 0084 3196      		adiw r30,1
 220 0086 80E0      		ldi r24,lo8(.LC0)
 221 0088 90E0      		ldi r25,hi8(.LC0)
 222 008a ADB7      		in r26,__SP_L__
 223 008c BEB7      		in r27,__SP_H__
 224 008e 1296      		adiw r26,1+1
GAS LISTING C:\Users\ADMINI~1\AppData\Local\Temp/ccnPzUe6.s 			page 5


 225 0090 9C93      		st X,r25
 226 0092 8E93      		st -X,r24
 227 0094 1197      		sbiw r26,1
 228 0096 1283      		std Z+2,r17
 229 0098 1382      		std Z+3,__zero_reg__
 230 009a 2483      		std Z+4,r18
 231 009c 1582      		std Z+5,__zero_reg__
 232 009e 0E94 0000 		call printf
 233               	.LM36:
 234 00a2 8DB7      		in r24,__SP_L__
 235 00a4 9EB7      		in r25,__SP_H__
 236 00a6 0696      		adiw r24,6
 237 00a8 0FB6      		in __tmp_reg__,__SREG__
 238 00aa F894      		cli
 239 00ac 9EBF      		out __SP_H__,r25
 240 00ae 0FBE      		out __SREG__,__tmp_reg__
 241 00b0 8DBF      		out __SP_L__,r24
 242 00b2 1730      		cpi r17,lo8(7)
 243 00b4 01F4      		brne .L26
 244               	.LM37:
 245 00b6 1092 0000 		sts (keyMappingCount)+1,__zero_reg__
 246 00ba 1092 0000 		sts keyMappingCount,__zero_reg__
 247               	.LM38:
 248 00be 81E0      		ldi r24,lo8(1)
 249 00c0 8093 0000 		sts enabledKeyMappingCount,r24
 250               	.LM39:
 251 00c4 8091 0000 		lds r24,INTERFACE
 252 00c8 8823      		tst r24
 253 00ca 01F0      		breq .L27
 254 00cc 8330      		cpi r24,lo8(3)
 255 00ce 01F4      		brne .L28
 256               	.L27:
 257               	.LM40:
 258 00d0 8AEF      		ldi r24,lo8(250)
 259 00d2 90E0      		ldi r25,hi8(250)
 260 00d4 9093 0000 		sts (keyMappingCountMax)+1,r25
 261 00d8 8093 0000 		sts keyMappingCountMax,r24
 262 00dc 00C0      		rjmp .L28
 263               	.L26:
 264               	.LM41:
 265 00de 1092 0000 		sts _isKeyMapping,__zero_reg__
 266               	.LM42:
 267 00e2 1092 0000 		sts enabledKeyMappingCount,__zero_reg__
 268               	.L28:
 269               	/* epilogue start */
 270               	.LM43:
 271 00e6 1F91      		pop r17
 272 00e8 0895      		ret
 273               	.LFE12:
 274               		.size	applyKeyMapping, .-applyKeyMapping
 275               	.global	resetMacroInput
 276               		.type	resetMacroInput, @function
 277               	resetMacroInput:
 278               	.LFB48:
 279               	.LM44:
 280               	/* prologue: function */
 281               	/* frame size = 0 */
GAS LISTING C:\Users\ADMINI~1\AppData\Local\Temp/ccnPzUe6.s 			page 6


 282               	.LM45:
 283 00ea 80E3      		ldi r24,lo8(48)
 284 00ec E0E0      		ldi r30,lo8(_macroInputBuffer)
 285 00ee F0E0      		ldi r31,hi8(_macroInputBuffer)
 286 00f0 DF01      		movw r26,r30
 287 00f2 982F      		mov r25,r24
 288 00f4 1D92      		st X+,__zero_reg__
 289 00f6 9A95      	        dec r25
 290 00f8 01F4      		brne .-6
 291               	.LM46:
 292 00fa 1092 0000 		sts _macroBufferIndex,__zero_reg__
 293               	.LM47:
 294 00fe E0E0      		ldi r30,lo8(_macroPressedBuffer)
 295 0100 F0E0      		ldi r31,hi8(_macroPressedBuffer)
 296 0102 DF01      		movw r26,r30
 297 0104 1D92      		st X+,__zero_reg__
 298 0106 8A95      	        dec r24
 299 0108 01F4      		brne .-6
 300               	.LM48:
 301 010a 1092 0000 		sts _macroDownCount,__zero_reg__
 302               	/* epilogue start */
 303               	.LM49:
 304 010e 0895      		ret
 305               	.LFE48:
 306               		.size	resetMacroInput, .-resetMacroInput
 307               		.type	pushCharacter, @function
 308               	pushCharacter:
 309               	.LFB27:
 310               	.LM50:
 311               	.LVL4:
 312 0110 0F93      		push r16
 313 0112 1F93      		push r17
 314               	/* prologue: function */
 315               	/* frame size = 0 */
 316 0114 FC01      		movw r30,r24
 317               	.LM51:
 318 0116 8081      		ld r24,Z
 319               	.LVL5:
 320 0118 0E94 0000 		call charToKey
 321               	.LVL6:
 322 011c 8C01      		movw r16,r24
 323               	.LM52:
 324 011e 8823      		tst r24
 325               	.LVL7:
 326 0120 01F0      		breq .L32
 327               	.LM53:
 328 0122 88E6      		ldi r24,lo8(104)
 329               	.LVL8:
 330 0124 0E94 0000 		call pushM
 331               	.LVL9:
 332               	.L32:
 333               	.LM54:
 334 0128 812F      		mov r24,r17
 335               	.LVL10:
 336 012a 0E94 0000 		call pushM
 337               	.LM55:
 338 012e 812F      		mov r24,r17
GAS LISTING C:\Users\ADMINI~1\AppData\Local\Temp/ccnPzUe6.s 			page 7


 339 0130 0E94 0000 		call pushM
 340               	.LM56:
 341 0134 0023      		tst r16
 342               	.LVL11:
 343 0136 01F0      		breq .L34
 344               	.LM57:
 345 0138 88E6      		ldi r24,lo8(104)
 346 013a 0E94 0000 		call pushM
 347               	.L34:
 348               	/* epilogue start */
 349               	.LM58:
 350 013e 1F91      		pop r17
 351 0140 0F91      		pop r16
 352               	.LVL12:
 353 0142 0895      		ret
 354               	.LFE27:
 355               		.size	pushCharacter, .-pushCharacter
 356               		.data
 357               	.LC1:
 358 001f 2563 00   		.string	"%c"
 359               		.text
 360               		.type	printStringFromFlash, @function
 361               	printStringFromFlash:
 362               	.LFB30:
 363               	.LM59:
 364               	.LVL13:
 365 0144 CF92      		push r12
 366 0146 DF92      		push r13
 367 0148 EF92      		push r14
 368 014a FF92      		push r15
 369 014c 0F93      		push r16
 370 014e 1F93      		push r17
 371 0150 DF93      		push r29
 372 0152 CF93      		push r28
 373 0154 0F92      		push __tmp_reg__
 374 0156 CDB7      		in r28,__SP_L__
 375 0158 DEB7      		in r29,__SP_H__
 376               	/* prologue: function */
 377               	/* frame size = 1 */
 378 015a 8C01      		movw r16,r24
 379               	.LM60:
 380 015c 0097      		sbiw r24,0
 381 015e 01F4      		brne .L40
 382 0160 00C0      		rjmp .L39
 383               	.LVL14:
 384               	.L38:
 385               	.LM61:
 386 0162 00D0      		rcall .
 387 0164 00D0      		rcall .
 388 0166 00D0      		rcall .
 389 0168 EDB7      		in r30,__SP_L__
 390 016a FEB7      		in r31,__SP_H__
 391               	.LVL15:
 392 016c 3196      		adiw r30,1
 393 016e ADB7      		in r26,__SP_L__
 394 0170 BEB7      		in r27,__SP_H__
 395 0172 1296      		adiw r26,1+1
GAS LISTING C:\Users\ADMINI~1\AppData\Local\Temp/ccnPzUe6.s 			page 8


 396 0174 FC92      		st X,r15
 397 0176 EE92      		st -X,r14
 398 0178 1197      		sbiw r26,1
 399 017a D382      		std Z+3,r13
 400 017c C282      		std Z+2,r12
 401 017e 9927      		clr r25
 402 0180 87FD      		sbrc r24,7
 403 0182 9095      		com r25
 404               	.LVL16:
 405 0184 9583      		std Z+5,r25
 406 0186 8483      		std Z+4,r24
 407 0188 0E94 0000 		call sprintf
 408               	.LVL17:
 409               	.LM62:
 410 018c 8DB7      		in r24,__SP_L__
 411 018e 9EB7      		in r25,__SP_H__
 412 0190 0696      		adiw r24,6
 413 0192 0FB6      		in __tmp_reg__,__SREG__
 414 0194 F894      		cli
 415 0196 9EBF      		out __SP_H__,r25
 416 0198 0FBE      		out __SREG__,__tmp_reg__
 417 019a 8DBF      		out __SP_L__,r24
 418 019c C701      		movw r24,r14
 419 019e 0E94 0000 		call pushCharacter
 420 01a2 00C0      		rjmp .L41
 421               	.LVL18:
 422               	.L40:
 423               	.LM63:
 424 01a4 7E01      		movw r14,r28
 425 01a6 0894      		sec
 426 01a8 E11C      		adc r14,__zero_reg__
 427 01aa F11C      		adc r15,__zero_reg__
 428 01ac 80E0      		ldi r24,lo8(.LC1)
 429 01ae C82E      		mov r12,r24
 430 01b0 80E0      		ldi r24,hi8(.LC1)
 431 01b2 D82E      		mov r13,r24
 432               	.LVL19:
 433               	.L41:
 434               	.LM64:
 435 01b4 F801      		movw r30,r16
 436               	.LVL20:
 437               	.LBB72:
 438               	.LM65:
 439 01b6 0F5F      		subi r16,lo8(-(1))
 440 01b8 1F4F      		sbci r17,hi8(-(1))
 441               	/* #APP */
 442               	 ;  357 "keymapper.c" 1
 443 01ba 8491      		lpm r24, Z
 444               		
 445               	 ;  0 "" 2
 446               	.LVL21:
 447               	/* #NOAPP */
 448               	.LBE72:
 449 01bc 8823      		tst r24
 450 01be 01F4      		brne .L38
 451               	.LVL22:
 452               	.L39:
GAS LISTING C:\Users\ADMINI~1\AppData\Local\Temp/ccnPzUe6.s 			page 9


 453               	/* epilogue start */
 454               	.LM66:
 455 01c0 0F90      		pop __tmp_reg__
 456 01c2 CF91      		pop r28
 457 01c4 DF91      		pop r29
 458 01c6 1F91      		pop r17
 459 01c8 0F91      		pop r16
 460               	.LVL23:
 461 01ca FF90      		pop r15
 462 01cc EF90      		pop r14
 463 01ce DF90      		pop r13
 464 01d0 CF90      		pop r12
 465 01d2 0895      		ret
 466               	.LFE30:
 467               		.size	printStringFromFlash, .-printStringFromFlash
 468               	.global	resetCurrentLayer
 469               		.type	resetCurrentLayer, @function
 470               	resetCurrentLayer:
 471               	.LFB46:
 472               	.LM67:
 473               	/* prologue: function */
 474               	/* frame size = 0 */
 475               	.LM68:
 476 01d4 80E0      		ldi r24,lo8(str_reset_mapping)
 477 01d6 90E0      		ldi r25,hi8(str_reset_mapping)
 478 01d8 0E94 0000 		call printStringFromFlash
 479               	.LM69:
 480 01dc 0E94 0000 		call printEnter
 481 01e0 20E0      		ldi r18,lo8(_newKeyMap+8)
 482 01e2 30E0      		ldi r19,hi8(_newKeyMap+8)
 483 01e4 80E0      		ldi r24,lo8(0)
 484 01e6 90E0      		ldi r25,hi8(0)
 485 01e8 00C0      		rjmp .L43
 486               	.L44:
 487               	.LM70:
 488 01ea 1192      		st Z+,__zero_reg__
 489               	.LM71:
 490 01ec E217      		cp r30,r18
 491 01ee F307      		cpc r31,r19
 492 01f0 01F4      		brne .L44
 493 01f2 0196      		adiw r24,1
 494 01f4 9F01      		movw r18,r30
 495 01f6 285F      		subi r18,lo8(-(8))
 496 01f8 3F4F      		sbci r19,hi8(-(8))
 497               	.LM72:
 498 01fa 8131      		cpi r24,17
 499 01fc 9105      		cpc r25,__zero_reg__
 500 01fe 01F0      		breq .L45
 501               	.L43:
 502 0200 FC01      		movw r30,r24
 503 0202 43E0      		ldi r20,3
 504 0204 EE0F      	1:	lsl r30
 505 0206 FF1F      		rol r31
 506 0208 4A95      		dec r20
 507 020a 01F4      		brne 1b
 508 020c E050      		subi r30,lo8(-(_newKeyMap))
 509 020e F040      		sbci r31,hi8(-(_newKeyMap))
GAS LISTING C:\Users\ADMINI~1\AppData\Local\Temp/ccnPzUe6.s 			page 10


 510 0210 00C0      		rjmp .L44
 511               	.L45:
 512               	.LM73:
 513 0212 81E0      		ldi r24,lo8(1)
 514 0214 90E0      		ldi r25,hi8(1)
 515 0216 9093 0000 		sts (_editCount)+1,r25
 516 021a 8093 0000 		sts _editCount,r24
 517               	/* epilogue start */
 518               	.LM74:
 519 021e 0895      		ret
 520               	.LFE46:
 521               		.size	resetCurrentLayer, .-resetCurrentLayer
 522               	.global	clearMacro
 523               		.type	clearMacro, @function
 524               	clearMacro:
 525               	.LFB45:
 526               	.LM75:
 527               	/* prologue: function */
 528               	/* frame size = 0 */
 529               	.LM76:
 530 0220 80E0      		ldi r24,lo8(str_clear_all_macro)
 531 0222 90E0      		ldi r25,hi8(str_clear_all_macro)
 532 0224 0E94 0000 		call printStringFromFlash
 533               	.LM77:
 534 0228 0E94 0000 		call printEnter
 535               	.LM78:
 536 022c 81E0      		ldi r24,lo8(1)
 537 022e 8093 0000 		sts _isWorkingForEmpty,r24
 538               	.LM79:
 539 0232 8CE0      		ldi r24,lo8(12)
 540 0234 8093 0000 		sts _wait,r24
 541               	.LM80:
 542 0238 1092 0000 		sts _step,__zero_reg__
 543               	/* epilogue start */
 544               	.LM81:
 545 023c 0895      		ret
 546               	.LFE45:
 547               		.size	clearMacro, .-clearMacro
 548               	.global	saveCurrentLayer
 549               		.type	saveCurrentLayer, @function
 550               	saveCurrentLayer:
 551               	.LFB40:
 552               	.LM82:
 553               	/* prologue: function */
 554               	/* frame size = 0 */
 555               	.LM83:
 556 023e 8091 0000 		lds r24,_editCount
 557 0242 9091 0000 		lds r25,(_editCount)+1
 558 0246 892B      		or r24,r25
 559 0248 01F4      		brne .L51
 560               	.LBB73:
 561               	.LBB74:
 562               	.LM84:
 563 024a 1092 0000 		sts _isKeyMapping,__zero_reg__
 564               	.LM85:
 565 024e 1092 0000 		sts _wait,__zero_reg__
 566 0252 0895      		ret
GAS LISTING C:\Users\ADMINI~1\AppData\Local\Temp/ccnPzUe6.s 			page 11


 567               	.L51:
 568               	.LBE74:
 569               	.LBE73:
 570               	.LM86:
 571 0254 80E0      		ldi r24,lo8(str_saving)
 572 0256 90E0      		ldi r25,hi8(str_saving)
 573 0258 0E94 0000 		call printStringFromFlash
 574               	.LM87:
 575 025c 0E94 0000 		call printEnter
 576               	.LM88:
 577 0260 81E0      		ldi r24,lo8(1)
 578 0262 8093 0000 		sts _isWorkingForEmpty,r24
 579               	.LM89:
 580 0266 8BE0      		ldi r24,lo8(11)
 581 0268 8093 0000 		sts _wait,r24
 582               	.LM90:
 583 026c 8091 0000 		lds r24,_step
 584 0270 8093 0000 		sts _stepAfterLayerSave,r24
 585               	.LM91:
 586 0274 1092 0000 		sts _step,__zero_reg__
 587 0278 0895      		ret
 588               	.LFE40:
 589               		.size	saveCurrentLayer, .-saveCurrentLayer
 590               	.global	printPrepareString
 591               		.type	printPrepareString, @function
 592               	printPrepareString:
 593               	.LFB36:
 594               	.LM92:
 595               	/* prologue: function */
 596               	/* frame size = 0 */
 597               	.LM93:
 598 027a 80E0      		ldi r24,lo8(str_prepare_message)
 599 027c 90E0      		ldi r25,hi8(str_prepare_message)
 600 027e 0E94 0000 		call printStringFromFlash
 601               	.LM94:
 602 0282 0E94 0000 		call printEnter
 603               	/* epilogue start */
 604               	.LM95:
 605 0286 0895      		ret
 606               	.LFE36:
 607               		.size	printPrepareString, .-printPrepareString
 608               	.global	printMacroMessage
 609               		.type	printMacroMessage, @function
 610               	printMacroMessage:
 611               	.LFB35:
 612               	.LM96:
 613               	/* prologue: function */
 614               	/* frame size = 0 */
 615               	.LM97:
 616 0288 0E94 0000 		call printEnter
 617               	.LM98:
 618 028c 80E0      		ldi r24,lo8(str_macro_message)
 619 028e 90E0      		ldi r25,hi8(str_macro_message)
 620 0290 0E94 0000 		call printStringFromFlash
 621               	.LM99:
 622 0294 0E94 0000 		call printEnter
 623               	.LM100:
GAS LISTING C:\Users\ADMINI~1\AppData\Local\Temp/ccnPzUe6.s 			page 12


 624 0298 80E0      		ldi r24,lo8(str_macro_1)
 625 029a 90E0      		ldi r25,hi8(str_macro_1)
 626 029c 0E94 0000 		call printStringFromFlash
 627               	.LM101:
 628 02a0 0E94 0000 		call printEnter
 629               	.LM102:
 630 02a4 80E0      		ldi r24,lo8(str_macro_2)
 631 02a6 90E0      		ldi r25,hi8(str_macro_2)
 632 02a8 0E94 0000 		call printStringFromFlash
 633               	.LM103:
 634 02ac 0E94 0000 		call printEnter
 635               	.LM104:
 636 02b0 80E0      		ldi r24,lo8(str_back_6)
 637 02b2 90E0      		ldi r25,hi8(str_back_6)
 638 02b4 0E94 0000 		call printStringFromFlash
 639               	.LM105:
 640 02b8 0E94 0000 		call printEnter
 641               	.LM106:
 642 02bc 80E0      		ldi r24,lo8(str_macro_9)
 643 02be 90E0      		ldi r25,hi8(str_macro_9)
 644 02c0 0E94 0000 		call printStringFromFlash
 645               	.LM107:
 646 02c4 0E94 0000 		call printEnter
 647               	.LM108:
 648 02c8 87E0      		ldi r24,lo8(7)
 649 02ca 8093 0000 		sts _step,r24
 650               	/* epilogue start */
 651               	.LM109:
 652 02ce 0895      		ret
 653               	.LFE35:
 654               		.size	printMacroMessage, .-printMacroMessage
 655               	.global	printString
 656               		.type	printString, @function
 657               	printString:
 658               	.LFB29:
 659               	.LM110:
 660               	.LVL24:
 661 02d0 AF92      		push r10
 662 02d2 BF92      		push r11
 663 02d4 CF92      		push r12
 664 02d6 DF92      		push r13
 665 02d8 FF92      		push r15
 666 02da 0F93      		push r16
 667 02dc 1F93      		push r17
 668 02de DF93      		push r29
 669 02e0 CF93      		push r28
 670 02e2 0F92      		push __tmp_reg__
 671 02e4 CDB7      		in r28,__SP_L__
 672 02e6 DEB7      		in r29,__SP_H__
 673               	/* prologue: function */
 674               	/* frame size = 1 */
 675 02e8 8C01      		movw r16,r24
 676               	.LM111:
 677 02ea FF24      		clr r15
 678               	.LVL25:
 679               	.LM112:
 680 02ec 6E01      		movw r12,r28
GAS LISTING C:\Users\ADMINI~1\AppData\Local\Temp/ccnPzUe6.s 			page 13


 681 02ee 0894      		sec
 682 02f0 C11C      		adc r12,__zero_reg__
 683 02f2 D11C      		adc r13,__zero_reg__
 684 02f4 50E0      		ldi r21,lo8(.LC1)
 685 02f6 A52E      		mov r10,r21
 686 02f8 50E0      		ldi r21,hi8(.LC1)
 687 02fa B52E      		mov r11,r21
 688 02fc 00C0      		rjmp .L59
 689               	.LVL26:
 690               	.L60:
 691 02fe 00D0      		rcall .
 692 0300 00D0      		rcall .
 693 0302 00D0      		rcall .
 694 0304 EDB7      		in r30,__SP_L__
 695 0306 FEB7      		in r31,__SP_H__
 696 0308 3196      		adiw r30,1
 697 030a ADB7      		in r26,__SP_L__
 698 030c BEB7      		in r27,__SP_H__
 699 030e 1296      		adiw r26,1+1
 700 0310 DC92      		st X,r13
 701 0312 CE92      		st -X,r12
 702 0314 1197      		sbiw r26,1
 703 0316 B382      		std Z+3,r11
 704 0318 A282      		std Z+2,r10
 705 031a 800F      		add r24,r16
 706 031c 911F      		adc r25,r17
 707 031e DC01      		movw r26,r24
 708 0320 8C91      		ld r24,X
 709 0322 9927      		clr r25
 710 0324 87FD      		sbrc r24,7
 711 0326 9095      		com r25
 712 0328 9583      		std Z+5,r25
 713 032a 8483      		std Z+4,r24
 714 032c 0E94 0000 		call sprintf
 715               	.LM113:
 716 0330 8DB7      		in r24,__SP_L__
 717 0332 9EB7      		in r25,__SP_H__
 718 0334 0696      		adiw r24,6
 719 0336 0FB6      		in __tmp_reg__,__SREG__
 720 0338 F894      		cli
 721 033a 9EBF      		out __SP_H__,r25
 722 033c 0FBE      		out __SREG__,__tmp_reg__
 723 033e 8DBF      		out __SP_L__,r24
 724 0340 C601      		movw r24,r12
 725 0342 0E94 0000 		call pushCharacter
 726               	.LM114:
 727 0346 F394      		inc r15
 728               	.LVL27:
 729               	.L59:
 730 0348 8F2D      		mov r24,r15
 731 034a 90E0      		ldi r25,lo8(0)
 732 034c F801      		movw r30,r16
 733 034e 0190      		ld __tmp_reg__,Z+
 734 0350 0020      		tst __tmp_reg__
 735 0352 01F4      		brne .-6
 736 0354 3197      		sbiw r30,1
 737 0356 E01B      		sub r30,r16
GAS LISTING C:\Users\ADMINI~1\AppData\Local\Temp/ccnPzUe6.s 			page 14


 738 0358 F10B      		sbc r31,r17
 739 035a 8E17      		cp r24,r30
 740 035c 9F07      		cpc r25,r31
 741 035e 00F0      		brlo .L60
 742               	/* epilogue start */
 743               	.LM115:
 744 0360 0F90      		pop __tmp_reg__
 745 0362 CF91      		pop r28
 746 0364 DF91      		pop r29
 747 0366 1F91      		pop r17
 748 0368 0F91      		pop r16
 749               	.LVL28:
 750 036a FF90      		pop r15
 751               	.LVL29:
 752 036c DF90      		pop r13
 753 036e CF90      		pop r12
 754 0370 BF90      		pop r11
 755 0372 AF90      		pop r10
 756 0374 0895      		ret
 757               	.LFE29:
 758               		.size	printString, .-printString
 759               		.type	printPrompt, @function
 760               	printPrompt:
 761               	.LFB31:
 762               	.LM116:
 763               	/* prologue: function */
 764               	/* frame size = 0 */
 765               	.LM117:
 766 0376 81E0      		ldi r24,lo8(1)
 767 0378 8093 0000 		sts _isWorkingForEmpty,r24
 768               	.LM118:
 769 037c 8091 0000 		lds r24,_step
 770 0380 8930      		cpi r24,lo8(9)
 771 0382 00F4      		brsh .L77
 772 0384 8730      		cpi r24,lo8(7)
 773 0386 00F4      		brsh .L70
 774 0388 8330      		cpi r24,lo8(3)
 775 038a 01F0      		breq .L66
 776 038c 8430      		cpi r24,lo8(4)
 777 038e 00F4      		brsh .L78
 778 0390 8130      		cpi r24,lo8(1)
 779 0392 01F0      		breq .L64
 780 0394 8230      		cpi r24,lo8(2)
 781 0396 01F0      		breq .+2
 782 0398 00C0      		rjmp .L85
 783 039a 00C0      		rjmp .L90
 784               	.L78:
 785 039c 8530      		cpi r24,lo8(5)
 786 039e 01F0      		breq .L68
 787 03a0 8630      		cpi r24,lo8(6)
 788 03a2 00F4      		brsh .L69
 789 03a4 00C0      		rjmp .L91
 790               	.L77:
 791 03a6 8B30      		cpi r24,lo8(11)
 792 03a8 01F0      		breq .L73
 793 03aa 8C30      		cpi r24,lo8(12)
 794 03ac 00F4      		brsh .L79
GAS LISTING C:\Users\ADMINI~1\AppData\Local\Temp/ccnPzUe6.s 			page 15


 795 03ae 8930      		cpi r24,lo8(9)
 796 03b0 01F0      		breq .L71
 797 03b2 8A30      		cpi r24,lo8(10)
 798 03b4 01F0      		breq .+2
 799 03b6 00C0      		rjmp .L85
 800 03b8 00C0      		rjmp .L92
 801               	.L79:
 802 03ba 8E36      		cpi r24,lo8(110)
 803 03bc 01F4      		brne .+2
 804 03be 00C0      		rjmp .L75
 805 03c0 8837      		cpi r24,lo8(120)
 806 03c2 01F0      		breq .L76
 807 03c4 8436      		cpi r24,lo8(100)
 808 03c6 01F0      		breq .+2
 809 03c8 00C0      		rjmp .L85
 810 03ca 00C0      		rjmp .L74
 811               	.L64:
 812               	.LM119:
 813 03cc 80E0      		ldi r24,lo8(str_choose_layer)
 814 03ce 90E0      		ldi r25,hi8(str_choose_layer)
 815 03d0 0E94 0000 		call printStringFromFlash
 816               	.LM120:
 817 03d4 8091 0000 		lds r24,_currentLayer
 818 03d8 8F5F      		subi r24,lo8(-(1))
 819 03da 0E94 0000 		call toString
 820 03de 0E94 0000 		call printString
 821 03e2 00C0      		rjmp .L88
 822               	.L90:
 823               	.LM121:
 824 03e4 80E0      		ldi r24,lo8(str_choose_key)
 825 03e6 90E0      		ldi r25,hi8(str_choose_key)
 826 03e8 00C0      		rjmp .L89
 827               	.L66:
 828               	.LM122:
 829 03ea 80E0      		ldi r24,lo8(str_input_keycode)
 830 03ec 90E0      		ldi r25,hi8(str_input_keycode)
 831 03ee 00C0      		rjmp .L86
 832               	.L91:
 833               	.LM123:
 834 03f0 80E0      		ldi r24,lo8(str_save_end_mapping)
 835 03f2 90E0      		ldi r25,hi8(str_save_end_mapping)
 836 03f4 00C0      		rjmp .L87
 837               	.L68:
 838               	.LM124:
 839 03f6 80E0      		ldi r24,lo8(str_cancel_mapping)
 840 03f8 90E0      		ldi r25,hi8(str_cancel_mapping)
 841 03fa 00C0      		rjmp .L87
 842               	.L69:
 843               	.LM125:
 844 03fc 1092 0000 		sts _isWorkingForEmpty,__zero_reg__
 845 0400 00C0      		rjmp .L85
 846               	.L70:
 847               	.LM126:
 848 0402 80E0      		ldi r24,lo8(str_input_command)
 849 0404 90E0      		ldi r25,hi8(str_input_command)
 850               	.L86:
 851 0406 0E94 0000 		call printStringFromFlash
GAS LISTING C:\Users\ADMINI~1\AppData\Local\Temp/ccnPzUe6.s 			page 16


 852 040a 00C0      		rjmp .L85
 853               	.L71:
 854               	.LM127:
 855 040c 80E0      		ldi r24,lo8(str_select_number)
 856 040e 90E0      		ldi r25,hi8(str_select_number)
 857 0410 00C0      		rjmp .L86
 858               	.L92:
 859               	.LM128:
 860 0412 80E0      		ldi r24,lo8(str_exit_macro)
 861 0414 90E0      		ldi r25,hi8(str_exit_macro)
 862 0416 00C0      		rjmp .L87
 863               	.L73:
 864               	.LM129:
 865 0418 80E0      		ldi r24,lo8(str_input_macro)
 866 041a 90E0      		ldi r25,hi8(str_input_macro)
 867               	.L89:
 868 041c 0E94 0000 		call printStringFromFlash
 869               	.L88:
 870               	.LM130:
 871 0420 0E94 0000 		call printEnter
 872 0424 00C0      		rjmp .L85
 873               	.L76:
 874               	.LM131:
 875 0426 80E0      		ldi r24,lo8(str_boot_mapper)
 876 0428 90E0      		ldi r25,hi8(str_boot_mapper)
 877 042a 0E94 0000 		call printStringFromFlash
 878               	.LM132:
 879 042e 0E94 0000 		call printEnter
 880               	.LM133:
 881 0432 1092 0000 		sts _step,__zero_reg__
 882               	.LM134:
 883 0436 0E94 0000 		call setToBootMapper
 884 043a 00C0      		rjmp .L85
 885               	.L74:
 886               	.LM135:
 887 043c 80E0      		ldi r24,lo8(str_exit)
 888 043e 90E0      		ldi r25,hi8(str_exit)
 889               	.L87:
 890 0440 0E94 0000 		call printStringFromFlash
 891               	.LM136:
 892 0444 0E94 0000 		call printEnter
 893               	.LM137:
 894 0448 1092 0000 		sts _step,__zero_reg__
 895 044c 00C0      		rjmp .L85
 896               	.L75:
 897               	.LM138:
 898 044e 0E94 0000 		call printSelectMode
 899               	.L85:
 900 0452 88EE      		ldi r24,lo8(1000)
 901 0454 93E0      		ldi r25,hi8(1000)
 902               	.LVL30:
 903               	.LBB75:
 904               	.LBB76:
 905               	.LBB77:
 906               	.LBB78:
 907               	.LM139:
 908 0456 2CE2      		ldi r18,lo8(300)
GAS LISTING C:\Users\ADMINI~1\AppData\Local\Temp/ccnPzUe6.s 			page 17


 909 0458 31E0      		ldi r19,hi8(300)
 910               	.L82:
 911 045a F901      		movw r30,r18
 912               	.LVL31:
 913               	/* #APP */
 914               	 ;  105 "c:/winavr-20100110/lib/gcc/../../avr/include/util/delay_basic.h" 1
 915 045c 3197      		1: sbiw r30,1
 916 045e 01F4      		brne 1b
 917               	 ;  0 "" 2
 918               	/* #NOAPP */
 919               	.LBE78:
 920               	.LBE77:
 921               	.LM140:
 922 0460 0197      		sbiw r24,1
 923               	.LM141:
 924 0462 01F4      		brne .L82
 925               	/* epilogue start */
 926               	.LBE76:
 927               	.LBE75:
 928               	.LM142:
 929 0464 0895      		ret
 930               	.LFE31:
 931               		.size	printPrompt, .-printPrompt
 932               	.global	printMapperMessageAfter
 933               		.type	printMapperMessageAfter, @function
 934               	printMapperMessageAfter:
 935               	.LFB33:
 936               	.LM143:
 937               	/* prologue: function */
 938               	/* frame size = 0 */
 939               	.LM144:
 940 0466 0E94 0000 		call printEnter
 941               	.LM145:
 942 046a 80E0      		ldi r24,lo8(str_mapper_3)
 943 046c 90E0      		ldi r25,hi8(str_mapper_3)
 944 046e 0E94 0000 		call printStringFromFlash
 945               	.LM146:
 946 0472 0E94 0000 		call printEnter
 947               	.LM147:
 948 0476 80E0      		ldi r24,lo8(str_mapper_4)
 949 0478 90E0      		ldi r25,hi8(str_mapper_4)
 950 047a 0E94 0000 		call printStringFromFlash
 951               	.LM148:
 952 047e 0E94 0000 		call printEnter
 953               	.LM149:
 954 0482 80E0      		ldi r24,lo8(str_back_6)
 955 0484 90E0      		ldi r25,hi8(str_back_6)
 956 0486 0E94 0000 		call printStringFromFlash
 957               	.LM150:
 958 048a 0E94 0000 		call printEnter
 959               	.LM151:
 960 048e 80E0      		ldi r24,lo8(str_mapper_9)
 961 0490 90E0      		ldi r25,hi8(str_mapper_9)
 962 0492 0E94 0000 		call printStringFromFlash
 963               	.LM152:
 964 0496 0E94 0000 		call printEnter
 965               	.LM153:
GAS LISTING C:\Users\ADMINI~1\AppData\Local\Temp/ccnPzUe6.s 			page 18


 966 049a 87E0      		ldi r24,lo8(7)
 967 049c 8093 0000 		sts _step,r24
 968               	.LM154:
 969 04a0 0E94 0000 		call printPrompt
 970               	/* epilogue start */
 971               	.LM155:
 972 04a4 0895      		ret
 973               	.LFE33:
 974               		.size	printMapperMessageAfter, .-printMapperMessageAfter
 975               	.global	printSelectMode
 976               		.type	printSelectMode, @function
 977               	printSelectMode:
 978               	.LFB32:
 979               	.LM156:
 980               	/* prologue: function */
 981               	/* frame size = 0 */
 982               	.LM157:
 983 04a6 0E94 0000 		call printEnter
 984               	.LM158:
 985 04aa 80E0      		ldi r24,lo8(str_select_mode)
 986 04ac 90E0      		ldi r25,hi8(str_select_mode)
 987 04ae 0E94 0000 		call printStringFromFlash
 988               	.LM159:
 989 04b2 0E94 0000 		call printEnter
 990               	.LM160:
 991 04b6 80E0      		ldi r24,lo8(str_select_mode1)
 992 04b8 90E0      		ldi r25,hi8(str_select_mode1)
 993 04ba 0E94 0000 		call printStringFromFlash
 994               	.LM161:
 995 04be 0E94 0000 		call printEnter
 996               	.LM162:
 997 04c2 80E0      		ldi r24,lo8(str_select_mode2)
 998 04c4 90E0      		ldi r25,hi8(str_select_mode2)
 999 04c6 0E94 0000 		call printStringFromFlash
 1000               	.LM163:
 1001 04ca 0E94 0000 		call printEnter
 1002               	.LM164:
 1003 04ce 80E0      		ldi r24,lo8(str_select_mode3)
 1004 04d0 90E0      		ldi r25,hi8(str_select_mode3)
 1005 04d2 0E94 0000 		call printStringFromFlash
 1006               	.LM165:
 1007 04d6 0E94 0000 		call printEnter
 1008               	.LM166:
 1009 04da 80E0      		ldi r24,lo8(str_select_mode4)
 1010 04dc 90E0      		ldi r25,hi8(str_select_mode4)
 1011 04de 0E94 0000 		call printStringFromFlash
 1012               	.LM167:
 1013 04e2 0E94 0000 		call printEnter
 1014               	.LM168:
 1015 04e6 88E0      		ldi r24,lo8(8)
 1016 04e8 8093 0000 		sts _step,r24
 1017               	.LM169:
 1018 04ec 0E94 0000 		call printPrompt
 1019               	/* epilogue start */
 1020               	.LM170:
 1021 04f0 0895      		ret
 1022               	.LFE32:
GAS LISTING C:\Users\ADMINI~1\AppData\Local\Temp/ccnPzUe6.s 			page 19


 1023               		.size	printSelectMode, .-printSelectMode
 1024               	.global	clearMacroAfter
 1025               		.type	clearMacroAfter, @function
 1026               	clearMacroAfter:
 1027               	.LFB44:
 1028               	.LM171:
 1029 04f2 CF93      		push r28
 1030 04f4 DF93      		push r29
 1031               	/* prologue: function */
 1032               	/* frame size = 0 */
 1033               	.LM172:
 1034 04f6 C5EA      		ldi r28,lo8(421)
 1035 04f8 D1E0      		ldi r29,hi8(421)
 1036               	.L98:
 1037               	.LM173:
 1038 04fa CE01      		movw r24,r28
 1039 04fc 60E0      		ldi r22,lo8(0)
 1040 04fe 0E94 0000 		call __eewr_byte_m32
 1041 0502 2196      		adiw r28,1
 1042               	.LM174:
 1043 0504 83E0      		ldi r24,hi8(997)
 1044 0506 C53E      		cpi r28,lo8(997)
 1045 0508 D807      		cpc r29,r24
 1046 050a 01F4      		brne .L98
 1047               	.LM175:
 1048 050c 87E0      		ldi r24,lo8(7)
 1049 050e 8093 0000 		sts _step,r24
 1050               	.LM176:
 1051 0512 0E94 0000 		call printPrompt
 1052               	/* epilogue start */
 1053               	.LM177:
 1054 0516 DF91      		pop r29
 1055 0518 CF91      		pop r28
 1056 051a 0895      		ret
 1057               	.LFE44:
 1058               		.size	clearMacroAfter, .-clearMacroAfter
 1059               	.global	saveMacro
 1060               		.type	saveMacro, @function
 1061               	saveMacro:
 1062               	.LFB43:
 1063               	.LM178:
 1064 051c 1F93      		push r17
 1065 051e CF93      		push r28
 1066 0520 DF93      		push r29
 1067               	/* prologue: function */
 1068               	/* frame size = 0 */
 1069               	.LM179:
 1070 0522 8091 0000 		lds r24,_macroIndex
 1071 0526 8C30      		cpi r24,lo8(12)
 1072 0528 00F4      		brsh .L104
 1073 052a C0E0      		ldi r28,lo8(0)
 1074 052c D0E0      		ldi r29,hi8(0)
 1075               	.LM180:
 1076 052e 10E3      		ldi r17,lo8(48)
 1077               	.L103:
 1078 0530 8091 0000 		lds r24,_macroIndex
 1079 0534 819F      		mul r24,r17
GAS LISTING C:\Users\ADMINI~1\AppData\Local\Temp/ccnPzUe6.s 			page 20


 1080 0536 C001      		movw r24,r0
 1081 0538 1124      		clr r1
 1082 053a 8B55      		subi r24,lo8(-(421))
 1083 053c 9E4F      		sbci r25,hi8(-(421))
 1084 053e FE01      		movw r30,r28
 1085 0540 E050      		subi r30,lo8(-(_macroInputBuffer))
 1086 0542 F040      		sbci r31,hi8(-(_macroInputBuffer))
 1087 0544 8C0F      		add r24,r28
 1088 0546 9D1F      		adc r25,r29
 1089 0548 6081      		ld r22,Z
 1090 054a 0E94 0000 		call __eewr_byte_m32
 1091 054e 2196      		adiw r28,1
 1092               	.LM181:
 1093 0550 C033      		cpi r28,48
 1094 0552 D105      		cpc r29,__zero_reg__
 1095 0554 01F4      		brne .L103
 1096               	.LM182:
 1097 0556 8FEF      		ldi r24,lo8(-1)
 1098 0558 8093 0000 		sts _macroIndex,r24
 1099               	.L104:
 1100               	/* epilogue start */
 1101               	.LM183:
 1102 055c DF91      		pop r29
 1103 055e CF91      		pop r28
 1104 0560 1F91      		pop r17
 1105 0562 0895      		ret
 1106               	.LFE43:
 1107               		.size	saveMacro, .-saveMacro
 1108               	.global	readMacro
 1109               		.type	readMacro, @function
 1110               	readMacro:
 1111               	.LFB42:
 1112               	.LM184:
 1113               	.LVL32:
 1114 0564 0F93      		push r16
 1115 0566 1F93      		push r17
 1116 0568 CF93      		push r28
 1117 056a DF93      		push r29
 1118               	/* prologue: function */
 1119               	/* frame size = 0 */
 1120 056c 982F      		mov r25,r24
 1121               	.LM185:
 1122 056e 8C30      		cpi r24,lo8(12)
 1123 0570 00F4      		brsh .L110
 1124               	.LM186:
 1125 0572 80E3      		ldi r24,lo8(48)
 1126               	.LVL33:
 1127 0574 989F      		mul r25,r24
 1128 0576 C001      		movw r24,r0
 1129 0578 1124      		clr r1
 1130 057a EC01      		movw r28,r24
 1131 057c CB55      		subi r28,lo8(-(421))
 1132 057e DE4F      		sbci r29,hi8(-(421))
 1133               	.LM187:
 1134 0580 8C01      		movw r16,r24
 1135 0582 0B52      		subi r16,lo8(-(469))
 1136 0584 1E4F      		sbci r17,hi8(-(469))
GAS LISTING C:\Users\ADMINI~1\AppData\Local\Temp/ccnPzUe6.s 			page 21


 1137               	.LVL34:
 1138               	.L109:
 1139               	.LM188:
 1140 0586 CE01      		movw r24,r28
 1141 0588 0E94 0000 		call __eerd_byte_m32
 1142               	.LVL35:
 1143 058c 982F      		mov r25,r24
 1144               	.LVL36:
 1145               	.LM189:
 1146 058e 8150      		subi r24,lo8(-(-1))
 1147 0590 8E3F      		cpi r24,lo8(-2)
 1148 0592 00F4      		brsh .L108
 1149               	.LM190:
 1150 0594 892F      		mov r24,r25
 1151 0596 0E94 0000 		call pushM
 1152               	.LVL37:
 1153               	.L108:
 1154 059a 2196      		adiw r28,1
 1155               	.LM191:
 1156 059c C017      		cp r28,r16
 1157 059e D107      		cpc r29,r17
 1158 05a0 01F4      		brne .L109
 1159               	.LVL38:
 1160               	.L110:
 1161               	/* epilogue start */
 1162               	.LM192:
 1163 05a2 DF91      		pop r29
 1164 05a4 CF91      		pop r28
 1165 05a6 1F91      		pop r17
 1166 05a8 0F91      		pop r16
 1167 05aa 0895      		ret
 1168               	.LFE42:
 1169               		.size	readMacro, .-readMacro
 1170               	.global	loadCurrentLayer
 1171               		.type	loadCurrentLayer, @function
 1172               	loadCurrentLayer:
 1173               	.LFB37:
 1174               	.LM193:
 1175 05ac CF92      		push r12
 1176 05ae DF92      		push r13
 1177 05b0 EF92      		push r14
 1178 05b2 FF92      		push r15
 1179 05b4 0F93      		push r16
 1180 05b6 1F93      		push r17
 1181 05b8 CF93      		push r28
 1182 05ba DF93      		push r29
 1183               	/* prologue: function */
 1184               	/* frame size = 0 */
 1185               	.LM194:
 1186 05bc 9091 0000 		lds r25,_currentLayer
 1187 05c0 88E8      		ldi r24,lo8(-120)
 1188 05c2 989F      		mul r25,r24
 1189 05c4 7001      		movw r14,r0
 1190 05c6 1124      		clr r1
 1191 05c8 8DE0      		ldi r24,lo8(13)
 1192 05ca 90E0      		ldi r25,hi8(13)
 1193 05cc E80E      		add r14,r24
GAS LISTING C:\Users\ADMINI~1\AppData\Local\Temp/ccnPzUe6.s 			page 22


 1194 05ce F91E      		adc r15,r25
 1195 05d0 CC24      		clr r12
 1196 05d2 DD24      		clr r13
 1197 05d4 00C0      		rjmp .L113
 1198               	.L114:
 1199               	.LM195:
 1200 05d6 CE01      		movw r24,r28
 1201 05d8 8E0D      		add r24,r14
 1202 05da 9F1D      		adc r25,r15
 1203 05dc 0E94 0000 		call __eerd_byte_m32
 1204 05e0 F801      		movw r30,r16
 1205 05e2 8193      		st Z+,r24
 1206 05e4 8F01      		movw r16,r30
 1207 05e6 2196      		adiw r28,1
 1208               	.LM196:
 1209 05e8 C830      		cpi r28,8
 1210 05ea D105      		cpc r29,__zero_reg__
 1211 05ec 01F4      		brne .L114
 1212 05ee 0894      		sec
 1213 05f0 C11C      		adc r12,__zero_reg__
 1214 05f2 D11C      		adc r13,__zero_reg__
 1215 05f4 88E0      		ldi r24,lo8(8)
 1216 05f6 90E0      		ldi r25,hi8(8)
 1217 05f8 E80E      		add r14,r24
 1218 05fa F91E      		adc r15,r25
 1219               	.LM197:
 1220 05fc 91E1      		ldi r25,lo8(17)
 1221 05fe C916      		cp r12,r25
 1222 0600 D104      		cpc r13,__zero_reg__
 1223 0602 01F0      		breq .L115
 1224               	.L113:
 1225 0604 8601      		movw r16,r12
 1226 0606 63E0      		ldi r22,3
 1227 0608 000F      	1:	lsl r16
 1228 060a 111F      		rol r17
 1229 060c 6A95      		dec r22
 1230 060e 01F4      		brne 1b
 1231 0610 0050      		subi r16,lo8(-(_newKeyMap))
 1232 0612 1040      		sbci r17,hi8(-(_newKeyMap))
 1233 0614 C0E0      		ldi r28,lo8(0)
 1234 0616 D0E0      		ldi r29,hi8(0)
 1235 0618 00C0      		rjmp .L114
 1236               	.L115:
 1237               	.LM198:
 1238 061a 1092 0000 		sts (_editCount)+1,__zero_reg__
 1239 061e 1092 0000 		sts _editCount,__zero_reg__
 1240               	/* epilogue start */
 1241               	.LM199:
 1242 0622 DF91      		pop r29
 1243 0624 CF91      		pop r28
 1244 0626 1F91      		pop r17
 1245 0628 0F91      		pop r16
 1246 062a FF90      		pop r15
 1247 062c EF90      		pop r14
 1248 062e DF90      		pop r13
 1249 0630 CF90      		pop r12
 1250 0632 0895      		ret
GAS LISTING C:\Users\ADMINI~1\AppData\Local\Temp/ccnPzUe6.s 			page 23


 1251               	.LFE37:
 1252               		.size	loadCurrentLayer, .-loadCurrentLayer
 1253               		.data
 1254               	.LC2:
 1255 0022 646F 776E 		.string	"down _macroDownCount : %d xKeyidx : %d \n"
 1255      205F 6D61 
 1255      6372 6F44 
 1255      6F77 6E43 
 1255      6F75 6E74 
 1256               	.LC3:
 1257 004b 7570 2069 		.string	"up idx : %d, buffer len : %d \n"
 1257      6478 203A 
 1257      2025 642C 
 1257      2062 7566 
 1257      6665 7220 
 1258               	.LC4:
 1259 006a 2020 2020 		.ascii	"      "
 1259      2020 
 1260 0070 2020 2020 		.string	"                                        _macroBufferIndex : %d \n"
 1260      2020 2020 
 1260      2020 2020 
 1260      2020 2020 
 1260      2020 2020 
 1261               	.LC5:
 1262 00b1 2E2E 2E2E 		.string	".......................... macro input end "
 1262      2E2E 2E2E 
 1262      2E2E 2E2E 
 1262      2E2E 2E2E 
 1262      2E2E 2E2E 
 1263               	.LC6:
 1264 00dd 2564 00   		.string	"%d"
 1265               	.LC7:
 1266 00e0 2C20 00   		.string	", "
 1267               	.LC8:
 1268 00e3 2028 6C61 		.string	" (layer="
 1268      7965 723D 
 1268      00
 1269               	.LC9:
 1270 00ec 2064 6566 		.string	" default="
 1270      6175 6C74 
 1270      3D00 
 1271               	.LC10:
 1272 00f6 206D 6170 		.string	" mapping="
 1272      7069 6E67 
 1272      3D00 
 1273               	.LC11:
 1274 0100 2900      		.string	")"
 1275               		.text
 1276               	.global	putKeyCode
 1277               		.type	putKeyCode, @function
 1278               	putKeyCode:
 1279               	.LFB49:
 1280               	.LM200:
 1281               	.LVL39:
 1282 0634 AF92      		push r10
 1283 0636 BF92      		push r11
 1284 0638 CF92      		push r12
GAS LISTING C:\Users\ADMINI~1\AppData\Local\Temp/ccnPzUe6.s 			page 24


 1285 063a DF92      		push r13
 1286 063c EF92      		push r14
 1287 063e FF92      		push r15
 1288 0640 0F93      		push r16
 1289 0642 1F93      		push r17
 1290 0644 DF93      		push r29
 1291 0646 CF93      		push r28
 1292 0648 00D0      		rcall .
 1293 064a 0F92      		push __tmp_reg__
 1294 064c CDB7      		in r28,__SP_L__
 1295 064e DEB7      		in r29,__SP_H__
 1296               	/* prologue: function */
 1297               	/* frame size = 3 */
 1298 0650 F62E      		mov r15,r22
 1299 0652 E42E      		mov r14,r20
 1300 0654 A22E      		mov r10,r18
 1301               	.LM201:
 1302 0656 0E94 0000 		call getDualActionDownKeyIdex
 1303               	.LVL40:
 1304 065a B82E      		mov r11,r24
 1305               	.LVL41:
 1306               	.LM202:
 1307 065c 84ED      		ldi r24,lo8(-44)
 1308 065e 8B15      		cp r24,r11
 1309 0660 00F4      		brsh .+2
 1310 0662 00C0      		rjmp .L160
 1311               	.LM203:
 1312 0664 8091 0000 		lds r24,_isWorkingForEmpty
 1313 0668 8823      		tst r24
 1314 066a 01F0      		breq .+2
 1315 066c 00C0      		rjmp .L160
 1316               	.LM204:
 1317 066e 8091 0000 		lds r24,_step
 1318 0672 8B30      		cpi r24,lo8(11)
 1319 0674 01F0      		breq .L120
 1320 0676 AA20      		tst r10
 1321 0678 01F0      		breq .+2
 1322 067a 00C0      		rjmp .L160
 1323               	.L120:
 1324               	.LM205:
 1325 067c 80E0      		ldi r24,lo8(usingKeys)
 1326 067e 90E0      		ldi r25,hi8(usingKeys)
 1327 0680 6BE0      		ldi r22,lo8(11)
 1328 0682 4B2D      		mov r20,r11
 1329 0684 0E94 0000 		call findIndex
 1330 0688 6C01      		movw r12,r24
 1331               	.LVL42:
 1332               	.LM206:
 1333 068a 9091 0000 		lds r25,_step
 1334 068e 9B30      		cpi r25,lo8(11)
 1335 0690 01F0      		breq .+2
 1336 0692 00C0      		rjmp .L121
 1337               	.LM207:
 1338 0694 8091 0000 		lds r24,_isTiredEscapeKey
 1339 0698 8823      		tst r24
 1340 069a 01F0      		breq .L122
 1341               	.LM208:
GAS LISTING C:\Users\ADMINI~1\AppData\Local\Temp/ccnPzUe6.s 			page 25


 1342 069c 1092 0000 		sts _isPressedEscapeKey,__zero_reg__
 1343               	.LM209:
 1344 06a0 1092 0000 		sts _isTiredEscapeKey,__zero_reg__
 1345               	.LM210:
 1346 06a4 8B2D      		mov r24,r11
 1347 06a6 0E94 0000 		call pushM
 1348               	.LM211:
 1349 06aa E091 0000 		lds r30,_macroBufferIndex
 1350 06ae F0E0      		ldi r31,lo8(0)
 1351 06b0 E050      		subi r30,lo8(-(_macroInputBuffer-1))
 1352 06b2 F040      		sbci r31,hi8(-(_macroInputBuffer-1))
 1353 06b4 1082      		st Z,__zero_reg__
 1354               	.LM212:
 1355 06b6 0E94 0000 		call saveMacro
 1356               	.LM213:
 1357 06ba 87E0      		ldi r24,lo8(7)
 1358 06bc 8093 0000 		sts _step,r24
 1359 06c0 00C0      		rjmp .L169
 1360               	.L122:
 1361               	.LM214:
 1362 06c2 AA20      		tst r10
 1363 06c4 01F0      		breq .L123
 1364               	.LM215:
 1365 06c6 2091 0000 		lds r18,_macroDownCount
 1366 06ca 2831      		cpi r18,lo8(24)
 1367 06cc 00F0      		brlo .+2
 1368 06ce 00C0      		rjmp .L160
 1369               	.LM216:
 1370 06d0 2F5F      		subi r18,lo8(-(1))
 1371 06d2 2093 0000 		sts _macroDownCount,r18
 1372               	.LM217:
 1373 06d6 00D0      		rcall .
 1374 06d8 00D0      		rcall .
 1375 06da 00D0      		rcall .
 1376 06dc EDB7      		in r30,__SP_L__
 1377 06de FEB7      		in r31,__SP_H__
 1378 06e0 3196      		adiw r30,1
 1379 06e2 80E0      		ldi r24,lo8(.LC2)
 1380 06e4 90E0      		ldi r25,hi8(.LC2)
 1381 06e6 ADB7      		in r26,__SP_L__
 1382 06e8 BEB7      		in r27,__SP_H__
 1383 06ea 1296      		adiw r26,1+1
 1384 06ec 9C93      		st X,r25
 1385 06ee 8E93      		st -X,r24
 1386 06f0 1197      		sbiw r26,1
 1387 06f2 2283      		std Z+2,r18
 1388 06f4 1382      		std Z+3,__zero_reg__
 1389 06f6 B482      		std Z+4,r11
 1390 06f8 1582      		std Z+5,__zero_reg__
 1391 06fa 0E94 0000 		call printf
 1392               	.LM218:
 1393 06fe EDB7      		in r30,__SP_L__
 1394 0700 FEB7      		in r31,__SP_H__
 1395 0702 3696      		adiw r30,6
 1396 0704 0FB6      		in __tmp_reg__,__SREG__
 1397 0706 F894      		cli
 1398 0708 FEBF      		out __SP_H__,r31
GAS LISTING C:\Users\ADMINI~1\AppData\Local\Temp/ccnPzUe6.s 			page 26


 1399 070a 0FBE      		out __SREG__,__tmp_reg__
 1400 070c EDBF      		out __SP_L__,r30
 1401 070e 80E0      		ldi r24,lo8(_macroPressedBuffer)
 1402 0710 90E0      		ldi r25,hi8(_macroPressedBuffer)
 1403 0712 6B2D      		mov r22,r11
 1404 0714 0E94 0000 		call append
 1405 0718 00C0      		rjmp .L124
 1406               	.L123:
 1407               	.LM219:
 1408 071a B0E0      		ldi r27,lo8(_macroPressedBuffer)
 1409 071c EB2E      		mov r14,r27
 1410 071e B0E0      		ldi r27,hi8(_macroPressedBuffer)
 1411 0720 FB2E      		mov r15,r27
 1412               	.LVL43:
 1413 0722 F701      		movw r30,r14
 1414 0724 0190      		ld __tmp_reg__,Z+
 1415 0726 0020      		tst __tmp_reg__
 1416 0728 01F4      		brne .-6
 1417 072a 3197      		sbiw r30,1
 1418 072c EE19      		sub r30,r14
 1419 072e FF09      		sbc r31,r15
 1420               	.LM220:
 1421 0730 C701      		movw r24,r14
 1422 0732 6E2F      		mov r22,r30
 1423 0734 4B2D      		mov r20,r11
 1424 0736 0E94 0000 		call findIndex
 1425 073a 8C01      		movw r16,r24
 1426               	.LVL44:
 1427               	.LM221:
 1428 073c FFEF      		ldi r31,hi8(-1)
 1429 073e 8F3F      		cpi r24,lo8(-1)
 1430 0740 9F07      		cpc r25,r31
 1431 0742 01F4      		brne .+2
 1432 0744 00C0      		rjmp .L160
 1433               	.LVL45:
 1434               	.LM222:
 1435 0746 C701      		movw r24,r14
 1436               	.LVL46:
 1437 0748 B801      		movw r22,r16
 1438 074a 0E94 0000 		call delete
 1439               	.LM223:
 1440 074e D701      		movw r26,r14
 1441 0750 0D90      		ld __tmp_reg__,X+
 1442 0752 0020      		tst __tmp_reg__
 1443 0754 01F4      		brne .-6
 1444 0756 1197      		sbiw r26,1
 1445 0758 AE19      		sub r26,r14
 1446 075a BF09      		sbc r27,r15
 1447 075c 00D0      		rcall .
 1448 075e 00D0      		rcall .
 1449 0760 00D0      		rcall .
 1450 0762 2DB7      		in r18,__SP_L__
 1451 0764 3EB7      		in r19,__SP_H__
 1452 0766 2F5F      		subi r18,lo8(-(1))
 1453 0768 3F4F      		sbci r19,hi8(-(1))
 1454 076a 80E0      		ldi r24,lo8(.LC3)
 1455 076c 90E0      		ldi r25,hi8(.LC3)
GAS LISTING C:\Users\ADMINI~1\AppData\Local\Temp/ccnPzUe6.s 			page 27


 1456 076e EDB7      		in r30,__SP_L__
 1457 0770 FEB7      		in r31,__SP_H__
 1458 0772 9283      		std Z+2,r25
 1459 0774 8183      		std Z+1,r24
 1460 0776 F901      		movw r30,r18
 1461 0778 1383      		std Z+3,r17
 1462 077a 0283      		std Z+2,r16
 1463 077c B583      		std Z+5,r27
 1464 077e A483      		std Z+4,r26
 1465 0780 0E94 0000 		call printf
 1466 0784 8DB7      		in r24,__SP_L__
 1467 0786 9EB7      		in r25,__SP_H__
 1468 0788 0696      		adiw r24,6
 1469 078a 0FB6      		in __tmp_reg__,__SREG__
 1470 078c F894      		cli
 1471 078e 9EBF      		out __SP_H__,r25
 1472 0790 0FBE      		out __SREG__,__tmp_reg__
 1473 0792 8DBF      		out __SP_L__,r24
 1474               	.LVL47:
 1475               	.L124:
 1476               	.LM224:
 1477 0794 8091 0000 		lds r24,_macroBufferIndex
 1478 0798 E82F      		mov r30,r24
 1479 079a F0E0      		ldi r31,lo8(0)
 1480 079c E050      		subi r30,lo8(-(_macroInputBuffer))
 1481 079e F040      		sbci r31,hi8(-(_macroInputBuffer))
 1482 07a0 B082      		st Z,r11
 1483               	.LM225:
 1484 07a2 8F5F      		subi r24,lo8(-(1))
 1485 07a4 8093 0000 		sts _macroBufferIndex,r24
 1486               	.LM226:
 1487 07a8 8B2D      		mov r24,r11
 1488 07aa 0E94 0000 		call pushM
 1489               	.LM227:
 1490 07ae 00D0      		rcall .
 1491 07b0 00D0      		rcall .
 1492 07b2 EDB7      		in r30,__SP_L__
 1493 07b4 FEB7      		in r31,__SP_H__
 1494 07b6 3196      		adiw r30,1
 1495 07b8 80E0      		ldi r24,lo8(.LC4)
 1496 07ba 90E0      		ldi r25,hi8(.LC4)
 1497 07bc ADB7      		in r26,__SP_L__
 1498 07be BEB7      		in r27,__SP_H__
 1499 07c0 1296      		adiw r26,1+1
 1500 07c2 9C93      		st X,r25
 1501 07c4 8E93      		st -X,r24
 1502 07c6 1197      		sbiw r26,1
 1503 07c8 8091 0000 		lds r24,_macroBufferIndex
 1504 07cc 8283      		std Z+2,r24
 1505 07ce 1382      		std Z+3,__zero_reg__
 1506 07d0 0E94 0000 		call printf
 1507               	.LM228:
 1508 07d4 0F90      		pop __tmp_reg__
 1509 07d6 0F90      		pop __tmp_reg__
 1510 07d8 0F90      		pop __tmp_reg__
 1511 07da 0F90      		pop __tmp_reg__
 1512 07dc 8091 0000 		lds r24,_macroBufferIndex
GAS LISTING C:\Users\ADMINI~1\AppData\Local\Temp/ccnPzUe6.s 			page 28


 1513 07e0 8033      		cpi r24,lo8(48)
 1514 07e2 00F0      		brlo .L125
 1515               	.LM229:
 1516 07e4 87E0      		ldi r24,lo8(7)
 1517 07e6 8093 0000 		sts _step,r24
 1518               	.LM230:
 1519 07ea 80E0      		ldi r24,lo8(.LC5)
 1520 07ec 90E0      		ldi r25,hi8(.LC5)
 1521 07ee 0E94 0000 		call puts
 1522               	.LM231:
 1523 07f2 0E94 0000 		call saveMacro
 1524 07f6 00C0      		rjmp .L169
 1525               	.L125:
 1526               	.LM232:
 1527 07f8 AA20      		tst r10
 1528 07fa 01F0      		breq .L126
 1529 07fc E0E0      		ldi r30,lo8(usingKeys)
 1530 07fe F0E0      		ldi r31,hi8(usingKeys)
 1531 0800 CE0E      		add r12,r30
 1532 0802 DF1E      		adc r13,r31
 1533 0804 D601      		movw r26,r12
 1534 0806 8C91      		ld r24,X
 1535 0808 8932      		cpi r24,lo8(41)
 1536 080a 01F4      		brne .L126
 1537               	.LM233:
 1538 080c 81E0      		ldi r24,lo8(1)
 1539 080e 8093 0000 		sts _isPressedEscapeKey,r24
 1540               	.LM234:
 1541 0812 1092 0000 		sts (_pressedEscapeKeyCount)+1,__zero_reg__
 1542 0816 1092 0000 		sts _pressedEscapeKeyCount,__zero_reg__
 1543 081a 00C0      		rjmp .L160
 1544               	.L126:
 1545               	.LM235:
 1546 081c 1092 0000 		sts _isPressedEscapeKey,__zero_reg__
 1547               	.LM236:
 1548 0820 1092 0000 		sts _isTiredEscapeKey,__zero_reg__
 1549 0824 00C0      		rjmp .L160
 1550               	.LVL48:
 1551               	.L121:
 1552               	.LM237:
 1553 0826 892F      		mov r24,r25
 1554 0828 8750      		subi r24,lo8(-(-7))
 1555 082a 8230      		cpi r24,lo8(2)
 1556 082c 00F0      		brlo .+2
 1557 082e 00C0      		rjmp .L127
 1558               	.LM238:
 1559 0830 BAE0      		ldi r27,lo8(10)
 1560 0832 CB16      		cp r12,r27
 1561 0834 D104      		cpc r13,__zero_reg__
 1562 0836 00F0      		brlo .+2
 1563 0838 00C0      		rjmp .L160
 1564               	.LM239:
 1565 083a E091 0000 		lds r30,_bufferIndex
 1566 083e F0E0      		ldi r31,lo8(0)
 1567 0840 E050      		subi r30,lo8(-(_buffer))
 1568 0842 F040      		sbci r31,hi8(-(_buffer))
 1569 0844 C082      		st Z,r12
GAS LISTING C:\Users\ADMINI~1\AppData\Local\Temp/ccnPzUe6.s 			page 29


 1570               	.LM240:
 1571 0846 00D0      		rcall .
 1572 0848 00D0      		rcall .
 1573 084a 00D0      		rcall .
 1574 084c EDB7      		in r30,__SP_L__
 1575 084e FEB7      		in r31,__SP_H__
 1576 0850 3196      		adiw r30,1
 1577 0852 8E01      		movw r16,r28
 1578 0854 0F5F      		subi r16,lo8(-(1))
 1579 0856 1F4F      		sbci r17,hi8(-(1))
 1580 0858 ADB7      		in r26,__SP_L__
 1581 085a BEB7      		in r27,__SP_H__
 1582 085c 1296      		adiw r26,1+1
 1583 085e 1C93      		st X,r17
 1584 0860 0E93      		st -X,r16
 1585 0862 1197      		sbiw r26,1
 1586 0864 80E0      		ldi r24,lo8(.LC6)
 1587 0866 90E0      		ldi r25,hi8(.LC6)
 1588 0868 9383      		std Z+3,r25
 1589 086a 8283      		std Z+2,r24
 1590 086c D582      		std Z+5,r13
 1591 086e C482      		std Z+4,r12
 1592 0870 0E94 0000 		call sprintf
 1593               	.LM241:
 1594 0874 EDB7      		in r30,__SP_L__
 1595 0876 FEB7      		in r31,__SP_H__
 1596 0878 3696      		adiw r30,6
 1597 087a 0FB6      		in __tmp_reg__,__SREG__
 1598 087c F894      		cli
 1599 087e FEBF      		out __SP_H__,r31
 1600 0880 0FBE      		out __SREG__,__tmp_reg__
 1601 0882 EDBF      		out __SP_L__,r30
 1602 0884 C801      		movw r24,r16
 1603 0886 0E94 0000 		call printString
 1604               	.LM242:
 1605 088a 0E94 0000 		call printEnter
 1606               	.LM243:
 1607 088e 0091 0000 		lds r16,_buffer
 1608               	.LVL49:
 1609               	.LM244:
 1610 0892 8091 0000 		lds r24,_step
 1611 0896 8830      		cpi r24,lo8(8)
 1612 0898 01F4      		brne .L128
 1613               	.LM245:
 1614 089a 0130      		cpi r16,lo8(1)
 1615 089c 01F4      		brne .L129
 1616               	.LM246:
 1617 089e 0093 0000 		sts _mode,r16
 1618               	.LBB79:
 1619               	.LBB80:
 1620               	.LM247:
 1621 08a2 0E94 0000 		call printEnter
 1622               	.LM248:
 1623 08a6 80E0      		ldi r24,lo8(str_mapper_message)
 1624 08a8 90E0      		ldi r25,hi8(str_mapper_message)
 1625 08aa 0E94 0000 		call printStringFromFlash
 1626               	.LM249:
GAS LISTING C:\Users\ADMINI~1\AppData\Local\Temp/ccnPzUe6.s 			page 30


 1627 08ae 0E94 0000 		call printEnter
 1628               	.LM250:
 1629 08b2 80E0      		ldi r24,lo8(str_mapper_1)
 1630 08b4 90E0      		ldi r25,hi8(str_mapper_1)
 1631 08b6 0E94 0000 		call printStringFromFlash
 1632               	.LM251:
 1633 08ba 0E94 0000 		call printEnter
 1634               	.LM252:
 1635 08be 80E0      		ldi r24,lo8(str_mapper_2)
 1636 08c0 90E0      		ldi r25,hi8(str_mapper_2)
 1637 08c2 0E94 0000 		call printStringFromFlash
 1638               	.LM253:
 1639 08c6 0093 0000 		sts _isWorkingForEmpty,r16
 1640               	.LM254:
 1641 08ca 8AE0      		ldi r24,lo8(10)
 1642 08cc 8093 0000 		sts _wait,r24
 1643               	.LM255:
 1644 08d0 1092 0000 		sts _step,__zero_reg__
 1645 08d4 00C0      		rjmp .L166
 1646               	.L129:
 1647               	.LBE80:
 1648               	.LBE79:
 1649               	.LM256:
 1650 08d6 0230      		cpi r16,lo8(2)
 1651 08d8 01F4      		brne .L131
 1652               	.LM257:
 1653 08da 0093 0000 		sts _mode,r16
 1654               	.LM258:
 1655 08de 0E94 0000 		call printMacroMessage
 1656 08e2 00C0      		rjmp .L166
 1657               	.L131:
 1658               	.LM259:
 1659 08e4 0330      		cpi r16,lo8(3)
 1660 08e6 01F4      		brne .L132
 1661               	.LM260:
 1662 08e8 0093 0000 		sts _mode,r16
 1663               	.LM261:
 1664 08ec 84E6      		ldi r24,lo8(100)
 1665 08ee 00C0      		rjmp .L165
 1666               	.L132:
 1667               	.LM262:
 1668 08f0 0430      		cpi r16,lo8(4)
 1669 08f2 01F0      		breq .+2
 1670 08f4 00C0      		rjmp .L166
 1671               	.LM263:
 1672 08f6 0093 0000 		sts _mode,r16
 1673               	.LM264:
 1674 08fa 88E7      		ldi r24,lo8(120)
 1675 08fc 00C0      		rjmp .L165
 1676               	.L128:
 1677               	.LM265:
 1678 08fe 0630      		cpi r16,lo8(6)
 1679 0900 01F4      		brne .L133
 1680               	.LM266:
 1681 0902 8EE6      		ldi r24,lo8(110)
 1682 0904 8093 0000 		sts _step,r24
 1683               	.L133:
GAS LISTING C:\Users\ADMINI~1\AppData\Local\Temp/ccnPzUe6.s 			page 31


 1684               	.LM267:
 1685 0908 8091 0000 		lds r24,_mode
 1686 090c 8130      		cpi r24,lo8(1)
 1687 090e 01F4      		brne .L134
 1688               	.LM268:
 1689 0910 0130      		cpi r16,lo8(1)
 1690 0912 01F0      		breq .L163
 1691               	.L135:
 1692               	.LM269:
 1693 0914 0230      		cpi r16,lo8(2)
 1694 0916 01F4      		brne .L136
 1695               	.L163:
 1696               	.LM270:
 1697 0918 0093 0000 		sts _step,r16
 1698 091c 00C0      		rjmp .L166
 1699               	.L136:
 1700               	.LM271:
 1701 091e 0330      		cpi r16,lo8(3)
 1702 0920 01F4      		brne .L137
 1703               	.LM272:
 1704 0922 84E0      		ldi r24,lo8(4)
 1705 0924 8093 0000 		sts _step,r24
 1706               	.LM273:
 1707 0928 0E94 0000 		call saveCurrentLayer
 1708 092c 00C0      		rjmp .L166
 1709               	.L137:
 1710               	.LM274:
 1711 092e 0430      		cpi r16,lo8(4)
 1712 0930 01F4      		brne .L138
 1713               	.LM275:
 1714 0932 85E0      		ldi r24,lo8(5)
 1715 0934 00C0      		rjmp .L165
 1716               	.L138:
 1717               	.LM276:
 1718 0936 0930      		cpi r16,lo8(9)
 1719 0938 01F0      		breq .+2
 1720 093a 00C0      		rjmp .L166
 1721               	.LM277:
 1722 093c 0E94 0000 		call resetCurrentLayer
 1723 0940 00C0      		rjmp .L170
 1724               	.L134:
 1725               	.LM278:
 1726 0942 8230      		cpi r24,lo8(2)
 1727 0944 01F0      		breq .+2
 1728 0946 00C0      		rjmp .L166
 1729               	.LM279:
 1730 0948 0130      		cpi r16,lo8(1)
 1731 094a 01F4      		brne .L139
 1732               	.LM280:
 1733 094c 89E0      		ldi r24,lo8(9)
 1734 094e 00C0      		rjmp .L167
 1735               	.L139:
 1736               	.LM281:
 1737 0950 0230      		cpi r16,lo8(2)
 1738 0952 01F4      		brne .L140
 1739               	.LM282:
 1740 0954 8AE0      		ldi r24,lo8(10)
GAS LISTING C:\Users\ADMINI~1\AppData\Local\Temp/ccnPzUe6.s 			page 32


 1741               	.L165:
 1742 0956 8093 0000 		sts _step,r24
 1743               	.LBB81:
 1744               	.LBB82:
 1745               	.LM283:
 1746 095a 1092 0000 		sts _isKeyMapping,__zero_reg__
 1747               	.LM284:
 1748 095e 1092 0000 		sts _wait,__zero_reg__
 1749 0962 00C0      		rjmp .L166
 1750               	.L140:
 1751               	.LBE82:
 1752               	.LBE81:
 1753               	.LM285:
 1754 0964 0930      		cpi r16,lo8(9)
 1755 0966 01F0      		breq .+2
 1756 0968 00C0      		rjmp .L166
 1757               	.LM286:
 1758 096a 8CE0      		ldi r24,lo8(12)
 1759 096c 8093 0000 		sts _step,r24
 1760               	.LM287:
 1761 0970 0E94 0000 		call clearMacro
 1762 0974 00C0      		rjmp .L166
 1763               	.LVL50:
 1764               	.L127:
 1765               	.LM288:
 1766 0976 9230      		cpi r25,lo8(2)
 1767 0978 01F0      		breq .L141
 1768               	.LM289:
 1769 097a FAE0      		ldi r31,lo8(10)
 1770 097c CF16      		cp r12,r31
 1771 097e D104      		cpc r13,__zero_reg__
 1772 0980 00F0      		brlo .+2
 1773 0982 00C0      		rjmp .L160
 1774               	.LM290:
 1775 0984 8091 0000 		lds r24,_bufferIndex
 1776 0988 E82F      		mov r30,r24
 1777 098a F0E0      		ldi r31,lo8(0)
 1778 098c E050      		subi r30,lo8(-(_buffer))
 1779 098e F040      		sbci r31,hi8(-(_buffer))
 1780 0990 C082      		st Z,r12
 1781               	.LM291:
 1782 0992 8F5F      		subi r24,lo8(-(1))
 1783 0994 8093 0000 		sts _bufferIndex,r24
 1784               	.LM292:
 1785 0998 00D0      		rcall .
 1786 099a 00D0      		rcall .
 1787 099c 00D0      		rcall .
 1788 099e EDB7      		in r30,__SP_L__
 1789 09a0 FEB7      		in r31,__SP_H__
 1790 09a2 3196      		adiw r30,1
 1791 09a4 8E01      		movw r16,r28
 1792 09a6 0F5F      		subi r16,lo8(-(1))
 1793 09a8 1F4F      		sbci r17,hi8(-(1))
 1794 09aa ADB7      		in r26,__SP_L__
 1795 09ac BEB7      		in r27,__SP_H__
 1796 09ae 1296      		adiw r26,1+1
 1797 09b0 1C93      		st X,r17
GAS LISTING C:\Users\ADMINI~1\AppData\Local\Temp/ccnPzUe6.s 			page 33


 1798 09b2 0E93      		st -X,r16
 1799 09b4 1197      		sbiw r26,1
 1800 09b6 80E0      		ldi r24,lo8(.LC6)
 1801 09b8 90E0      		ldi r25,hi8(.LC6)
 1802 09ba 9383      		std Z+3,r25
 1803 09bc 8283      		std Z+2,r24
 1804 09be D582      		std Z+5,r13
 1805 09c0 C482      		std Z+4,r12
 1806 09c2 0E94 0000 		call sprintf
 1807               	.LM293:
 1808 09c6 EDB7      		in r30,__SP_L__
 1809 09c8 FEB7      		in r31,__SP_H__
 1810 09ca 3696      		adiw r30,6
 1811 09cc 0FB6      		in __tmp_reg__,__SREG__
 1812 09ce F894      		cli
 1813 09d0 FEBF      		out __SP_H__,r31
 1814 09d2 0FBE      		out __SREG__,__tmp_reg__
 1815 09d4 EDBF      		out __SP_L__,r30
 1816 09d6 C801      		movw r24,r16
 1817 09d8 0E94 0000 		call printString
 1818               	.L141:
 1819               	.LM294:
 1820 09dc FAE0      		ldi r31,lo8(10)
 1821 09de CF16      		cp r12,r31
 1822 09e0 D104      		cpc r13,__zero_reg__
 1823 09e2 00F0      		brlo .L142
 1824 09e4 8091 0000 		lds r24,_step
 1825 09e8 8230      		cpi r24,lo8(2)
 1826 09ea 01F0      		breq .+2
 1827 09ec 00C0      		rjmp .L160
 1828               	.L142:
 1829               	.LM295:
 1830 09ee 8091 0000 		lds r24,_step
 1831 09f2 8230      		cpi r24,lo8(2)
 1832 09f4 01F4      		brne .+2
 1833 09f6 00C0      		rjmp .L145
 1834 09f8 8330      		cpi r24,lo8(3)
 1835 09fa 00F4      		brsh .L148
 1836 09fc 8130      		cpi r24,lo8(1)
 1837 09fe 01F0      		breq .+2
 1838 0a00 00C0      		rjmp .L143
 1839 0a02 00C0      		rjmp .L171
 1840               	.L148:
 1841 0a04 8330      		cpi r24,lo8(3)
 1842 0a06 01F4      		brne .+2
 1843 0a08 00C0      		rjmp .L146
 1844 0a0a 8930      		cpi r24,lo8(9)
 1845 0a0c 01F0      		breq .+2
 1846 0a0e 00C0      		rjmp .L143
 1847               	.LM296:
 1848 0a10 8091 0000 		lds r24,_bufferIndex
 1849 0a14 8230      		cpi r24,lo8(2)
 1850 0a16 01F4      		brne .L149
 1851               	.LM297:
 1852 0a18 9091 0000 		lds r25,_buffer
 1853 0a1c 8AE0      		ldi r24,lo8(10)
 1854 0a1e 989F      		mul r25,r24
GAS LISTING C:\Users\ADMINI~1\AppData\Local\Temp/ccnPzUe6.s 			page 34


 1855 0a20 9001      		movw r18,r0
 1856 0a22 1124      		clr r1
 1857               	.LVL51:
 1858               	.LM298:
 1859 0a24 8091 0000 		lds r24,_buffer+1
 1860 0a28 280F      		add r18,r24
 1861 0a2a 311D      		adc r19,__zero_reg__
 1862               	.LM299:
 1863 0a2c C901      		movw r24,r18
 1864 0a2e 0197      		sbiw r24,1
 1865 0a30 0C97      		sbiw r24,12
 1866 0a32 00F4      		brsh .L150
 1867               	.LM300:
 1868 0a34 822F      		mov r24,r18
 1869               	.LVL52:
 1870 0a36 8150      		subi r24,lo8(-(-1))
 1871 0a38 8093 0000 		sts _macroIndex,r24
 1872               	.LM301:
 1873 0a3c 8BE0      		ldi r24,lo8(11)
 1874 0a3e 8093 0000 		sts _step,r24
 1875               	.LM302:
 1876 0a42 0E94 0000 		call resetMacroInput
 1877 0a46 00C0      		rjmp .L158
 1878               	.LVL53:
 1879               	.L150:
 1880               	.LM303:
 1881 0a48 0E94 0000 		call printEnter
 1882               	.LVL54:
 1883               	.LM304:
 1884 0a4c 80E0      		ldi r24,lo8(str_invalid_macro_number)
 1885 0a4e 90E0      		ldi r25,hi8(str_invalid_macro_number)
 1886 0a50 00C0      		rjmp .L168
 1887               	.L149:
 1888               	.LM305:
 1889 0a52 88EE      		ldi r24,lo8(1000)
 1890 0a54 93E0      		ldi r25,hi8(1000)
 1891               	.LVL55:
 1892               	.LBB83:
 1893               	.LBB84:
 1894               	.LBB85:
 1895               	.LBB86:
 1896               	.LM306:
 1897 0a56 2CE2      		ldi r18,lo8(300)
 1898 0a58 31E0      		ldi r19,hi8(300)
 1899               	.L152:
 1900 0a5a F901      		movw r30,r18
 1901               	.LVL56:
 1902               	/* #APP */
 1903               	 ;  105 "c:/winavr-20100110/lib/gcc/../../avr/include/util/delay_basic.h" 1
 1904 0a5c 3197      		1: sbiw r30,1
 1905 0a5e 01F4      		brne 1b
 1906               	 ;  0 "" 2
 1907               	/* #NOAPP */
 1908               	.LBE86:
 1909               	.LBE85:
 1910               	.LM307:
 1911 0a60 0197      		sbiw r24,1
GAS LISTING C:\Users\ADMINI~1\AppData\Local\Temp/ccnPzUe6.s 			page 35


 1912               	.LM308:
 1913 0a62 01F4      		brne .L152
 1914 0a64 00C0      		rjmp .L160
 1915               	.LVL57:
 1916               	.L171:
 1917               	.LBE84:
 1918               	.LBE83:
 1919               	.LM309:
 1920 0a66 9091 0000 		lds r25,_buffer
 1921               	.LM310:
 1922 0a6a 8091 0000 		lds r24,_currentLayer
 1923 0a6e 8330      		cpi r24,lo8(3)
 1924 0a70 00F4      		brsh .L153
 1925               	.LM311:
 1926 0a72 192F      		mov r17,r25
 1927               	.LVL58:
 1928 0a74 1150      		subi r17,lo8(-(-1))
 1929               	.LM312:
 1930 0a76 8117      		cp r24,r17
 1931 0a78 01F0      		breq .L153
 1932 0a7a 1330      		cpi r17,lo8(3)
 1933 0a7c 00F4      		brsh .L153
 1934               	.LM313:
 1935 0a7e 8091 0000 		lds r24,_editCount
 1936 0a82 9091 0000 		lds r25,(_editCount)+1
 1937 0a86 1816      		cp __zero_reg__,r24
 1938 0a88 1906      		cpc __zero_reg__,r25
 1939 0a8a 04F4      		brge .L154
 1940               	.LM314:
 1941 0a8c 0E94 0000 		call printEnter
 1942               	.LM315:
 1943 0a90 80E0      		ldi r24,lo8(str_save_layer)
 1944 0a92 90E0      		ldi r25,hi8(str_save_layer)
 1945 0a94 0E94 0000 		call printStringFromFlash
 1946               	.LM316:
 1947 0a98 0E94 0000 		call printEnter
 1948               	.LM317:
 1949 0a9c 0E94 0000 		call saveCurrentLayer
 1950               	.LM318:
 1951 0aa0 1093 0000 		sts _currentLayerAfter,r17
 1952 0aa4 00C0      		rjmp .L166
 1953               	.L154:
 1954               	.LM319:
 1955 0aa6 0E94 0000 		call printEnter
 1956               	.LM320:
 1957 0aaa 80E0      		ldi r24,lo8(str_load_layer)
 1958 0aac 90E0      		ldi r25,hi8(str_load_layer)
 1959 0aae 0E94 0000 		call printStringFromFlash
 1960               	.LM321:
 1961 0ab2 0E94 0000 		call printEnter
 1962               	.LM322:
 1963 0ab6 87E0      		ldi r24,lo8(7)
 1964 0ab8 8093 0000 		sts _step,r24
 1965               	.LM323:
 1966 0abc 1093 0000 		sts _currentLayer,r17
 1967               	.LM324:
 1968 0ac0 0E94 0000 		call loadCurrentLayer
GAS LISTING C:\Users\ADMINI~1\AppData\Local\Temp/ccnPzUe6.s 			page 36


 1969 0ac4 00C0      		rjmp .L166
 1970               	.L153:
 1971               	.LM325:
 1972 0ac6 0E94 0000 		call printEnter
 1973               	.LVL59:
 1974               	.L170:
 1975               	.LM326:
 1976 0aca 87E0      		ldi r24,lo8(7)
 1977 0acc 00C0      		rjmp .L167
 1978               	.LVL60:
 1979               	.L145:
 1980               	.LM327:
 1981 0ace F092 0000 		sts _col,r15
 1982               	.LM328:
 1983 0ad2 E092 0000 		sts _row,r14
 1984               	.LM329:
 1985 0ad6 80E0      		ldi r24,lo8(str_col_row)
 1986 0ad8 90E0      		ldi r25,hi8(str_col_row)
 1987 0ada 0E94 0000 		call printStringFromFlash
 1988               	.LM330:
 1989 0ade 8091 0000 		lds r24,_col
 1990 0ae2 8F5F      		subi r24,lo8(-(1))
 1991 0ae4 0E94 0000 		call toString
 1992 0ae8 0E94 0000 		call printString
 1993               	.LM331:
 1994 0aec 80E0      		ldi r24,lo8(.LC7)
 1995 0aee 90E0      		ldi r25,hi8(.LC7)
 1996 0af0 0E94 0000 		call printString
 1997               	.LM332:
 1998 0af4 8091 0000 		lds r24,_row
 1999 0af8 8F5F      		subi r24,lo8(-(1))
 2000 0afa 0E94 0000 		call toString
 2001 0afe 0E94 0000 		call printString
 2002               	.LM333:
 2003 0b02 80E0      		ldi r24,lo8(.LC8)
 2004 0b04 90E0      		ldi r25,hi8(.LC8)
 2005 0b06 0E94 0000 		call printString
 2006               	.LM334:
 2007 0b0a 8091 0000 		lds r24,_currentLayer
 2008 0b0e 8F5F      		subi r24,lo8(-(1))
 2009 0b10 0E94 0000 		call toString
 2010 0b14 0E94 0000 		call printString
 2011               	.LM335:
 2012 0b18 80E0      		ldi r24,lo8(.LC9)
 2013 0b1a 90E0      		ldi r25,hi8(.LC9)
 2014 0b1c 0E94 0000 		call printString
 2015               	.LBB87:
 2016               	.LM336:
 2017 0b20 8091 0000 		lds r24,_currentLayer
 2018 0b24 6091 0000 		lds r22,_row
 2019 0b28 4091 0000 		lds r20,_col
 2020 0b2c 0E94 0000 		call getKeyCode
 2021               	.LBE87:
 2022               	.LM337:
 2023 0b30 0E94 0000 		call toString
 2024 0b34 0E94 0000 		call printString
 2025               	.LM338:
GAS LISTING C:\Users\ADMINI~1\AppData\Local\Temp/ccnPzUe6.s 			page 37


 2026 0b38 80E0      		ldi r24,lo8(.LC10)
 2027 0b3a 90E0      		ldi r25,hi8(.LC10)
 2028 0b3c 0E94 0000 		call printString
 2029               	.LM339:
 2030 0b40 8091 0000 		lds r24,_col
 2031 0b44 E091 0000 		lds r30,_row
 2032 0b48 F0E0      		ldi r31,lo8(0)
 2033 0b4a A3E0      		ldi r26,3
 2034 0b4c EE0F      	1:	lsl r30
 2035 0b4e FF1F      		rol r31
 2036 0b50 AA95      		dec r26
 2037 0b52 01F4      		brne 1b
 2038 0b54 E80F      		add r30,r24
 2039 0b56 F11D      		adc r31,__zero_reg__
 2040 0b58 E050      		subi r30,lo8(-(_newKeyMap))
 2041 0b5a F040      		sbci r31,hi8(-(_newKeyMap))
 2042 0b5c 8081      		ld r24,Z
 2043 0b5e 0E94 0000 		call toString
 2044 0b62 0E94 0000 		call printString
 2045               	.LM340:
 2046 0b66 80E0      		ldi r24,lo8(.LC11)
 2047 0b68 90E0      		ldi r25,hi8(.LC11)
 2048 0b6a 0E94 0000 		call printString
 2049               	.LM341:
 2050 0b6e 0E94 0000 		call printEnter
 2051               	.LM342:
 2052 0b72 83E0      		ldi r24,lo8(3)
 2053               	.LVL61:
 2054               	.L167:
 2055 0b74 8093 0000 		sts _step,r24
 2056               	.L166:
 2057               	.LM343:
 2058 0b78 1092 0000 		sts _bufferIndex,__zero_reg__
 2059 0b7c 00C0      		rjmp .L143
 2060               	.LVL62:
 2061               	.L146:
 2062               	.LM344:
 2063 0b7e 8091 0000 		lds r24,_bufferIndex
 2064 0b82 8330      		cpi r24,lo8(3)
 2065 0b84 01F0      		breq .+2
 2066 0b86 00C0      		rjmp .L156
 2067               	.LM345:
 2068 0b88 9091 0000 		lds r25,_buffer
 2069 0b8c 84E6      		ldi r24,lo8(100)
 2070 0b8e 989F      		mul r25,r24
 2071 0b90 A001      		movw r20,r0
 2072 0b92 1124      		clr r1
 2073               	.LVL63:
 2074               	.LM346:
 2075 0b94 8091 0000 		lds r24,_buffer+1
 2076 0b98 2AE0      		ldi r18,lo8(10)
 2077 0b9a 829F      		mul r24,r18
 2078 0b9c C001      		movw r24,r0
 2079 0b9e 1124      		clr r1
 2080 0ba0 480F      		add r20,r24
 2081 0ba2 591F      		adc r21,r25
 2082               	.LM347:
GAS LISTING C:\Users\ADMINI~1\AppData\Local\Temp/ccnPzUe6.s 			page 38


 2083 0ba4 8091 0000 		lds r24,_buffer+2
 2084 0ba8 480F      		add r20,r24
 2085 0baa 511D      		adc r21,__zero_reg__
 2086               	.LM348:
 2087 0bac 4F3F      		cpi r20,255
 2088 0bae 5105      		cpc r21,__zero_reg__
 2089 0bb0 04F4      		brge .L157
 2090               	.LM349:
 2091 0bb2 8091 0000 		lds r24,_col
 2092 0bb6 E091 0000 		lds r30,_row
 2093 0bba F0E0      		ldi r31,lo8(0)
 2094 0bbc 73E0      		ldi r23,3
 2095 0bbe EE0F      	1:	lsl r30
 2096 0bc0 FF1F      		rol r31
 2097 0bc2 7A95      		dec r23
 2098 0bc4 01F4      		brne 1b
 2099 0bc6 E80F      		add r30,r24
 2100 0bc8 F11D      		adc r31,__zero_reg__
 2101 0bca E050      		subi r30,lo8(-(_newKeyMap))
 2102 0bcc F040      		sbci r31,hi8(-(_newKeyMap))
 2103 0bce 4083      		st Z,r20
 2104               	.LM350:
 2105 0bd0 87E0      		ldi r24,lo8(7)
 2106 0bd2 8093 0000 		sts _step,r24
 2107               	.LM351:
 2108 0bd6 8091 0000 		lds r24,_editCount
 2109 0bda 9091 0000 		lds r25,(_editCount)+1
 2110 0bde 0196      		adiw r24,1
 2111 0be0 9093 0000 		sts (_editCount)+1,r25
 2112 0be4 8093 0000 		sts _editCount,r24
 2113 0be8 00C0      		rjmp .L158
 2114               	.L157:
 2115               	.LM352:
 2116 0bea 0E94 0000 		call printEnter
 2117               	.LVL64:
 2118               	.LM353:
 2119 0bee 80E0      		ldi r24,lo8(str_invalid_keycode)
 2120 0bf0 90E0      		ldi r25,hi8(str_invalid_keycode)
 2121               	.L168:
 2122 0bf2 0E94 0000 		call printStringFromFlash
 2123               	.LVL65:
 2124               	.L158:
 2125               	.LM354:
 2126 0bf6 83E0      		ldi r24,lo8(3)
 2127 0bf8 E0E0      		ldi r30,lo8(_buffer)
 2128 0bfa F0E0      		ldi r31,hi8(_buffer)
 2129 0bfc DF01      		movw r26,r30
 2130 0bfe 1D92      		st X+,__zero_reg__
 2131 0c00 8A95      	        dec r24
 2132 0c02 01F4      		brne .-6
 2133               	.LM355:
 2134 0c04 1092 0000 		sts _bufferIndex,__zero_reg__
 2135               	.LVL66:
 2136               	.L169:
 2137               	.LM356:
 2138 0c08 0E94 0000 		call printEnter
 2139               	.LVL67:
GAS LISTING C:\Users\ADMINI~1\AppData\Local\Temp/ccnPzUe6.s 			page 39


 2140 0c0c 00C0      		rjmp .L143
 2141               	.LVL68:
 2142               	.L156:
 2143 0c0e 88EE      		ldi r24,lo8(1000)
 2144 0c10 93E0      		ldi r25,hi8(1000)
 2145               	.LVL69:
 2146               	.LBB88:
 2147               	.LBB89:
 2148               	.LBB90:
 2149               	.LBB91:
 2150               	.LM357:
 2151 0c12 2CE2      		ldi r18,lo8(300)
 2152 0c14 31E0      		ldi r19,hi8(300)
 2153               	.L159:
 2154 0c16 F901      		movw r30,r18
 2155               	.LVL70:
 2156               	/* #APP */
 2157               	 ;  105 "c:/winavr-20100110/lib/gcc/../../avr/include/util/delay_basic.h" 1
 2158 0c18 3197      		1: sbiw r30,1
 2159 0c1a 01F4      		brne 1b
 2160               	 ;  0 "" 2
 2161               	/* #NOAPP */
 2162               	.LBE91:
 2163               	.LBE90:
 2164               	.LM358:
 2165 0c1c 0197      		sbiw r24,1
 2166               	.LM359:
 2167 0c1e 01F4      		brne .L159
 2168 0c20 00C0      		rjmp .L160
 2169               	.LVL71:
 2170               	.L143:
 2171               	.LBE89:
 2172               	.LBE88:
 2173               	.LM360:
 2174 0c22 0E94 0000 		call printPrompt
 2175               	.LVL72:
 2176               	.L160:
 2177               	/* epilogue start */
 2178               	.LM361:
 2179 0c26 0F90      		pop __tmp_reg__
 2180 0c28 0F90      		pop __tmp_reg__
 2181 0c2a 0F90      		pop __tmp_reg__
 2182 0c2c CF91      		pop r28
 2183 0c2e DF91      		pop r29
 2184 0c30 1F91      		pop r17
 2185               	.LVL73:
 2186 0c32 0F91      		pop r16
 2187               	.LVL74:
 2188 0c34 FF90      		pop r15
 2189               	.LVL75:
 2190 0c36 EF90      		pop r14
 2191               	.LVL76:
 2192 0c38 DF90      		pop r13
 2193 0c3a CF90      		pop r12
 2194               	.LVL77:
 2195 0c3c BF90      		pop r11
 2196               	.LVL78:
GAS LISTING C:\Users\ADMINI~1\AppData\Local\Temp/ccnPzUe6.s 			page 40


 2197 0c3e AF90      		pop r10
 2198               	.LVL79:
 2199 0c40 0895      		ret
 2200               	.LFE49:
 2201               		.size	putKeyCode, .-putKeyCode
 2202               	.global	saveCurrentLayerAfter
 2203               		.type	saveCurrentLayerAfter, @function
 2204               	saveCurrentLayerAfter:
 2205               	.LFB39:
 2206               	.LM362:
 2207 0c42 BF92      		push r11
 2208 0c44 CF92      		push r12
 2209 0c46 DF92      		push r13
 2210 0c48 EF92      		push r14
 2211 0c4a FF92      		push r15
 2212 0c4c 0F93      		push r16
 2213 0c4e 1F93      		push r17
 2214 0c50 CF93      		push r28
 2215 0c52 DF93      		push r29
 2216               	/* prologue: function */
 2217               	/* frame size = 0 */
 2218               	.LM363:
 2219 0c54 EE24      		clr r14
 2220 0c56 FF24      		clr r15
 2221 0c58 CC24      		clr r12
 2222 0c5a DD24      		clr r13
 2223               	.LM364:
 2224 0c5c 98E8      		ldi r25,lo8(-120)
 2225 0c5e B92E      		mov r11,r25
 2226 0c60 00C0      		rjmp .L173
 2227               	.L174:
 2228 0c62 8091 0000 		lds r24,_currentLayer
 2229 0c66 8B9D      		mul r24,r11
 2230 0c68 C001      		movw r24,r0
 2231 0c6a 1124      		clr r1
 2232 0c6c 0D96      		adiw r24,13
 2233 0c6e 8C0D      		add r24,r12
 2234 0c70 9D1D      		adc r25,r13
 2235 0c72 8C0F      		add r24,r28
 2236 0c74 9D1F      		adc r25,r29
 2237 0c76 F801      		movw r30,r16
 2238 0c78 6191      		ld r22,Z+
 2239 0c7a 8F01      		movw r16,r30
 2240 0c7c 0E94 0000 		call __eewr_byte_m32
 2241 0c80 2196      		adiw r28,1
 2242               	.LM365:
 2243 0c82 C830      		cpi r28,8
 2244 0c84 D105      		cpc r29,__zero_reg__
 2245 0c86 01F4      		brne .L174
 2246 0c88 0894      		sec
 2247 0c8a E11C      		adc r14,__zero_reg__
 2248 0c8c F11C      		adc r15,__zero_reg__
 2249 0c8e 88E0      		ldi r24,lo8(8)
 2250 0c90 90E0      		ldi r25,hi8(8)
 2251 0c92 C80E      		add r12,r24
 2252 0c94 D91E      		adc r13,r25
 2253               	.LM366:
GAS LISTING C:\Users\ADMINI~1\AppData\Local\Temp/ccnPzUe6.s 			page 41


 2254 0c96 91E1      		ldi r25,lo8(17)
 2255 0c98 E916      		cp r14,r25
 2256 0c9a F104      		cpc r15,__zero_reg__
 2257 0c9c 01F0      		breq .L175
 2258               	.L173:
 2259 0c9e 8701      		movw r16,r14
 2260 0ca0 83E0      		ldi r24,3
 2261 0ca2 000F      	1:	lsl r16
 2262 0ca4 111F      		rol r17
 2263 0ca6 8A95      		dec r24
 2264 0ca8 01F4      		brne 1b
 2265 0caa 0050      		subi r16,lo8(-(_newKeyMap))
 2266 0cac 1040      		sbci r17,hi8(-(_newKeyMap))
 2267 0cae C0E0      		ldi r28,lo8(0)
 2268 0cb0 D0E0      		ldi r29,hi8(0)
 2269 0cb2 00C0      		rjmp .L174
 2270               	.L175:
 2271               	.LM367:
 2272 0cb4 1092 0000 		sts (_editCount)+1,__zero_reg__
 2273 0cb8 1092 0000 		sts _editCount,__zero_reg__
 2274               	.LM368:
 2275 0cbc 8091 0000 		lds r24,_stepAfterLayerSave
 2276 0cc0 8430      		cpi r24,lo8(4)
 2277 0cc2 01F4      		brne .L176
 2278               	.LM369:
 2279 0cc4 8093 0000 		sts _step,r24
 2280               	.LBB92:
 2281               	.LBB93:
 2282               	.LM370:
 2283 0cc8 1092 0000 		sts _isKeyMapping,__zero_reg__
 2284               	.LM371:
 2285 0ccc 1092 0000 		sts _wait,__zero_reg__
 2286 0cd0 00C0      		rjmp .L177
 2287               	.L176:
 2288               	.LBE93:
 2289               	.LBE92:
 2290               	.LM372:
 2291 0cd2 8130      		cpi r24,lo8(1)
 2292 0cd4 01F4      		brne .L177
 2293               	.LM373:
 2294 0cd6 0E94 0000 		call printEnter
 2295               	.LM374:
 2296 0cda 80E0      		ldi r24,lo8(str_load_layer)
 2297 0cdc 90E0      		ldi r25,hi8(str_load_layer)
 2298 0cde 0E94 0000 		call printStringFromFlash
 2299               	.LM375:
 2300 0ce2 0E94 0000 		call printEnter
 2301               	.LM376:
 2302 0ce6 87E0      		ldi r24,lo8(7)
 2303 0ce8 8093 0000 		sts _step,r24
 2304               	.LM377:
 2305 0cec 8091 0000 		lds r24,_currentLayerAfter
 2306 0cf0 8093 0000 		sts _currentLayer,r24
 2307               	.LM378:
 2308 0cf4 0E94 0000 		call loadCurrentLayer
 2309               	.L177:
 2310               	.LM379:
GAS LISTING C:\Users\ADMINI~1\AppData\Local\Temp/ccnPzUe6.s 			page 42


 2311 0cf8 0E94 0000 		call printPrompt
 2312               	/* epilogue start */
 2313               	.LM380:
 2314 0cfc DF91      		pop r29
 2315 0cfe CF91      		pop r28
 2316 0d00 1F91      		pop r17
 2317 0d02 0F91      		pop r16
 2318 0d04 FF90      		pop r15
 2319 0d06 EF90      		pop r14
 2320 0d08 DF90      		pop r13
 2321 0d0a CF90      		pop r12
 2322 0d0c BF90      		pop r11
 2323 0d0e 0895      		ret
 2324               	.LFE39:
 2325               		.size	saveCurrentLayerAfter, .-saveCurrentLayerAfter
 2326               	.global	prepareKeyMapper
 2327               		.type	prepareKeyMapper, @function
 2328               	prepareKeyMapper:
 2329               	.LFB38:
 2330               	.LM381:
 2331               	/* prologue: function */
 2332               	/* frame size = 0 */
 2333               	.LM382:
 2334 0d10 83E0      		ldi r24,lo8(3)
 2335 0d12 E0E0      		ldi r30,lo8(_buffer)
 2336 0d14 F0E0      		ldi r31,hi8(_buffer)
 2337 0d16 DF01      		movw r26,r30
 2338 0d18 1D92      		st X+,__zero_reg__
 2339 0d1a 8A95      	        dec r24
 2340 0d1c 01F4      		brne .-6
 2341               	.LM383:
 2342 0d1e 1092 0000 		sts _bufferIndex,__zero_reg__
 2343               	.LM384:
 2344 0d22 1092 0000 		sts _currentLayer,__zero_reg__
 2345               	.LM385:
 2346 0d26 1092 0000 		sts _mode,__zero_reg__
 2347               	.LM386:
 2348 0d2a 0E94 0000 		call loadCurrentLayer
 2349               	.LM387:
 2350 0d2e 0E94 0000 		call printSelectMode
 2351               	/* epilogue start */
 2352               	.LM388:
 2353 0d32 0895      		ret
 2354               	.LFE38:
 2355               		.size	prepareKeyMapper, .-prepareKeyMapper
 2356               	.global	getCurrentKeycode
 2357               		.type	getCurrentKeycode, @function
 2358               	getCurrentKeycode:
 2359               	.LFB26:
 2360               	.LM389:
 2361               	.LVL80:
 2362 0d34 FF92      		push r15
 2363 0d36 0F93      		push r16
 2364 0d38 1F93      		push r17
 2365               	/* prologue: function */
 2366               	/* frame size = 0 */
 2367 0d3a 182F      		mov r17,r24
GAS LISTING C:\Users\ADMINI~1\AppData\Local\Temp/ccnPzUe6.s 			page 43


 2368 0d3c 062F      		mov r16,r22
 2369 0d3e F42E      		mov r15,r20
 2370               	.LM390:
 2371 0d40 8091 0000 		lds r24,_isKeyMapping
 2372               	.LVL81:
 2373 0d44 8823      		tst r24
 2374 0d46 01F4      		brne .L186
 2375               	.LVL82:
 2376               	.L183:
 2377               	.LBB94:
 2378               	.LM391:
 2379 0d48 88E8      		ldi r24,lo8(-120)
 2380 0d4a 189F      		mul r17,r24
 2381 0d4c C001      		movw r24,r0
 2382 0d4e 1124      		clr r1
 2383 0d50 0D96      		adiw r24,13
 2384 0d52 262F      		mov r18,r22
 2385 0d54 30E0      		ldi r19,lo8(0)
 2386               	.LVL83:
 2387 0d56 43E0      		ldi r20,3
 2388 0d58 220F      	1:	lsl r18
 2389 0d5a 331F      		rol r19
 2390 0d5c 4A95      		dec r20
 2391 0d5e 01F4      		brne 1b
 2392               	.LVL84:
 2393 0d60 820F      		add r24,r18
 2394 0d62 931F      		adc r25,r19
 2395 0d64 8F0D      		add r24,r15
 2396 0d66 911D      		adc r25,__zero_reg__
 2397 0d68 0E94 0000 		call __eerd_byte_m32
 2398               	.LVL85:
 2399 0d6c 982F      		mov r25,r24
 2400               	.LVL86:
 2401               	.LBE94:
 2402               	.LM392:
 2403 0d6e 8150      		subi r24,lo8(-(-1))
 2404 0d70 8E3F      		cpi r24,lo8(-2)
 2405 0d72 00F0      		brlo .L184
 2406               	.LVL87:
 2407               	.L186:
 2408               	.LBB95:
 2409               	.LM393:
 2410 0d74 812F      		mov r24,r17
 2411 0d76 602F      		mov r22,r16
 2412 0d78 4F2D      		mov r20,r15
 2413 0d7a 0E94 0000 		call getKeyCode
 2414               	.LVL88:
 2415 0d7e 982F      		mov r25,r24
 2416               	.LVL89:
 2417               	.L184:
 2418               	.LBE95:
 2419               	.LM394:
 2420 0d80 892F      		mov r24,r25
 2421               	/* epilogue start */
 2422 0d82 1F91      		pop r17
 2423               	.LVL90:
 2424 0d84 0F91      		pop r16
GAS LISTING C:\Users\ADMINI~1\AppData\Local\Temp/ccnPzUe6.s 			page 44


 2425               	.LVL91:
 2426 0d86 FF90      		pop r15
 2427               	.LVL92:
 2428 0d88 0895      		ret
 2429               	.LFE26:
 2430               		.size	getCurrentKeycode, .-getCurrentKeycode
 2431               	.global	applyMacro
 2432               		.type	applyMacro, @function
 2433               	applyMacro:
 2434               	.LFB41:
 2435               	.LM395:
 2436               	.LVL93:
 2437 0d8a 1F93      		push r17
 2438               	/* prologue: function */
 2439               	/* frame size = 0 */
 2440 0d8c 982F      		mov r25,r24
 2441               	.LM396:
 2442 0d8e 8091 0000 		lds r24,_isKeyMapping
 2443               	.LVL94:
 2444 0d92 80FD      		sbrc r24,0
 2445 0d94 00C0      		rjmp .L188
 2446               	.LBB96:
 2447               	.LBB97:
 2448               	.LM397:
 2449 0d96 192F      		mov r17,r25
 2450 0d98 195C      		subi r17,lo8(-(55))
 2451 0d9a 1C30      		cpi r17,lo8(12)
 2452 0d9c 00F4      		brsh .L188
 2453               	.LBE97:
 2454               	.LBE96:
 2455               	.LM398:
 2456 0d9e 0E94 0000 		call isEmptyM
 2457               	.LVL95:
 2458 0da2 8823      		tst r24
 2459 0da4 01F0      		breq .L188
 2460               	.LM399:
 2461 0da6 0E94 0000 		call clearMacroPressedBuffer
 2462               	.LM400:
 2463 0daa 812F      		mov r24,r17
 2464 0dac 0E94 0000 		call readMacro
 2465 0db0 81E0      		ldi r24,lo8(1)
 2466 0db2 00C0      		rjmp .L189
 2467               	.LVL96:
 2468               	.L188:
 2469               	.LM401:
 2470 0db4 80E0      		ldi r24,lo8(0)
 2471               	.L189:
 2472               	/* epilogue start */
 2473               	.LM402:
 2474 0db6 1F91      		pop r17
 2475 0db8 0895      		ret
 2476               	.LFE41:
 2477               		.size	applyMacro, .-applyMacro
 2478               	.global	startKeyMapping
 2479               		.type	startKeyMapping, @function
 2480               	startKeyMapping:
 2481               	.LFB18:
GAS LISTING C:\Users\ADMINI~1\AppData\Local\Temp/ccnPzUe6.s 			page 45


 2482               	.LM403:
 2483               	/* prologue: function */
 2484               	/* frame size = 0 */
 2485               	.LBB98:
 2486               	.LBB99:
 2487               	.LM404:
 2488 0dba 8091 0000 		lds r24,_isKeyMapping
 2489               	.LBE99:
 2490               	.LBE98:
 2491               	.LM405:
 2492 0dbe 80FF      		sbrs r24,0
 2493 0dc0 00C0      		rjmp .L193
 2494 0dc2 81FD      		sbrc r24,1
 2495 0dc4 00C0      		rjmp .L193
 2496 0dc6 0E94 0000 		call isAllKeyRelease
 2497 0dca 8823      		tst r24
 2498 0dcc 01F0      		breq .L193
 2499               	.LBB100:
 2500               	.LBB101:
 2501               	.LM406:
 2502 0dce 8091 0000 		lds r24,_isKeyMapping
 2503 0dd2 8260      		ori r24,lo8(2)
 2504 0dd4 8093 0000 		sts _isKeyMapping,r24
 2505               	.LM407:
 2506 0dd8 0E94 0000 		call prepareKeyMapper
 2507               	.L193:
 2508 0ddc 0895      		ret
 2509               	.LBE101:
 2510               	.LBE100:
 2511               	.LFE18:
 2512               		.size	startKeyMapping, .-startKeyMapping
 2513               	.global	prepareKeyMapping
 2514               		.type	prepareKeyMapping, @function
 2515               	prepareKeyMapping:
 2516               	.LFB13:
 2517               	.LM408:
 2518               	/* prologue: function */
 2519               	/* frame size = 0 */
 2520               	.LBB102:
 2521               	.LBB103:
 2522               	.LM409:
 2523 0dde 8091 0000 		lds r24,_isKeyMapping
 2524 0de2 8160      		ori r24,lo8(1)
 2525 0de4 8093 0000 		sts _isKeyMapping,r24
 2526               	.LBE103:
 2527               	.LBE102:
 2528               	.LM410:
 2529 0de8 8091 0000 		lds r24,INTERFACE
 2530 0dec 8150      		subi r24,lo8(-(-1))
 2531 0dee 8230      		cpi r24,lo8(2)
 2532 0df0 00F4      		brsh .L195
 2533               	.LM411:
 2534 0df2 0E94 0000 		call prepareKeyMappingUsb
 2535 0df6 00C0      		rjmp .L196
 2536               	.L195:
 2537               	.LM412:
 2538 0df8 0E94 0000 		call prepareKeyMappingPs2
GAS LISTING C:\Users\ADMINI~1\AppData\Local\Temp/ccnPzUe6.s 			page 46


 2539               	.LM413:
 2540 0dfc 8AEF      		ldi r24,lo8(250)
 2541 0dfe 90E0      		ldi r25,hi8(250)
 2542 0e00 9093 0000 		sts (keyMappingCountMax)+1,r25
 2543 0e04 8093 0000 		sts keyMappingCountMax,r24
 2544               	.L196:
 2545               	.LM414:
 2546 0e08 0E94 0000 		call printPrepareString
 2547               	/* epilogue start */
 2548               	.LM415:
 2549 0e0c 0895      		ret
 2550               	.LFE13:
 2551               		.size	prepareKeyMapping, .-prepareKeyMapping
 2552               	.global	countKeyMappingEnabled
 2553               		.type	countKeyMappingEnabled, @function
 2554               	countKeyMappingEnabled:
 2555               	.LFB20:
 2556               	.LM416:
 2557               	/* prologue: function */
 2558               	/* frame size = 0 */
 2559               	.LM417:
 2560 0e0e 8091 0000 		lds r24,_isKeyMapping
 2561 0e12 8823      		tst r24
 2562 0e14 01F4      		brne .L200
 2563 0e16 8091 0000 		lds r24,enabledKeyMappingCount
 2564 0e1a 8823      		tst r24
 2565 0e1c 01F0      		breq .L200
 2566 0e1e 8091 0000 		lds r24,keyMappingCount
 2567 0e22 9091 0000 		lds r25,(keyMappingCount)+1
 2568 0e26 0196      		adiw r24,1
 2569 0e28 9093 0000 		sts (keyMappingCount)+1,r25
 2570 0e2c 8093 0000 		sts keyMappingCount,r24
 2571 0e30 2091 0000 		lds r18,keyMappingCountMax
 2572 0e34 3091 0000 		lds r19,(keyMappingCountMax)+1
 2573 0e38 2817      		cp r18,r24
 2574 0e3a 3907      		cpc r19,r25
 2575 0e3c 04F4      		brge .L200
 2576               	.LM418:
 2577 0e3e 1092 0000 		sts enabledKeyMappingCount,__zero_reg__
 2578               	.LM419:
 2579 0e42 0E94 0000 		call prepareKeyMapping
 2580               	.L200:
 2581 0e46 0895      		ret
 2582               	.LFE20:
 2583               		.size	countKeyMappingEnabled, .-countKeyMappingEnabled
 2584               		.data
 2585               	.LC12:
 2586 0102 5F77 6169 		.string	"_wait : %d \n"
 2586      7420 3A20 
 2586      2564 200A 
 2586      00
 2587               		.text
 2588               	.global	enterFrameForMapper
 2589               		.type	enterFrameForMapper, @function
 2590               	enterFrameForMapper:
 2591               	.LFB21:
 2592               	.LM420:
GAS LISTING C:\Users\ADMINI~1\AppData\Local\Temp/ccnPzUe6.s 			page 47


 2593               	/* prologue: function */
 2594               	/* frame size = 0 */
 2595               	.LM421:
 2596 0e48 0E94 0000 		call countKeyMappingEnabled
 2597               	.LM422:
 2598 0e4c 8091 0000 		lds r24,_isKeyMapping
 2599 0e50 81FF      		sbrs r24,1
 2600 0e52 00C0      		rjmp .L208
 2601               	.LM423:
 2602 0e54 8091 0000 		lds r24,_isWorkingForEmpty
 2603 0e58 8823      		tst r24
 2604 0e5a 01F0      		breq .L203
 2605 0e5c 0E94 0000 		call isMacroProcessEnd
 2606 0e60 8823      		tst r24
 2607 0e62 01F0      		breq .L203
 2608               	.LM424:
 2609 0e64 00D0      		rcall .
 2610 0e66 00D0      		rcall .
 2611 0e68 EDB7      		in r30,__SP_L__
 2612 0e6a FEB7      		in r31,__SP_H__
 2613 0e6c 3196      		adiw r30,1
 2614 0e6e 80E0      		ldi r24,lo8(.LC12)
 2615 0e70 90E0      		ldi r25,hi8(.LC12)
 2616 0e72 ADB7      		in r26,__SP_L__
 2617 0e74 BEB7      		in r27,__SP_H__
 2618 0e76 1296      		adiw r26,1+1
 2619 0e78 9C93      		st X,r25
 2620 0e7a 8E93      		st -X,r24
 2621 0e7c 1197      		sbiw r26,1
 2622 0e7e 8091 0000 		lds r24,_wait
 2623 0e82 8283      		std Z+2,r24
 2624 0e84 1382      		std Z+3,__zero_reg__
 2625 0e86 0E94 0000 		call printf
 2626               	.LM425:
 2627 0e8a 8091 0000 		lds r24,_wait
 2628 0e8e 0F90      		pop __tmp_reg__
 2629 0e90 0F90      		pop __tmp_reg__
 2630 0e92 0F90      		pop __tmp_reg__
 2631 0e94 0F90      		pop __tmp_reg__
 2632 0e96 8B30      		cpi r24,lo8(11)
 2633 0e98 01F4      		brne .L204
 2634               	.LM426:
 2635 0e9a 0E94 0000 		call saveCurrentLayerAfter
 2636 0e9e 00C0      		rjmp .L205
 2637               	.L204:
 2638               	.LM427:
 2639 0ea0 8A30      		cpi r24,lo8(10)
 2640 0ea2 01F4      		brne .L206
 2641               	.LM428:
 2642 0ea4 0E94 0000 		call printMapperMessageAfter
 2643 0ea8 00C0      		rjmp .L205
 2644               	.L206:
 2645               	.LM429:
 2646 0eaa 8C30      		cpi r24,lo8(12)
 2647 0eac 01F4      		brne .L207
 2648               	.LM430:
 2649 0eae 0E94 0000 		call clearMacroAfter
GAS LISTING C:\Users\ADMINI~1\AppData\Local\Temp/ccnPzUe6.s 			page 48


 2650 0eb2 00C0      		rjmp .L205
 2651               	.L207:
 2652               	.LM431:
 2653 0eb4 1092 0000 		sts _isWorkingForEmpty,__zero_reg__
 2654               	.L205:
 2655               	.LM432:
 2656 0eb8 1092 0000 		sts _wait,__zero_reg__
 2657               	.L203:
 2658               	.LM433:
 2659 0ebc 8091 0000 		lds r24,_isPressedEscapeKey
 2660 0ec0 8823      		tst r24
 2661 0ec2 01F0      		breq .L208
 2662 0ec4 8091 0000 		lds r24,_pressedEscapeKeyCount
 2663 0ec8 9091 0000 		lds r25,(_pressedEscapeKeyCount)+1
 2664 0ecc 0196      		adiw r24,1
 2665 0ece 9093 0000 		sts (_pressedEscapeKeyCount)+1,r25
 2666 0ed2 8093 0000 		sts _pressedEscapeKeyCount,r24
 2667 0ed6 895E      		subi r24,lo8(1001)
 2668 0ed8 9340      		sbci r25,hi8(1001)
 2669 0eda 04F0      		brlt .L208
 2670               	.LM434:
 2671 0edc 81E0      		ldi r24,lo8(1)
 2672 0ede 8093 0000 		sts _isTiredEscapeKey,r24
 2673               	.LM435:
 2674 0ee2 89E2      		ldi r24,lo8(41)
 2675 0ee4 6FEF      		ldi r22,lo8(-1)
 2676 0ee6 4FEF      		ldi r20,lo8(-1)
 2677 0ee8 20E0      		ldi r18,lo8(0)
 2678 0eea 0E94 0000 		call putKeyCode
 2679               	.L208:
 2680 0eee 0895      		ret
 2681               	.LFE21:
 2682               		.size	enterFrameForMapper, .-enterFrameForMapper
 2683               	.global	startKeyMappingOnBoot
 2684               		.type	startKeyMappingOnBoot, @function
 2685               	startKeyMappingOnBoot:
 2686               	.LFB17:
 2687               	.LM436:
 2688               	/* prologue: function */
 2689               	/* frame size = 0 */
 2690               	.LM437:
 2691 0ef0 0E94 0000 		call isBootMapper
 2692 0ef4 8823      		tst r24
 2693 0ef6 01F0      		breq .L210
 2694               	.LM438:
 2695 0ef8 1092 0000 		sts _keyMappingOnBoot,__zero_reg__
 2696 0efc 0895      		ret
 2697               	.L210:
 2698               	.LM439:
 2699 0efe 8091 0000 		lds r24,_keyMappingOnBoot
 2700 0f02 8130      		cpi r24,lo8(1)
 2701 0f04 01F4      		brne .L212
 2702               	.LM440:
 2703 0f06 0E94 0000 		call prepareKeyMapping
 2704               	.LM441:
 2705 0f0a 1092 0000 		sts _keyMappingOnBoot,__zero_reg__
 2706               	.L212:
GAS LISTING C:\Users\ADMINI~1\AppData\Local\Temp/ccnPzUe6.s 			page 49


 2707 0f0e 0895      		ret
 2708               	.LFE17:
 2709               		.size	startKeyMappingOnBoot, .-startKeyMappingOnBoot
 2710               	.global	str_select_mode
 2711               		.section	.progmem.data,"a",@progbits
 2712               		.type	str_select_mode, @object
 2713               		.size	str_select_mode, 12
 2714               	str_select_mode:
 2715 0000 7365 6C65 		.string	"select mode"
 2715      6374 206D 
 2715      6F64 6500 
 2716               	.global	str_select_mode1
 2717               		.type	str_select_mode1, @object
 2718               		.size	str_select_mode1, 14
 2719               	str_select_mode1:
 2720 000c 313A 4B65 		.string	"1:Key Mapping"
 2720      7920 4D61 
 2720      7070 696E 
 2720      6700 
 2721               	.global	str_select_mode2
 2722               		.type	str_select_mode2, @object
 2723               		.size	str_select_mode2, 8
 2724               	str_select_mode2:
 2725 001a 323A 4D61 		.string	"2:Macro"
 2725      6372 6F00 
 2726               	.global	str_select_mode3
 2727               		.type	str_select_mode3, @object
 2728               		.size	str_select_mode3, 7
 2729               	str_select_mode3:
 2730 0022 333A 4578 		.string	"3:Exit"
 2730      6974 00
 2731               	.global	str_select_mode4
 2732               		.type	str_select_mode4, @object
 2733               		.size	str_select_mode4, 14
 2734               	str_select_mode4:
 2735 0029 343A 626F 		.string	"4:boot mapper"
 2735      6F74 206D 
 2735      6170 7065 
 2735      7200 
 2736               	.global	str_exit
 2737               		.type	str_exit, @object
 2738               		.size	str_exit, 10
 2739               	str_exit:
 2740 0037 676F 6F64 		.string	"good bye~"
 2740      2062 7965 
 2740      7E00 
 2741               	.global	str_boot_mapper
 2742               		.type	str_boot_mapper, @object
 2743               		.size	str_boot_mapper, 19
 2744               	str_boot_mapper:
 2745 0041 626F 6F74 		.string	"boot mapper start!"
 2745      206D 6170 
 2745      7065 7220 
 2745      7374 6172 
 2745      7421 00
 2746               	.global	str_macro_message
 2747               		.type	str_macro_message, @object
GAS LISTING C:\Users\ADMINI~1\AppData\Local\Temp/ccnPzUe6.s 			page 50


 2748               		.size	str_macro_message, 6
 2749               	str_macro_message:
 2750 0054 4D61 6372 		.string	"Macro"
 2750      6F00 
 2751               	.global	str_macro_1
 2752               		.type	str_macro_1, @object
 2753               		.size	str_macro_1, 21
 2754               	str_macro_1:
 2755 005a 313A 5365 		.string	"1:Select Macro Index"
 2755      6C65 6374 
 2755      204D 6163 
 2755      726F 2049 
 2755      6E64 6578 
 2756               	.global	str_macro_2
 2757               		.type	str_macro_2, @object
 2758               		.size	str_macro_2, 7
 2759               	str_macro_2:
 2760 006f 323A 4578 		.string	"2:Exit"
 2760      6974 00
 2761               	.global	str_macro_9
 2762               		.type	str_macro_9, @object
 2763               		.size	str_macro_9, 12
 2764               	str_macro_9:
 2765 0076 393A 436C 		.string	"9:Clear All"
 2765      6561 7220 
 2765      416C 6C00 
 2766               	.global	str_back_6
 2767               		.type	str_back_6, @object
 2768               		.size	str_back_6, 7
 2769               	str_back_6:
 2770 0082 363A 4261 		.string	"6:Back"
 2770      636B 00
 2771               	.global	str_mapper_message
 2772               		.type	str_mapper_message, @object
 2773               		.size	str_mapper_message, 11
 2774               	str_mapper_message:
 2775 0089 4B65 7920 		.string	"Key Mapper"
 2775      4D61 7070 
 2775      6572 00
 2776               	.global	str_mapper_1
 2777               		.type	str_mapper_1, @object
 2778               		.size	str_mapper_1, 15
 2779               	str_mapper_1:
 2780 0094 313A 4368 		.string	"1:Change Layer"
 2780      616E 6765 
 2780      204C 6179 
 2780      6572 00
 2781               	.global	str_mapper_2
 2782               		.type	str_mapper_2, @object
 2783               		.size	str_mapper_2, 29
 2784               	str_mapper_2:
 2785 00a3 323A 5365 		.string	"2:Select Key - input keycode"
 2785      6C65 6374 
 2785      204B 6579 
 2785      202D 2069 
 2785      6E70 7574 
 2786               	.global	str_mapper_3
GAS LISTING C:\Users\ADMINI~1\AppData\Local\Temp/ccnPzUe6.s 			page 51


 2787               		.type	str_mapper_3, @object
 2788               		.size	str_mapper_3, 16
 2789               	str_mapper_3:
 2790 00c0 333A 5361 		.string	"3:Save and Exit"
 2790      7665 2061 
 2790      6E64 2045 
 2790      7869 7400 
 2791               	.global	str_mapper_4
 2792               		.type	str_mapper_4, @object
 2793               		.size	str_mapper_4, 22
 2794               	str_mapper_4:
 2795 00d0 343A 4578 		.string	"4:Exit without Saving"
 2795      6974 2077 
 2795      6974 686F 
 2795      7574 2053 
 2795      6176 696E 
 2796               	.global	str_mapper_9
 2797               		.type	str_mapper_9, @object
 2798               		.size	str_mapper_9, 35
 2799               	str_mapper_9:
 2800 00e6 393A 5265 		.string	"9:Reset to Default (Current Layer)"
 2800      7365 7420 
 2800      746F 2044 
 2800      6566 6175 
 2800      6C74 2028 
 2801               	.global	str_prepare_message
 2802               		.type	str_prepare_message, @object
 2803               		.size	str_prepare_message, 8
 2804               	str_prepare_message:
 2805 0109 7073 3261 		.string	"ps2avrU"
 2805      7672 5500 
 2806               	.global	str_choose_layer
 2807               		.type	str_choose_layer, @object
 2808               		.size	str_choose_layer, 50
 2809               	str_choose_layer:
 2810 0111 6368 6F6F 		.string	"choose layer (1: normal, 2: FN, 3: FN2) current= "
 2810      7365 206C 
 2810      6179 6572 
 2810      2028 313A 
 2810      206E 6F72 
 2811               	.global	str_choose_key
 2812               		.type	str_choose_key, @object
 2813               		.size	str_choose_key, 31
 2814               	str_choose_key:
 2815 0143 7365 6C65 		.string	"select key (any key you want) "
 2815      6374 206B 
 2815      6579 2028 
 2815      616E 7920 
 2815      6B65 7920 
 2816               	.global	str_input_keycode
 2817               		.type	str_input_keycode, @object
 2818               		.size	str_input_keycode, 34
 2819               	str_input_keycode:
 2820 0162 696E 7075 		.string	"input keycode (must 3 numbers) : "
 2820      7420 6B65 
 2820      7963 6F64 
 2820      6520 286D 
GAS LISTING C:\Users\ADMINI~1\AppData\Local\Temp/ccnPzUe6.s 			page 52


 2820      7573 7420 
 2821               	.global	str_save_end_mapping
 2822               		.type	str_save_end_mapping, @object
 2823               		.size	str_save_end_mapping, 24
 2824               	str_save_end_mapping:
 2825 0184 5361 7665 		.string	"Save & Exit, thank you."
 2825      2026 2045 
 2825      7869 742C 
 2825      2074 6861 
 2825      6E6B 2079 
 2826               	.global	str_cancel_mapping
 2827               		.type	str_cancel_mapping, @object
 2828               		.size	str_cancel_mapping, 36
 2829               	str_cancel_mapping:
 2830 019c 4578 6974 		.string	"Exit without Saving, see you later."
 2830      2077 6974 
 2830      686F 7574 
 2830      2053 6176 
 2830      696E 672C 
 2831               	.global	str_reset_mapping
 2832               		.type	str_reset_mapping, @object
 2833               		.size	str_reset_mapping, 31
 2834               	str_reset_mapping:
 2835 01c0 5265 7365 		.string	"Reset to default current layer"
 2835      7420 746F 
 2835      2064 6566 
 2835      6175 6C74 
 2835      2063 7572 
 2836               	.global	str_input_command
 2837               		.type	str_input_command, @object
 2838               		.size	str_input_command, 23
 2839               	str_input_command:
 2840 01df 496E 7075 		.string	"Input Command Number: "
 2840      7420 436F 
 2840      6D6D 616E 
 2840      6420 4E75 
 2840      6D62 6572 
 2841               	.global	str_nothing
 2842               		.type	str_nothing, @object
 2843               		.size	str_nothing, 8
 2844               	str_nothing:
 2845 01f6 6E6F 7468 		.string	"nothing"
 2845      696E 6700 
 2846               	.global	str_save_layer
 2847               		.type	str_save_layer, @object
 2848               		.size	str_save_layer, 19
 2849               	str_save_layer:
 2850 01fe 5361 7665 		.string	"Save current layer"
 2850      2063 7572 
 2850      7265 6E74 
 2850      206C 6179 
 2850      6572 00
 2851               	.global	str_load_layer
 2852               		.type	str_load_layer, @object
 2853               		.size	str_load_layer, 19
 2854               	str_load_layer:
 2855 0211 4C6F 6164 		.string	"Load current layer"
GAS LISTING C:\Users\ADMINI~1\AppData\Local\Temp/ccnPzUe6.s 			page 53


 2855      2063 7572 
 2855      7265 6E74 
 2855      206C 6179 
 2855      6572 00
 2856               	.global	str_saving
 2857               		.type	str_saving, @object
 2858               		.size	str_saving, 10
 2859               	str_saving:
 2860 0224 7361 7669 		.string	"saving..."
 2860      6E67 2E2E 
 2860      2E00 
 2861               	.global	str_col_row
 2862               		.type	str_col_row, @object
 2863               		.size	str_col_row, 12
 2864               	str_col_row:
 2865 022e 636F 6C2C 		.string	"col, row : "
 2865      2072 6F77 
 2865      203A 2000 
 2866               	.global	str_invalid_keycode
 2867               		.type	str_invalid_keycode, @object
 2868               		.size	str_invalid_keycode, 30
 2869               	str_invalid_keycode:
 2870 023a 696E 7661 		.string	"invalid keycode, input again."
 2870      6C69 6420 
 2870      6B65 7963 
 2870      6F64 652C 
 2870      2069 6E70 
 2871               	.global	str_select_number
 2872               		.type	str_select_number, @object
 2873               		.size	str_select_number, 45
 2874               	str_select_number:
 2875 0258 696E 7075 		.string	"input Macro Index (01~12, must 2 numbers) : "
 2875      7420 4D61 
 2875      6372 6F20 
 2875      496E 6465 
 2875      7820 2830 
 2876               	.global	str_exit_macro
 2877               		.type	str_exit_macro, @object
 2878               		.size	str_exit_macro, 27
 2879               	str_exit_macro:
 2880 0285 4578 6974 		.string	"Exit macro, see you later."
 2880      206D 6163 
 2880      726F 2C20 
 2880      7365 6520 
 2880      796F 7520 
 2881               	.global	str_input_macro
 2882               		.type	str_input_macro, @object
 2883               		.size	str_input_macro, 55
 2884               	str_input_macro:
 2885 02a0 696E 7075 		.string	"input key (max 24 keys, stop : press ESC during 1 sec)"
 2885      7420 6B65 
 2885      7920 286D 
 2885      6178 2032 
 2885      3420 6B65 
 2886               	.global	str_invalid_macro_number
 2887               		.type	str_invalid_macro_number, @object
 2888               		.size	str_invalid_macro_number, 28
GAS LISTING C:\Users\ADMINI~1\AppData\Local\Temp/ccnPzUe6.s 			page 54


 2889               	str_invalid_macro_number:
 2890 02d7 696E 7661 		.string	"invalid Index, input again."
 2890      6C69 6420 
 2890      496E 6465 
 2890      782C 2069 
 2890      6E70 7574 
 2891               	.global	str_clear_all_macro
 2892               		.type	str_clear_all_macro, @object
 2893               		.size	str_clear_all_macro, 9
 2894               	str_clear_all_macro:
 2895 02f3 636C 6561 		.string	"clear..."
 2895      722E 2E2E 
 2895      00
 2896               	.global	_pressedEscapeKeyCount
 2897               	.global	_pressedEscapeKeyCount
 2898               		.section .bss
 2899               		.type	_pressedEscapeKeyCount, @object
 2900               		.size	_pressedEscapeKeyCount, 2
 2901               	_pressedEscapeKeyCount:
 2902 0000 0000      		.skip 2,0
 2903               	.global	_isPressedEscapeKey
 2904               	.global	_isPressedEscapeKey
 2905               		.type	_isPressedEscapeKey, @object
 2906               		.size	_isPressedEscapeKey, 1
 2907               	_isPressedEscapeKey:
 2908 0002 00        		.skip 1,0
 2909               	.global	_isTiredEscapeKey
 2910               	.global	_isTiredEscapeKey
 2911               		.type	_isTiredEscapeKey, @object
 2912               		.size	_isTiredEscapeKey, 1
 2913               	_isTiredEscapeKey:
 2914 0003 00        		.skip 1,0
 2915               		.lcomm _isWorkingForEmpty,1
 2916               		.data
 2917               		.type	usingKeys, @object
 2918               		.size	usingKeys, 11
 2919               	usingKeys:
 2920 010f 27        		.byte	39
 2921 0110 1E        		.byte	30
 2922 0111 1F        		.byte	31
 2923 0112 20        		.byte	32
 2924 0113 21        		.byte	33
 2925 0114 22        		.byte	34
 2926 0115 23        		.byte	35
 2927 0116 24        		.byte	36
 2928 0117 25        		.byte	37
 2929 0118 26        		.byte	38
 2930 0119 29        		.byte	41
 2931               		.lcomm _macroDownCount,1
 2932               		.lcomm _isKeyMapping,1
 2933               		.lcomm enabledKeyMappingCount,1
 2934               		.lcomm keyMappingCount,2
 2935               		.type	keyMappingCountMax, @object
 2936               		.size	keyMappingCountMax, 2
 2937               	keyMappingCountMax:
 2938 011a F401      		.word	500
 2939               		.lcomm _keyMappingOnBoot,1
GAS LISTING C:\Users\ADMINI~1\AppData\Local\Temp/ccnPzUe6.s 			page 55


 2940               		.lcomm _mode,1
 2941               		.lcomm _step,1
 2942               		.lcomm _stepAfterLayerSave,1
 2943               		.lcomm _wait,1
 2944               		.lcomm _col,1
 2945               		.lcomm _row,1
 2946               		.lcomm _buffer,3
 2947               		.lcomm _bufferIndex,1
 2948               		.lcomm _editCount,2
 2949               		.lcomm _currentLayer,1
 2950               		.lcomm _currentLayerAfter,1
 2951               		.comm _macroIndex,1,1
 2952               		.comm _macroBufferIndex,1,1
 2953               		.comm _macroPressedBuffer,24,1
 2954               		.comm _macroInputBuffer,48,1
 2955               		.comm _newKeyMap,136,1
 2956               		.section	.debug_frame,"",@progbits
 2957               	.Lframe0:
 2958 0000 0C00 0000 		.long	.LECIE0-.LSCIE0
 2959               	.LSCIE0:
 2960 0004 FFFF FFFF 		.long	0xffffffff
 2961 0008 01        		.byte	0x1
 2962 0009 00        		.string	""
 2963 000a 01        		.uleb128 0x1
 2964 000b 7F        		.sleb128 -1
 2965 000c 24        		.byte	0x24
 2966 000d 0C        		.byte	0xc
 2967 000e 20        		.uleb128 0x20
 2968 000f 00        		.uleb128 0x0
 2969               		.p2align	2
 2970               	.LECIE0:
 2971               	.LSFDE0:
 2972 0010 0C00 0000 		.long	.LEFDE0-.LASFDE0
 2973               	.LASFDE0:
 2974 0014 0000 0000 		.long	.Lframe0
 2975 0018 0000 0000 		.long	.LFB9
 2976 001c 0C00 0000 		.long	.LFE9-.LFB9
 2977               		.p2align	2
 2978               	.LEFDE0:
 2979               	.LSFDE2:
 2980 0020 0C00 0000 		.long	.LEFDE2-.LASFDE2
 2981               	.LASFDE2:
 2982 0024 0000 0000 		.long	.Lframe0
 2983 0028 0000 0000 		.long	.LFB10
 2984 002c 0800 0000 		.long	.LFE10-.LFB10
 2985               		.p2align	2
 2986               	.LEFDE2:
 2987               	.LSFDE4:
 2988 0030 0C00 0000 		.long	.LEFDE4-.LASFDE4
 2989               	.LASFDE4:
 2990 0034 0000 0000 		.long	.Lframe0
 2991 0038 0000 0000 		.long	.LFB11
 2992 003c 0800 0000 		.long	.LFE11-.LFB11
 2993               		.p2align	2
 2994               	.LEFDE4:
 2995               	.LSFDE6:
 2996 0040 0C00 0000 		.long	.LEFDE6-.LASFDE6
GAS LISTING C:\Users\ADMINI~1\AppData\Local\Temp/ccnPzUe6.s 			page 56


 2997               	.LASFDE6:
 2998 0044 0000 0000 		.long	.Lframe0
 2999 0048 0000 0000 		.long	.LFB15
 3000 004c 0600 0000 		.long	.LFE15-.LFB15
 3001               		.p2align	2
 3002               	.LEFDE6:
 3003               	.LSFDE8:
 3004 0050 0C00 0000 		.long	.LEFDE8-.LASFDE8
 3005               	.LASFDE8:
 3006 0054 0000 0000 		.long	.Lframe0
 3007 0058 0000 0000 		.long	.LFB16
 3008 005c 0800 0000 		.long	.LFE16-.LFB16
 3009               		.p2align	2
 3010               	.LEFDE8:
 3011               	.LSFDE10:
 3012 0060 0C00 0000 		.long	.LEFDE10-.LASFDE10
 3013               	.LASFDE10:
 3014 0064 0000 0000 		.long	.Lframe0
 3015 0068 0000 0000 		.long	.LFB19
 3016 006c 0A00 0000 		.long	.LFE19-.LFB19
 3017               		.p2align	2
 3018               	.LEFDE10:
 3019               	.LSFDE12:
 3020 0070 0C00 0000 		.long	.LEFDE12-.LASFDE12
 3021               	.LASFDE12:
 3022 0074 0000 0000 		.long	.Lframe0
 3023 0078 0000 0000 		.long	.LFB24
 3024 007c 0E00 0000 		.long	.LFE24-.LFB24
 3025               		.p2align	2
 3026               	.LEFDE12:
 3027               	.LSFDE14:
 3028 0080 0C00 0000 		.long	.LEFDE14-.LASFDE14
 3029               	.LASFDE14:
 3030 0084 0000 0000 		.long	.Lframe0
 3031 0088 0000 0000 		.long	.LFB25
 3032 008c 0E00 0000 		.long	.LFE25-.LFB25
 3033               		.p2align	2
 3034               	.LEFDE14:
 3035               	.LSFDE16:
 3036 0090 0C00 0000 		.long	.LEFDE16-.LASFDE16
 3037               	.LASFDE16:
 3038 0094 0000 0000 		.long	.Lframe0
 3039 0098 0000 0000 		.long	.LFB47
 3040 009c 1000 0000 		.long	.LFE47-.LFB47
 3041               		.p2align	2
 3042               	.LEFDE16:
 3043               	.LSFDE18:
 3044 00a0 0C00 0000 		.long	.LEFDE18-.LASFDE18
 3045               	.LASFDE18:
 3046 00a4 0000 0000 		.long	.Lframe0
 3047 00a8 0000 0000 		.long	.LFB28
 3048 00ac 0E00 0000 		.long	.LFE28-.LFB28
 3049               		.p2align	2
 3050               	.LEFDE18:
 3051               	.LSFDE20:
 3052 00b0 0C00 0000 		.long	.LEFDE20-.LASFDE20
 3053               	.LASFDE20:
GAS LISTING C:\Users\ADMINI~1\AppData\Local\Temp/ccnPzUe6.s 			page 57


 3054 00b4 0000 0000 		.long	.Lframe0
 3055 00b8 0000 0000 		.long	.LFB12
 3056 00bc 7C00 0000 		.long	.LFE12-.LFB12
 3057               		.p2align	2
 3058               	.LEFDE20:
 3059               	.LSFDE22:
 3060 00c0 0C00 0000 		.long	.LEFDE22-.LASFDE22
 3061               	.LASFDE22:
 3062 00c4 0000 0000 		.long	.Lframe0
 3063 00c8 0000 0000 		.long	.LFB48
 3064 00cc 2600 0000 		.long	.LFE48-.LFB48
 3065               		.p2align	2
 3066               	.LEFDE22:
 3067               	.LSFDE24:
 3068 00d0 0C00 0000 		.long	.LEFDE24-.LASFDE24
 3069               	.LASFDE24:
 3070 00d4 0000 0000 		.long	.Lframe0
 3071 00d8 0000 0000 		.long	.LFB27
 3072 00dc 3400 0000 		.long	.LFE27-.LFB27
 3073               		.p2align	2
 3074               	.LEFDE24:
 3075               	.LSFDE26:
 3076 00e0 0C00 0000 		.long	.LEFDE26-.LASFDE26
 3077               	.LASFDE26:
 3078 00e4 0000 0000 		.long	.Lframe0
 3079 00e8 0000 0000 		.long	.LFB30
 3080 00ec 9000 0000 		.long	.LFE30-.LFB30
 3081               		.p2align	2
 3082               	.LEFDE26:
 3083               	.LSFDE28:
 3084 00f0 0C00 0000 		.long	.LEFDE28-.LASFDE28
 3085               	.LASFDE28:
 3086 00f4 0000 0000 		.long	.Lframe0
 3087 00f8 0000 0000 		.long	.LFB46
 3088 00fc 4C00 0000 		.long	.LFE46-.LFB46
 3089               		.p2align	2
 3090               	.LEFDE28:
 3091               	.LSFDE30:
 3092 0100 0C00 0000 		.long	.LEFDE30-.LASFDE30
 3093               	.LASFDE30:
 3094 0104 0000 0000 		.long	.Lframe0
 3095 0108 0000 0000 		.long	.LFB45
 3096 010c 1E00 0000 		.long	.LFE45-.LFB45
 3097               		.p2align	2
 3098               	.LEFDE30:
 3099               	.LSFDE32:
 3100 0110 0C00 0000 		.long	.LEFDE32-.LASFDE32
 3101               	.LASFDE32:
 3102 0114 0000 0000 		.long	.Lframe0
 3103 0118 0000 0000 		.long	.LFB40
 3104 011c 3C00 0000 		.long	.LFE40-.LFB40
 3105               		.p2align	2
 3106               	.LEFDE32:
 3107               	.LSFDE34:
 3108 0120 0C00 0000 		.long	.LEFDE34-.LASFDE34
 3109               	.LASFDE34:
 3110 0124 0000 0000 		.long	.Lframe0
GAS LISTING C:\Users\ADMINI~1\AppData\Local\Temp/ccnPzUe6.s 			page 58


 3111 0128 0000 0000 		.long	.LFB36
 3112 012c 0E00 0000 		.long	.LFE36-.LFB36
 3113               		.p2align	2
 3114               	.LEFDE34:
 3115               	.LSFDE36:
 3116 0130 0C00 0000 		.long	.LEFDE36-.LASFDE36
 3117               	.LASFDE36:
 3118 0134 0000 0000 		.long	.Lframe0
 3119 0138 0000 0000 		.long	.LFB35
 3120 013c 4800 0000 		.long	.LFE35-.LFB35
 3121               		.p2align	2
 3122               	.LEFDE36:
 3123               	.LSFDE38:
 3124 0140 0C00 0000 		.long	.LEFDE38-.LASFDE38
 3125               	.LASFDE38:
 3126 0144 0000 0000 		.long	.Lframe0
 3127 0148 0000 0000 		.long	.LFB29
 3128 014c A600 0000 		.long	.LFE29-.LFB29
 3129               		.p2align	2
 3130               	.LEFDE38:
 3131               	.LSFDE40:
 3132 0150 0C00 0000 		.long	.LEFDE40-.LASFDE40
 3133               	.LASFDE40:
 3134 0154 0000 0000 		.long	.Lframe0
 3135 0158 0000 0000 		.long	.LFB31
 3136 015c F000 0000 		.long	.LFE31-.LFB31
 3137               		.p2align	2
 3138               	.LEFDE40:
 3139               	.LSFDE42:
 3140 0160 0C00 0000 		.long	.LEFDE42-.LASFDE42
 3141               	.LASFDE42:
 3142 0164 0000 0000 		.long	.Lframe0
 3143 0168 0000 0000 		.long	.LFB33
 3144 016c 4000 0000 		.long	.LFE33-.LFB33
 3145               		.p2align	2
 3146               	.LEFDE42:
 3147               	.LSFDE44:
 3148 0170 0C00 0000 		.long	.LEFDE44-.LASFDE44
 3149               	.LASFDE44:
 3150 0174 0000 0000 		.long	.Lframe0
 3151 0178 0000 0000 		.long	.LFB32
 3152 017c 4C00 0000 		.long	.LFE32-.LFB32
 3153               		.p2align	2
 3154               	.LEFDE44:
 3155               	.LSFDE46:
 3156 0180 0C00 0000 		.long	.LEFDE46-.LASFDE46
 3157               	.LASFDE46:
 3158 0184 0000 0000 		.long	.Lframe0
 3159 0188 0000 0000 		.long	.LFB44
 3160 018c 2A00 0000 		.long	.LFE44-.LFB44
 3161               		.p2align	2
 3162               	.LEFDE46:
 3163               	.LSFDE48:
 3164 0190 0C00 0000 		.long	.LEFDE48-.LASFDE48
 3165               	.LASFDE48:
 3166 0194 0000 0000 		.long	.Lframe0
 3167 0198 0000 0000 		.long	.LFB43
GAS LISTING C:\Users\ADMINI~1\AppData\Local\Temp/ccnPzUe6.s 			page 59


 3168 019c 4800 0000 		.long	.LFE43-.LFB43
 3169               		.p2align	2
 3170               	.LEFDE48:
 3171               	.LSFDE50:
 3172 01a0 0C00 0000 		.long	.LEFDE50-.LASFDE50
 3173               	.LASFDE50:
 3174 01a4 0000 0000 		.long	.Lframe0
 3175 01a8 0000 0000 		.long	.LFB42
 3176 01ac 4800 0000 		.long	.LFE42-.LFB42
 3177               		.p2align	2
 3178               	.LEFDE50:
 3179               	.LSFDE52:
 3180 01b0 0C00 0000 		.long	.LEFDE52-.LASFDE52
 3181               	.LASFDE52:
 3182 01b4 0000 0000 		.long	.Lframe0
 3183 01b8 0000 0000 		.long	.LFB37
 3184 01bc 8800 0000 		.long	.LFE37-.LFB37
 3185               		.p2align	2
 3186               	.LEFDE52:
 3187               	.LSFDE54:
 3188 01c0 0C00 0000 		.long	.LEFDE54-.LASFDE54
 3189               	.LASFDE54:
 3190 01c4 0000 0000 		.long	.Lframe0
 3191 01c8 0000 0000 		.long	.LFB49
 3192 01cc 0E06 0000 		.long	.LFE49-.LFB49
 3193               		.p2align	2
 3194               	.LEFDE54:
 3195               	.LSFDE56:
 3196 01d0 0C00 0000 		.long	.LEFDE56-.LASFDE56
 3197               	.LASFDE56:
 3198 01d4 0000 0000 		.long	.Lframe0
 3199 01d8 0000 0000 		.long	.LFB39
 3200 01dc CE00 0000 		.long	.LFE39-.LFB39
 3201               		.p2align	2
 3202               	.LEFDE56:
 3203               	.LSFDE58:
 3204 01e0 0C00 0000 		.long	.LEFDE58-.LASFDE58
 3205               	.LASFDE58:
 3206 01e4 0000 0000 		.long	.Lframe0
 3207 01e8 0000 0000 		.long	.LFB38
 3208 01ec 2400 0000 		.long	.LFE38-.LFB38
 3209               		.p2align	2
 3210               	.LEFDE58:
 3211               	.LSFDE60:
 3212 01f0 0C00 0000 		.long	.LEFDE60-.LASFDE60
 3213               	.LASFDE60:
 3214 01f4 0000 0000 		.long	.Lframe0
 3215 01f8 0000 0000 		.long	.LFB26
 3216 01fc 5600 0000 		.long	.LFE26-.LFB26
 3217               		.p2align	2
 3218               	.LEFDE60:
 3219               	.LSFDE62:
 3220 0200 0C00 0000 		.long	.LEFDE62-.LASFDE62
 3221               	.LASFDE62:
 3222 0204 0000 0000 		.long	.Lframe0
 3223 0208 0000 0000 		.long	.LFB41
 3224 020c 3000 0000 		.long	.LFE41-.LFB41
GAS LISTING C:\Users\ADMINI~1\AppData\Local\Temp/ccnPzUe6.s 			page 60


 3225               		.p2align	2
 3226               	.LEFDE62:
 3227               	.LSFDE64:
 3228 0210 0C00 0000 		.long	.LEFDE64-.LASFDE64
 3229               	.LASFDE64:
 3230 0214 0000 0000 		.long	.Lframe0
 3231 0218 0000 0000 		.long	.LFB18
 3232 021c 2400 0000 		.long	.LFE18-.LFB18
 3233               		.p2align	2
 3234               	.LEFDE64:
 3235               	.LSFDE66:
 3236 0220 0C00 0000 		.long	.LEFDE66-.LASFDE66
 3237               	.LASFDE66:
 3238 0224 0000 0000 		.long	.Lframe0
 3239 0228 0000 0000 		.long	.LFB13
 3240 022c 3000 0000 		.long	.LFE13-.LFB13
 3241               		.p2align	2
 3242               	.LEFDE66:
 3243               	.LSFDE68:
 3244 0230 0C00 0000 		.long	.LEFDE68-.LASFDE68
 3245               	.LASFDE68:
 3246 0234 0000 0000 		.long	.Lframe0
 3247 0238 0000 0000 		.long	.LFB20
 3248 023c 3A00 0000 		.long	.LFE20-.LFB20
 3249               		.p2align	2
 3250               	.LEFDE68:
 3251               	.LSFDE70:
 3252 0240 0C00 0000 		.long	.LEFDE70-.LASFDE70
 3253               	.LASFDE70:
 3254 0244 0000 0000 		.long	.Lframe0
 3255 0248 0000 0000 		.long	.LFB21
 3256 024c A800 0000 		.long	.LFE21-.LFB21
 3257               		.p2align	2
 3258               	.LEFDE70:
 3259               	.LSFDE72:
 3260 0250 0C00 0000 		.long	.LEFDE72-.LASFDE72
 3261               	.LASFDE72:
 3262 0254 0000 0000 		.long	.Lframe0
 3263 0258 0000 0000 		.long	.LFB17
 3264 025c 2000 0000 		.long	.LFE17-.LFB17
 3265               		.p2align	2
 3266               	.LEFDE72:
 3267               		.text
 3268               	.Letext0:
 3269               		.section	.debug_loc,"",@progbits
 3270               	.Ldebug_loc0:
 3271               	.LLST7:
 3272 0000 3400 0000 		.long	.LVL0-.Ltext0
 3273 0004 3800 0000 		.long	.LVL1-.Ltext0
 3274 0008 0100      		.word	0x1
 3275 000a 68        		.byte	0x68
 3276 000b 0000 0000 		.long	0x0
 3277 000f 0000 0000 		.long	0x0
 3278               	.LLST9:
 3279 0013 4200 0000 		.long	.LVL2-.Ltext0
 3280 0017 4600 0000 		.long	.LVL3-.Ltext0
 3281 001b 0100      		.word	0x1
GAS LISTING C:\Users\ADMINI~1\AppData\Local\Temp/ccnPzUe6.s 			page 61


 3282 001d 68        		.byte	0x68
 3283 001e 4600 0000 		.long	.LVL3-.Ltext0
 3284 0022 5000 0000 		.long	.LFE25-.Ltext0
 3285 0026 0100      		.word	0x1
 3286 0028 69        		.byte	0x69
 3287 0029 0000 0000 		.long	0x0
 3288 002d 0000 0000 		.long	0x0
 3289               	.LLST15:
 3290 0031 1001 0000 		.long	.LVL4-.Ltext0
 3291 0035 1801 0000 		.long	.LVL5-.Ltext0
 3292 0039 0600      		.word	0x6
 3293 003b 68        		.byte	0x68
 3294 003c 93        		.byte	0x93
 3295 003d 01        		.uleb128 0x1
 3296 003e 69        		.byte	0x69
 3297 003f 93        		.byte	0x93
 3298 0040 01        		.uleb128 0x1
 3299 0041 1801 0000 		.long	.LVL5-.Ltext0
 3300 0045 1C01 0000 		.long	.LVL6-.Ltext0
 3301 0049 0600      		.word	0x6
 3302 004b 6E        		.byte	0x6e
 3303 004c 93        		.byte	0x93
 3304 004d 01        		.uleb128 0x1
 3305 004e 6F        		.byte	0x6f
 3306 004f 93        		.byte	0x93
 3307 0050 01        		.uleb128 0x1
 3308 0051 0000 0000 		.long	0x0
 3309 0055 0000 0000 		.long	0x0
 3310               	.LLST17:
 3311 0059 4401 0000 		.long	.LVL13-.Ltext0
 3312 005d 6201 0000 		.long	.LVL14-.Ltext0
 3313 0061 0600      		.word	0x6
 3314 0063 68        		.byte	0x68
 3315 0064 93        		.byte	0x93
 3316 0065 01        		.uleb128 0x1
 3317 0066 69        		.byte	0x69
 3318 0067 93        		.byte	0x93
 3319 0068 01        		.uleb128 0x1
 3320 0069 6201 0000 		.long	.LVL14-.Ltext0
 3321 006d A401 0000 		.long	.LVL18-.Ltext0
 3322 0071 0600      		.word	0x6
 3323 0073 60        		.byte	0x60
 3324 0074 93        		.byte	0x93
 3325 0075 01        		.uleb128 0x1
 3326 0076 61        		.byte	0x61
 3327 0077 93        		.byte	0x93
 3328 0078 01        		.uleb128 0x1
 3329 0079 A401 0000 		.long	.LVL18-.Ltext0
 3330 007d B401 0000 		.long	.LVL19-.Ltext0
 3331 0081 0600      		.word	0x6
 3332 0083 68        		.byte	0x68
 3333 0084 93        		.byte	0x93
 3334 0085 01        		.uleb128 0x1
 3335 0086 69        		.byte	0x69
 3336 0087 93        		.byte	0x93
 3337 0088 01        		.uleb128 0x1
 3338 0089 B401 0000 		.long	.LVL19-.Ltext0
GAS LISTING C:\Users\ADMINI~1\AppData\Local\Temp/ccnPzUe6.s 			page 62


 3339 008d CA01 0000 		.long	.LVL23-.Ltext0
 3340 0091 0600      		.word	0x6
 3341 0093 60        		.byte	0x60
 3342 0094 93        		.byte	0x93
 3343 0095 01        		.uleb128 0x1
 3344 0096 61        		.byte	0x61
 3345 0097 93        		.byte	0x93
 3346 0098 01        		.uleb128 0x1
 3347 0099 CA01 0000 		.long	.LVL23-.Ltext0
 3348 009d D401 0000 		.long	.LFE30-.Ltext0
 3349 00a1 0600      		.word	0x6
 3350 00a3 68        		.byte	0x68
 3351 00a4 93        		.byte	0x93
 3352 00a5 01        		.uleb128 0x1
 3353 00a6 69        		.byte	0x69
 3354 00a7 93        		.byte	0x93
 3355 00a8 01        		.uleb128 0x1
 3356 00a9 0000 0000 		.long	0x0
 3357 00ad 0000 0000 		.long	0x0
 3358               	.LLST18:
 3359 00b1 8401 0000 		.long	.LVL16-.Ltext0
 3360 00b5 8C01 0000 		.long	.LVL17-.Ltext0
 3361 00b9 0100      		.word	0x1
 3362 00bb 68        		.byte	0x68
 3363 00bc 0000 0000 		.long	0x0
 3364 00c0 0000 0000 		.long	0x0
 3365               	.LLST19:
 3366 00c4 6201 0000 		.long	.LVL14-.Ltext0
 3367 00c8 6C01 0000 		.long	.LVL15-.Ltext0
 3368 00cc 0600      		.word	0x6
 3369 00ce 6E        		.byte	0x6e
 3370 00cf 93        		.byte	0x93
 3371 00d0 01        		.uleb128 0x1
 3372 00d1 6F        		.byte	0x6f
 3373 00d2 93        		.byte	0x93
 3374 00d3 01        		.uleb128 0x1
 3375 00d4 B601 0000 		.long	.LVL20-.Ltext0
 3376 00d8 D401 0000 		.long	.LFE30-.Ltext0
 3377 00dc 0600      		.word	0x6
 3378 00de 6E        		.byte	0x6e
 3379 00df 93        		.byte	0x93
 3380 00e0 01        		.uleb128 0x1
 3381 00e1 6F        		.byte	0x6f
 3382 00e2 93        		.byte	0x93
 3383 00e3 01        		.uleb128 0x1
 3384 00e4 0000 0000 		.long	0x0
 3385 00e8 0000 0000 		.long	0x0
 3386               	.LLST20:
 3387 00ec 6201 0000 		.long	.LVL14-.Ltext0
 3388 00f0 8401 0000 		.long	.LVL16-.Ltext0
 3389 00f4 0100      		.word	0x1
 3390 00f6 68        		.byte	0x68
 3391 00f7 BC01 0000 		.long	.LVL21-.Ltext0
 3392 00fb D401 0000 		.long	.LFE30-.Ltext0
 3393 00ff 0100      		.word	0x1
 3394 0101 68        		.byte	0x68
 3395 0102 0000 0000 		.long	0x0
GAS LISTING C:\Users\ADMINI~1\AppData\Local\Temp/ccnPzUe6.s 			page 63


 3396 0106 0000 0000 		.long	0x0
 3397               	.LLST27:
 3398 010a D002 0000 		.long	.LVL24-.Ltext0
 3399 010e FE02 0000 		.long	.LVL26-.Ltext0
 3400 0112 0600      		.word	0x6
 3401 0114 68        		.byte	0x68
 3402 0115 93        		.byte	0x93
 3403 0116 01        		.uleb128 0x1
 3404 0117 69        		.byte	0x69
 3405 0118 93        		.byte	0x93
 3406 0119 01        		.uleb128 0x1
 3407 011a FE02 0000 		.long	.LVL26-.Ltext0
 3408 011e 6A03 0000 		.long	.LVL28-.Ltext0
 3409 0122 0600      		.word	0x6
 3410 0124 60        		.byte	0x60
 3411 0125 93        		.byte	0x93
 3412 0126 01        		.uleb128 0x1
 3413 0127 61        		.byte	0x61
 3414 0128 93        		.byte	0x93
 3415 0129 01        		.uleb128 0x1
 3416 012a 0000 0000 		.long	0x0
 3417 012e 0000 0000 		.long	0x0
 3418               	.LLST28:
 3419 0132 EC02 0000 		.long	.LVL25-.Ltext0
 3420 0136 6C03 0000 		.long	.LVL29-.Ltext0
 3421 013a 0100      		.word	0x1
 3422 013c 5F        		.byte	0x5f
 3423 013d 0000 0000 		.long	0x0
 3424 0141 0000 0000 		.long	0x0
 3425               	.LLST35:
 3426 0145 6405 0000 		.long	.LVL32-.Ltext0
 3427 0149 7405 0000 		.long	.LVL33-.Ltext0
 3428 014d 0100      		.word	0x1
 3429 014f 68        		.byte	0x68
 3430 0150 7405 0000 		.long	.LVL33-.Ltext0
 3431 0154 8C05 0000 		.long	.LVL35-.Ltext0
 3432 0158 0100      		.word	0x1
 3433 015a 69        		.byte	0x69
 3434 015b A205 0000 		.long	.LVL38-.Ltext0
 3435 015f AC05 0000 		.long	.LFE42-.Ltext0
 3436 0163 0100      		.word	0x1
 3437 0165 68        		.byte	0x68
 3438 0166 0000 0000 		.long	0x0
 3439 016a 0000 0000 		.long	0x0
 3440               	.LLST36:
 3441 016e 8605 0000 		.long	.LVL34-.Ltext0
 3442 0172 8C05 0000 		.long	.LVL35-.Ltext0
 3443 0176 0100      		.word	0x1
 3444 0178 69        		.byte	0x69
 3445 0179 8E05 0000 		.long	.LVL36-.Ltext0
 3446 017d 9A05 0000 		.long	.LVL37-.Ltext0
 3447 0181 0100      		.word	0x1
 3448 0183 69        		.byte	0x69
 3449 0184 9A05 0000 		.long	.LVL37-.Ltext0
 3450 0188 AC05 0000 		.long	.LFE42-.Ltext0
 3451 018c 0100      		.word	0x1
 3452 018e 69        		.byte	0x69
GAS LISTING C:\Users\ADMINI~1\AppData\Local\Temp/ccnPzUe6.s 			page 64


 3453 018f 0000 0000 		.long	0x0
 3454 0193 0000 0000 		.long	0x0
 3455               	.LLST39:
 3456 0197 3406 0000 		.long	.LVL39-.Ltext0
 3457 019b 5A06 0000 		.long	.LVL40-.Ltext0
 3458 019f 0100      		.word	0x1
 3459 01a1 68        		.byte	0x68
 3460 01a2 5C06 0000 		.long	.LVL41-.Ltext0
 3461 01a6 3E0C 0000 		.long	.LVL78-.Ltext0
 3462 01aa 0100      		.word	0x1
 3463 01ac 5B        		.byte	0x5b
 3464 01ad 0000 0000 		.long	0x0
 3465 01b1 0000 0000 		.long	0x0
 3466               	.LLST40:
 3467 01b5 3406 0000 		.long	.LVL39-.Ltext0
 3468 01b9 5A06 0000 		.long	.LVL40-.Ltext0
 3469 01bd 0100      		.word	0x1
 3470 01bf 66        		.byte	0x66
 3471 01c0 5A06 0000 		.long	.LVL40-.Ltext0
 3472 01c4 360C 0000 		.long	.LVL75-.Ltext0
 3473 01c8 0100      		.word	0x1
 3474 01ca 5F        		.byte	0x5f
 3475 01cb 0000 0000 		.long	0x0
 3476 01cf 0000 0000 		.long	0x0
 3477               	.LLST41:
 3478 01d3 3406 0000 		.long	.LVL39-.Ltext0
 3479 01d7 5A06 0000 		.long	.LVL40-.Ltext0
 3480 01db 0100      		.word	0x1
 3481 01dd 64        		.byte	0x64
 3482 01de 5A06 0000 		.long	.LVL40-.Ltext0
 3483 01e2 2207 0000 		.long	.LVL43-.Ltext0
 3484 01e6 0100      		.word	0x1
 3485 01e8 5E        		.byte	0x5e
 3486 01e9 9407 0000 		.long	.LVL47-.Ltext0
 3487 01ed 380C 0000 		.long	.LVL76-.Ltext0
 3488 01f1 0100      		.word	0x1
 3489 01f3 5E        		.byte	0x5e
 3490 01f4 0000 0000 		.long	0x0
 3491 01f8 0000 0000 		.long	0x0
 3492               	.LLST42:
 3493 01fc 3406 0000 		.long	.LVL39-.Ltext0
 3494 0200 5A06 0000 		.long	.LVL40-.Ltext0
 3495 0204 0100      		.word	0x1
 3496 0206 62        		.byte	0x62
 3497 0207 5A06 0000 		.long	.LVL40-.Ltext0
 3498 020b 400C 0000 		.long	.LVL79-.Ltext0
 3499 020f 0100      		.word	0x1
 3500 0211 5A        		.byte	0x5a
 3501 0212 0000 0000 		.long	0x0
 3502 0216 0000 0000 		.long	0x0
 3503               	.LLST43:
 3504 021a 9208 0000 		.long	.LVL49-.Ltext0
 3505 021e 7609 0000 		.long	.LVL50-.Ltext0
 3506 0222 0100      		.word	0x1
 3507 0224 60        		.byte	0x60
 3508 0225 CA0A 0000 		.long	.LVL59-.Ltext0
 3509 0229 CE0A 0000 		.long	.LVL60-.Ltext0
GAS LISTING C:\Users\ADMINI~1\AppData\Local\Temp/ccnPzUe6.s 			page 65


 3510 022d 0100      		.word	0x1
 3511 022f 60        		.byte	0x60
 3512 0230 740B 0000 		.long	.LVL61-.Ltext0
 3513 0234 7E0B 0000 		.long	.LVL62-.Ltext0
 3514 0238 0100      		.word	0x1
 3515 023a 60        		.byte	0x60
 3516 023b 220C 0000 		.long	.LVL71-.Ltext0
 3517 023f 340C 0000 		.long	.LVL74-.Ltext0
 3518 0243 0100      		.word	0x1
 3519 0245 60        		.byte	0x60
 3520 0246 0000 0000 		.long	0x0
 3521 024a 0000 0000 		.long	0x0
 3522               	.LLST44:
 3523 024e 740A 0000 		.long	.LVL58-.Ltext0
 3524 0252 CE0A 0000 		.long	.LVL60-.Ltext0
 3525 0256 0100      		.word	0x1
 3526 0258 61        		.byte	0x61
 3527 0259 740B 0000 		.long	.LVL61-.Ltext0
 3528 025d 7E0B 0000 		.long	.LVL62-.Ltext0
 3529 0261 0100      		.word	0x1
 3530 0263 61        		.byte	0x61
 3531 0264 220C 0000 		.long	.LVL71-.Ltext0
 3532 0268 320C 0000 		.long	.LVL73-.Ltext0
 3533 026c 0100      		.word	0x1
 3534 026e 61        		.byte	0x61
 3535 026f 0000 0000 		.long	0x0
 3536 0273 0000 0000 		.long	0x0
 3537               	.LLST45:
 3538 0277 240A 0000 		.long	.LVL51-.Ltext0
 3539 027b 360A 0000 		.long	.LVL52-.Ltext0
 3540 027f 0600      		.word	0x6
 3541 0281 62        		.byte	0x62
 3542 0282 93        		.byte	0x93
 3543 0283 01        		.uleb128 0x1
 3544 0284 63        		.byte	0x63
 3545 0285 93        		.byte	0x93
 3546 0286 01        		.uleb128 0x1
 3547 0287 480A 0000 		.long	.LVL53-.Ltext0
 3548 028b 4C0A 0000 		.long	.LVL54-.Ltext0
 3549 028f 0600      		.word	0x6
 3550 0291 62        		.byte	0x62
 3551 0292 93        		.byte	0x93
 3552 0293 01        		.uleb128 0x1
 3553 0294 63        		.byte	0x63
 3554 0295 93        		.byte	0x93
 3555 0296 01        		.uleb128 0x1
 3556 0297 940B 0000 		.long	.LVL63-.Ltext0
 3557 029b EE0B 0000 		.long	.LVL64-.Ltext0
 3558 029f 0600      		.word	0x6
 3559 02a1 64        		.byte	0x64
 3560 02a2 93        		.byte	0x93
 3561 02a3 01        		.uleb128 0x1
 3562 02a4 65        		.byte	0x65
 3563 02a5 93        		.byte	0x93
 3564 02a6 01        		.uleb128 0x1
 3565 02a7 F60B 0000 		.long	.LVL65-.Ltext0
 3566 02ab 0C0C 0000 		.long	.LVL67-.Ltext0
GAS LISTING C:\Users\ADMINI~1\AppData\Local\Temp/ccnPzUe6.s 			page 66


 3567 02af 0600      		.word	0x6
 3568 02b1 64        		.byte	0x64
 3569 02b2 93        		.byte	0x93
 3570 02b3 01        		.uleb128 0x1
 3571 02b4 65        		.byte	0x65
 3572 02b5 93        		.byte	0x93
 3573 02b6 01        		.uleb128 0x1
 3574 02b7 0000 0000 		.long	0x0
 3575 02bb 0000 0000 		.long	0x0
 3576               	.LLST46:
 3577 02bf 8A06 0000 		.long	.LVL42-.Ltext0
 3578 02c3 3C0C 0000 		.long	.LVL77-.Ltext0
 3579 02c7 0600      		.word	0x6
 3580 02c9 5C        		.byte	0x5c
 3581 02ca 93        		.byte	0x93
 3582 02cb 01        		.uleb128 0x1
 3583 02cc 5D        		.byte	0x5d
 3584 02cd 93        		.byte	0x93
 3585 02ce 01        		.uleb128 0x1
 3586 02cf 0000 0000 		.long	0x0
 3587 02d3 0000 0000 		.long	0x0
 3588               	.LLST47:
 3589 02d7 3C07 0000 		.long	.LVL44-.Ltext0
 3590 02db 4607 0000 		.long	.LVL45-.Ltext0
 3591 02df 0600      		.word	0x6
 3592 02e1 60        		.byte	0x60
 3593 02e2 93        		.byte	0x93
 3594 02e3 01        		.uleb128 0x1
 3595 02e4 61        		.byte	0x61
 3596 02e5 93        		.byte	0x93
 3597 02e6 01        		.uleb128 0x1
 3598 02e7 4607 0000 		.long	.LVL45-.Ltext0
 3599 02eb 4807 0000 		.long	.LVL46-.Ltext0
 3600 02ef 0600      		.word	0x6
 3601 02f1 68        		.byte	0x68
 3602 02f2 93        		.byte	0x93
 3603 02f3 01        		.uleb128 0x1
 3604 02f4 69        		.byte	0x69
 3605 02f5 93        		.byte	0x93
 3606 02f6 01        		.uleb128 0x1
 3607 02f7 4807 0000 		.long	.LVL46-.Ltext0
 3608 02fb 2608 0000 		.long	.LVL48-.Ltext0
 3609 02ff 0600      		.word	0x6
 3610 0301 60        		.byte	0x60
 3611 0302 93        		.byte	0x93
 3612 0303 01        		.uleb128 0x1
 3613 0304 61        		.byte	0x61
 3614 0305 93        		.byte	0x93
 3615 0306 01        		.uleb128 0x1
 3616 0307 080C 0000 		.long	.LVL66-.Ltext0
 3617 030b 0E0C 0000 		.long	.LVL68-.Ltext0
 3618 030f 0600      		.word	0x6
 3619 0311 60        		.byte	0x60
 3620 0312 93        		.byte	0x93
 3621 0313 01        		.uleb128 0x1
 3622 0314 61        		.byte	0x61
 3623 0315 93        		.byte	0x93
GAS LISTING C:\Users\ADMINI~1\AppData\Local\Temp/ccnPzUe6.s 			page 67


 3624 0316 01        		.uleb128 0x1
 3625 0317 220C 0000 		.long	.LVL71-.Ltext0
 3626 031b 340C 0000 		.long	.LVL74-.Ltext0
 3627 031f 0600      		.word	0x6
 3628 0321 60        		.byte	0x60
 3629 0322 93        		.byte	0x93
 3630 0323 01        		.uleb128 0x1
 3631 0324 61        		.byte	0x61
 3632 0325 93        		.byte	0x93
 3633 0326 01        		.uleb128 0x1
 3634 0327 340C 0000 		.long	.LVL74-.Ltext0
 3635 032b 420C 0000 		.long	.LFE49-.Ltext0
 3636 032f 0600      		.word	0x6
 3637 0331 68        		.byte	0x68
 3638 0332 93        		.byte	0x93
 3639 0333 01        		.uleb128 0x1
 3640 0334 69        		.byte	0x69
 3641 0335 93        		.byte	0x93
 3642 0336 01        		.uleb128 0x1
 3643 0337 0000 0000 		.long	0x0
 3644 033b 0000 0000 		.long	0x0
 3645               	.LLST48:
 3646 033f 560A 0000 		.long	.LVL55-.Ltext0
 3647 0343 660A 0000 		.long	.LVL57-.Ltext0
 3648 0347 0600      		.word	0x6
 3649 0349 68        		.byte	0x68
 3650 034a 93        		.byte	0x93
 3651 034b 01        		.uleb128 0x1
 3652 034c 69        		.byte	0x69
 3653 034d 93        		.byte	0x93
 3654 034e 01        		.uleb128 0x1
 3655 034f 260C 0000 		.long	.LVL72-.Ltext0
 3656 0353 420C 0000 		.long	.LFE49-.Ltext0
 3657 0357 0600      		.word	0x6
 3658 0359 68        		.byte	0x68
 3659 035a 93        		.byte	0x93
 3660 035b 01        		.uleb128 0x1
 3661 035c 69        		.byte	0x69
 3662 035d 93        		.byte	0x93
 3663 035e 01        		.uleb128 0x1
 3664 035f 0000 0000 		.long	0x0
 3665 0363 0000 0000 		.long	0x0
 3666               	.LLST49:
 3667 0367 5C0A 0000 		.long	.LVL56-.Ltext0
 3668 036b 660A 0000 		.long	.LVL57-.Ltext0
 3669 036f 0600      		.word	0x6
 3670 0371 6E        		.byte	0x6e
 3671 0372 93        		.byte	0x93
 3672 0373 01        		.uleb128 0x1
 3673 0374 6F        		.byte	0x6f
 3674 0375 93        		.byte	0x93
 3675 0376 01        		.uleb128 0x1
 3676 0377 260C 0000 		.long	.LVL72-.Ltext0
 3677 037b 420C 0000 		.long	.LFE49-.Ltext0
 3678 037f 0600      		.word	0x6
 3679 0381 6E        		.byte	0x6e
 3680 0382 93        		.byte	0x93
GAS LISTING C:\Users\ADMINI~1\AppData\Local\Temp/ccnPzUe6.s 			page 68


 3681 0383 01        		.uleb128 0x1
 3682 0384 6F        		.byte	0x6f
 3683 0385 93        		.byte	0x93
 3684 0386 01        		.uleb128 0x1
 3685 0387 0000 0000 		.long	0x0
 3686 038b 0000 0000 		.long	0x0
 3687               	.LLST50:
 3688 038f 120C 0000 		.long	.LVL69-.Ltext0
 3689 0393 220C 0000 		.long	.LVL71-.Ltext0
 3690 0397 0600      		.word	0x6
 3691 0399 68        		.byte	0x68
 3692 039a 93        		.byte	0x93
 3693 039b 01        		.uleb128 0x1
 3694 039c 69        		.byte	0x69
 3695 039d 93        		.byte	0x93
 3696 039e 01        		.uleb128 0x1
 3697 039f 260C 0000 		.long	.LVL72-.Ltext0
 3698 03a3 420C 0000 		.long	.LFE49-.Ltext0
 3699 03a7 0600      		.word	0x6
 3700 03a9 68        		.byte	0x68
 3701 03aa 93        		.byte	0x93
 3702 03ab 01        		.uleb128 0x1
 3703 03ac 69        		.byte	0x69
 3704 03ad 93        		.byte	0x93
 3705 03ae 01        		.uleb128 0x1
 3706 03af 0000 0000 		.long	0x0
 3707 03b3 0000 0000 		.long	0x0
 3708               	.LLST51:
 3709 03b7 180C 0000 		.long	.LVL70-.Ltext0
 3710 03bb 220C 0000 		.long	.LVL71-.Ltext0
 3711 03bf 0600      		.word	0x6
 3712 03c1 6E        		.byte	0x6e
 3713 03c2 93        		.byte	0x93
 3714 03c3 01        		.uleb128 0x1
 3715 03c4 6F        		.byte	0x6f
 3716 03c5 93        		.byte	0x93
 3717 03c6 01        		.uleb128 0x1
 3718 03c7 260C 0000 		.long	.LVL72-.Ltext0
 3719 03cb 420C 0000 		.long	.LFE49-.Ltext0
 3720 03cf 0600      		.word	0x6
 3721 03d1 6E        		.byte	0x6e
 3722 03d2 93        		.byte	0x93
 3723 03d3 01        		.uleb128 0x1
 3724 03d4 6F        		.byte	0x6f
 3725 03d5 93        		.byte	0x93
 3726 03d6 01        		.uleb128 0x1
 3727 03d7 0000 0000 		.long	0x0
 3728 03db 0000 0000 		.long	0x0
 3729               	.LLST55:
 3730 03df 340D 0000 		.long	.LVL80-.Ltext0
 3731 03e3 440D 0000 		.long	.LVL81-.Ltext0
 3732 03e7 0100      		.word	0x1
 3733 03e9 68        		.byte	0x68
 3734 03ea 440D 0000 		.long	.LVL81-.Ltext0
 3735 03ee 840D 0000 		.long	.LVL90-.Ltext0
 3736 03f2 0100      		.word	0x1
 3737 03f4 61        		.byte	0x61
GAS LISTING C:\Users\ADMINI~1\AppData\Local\Temp/ccnPzUe6.s 			page 69


 3738 03f5 0000 0000 		.long	0x0
 3739 03f9 0000 0000 		.long	0x0
 3740               	.LLST56:
 3741 03fd 340D 0000 		.long	.LVL80-.Ltext0
 3742 0401 480D 0000 		.long	.LVL82-.Ltext0
 3743 0405 0100      		.word	0x1
 3744 0407 66        		.byte	0x66
 3745 0408 480D 0000 		.long	.LVL82-.Ltext0
 3746 040c 560D 0000 		.long	.LVL83-.Ltext0
 3747 0410 0100      		.word	0x1
 3748 0412 60        		.byte	0x60
 3749 0413 560D 0000 		.long	.LVL83-.Ltext0
 3750 0417 6C0D 0000 		.long	.LVL85-.Ltext0
 3751 041b 0600      		.word	0x6
 3752 041d 62        		.byte	0x62
 3753 041e 93        		.byte	0x93
 3754 041f 01        		.uleb128 0x1
 3755 0420 63        		.byte	0x63
 3756 0421 93        		.byte	0x93
 3757 0422 01        		.uleb128 0x1
 3758 0423 740D 0000 		.long	.LVL87-.Ltext0
 3759 0427 860D 0000 		.long	.LVL91-.Ltext0
 3760 042b 0100      		.word	0x1
 3761 042d 60        		.byte	0x60
 3762 042e 0000 0000 		.long	0x0
 3763 0432 0000 0000 		.long	0x0
 3764               	.LLST57:
 3765 0436 340D 0000 		.long	.LVL80-.Ltext0
 3766 043a 480D 0000 		.long	.LVL82-.Ltext0
 3767 043e 0100      		.word	0x1
 3768 0440 64        		.byte	0x64
 3769 0441 480D 0000 		.long	.LVL82-.Ltext0
 3770 0445 880D 0000 		.long	.LVL92-.Ltext0
 3771 0449 0100      		.word	0x1
 3772 044b 5F        		.byte	0x5f
 3773 044c 0000 0000 		.long	0x0
 3774 0450 0000 0000 		.long	0x0
 3775               	.LLST58:
 3776 0454 6E0D 0000 		.long	.LVL86-.Ltext0
 3777 0458 7E0D 0000 		.long	.LVL88-.Ltext0
 3778 045c 0100      		.word	0x1
 3779 045e 69        		.byte	0x69
 3780 045f 800D 0000 		.long	.LVL89-.Ltext0
 3781 0463 8A0D 0000 		.long	.LFE26-.Ltext0
 3782 0467 0100      		.word	0x1
 3783 0469 69        		.byte	0x69
 3784 046a 0000 0000 		.long	0x0
 3785 046e 0000 0000 		.long	0x0
 3786               	.LLST60:
 3787 0472 8A0D 0000 		.long	.LVL93-.Ltext0
 3788 0476 920D 0000 		.long	.LVL94-.Ltext0
 3789 047a 0100      		.word	0x1
 3790 047c 68        		.byte	0x68
 3791 047d 920D 0000 		.long	.LVL94-.Ltext0
 3792 0481 A20D 0000 		.long	.LVL95-.Ltext0
 3793 0485 0100      		.word	0x1
 3794 0487 69        		.byte	0x69
GAS LISTING C:\Users\ADMINI~1\AppData\Local\Temp/ccnPzUe6.s 			page 70


 3795 0488 B40D 0000 		.long	.LVL96-.Ltext0
 3796 048c BA0D 0000 		.long	.LFE41-.Ltext0
 3797 0490 0100      		.word	0x1
 3798 0492 69        		.byte	0x69
 3799 0493 0000 0000 		.long	0x0
 3800 0497 0000 0000 		.long	0x0
 3801               		.section	.debug_info
 3802 0000 C517 0000 		.long	0x17c5
 3803 0004 0200      		.word	0x2
 3804 0006 0000 0000 		.long	.Ldebug_abbrev0
 3805 000a 04        		.byte	0x4
 3806 000b 01        		.uleb128 0x1
 3807 000c 0000 0000 		.long	.LASF359
 3808 0010 01        		.byte	0x1
 3809 0011 0000 0000 		.long	.LASF360
 3810 0015 0000 0000 		.long	.LASF361
 3811 0019 0000 0000 		.long	.Ltext0
 3812 001d 0000 0000 		.long	.Letext0
 3813 0021 0000 0000 		.long	.Ldebug_line0
 3814 0025 02        		.uleb128 0x2
 3815 0026 01        		.byte	0x1
 3816 0027 08        		.byte	0x8
 3817 0028 0000 0000 		.long	.LASF0
 3818 002c 02        		.uleb128 0x2
 3819 002d 01        		.byte	0x1
 3820 002e 06        		.byte	0x6
 3821 002f 0000 0000 		.long	.LASF1
 3822 0033 02        		.uleb128 0x2
 3823 0034 02        		.byte	0x2
 3824 0035 07        		.byte	0x7
 3825 0036 0000 0000 		.long	.LASF2
 3826 003a 02        		.uleb128 0x2
 3827 003b 02        		.byte	0x2
 3828 003c 05        		.byte	0x5
 3829 003d 0000 0000 		.long	.LASF3
 3830 0041 02        		.uleb128 0x2
 3831 0042 04        		.byte	0x4
 3832 0043 07        		.byte	0x7
 3833 0044 0000 0000 		.long	.LASF4
 3834 0048 02        		.uleb128 0x2
 3835 0049 04        		.byte	0x4
 3836 004a 05        		.byte	0x5
 3837 004b 0000 0000 		.long	.LASF5
 3838 004f 02        		.uleb128 0x2
 3839 0050 08        		.byte	0x8
 3840 0051 07        		.byte	0x7
 3841 0052 0000 0000 		.long	.LASF6
 3842 0056 02        		.uleb128 0x2
 3843 0057 08        		.byte	0x8
 3844 0058 05        		.byte	0x5
 3845 0059 0000 0000 		.long	.LASF7
 3846 005d 02        		.uleb128 0x2
 3847 005e 02        		.byte	0x2
 3848 005f 07        		.byte	0x7
 3849 0060 0000 0000 		.long	.LASF8
 3850 0064 02        		.uleb128 0x2
 3851 0065 01        		.byte	0x1
GAS LISTING C:\Users\ADMINI~1\AppData\Local\Temp/ccnPzUe6.s 			page 71


 3852 0066 06        		.byte	0x6
 3853 0067 0000 0000 		.long	.LASF9
 3854 006b 03        		.uleb128 0x3
 3855 006c 02        		.byte	0x2
 3856 006d 05        		.byte	0x5
 3857 006e 696E 7400 		.string	"int"
 3858 0072 04        		.uleb128 0x4
 3859 0073 0000 0000 		.long	.LASF10
 3860 0077 04        		.byte	0x4
 3861 0078 7A        		.byte	0x7a
 3862 0079 2500 0000 		.long	0x25
 3863 007d 04        		.uleb128 0x4
 3864 007e 0000 0000 		.long	.LASF11
 3865 0082 04        		.byte	0x4
 3866 0083 7C        		.byte	0x7c
 3867 0084 5D00 0000 		.long	0x5d
 3868 0088 05        		.uleb128 0x5
 3869 0089 01        		.byte	0x1
 3870 008a 06        		.byte	0x6
 3871 008b 05        		.uleb128 0x5
 3872 008c 01        		.byte	0x1
 3873 008d 08        		.byte	0x8
 3874 008e 06        		.uleb128 0x6
 3875 008f 0000 0000 		.long	.LASF362
 3876 0093 0E        		.byte	0xe
 3877 0094 05        		.byte	0x5
 3878 0095 F2        		.byte	0xf2
 3879 0096 1001 0000 		.long	0x110
 3880 009a 07        		.uleb128 0x7
 3881 009b 6275 6600 		.string	"buf"
 3882 009f 05        		.byte	0x5
 3883 00a0 F3        		.byte	0xf3
 3884 00a1 1001 0000 		.long	0x110
 3885 00a5 02        		.byte	0x2
 3886 00a6 23        		.byte	0x23
 3887 00a7 00        		.uleb128 0x0
 3888 00a8 08        		.uleb128 0x8
 3889 00a9 0000 0000 		.long	.LASF12
 3890 00ad 05        		.byte	0x5
 3891 00ae F4        		.byte	0xf4
 3892 00af 2500 0000 		.long	0x25
 3893 00b3 02        		.byte	0x2
 3894 00b4 23        		.byte	0x23
 3895 00b5 02        		.uleb128 0x2
 3896 00b6 08        		.uleb128 0x8
 3897 00b7 0000 0000 		.long	.LASF13
 3898 00bb 05        		.byte	0x5
 3899 00bc F5        		.byte	0xf5
 3900 00bd 7200 0000 		.long	0x72
 3901 00c1 02        		.byte	0x2
 3902 00c2 23        		.byte	0x23
 3903 00c3 03        		.uleb128 0x3
 3904 00c4 09        		.uleb128 0x9
 3905 00c5 0000 0000 		.long	.LASF14
 3906 00c9 05        		.byte	0x5
 3907 00ca 0501      		.word	0x105
 3908 00cc 6B00 0000 		.long	0x6b
GAS LISTING C:\Users\ADMINI~1\AppData\Local\Temp/ccnPzUe6.s 			page 72


 3909 00d0 02        		.byte	0x2
 3910 00d1 23        		.byte	0x23
 3911 00d2 04        		.uleb128 0x4
 3912 00d3 0A        		.uleb128 0xa
 3913 00d4 6C65 6E00 		.string	"len"
 3914 00d8 05        		.byte	0x5
 3915 00d9 0601      		.word	0x106
 3916 00db 6B00 0000 		.long	0x6b
 3917 00df 02        		.byte	0x2
 3918 00e0 23        		.byte	0x23
 3919 00e1 06        		.uleb128 0x6
 3920 00e2 0A        		.uleb128 0xa
 3921 00e3 7075 7400 		.string	"put"
 3922 00e7 05        		.byte	0x5
 3923 00e8 0701      		.word	0x107
 3924 00ea 3101 0000 		.long	0x131
 3925 00ee 02        		.byte	0x2
 3926 00ef 23        		.byte	0x23
 3927 00f0 08        		.uleb128 0x8
 3928 00f1 0A        		.uleb128 0xa
 3929 00f2 6765 7400 		.string	"get"
 3930 00f6 05        		.byte	0x5
 3931 00f7 0801      		.word	0x108
 3932 00f9 4701 0000 		.long	0x147
 3933 00fd 02        		.byte	0x2
 3934 00fe 23        		.byte	0x23
 3935 00ff 0A        		.uleb128 0xa
 3936 0100 09        		.uleb128 0x9
 3937 0101 0000 0000 		.long	.LASF15
 3938 0105 05        		.byte	0x5
 3939 0106 0901      		.word	0x109
 3940 0108 4D01 0000 		.long	0x14d
 3941 010c 02        		.byte	0x2
 3942 010d 23        		.byte	0x23
 3943 010e 0C        		.uleb128 0xc
 3944 010f 00        		.byte	0x0
 3945 0110 0B        		.uleb128 0xb
 3946 0111 02        		.byte	0x2
 3947 0112 6400 0000 		.long	0x64
 3948 0116 0C        		.uleb128 0xc
 3949 0117 01        		.byte	0x1
 3950 0118 6B00 0000 		.long	0x6b
 3951 011c 2B01 0000 		.long	0x12b
 3952 0120 0D        		.uleb128 0xd
 3953 0121 6400 0000 		.long	0x64
 3954 0125 0D        		.uleb128 0xd
 3955 0126 2B01 0000 		.long	0x12b
 3956 012a 00        		.byte	0x0
 3957 012b 0B        		.uleb128 0xb
 3958 012c 02        		.byte	0x2
 3959 012d 8E00 0000 		.long	0x8e
 3960 0131 0B        		.uleb128 0xb
 3961 0132 02        		.byte	0x2
 3962 0133 1601 0000 		.long	0x116
 3963 0137 0C        		.uleb128 0xc
 3964 0138 01        		.byte	0x1
 3965 0139 6B00 0000 		.long	0x6b
GAS LISTING C:\Users\ADMINI~1\AppData\Local\Temp/ccnPzUe6.s 			page 73


 3966 013d 4701 0000 		.long	0x147
 3967 0141 0D        		.uleb128 0xd
 3968 0142 2B01 0000 		.long	0x12b
 3969 0146 00        		.byte	0x0
 3970 0147 0B        		.uleb128 0xb
 3971 0148 02        		.byte	0x2
 3972 0149 3701 0000 		.long	0x137
 3973 014d 0E        		.uleb128 0xe
 3974 014e 02        		.byte	0x2
 3975 014f 0F        		.uleb128 0xf
 3976 0150 02        		.byte	0x2
 3977 0151 06        		.byte	0x6
 3978 0152 1B        		.byte	0x1b
 3979 0153 D601 0000 		.long	0x1d6
 3980 0157 10        		.uleb128 0x10
 3981 0158 0000 0000 		.long	.LASF16
 3982 015c D501      		.sleb128 213
 3983 015e 10        		.uleb128 0x10
 3984 015f 0000 0000 		.long	.LASF17
 3985 0163 D601      		.sleb128 214
 3986 0165 10        		.uleb128 0x10
 3987 0166 0000 0000 		.long	.LASF18
 3988 016a D701      		.sleb128 215
 3989 016c 10        		.uleb128 0x10
 3990 016d 0000 0000 		.long	.LASF19
 3991 0171 D801      		.sleb128 216
 3992 0173 10        		.uleb128 0x10
 3993 0174 0000 0000 		.long	.LASF20
 3994 0178 D901      		.sleb128 217
 3995 017a 10        		.uleb128 0x10
 3996 017b 0000 0000 		.long	.LASF21
 3997 017f DA01      		.sleb128 218
 3998 0181 10        		.uleb128 0x10
 3999 0182 0000 0000 		.long	.LASF22
 4000 0186 DB01      		.sleb128 219
 4001 0188 10        		.uleb128 0x10
 4002 0189 0000 0000 		.long	.LASF23
 4003 018d DC01      		.sleb128 220
 4004 018f 10        		.uleb128 0x10
 4005 0190 0000 0000 		.long	.LASF24
 4006 0194 DD01      		.sleb128 221
 4007 0196 10        		.uleb128 0x10
 4008 0197 0000 0000 		.long	.LASF25
 4009 019b DE01      		.sleb128 222
 4010 019d 10        		.uleb128 0x10
 4011 019e 0000 0000 		.long	.LASF26
 4012 01a2 DF01      		.sleb128 223
 4013 01a4 10        		.uleb128 0x10
 4014 01a5 0000 0000 		.long	.LASF27
 4015 01a9 E001      		.sleb128 224
 4016 01ab 10        		.uleb128 0x10
 4017 01ac 0000 0000 		.long	.LASF28
 4018 01b0 E101      		.sleb128 225
 4019 01b2 10        		.uleb128 0x10
 4020 01b3 0000 0000 		.long	.LASF29
 4021 01b7 E201      		.sleb128 226
 4022 01b9 10        		.uleb128 0x10
GAS LISTING C:\Users\ADMINI~1\AppData\Local\Temp/ccnPzUe6.s 			page 74


 4023 01ba 0000 0000 		.long	.LASF30
 4024 01be E301      		.sleb128 227
 4025 01c0 10        		.uleb128 0x10
 4026 01c1 0000 0000 		.long	.LASF31
 4027 01c5 E401      		.sleb128 228
 4028 01c7 10        		.uleb128 0x10
 4029 01c8 0000 0000 		.long	.LASF32
 4030 01cc E501      		.sleb128 229
 4031 01ce 10        		.uleb128 0x10
 4032 01cf 0000 0000 		.long	.LASF33
 4033 01d3 E601      		.sleb128 230
 4034 01d5 00        		.byte	0x0
 4035 01d6 0F        		.uleb128 0xf
 4036 01d7 02        		.byte	0x2
 4037 01d8 06        		.byte	0x6
 4038 01d9 32        		.byte	0x32
 4039 01da 3302 0000 		.long	0x233
 4040 01de 10        		.uleb128 0x10
 4041 01df 0000 0000 		.long	.LASF34
 4042 01e3 C901      		.sleb128 201
 4043 01e5 10        		.uleb128 0x10
 4044 01e6 0000 0000 		.long	.LASF35
 4045 01ea CA01      		.sleb128 202
 4046 01ec 10        		.uleb128 0x10
 4047 01ed 0000 0000 		.long	.LASF36
 4048 01f1 CB01      		.sleb128 203
 4049 01f3 10        		.uleb128 0x10
 4050 01f4 0000 0000 		.long	.LASF37
 4051 01f8 CC01      		.sleb128 204
 4052 01fa 10        		.uleb128 0x10
 4053 01fb 0000 0000 		.long	.LASF38
 4054 01ff CD01      		.sleb128 205
 4055 0201 10        		.uleb128 0x10
 4056 0202 0000 0000 		.long	.LASF39
 4057 0206 CE01      		.sleb128 206
 4058 0208 10        		.uleb128 0x10
 4059 0209 0000 0000 		.long	.LASF40
 4060 020d CF01      		.sleb128 207
 4061 020f 10        		.uleb128 0x10
 4062 0210 0000 0000 		.long	.LASF41
 4063 0214 D001      		.sleb128 208
 4064 0216 10        		.uleb128 0x10
 4065 0217 0000 0000 		.long	.LASF42
 4066 021b D101      		.sleb128 209
 4067 021d 10        		.uleb128 0x10
 4068 021e 0000 0000 		.long	.LASF43
 4069 0222 D201      		.sleb128 210
 4070 0224 10        		.uleb128 0x10
 4071 0225 0000 0000 		.long	.LASF44
 4072 0229 D301      		.sleb128 211
 4073 022b 10        		.uleb128 0x10
 4074 022c 0000 0000 		.long	.LASF45
 4075 0230 D401      		.sleb128 212
 4076 0232 00        		.byte	0x0
 4077 0233 0F        		.uleb128 0xf
 4078 0234 02        		.byte	0x2
 4079 0235 06        		.byte	0x6
GAS LISTING C:\Users\ADMINI~1\AppData\Local\Temp/ccnPzUe6.s 			page 75


 4080 0236 41        		.byte	0x41
 4081 0237 CC06 0000 		.long	0x6cc
 4082 023b 10        		.uleb128 0x10
 4083 023c 0000 0000 		.long	.LASF46
 4084 0240 00        		.sleb128 0
 4085 0241 10        		.uleb128 0x10
 4086 0242 0000 0000 		.long	.LASF47
 4087 0246 01        		.sleb128 1
 4088 0247 10        		.uleb128 0x10
 4089 0248 0000 0000 		.long	.LASF48
 4090 024c 02        		.sleb128 2
 4091 024d 10        		.uleb128 0x10
 4092 024e 0000 0000 		.long	.LASF49
 4093 0252 03        		.sleb128 3
 4094 0253 10        		.uleb128 0x10
 4095 0254 0000 0000 		.long	.LASF50
 4096 0258 04        		.sleb128 4
 4097 0259 10        		.uleb128 0x10
 4098 025a 0000 0000 		.long	.LASF51
 4099 025e 05        		.sleb128 5
 4100 025f 10        		.uleb128 0x10
 4101 0260 0000 0000 		.long	.LASF52
 4102 0264 06        		.sleb128 6
 4103 0265 10        		.uleb128 0x10
 4104 0266 0000 0000 		.long	.LASF53
 4105 026a 07        		.sleb128 7
 4106 026b 10        		.uleb128 0x10
 4107 026c 0000 0000 		.long	.LASF54
 4108 0270 08        		.sleb128 8
 4109 0271 10        		.uleb128 0x10
 4110 0272 0000 0000 		.long	.LASF55
 4111 0276 09        		.sleb128 9
 4112 0277 10        		.uleb128 0x10
 4113 0278 0000 0000 		.long	.LASF56
 4114 027c 0A        		.sleb128 10
 4115 027d 10        		.uleb128 0x10
 4116 027e 0000 0000 		.long	.LASF57
 4117 0282 0B        		.sleb128 11
 4118 0283 10        		.uleb128 0x10
 4119 0284 0000 0000 		.long	.LASF58
 4120 0288 0C        		.sleb128 12
 4121 0289 10        		.uleb128 0x10
 4122 028a 0000 0000 		.long	.LASF59
 4123 028e 0D        		.sleb128 13
 4124 028f 10        		.uleb128 0x10
 4125 0290 0000 0000 		.long	.LASF60
 4126 0294 0E        		.sleb128 14
 4127 0295 10        		.uleb128 0x10
 4128 0296 0000 0000 		.long	.LASF61
 4129 029a 0F        		.sleb128 15
 4130 029b 10        		.uleb128 0x10
 4131 029c 0000 0000 		.long	.LASF62
 4132 02a0 10        		.sleb128 16
 4133 02a1 10        		.uleb128 0x10
 4134 02a2 0000 0000 		.long	.LASF63
 4135 02a6 11        		.sleb128 17
 4136 02a7 10        		.uleb128 0x10
GAS LISTING C:\Users\ADMINI~1\AppData\Local\Temp/ccnPzUe6.s 			page 76


 4137 02a8 0000 0000 		.long	.LASF64
 4138 02ac 12        		.sleb128 18
 4139 02ad 10        		.uleb128 0x10
 4140 02ae 0000 0000 		.long	.LASF65
 4141 02b2 13        		.sleb128 19
 4142 02b3 10        		.uleb128 0x10
 4143 02b4 0000 0000 		.long	.LASF66
 4144 02b8 14        		.sleb128 20
 4145 02b9 10        		.uleb128 0x10
 4146 02ba 0000 0000 		.long	.LASF67
 4147 02be 15        		.sleb128 21
 4148 02bf 10        		.uleb128 0x10
 4149 02c0 0000 0000 		.long	.LASF68
 4150 02c4 16        		.sleb128 22
 4151 02c5 10        		.uleb128 0x10
 4152 02c6 0000 0000 		.long	.LASF69
 4153 02ca 17        		.sleb128 23
 4154 02cb 10        		.uleb128 0x10
 4155 02cc 0000 0000 		.long	.LASF70
 4156 02d0 18        		.sleb128 24
 4157 02d1 10        		.uleb128 0x10
 4158 02d2 0000 0000 		.long	.LASF71
 4159 02d6 19        		.sleb128 25
 4160 02d7 10        		.uleb128 0x10
 4161 02d8 0000 0000 		.long	.LASF72
 4162 02dc 1A        		.sleb128 26
 4163 02dd 10        		.uleb128 0x10
 4164 02de 0000 0000 		.long	.LASF73
 4165 02e2 1B        		.sleb128 27
 4166 02e3 10        		.uleb128 0x10
 4167 02e4 0000 0000 		.long	.LASF74
 4168 02e8 1C        		.sleb128 28
 4169 02e9 10        		.uleb128 0x10
 4170 02ea 0000 0000 		.long	.LASF75
 4171 02ee 1D        		.sleb128 29
 4172 02ef 10        		.uleb128 0x10
 4173 02f0 0000 0000 		.long	.LASF76
 4174 02f4 1E        		.sleb128 30
 4175 02f5 10        		.uleb128 0x10
 4176 02f6 0000 0000 		.long	.LASF77
 4177 02fa 1F        		.sleb128 31
 4178 02fb 10        		.uleb128 0x10
 4179 02fc 0000 0000 		.long	.LASF78
 4180 0300 20        		.sleb128 32
 4181 0301 10        		.uleb128 0x10
 4182 0302 0000 0000 		.long	.LASF79
 4183 0306 21        		.sleb128 33
 4184 0307 10        		.uleb128 0x10
 4185 0308 0000 0000 		.long	.LASF80
 4186 030c 22        		.sleb128 34
 4187 030d 10        		.uleb128 0x10
 4188 030e 0000 0000 		.long	.LASF81
 4189 0312 23        		.sleb128 35
 4190 0313 10        		.uleb128 0x10
 4191 0314 0000 0000 		.long	.LASF82
 4192 0318 24        		.sleb128 36
 4193 0319 10        		.uleb128 0x10
GAS LISTING C:\Users\ADMINI~1\AppData\Local\Temp/ccnPzUe6.s 			page 77


 4194 031a 0000 0000 		.long	.LASF83
 4195 031e 25        		.sleb128 37
 4196 031f 10        		.uleb128 0x10
 4197 0320 0000 0000 		.long	.LASF84
 4198 0324 26        		.sleb128 38
 4199 0325 10        		.uleb128 0x10
 4200 0326 0000 0000 		.long	.LASF85
 4201 032a 27        		.sleb128 39
 4202 032b 10        		.uleb128 0x10
 4203 032c 0000 0000 		.long	.LASF86
 4204 0330 28        		.sleb128 40
 4205 0331 10        		.uleb128 0x10
 4206 0332 0000 0000 		.long	.LASF87
 4207 0336 29        		.sleb128 41
 4208 0337 10        		.uleb128 0x10
 4209 0338 0000 0000 		.long	.LASF88
 4210 033c 2A        		.sleb128 42
 4211 033d 10        		.uleb128 0x10
 4212 033e 0000 0000 		.long	.LASF89
 4213 0342 2B        		.sleb128 43
 4214 0343 10        		.uleb128 0x10
 4215 0344 0000 0000 		.long	.LASF90
 4216 0348 2C        		.sleb128 44
 4217 0349 10        		.uleb128 0x10
 4218 034a 0000 0000 		.long	.LASF91
 4219 034e 2D        		.sleb128 45
 4220 034f 10        		.uleb128 0x10
 4221 0350 0000 0000 		.long	.LASF92
 4222 0354 2E        		.sleb128 46
 4223 0355 10        		.uleb128 0x10
 4224 0356 0000 0000 		.long	.LASF93
 4225 035a 2F        		.sleb128 47
 4226 035b 10        		.uleb128 0x10
 4227 035c 0000 0000 		.long	.LASF94
 4228 0360 30        		.sleb128 48
 4229 0361 10        		.uleb128 0x10
 4230 0362 0000 0000 		.long	.LASF95
 4231 0366 31        		.sleb128 49
 4232 0367 10        		.uleb128 0x10
 4233 0368 0000 0000 		.long	.LASF96
 4234 036c 32        		.sleb128 50
 4235 036d 10        		.uleb128 0x10
 4236 036e 0000 0000 		.long	.LASF97
 4237 0372 33        		.sleb128 51
 4238 0373 10        		.uleb128 0x10
 4239 0374 0000 0000 		.long	.LASF98
 4240 0378 34        		.sleb128 52
 4241 0379 10        		.uleb128 0x10
 4242 037a 0000 0000 		.long	.LASF99
 4243 037e 35        		.sleb128 53
 4244 037f 10        		.uleb128 0x10
 4245 0380 0000 0000 		.long	.LASF100
 4246 0384 36        		.sleb128 54
 4247 0385 10        		.uleb128 0x10
 4248 0386 0000 0000 		.long	.LASF101
 4249 038a 37        		.sleb128 55
 4250 038b 10        		.uleb128 0x10
GAS LISTING C:\Users\ADMINI~1\AppData\Local\Temp/ccnPzUe6.s 			page 78


 4251 038c 0000 0000 		.long	.LASF102
 4252 0390 38        		.sleb128 56
 4253 0391 10        		.uleb128 0x10
 4254 0392 0000 0000 		.long	.LASF103
 4255 0396 39        		.sleb128 57
 4256 0397 10        		.uleb128 0x10
 4257 0398 0000 0000 		.long	.LASF104
 4258 039c 3A        		.sleb128 58
 4259 039d 10        		.uleb128 0x10
 4260 039e 0000 0000 		.long	.LASF105
 4261 03a2 3B        		.sleb128 59
 4262 03a3 10        		.uleb128 0x10
 4263 03a4 0000 0000 		.long	.LASF106
 4264 03a8 3C        		.sleb128 60
 4265 03a9 10        		.uleb128 0x10
 4266 03aa 0000 0000 		.long	.LASF107
 4267 03ae 3D        		.sleb128 61
 4268 03af 10        		.uleb128 0x10
 4269 03b0 0000 0000 		.long	.LASF108
 4270 03b4 3E        		.sleb128 62
 4271 03b5 10        		.uleb128 0x10
 4272 03b6 0000 0000 		.long	.LASF109
 4273 03ba 3F        		.sleb128 63
 4274 03bb 10        		.uleb128 0x10
 4275 03bc 0000 0000 		.long	.LASF110
 4276 03c0 C000      		.sleb128 64
 4277 03c2 10        		.uleb128 0x10
 4278 03c3 0000 0000 		.long	.LASF111
 4279 03c7 C100      		.sleb128 65
 4280 03c9 10        		.uleb128 0x10
 4281 03ca 0000 0000 		.long	.LASF112
 4282 03ce C200      		.sleb128 66
 4283 03d0 10        		.uleb128 0x10
 4284 03d1 0000 0000 		.long	.LASF113
 4285 03d5 C300      		.sleb128 67
 4286 03d7 10        		.uleb128 0x10
 4287 03d8 0000 0000 		.long	.LASF114
 4288 03dc C400      		.sleb128 68
 4289 03de 10        		.uleb128 0x10
 4290 03df 0000 0000 		.long	.LASF115
 4291 03e3 C500      		.sleb128 69
 4292 03e5 10        		.uleb128 0x10
 4293 03e6 0000 0000 		.long	.LASF116
 4294 03ea C600      		.sleb128 70
 4295 03ec 10        		.uleb128 0x10
 4296 03ed 0000 0000 		.long	.LASF117
 4297 03f1 C700      		.sleb128 71
 4298 03f3 10        		.uleb128 0x10
 4299 03f4 0000 0000 		.long	.LASF118
 4300 03f8 C800      		.sleb128 72
 4301 03fa 10        		.uleb128 0x10
 4302 03fb 0000 0000 		.long	.LASF119
 4303 03ff C900      		.sleb128 73
 4304 0401 10        		.uleb128 0x10
 4305 0402 0000 0000 		.long	.LASF120
 4306 0406 CA00      		.sleb128 74
 4307 0408 10        		.uleb128 0x10
GAS LISTING C:\Users\ADMINI~1\AppData\Local\Temp/ccnPzUe6.s 			page 79


 4308 0409 0000 0000 		.long	.LASF121
 4309 040d CB00      		.sleb128 75
 4310 040f 10        		.uleb128 0x10
 4311 0410 0000 0000 		.long	.LASF122
 4312 0414 CC00      		.sleb128 76
 4313 0416 10        		.uleb128 0x10
 4314 0417 0000 0000 		.long	.LASF123
 4315 041b CD00      		.sleb128 77
 4316 041d 10        		.uleb128 0x10
 4317 041e 0000 0000 		.long	.LASF124
 4318 0422 CE00      		.sleb128 78
 4319 0424 10        		.uleb128 0x10
 4320 0425 0000 0000 		.long	.LASF125
 4321 0429 CF00      		.sleb128 79
 4322 042b 10        		.uleb128 0x10
 4323 042c 0000 0000 		.long	.LASF126
 4324 0430 D000      		.sleb128 80
 4325 0432 10        		.uleb128 0x10
 4326 0433 0000 0000 		.long	.LASF127
 4327 0437 D100      		.sleb128 81
 4328 0439 10        		.uleb128 0x10
 4329 043a 0000 0000 		.long	.LASF128
 4330 043e D200      		.sleb128 82
 4331 0440 10        		.uleb128 0x10
 4332 0441 0000 0000 		.long	.LASF129
 4333 0445 D300      		.sleb128 83
 4334 0447 10        		.uleb128 0x10
 4335 0448 0000 0000 		.long	.LASF130
 4336 044c D400      		.sleb128 84
 4337 044e 10        		.uleb128 0x10
 4338 044f 0000 0000 		.long	.LASF131
 4339 0453 D500      		.sleb128 85
 4340 0455 10        		.uleb128 0x10
 4341 0456 0000 0000 		.long	.LASF132
 4342 045a D600      		.sleb128 86
 4343 045c 10        		.uleb128 0x10
 4344 045d 0000 0000 		.long	.LASF133
 4345 0461 D700      		.sleb128 87
 4346 0463 10        		.uleb128 0x10
 4347 0464 0000 0000 		.long	.LASF134
 4348 0468 D800      		.sleb128 88
 4349 046a 10        		.uleb128 0x10
 4350 046b 0000 0000 		.long	.LASF135
 4351 046f D900      		.sleb128 89
 4352 0471 10        		.uleb128 0x10
 4353 0472 0000 0000 		.long	.LASF136
 4354 0476 DA00      		.sleb128 90
 4355 0478 10        		.uleb128 0x10
 4356 0479 0000 0000 		.long	.LASF137
 4357 047d DB00      		.sleb128 91
 4358 047f 10        		.uleb128 0x10
 4359 0480 0000 0000 		.long	.LASF138
 4360 0484 DC00      		.sleb128 92
 4361 0486 10        		.uleb128 0x10
 4362 0487 0000 0000 		.long	.LASF139
 4363 048b DD00      		.sleb128 93
 4364 048d 10        		.uleb128 0x10
GAS LISTING C:\Users\ADMINI~1\AppData\Local\Temp/ccnPzUe6.s 			page 80


 4365 048e 0000 0000 		.long	.LASF140
 4366 0492 DE00      		.sleb128 94
 4367 0494 10        		.uleb128 0x10
 4368 0495 0000 0000 		.long	.LASF141
 4369 0499 DF00      		.sleb128 95
 4370 049b 10        		.uleb128 0x10
 4371 049c 0000 0000 		.long	.LASF142
 4372 04a0 E000      		.sleb128 96
 4373 04a2 10        		.uleb128 0x10
 4374 04a3 0000 0000 		.long	.LASF143
 4375 04a7 E100      		.sleb128 97
 4376 04a9 10        		.uleb128 0x10
 4377 04aa 0000 0000 		.long	.LASF144
 4378 04ae E200      		.sleb128 98
 4379 04b0 10        		.uleb128 0x10
 4380 04b1 0000 0000 		.long	.LASF145
 4381 04b5 E300      		.sleb128 99
 4382 04b7 10        		.uleb128 0x10
 4383 04b8 0000 0000 		.long	.LASF146
 4384 04bc E400      		.sleb128 100
 4385 04be 10        		.uleb128 0x10
 4386 04bf 0000 0000 		.long	.LASF147
 4387 04c3 E500      		.sleb128 101
 4388 04c5 10        		.uleb128 0x10
 4389 04c6 0000 0000 		.long	.LASF148
 4390 04ca E600      		.sleb128 102
 4391 04cc 10        		.uleb128 0x10
 4392 04cd 0000 0000 		.long	.LASF149
 4393 04d1 E700      		.sleb128 103
 4394 04d3 10        		.uleb128 0x10
 4395 04d4 0000 0000 		.long	.LASF150
 4396 04d8 E800      		.sleb128 104
 4397 04da 10        		.uleb128 0x10
 4398 04db 0000 0000 		.long	.LASF151
 4399 04df E900      		.sleb128 105
 4400 04e1 10        		.uleb128 0x10
 4401 04e2 0000 0000 		.long	.LASF152
 4402 04e6 EA00      		.sleb128 106
 4403 04e8 10        		.uleb128 0x10
 4404 04e9 0000 0000 		.long	.LASF153
 4405 04ed EB00      		.sleb128 107
 4406 04ef 10        		.uleb128 0x10
 4407 04f0 0000 0000 		.long	.LASF154
 4408 04f4 EC00      		.sleb128 108
 4409 04f6 10        		.uleb128 0x10
 4410 04f7 0000 0000 		.long	.LASF155
 4411 04fb ED00      		.sleb128 109
 4412 04fd 10        		.uleb128 0x10
 4413 04fe 0000 0000 		.long	.LASF156
 4414 0502 EE00      		.sleb128 110
 4415 0504 10        		.uleb128 0x10
 4416 0505 0000 0000 		.long	.LASF157
 4417 0509 EF00      		.sleb128 111
 4418 050b 10        		.uleb128 0x10
 4419 050c 0000 0000 		.long	.LASF158
 4420 0510 F000      		.sleb128 112
 4421 0512 10        		.uleb128 0x10
GAS LISTING C:\Users\ADMINI~1\AppData\Local\Temp/ccnPzUe6.s 			page 81


 4422 0513 0000 0000 		.long	.LASF159
 4423 0517 F100      		.sleb128 113
 4424 0519 10        		.uleb128 0x10
 4425 051a 0000 0000 		.long	.LASF160
 4426 051e F200      		.sleb128 114
 4427 0520 10        		.uleb128 0x10
 4428 0521 0000 0000 		.long	.LASF161
 4429 0525 F300      		.sleb128 115
 4430 0527 10        		.uleb128 0x10
 4431 0528 0000 0000 		.long	.LASF162
 4432 052c F400      		.sleb128 116
 4433 052e 10        		.uleb128 0x10
 4434 052f 0000 0000 		.long	.LASF163
 4435 0533 F500      		.sleb128 117
 4436 0535 10        		.uleb128 0x10
 4437 0536 0000 0000 		.long	.LASF164
 4438 053a F600      		.sleb128 118
 4439 053c 10        		.uleb128 0x10
 4440 053d 0000 0000 		.long	.LASF165
 4441 0541 F700      		.sleb128 119
 4442 0543 10        		.uleb128 0x10
 4443 0544 0000 0000 		.long	.LASF166
 4444 0548 F800      		.sleb128 120
 4445 054a 10        		.uleb128 0x10
 4446 054b 0000 0000 		.long	.LASF167
 4447 054f F900      		.sleb128 121
 4448 0551 10        		.uleb128 0x10
 4449 0552 0000 0000 		.long	.LASF168
 4450 0556 FA00      		.sleb128 122
 4451 0558 10        		.uleb128 0x10
 4452 0559 0000 0000 		.long	.LASF169
 4453 055d FB00      		.sleb128 123
 4454 055f 10        		.uleb128 0x10
 4455 0560 0000 0000 		.long	.LASF170
 4456 0564 FC00      		.sleb128 124
 4457 0566 10        		.uleb128 0x10
 4458 0567 0000 0000 		.long	.LASF171
 4459 056b FD00      		.sleb128 125
 4460 056d 10        		.uleb128 0x10
 4461 056e 0000 0000 		.long	.LASF172
 4462 0572 FE00      		.sleb128 126
 4463 0574 10        		.uleb128 0x10
 4464 0575 0000 0000 		.long	.LASF173
 4465 0579 FF00      		.sleb128 127
 4466 057b 10        		.uleb128 0x10
 4467 057c 0000 0000 		.long	.LASF174
 4468 0580 8001      		.sleb128 128
 4469 0582 10        		.uleb128 0x10
 4470 0583 0000 0000 		.long	.LASF175
 4471 0587 8101      		.sleb128 129
 4472 0589 10        		.uleb128 0x10
 4473 058a 0000 0000 		.long	.LASF176
 4474 058e 8201      		.sleb128 130
 4475 0590 10        		.uleb128 0x10
 4476 0591 0000 0000 		.long	.LASF177
 4477 0595 8301      		.sleb128 131
 4478 0597 10        		.uleb128 0x10
GAS LISTING C:\Users\ADMINI~1\AppData\Local\Temp/ccnPzUe6.s 			page 82


 4479 0598 0000 0000 		.long	.LASF178
 4480 059c 8401      		.sleb128 132
 4481 059e 10        		.uleb128 0x10
 4482 059f 0000 0000 		.long	.LASF179
 4483 05a3 8501      		.sleb128 133
 4484 05a5 10        		.uleb128 0x10
 4485 05a6 0000 0000 		.long	.LASF180
 4486 05aa 8601      		.sleb128 134
 4487 05ac 10        		.uleb128 0x10
 4488 05ad 0000 0000 		.long	.LASF181
 4489 05b1 8701      		.sleb128 135
 4490 05b3 10        		.uleb128 0x10
 4491 05b4 0000 0000 		.long	.LASF182
 4492 05b8 8801      		.sleb128 136
 4493 05ba 10        		.uleb128 0x10
 4494 05bb 0000 0000 		.long	.LASF183
 4495 05bf 8901      		.sleb128 137
 4496 05c1 10        		.uleb128 0x10
 4497 05c2 0000 0000 		.long	.LASF184
 4498 05c6 8A01      		.sleb128 138
 4499 05c8 10        		.uleb128 0x10
 4500 05c9 0000 0000 		.long	.LASF185
 4501 05cd 8B01      		.sleb128 139
 4502 05cf 10        		.uleb128 0x10
 4503 05d0 0000 0000 		.long	.LASF186
 4504 05d4 8C01      		.sleb128 140
 4505 05d6 10        		.uleb128 0x10
 4506 05d7 0000 0000 		.long	.LASF187
 4507 05db 8D01      		.sleb128 141
 4508 05dd 10        		.uleb128 0x10
 4509 05de 0000 0000 		.long	.LASF188
 4510 05e2 8E01      		.sleb128 142
 4511 05e4 10        		.uleb128 0x10
 4512 05e5 0000 0000 		.long	.LASF189
 4513 05e9 8F01      		.sleb128 143
 4514 05eb 10        		.uleb128 0x10
 4515 05ec 0000 0000 		.long	.LASF190
 4516 05f0 9001      		.sleb128 144
 4517 05f2 10        		.uleb128 0x10
 4518 05f3 0000 0000 		.long	.LASF191
 4519 05f7 9101      		.sleb128 145
 4520 05f9 10        		.uleb128 0x10
 4521 05fa 0000 0000 		.long	.LASF192
 4522 05fe 9201      		.sleb128 146
 4523 0600 10        		.uleb128 0x10
 4524 0601 0000 0000 		.long	.LASF193
 4525 0605 9301      		.sleb128 147
 4526 0607 10        		.uleb128 0x10
 4527 0608 0000 0000 		.long	.LASF194
 4528 060c 9401      		.sleb128 148
 4529 060e 10        		.uleb128 0x10
 4530 060f 0000 0000 		.long	.LASF195
 4531 0613 9501      		.sleb128 149
 4532 0615 10        		.uleb128 0x10
 4533 0616 0000 0000 		.long	.LASF196
 4534 061a 9601      		.sleb128 150
 4535 061c 10        		.uleb128 0x10
GAS LISTING C:\Users\ADMINI~1\AppData\Local\Temp/ccnPzUe6.s 			page 83


 4536 061d 0000 0000 		.long	.LASF197
 4537 0621 9701      		.sleb128 151
 4538 0623 10        		.uleb128 0x10
 4539 0624 0000 0000 		.long	.LASF198
 4540 0628 9801      		.sleb128 152
 4541 062a 10        		.uleb128 0x10
 4542 062b 0000 0000 		.long	.LASF199
 4543 062f 9901      		.sleb128 153
 4544 0631 10        		.uleb128 0x10
 4545 0632 0000 0000 		.long	.LASF200
 4546 0636 9A01      		.sleb128 154
 4547 0638 10        		.uleb128 0x10
 4548 0639 0000 0000 		.long	.LASF201
 4549 063d 9B01      		.sleb128 155
 4550 063f 10        		.uleb128 0x10
 4551 0640 0000 0000 		.long	.LASF202
 4552 0644 9C01      		.sleb128 156
 4553 0646 10        		.uleb128 0x10
 4554 0647 0000 0000 		.long	.LASF203
 4555 064b 9D01      		.sleb128 157
 4556 064d 10        		.uleb128 0x10
 4557 064e 0000 0000 		.long	.LASF204
 4558 0652 9E01      		.sleb128 158
 4559 0654 10        		.uleb128 0x10
 4560 0655 0000 0000 		.long	.LASF205
 4561 0659 9F01      		.sleb128 159
 4562 065b 10        		.uleb128 0x10
 4563 065c 0000 0000 		.long	.LASF206
 4564 0660 A001      		.sleb128 160
 4565 0662 10        		.uleb128 0x10
 4566 0663 0000 0000 		.long	.LASF207
 4567 0667 A101      		.sleb128 161
 4568 0669 10        		.uleb128 0x10
 4569 066a 0000 0000 		.long	.LASF208
 4570 066e A201      		.sleb128 162
 4571 0670 10        		.uleb128 0x10
 4572 0671 0000 0000 		.long	.LASF209
 4573 0675 A301      		.sleb128 163
 4574 0677 10        		.uleb128 0x10
 4575 0678 0000 0000 		.long	.LASF210
 4576 067c A401      		.sleb128 164
 4577 067e 10        		.uleb128 0x10
 4578 067f 0000 0000 		.long	.LASF211
 4579 0683 A501      		.sleb128 165
 4580 0685 10        		.uleb128 0x10
 4581 0686 0000 0000 		.long	.LASF212
 4582 068a A601      		.sleb128 166
 4583 068c 10        		.uleb128 0x10
 4584 068d 0000 0000 		.long	.LASF213
 4585 0691 A701      		.sleb128 167
 4586 0693 10        		.uleb128 0x10
 4587 0694 0000 0000 		.long	.LASF214
 4588 0698 A801      		.sleb128 168
 4589 069a 10        		.uleb128 0x10
 4590 069b 0000 0000 		.long	.LASF215
 4591 069f A901      		.sleb128 169
 4592 06a1 10        		.uleb128 0x10
GAS LISTING C:\Users\ADMINI~1\AppData\Local\Temp/ccnPzUe6.s 			page 84


 4593 06a2 0000 0000 		.long	.LASF216
 4594 06a6 AA01      		.sleb128 170
 4595 06a8 10        		.uleb128 0x10
 4596 06a9 0000 0000 		.long	.LASF217
 4597 06ad AB01      		.sleb128 171
 4598 06af 10        		.uleb128 0x10
 4599 06b0 0000 0000 		.long	.LASF218
 4600 06b4 AC01      		.sleb128 172
 4601 06b6 10        		.uleb128 0x10
 4602 06b7 0000 0000 		.long	.LASF219
 4603 06bb AD01      		.sleb128 173
 4604 06bd 10        		.uleb128 0x10
 4605 06be 0000 0000 		.long	.LASF220
 4606 06c2 AE01      		.sleb128 174
 4607 06c4 10        		.uleb128 0x10
 4608 06c5 0000 0000 		.long	.LASF221
 4609 06c9 AF01      		.sleb128 175
 4610 06cb 00        		.byte	0x0
 4611 06cc 11        		.uleb128 0x11
 4612 06cd 02        		.byte	0x2
 4613 06ce 07        		.byte	0x7
 4614 06cf 0F        		.byte	0xf
 4615 06d0 F106 0000 		.long	0x6f1
 4616 06d4 08        		.uleb128 0x8
 4617 06d5 0000 0000 		.long	.LASF222
 4618 06d9 07        		.byte	0x7
 4619 06da 10        		.byte	0x10
 4620 06db 7200 0000 		.long	0x72
 4621 06df 02        		.byte	0x2
 4622 06e0 23        		.byte	0x23
 4623 06e1 00        		.uleb128 0x0
 4624 06e2 08        		.uleb128 0x8
 4625 06e3 0000 0000 		.long	.LASF223
 4626 06e7 07        		.byte	0x7
 4627 06e8 11        		.byte	0x11
 4628 06e9 7200 0000 		.long	0x72
 4629 06ed 02        		.byte	0x2
 4630 06ee 23        		.byte	0x23
 4631 06ef 01        		.uleb128 0x1
 4632 06f0 00        		.byte	0x0
 4633 06f1 12        		.uleb128 0x12
 4634 06f2 4B65 7900 		.string	"Key"
 4635 06f6 07        		.byte	0x7
 4636 06f7 12        		.byte	0x12
 4637 06f8 CC06 0000 		.long	0x6cc
 4638 06fc 13        		.uleb128 0x13
 4639 06fd 0000 0000 		.long	.LASF226
 4640 0701 02        		.byte	0x2
 4641 0702 68        		.byte	0x68
 4642 0703 01        		.byte	0x1
 4643 0704 03        		.byte	0x3
 4644 0705 1507 0000 		.long	0x715
 4645 0709 14        		.uleb128 0x14
 4646 070a 0000 0000 		.long	.LASF224
 4647 070e 02        		.byte	0x2
 4648 070f 67        		.byte	0x67
 4649 0710 7D00 0000 		.long	0x7d
GAS LISTING C:\Users\ADMINI~1\AppData\Local\Temp/ccnPzUe6.s 			page 85


 4650 0714 00        		.byte	0x0
 4651 0715 15        		.uleb128 0x15
 4652 0716 01        		.byte	0x1
 4653 0717 0000 0000 		.long	.LASF239
 4654 071b 01        		.byte	0x1
 4655 071c 0C01      		.word	0x10c
 4656 071e 01        		.byte	0x1
 4657 071f 7200 0000 		.long	0x72
 4658 0723 01        		.byte	0x1
 4659 0724 3507 0000 		.long	0x735
 4660 0728 16        		.uleb128 0x16
 4661 0729 0000 0000 		.long	.LASF225
 4662 072d 01        		.byte	0x1
 4663 072e 0C01      		.word	0x10c
 4664 0730 7200 0000 		.long	0x72
 4665 0734 00        		.byte	0x0
 4666 0735 17        		.uleb128 0x17
 4667 0736 01        		.byte	0x1
 4668 0737 0000 0000 		.long	.LASF241
 4669 073b 01        		.byte	0x1
 4670 073c 77        		.byte	0x77
 4671 073d 01        		.byte	0x1
 4672 073e 7200 0000 		.long	0x72
 4673 0742 01        		.byte	0x1
 4674 0743 18        		.uleb128 0x18
 4675 0744 01        		.byte	0x1
 4676 0745 0000 0000 		.long	.LASF245
 4677 0749 01        		.byte	0x1
 4678 074a D1        		.byte	0xd1
 4679 074b 01        		.byte	0x1
 4680 074c 01        		.byte	0x1
 4681 074d 13        		.uleb128 0x13
 4682 074e 0000 0000 		.long	.LASF227
 4683 0752 03        		.byte	0x3
 4684 0753 6F        		.byte	0x6f
 4685 0754 01        		.byte	0x1
 4686 0755 03        		.byte	0x3
 4687 0756 7E07 0000 		.long	0x77e
 4688 075a 14        		.uleb128 0x14
 4689 075b 0000 0000 		.long	.LASF228
 4690 075f 03        		.byte	0x3
 4691 0760 6E        		.byte	0x6e
 4692 0761 7E07 0000 		.long	0x77e
 4693 0765 19        		.uleb128 0x19
 4694 0766 0000 0000 		.long	.LASF229
 4695 076a 03        		.byte	0x3
 4696 076b 70        		.byte	0x70
 4697 076c 7D00 0000 		.long	0x7d
 4698 0770 19        		.uleb128 0x19
 4699 0771 0000 0000 		.long	.LASF230
 4700 0775 03        		.byte	0x3
 4701 0776 71        		.byte	0x71
 4702 0777 7E07 0000 		.long	0x77e
 4703 077b 1A        		.uleb128 0x1a
 4704 077c 1A        		.uleb128 0x1a
 4705 077d 00        		.byte	0x0
 4706 077e 02        		.uleb128 0x2
GAS LISTING C:\Users\ADMINI~1\AppData\Local\Temp/ccnPzUe6.s 			page 86


 4707 077f 04        		.byte	0x4
 4708 0780 04        		.byte	0x4
 4709 0781 0000 0000 		.long	.LASF231
 4710 0785 1B        		.uleb128 0x1b
 4711 0786 0000 0000 		.long	.LASF243
 4712 078a 01        		.byte	0x1
 4713 078b D501      		.word	0x1d5
 4714 078d 01        		.byte	0x1
 4715 078e 01        		.byte	0x1
 4716 078f 1C        		.uleb128 0x1c
 4717 0790 0000 0000 		.long	.LASF235
 4718 0794 01        		.byte	0x1
 4719 0795 FF        		.byte	0xff
 4720 0796 01        		.byte	0x1
 4721 0797 7200 0000 		.long	0x72
 4722 079b 01        		.byte	0x1
 4723 079c C207 0000 		.long	0x7c2
 4724 07a0 14        		.uleb128 0x14
 4725 07a1 0000 0000 		.long	.LASF232
 4726 07a5 01        		.byte	0x1
 4727 07a6 FE        		.byte	0xfe
 4728 07a7 7200 0000 		.long	0x72
 4729 07ab 14        		.uleb128 0x14
 4730 07ac 0000 0000 		.long	.LASF233
 4731 07b0 01        		.byte	0x1
 4732 07b1 FE        		.byte	0xfe
 4733 07b2 7200 0000 		.long	0x72
 4734 07b6 14        		.uleb128 0x14
 4735 07b7 0000 0000 		.long	.LASF234
 4736 07bb 01        		.byte	0x1
 4737 07bc FE        		.byte	0xfe
 4738 07bd 7200 0000 		.long	0x72
 4739 07c1 00        		.byte	0x0
 4740 07c2 1D        		.uleb128 0x1d
 4741 07c3 0000 0000 		.long	.LASF236
 4742 07c7 01        		.byte	0x1
 4743 07c8 0401      		.word	0x104
 4744 07ca 01        		.byte	0x1
 4745 07cb 7200 0000 		.long	0x72
 4746 07cf 01        		.byte	0x1
 4747 07d0 1108 0000 		.long	0x811
 4748 07d4 16        		.uleb128 0x16
 4749 07d5 0000 0000 		.long	.LASF232
 4750 07d9 01        		.byte	0x1
 4751 07da 0301      		.word	0x103
 4752 07dc 7200 0000 		.long	0x72
 4753 07e0 16        		.uleb128 0x16
 4754 07e1 0000 0000 		.long	.LASF233
 4755 07e5 01        		.byte	0x1
 4756 07e6 0301      		.word	0x103
 4757 07e8 7200 0000 		.long	0x72
 4758 07ec 16        		.uleb128 0x16
 4759 07ed 0000 0000 		.long	.LASF234
 4760 07f1 01        		.byte	0x1
 4761 07f2 0301      		.word	0x103
 4762 07f4 7200 0000 		.long	0x72
 4763 07f8 1E        		.uleb128 0x1e
GAS LISTING C:\Users\ADMINI~1\AppData\Local\Temp/ccnPzUe6.s 			page 87


 4764 07f9 0000 0000 		.long	.LASF237
 4765 07fd 01        		.byte	0x1
 4766 07fe 0501      		.word	0x105
 4767 0800 7200 0000 		.long	0x72
 4768 0804 1E        		.uleb128 0x1e
 4769 0805 0000 0000 		.long	.LASF238
 4770 0809 01        		.byte	0x1
 4771 080a 0601      		.word	0x106
 4772 080c 6B00 0000 		.long	0x6b
 4773 0810 00        		.byte	0x0
 4774 0811 15        		.uleb128 0x15
 4775 0812 01        		.byte	0x1
 4776 0813 0000 0000 		.long	.LASF240
 4777 0817 01        		.byte	0x1
 4778 0818 1401      		.word	0x114
 4779 081a 01        		.byte	0x1
 4780 081b 7200 0000 		.long	0x72
 4781 081f 01        		.byte	0x1
 4782 0820 3808 0000 		.long	0x838
 4783 0824 16        		.uleb128 0x16
 4784 0825 0000 0000 		.long	.LASF225
 4785 0829 01        		.byte	0x1
 4786 082a 1401      		.word	0x114
 4787 082c 7200 0000 		.long	0x72
 4788 0830 1F        		.uleb128 0x1f
 4789 0831 20        		.uleb128 0x20
 4790 0832 2807 0000 		.long	0x728
 4791 0836 00        		.byte	0x0
 4792 0837 00        		.byte	0x0
 4793 0838 17        		.uleb128 0x17
 4794 0839 01        		.byte	0x1
 4795 083a 0000 0000 		.long	.LASF242
 4796 083e 01        		.byte	0x1
 4797 083f 7A        		.byte	0x7a
 4798 0840 01        		.byte	0x1
 4799 0841 7200 0000 		.long	0x72
 4800 0845 01        		.byte	0x1
 4801 0846 21        		.uleb128 0x21
 4802 0847 0000 0000 		.long	.LASF244
 4803 084b 01        		.byte	0x1
 4804 084c A3        		.byte	0xa3
 4805 084d 01        		.byte	0x1
 4806 084e 01        		.byte	0x1
 4807 084f 18        		.uleb128 0x18
 4808 0850 01        		.byte	0x1
 4809 0851 0000 0000 		.long	.LASF246
 4810 0855 01        		.byte	0x1
 4811 0856 73        		.byte	0x73
 4812 0857 01        		.byte	0x1
 4813 0858 01        		.byte	0x1
 4814 0859 22        		.uleb128 0x22
 4815 085a 4F08 0000 		.long	0x84f
 4816 085e 0000 0000 		.long	.LFB9
 4817 0862 0000 0000 		.long	.LFE9
 4818 0866 02        		.byte	0x2
 4819 0867 90        		.byte	0x90
 4820 0868 20        		.uleb128 0x20
GAS LISTING C:\Users\ADMINI~1\AppData\Local\Temp/ccnPzUe6.s 			page 88


 4821 0869 22        		.uleb128 0x22
 4822 086a 3507 0000 		.long	0x735
 4823 086e 0000 0000 		.long	.LFB10
 4824 0872 0000 0000 		.long	.LFE10
 4825 0876 02        		.byte	0x2
 4826 0877 90        		.byte	0x90
 4827 0878 20        		.uleb128 0x20
 4828 0879 22        		.uleb128 0x22
 4829 087a 3808 0000 		.long	0x838
 4830 087e 0000 0000 		.long	.LFB11
 4831 0882 0000 0000 		.long	.LFE11
 4832 0886 02        		.byte	0x2
 4833 0887 90        		.byte	0x90
 4834 0888 20        		.uleb128 0x20
 4835 0889 23        		.uleb128 0x23
 4836 088a 01        		.byte	0x1
 4837 088b 0000 0000 		.long	.LASF247
 4838 088f 01        		.byte	0x1
 4839 0890 A9        		.byte	0xa9
 4840 0891 01        		.byte	0x1
 4841 0892 7200 0000 		.long	0x72
 4842 0896 0000 0000 		.long	.LFB15
 4843 089a 0000 0000 		.long	.LFE15
 4844 089e 02        		.byte	0x2
 4845 089f 90        		.byte	0x90
 4846 08a0 20        		.uleb128 0x20
 4847 08a1 24        		.uleb128 0x24
 4848 08a2 01        		.byte	0x1
 4849 08a3 0000 0000 		.long	.LASF249
 4850 08a7 01        		.byte	0x1
 4851 08a8 AF        		.byte	0xaf
 4852 08a9 01        		.byte	0x1
 4853 08aa 0000 0000 		.long	.LFB16
 4854 08ae 0000 0000 		.long	.LFE16
 4855 08b2 02        		.byte	0x2
 4856 08b3 90        		.byte	0x90
 4857 08b4 20        		.uleb128 0x20
 4858 08b5 22        		.uleb128 0x22
 4859 08b6 4307 0000 		.long	0x743
 4860 08ba 0000 0000 		.long	.LFB19
 4861 08be 0000 0000 		.long	.LFE19
 4862 08c2 02        		.byte	0x2
 4863 08c3 90        		.byte	0x90
 4864 08c4 20        		.uleb128 0x20
 4865 08c5 25        		.uleb128 0x25
 4866 08c6 1507 0000 		.long	0x715
 4867 08ca 0000 0000 		.long	.LFB24
 4868 08ce 0000 0000 		.long	.LFE24
 4869 08d2 02        		.byte	0x2
 4870 08d3 90        		.byte	0x90
 4871 08d4 20        		.uleb128 0x20
 4872 08d5 E308 0000 		.long	0x8e3
 4873 08d9 26        		.uleb128 0x26
 4874 08da 2807 0000 		.long	0x728
 4875 08de 0000 0000 		.long	.LLST7
 4876 08e2 00        		.byte	0x0
 4877 08e3 25        		.uleb128 0x25
GAS LISTING C:\Users\ADMINI~1\AppData\Local\Temp/ccnPzUe6.s 			page 89


 4878 08e4 1108 0000 		.long	0x811
 4879 08e8 0000 0000 		.long	.LFB25
 4880 08ec 0000 0000 		.long	.LFE25
 4881 08f0 02        		.byte	0x2
 4882 08f1 90        		.byte	0x90
 4883 08f2 20        		.uleb128 0x20
 4884 08f3 1709 0000 		.long	0x917
 4885 08f7 26        		.uleb128 0x26
 4886 08f8 2408 0000 		.long	0x824
 4887 08fc 0000 0000 		.long	.LLST9
 4888 0900 27        		.uleb128 0x27
 4889 0901 1507 0000 		.long	0x715
 4890 0905 0000 0000 		.long	.LBB68
 4891 0909 0000 0000 		.long	.LBE68
 4892 090d 01        		.byte	0x1
 4893 090e 1501      		.word	0x115
 4894 0910 20        		.uleb128 0x20
 4895 0911 D908 0000 		.long	0x8d9
 4896 0915 00        		.byte	0x0
 4897 0916 00        		.byte	0x0
 4898 0917 28        		.uleb128 0x28
 4899 0918 01        		.byte	0x1
 4900 0919 0000 0000 		.long	.LASF248
 4901 091d 01        		.byte	0x1
 4902 091e A102      		.word	0x2a1
 4903 0920 01        		.byte	0x1
 4904 0921 7200 0000 		.long	0x72
 4905 0925 0000 0000 		.long	.LFB47
 4906 0929 0000 0000 		.long	.LFE47
 4907 092d 02        		.byte	0x2
 4908 092e 90        		.byte	0x90
 4909 092f 20        		.uleb128 0x20
 4910 0930 29        		.uleb128 0x29
 4911 0931 0000 0000 		.long	.LASF363
 4912 0935 01        		.byte	0x1
 4913 0936 4C01      		.word	0x14c
 4914 0938 01        		.byte	0x1
 4915 0939 0000 0000 		.long	.LFB28
 4916 093d 0000 0000 		.long	.LFE28
 4917 0941 02        		.byte	0x2
 4918 0942 90        		.byte	0x90
 4919 0943 20        		.uleb128 0x20
 4920 0944 2A        		.uleb128 0x2a
 4921 0945 01        		.byte	0x1
 4922 0946 0000 0000 		.long	.LASF258
 4923 094a 01        		.byte	0x1
 4924 094b 7E        		.byte	0x7e
 4925 094c 01        		.byte	0x1
 4926 094d 0000 0000 		.long	.LFB12
 4927 0951 0000 0000 		.long	.LFE12
 4928 0955 02        		.byte	0x2
 4929 0956 90        		.byte	0x90
 4930 0957 20        		.uleb128 0x20
 4931 0958 7909 0000 		.long	0x979
 4932 095c 2B        		.uleb128 0x2b
 4933 095d 0000 0000 		.long	.LASF251
 4934 0961 01        		.byte	0x1
GAS LISTING C:\Users\ADMINI~1\AppData\Local\Temp/ccnPzUe6.s 			page 90


 4935 0962 7E        		.byte	0x7e
 4936 0963 7200 0000 		.long	0x72
 4937 0967 01        		.byte	0x1
 4938 0968 61        		.byte	0x61
 4939 0969 2C        		.uleb128 0x2c
 4940 096a 3507 0000 		.long	0x735
 4941 096e 0000 0000 		.long	.LBB70
 4942 0972 0000 0000 		.long	.LBE70
 4943 0976 01        		.byte	0x1
 4944 0977 7F        		.byte	0x7f
 4945 0978 00        		.byte	0x0
 4946 0979 2D        		.uleb128 0x2d
 4947 097a 01        		.byte	0x1
 4948 097b 0000 0000 		.long	.LASF250
 4949 097f 01        		.byte	0x1
 4950 0980 AA02      		.word	0x2aa
 4951 0982 01        		.byte	0x1
 4952 0983 0000 0000 		.long	.LFB48
 4953 0987 0000 0000 		.long	.LFE48
 4954 098b 02        		.byte	0x2
 4955 098c 90        		.byte	0x90
 4956 098d 20        		.uleb128 0x20
 4957 098e 2E        		.uleb128 0x2e
 4958 098f 0000 0000 		.long	.LASF253
 4959 0993 01        		.byte	0x1
 4960 0994 3901      		.word	0x139
 4961 0996 01        		.byte	0x1
 4962 0997 0000 0000 		.long	.LFB27
 4963 099b 0000 0000 		.long	.LFE27
 4964 099f 02        		.byte	0x2
 4965 09a0 90        		.byte	0x90
 4966 09a1 20        		.uleb128 0x20
 4967 09a2 C309 0000 		.long	0x9c3
 4968 09a6 2F        		.uleb128 0x2f
 4969 09a7 0000 0000 		.long	.LASF252
 4970 09ab 01        		.byte	0x1
 4971 09ac 3801      		.word	0x138
 4972 09ae 1001 0000 		.long	0x110
 4973 09b2 0000 0000 		.long	.LLST15
 4974 09b6 30        		.uleb128 0x30
 4975 09b7 6B65 7900 		.string	"key"
 4976 09bb 01        		.byte	0x1
 4977 09bc 3B01      		.word	0x13b
 4978 09be F106 0000 		.long	0x6f1
 4979 09c2 00        		.byte	0x0
 4980 09c3 2E        		.uleb128 0x2e
 4981 09c4 0000 0000 		.long	.LASF254
 4982 09c8 01        		.byte	0x1
 4983 09c9 6001      		.word	0x160
 4984 09cb 01        		.byte	0x1
 4985 09cc 0000 0000 		.long	.LFB30
 4986 09d0 0000 0000 		.long	.LFE30
 4987 09d4 02        		.byte	0x2
 4988 09d5 90        		.byte	0x90
 4989 09d6 20        		.uleb128 0x20
 4990 09d7 330A 0000 		.long	0xa33
 4991 09db 31        		.uleb128 0x31
GAS LISTING C:\Users\ADMINI~1\AppData\Local\Temp/ccnPzUe6.s 			page 91


 4992 09dc 7374 7200 		.string	"str"
 4993 09e0 01        		.byte	0x1
 4994 09e1 5F01      		.word	0x15f
 4995 09e3 330A 0000 		.long	0xa33
 4996 09e7 0000 0000 		.long	.LLST17
 4997 09eb 32        		.uleb128 0x32
 4998 09ec 6300      		.string	"c"
 4999 09ee 01        		.byte	0x1
 5000 09ef 6101      		.word	0x161
 5001 09f1 6400 0000 		.long	0x64
 5002 09f5 0000 0000 		.long	.LLST18
 5003 09f9 33        		.uleb128 0x33
 5004 09fa 0000 0000 		.long	.LASF255
 5005 09fe 01        		.byte	0x1
 5006 09ff 6201      		.word	0x162
 5007 0a01 3E0A 0000 		.long	0xa3e
 5008 0a05 02        		.byte	0x2
 5009 0a06 8C        		.byte	0x8c
 5010 0a07 01        		.sleb128 1
 5011 0a08 34        		.uleb128 0x34
 5012 0a09 0000 0000 		.long	.LBB72
 5013 0a0d 0000 0000 		.long	.LBE72
 5014 0a11 35        		.uleb128 0x35
 5015 0a12 0000 0000 		.long	.LASF256
 5016 0a16 01        		.byte	0x1
 5017 0a17 6501      		.word	0x165
 5018 0a19 7D00 0000 		.long	0x7d
 5019 0a1d 0000 0000 		.long	.LLST19
 5020 0a21 35        		.uleb128 0x35
 5021 0a22 0000 0000 		.long	.LASF257
 5022 0a26 01        		.byte	0x1
 5023 0a27 6501      		.word	0x165
 5024 0a29 7200 0000 		.long	0x72
 5025 0a2d 0000 0000 		.long	.LLST20
 5026 0a31 00        		.byte	0x0
 5027 0a32 00        		.byte	0x0
 5028 0a33 0B        		.uleb128 0xb
 5029 0a34 02        		.byte	0x2
 5030 0a35 390A 0000 		.long	0xa39
 5031 0a39 36        		.uleb128 0x36
 5032 0a3a 6400 0000 		.long	0x64
 5033 0a3e 37        		.uleb128 0x37
 5034 0a3f 6400 0000 		.long	0x64
 5035 0a43 4E0A 0000 		.long	0xa4e
 5036 0a47 38        		.uleb128 0x38
 5037 0a48 4E0A 0000 		.long	0xa4e
 5038 0a4c 00        		.byte	0x0
 5039 0a4d 00        		.byte	0x0
 5040 0a4e 05        		.uleb128 0x5
 5041 0a4f 02        		.byte	0x2
 5042 0a50 07        		.byte	0x7
 5043 0a51 39        		.uleb128 0x39
 5044 0a52 01        		.byte	0x1
 5045 0a53 0000 0000 		.long	.LASF259
 5046 0a57 01        		.byte	0x1
 5047 0a58 9202      		.word	0x292
 5048 0a5a 01        		.byte	0x1
GAS LISTING C:\Users\ADMINI~1\AppData\Local\Temp/ccnPzUe6.s 			page 92


 5049 0a5b 0000 0000 		.long	.LFB46
 5050 0a5f 0000 0000 		.long	.LFE46
 5051 0a63 02        		.byte	0x2
 5052 0a64 90        		.byte	0x90
 5053 0a65 20        		.uleb128 0x20
 5054 0a66 7F0A 0000 		.long	0xa7f
 5055 0a6a 30        		.uleb128 0x30
 5056 0a6b 6B00      		.string	"k"
 5057 0a6d 01        		.byte	0x1
 5058 0a6e 9602      		.word	0x296
 5059 0a70 7200 0000 		.long	0x72
 5060 0a74 30        		.uleb128 0x30
 5061 0a75 6A00      		.string	"j"
 5062 0a77 01        		.byte	0x1
 5063 0a78 9602      		.word	0x296
 5064 0a7a 7200 0000 		.long	0x72
 5065 0a7e 00        		.byte	0x0
 5066 0a7f 2D        		.uleb128 0x2d
 5067 0a80 01        		.byte	0x1
 5068 0a81 0000 0000 		.long	.LASF260
 5069 0a85 01        		.byte	0x1
 5070 0a86 8702      		.word	0x287
 5071 0a88 01        		.byte	0x1
 5072 0a89 0000 0000 		.long	.LFB45
 5073 0a8d 0000 0000 		.long	.LFE45
 5074 0a91 02        		.byte	0x2
 5075 0a92 90        		.byte	0x90
 5076 0a93 20        		.uleb128 0x20
 5077 0a94 39        		.uleb128 0x39
 5078 0a95 01        		.byte	0x1
 5079 0a96 0000 0000 		.long	.LASF261
 5080 0a9a 01        		.byte	0x1
 5081 0a9b 3302      		.word	0x233
 5082 0a9d 01        		.byte	0x1
 5083 0a9e 0000 0000 		.long	.LFB40
 5084 0aa2 0000 0000 		.long	.LFE40
 5085 0aa6 02        		.byte	0x2
 5086 0aa7 90        		.byte	0x90
 5087 0aa8 20        		.uleb128 0x20
 5088 0aa9 BE0A 0000 		.long	0xabe
 5089 0aad 3A        		.uleb128 0x3a
 5090 0aae 4307 0000 		.long	0x743
 5091 0ab2 0000 0000 		.long	.LBB73
 5092 0ab6 0000 0000 		.long	.LBE73
 5093 0aba 01        		.byte	0x1
 5094 0abb 3502      		.word	0x235
 5095 0abd 00        		.byte	0x0
 5096 0abe 2D        		.uleb128 0x2d
 5097 0abf 01        		.byte	0x1
 5098 0ac0 0000 0000 		.long	.LASF262
 5099 0ac4 01        		.byte	0x1
 5100 0ac5 F201      		.word	0x1f2
 5101 0ac7 01        		.byte	0x1
 5102 0ac8 0000 0000 		.long	.LFB36
 5103 0acc 0000 0000 		.long	.LFE36
 5104 0ad0 02        		.byte	0x2
 5105 0ad1 90        		.byte	0x90
GAS LISTING C:\Users\ADMINI~1\AppData\Local\Temp/ccnPzUe6.s 			page 93


 5106 0ad2 20        		.uleb128 0x20
 5107 0ad3 2D        		.uleb128 0x2d
 5108 0ad4 01        		.byte	0x1
 5109 0ad5 0000 0000 		.long	.LASF263
 5110 0ad9 01        		.byte	0x1
 5111 0ada E201      		.word	0x1e2
 5112 0adc 01        		.byte	0x1
 5113 0add 0000 0000 		.long	.LFB35
 5114 0ae1 0000 0000 		.long	.LFE35
 5115 0ae5 02        		.byte	0x2
 5116 0ae6 90        		.byte	0x90
 5117 0ae7 20        		.uleb128 0x20
 5118 0ae8 39        		.uleb128 0x39
 5119 0ae9 01        		.byte	0x1
 5120 0aea 0000 0000 		.long	.LASF264
 5121 0aee 01        		.byte	0x1
 5122 0aef 5201      		.word	0x152
 5123 0af1 01        		.byte	0x1
 5124 0af2 0000 0000 		.long	.LFB29
 5125 0af6 0000 0000 		.long	.LFE29
 5126 0afa 02        		.byte	0x2
 5127 0afb 90        		.byte	0x90
 5128 0afc 20        		.uleb128 0x20
 5129 0afd 390B 0000 		.long	0xb39
 5130 0b01 2F        		.uleb128 0x2f
 5131 0b02 0000 0000 		.long	.LASF265
 5132 0b06 01        		.byte	0x1
 5133 0b07 5101      		.word	0x151
 5134 0b09 330A 0000 		.long	0xa33
 5135 0b0d 0000 0000 		.long	.LLST27
 5136 0b11 30        		.uleb128 0x30
 5137 0b12 6300      		.string	"c"
 5138 0b14 01        		.byte	0x1
 5139 0b15 5301      		.word	0x153
 5140 0b17 6400 0000 		.long	0x64
 5141 0b1b 33        		.uleb128 0x33
 5142 0b1c 0000 0000 		.long	.LASF255
 5143 0b20 01        		.byte	0x1
 5144 0b21 5401      		.word	0x154
 5145 0b23 3E0A 0000 		.long	0xa3e
 5146 0b27 02        		.byte	0x2
 5147 0b28 8C        		.byte	0x8c
 5148 0b29 01        		.sleb128 1
 5149 0b2a 32        		.uleb128 0x32
 5150 0b2b 6900      		.string	"i"
 5151 0b2d 01        		.byte	0x1
 5152 0b2e 5501      		.word	0x155
 5153 0b30 7200 0000 		.long	0x72
 5154 0b34 0000 0000 		.long	.LLST28
 5155 0b38 00        		.byte	0x0
 5156 0b39 2E        		.uleb128 0x2e
 5157 0b3a 0000 0000 		.long	.LASF266
 5158 0b3e 01        		.byte	0x1
 5159 0b3f 6C01      		.word	0x16c
 5160 0b41 01        		.byte	0x1
 5161 0b42 0000 0000 		.long	.LFB31
 5162 0b46 0000 0000 		.long	.LFE31
GAS LISTING C:\Users\ADMINI~1\AppData\Local\Temp/ccnPzUe6.s 			page 94


 5163 0b4a 02        		.byte	0x2
 5164 0b4b 90        		.byte	0x90
 5165 0b4c 20        		.uleb128 0x20
 5166 0b4d 9F0B 0000 		.long	0xb9f
 5167 0b51 27        		.uleb128 0x27
 5168 0b52 4D07 0000 		.long	0x74d
 5169 0b56 0000 0000 		.long	.LBB75
 5170 0b5a 0000 0000 		.long	.LBE75
 5171 0b5e 01        		.byte	0x1
 5172 0b5f B001      		.word	0x1b0
 5173 0b61 20        		.uleb128 0x20
 5174 0b62 5A07 0000 		.long	0x75a
 5175 0b66 34        		.uleb128 0x34
 5176 0b67 0000 0000 		.long	.LBB76
 5177 0b6b 0000 0000 		.long	.LBE76
 5178 0b6f 3B        		.uleb128 0x3b
 5179 0b70 6507 0000 		.long	0x765
 5180 0b74 06        		.byte	0x6
 5181 0b75 68        		.byte	0x68
 5182 0b76 93        		.byte	0x93
 5183 0b77 01        		.uleb128 0x1
 5184 0b78 69        		.byte	0x69
 5185 0b79 93        		.byte	0x93
 5186 0b7a 01        		.uleb128 0x1
 5187 0b7b 3C        		.uleb128 0x3c
 5188 0b7c 7007 0000 		.long	0x770
 5189 0b80 3D        		.uleb128 0x3d
 5190 0b81 FC06 0000 		.long	0x6fc
 5191 0b85 0000 0000 		.long	.LBB77
 5192 0b89 0000 0000 		.long	.LBE77
 5193 0b8d 03        		.byte	0x3
 5194 0b8e 7B        		.byte	0x7b
 5195 0b8f 3E        		.uleb128 0x3e
 5196 0b90 0907 0000 		.long	0x709
 5197 0b94 06        		.byte	0x6
 5198 0b95 6E        		.byte	0x6e
 5199 0b96 93        		.byte	0x93
 5200 0b97 01        		.uleb128 0x1
 5201 0b98 6F        		.byte	0x6f
 5202 0b99 93        		.byte	0x93
 5203 0b9a 01        		.uleb128 0x1
 5204 0b9b 00        		.byte	0x0
 5205 0b9c 00        		.byte	0x0
 5206 0b9d 00        		.byte	0x0
 5207 0b9e 00        		.byte	0x0
 5208 0b9f 2D        		.uleb128 0x2d
 5209 0ba0 01        		.byte	0x1
 5210 0ba1 0000 0000 		.long	.LASF267
 5211 0ba5 01        		.byte	0x1
 5212 0ba6 C501      		.word	0x1c5
 5213 0ba8 01        		.byte	0x1
 5214 0ba9 0000 0000 		.long	.LFB33
 5215 0bad 0000 0000 		.long	.LFE33
 5216 0bb1 02        		.byte	0x2
 5217 0bb2 90        		.byte	0x90
 5218 0bb3 20        		.uleb128 0x20
 5219 0bb4 2D        		.uleb128 0x2d
GAS LISTING C:\Users\ADMINI~1\AppData\Local\Temp/ccnPzUe6.s 			page 95


 5220 0bb5 01        		.byte	0x1
 5221 0bb6 0000 0000 		.long	.LASF268
 5222 0bba 01        		.byte	0x1
 5223 0bbb B301      		.word	0x1b3
 5224 0bbd 01        		.byte	0x1
 5225 0bbe 0000 0000 		.long	.LFB32
 5226 0bc2 0000 0000 		.long	.LFE32
 5227 0bc6 02        		.byte	0x2
 5228 0bc7 90        		.byte	0x90
 5229 0bc8 20        		.uleb128 0x20
 5230 0bc9 39        		.uleb128 0x39
 5231 0bca 01        		.byte	0x1
 5232 0bcb 0000 0000 		.long	.LASF269
 5233 0bcf 01        		.byte	0x1
 5234 0bd0 7902      		.word	0x279
 5235 0bd2 01        		.byte	0x1
 5236 0bd3 0000 0000 		.long	.LFB44
 5237 0bd7 0000 0000 		.long	.LFE44
 5238 0bdb 02        		.byte	0x2
 5239 0bdc 90        		.byte	0x90
 5240 0bdd 20        		.uleb128 0x20
 5241 0bde F90B 0000 		.long	0xbf9
 5242 0be2 1E        		.uleb128 0x1e
 5243 0be3 0000 0000 		.long	.LASF270
 5244 0be7 01        		.byte	0x1
 5245 0be8 7A02      		.word	0x27a
 5246 0bea 7D00 0000 		.long	0x7d
 5247 0bee 30        		.uleb128 0x30
 5248 0bef 6B00      		.string	"k"
 5249 0bf1 01        		.byte	0x1
 5250 0bf2 7B02      		.word	0x27b
 5251 0bf4 6B00 0000 		.long	0x6b
 5252 0bf8 00        		.byte	0x0
 5253 0bf9 39        		.uleb128 0x39
 5254 0bfa 01        		.byte	0x1
 5255 0bfb 0000 0000 		.long	.LASF271
 5256 0bff 01        		.byte	0x1
 5257 0c00 6602      		.word	0x266
 5258 0c02 01        		.byte	0x1
 5259 0c03 0000 0000 		.long	.LFB43
 5260 0c07 0000 0000 		.long	.LFE43
 5261 0c0b 02        		.byte	0x2
 5262 0c0c 90        		.byte	0x90
 5263 0c0d 20        		.uleb128 0x20
 5264 0c0e 410C 0000 		.long	0xc41
 5265 0c12 1E        		.uleb128 0x1e
 5266 0c13 0000 0000 		.long	.LASF272
 5267 0c17 01        		.byte	0x1
 5268 0c18 6A02      		.word	0x26a
 5269 0c1a 7200 0000 		.long	0x72
 5270 0c1e 1E        		.uleb128 0x1e
 5271 0c1f 0000 0000 		.long	.LASF270
 5272 0c23 01        		.byte	0x1
 5273 0c24 6B02      		.word	0x26b
 5274 0c26 7D00 0000 		.long	0x7d
 5275 0c2a 1E        		.uleb128 0x1e
 5276 0c2b 0000 0000 		.long	.LASF273
GAS LISTING C:\Users\ADMINI~1\AppData\Local\Temp/ccnPzUe6.s 			page 96


 5277 0c2f 01        		.byte	0x1
 5278 0c30 6C02      		.word	0x26c
 5279 0c32 410C 0000 		.long	0xc41
 5280 0c36 30        		.uleb128 0x30
 5281 0c37 6B00      		.string	"k"
 5282 0c39 01        		.byte	0x1
 5283 0c3a 6D02      		.word	0x26d
 5284 0c3c 7200 0000 		.long	0x72
 5285 0c40 00        		.byte	0x0
 5286 0c41 37        		.uleb128 0x37
 5287 0c42 7200 0000 		.long	0x72
 5288 0c46 510C 0000 		.long	0xc51
 5289 0c4a 38        		.uleb128 0x38
 5290 0c4b 4E0A 0000 		.long	0xa4e
 5291 0c4f 2F        		.byte	0x2f
 5292 0c50 00        		.byte	0x0
 5293 0c51 39        		.uleb128 0x39
 5294 0c52 01        		.byte	0x1
 5295 0c53 0000 0000 		.long	.LASF274
 5296 0c57 01        		.byte	0x1
 5297 0c58 5302      		.word	0x253
 5298 0c5a 01        		.byte	0x1
 5299 0c5b 0000 0000 		.long	.LFB42
 5300 0c5f 0000 0000 		.long	.LFE42
 5301 0c63 02        		.byte	0x2
 5302 0c64 90        		.byte	0x90
 5303 0c65 20        		.uleb128 0x20
 5304 0c66 AD0C 0000 		.long	0xcad
 5305 0c6a 2F        		.uleb128 0x2f
 5306 0c6b 0000 0000 		.long	.LASF275
 5307 0c6f 01        		.byte	0x1
 5308 0c70 5302      		.word	0x253
 5309 0c72 7200 0000 		.long	0x72
 5310 0c76 0000 0000 		.long	.LLST35
 5311 0c7a 1E        		.uleb128 0x1e
 5312 0c7b 0000 0000 		.long	.LASF270
 5313 0c7f 01        		.byte	0x1
 5314 0c80 5702      		.word	0x257
 5315 0c82 7D00 0000 		.long	0x7d
 5316 0c86 35        		.uleb128 0x35
 5317 0c87 0000 0000 		.long	.LASF272
 5318 0c8b 01        		.byte	0x1
 5319 0c8c 5802      		.word	0x258
 5320 0c8e 7200 0000 		.long	0x72
 5321 0c92 0000 0000 		.long	.LLST36
 5322 0c96 1E        		.uleb128 0x1e
 5323 0c97 0000 0000 		.long	.LASF273
 5324 0c9b 01        		.byte	0x1
 5325 0c9c 5902      		.word	0x259
 5326 0c9e 410C 0000 		.long	0xc41
 5327 0ca2 30        		.uleb128 0x30
 5328 0ca3 6B00      		.string	"k"
 5329 0ca5 01        		.byte	0x1
 5330 0ca6 5A02      		.word	0x25a
 5331 0ca8 7200 0000 		.long	0x72
 5332 0cac 00        		.byte	0x0
 5333 0cad 39        		.uleb128 0x39
GAS LISTING C:\Users\ADMINI~1\AppData\Local\Temp/ccnPzUe6.s 			page 97


 5334 0cae 01        		.byte	0x1
 5335 0caf 0000 0000 		.long	.LASF276
 5336 0cb3 01        		.byte	0x1
 5337 0cb4 F801      		.word	0x1f8
 5338 0cb6 01        		.byte	0x1
 5339 0cb7 0000 0000 		.long	.LFB37
 5340 0cbb 0000 0000 		.long	.LFE37
 5341 0cbf 02        		.byte	0x2
 5342 0cc0 90        		.byte	0x90
 5343 0cc1 20        		.uleb128 0x20
 5344 0cc2 E70C 0000 		.long	0xce7
 5345 0cc6 1E        		.uleb128 0x1e
 5346 0cc7 0000 0000 		.long	.LASF270
 5347 0ccb 01        		.byte	0x1
 5348 0ccc F901      		.word	0x1f9
 5349 0cce 7D00 0000 		.long	0x7d
 5350 0cd2 30        		.uleb128 0x30
 5351 0cd3 6B00      		.string	"k"
 5352 0cd5 01        		.byte	0x1
 5353 0cd6 FA01      		.word	0x1fa
 5354 0cd8 7200 0000 		.long	0x72
 5355 0cdc 30        		.uleb128 0x30
 5356 0cdd 6A00      		.string	"j"
 5357 0cdf 01        		.byte	0x1
 5358 0ce0 FA01      		.word	0x1fa
 5359 0ce2 7200 0000 		.long	0x72
 5360 0ce6 00        		.byte	0x0
 5361 0ce7 39        		.uleb128 0x39
 5362 0ce8 01        		.byte	0x1
 5363 0ce9 0000 0000 		.long	.LASF277
 5364 0ced 01        		.byte	0x1
 5365 0cee B102      		.word	0x2b1
 5366 0cf0 01        		.byte	0x1
 5367 0cf1 0000 0000 		.long	.LFB49
 5368 0cf5 0000 0000 		.long	.LFE49
 5369 0cf9 02        		.byte	0x2
 5370 0cfa 90        		.byte	0x90
 5371 0cfb 20        		.uleb128 0x20
 5372 0cfc 820E 0000 		.long	0xe82
 5373 0d00 2F        		.uleb128 0x2f
 5374 0d01 0000 0000 		.long	.LASF225
 5375 0d05 01        		.byte	0x1
 5376 0d06 B002      		.word	0x2b0
 5377 0d08 7200 0000 		.long	0x72
 5378 0d0c 0000 0000 		.long	.LLST39
 5379 0d10 2F        		.uleb128 0x2f
 5380 0d11 0000 0000 		.long	.LASF234
 5381 0d15 01        		.byte	0x1
 5382 0d16 B002      		.word	0x2b0
 5383 0d18 7200 0000 		.long	0x72
 5384 0d1c 0000 0000 		.long	.LLST40
 5385 0d20 2F        		.uleb128 0x2f
 5386 0d21 0000 0000 		.long	.LASF233
 5387 0d25 01        		.byte	0x1
 5388 0d26 B002      		.word	0x2b0
 5389 0d28 7200 0000 		.long	0x72
 5390 0d2c 0000 0000 		.long	.LLST41
GAS LISTING C:\Users\ADMINI~1\AppData\Local\Temp/ccnPzUe6.s 			page 98


 5391 0d30 2F        		.uleb128 0x2f
 5392 0d31 0000 0000 		.long	.LASF278
 5393 0d35 01        		.byte	0x1
 5394 0d36 B002      		.word	0x2b0
 5395 0d38 7200 0000 		.long	0x72
 5396 0d3c 0000 0000 		.long	.LLST42
 5397 0d40 32        		.uleb128 0x32
 5398 0d41 636D 6400 		.string	"cmd"
 5399 0d45 01        		.byte	0x1
 5400 0d46 BC02      		.word	0x2bc
 5401 0d48 7200 0000 		.long	0x72
 5402 0d4c 0000 0000 		.long	.LLST43
 5403 0d50 35        		.uleb128 0x35
 5404 0d51 0000 0000 		.long	.LASF279
 5405 0d55 01        		.byte	0x1
 5406 0d56 BC02      		.word	0x2bc
 5407 0d58 7200 0000 		.long	0x72
 5408 0d5c 0000 0000 		.long	.LLST44
 5409 0d60 35        		.uleb128 0x35
 5410 0d61 0000 0000 		.long	.LASF272
 5411 0d65 01        		.byte	0x1
 5412 0d66 BD02      		.word	0x2bd
 5413 0d68 6B00 0000 		.long	0x6b
 5414 0d6c 0000 0000 		.long	.LLST45
 5415 0d70 35        		.uleb128 0x35
 5416 0d71 0000 0000 		.long	.LASF237
 5417 0d75 01        		.byte	0x1
 5418 0d76 BE02      		.word	0x2be
 5419 0d78 6B00 0000 		.long	0x6b
 5420 0d7c 0000 0000 		.long	.LLST46
 5421 0d80 33        		.uleb128 0x33
 5422 0d81 0000 0000 		.long	.LASF280
 5423 0d85 01        		.byte	0x1
 5424 0d86 BF02      		.word	0x2bf
 5425 0d88 820E 0000 		.long	0xe82
 5426 0d8c 02        		.byte	0x2
 5427 0d8d 8C        		.byte	0x8c
 5428 0d8e 01        		.sleb128 1
 5429 0d8f 35        		.uleb128 0x35
 5430 0d90 0000 0000 		.long	.LASF238
 5431 0d94 01        		.byte	0x1
 5432 0d95 C002      		.word	0x2c0
 5433 0d97 6B00 0000 		.long	0x6b
 5434 0d9b 0000 0000 		.long	.LLST47
 5435 0d9f 1E        		.uleb128 0x1e
 5436 0da0 0000 0000 		.long	.LASF281
 5437 0da4 01        		.byte	0x1
 5438 0da5 C102      		.word	0x2c1
 5439 0da7 6B00 0000 		.long	0x6b
 5440 0dab 3A        		.uleb128 0x3a
 5441 0dac 8507 0000 		.long	0x785
 5442 0db0 0000 0000 		.long	.LBB79
 5443 0db4 0000 0000 		.long	.LBE79
 5444 0db8 01        		.byte	0x1
 5445 0db9 1903      		.word	0x319
 5446 0dbb 3A        		.uleb128 0x3a
 5447 0dbc 4307 0000 		.long	0x743
GAS LISTING C:\Users\ADMINI~1\AppData\Local\Temp/ccnPzUe6.s 			page 99


 5448 0dc0 0000 0000 		.long	.LBB81
 5449 0dc4 0000 0000 		.long	.LBE81
 5450 0dc8 01        		.byte	0x1
 5451 0dc9 4303      		.word	0x343
 5452 0dcb 3F        		.uleb128 0x3f
 5453 0dcc 4D07 0000 		.long	0x74d
 5454 0dd0 0000 0000 		.long	.LBB83
 5455 0dd4 0000 0000 		.long	.LBE83
 5456 0dd8 01        		.byte	0x1
 5457 0dd9 7903      		.word	0x379
 5458 0ddb 160E 0000 		.long	0xe16
 5459 0ddf 20        		.uleb128 0x20
 5460 0de0 5A07 0000 		.long	0x75a
 5461 0de4 34        		.uleb128 0x34
 5462 0de5 0000 0000 		.long	.LBB84
 5463 0de9 0000 0000 		.long	.LBE84
 5464 0ded 40        		.uleb128 0x40
 5465 0dee 6507 0000 		.long	0x765
 5466 0df2 0000 0000 		.long	.LLST48
 5467 0df6 3C        		.uleb128 0x3c
 5468 0df7 7007 0000 		.long	0x770
 5469 0dfb 3D        		.uleb128 0x3d
 5470 0dfc FC06 0000 		.long	0x6fc
 5471 0e00 0000 0000 		.long	.LBB85
 5472 0e04 0000 0000 		.long	.LBE85
 5473 0e08 03        		.byte	0x3
 5474 0e09 7B        		.byte	0x7b
 5475 0e0a 26        		.uleb128 0x26
 5476 0e0b 0907 0000 		.long	0x709
 5477 0e0f 0000 0000 		.long	.LLST49
 5478 0e13 00        		.byte	0x0
 5479 0e14 00        		.byte	0x0
 5480 0e15 00        		.byte	0x0
 5481 0e16 3F        		.uleb128 0x3f
 5482 0e17 8F07 0000 		.long	0x78f
 5483 0e1b 0000 0000 		.long	.LBB87
 5484 0e1f 0000 0000 		.long	.LBE87
 5485 0e23 01        		.byte	0x1
 5486 0e24 A203      		.word	0x3a2
 5487 0e26 3A0E 0000 		.long	0xe3a
 5488 0e2a 20        		.uleb128 0x20
 5489 0e2b B607 0000 		.long	0x7b6
 5490 0e2f 20        		.uleb128 0x20
 5491 0e30 AB07 0000 		.long	0x7ab
 5492 0e34 20        		.uleb128 0x20
 5493 0e35 A007 0000 		.long	0x7a0
 5494 0e39 00        		.byte	0x0
 5495 0e3a 27        		.uleb128 0x27
 5496 0e3b 4D07 0000 		.long	0x74d
 5497 0e3f 0000 0000 		.long	.LBB88
 5498 0e43 0000 0000 		.long	.LBE88
 5499 0e47 01        		.byte	0x1
 5500 0e48 CA03      		.word	0x3ca
 5501 0e4a 20        		.uleb128 0x20
 5502 0e4b 5A07 0000 		.long	0x75a
 5503 0e4f 34        		.uleb128 0x34
 5504 0e50 0000 0000 		.long	.LBB89
GAS LISTING C:\Users\ADMINI~1\AppData\Local\Temp/ccnPzUe6.s 			page 100


 5505 0e54 0000 0000 		.long	.LBE89
 5506 0e58 40        		.uleb128 0x40
 5507 0e59 6507 0000 		.long	0x765
 5508 0e5d 0000 0000 		.long	.LLST50
 5509 0e61 3C        		.uleb128 0x3c
 5510 0e62 7007 0000 		.long	0x770
 5511 0e66 3D        		.uleb128 0x3d
 5512 0e67 FC06 0000 		.long	0x6fc
 5513 0e6b 0000 0000 		.long	.LBB90
 5514 0e6f 0000 0000 		.long	.LBE90
 5515 0e73 03        		.byte	0x3
 5516 0e74 7B        		.byte	0x7b
 5517 0e75 26        		.uleb128 0x26
 5518 0e76 0907 0000 		.long	0x709
 5519 0e7a 0000 0000 		.long	.LLST51
 5520 0e7e 00        		.byte	0x0
 5521 0e7f 00        		.byte	0x0
 5522 0e80 00        		.byte	0x0
 5523 0e81 00        		.byte	0x0
 5524 0e82 37        		.uleb128 0x37
 5525 0e83 6400 0000 		.long	0x64
 5526 0e87 920E 0000 		.long	0xe92
 5527 0e8b 38        		.uleb128 0x38
 5528 0e8c 4E0A 0000 		.long	0xa4e
 5529 0e90 02        		.byte	0x2
 5530 0e91 00        		.byte	0x0
 5531 0e92 39        		.uleb128 0x39
 5532 0e93 01        		.byte	0x1
 5533 0e94 0000 0000 		.long	.LASF282
 5534 0e98 01        		.byte	0x1
 5535 0e99 1202      		.word	0x212
 5536 0e9b 01        		.byte	0x1
 5537 0e9c 0000 0000 		.long	.LFB39
 5538 0ea0 0000 0000 		.long	.LFE39
 5539 0ea4 02        		.byte	0x2
 5540 0ea5 90        		.byte	0x90
 5541 0ea6 20        		.uleb128 0x20
 5542 0ea7 E80E 0000 		.long	0xee8
 5543 0eab 1E        		.uleb128 0x1e
 5544 0eac 0000 0000 		.long	.LASF272
 5545 0eb0 01        		.byte	0x1
 5546 0eb1 1302      		.word	0x213
 5547 0eb3 7200 0000 		.long	0x72
 5548 0eb7 1E        		.uleb128 0x1e
 5549 0eb8 0000 0000 		.long	.LASF270
 5550 0ebc 01        		.byte	0x1
 5551 0ebd 1402      		.word	0x214
 5552 0ebf 7D00 0000 		.long	0x7d
 5553 0ec3 30        		.uleb128 0x30
 5554 0ec4 6B00      		.string	"k"
 5555 0ec6 01        		.byte	0x1
 5556 0ec7 1502      		.word	0x215
 5557 0ec9 7200 0000 		.long	0x72
 5558 0ecd 30        		.uleb128 0x30
 5559 0ece 6A00      		.string	"j"
 5560 0ed0 01        		.byte	0x1
 5561 0ed1 1502      		.word	0x215
GAS LISTING C:\Users\ADMINI~1\AppData\Local\Temp/ccnPzUe6.s 			page 101


 5562 0ed3 7200 0000 		.long	0x72
 5563 0ed7 3A        		.uleb128 0x3a
 5564 0ed8 4307 0000 		.long	0x743
 5565 0edc 0000 0000 		.long	.LBB92
 5566 0ee0 0000 0000 		.long	.LBE92
 5567 0ee4 01        		.byte	0x1
 5568 0ee5 2302      		.word	0x223
 5569 0ee7 00        		.byte	0x0
 5570 0ee8 2D        		.uleb128 0x2d
 5571 0ee9 01        		.byte	0x1
 5572 0eea 0000 0000 		.long	.LASF283
 5573 0eee 01        		.byte	0x1
 5574 0eef 0602      		.word	0x206
 5575 0ef1 01        		.byte	0x1
 5576 0ef2 0000 0000 		.long	.LFB38
 5577 0ef6 0000 0000 		.long	.LFE38
 5578 0efa 02        		.byte	0x2
 5579 0efb 90        		.byte	0x90
 5580 0efc 20        		.uleb128 0x20
 5581 0efd 41        		.uleb128 0x41
 5582 0efe 01        		.byte	0x1
 5583 0eff 0000 0000 		.long	.LASF284
 5584 0f03 01        		.byte	0x1
 5585 0f04 1C01      		.word	0x11c
 5586 0f06 01        		.byte	0x1
 5587 0f07 7200 0000 		.long	0x72
 5588 0f0b 0000 0000 		.long	.LFB26
 5589 0f0f 0000 0000 		.long	.LFE26
 5590 0f13 02        		.byte	0x2
 5591 0f14 90        		.byte	0x90
 5592 0f15 20        		.uleb128 0x20
 5593 0f16 9F0F 0000 		.long	0xf9f
 5594 0f1a 2F        		.uleb128 0x2f
 5595 0f1b 0000 0000 		.long	.LASF232
 5596 0f1f 01        		.byte	0x1
 5597 0f20 1B01      		.word	0x11b
 5598 0f22 7200 0000 		.long	0x72
 5599 0f26 0000 0000 		.long	.LLST55
 5600 0f2a 2F        		.uleb128 0x2f
 5601 0f2b 0000 0000 		.long	.LASF233
 5602 0f2f 01        		.byte	0x1
 5603 0f30 1B01      		.word	0x11b
 5604 0f32 7200 0000 		.long	0x72
 5605 0f36 0000 0000 		.long	.LLST56
 5606 0f3a 2F        		.uleb128 0x2f
 5607 0f3b 0000 0000 		.long	.LASF234
 5608 0f3f 01        		.byte	0x1
 5609 0f40 1B01      		.word	0x11b
 5610 0f42 7200 0000 		.long	0x72
 5611 0f46 0000 0000 		.long	.LLST57
 5612 0f4a 35        		.uleb128 0x35
 5613 0f4b 0000 0000 		.long	.LASF237
 5614 0f4f 01        		.byte	0x1
 5615 0f50 1D01      		.word	0x11d
 5616 0f52 7200 0000 		.long	0x72
 5617 0f56 0000 0000 		.long	.LLST58
 5618 0f5a 3F        		.uleb128 0x3f
GAS LISTING C:\Users\ADMINI~1\AppData\Local\Temp/ccnPzUe6.s 			page 102


 5619 0f5b C207 0000 		.long	0x7c2
 5620 0f5f 0000 0000 		.long	.LBB94
 5621 0f63 0000 0000 		.long	.LBE94
 5622 0f67 01        		.byte	0x1
 5623 0f68 2501      		.word	0x125
 5624 0f6a 7E0F 0000 		.long	0xf7e
 5625 0f6e 20        		.uleb128 0x20
 5626 0f6f EC07 0000 		.long	0x7ec
 5627 0f73 20        		.uleb128 0x20
 5628 0f74 E007 0000 		.long	0x7e0
 5629 0f78 20        		.uleb128 0x20
 5630 0f79 D407 0000 		.long	0x7d4
 5631 0f7d 00        		.byte	0x0
 5632 0f7e 27        		.uleb128 0x27
 5633 0f7f 8F07 0000 		.long	0x78f
 5634 0f83 0000 0000 		.long	.LBB95
 5635 0f87 0000 0000 		.long	.LBE95
 5636 0f8b 01        		.byte	0x1
 5637 0f8c 2D01      		.word	0x12d
 5638 0f8e 20        		.uleb128 0x20
 5639 0f8f B607 0000 		.long	0x7b6
 5640 0f93 20        		.uleb128 0x20
 5641 0f94 AB07 0000 		.long	0x7ab
 5642 0f98 20        		.uleb128 0x20
 5643 0f99 A007 0000 		.long	0x7a0
 5644 0f9d 00        		.byte	0x0
 5645 0f9e 00        		.byte	0x0
 5646 0f9f 41        		.uleb128 0x41
 5647 0fa0 01        		.byte	0x1
 5648 0fa1 0000 0000 		.long	.LASF285
 5649 0fa5 01        		.byte	0x1
 5650 0fa6 4402      		.word	0x244
 5651 0fa8 01        		.byte	0x1
 5652 0fa9 7200 0000 		.long	0x72
 5653 0fad 0000 0000 		.long	.LFB41
 5654 0fb1 0000 0000 		.long	.LFE41
 5655 0fb5 02        		.byte	0x2
 5656 0fb6 90        		.byte	0x90
 5657 0fb7 20        		.uleb128 0x20
 5658 0fb8 EF0F 0000 		.long	0xfef
 5659 0fbc 2F        		.uleb128 0x2f
 5660 0fbd 0000 0000 		.long	.LASF225
 5661 0fc1 01        		.byte	0x1
 5662 0fc2 4402      		.word	0x244
 5663 0fc4 7200 0000 		.long	0x72
 5664 0fc8 0000 0000 		.long	.LLST60
 5665 0fcc 1E        		.uleb128 0x1e
 5666 0fcd 0000 0000 		.long	.LASF286
 5667 0fd1 01        		.byte	0x1
 5668 0fd2 4702      		.word	0x247
 5669 0fd4 7200 0000 		.long	0x72
 5670 0fd8 27        		.uleb128 0x27
 5671 0fd9 1507 0000 		.long	0x715
 5672 0fdd 0000 0000 		.long	.LBB96
 5673 0fe1 0000 0000 		.long	.LBE96
 5674 0fe5 01        		.byte	0x1
 5675 0fe6 4902      		.word	0x249
GAS LISTING C:\Users\ADMINI~1\AppData\Local\Temp/ccnPzUe6.s 			page 103


 5676 0fe8 20        		.uleb128 0x20
 5677 0fe9 D908 0000 		.long	0x8d9
 5678 0fed 00        		.byte	0x0
 5679 0fee 00        		.byte	0x0
 5680 0fef 2A        		.uleb128 0x2a
 5681 0ff0 01        		.byte	0x1
 5682 0ff1 0000 0000 		.long	.LASF287
 5683 0ff5 01        		.byte	0x1
 5684 0ff6 C8        		.byte	0xc8
 5685 0ff7 01        		.byte	0x1
 5686 0ff8 0000 0000 		.long	.LFB18
 5687 0ffc 0000 0000 		.long	.LFE18
 5688 1000 02        		.byte	0x2
 5689 1001 90        		.byte	0x90
 5690 1002 20        		.uleb128 0x20
 5691 1003 2610 0000 		.long	0x1026
 5692 1007 2C        		.uleb128 0x2c
 5693 1008 3507 0000 		.long	0x735
 5694 100c 0000 0000 		.long	.LBB98
 5695 1010 0000 0000 		.long	.LBE98
 5696 1014 01        		.byte	0x1
 5697 1015 C9        		.byte	0xc9
 5698 1016 2C        		.uleb128 0x2c
 5699 1017 4608 0000 		.long	0x846
 5700 101b 0000 0000 		.long	.LBB100
 5701 101f 0000 0000 		.long	.LBE100
 5702 1023 01        		.byte	0x1
 5703 1024 CA        		.byte	0xca
 5704 1025 00        		.byte	0x0
 5705 1026 2A        		.uleb128 0x2a
 5706 1027 01        		.byte	0x1
 5707 1028 0000 0000 		.long	.LASF288
 5708 102c 01        		.byte	0x1
 5709 102d 93        		.byte	0x93
 5710 102e 01        		.byte	0x1
 5711 102f 0000 0000 		.long	.LFB13
 5712 1033 0000 0000 		.long	.LFE13
 5713 1037 02        		.byte	0x2
 5714 1038 90        		.byte	0x90
 5715 1039 20        		.uleb128 0x20
 5716 103a 4E10 0000 		.long	0x104e
 5717 103e 2C        		.uleb128 0x2c
 5718 103f 4F08 0000 		.long	0x84f
 5719 1043 0000 0000 		.long	.LBB102
 5720 1047 0000 0000 		.long	.LBE102
 5721 104b 01        		.byte	0x1
 5722 104c 94        		.byte	0x94
 5723 104d 00        		.byte	0x0
 5724 104e 24        		.uleb128 0x24
 5725 104f 01        		.byte	0x1
 5726 1050 0000 0000 		.long	.LASF289
 5727 1054 01        		.byte	0x1
 5728 1055 D8        		.byte	0xd8
 5729 1056 01        		.byte	0x1
 5730 1057 0000 0000 		.long	.LFB20
 5731 105b 0000 0000 		.long	.LFE20
 5732 105f 02        		.byte	0x2
GAS LISTING C:\Users\ADMINI~1\AppData\Local\Temp/ccnPzUe6.s 			page 104


 5733 1060 90        		.byte	0x90
 5734 1061 20        		.uleb128 0x20
 5735 1062 24        		.uleb128 0x24
 5736 1063 01        		.byte	0x1
 5737 1064 0000 0000 		.long	.LASF290
 5738 1068 01        		.byte	0x1
 5739 1069 E0        		.byte	0xe0
 5740 106a 01        		.byte	0x1
 5741 106b 0000 0000 		.long	.LFB21
 5742 106f 0000 0000 		.long	.LFE21
 5743 1073 02        		.byte	0x2
 5744 1074 90        		.byte	0x90
 5745 1075 20        		.uleb128 0x20
 5746 1076 24        		.uleb128 0x24
 5747 1077 01        		.byte	0x1
 5748 1078 0000 0000 		.long	.LASF291
 5749 107c 01        		.byte	0x1
 5750 107d B5        		.byte	0xb5
 5751 107e 01        		.byte	0x1
 5752 107f 0000 0000 		.long	.LFB17
 5753 1083 0000 0000 		.long	.LFE17
 5754 1087 02        		.byte	0x2
 5755 1088 90        		.byte	0x90
 5756 1089 20        		.uleb128 0x20
 5757 108a 19        		.uleb128 0x19
 5758 108b 0000 0000 		.long	.LASF292
 5759 108f 08        		.byte	0x8
 5760 1090 1F        		.byte	0x1f
 5761 1091 8E00 0000 		.long	0x8e
 5762 1095 42        		.uleb128 0x42
 5763 1096 0000 0000 		.long	.LASF293
 5764 109a 01        		.byte	0x1
 5765 109b 46        		.byte	0x46
 5766 109c 7200 0000 		.long	0x72
 5767 10a0 05        		.byte	0x5
 5768 10a1 03        		.byte	0x3
 5769 10a2 0000 0000 		.long	_isKeyMapping
 5770 10a6 42        		.uleb128 0x42
 5771 10a7 0000 0000 		.long	.LASF294
 5772 10ab 01        		.byte	0x1
 5773 10ac 47        		.byte	0x47
 5774 10ad 7200 0000 		.long	0x72
 5775 10b1 05        		.byte	0x5
 5776 10b2 03        		.byte	0x3
 5777 10b3 0000 0000 		.long	enabledKeyMappingCount
 5778 10b7 42        		.uleb128 0x42
 5779 10b8 0000 0000 		.long	.LASF295
 5780 10bc 01        		.byte	0x1
 5781 10bd 48        		.byte	0x48
 5782 10be 6B00 0000 		.long	0x6b
 5783 10c2 05        		.byte	0x5
 5784 10c3 03        		.byte	0x3
 5785 10c4 0000 0000 		.long	keyMappingCount
 5786 10c8 42        		.uleb128 0x42
 5787 10c9 0000 0000 		.long	.LASF296
 5788 10cd 01        		.byte	0x1
 5789 10ce 49        		.byte	0x49
GAS LISTING C:\Users\ADMINI~1\AppData\Local\Temp/ccnPzUe6.s 			page 105


 5790 10cf 6B00 0000 		.long	0x6b
 5791 10d3 05        		.byte	0x5
 5792 10d4 03        		.byte	0x3
 5793 10d5 0000 0000 		.long	keyMappingCountMax
 5794 10d9 42        		.uleb128 0x42
 5795 10da 0000 0000 		.long	.LASF297
 5796 10de 01        		.byte	0x1
 5797 10df 4A        		.byte	0x4a
 5798 10e0 7200 0000 		.long	0x72
 5799 10e4 05        		.byte	0x5
 5800 10e5 03        		.byte	0x3
 5801 10e6 0000 0000 		.long	_keyMappingOnBoot
 5802 10ea 42        		.uleb128 0x42
 5803 10eb 0000 0000 		.long	.LASF298
 5804 10ef 01        		.byte	0x1
 5805 10f0 54        		.byte	0x54
 5806 10f1 7200 0000 		.long	0x72
 5807 10f5 05        		.byte	0x5
 5808 10f6 03        		.byte	0x3
 5809 10f7 0000 0000 		.long	_mode
 5810 10fb 42        		.uleb128 0x42
 5811 10fc 0000 0000 		.long	.LASF299
 5812 1100 01        		.byte	0x1
 5813 1101 55        		.byte	0x55
 5814 1102 7200 0000 		.long	0x72
 5815 1106 05        		.byte	0x5
 5816 1107 03        		.byte	0x3
 5817 1108 0000 0000 		.long	_step
 5818 110c 42        		.uleb128 0x42
 5819 110d 0000 0000 		.long	.LASF300
 5820 1111 01        		.byte	0x1
 5821 1112 56        		.byte	0x56
 5822 1113 7200 0000 		.long	0x72
 5823 1117 05        		.byte	0x5
 5824 1118 03        		.byte	0x3
 5825 1119 0000 0000 		.long	_stepAfterLayerSave
 5826 111d 42        		.uleb128 0x42
 5827 111e 0000 0000 		.long	.LASF301
 5828 1122 01        		.byte	0x1
 5829 1123 57        		.byte	0x57
 5830 1124 7200 0000 		.long	0x72
 5831 1128 05        		.byte	0x5
 5832 1129 03        		.byte	0x3
 5833 112a 0000 0000 		.long	_wait
 5834 112e 42        		.uleb128 0x42
 5835 112f 0000 0000 		.long	.LASF302
 5836 1133 01        		.byte	0x1
 5837 1134 58        		.byte	0x58
 5838 1135 7200 0000 		.long	0x72
 5839 1139 05        		.byte	0x5
 5840 113a 03        		.byte	0x3
 5841 113b 0000 0000 		.long	_col
 5842 113f 42        		.uleb128 0x42
 5843 1140 0000 0000 		.long	.LASF303
 5844 1144 01        		.byte	0x1
 5845 1145 58        		.byte	0x58
 5846 1146 7200 0000 		.long	0x72
GAS LISTING C:\Users\ADMINI~1\AppData\Local\Temp/ccnPzUe6.s 			page 106


 5847 114a 05        		.byte	0x5
 5848 114b 03        		.byte	0x3
 5849 114c 0000 0000 		.long	_row
 5850 1150 37        		.uleb128 0x37
 5851 1151 7200 0000 		.long	0x72
 5852 1155 6011 0000 		.long	0x1160
 5853 1159 38        		.uleb128 0x38
 5854 115a 4E0A 0000 		.long	0xa4e
 5855 115e 02        		.byte	0x2
 5856 115f 00        		.byte	0x0
 5857 1160 42        		.uleb128 0x42
 5858 1161 0000 0000 		.long	.LASF304
 5859 1165 01        		.byte	0x1
 5860 1166 59        		.byte	0x59
 5861 1167 5011 0000 		.long	0x1150
 5862 116b 05        		.byte	0x5
 5863 116c 03        		.byte	0x3
 5864 116d 0000 0000 		.long	_buffer
 5865 1171 42        		.uleb128 0x42
 5866 1172 0000 0000 		.long	.LASF305
 5867 1176 01        		.byte	0x1
 5868 1177 5A        		.byte	0x5a
 5869 1178 7200 0000 		.long	0x72
 5870 117c 05        		.byte	0x5
 5871 117d 03        		.byte	0x3
 5872 117e 0000 0000 		.long	_bufferIndex
 5873 1182 42        		.uleb128 0x42
 5874 1183 0000 0000 		.long	.LASF306
 5875 1187 01        		.byte	0x1
 5876 1188 5B        		.byte	0x5b
 5877 1189 6B00 0000 		.long	0x6b
 5878 118d 05        		.byte	0x5
 5879 118e 03        		.byte	0x3
 5880 118f 0000 0000 		.long	_editCount
 5881 1193 42        		.uleb128 0x42
 5882 1194 0000 0000 		.long	.LASF307
 5883 1198 01        		.byte	0x1
 5884 1199 5C        		.byte	0x5c
 5885 119a 7200 0000 		.long	0x72
 5886 119e 05        		.byte	0x5
 5887 119f 03        		.byte	0x3
 5888 11a0 0000 0000 		.long	_isWorkingForEmpty
 5889 11a4 42        		.uleb128 0x42
 5890 11a5 0000 0000 		.long	.LASF308
 5891 11a9 01        		.byte	0x1
 5892 11aa 60        		.byte	0x60
 5893 11ab 7200 0000 		.long	0x72
 5894 11af 05        		.byte	0x5
 5895 11b0 03        		.byte	0x3
 5896 11b1 0000 0000 		.long	_currentLayer
 5897 11b5 42        		.uleb128 0x42
 5898 11b6 0000 0000 		.long	.LASF309
 5899 11ba 01        		.byte	0x1
 5900 11bb 61        		.byte	0x61
 5901 11bc 7200 0000 		.long	0x72
 5902 11c0 05        		.byte	0x5
 5903 11c1 03        		.byte	0x3
GAS LISTING C:\Users\ADMINI~1\AppData\Local\Temp/ccnPzUe6.s 			page 107


 5904 11c2 0000 0000 		.long	_currentLayerAfter
 5905 11c6 37        		.uleb128 0x37
 5906 11c7 7200 0000 		.long	0x72
 5907 11cb D611 0000 		.long	0x11d6
 5908 11cf 38        		.uleb128 0x38
 5909 11d0 4E0A 0000 		.long	0xa4e
 5910 11d4 0A        		.byte	0xa
 5911 11d5 00        		.byte	0x0
 5912 11d6 42        		.uleb128 0x42
 5913 11d7 0000 0000 		.long	.LASF310
 5914 11db 01        		.byte	0x1
 5915 11dc 64        		.byte	0x64
 5916 11dd C611 0000 		.long	0x11c6
 5917 11e1 05        		.byte	0x5
 5918 11e2 03        		.byte	0x3
 5919 11e3 0000 0000 		.long	usingKeys
 5920 11e7 33        		.uleb128 0x33
 5921 11e8 0000 0000 		.long	.LASF311
 5922 11ec 01        		.byte	0x1
 5923 11ed A902      		.word	0x2a9
 5924 11ef 7200 0000 		.long	0x72
 5925 11f3 05        		.byte	0x5
 5926 11f4 03        		.byte	0x3
 5927 11f5 0000 0000 		.long	_macroDownCount
 5928 11f9 37        		.uleb128 0x37
 5929 11fa 2B01 0000 		.long	0x12b
 5930 11fe 0412 0000 		.long	0x1204
 5931 1202 43        		.uleb128 0x43
 5932 1203 00        		.byte	0x0
 5933 1204 44        		.uleb128 0x44
 5934 1205 0000 0000 		.long	.LASF312
 5935 1209 05        		.byte	0x5
 5936 120a 9501      		.word	0x195
 5937 120c F911 0000 		.long	0x11f9
 5938 1210 01        		.byte	0x1
 5939 1211 01        		.byte	0x1
 5940 1212 45        		.uleb128 0x45
 5941 1213 0000 0000 		.long	.LASF313
 5942 1217 09        		.byte	0x9
 5943 1218 40        		.byte	0x40
 5944 1219 7200 0000 		.long	0x72
 5945 121d 01        		.byte	0x1
 5946 121e 01        		.byte	0x1
 5947 121f 37        		.uleb128 0x37
 5948 1220 6400 0000 		.long	0x64
 5949 1224 2F12 0000 		.long	0x122f
 5950 1228 38        		.uleb128 0x38
 5951 1229 4E0A 0000 		.long	0xa4e
 5952 122d 0B        		.byte	0xb
 5953 122e 00        		.byte	0x0
 5954 122f 46        		.uleb128 0x46
 5955 1230 0000 0000 		.long	.LASF314
 5956 1234 01        		.byte	0x1
 5957 1235 1A        		.byte	0x1a
 5958 1236 4112 0000 		.long	0x1241
 5959 123a 01        		.byte	0x1
 5960 123b 05        		.byte	0x5
GAS LISTING C:\Users\ADMINI~1\AppData\Local\Temp/ccnPzUe6.s 			page 108


 5961 123c 03        		.byte	0x3
 5962 123d 0000 0000 		.long	str_select_mode
 5963 1241 36        		.uleb128 0x36
 5964 1242 1F12 0000 		.long	0x121f
 5965 1246 37        		.uleb128 0x37
 5966 1247 6400 0000 		.long	0x64
 5967 124b 5612 0000 		.long	0x1256
 5968 124f 38        		.uleb128 0x38
 5969 1250 4E0A 0000 		.long	0xa4e
 5970 1254 0D        		.byte	0xd
 5971 1255 00        		.byte	0x0
 5972 1256 46        		.uleb128 0x46
 5973 1257 0000 0000 		.long	.LASF315
 5974 125b 01        		.byte	0x1
 5975 125c 1B        		.byte	0x1b
 5976 125d 6812 0000 		.long	0x1268
 5977 1261 01        		.byte	0x1
 5978 1262 05        		.byte	0x5
 5979 1263 03        		.byte	0x3
 5980 1264 0000 0000 		.long	str_select_mode1
 5981 1268 36        		.uleb128 0x36
 5982 1269 4612 0000 		.long	0x1246
 5983 126d 37        		.uleb128 0x37
 5984 126e 6400 0000 		.long	0x64
 5985 1272 7D12 0000 		.long	0x127d
 5986 1276 38        		.uleb128 0x38
 5987 1277 4E0A 0000 		.long	0xa4e
 5988 127b 07        		.byte	0x7
 5989 127c 00        		.byte	0x0
 5990 127d 46        		.uleb128 0x46
 5991 127e 0000 0000 		.long	.LASF316
 5992 1282 01        		.byte	0x1
 5993 1283 1C        		.byte	0x1c
 5994 1284 8F12 0000 		.long	0x128f
 5995 1288 01        		.byte	0x1
 5996 1289 05        		.byte	0x5
 5997 128a 03        		.byte	0x3
 5998 128b 0000 0000 		.long	str_select_mode2
 5999 128f 36        		.uleb128 0x36
 6000 1290 6D12 0000 		.long	0x126d
 6001 1294 37        		.uleb128 0x37
 6002 1295 6400 0000 		.long	0x64
 6003 1299 A412 0000 		.long	0x12a4
 6004 129d 38        		.uleb128 0x38
 6005 129e 4E0A 0000 		.long	0xa4e
 6006 12a2 06        		.byte	0x6
 6007 12a3 00        		.byte	0x0
 6008 12a4 46        		.uleb128 0x46
 6009 12a5 0000 0000 		.long	.LASF317
 6010 12a9 01        		.byte	0x1
 6011 12aa 1D        		.byte	0x1d
 6012 12ab B612 0000 		.long	0x12b6
 6013 12af 01        		.byte	0x1
 6014 12b0 05        		.byte	0x5
 6015 12b1 03        		.byte	0x3
 6016 12b2 0000 0000 		.long	str_select_mode3
 6017 12b6 36        		.uleb128 0x36
GAS LISTING C:\Users\ADMINI~1\AppData\Local\Temp/ccnPzUe6.s 			page 109


 6018 12b7 9412 0000 		.long	0x1294
 6019 12bb 46        		.uleb128 0x46
 6020 12bc 0000 0000 		.long	.LASF318
 6021 12c0 01        		.byte	0x1
 6022 12c1 1E        		.byte	0x1e
 6023 12c2 CD12 0000 		.long	0x12cd
 6024 12c6 01        		.byte	0x1
 6025 12c7 05        		.byte	0x5
 6026 12c8 03        		.byte	0x3
 6027 12c9 0000 0000 		.long	str_select_mode4
 6028 12cd 36        		.uleb128 0x36
 6029 12ce 4612 0000 		.long	0x1246
 6030 12d2 37        		.uleb128 0x37
 6031 12d3 6400 0000 		.long	0x64
 6032 12d7 E212 0000 		.long	0x12e2
 6033 12db 38        		.uleb128 0x38
 6034 12dc 4E0A 0000 		.long	0xa4e
 6035 12e0 09        		.byte	0x9
 6036 12e1 00        		.byte	0x0
 6037 12e2 46        		.uleb128 0x46
 6038 12e3 0000 0000 		.long	.LASF319
 6039 12e7 01        		.byte	0x1
 6040 12e8 1F        		.byte	0x1f
 6041 12e9 F412 0000 		.long	0x12f4
 6042 12ed 01        		.byte	0x1
 6043 12ee 05        		.byte	0x5
 6044 12ef 03        		.byte	0x3
 6045 12f0 0000 0000 		.long	str_exit
 6046 12f4 36        		.uleb128 0x36
 6047 12f5 D212 0000 		.long	0x12d2
 6048 12f9 37        		.uleb128 0x37
 6049 12fa 6400 0000 		.long	0x64
 6050 12fe 0913 0000 		.long	0x1309
 6051 1302 38        		.uleb128 0x38
 6052 1303 4E0A 0000 		.long	0xa4e
 6053 1307 12        		.byte	0x12
 6054 1308 00        		.byte	0x0
 6055 1309 46        		.uleb128 0x46
 6056 130a 0000 0000 		.long	.LASF320
 6057 130e 01        		.byte	0x1
 6058 130f 20        		.byte	0x20
 6059 1310 1B13 0000 		.long	0x131b
 6060 1314 01        		.byte	0x1
 6061 1315 05        		.byte	0x5
 6062 1316 03        		.byte	0x3
 6063 1317 0000 0000 		.long	str_boot_mapper
 6064 131b 36        		.uleb128 0x36
 6065 131c F912 0000 		.long	0x12f9
 6066 1320 37        		.uleb128 0x37
 6067 1321 6400 0000 		.long	0x64
 6068 1325 3013 0000 		.long	0x1330
 6069 1329 38        		.uleb128 0x38
 6070 132a 4E0A 0000 		.long	0xa4e
 6071 132e 05        		.byte	0x5
 6072 132f 00        		.byte	0x0
 6073 1330 46        		.uleb128 0x46
 6074 1331 0000 0000 		.long	.LASF321
GAS LISTING C:\Users\ADMINI~1\AppData\Local\Temp/ccnPzUe6.s 			page 110


 6075 1335 01        		.byte	0x1
 6076 1336 22        		.byte	0x22
 6077 1337 4213 0000 		.long	0x1342
 6078 133b 01        		.byte	0x1
 6079 133c 05        		.byte	0x5
 6080 133d 03        		.byte	0x3
 6081 133e 0000 0000 		.long	str_macro_message
 6082 1342 36        		.uleb128 0x36
 6083 1343 2013 0000 		.long	0x1320
 6084 1347 37        		.uleb128 0x37
 6085 1348 6400 0000 		.long	0x64
 6086 134c 5713 0000 		.long	0x1357
 6087 1350 38        		.uleb128 0x38
 6088 1351 4E0A 0000 		.long	0xa4e
 6089 1355 14        		.byte	0x14
 6090 1356 00        		.byte	0x0
 6091 1357 46        		.uleb128 0x46
 6092 1358 0000 0000 		.long	.LASF322
 6093 135c 01        		.byte	0x1
 6094 135d 23        		.byte	0x23
 6095 135e 6913 0000 		.long	0x1369
 6096 1362 01        		.byte	0x1
 6097 1363 05        		.byte	0x5
 6098 1364 03        		.byte	0x3
 6099 1365 0000 0000 		.long	str_macro_1
 6100 1369 36        		.uleb128 0x36
 6101 136a 4713 0000 		.long	0x1347
 6102 136e 46        		.uleb128 0x46
 6103 136f 0000 0000 		.long	.LASF323
 6104 1373 01        		.byte	0x1
 6105 1374 24        		.byte	0x24
 6106 1375 8013 0000 		.long	0x1380
 6107 1379 01        		.byte	0x1
 6108 137a 05        		.byte	0x5
 6109 137b 03        		.byte	0x3
 6110 137c 0000 0000 		.long	str_macro_2
 6111 1380 36        		.uleb128 0x36
 6112 1381 9412 0000 		.long	0x1294
 6113 1385 46        		.uleb128 0x46
 6114 1386 0000 0000 		.long	.LASF324
 6115 138a 01        		.byte	0x1
 6116 138b 25        		.byte	0x25
 6117 138c 9713 0000 		.long	0x1397
 6118 1390 01        		.byte	0x1
 6119 1391 05        		.byte	0x5
 6120 1392 03        		.byte	0x3
 6121 1393 0000 0000 		.long	str_macro_9
 6122 1397 36        		.uleb128 0x36
 6123 1398 1F12 0000 		.long	0x121f
 6124 139c 46        		.uleb128 0x46
 6125 139d 0000 0000 		.long	.LASF325
 6126 13a1 01        		.byte	0x1
 6127 13a2 27        		.byte	0x27
 6128 13a3 AE13 0000 		.long	0x13ae
 6129 13a7 01        		.byte	0x1
 6130 13a8 05        		.byte	0x5
 6131 13a9 03        		.byte	0x3
GAS LISTING C:\Users\ADMINI~1\AppData\Local\Temp/ccnPzUe6.s 			page 111


 6132 13aa 0000 0000 		.long	str_back_6
 6133 13ae 36        		.uleb128 0x36
 6134 13af 9412 0000 		.long	0x1294
 6135 13b3 37        		.uleb128 0x37
 6136 13b4 6400 0000 		.long	0x64
 6137 13b8 C313 0000 		.long	0x13c3
 6138 13bc 38        		.uleb128 0x38
 6139 13bd 4E0A 0000 		.long	0xa4e
 6140 13c1 0A        		.byte	0xa
 6141 13c2 00        		.byte	0x0
 6142 13c3 46        		.uleb128 0x46
 6143 13c4 0000 0000 		.long	.LASF326
 6144 13c8 01        		.byte	0x1
 6145 13c9 29        		.byte	0x29
 6146 13ca D513 0000 		.long	0x13d5
 6147 13ce 01        		.byte	0x1
 6148 13cf 05        		.byte	0x5
 6149 13d0 03        		.byte	0x3
 6150 13d1 0000 0000 		.long	str_mapper_message
 6151 13d5 36        		.uleb128 0x36
 6152 13d6 B313 0000 		.long	0x13b3
 6153 13da 37        		.uleb128 0x37
 6154 13db 6400 0000 		.long	0x64
 6155 13df EA13 0000 		.long	0x13ea
 6156 13e3 38        		.uleb128 0x38
 6157 13e4 4E0A 0000 		.long	0xa4e
 6158 13e8 0E        		.byte	0xe
 6159 13e9 00        		.byte	0x0
 6160 13ea 46        		.uleb128 0x46
 6161 13eb 0000 0000 		.long	.LASF327
 6162 13ef 01        		.byte	0x1
 6163 13f0 2A        		.byte	0x2a
 6164 13f1 FC13 0000 		.long	0x13fc
 6165 13f5 01        		.byte	0x1
 6166 13f6 05        		.byte	0x5
 6167 13f7 03        		.byte	0x3
 6168 13f8 0000 0000 		.long	str_mapper_1
 6169 13fc 36        		.uleb128 0x36
 6170 13fd DA13 0000 		.long	0x13da
 6171 1401 37        		.uleb128 0x37
 6172 1402 6400 0000 		.long	0x64
 6173 1406 1114 0000 		.long	0x1411
 6174 140a 38        		.uleb128 0x38
 6175 140b 4E0A 0000 		.long	0xa4e
 6176 140f 1C        		.byte	0x1c
 6177 1410 00        		.byte	0x0
 6178 1411 46        		.uleb128 0x46
 6179 1412 0000 0000 		.long	.LASF328
 6180 1416 01        		.byte	0x1
 6181 1417 2B        		.byte	0x2b
 6182 1418 2314 0000 		.long	0x1423
 6183 141c 01        		.byte	0x1
 6184 141d 05        		.byte	0x5
 6185 141e 03        		.byte	0x3
 6186 141f 0000 0000 		.long	str_mapper_2
 6187 1423 36        		.uleb128 0x36
 6188 1424 0114 0000 		.long	0x1401
GAS LISTING C:\Users\ADMINI~1\AppData\Local\Temp/ccnPzUe6.s 			page 112


 6189 1428 37        		.uleb128 0x37
 6190 1429 6400 0000 		.long	0x64
 6191 142d 3814 0000 		.long	0x1438
 6192 1431 38        		.uleb128 0x38
 6193 1432 4E0A 0000 		.long	0xa4e
 6194 1436 0F        		.byte	0xf
 6195 1437 00        		.byte	0x0
 6196 1438 46        		.uleb128 0x46
 6197 1439 0000 0000 		.long	.LASF329
 6198 143d 01        		.byte	0x1
 6199 143e 2C        		.byte	0x2c
 6200 143f 4A14 0000 		.long	0x144a
 6201 1443 01        		.byte	0x1
 6202 1444 05        		.byte	0x5
 6203 1445 03        		.byte	0x3
 6204 1446 0000 0000 		.long	str_mapper_3
 6205 144a 36        		.uleb128 0x36
 6206 144b 2814 0000 		.long	0x1428
 6207 144f 37        		.uleb128 0x37
 6208 1450 6400 0000 		.long	0x64
 6209 1454 5F14 0000 		.long	0x145f
 6210 1458 38        		.uleb128 0x38
 6211 1459 4E0A 0000 		.long	0xa4e
 6212 145d 15        		.byte	0x15
 6213 145e 00        		.byte	0x0
 6214 145f 46        		.uleb128 0x46
 6215 1460 0000 0000 		.long	.LASF330
 6216 1464 01        		.byte	0x1
 6217 1465 2D        		.byte	0x2d
 6218 1466 7114 0000 		.long	0x1471
 6219 146a 01        		.byte	0x1
 6220 146b 05        		.byte	0x5
 6221 146c 03        		.byte	0x3
 6222 146d 0000 0000 		.long	str_mapper_4
 6223 1471 36        		.uleb128 0x36
 6224 1472 4F14 0000 		.long	0x144f
 6225 1476 37        		.uleb128 0x37
 6226 1477 6400 0000 		.long	0x64
 6227 147b 8614 0000 		.long	0x1486
 6228 147f 38        		.uleb128 0x38
 6229 1480 4E0A 0000 		.long	0xa4e
 6230 1484 22        		.byte	0x22
 6231 1485 00        		.byte	0x0
 6232 1486 46        		.uleb128 0x46
 6233 1487 0000 0000 		.long	.LASF331
 6234 148b 01        		.byte	0x1
 6235 148c 2E        		.byte	0x2e
 6236 148d 9814 0000 		.long	0x1498
 6237 1491 01        		.byte	0x1
 6238 1492 05        		.byte	0x5
 6239 1493 03        		.byte	0x3
 6240 1494 0000 0000 		.long	str_mapper_9
 6241 1498 36        		.uleb128 0x36
 6242 1499 7614 0000 		.long	0x1476
 6243 149d 46        		.uleb128 0x46
 6244 149e 0000 0000 		.long	.LASF332
 6245 14a2 01        		.byte	0x1
GAS LISTING C:\Users\ADMINI~1\AppData\Local\Temp/ccnPzUe6.s 			page 113


 6246 14a3 30        		.byte	0x30
 6247 14a4 AF14 0000 		.long	0x14af
 6248 14a8 01        		.byte	0x1
 6249 14a9 05        		.byte	0x5
 6250 14aa 03        		.byte	0x3
 6251 14ab 0000 0000 		.long	str_prepare_message
 6252 14af 36        		.uleb128 0x36
 6253 14b0 6D12 0000 		.long	0x126d
 6254 14b4 37        		.uleb128 0x37
 6255 14b5 6400 0000 		.long	0x64
 6256 14b9 C414 0000 		.long	0x14c4
 6257 14bd 38        		.uleb128 0x38
 6258 14be 4E0A 0000 		.long	0xa4e
 6259 14c2 31        		.byte	0x31
 6260 14c3 00        		.byte	0x0
 6261 14c4 46        		.uleb128 0x46
 6262 14c5 0000 0000 		.long	.LASF333
 6263 14c9 01        		.byte	0x1
 6264 14ca 31        		.byte	0x31
 6265 14cb D614 0000 		.long	0x14d6
 6266 14cf 01        		.byte	0x1
 6267 14d0 05        		.byte	0x5
 6268 14d1 03        		.byte	0x3
 6269 14d2 0000 0000 		.long	str_choose_layer
 6270 14d6 36        		.uleb128 0x36
 6271 14d7 B414 0000 		.long	0x14b4
 6272 14db 37        		.uleb128 0x37
 6273 14dc 6400 0000 		.long	0x64
 6274 14e0 EB14 0000 		.long	0x14eb
 6275 14e4 38        		.uleb128 0x38
 6276 14e5 4E0A 0000 		.long	0xa4e
 6277 14e9 1E        		.byte	0x1e
 6278 14ea 00        		.byte	0x0
 6279 14eb 46        		.uleb128 0x46
 6280 14ec 0000 0000 		.long	.LASF334
 6281 14f0 01        		.byte	0x1
 6282 14f1 32        		.byte	0x32
 6283 14f2 FD14 0000 		.long	0x14fd
 6284 14f6 01        		.byte	0x1
 6285 14f7 05        		.byte	0x5
 6286 14f8 03        		.byte	0x3
 6287 14f9 0000 0000 		.long	str_choose_key
 6288 14fd 36        		.uleb128 0x36
 6289 14fe DB14 0000 		.long	0x14db
 6290 1502 37        		.uleb128 0x37
 6291 1503 6400 0000 		.long	0x64
 6292 1507 1215 0000 		.long	0x1512
 6293 150b 38        		.uleb128 0x38
 6294 150c 4E0A 0000 		.long	0xa4e
 6295 1510 21        		.byte	0x21
 6296 1511 00        		.byte	0x0
 6297 1512 46        		.uleb128 0x46
 6298 1513 0000 0000 		.long	.LASF335
 6299 1517 01        		.byte	0x1
 6300 1518 33        		.byte	0x33
 6301 1519 2415 0000 		.long	0x1524
 6302 151d 01        		.byte	0x1
GAS LISTING C:\Users\ADMINI~1\AppData\Local\Temp/ccnPzUe6.s 			page 114


 6303 151e 05        		.byte	0x5
 6304 151f 03        		.byte	0x3
 6305 1520 0000 0000 		.long	str_input_keycode
 6306 1524 36        		.uleb128 0x36
 6307 1525 0215 0000 		.long	0x1502
 6308 1529 37        		.uleb128 0x37
 6309 152a 6400 0000 		.long	0x64
 6310 152e 3915 0000 		.long	0x1539
 6311 1532 38        		.uleb128 0x38
 6312 1533 4E0A 0000 		.long	0xa4e
 6313 1537 17        		.byte	0x17
 6314 1538 00        		.byte	0x0
 6315 1539 46        		.uleb128 0x46
 6316 153a 0000 0000 		.long	.LASF336
 6317 153e 01        		.byte	0x1
 6318 153f 34        		.byte	0x34
 6319 1540 4B15 0000 		.long	0x154b
 6320 1544 01        		.byte	0x1
 6321 1545 05        		.byte	0x5
 6322 1546 03        		.byte	0x3
 6323 1547 0000 0000 		.long	str_save_end_mapping
 6324 154b 36        		.uleb128 0x36
 6325 154c 2915 0000 		.long	0x1529
 6326 1550 37        		.uleb128 0x37
 6327 1551 6400 0000 		.long	0x64
 6328 1555 6015 0000 		.long	0x1560
 6329 1559 38        		.uleb128 0x38
 6330 155a 4E0A 0000 		.long	0xa4e
 6331 155e 23        		.byte	0x23
 6332 155f 00        		.byte	0x0
 6333 1560 46        		.uleb128 0x46
 6334 1561 0000 0000 		.long	.LASF337
 6335 1565 01        		.byte	0x1
 6336 1566 35        		.byte	0x35
 6337 1567 7215 0000 		.long	0x1572
 6338 156b 01        		.byte	0x1
 6339 156c 05        		.byte	0x5
 6340 156d 03        		.byte	0x3
 6341 156e 0000 0000 		.long	str_cancel_mapping
 6342 1572 36        		.uleb128 0x36
 6343 1573 5015 0000 		.long	0x1550
 6344 1577 46        		.uleb128 0x46
 6345 1578 0000 0000 		.long	.LASF338
 6346 157c 01        		.byte	0x1
 6347 157d 36        		.byte	0x36
 6348 157e 8915 0000 		.long	0x1589
 6349 1582 01        		.byte	0x1
 6350 1583 05        		.byte	0x5
 6351 1584 03        		.byte	0x3
 6352 1585 0000 0000 		.long	str_reset_mapping
 6353 1589 36        		.uleb128 0x36
 6354 158a DB14 0000 		.long	0x14db
 6355 158e 37        		.uleb128 0x37
 6356 158f 6400 0000 		.long	0x64
 6357 1593 9E15 0000 		.long	0x159e
 6358 1597 38        		.uleb128 0x38
 6359 1598 4E0A 0000 		.long	0xa4e
GAS LISTING C:\Users\ADMINI~1\AppData\Local\Temp/ccnPzUe6.s 			page 115


 6360 159c 16        		.byte	0x16
 6361 159d 00        		.byte	0x0
 6362 159e 46        		.uleb128 0x46
 6363 159f 0000 0000 		.long	.LASF339
 6364 15a3 01        		.byte	0x1
 6365 15a4 37        		.byte	0x37
 6366 15a5 B015 0000 		.long	0x15b0
 6367 15a9 01        		.byte	0x1
 6368 15aa 05        		.byte	0x5
 6369 15ab 03        		.byte	0x3
 6370 15ac 0000 0000 		.long	str_input_command
 6371 15b0 36        		.uleb128 0x36
 6372 15b1 8E15 0000 		.long	0x158e
 6373 15b5 46        		.uleb128 0x46
 6374 15b6 0000 0000 		.long	.LASF340
 6375 15ba 01        		.byte	0x1
 6376 15bb 38        		.byte	0x38
 6377 15bc C715 0000 		.long	0x15c7
 6378 15c0 01        		.byte	0x1
 6379 15c1 05        		.byte	0x5
 6380 15c2 03        		.byte	0x3
 6381 15c3 0000 0000 		.long	str_nothing
 6382 15c7 36        		.uleb128 0x36
 6383 15c8 6D12 0000 		.long	0x126d
 6384 15cc 46        		.uleb128 0x46
 6385 15cd 0000 0000 		.long	.LASF341
 6386 15d1 01        		.byte	0x1
 6387 15d2 39        		.byte	0x39
 6388 15d3 DE15 0000 		.long	0x15de
 6389 15d7 01        		.byte	0x1
 6390 15d8 05        		.byte	0x5
 6391 15d9 03        		.byte	0x3
 6392 15da 0000 0000 		.long	str_save_layer
 6393 15de 36        		.uleb128 0x36
 6394 15df F912 0000 		.long	0x12f9
 6395 15e3 46        		.uleb128 0x46
 6396 15e4 0000 0000 		.long	.LASF342
 6397 15e8 01        		.byte	0x1
 6398 15e9 3A        		.byte	0x3a
 6399 15ea F515 0000 		.long	0x15f5
 6400 15ee 01        		.byte	0x1
 6401 15ef 05        		.byte	0x5
 6402 15f0 03        		.byte	0x3
 6403 15f1 0000 0000 		.long	str_load_layer
 6404 15f5 36        		.uleb128 0x36
 6405 15f6 F912 0000 		.long	0x12f9
 6406 15fa 46        		.uleb128 0x46
 6407 15fb 0000 0000 		.long	.LASF343
 6408 15ff 01        		.byte	0x1
 6409 1600 3B        		.byte	0x3b
 6410 1601 0C16 0000 		.long	0x160c
 6411 1605 01        		.byte	0x1
 6412 1606 05        		.byte	0x5
 6413 1607 03        		.byte	0x3
 6414 1608 0000 0000 		.long	str_saving
 6415 160c 36        		.uleb128 0x36
 6416 160d D212 0000 		.long	0x12d2
GAS LISTING C:\Users\ADMINI~1\AppData\Local\Temp/ccnPzUe6.s 			page 116


 6417 1611 46        		.uleb128 0x46
 6418 1612 0000 0000 		.long	.LASF344
 6419 1616 01        		.byte	0x1
 6420 1617 3C        		.byte	0x3c
 6421 1618 2316 0000 		.long	0x1623
 6422 161c 01        		.byte	0x1
 6423 161d 05        		.byte	0x5
 6424 161e 03        		.byte	0x3
 6425 161f 0000 0000 		.long	str_col_row
 6426 1623 36        		.uleb128 0x36
 6427 1624 1F12 0000 		.long	0x121f
 6428 1628 37        		.uleb128 0x37
 6429 1629 6400 0000 		.long	0x64
 6430 162d 3816 0000 		.long	0x1638
 6431 1631 38        		.uleb128 0x38
 6432 1632 4E0A 0000 		.long	0xa4e
 6433 1636 1D        		.byte	0x1d
 6434 1637 00        		.byte	0x0
 6435 1638 46        		.uleb128 0x46
 6436 1639 0000 0000 		.long	.LASF345
 6437 163d 01        		.byte	0x1
 6438 163e 3D        		.byte	0x3d
 6439 163f 4A16 0000 		.long	0x164a
 6440 1643 01        		.byte	0x1
 6441 1644 05        		.byte	0x5
 6442 1645 03        		.byte	0x3
 6443 1646 0000 0000 		.long	str_invalid_keycode
 6444 164a 36        		.uleb128 0x36
 6445 164b 2816 0000 		.long	0x1628
 6446 164f 37        		.uleb128 0x37
 6447 1650 6400 0000 		.long	0x64
 6448 1654 5F16 0000 		.long	0x165f
 6449 1658 38        		.uleb128 0x38
 6450 1659 4E0A 0000 		.long	0xa4e
 6451 165d 2C        		.byte	0x2c
 6452 165e 00        		.byte	0x0
 6453 165f 46        		.uleb128 0x46
 6454 1660 0000 0000 		.long	.LASF346
 6455 1664 01        		.byte	0x1
 6456 1665 3F        		.byte	0x3f
 6457 1666 7116 0000 		.long	0x1671
 6458 166a 01        		.byte	0x1
 6459 166b 05        		.byte	0x5
 6460 166c 03        		.byte	0x3
 6461 166d 0000 0000 		.long	str_select_number
 6462 1671 36        		.uleb128 0x36
 6463 1672 4F16 0000 		.long	0x164f
 6464 1676 37        		.uleb128 0x37
 6465 1677 6400 0000 		.long	0x64
 6466 167b 8616 0000 		.long	0x1686
 6467 167f 38        		.uleb128 0x38
 6468 1680 4E0A 0000 		.long	0xa4e
 6469 1684 1A        		.byte	0x1a
 6470 1685 00        		.byte	0x0
 6471 1686 46        		.uleb128 0x46
 6472 1687 0000 0000 		.long	.LASF347
 6473 168b 01        		.byte	0x1
GAS LISTING C:\Users\ADMINI~1\AppData\Local\Temp/ccnPzUe6.s 			page 117


 6474 168c 40        		.byte	0x40
 6475 168d 9816 0000 		.long	0x1698
 6476 1691 01        		.byte	0x1
 6477 1692 05        		.byte	0x5
 6478 1693 03        		.byte	0x3
 6479 1694 0000 0000 		.long	str_exit_macro
 6480 1698 36        		.uleb128 0x36
 6481 1699 7616 0000 		.long	0x1676
 6482 169d 37        		.uleb128 0x37
 6483 169e 6400 0000 		.long	0x64
 6484 16a2 AD16 0000 		.long	0x16ad
 6485 16a6 38        		.uleb128 0x38
 6486 16a7 4E0A 0000 		.long	0xa4e
 6487 16ab 36        		.byte	0x36
 6488 16ac 00        		.byte	0x0
 6489 16ad 46        		.uleb128 0x46
 6490 16ae 0000 0000 		.long	.LASF348
 6491 16b2 01        		.byte	0x1
 6492 16b3 41        		.byte	0x41
 6493 16b4 BF16 0000 		.long	0x16bf
 6494 16b8 01        		.byte	0x1
 6495 16b9 05        		.byte	0x5
 6496 16ba 03        		.byte	0x3
 6497 16bb 0000 0000 		.long	str_input_macro
 6498 16bf 36        		.uleb128 0x36
 6499 16c0 9D16 0000 		.long	0x169d
 6500 16c4 37        		.uleb128 0x37
 6501 16c5 6400 0000 		.long	0x64
 6502 16c9 D416 0000 		.long	0x16d4
 6503 16cd 38        		.uleb128 0x38
 6504 16ce 4E0A 0000 		.long	0xa4e
 6505 16d2 1B        		.byte	0x1b
 6506 16d3 00        		.byte	0x0
 6507 16d4 46        		.uleb128 0x46
 6508 16d5 0000 0000 		.long	.LASF349
 6509 16d9 01        		.byte	0x1
 6510 16da 42        		.byte	0x42
 6511 16db E616 0000 		.long	0x16e6
 6512 16df 01        		.byte	0x1
 6513 16e0 05        		.byte	0x5
 6514 16e1 03        		.byte	0x3
 6515 16e2 0000 0000 		.long	str_invalid_macro_number
 6516 16e6 36        		.uleb128 0x36
 6517 16e7 C416 0000 		.long	0x16c4
 6518 16eb 37        		.uleb128 0x37
 6519 16ec 6400 0000 		.long	0x64
 6520 16f0 FB16 0000 		.long	0x16fb
 6521 16f4 38        		.uleb128 0x38
 6522 16f5 4E0A 0000 		.long	0xa4e
 6523 16f9 08        		.byte	0x8
 6524 16fa 00        		.byte	0x0
 6525 16fb 46        		.uleb128 0x46
 6526 16fc 0000 0000 		.long	.LASF350
 6527 1700 01        		.byte	0x1
 6528 1701 43        		.byte	0x43
 6529 1702 0D17 0000 		.long	0x170d
 6530 1706 01        		.byte	0x1
GAS LISTING C:\Users\ADMINI~1\AppData\Local\Temp/ccnPzUe6.s 			page 118


 6531 1707 05        		.byte	0x5
 6532 1708 03        		.byte	0x3
 6533 1709 0000 0000 		.long	str_clear_all_macro
 6534 170d 36        		.uleb128 0x36
 6535 170e EB16 0000 		.long	0x16eb
 6536 1712 46        		.uleb128 0x46
 6537 1713 0000 0000 		.long	.LASF351
 6538 1717 01        		.byte	0x1
 6539 1718 4C        		.byte	0x4c
 6540 1719 7200 0000 		.long	0x72
 6541 171d 01        		.byte	0x1
 6542 171e 05        		.byte	0x5
 6543 171f 03        		.byte	0x3
 6544 1720 0000 0000 		.long	_macroIndex
 6545 1724 46        		.uleb128 0x46
 6546 1725 0000 0000 		.long	.LASF352
 6547 1729 01        		.byte	0x1
 6548 172a 4D        		.byte	0x4d
 6549 172b 7200 0000 		.long	0x72
 6550 172f 01        		.byte	0x1
 6551 1730 05        		.byte	0x5
 6552 1731 03        		.byte	0x3
 6553 1732 0000 0000 		.long	_macroBufferIndex
 6554 1736 37        		.uleb128 0x37
 6555 1737 7200 0000 		.long	0x72
 6556 173b 4617 0000 		.long	0x1746
 6557 173f 38        		.uleb128 0x38
 6558 1740 4E0A 0000 		.long	0xa4e
 6559 1744 17        		.byte	0x17
 6560 1745 00        		.byte	0x0
 6561 1746 46        		.uleb128 0x46
 6562 1747 0000 0000 		.long	.LASF353
 6563 174b 01        		.byte	0x1
 6564 174c 4E        		.byte	0x4e
 6565 174d 3617 0000 		.long	0x1736
 6566 1751 01        		.byte	0x1
 6567 1752 05        		.byte	0x5
 6568 1753 03        		.byte	0x3
 6569 1754 0000 0000 		.long	_macroPressedBuffer
 6570 1758 46        		.uleb128 0x46
 6571 1759 0000 0000 		.long	.LASF354
 6572 175d 01        		.byte	0x1
 6573 175e 4F        		.byte	0x4f
 6574 175f 410C 0000 		.long	0xc41
 6575 1763 01        		.byte	0x1
 6576 1764 05        		.byte	0x5
 6577 1765 03        		.byte	0x3
 6578 1766 0000 0000 		.long	_macroInputBuffer
 6579 176a 46        		.uleb128 0x46
 6580 176b 0000 0000 		.long	.LASF355
 6581 176f 01        		.byte	0x1
 6582 1770 50        		.byte	0x50
 6583 1771 6B00 0000 		.long	0x6b
 6584 1775 01        		.byte	0x1
 6585 1776 05        		.byte	0x5
 6586 1777 03        		.byte	0x3
 6587 1778 0000 0000 		.long	_pressedEscapeKeyCount
GAS LISTING C:\Users\ADMINI~1\AppData\Local\Temp/ccnPzUe6.s 			page 119


 6588 177c 46        		.uleb128 0x46
 6589 177d 0000 0000 		.long	.LASF356
 6590 1781 01        		.byte	0x1
 6591 1782 51        		.byte	0x51
 6592 1783 7200 0000 		.long	0x72
 6593 1787 01        		.byte	0x1
 6594 1788 05        		.byte	0x5
 6595 1789 03        		.byte	0x3
 6596 178a 0000 0000 		.long	_isPressedEscapeKey
 6597 178e 46        		.uleb128 0x46
 6598 178f 0000 0000 		.long	.LASF357
 6599 1793 01        		.byte	0x1
 6600 1794 52        		.byte	0x52
 6601 1795 7200 0000 		.long	0x72
 6602 1799 01        		.byte	0x1
 6603 179a 05        		.byte	0x5
 6604 179b 03        		.byte	0x3
 6605 179c 0000 0000 		.long	_isTiredEscapeKey
 6606 17a0 37        		.uleb128 0x37
 6607 17a1 7200 0000 		.long	0x72
 6608 17a5 B617 0000 		.long	0x17b6
 6609 17a9 38        		.uleb128 0x38
 6610 17aa 4E0A 0000 		.long	0xa4e
 6611 17ae 10        		.byte	0x10
 6612 17af 38        		.uleb128 0x38
 6613 17b0 4E0A 0000 		.long	0xa4e
 6614 17b4 07        		.byte	0x7
 6615 17b5 00        		.byte	0x0
 6616 17b6 46        		.uleb128 0x46
 6617 17b7 0000 0000 		.long	.LASF358
 6618 17bb 01        		.byte	0x1
 6619 17bc 5E        		.byte	0x5e
 6620 17bd A017 0000 		.long	0x17a0
 6621 17c1 01        		.byte	0x1
 6622 17c2 05        		.byte	0x5
 6623 17c3 03        		.byte	0x3
 6624 17c4 0000 0000 		.long	_newKeyMap
 6625 17c8 00        		.byte	0x0
 6626               		.section	.debug_abbrev
 6627 0000 01        		.uleb128 0x1
 6628 0001 11        		.uleb128 0x11
 6629 0002 01        		.byte	0x1
 6630 0003 25        		.uleb128 0x25
 6631 0004 0E        		.uleb128 0xe
 6632 0005 13        		.uleb128 0x13
 6633 0006 0B        		.uleb128 0xb
 6634 0007 03        		.uleb128 0x3
 6635 0008 0E        		.uleb128 0xe
 6636 0009 1B        		.uleb128 0x1b
 6637 000a 0E        		.uleb128 0xe
 6638 000b 11        		.uleb128 0x11
 6639 000c 01        		.uleb128 0x1
 6640 000d 12        		.uleb128 0x12
 6641 000e 01        		.uleb128 0x1
 6642 000f 10        		.uleb128 0x10
 6643 0010 06        		.uleb128 0x6
 6644 0011 00        		.byte	0x0
GAS LISTING C:\Users\ADMINI~1\AppData\Local\Temp/ccnPzUe6.s 			page 120


 6645 0012 00        		.byte	0x0
 6646 0013 02        		.uleb128 0x2
 6647 0014 24        		.uleb128 0x24
 6648 0015 00        		.byte	0x0
 6649 0016 0B        		.uleb128 0xb
 6650 0017 0B        		.uleb128 0xb
 6651 0018 3E        		.uleb128 0x3e
 6652 0019 0B        		.uleb128 0xb
 6653 001a 03        		.uleb128 0x3
 6654 001b 0E        		.uleb128 0xe
 6655 001c 00        		.byte	0x0
 6656 001d 00        		.byte	0x0
 6657 001e 03        		.uleb128 0x3
 6658 001f 24        		.uleb128 0x24
 6659 0020 00        		.byte	0x0
 6660 0021 0B        		.uleb128 0xb
 6661 0022 0B        		.uleb128 0xb
 6662 0023 3E        		.uleb128 0x3e
 6663 0024 0B        		.uleb128 0xb
 6664 0025 03        		.uleb128 0x3
 6665 0026 08        		.uleb128 0x8
 6666 0027 00        		.byte	0x0
 6667 0028 00        		.byte	0x0
 6668 0029 04        		.uleb128 0x4
 6669 002a 16        		.uleb128 0x16
 6670 002b 00        		.byte	0x0
 6671 002c 03        		.uleb128 0x3
 6672 002d 0E        		.uleb128 0xe
 6673 002e 3A        		.uleb128 0x3a
 6674 002f 0B        		.uleb128 0xb
 6675 0030 3B        		.uleb128 0x3b
 6676 0031 0B        		.uleb128 0xb
 6677 0032 49        		.uleb128 0x49
 6678 0033 13        		.uleb128 0x13
 6679 0034 00        		.byte	0x0
 6680 0035 00        		.byte	0x0
 6681 0036 05        		.uleb128 0x5
 6682 0037 24        		.uleb128 0x24
 6683 0038 00        		.byte	0x0
 6684 0039 0B        		.uleb128 0xb
 6685 003a 0B        		.uleb128 0xb
 6686 003b 3E        		.uleb128 0x3e
 6687 003c 0B        		.uleb128 0xb
 6688 003d 00        		.byte	0x0
 6689 003e 00        		.byte	0x0
 6690 003f 06        		.uleb128 0x6
 6691 0040 13        		.uleb128 0x13
 6692 0041 01        		.byte	0x1
 6693 0042 03        		.uleb128 0x3
 6694 0043 0E        		.uleb128 0xe
 6695 0044 0B        		.uleb128 0xb
 6696 0045 0B        		.uleb128 0xb
 6697 0046 3A        		.uleb128 0x3a
 6698 0047 0B        		.uleb128 0xb
 6699 0048 3B        		.uleb128 0x3b
 6700 0049 0B        		.uleb128 0xb
 6701 004a 01        		.uleb128 0x1
GAS LISTING C:\Users\ADMINI~1\AppData\Local\Temp/ccnPzUe6.s 			page 121


 6702 004b 13        		.uleb128 0x13
 6703 004c 00        		.byte	0x0
 6704 004d 00        		.byte	0x0
 6705 004e 07        		.uleb128 0x7
 6706 004f 0D        		.uleb128 0xd
 6707 0050 00        		.byte	0x0
 6708 0051 03        		.uleb128 0x3
 6709 0052 08        		.uleb128 0x8
 6710 0053 3A        		.uleb128 0x3a
 6711 0054 0B        		.uleb128 0xb
 6712 0055 3B        		.uleb128 0x3b
 6713 0056 0B        		.uleb128 0xb
 6714 0057 49        		.uleb128 0x49
 6715 0058 13        		.uleb128 0x13
 6716 0059 38        		.uleb128 0x38
 6717 005a 0A        		.uleb128 0xa
 6718 005b 00        		.byte	0x0
 6719 005c 00        		.byte	0x0
 6720 005d 08        		.uleb128 0x8
 6721 005e 0D        		.uleb128 0xd
 6722 005f 00        		.byte	0x0
 6723 0060 03        		.uleb128 0x3
 6724 0061 0E        		.uleb128 0xe
 6725 0062 3A        		.uleb128 0x3a
 6726 0063 0B        		.uleb128 0xb
 6727 0064 3B        		.uleb128 0x3b
 6728 0065 0B        		.uleb128 0xb
 6729 0066 49        		.uleb128 0x49
 6730 0067 13        		.uleb128 0x13
 6731 0068 38        		.uleb128 0x38
 6732 0069 0A        		.uleb128 0xa
 6733 006a 00        		.byte	0x0
 6734 006b 00        		.byte	0x0
 6735 006c 09        		.uleb128 0x9
 6736 006d 0D        		.uleb128 0xd
 6737 006e 00        		.byte	0x0
 6738 006f 03        		.uleb128 0x3
 6739 0070 0E        		.uleb128 0xe
 6740 0071 3A        		.uleb128 0x3a
 6741 0072 0B        		.uleb128 0xb
 6742 0073 3B        		.uleb128 0x3b
 6743 0074 05        		.uleb128 0x5
 6744 0075 49        		.uleb128 0x49
 6745 0076 13        		.uleb128 0x13
 6746 0077 38        		.uleb128 0x38
 6747 0078 0A        		.uleb128 0xa
 6748 0079 00        		.byte	0x0
 6749 007a 00        		.byte	0x0
 6750 007b 0A        		.uleb128 0xa
 6751 007c 0D        		.uleb128 0xd
 6752 007d 00        		.byte	0x0
 6753 007e 03        		.uleb128 0x3
 6754 007f 08        		.uleb128 0x8
 6755 0080 3A        		.uleb128 0x3a
 6756 0081 0B        		.uleb128 0xb
 6757 0082 3B        		.uleb128 0x3b
 6758 0083 05        		.uleb128 0x5
GAS LISTING C:\Users\ADMINI~1\AppData\Local\Temp/ccnPzUe6.s 			page 122


 6759 0084 49        		.uleb128 0x49
 6760 0085 13        		.uleb128 0x13
 6761 0086 38        		.uleb128 0x38
 6762 0087 0A        		.uleb128 0xa
 6763 0088 00        		.byte	0x0
 6764 0089 00        		.byte	0x0
 6765 008a 0B        		.uleb128 0xb
 6766 008b 0F        		.uleb128 0xf
 6767 008c 00        		.byte	0x0
 6768 008d 0B        		.uleb128 0xb
 6769 008e 0B        		.uleb128 0xb
 6770 008f 49        		.uleb128 0x49
 6771 0090 13        		.uleb128 0x13
 6772 0091 00        		.byte	0x0
 6773 0092 00        		.byte	0x0
 6774 0093 0C        		.uleb128 0xc
 6775 0094 15        		.uleb128 0x15
 6776 0095 01        		.byte	0x1
 6777 0096 27        		.uleb128 0x27
 6778 0097 0C        		.uleb128 0xc
 6779 0098 49        		.uleb128 0x49
 6780 0099 13        		.uleb128 0x13
 6781 009a 01        		.uleb128 0x1
 6782 009b 13        		.uleb128 0x13
 6783 009c 00        		.byte	0x0
 6784 009d 00        		.byte	0x0
 6785 009e 0D        		.uleb128 0xd
 6786 009f 05        		.uleb128 0x5
 6787 00a0 00        		.byte	0x0
 6788 00a1 49        		.uleb128 0x49
 6789 00a2 13        		.uleb128 0x13
 6790 00a3 00        		.byte	0x0
 6791 00a4 00        		.byte	0x0
 6792 00a5 0E        		.uleb128 0xe
 6793 00a6 0F        		.uleb128 0xf
 6794 00a7 00        		.byte	0x0
 6795 00a8 0B        		.uleb128 0xb
 6796 00a9 0B        		.uleb128 0xb
 6797 00aa 00        		.byte	0x0
 6798 00ab 00        		.byte	0x0
 6799 00ac 0F        		.uleb128 0xf
 6800 00ad 04        		.uleb128 0x4
 6801 00ae 01        		.byte	0x1
 6802 00af 0B        		.uleb128 0xb
 6803 00b0 0B        		.uleb128 0xb
 6804 00b1 3A        		.uleb128 0x3a
 6805 00b2 0B        		.uleb128 0xb
 6806 00b3 3B        		.uleb128 0x3b
 6807 00b4 0B        		.uleb128 0xb
 6808 00b5 01        		.uleb128 0x1
 6809 00b6 13        		.uleb128 0x13
 6810 00b7 00        		.byte	0x0
 6811 00b8 00        		.byte	0x0
 6812 00b9 10        		.uleb128 0x10
 6813 00ba 28        		.uleb128 0x28
 6814 00bb 00        		.byte	0x0
 6815 00bc 03        		.uleb128 0x3
GAS LISTING C:\Users\ADMINI~1\AppData\Local\Temp/ccnPzUe6.s 			page 123


 6816 00bd 0E        		.uleb128 0xe
 6817 00be 1C        		.uleb128 0x1c
 6818 00bf 0D        		.uleb128 0xd
 6819 00c0 00        		.byte	0x0
 6820 00c1 00        		.byte	0x0
 6821 00c2 11        		.uleb128 0x11
 6822 00c3 13        		.uleb128 0x13
 6823 00c4 01        		.byte	0x1
 6824 00c5 0B        		.uleb128 0xb
 6825 00c6 0B        		.uleb128 0xb
 6826 00c7 3A        		.uleb128 0x3a
 6827 00c8 0B        		.uleb128 0xb
 6828 00c9 3B        		.uleb128 0x3b
 6829 00ca 0B        		.uleb128 0xb
 6830 00cb 01        		.uleb128 0x1
 6831 00cc 13        		.uleb128 0x13
 6832 00cd 00        		.byte	0x0
 6833 00ce 00        		.byte	0x0
 6834 00cf 12        		.uleb128 0x12
 6835 00d0 16        		.uleb128 0x16
 6836 00d1 00        		.byte	0x0
 6837 00d2 03        		.uleb128 0x3
 6838 00d3 08        		.uleb128 0x8
 6839 00d4 3A        		.uleb128 0x3a
 6840 00d5 0B        		.uleb128 0xb
 6841 00d6 3B        		.uleb128 0x3b
 6842 00d7 0B        		.uleb128 0xb
 6843 00d8 49        		.uleb128 0x49
 6844 00d9 13        		.uleb128 0x13
 6845 00da 00        		.byte	0x0
 6846 00db 00        		.byte	0x0
 6847 00dc 13        		.uleb128 0x13
 6848 00dd 2E        		.uleb128 0x2e
 6849 00de 01        		.byte	0x1
 6850 00df 03        		.uleb128 0x3
 6851 00e0 0E        		.uleb128 0xe
 6852 00e1 3A        		.uleb128 0x3a
 6853 00e2 0B        		.uleb128 0xb
 6854 00e3 3B        		.uleb128 0x3b
 6855 00e4 0B        		.uleb128 0xb
 6856 00e5 27        		.uleb128 0x27
 6857 00e6 0C        		.uleb128 0xc
 6858 00e7 20        		.uleb128 0x20
 6859 00e8 0B        		.uleb128 0xb
 6860 00e9 01        		.uleb128 0x1
 6861 00ea 13        		.uleb128 0x13
 6862 00eb 00        		.byte	0x0
 6863 00ec 00        		.byte	0x0
 6864 00ed 14        		.uleb128 0x14
 6865 00ee 05        		.uleb128 0x5
 6866 00ef 00        		.byte	0x0
 6867 00f0 03        		.uleb128 0x3
 6868 00f1 0E        		.uleb128 0xe
 6869 00f2 3A        		.uleb128 0x3a
 6870 00f3 0B        		.uleb128 0xb
 6871 00f4 3B        		.uleb128 0x3b
 6872 00f5 0B        		.uleb128 0xb
GAS LISTING C:\Users\ADMINI~1\AppData\Local\Temp/ccnPzUe6.s 			page 124


 6873 00f6 49        		.uleb128 0x49
 6874 00f7 13        		.uleb128 0x13
 6875 00f8 00        		.byte	0x0
 6876 00f9 00        		.byte	0x0
 6877 00fa 15        		.uleb128 0x15
 6878 00fb 2E        		.uleb128 0x2e
 6879 00fc 01        		.byte	0x1
 6880 00fd 3F        		.uleb128 0x3f
 6881 00fe 0C        		.uleb128 0xc
 6882 00ff 03        		.uleb128 0x3
 6883 0100 0E        		.uleb128 0xe
 6884 0101 3A        		.uleb128 0x3a
 6885 0102 0B        		.uleb128 0xb
 6886 0103 3B        		.uleb128 0x3b
 6887 0104 05        		.uleb128 0x5
 6888 0105 27        		.uleb128 0x27
 6889 0106 0C        		.uleb128 0xc
 6890 0107 49        		.uleb128 0x49
 6891 0108 13        		.uleb128 0x13
 6892 0109 20        		.uleb128 0x20
 6893 010a 0B        		.uleb128 0xb
 6894 010b 01        		.uleb128 0x1
 6895 010c 13        		.uleb128 0x13
 6896 010d 00        		.byte	0x0
 6897 010e 00        		.byte	0x0
 6898 010f 16        		.uleb128 0x16
 6899 0110 05        		.uleb128 0x5
 6900 0111 00        		.byte	0x0
 6901 0112 03        		.uleb128 0x3
 6902 0113 0E        		.uleb128 0xe
 6903 0114 3A        		.uleb128 0x3a
 6904 0115 0B        		.uleb128 0xb
 6905 0116 3B        		.uleb128 0x3b
 6906 0117 05        		.uleb128 0x5
 6907 0118 49        		.uleb128 0x49
 6908 0119 13        		.uleb128 0x13
 6909 011a 00        		.byte	0x0
 6910 011b 00        		.byte	0x0
 6911 011c 17        		.uleb128 0x17
 6912 011d 2E        		.uleb128 0x2e
 6913 011e 00        		.byte	0x0
 6914 011f 3F        		.uleb128 0x3f
 6915 0120 0C        		.uleb128 0xc
 6916 0121 03        		.uleb128 0x3
 6917 0122 0E        		.uleb128 0xe
 6918 0123 3A        		.uleb128 0x3a
 6919 0124 0B        		.uleb128 0xb
 6920 0125 3B        		.uleb128 0x3b
 6921 0126 0B        		.uleb128 0xb
 6922 0127 27        		.uleb128 0x27
 6923 0128 0C        		.uleb128 0xc
 6924 0129 49        		.uleb128 0x49
 6925 012a 13        		.uleb128 0x13
 6926 012b 20        		.uleb128 0x20
 6927 012c 0B        		.uleb128 0xb
 6928 012d 00        		.byte	0x0
 6929 012e 00        		.byte	0x0
GAS LISTING C:\Users\ADMINI~1\AppData\Local\Temp/ccnPzUe6.s 			page 125


 6930 012f 18        		.uleb128 0x18
 6931 0130 2E        		.uleb128 0x2e
 6932 0131 00        		.byte	0x0
 6933 0132 3F        		.uleb128 0x3f
 6934 0133 0C        		.uleb128 0xc
 6935 0134 03        		.uleb128 0x3
 6936 0135 0E        		.uleb128 0xe
 6937 0136 3A        		.uleb128 0x3a
 6938 0137 0B        		.uleb128 0xb
 6939 0138 3B        		.uleb128 0x3b
 6940 0139 0B        		.uleb128 0xb
 6941 013a 27        		.uleb128 0x27
 6942 013b 0C        		.uleb128 0xc
 6943 013c 20        		.uleb128 0x20
 6944 013d 0B        		.uleb128 0xb
 6945 013e 00        		.byte	0x0
 6946 013f 00        		.byte	0x0
 6947 0140 19        		.uleb128 0x19
 6948 0141 34        		.uleb128 0x34
 6949 0142 00        		.byte	0x0
 6950 0143 03        		.uleb128 0x3
 6951 0144 0E        		.uleb128 0xe
 6952 0145 3A        		.uleb128 0x3a
 6953 0146 0B        		.uleb128 0xb
 6954 0147 3B        		.uleb128 0x3b
 6955 0148 0B        		.uleb128 0xb
 6956 0149 49        		.uleb128 0x49
 6957 014a 13        		.uleb128 0x13
 6958 014b 00        		.byte	0x0
 6959 014c 00        		.byte	0x0
 6960 014d 1A        		.uleb128 0x1a
 6961 014e 0B        		.uleb128 0xb
 6962 014f 00        		.byte	0x0
 6963 0150 00        		.byte	0x0
 6964 0151 00        		.byte	0x0
 6965 0152 1B        		.uleb128 0x1b
 6966 0153 2E        		.uleb128 0x2e
 6967 0154 00        		.byte	0x0
 6968 0155 03        		.uleb128 0x3
 6969 0156 0E        		.uleb128 0xe
 6970 0157 3A        		.uleb128 0x3a
 6971 0158 0B        		.uleb128 0xb
 6972 0159 3B        		.uleb128 0x3b
 6973 015a 05        		.uleb128 0x5
 6974 015b 27        		.uleb128 0x27
 6975 015c 0C        		.uleb128 0xc
 6976 015d 20        		.uleb128 0x20
 6977 015e 0B        		.uleb128 0xb
 6978 015f 00        		.byte	0x0
 6979 0160 00        		.byte	0x0
 6980 0161 1C        		.uleb128 0x1c
 6981 0162 2E        		.uleb128 0x2e
 6982 0163 01        		.byte	0x1
 6983 0164 03        		.uleb128 0x3
 6984 0165 0E        		.uleb128 0xe
 6985 0166 3A        		.uleb128 0x3a
 6986 0167 0B        		.uleb128 0xb
GAS LISTING C:\Users\ADMINI~1\AppData\Local\Temp/ccnPzUe6.s 			page 126


 6987 0168 3B        		.uleb128 0x3b
 6988 0169 0B        		.uleb128 0xb
 6989 016a 27        		.uleb128 0x27
 6990 016b 0C        		.uleb128 0xc
 6991 016c 49        		.uleb128 0x49
 6992 016d 13        		.uleb128 0x13
 6993 016e 20        		.uleb128 0x20
 6994 016f 0B        		.uleb128 0xb
 6995 0170 01        		.uleb128 0x1
 6996 0171 13        		.uleb128 0x13
 6997 0172 00        		.byte	0x0
 6998 0173 00        		.byte	0x0
 6999 0174 1D        		.uleb128 0x1d
 7000 0175 2E        		.uleb128 0x2e
 7001 0176 01        		.byte	0x1
 7002 0177 03        		.uleb128 0x3
 7003 0178 0E        		.uleb128 0xe
 7004 0179 3A        		.uleb128 0x3a
 7005 017a 0B        		.uleb128 0xb
 7006 017b 3B        		.uleb128 0x3b
 7007 017c 05        		.uleb128 0x5
 7008 017d 27        		.uleb128 0x27
 7009 017e 0C        		.uleb128 0xc
 7010 017f 49        		.uleb128 0x49
 7011 0180 13        		.uleb128 0x13
 7012 0181 20        		.uleb128 0x20
 7013 0182 0B        		.uleb128 0xb
 7014 0183 01        		.uleb128 0x1
 7015 0184 13        		.uleb128 0x13
 7016 0185 00        		.byte	0x0
 7017 0186 00        		.byte	0x0
 7018 0187 1E        		.uleb128 0x1e
 7019 0188 34        		.uleb128 0x34
 7020 0189 00        		.byte	0x0
 7021 018a 03        		.uleb128 0x3
 7022 018b 0E        		.uleb128 0xe
 7023 018c 3A        		.uleb128 0x3a
 7024 018d 0B        		.uleb128 0xb
 7025 018e 3B        		.uleb128 0x3b
 7026 018f 05        		.uleb128 0x5
 7027 0190 49        		.uleb128 0x49
 7028 0191 13        		.uleb128 0x13
 7029 0192 00        		.byte	0x0
 7030 0193 00        		.byte	0x0
 7031 0194 1F        		.uleb128 0x1f
 7032 0195 0B        		.uleb128 0xb
 7033 0196 01        		.byte	0x1
 7034 0197 00        		.byte	0x0
 7035 0198 00        		.byte	0x0
 7036 0199 20        		.uleb128 0x20
 7037 019a 05        		.uleb128 0x5
 7038 019b 00        		.byte	0x0
 7039 019c 31        		.uleb128 0x31
 7040 019d 13        		.uleb128 0x13
 7041 019e 00        		.byte	0x0
 7042 019f 00        		.byte	0x0
 7043 01a0 21        		.uleb128 0x21
GAS LISTING C:\Users\ADMINI~1\AppData\Local\Temp/ccnPzUe6.s 			page 127


 7044 01a1 2E        		.uleb128 0x2e
 7045 01a2 00        		.byte	0x0
 7046 01a3 03        		.uleb128 0x3
 7047 01a4 0E        		.uleb128 0xe
 7048 01a5 3A        		.uleb128 0x3a
 7049 01a6 0B        		.uleb128 0xb
 7050 01a7 3B        		.uleb128 0x3b
 7051 01a8 0B        		.uleb128 0xb
 7052 01a9 27        		.uleb128 0x27
 7053 01aa 0C        		.uleb128 0xc
 7054 01ab 20        		.uleb128 0x20
 7055 01ac 0B        		.uleb128 0xb
 7056 01ad 00        		.byte	0x0
 7057 01ae 00        		.byte	0x0
 7058 01af 22        		.uleb128 0x22
 7059 01b0 2E        		.uleb128 0x2e
 7060 01b1 00        		.byte	0x0
 7061 01b2 31        		.uleb128 0x31
 7062 01b3 13        		.uleb128 0x13
 7063 01b4 11        		.uleb128 0x11
 7064 01b5 01        		.uleb128 0x1
 7065 01b6 12        		.uleb128 0x12
 7066 01b7 01        		.uleb128 0x1
 7067 01b8 40        		.uleb128 0x40
 7068 01b9 0A        		.uleb128 0xa
 7069 01ba 00        		.byte	0x0
 7070 01bb 00        		.byte	0x0
 7071 01bc 23        		.uleb128 0x23
 7072 01bd 2E        		.uleb128 0x2e
 7073 01be 00        		.byte	0x0
 7074 01bf 3F        		.uleb128 0x3f
 7075 01c0 0C        		.uleb128 0xc
 7076 01c1 03        		.uleb128 0x3
 7077 01c2 0E        		.uleb128 0xe
 7078 01c3 3A        		.uleb128 0x3a
 7079 01c4 0B        		.uleb128 0xb
 7080 01c5 3B        		.uleb128 0x3b
 7081 01c6 0B        		.uleb128 0xb
 7082 01c7 27        		.uleb128 0x27
 7083 01c8 0C        		.uleb128 0xc
 7084 01c9 49        		.uleb128 0x49
 7085 01ca 13        		.uleb128 0x13
 7086 01cb 11        		.uleb128 0x11
 7087 01cc 01        		.uleb128 0x1
 7088 01cd 12        		.uleb128 0x12
 7089 01ce 01        		.uleb128 0x1
 7090 01cf 40        		.uleb128 0x40
 7091 01d0 0A        		.uleb128 0xa
 7092 01d1 00        		.byte	0x0
 7093 01d2 00        		.byte	0x0
 7094 01d3 24        		.uleb128 0x24
 7095 01d4 2E        		.uleb128 0x2e
 7096 01d5 00        		.byte	0x0
 7097 01d6 3F        		.uleb128 0x3f
 7098 01d7 0C        		.uleb128 0xc
 7099 01d8 03        		.uleb128 0x3
 7100 01d9 0E        		.uleb128 0xe
GAS LISTING C:\Users\ADMINI~1\AppData\Local\Temp/ccnPzUe6.s 			page 128


 7101 01da 3A        		.uleb128 0x3a
 7102 01db 0B        		.uleb128 0xb
 7103 01dc 3B        		.uleb128 0x3b
 7104 01dd 0B        		.uleb128 0xb
 7105 01de 27        		.uleb128 0x27
 7106 01df 0C        		.uleb128 0xc
 7107 01e0 11        		.uleb128 0x11
 7108 01e1 01        		.uleb128 0x1
 7109 01e2 12        		.uleb128 0x12
 7110 01e3 01        		.uleb128 0x1
 7111 01e4 40        		.uleb128 0x40
 7112 01e5 0A        		.uleb128 0xa
 7113 01e6 00        		.byte	0x0
 7114 01e7 00        		.byte	0x0
 7115 01e8 25        		.uleb128 0x25
 7116 01e9 2E        		.uleb128 0x2e
 7117 01ea 01        		.byte	0x1
 7118 01eb 31        		.uleb128 0x31
 7119 01ec 13        		.uleb128 0x13
 7120 01ed 11        		.uleb128 0x11
 7121 01ee 01        		.uleb128 0x1
 7122 01ef 12        		.uleb128 0x12
 7123 01f0 01        		.uleb128 0x1
 7124 01f1 40        		.uleb128 0x40
 7125 01f2 0A        		.uleb128 0xa
 7126 01f3 01        		.uleb128 0x1
 7127 01f4 13        		.uleb128 0x13
 7128 01f5 00        		.byte	0x0
 7129 01f6 00        		.byte	0x0
 7130 01f7 26        		.uleb128 0x26
 7131 01f8 05        		.uleb128 0x5
 7132 01f9 00        		.byte	0x0
 7133 01fa 31        		.uleb128 0x31
 7134 01fb 13        		.uleb128 0x13
 7135 01fc 02        		.uleb128 0x2
 7136 01fd 06        		.uleb128 0x6
 7137 01fe 00        		.byte	0x0
 7138 01ff 00        		.byte	0x0
 7139 0200 27        		.uleb128 0x27
 7140 0201 1D        		.uleb128 0x1d
 7141 0202 01        		.byte	0x1
 7142 0203 31        		.uleb128 0x31
 7143 0204 13        		.uleb128 0x13
 7144 0205 11        		.uleb128 0x11
 7145 0206 01        		.uleb128 0x1
 7146 0207 12        		.uleb128 0x12
 7147 0208 01        		.uleb128 0x1
 7148 0209 58        		.uleb128 0x58
 7149 020a 0B        		.uleb128 0xb
 7150 020b 59        		.uleb128 0x59
 7151 020c 05        		.uleb128 0x5
 7152 020d 00        		.byte	0x0
 7153 020e 00        		.byte	0x0
 7154 020f 28        		.uleb128 0x28
 7155 0210 2E        		.uleb128 0x2e
 7156 0211 00        		.byte	0x0
 7157 0212 3F        		.uleb128 0x3f
GAS LISTING C:\Users\ADMINI~1\AppData\Local\Temp/ccnPzUe6.s 			page 129


 7158 0213 0C        		.uleb128 0xc
 7159 0214 03        		.uleb128 0x3
 7160 0215 0E        		.uleb128 0xe
 7161 0216 3A        		.uleb128 0x3a
 7162 0217 0B        		.uleb128 0xb
 7163 0218 3B        		.uleb128 0x3b
 7164 0219 05        		.uleb128 0x5
 7165 021a 27        		.uleb128 0x27
 7166 021b 0C        		.uleb128 0xc
 7167 021c 49        		.uleb128 0x49
 7168 021d 13        		.uleb128 0x13
 7169 021e 11        		.uleb128 0x11
 7170 021f 01        		.uleb128 0x1
 7171 0220 12        		.uleb128 0x12
 7172 0221 01        		.uleb128 0x1
 7173 0222 40        		.uleb128 0x40
 7174 0223 0A        		.uleb128 0xa
 7175 0224 00        		.byte	0x0
 7176 0225 00        		.byte	0x0
 7177 0226 29        		.uleb128 0x29
 7178 0227 2E        		.uleb128 0x2e
 7179 0228 00        		.byte	0x0
 7180 0229 03        		.uleb128 0x3
 7181 022a 0E        		.uleb128 0xe
 7182 022b 3A        		.uleb128 0x3a
 7183 022c 0B        		.uleb128 0xb
 7184 022d 3B        		.uleb128 0x3b
 7185 022e 05        		.uleb128 0x5
 7186 022f 27        		.uleb128 0x27
 7187 0230 0C        		.uleb128 0xc
 7188 0231 11        		.uleb128 0x11
 7189 0232 01        		.uleb128 0x1
 7190 0233 12        		.uleb128 0x12
 7191 0234 01        		.uleb128 0x1
 7192 0235 40        		.uleb128 0x40
 7193 0236 0A        		.uleb128 0xa
 7194 0237 00        		.byte	0x0
 7195 0238 00        		.byte	0x0
 7196 0239 2A        		.uleb128 0x2a
 7197 023a 2E        		.uleb128 0x2e
 7198 023b 01        		.byte	0x1
 7199 023c 3F        		.uleb128 0x3f
 7200 023d 0C        		.uleb128 0xc
 7201 023e 03        		.uleb128 0x3
 7202 023f 0E        		.uleb128 0xe
 7203 0240 3A        		.uleb128 0x3a
 7204 0241 0B        		.uleb128 0xb
 7205 0242 3B        		.uleb128 0x3b
 7206 0243 0B        		.uleb128 0xb
 7207 0244 27        		.uleb128 0x27
 7208 0245 0C        		.uleb128 0xc
 7209 0246 11        		.uleb128 0x11
 7210 0247 01        		.uleb128 0x1
 7211 0248 12        		.uleb128 0x12
 7212 0249 01        		.uleb128 0x1
 7213 024a 40        		.uleb128 0x40
 7214 024b 0A        		.uleb128 0xa
GAS LISTING C:\Users\ADMINI~1\AppData\Local\Temp/ccnPzUe6.s 			page 130


 7215 024c 01        		.uleb128 0x1
 7216 024d 13        		.uleb128 0x13
 7217 024e 00        		.byte	0x0
 7218 024f 00        		.byte	0x0
 7219 0250 2B        		.uleb128 0x2b
 7220 0251 05        		.uleb128 0x5
 7221 0252 00        		.byte	0x0
 7222 0253 03        		.uleb128 0x3
 7223 0254 0E        		.uleb128 0xe
 7224 0255 3A        		.uleb128 0x3a
 7225 0256 0B        		.uleb128 0xb
 7226 0257 3B        		.uleb128 0x3b
 7227 0258 0B        		.uleb128 0xb
 7228 0259 49        		.uleb128 0x49
 7229 025a 13        		.uleb128 0x13
 7230 025b 02        		.uleb128 0x2
 7231 025c 0A        		.uleb128 0xa
 7232 025d 00        		.byte	0x0
 7233 025e 00        		.byte	0x0
 7234 025f 2C        		.uleb128 0x2c
 7235 0260 1D        		.uleb128 0x1d
 7236 0261 00        		.byte	0x0
 7237 0262 31        		.uleb128 0x31
 7238 0263 13        		.uleb128 0x13
 7239 0264 11        		.uleb128 0x11
 7240 0265 01        		.uleb128 0x1
 7241 0266 12        		.uleb128 0x12
 7242 0267 01        		.uleb128 0x1
 7243 0268 58        		.uleb128 0x58
 7244 0269 0B        		.uleb128 0xb
 7245 026a 59        		.uleb128 0x59
 7246 026b 0B        		.uleb128 0xb
 7247 026c 00        		.byte	0x0
 7248 026d 00        		.byte	0x0
 7249 026e 2D        		.uleb128 0x2d
 7250 026f 2E        		.uleb128 0x2e
 7251 0270 00        		.byte	0x0
 7252 0271 3F        		.uleb128 0x3f
 7253 0272 0C        		.uleb128 0xc
 7254 0273 03        		.uleb128 0x3
 7255 0274 0E        		.uleb128 0xe
 7256 0275 3A        		.uleb128 0x3a
 7257 0276 0B        		.uleb128 0xb
 7258 0277 3B        		.uleb128 0x3b
 7259 0278 05        		.uleb128 0x5
 7260 0279 27        		.uleb128 0x27
 7261 027a 0C        		.uleb128 0xc
 7262 027b 11        		.uleb128 0x11
 7263 027c 01        		.uleb128 0x1
 7264 027d 12        		.uleb128 0x12
 7265 027e 01        		.uleb128 0x1
 7266 027f 40        		.uleb128 0x40
 7267 0280 0A        		.uleb128 0xa
 7268 0281 00        		.byte	0x0
 7269 0282 00        		.byte	0x0
 7270 0283 2E        		.uleb128 0x2e
 7271 0284 2E        		.uleb128 0x2e
GAS LISTING C:\Users\ADMINI~1\AppData\Local\Temp/ccnPzUe6.s 			page 131


 7272 0285 01        		.byte	0x1
 7273 0286 03        		.uleb128 0x3
 7274 0287 0E        		.uleb128 0xe
 7275 0288 3A        		.uleb128 0x3a
 7276 0289 0B        		.uleb128 0xb
 7277 028a 3B        		.uleb128 0x3b
 7278 028b 05        		.uleb128 0x5
 7279 028c 27        		.uleb128 0x27
 7280 028d 0C        		.uleb128 0xc
 7281 028e 11        		.uleb128 0x11
 7282 028f 01        		.uleb128 0x1
 7283 0290 12        		.uleb128 0x12
 7284 0291 01        		.uleb128 0x1
 7285 0292 40        		.uleb128 0x40
 7286 0293 0A        		.uleb128 0xa
 7287 0294 01        		.uleb128 0x1
 7288 0295 13        		.uleb128 0x13
 7289 0296 00        		.byte	0x0
 7290 0297 00        		.byte	0x0
 7291 0298 2F        		.uleb128 0x2f
 7292 0299 05        		.uleb128 0x5
 7293 029a 00        		.byte	0x0
 7294 029b 03        		.uleb128 0x3
 7295 029c 0E        		.uleb128 0xe
 7296 029d 3A        		.uleb128 0x3a
 7297 029e 0B        		.uleb128 0xb
 7298 029f 3B        		.uleb128 0x3b
 7299 02a0 05        		.uleb128 0x5
 7300 02a1 49        		.uleb128 0x49
 7301 02a2 13        		.uleb128 0x13
 7302 02a3 02        		.uleb128 0x2
 7303 02a4 06        		.uleb128 0x6
 7304 02a5 00        		.byte	0x0
 7305 02a6 00        		.byte	0x0
 7306 02a7 30        		.uleb128 0x30
 7307 02a8 34        		.uleb128 0x34
 7308 02a9 00        		.byte	0x0
 7309 02aa 03        		.uleb128 0x3
 7310 02ab 08        		.uleb128 0x8
 7311 02ac 3A        		.uleb128 0x3a
 7312 02ad 0B        		.uleb128 0xb
 7313 02ae 3B        		.uleb128 0x3b
 7314 02af 05        		.uleb128 0x5
 7315 02b0 49        		.uleb128 0x49
 7316 02b1 13        		.uleb128 0x13
 7317 02b2 00        		.byte	0x0
 7318 02b3 00        		.byte	0x0
 7319 02b4 31        		.uleb128 0x31
 7320 02b5 05        		.uleb128 0x5
 7321 02b6 00        		.byte	0x0
 7322 02b7 03        		.uleb128 0x3
 7323 02b8 08        		.uleb128 0x8
 7324 02b9 3A        		.uleb128 0x3a
 7325 02ba 0B        		.uleb128 0xb
 7326 02bb 3B        		.uleb128 0x3b
 7327 02bc 05        		.uleb128 0x5
 7328 02bd 49        		.uleb128 0x49
GAS LISTING C:\Users\ADMINI~1\AppData\Local\Temp/ccnPzUe6.s 			page 132


 7329 02be 13        		.uleb128 0x13
 7330 02bf 02        		.uleb128 0x2
 7331 02c0 06        		.uleb128 0x6
 7332 02c1 00        		.byte	0x0
 7333 02c2 00        		.byte	0x0
 7334 02c3 32        		.uleb128 0x32
 7335 02c4 34        		.uleb128 0x34
 7336 02c5 00        		.byte	0x0
 7337 02c6 03        		.uleb128 0x3
 7338 02c7 08        		.uleb128 0x8
 7339 02c8 3A        		.uleb128 0x3a
 7340 02c9 0B        		.uleb128 0xb
 7341 02ca 3B        		.uleb128 0x3b
 7342 02cb 05        		.uleb128 0x5
 7343 02cc 49        		.uleb128 0x49
 7344 02cd 13        		.uleb128 0x13
 7345 02ce 02        		.uleb128 0x2
 7346 02cf 06        		.uleb128 0x6
 7347 02d0 00        		.byte	0x0
 7348 02d1 00        		.byte	0x0
 7349 02d2 33        		.uleb128 0x33
 7350 02d3 34        		.uleb128 0x34
 7351 02d4 00        		.byte	0x0
 7352 02d5 03        		.uleb128 0x3
 7353 02d6 0E        		.uleb128 0xe
 7354 02d7 3A        		.uleb128 0x3a
 7355 02d8 0B        		.uleb128 0xb
 7356 02d9 3B        		.uleb128 0x3b
 7357 02da 05        		.uleb128 0x5
 7358 02db 49        		.uleb128 0x49
 7359 02dc 13        		.uleb128 0x13
 7360 02dd 02        		.uleb128 0x2
 7361 02de 0A        		.uleb128 0xa
 7362 02df 00        		.byte	0x0
 7363 02e0 00        		.byte	0x0
 7364 02e1 34        		.uleb128 0x34
 7365 02e2 0B        		.uleb128 0xb
 7366 02e3 01        		.byte	0x1
 7367 02e4 11        		.uleb128 0x11
 7368 02e5 01        		.uleb128 0x1
 7369 02e6 12        		.uleb128 0x12
 7370 02e7 01        		.uleb128 0x1
 7371 02e8 00        		.byte	0x0
 7372 02e9 00        		.byte	0x0
 7373 02ea 35        		.uleb128 0x35
 7374 02eb 34        		.uleb128 0x34
 7375 02ec 00        		.byte	0x0
 7376 02ed 03        		.uleb128 0x3
 7377 02ee 0E        		.uleb128 0xe
 7378 02ef 3A        		.uleb128 0x3a
 7379 02f0 0B        		.uleb128 0xb
 7380 02f1 3B        		.uleb128 0x3b
 7381 02f2 05        		.uleb128 0x5
 7382 02f3 49        		.uleb128 0x49
 7383 02f4 13        		.uleb128 0x13
 7384 02f5 02        		.uleb128 0x2
 7385 02f6 06        		.uleb128 0x6
GAS LISTING C:\Users\ADMINI~1\AppData\Local\Temp/ccnPzUe6.s 			page 133


 7386 02f7 00        		.byte	0x0
 7387 02f8 00        		.byte	0x0
 7388 02f9 36        		.uleb128 0x36
 7389 02fa 26        		.uleb128 0x26
 7390 02fb 00        		.byte	0x0
 7391 02fc 49        		.uleb128 0x49
 7392 02fd 13        		.uleb128 0x13
 7393 02fe 00        		.byte	0x0
 7394 02ff 00        		.byte	0x0
 7395 0300 37        		.uleb128 0x37
 7396 0301 01        		.uleb128 0x1
 7397 0302 01        		.byte	0x1
 7398 0303 49        		.uleb128 0x49
 7399 0304 13        		.uleb128 0x13
 7400 0305 01        		.uleb128 0x1
 7401 0306 13        		.uleb128 0x13
 7402 0307 00        		.byte	0x0
 7403 0308 00        		.byte	0x0
 7404 0309 38        		.uleb128 0x38
 7405 030a 21        		.uleb128 0x21
 7406 030b 00        		.byte	0x0
 7407 030c 49        		.uleb128 0x49
 7408 030d 13        		.uleb128 0x13
 7409 030e 2F        		.uleb128 0x2f
 7410 030f 0B        		.uleb128 0xb
 7411 0310 00        		.byte	0x0
 7412 0311 00        		.byte	0x0
 7413 0312 39        		.uleb128 0x39
 7414 0313 2E        		.uleb128 0x2e
 7415 0314 01        		.byte	0x1
 7416 0315 3F        		.uleb128 0x3f
 7417 0316 0C        		.uleb128 0xc
 7418 0317 03        		.uleb128 0x3
 7419 0318 0E        		.uleb128 0xe
 7420 0319 3A        		.uleb128 0x3a
 7421 031a 0B        		.uleb128 0xb
 7422 031b 3B        		.uleb128 0x3b
 7423 031c 05        		.uleb128 0x5
 7424 031d 27        		.uleb128 0x27
 7425 031e 0C        		.uleb128 0xc
 7426 031f 11        		.uleb128 0x11
 7427 0320 01        		.uleb128 0x1
 7428 0321 12        		.uleb128 0x12
 7429 0322 01        		.uleb128 0x1
 7430 0323 40        		.uleb128 0x40
 7431 0324 0A        		.uleb128 0xa
 7432 0325 01        		.uleb128 0x1
 7433 0326 13        		.uleb128 0x13
 7434 0327 00        		.byte	0x0
 7435 0328 00        		.byte	0x0
 7436 0329 3A        		.uleb128 0x3a
 7437 032a 1D        		.uleb128 0x1d
 7438 032b 00        		.byte	0x0
 7439 032c 31        		.uleb128 0x31
 7440 032d 13        		.uleb128 0x13
 7441 032e 11        		.uleb128 0x11
 7442 032f 01        		.uleb128 0x1
GAS LISTING C:\Users\ADMINI~1\AppData\Local\Temp/ccnPzUe6.s 			page 134


 7443 0330 12        		.uleb128 0x12
 7444 0331 01        		.uleb128 0x1
 7445 0332 58        		.uleb128 0x58
 7446 0333 0B        		.uleb128 0xb
 7447 0334 59        		.uleb128 0x59
 7448 0335 05        		.uleb128 0x5
 7449 0336 00        		.byte	0x0
 7450 0337 00        		.byte	0x0
 7451 0338 3B        		.uleb128 0x3b
 7452 0339 34        		.uleb128 0x34
 7453 033a 00        		.byte	0x0
 7454 033b 31        		.uleb128 0x31
 7455 033c 13        		.uleb128 0x13
 7456 033d 02        		.uleb128 0x2
 7457 033e 0A        		.uleb128 0xa
 7458 033f 00        		.byte	0x0
 7459 0340 00        		.byte	0x0
 7460 0341 3C        		.uleb128 0x3c
 7461 0342 34        		.uleb128 0x34
 7462 0343 00        		.byte	0x0
 7463 0344 31        		.uleb128 0x31
 7464 0345 13        		.uleb128 0x13
 7465 0346 00        		.byte	0x0
 7466 0347 00        		.byte	0x0
 7467 0348 3D        		.uleb128 0x3d
 7468 0349 1D        		.uleb128 0x1d
 7469 034a 01        		.byte	0x1
 7470 034b 31        		.uleb128 0x31
 7471 034c 13        		.uleb128 0x13
 7472 034d 11        		.uleb128 0x11
 7473 034e 01        		.uleb128 0x1
 7474 034f 12        		.uleb128 0x12
 7475 0350 01        		.uleb128 0x1
 7476 0351 58        		.uleb128 0x58
 7477 0352 0B        		.uleb128 0xb
 7478 0353 59        		.uleb128 0x59
 7479 0354 0B        		.uleb128 0xb
 7480 0355 00        		.byte	0x0
 7481 0356 00        		.byte	0x0
 7482 0357 3E        		.uleb128 0x3e
 7483 0358 05        		.uleb128 0x5
 7484 0359 00        		.byte	0x0
 7485 035a 31        		.uleb128 0x31
 7486 035b 13        		.uleb128 0x13
 7487 035c 02        		.uleb128 0x2
 7488 035d 0A        		.uleb128 0xa
 7489 035e 00        		.byte	0x0
 7490 035f 00        		.byte	0x0
 7491 0360 3F        		.uleb128 0x3f
 7492 0361 1D        		.uleb128 0x1d
 7493 0362 01        		.byte	0x1
 7494 0363 31        		.uleb128 0x31
 7495 0364 13        		.uleb128 0x13
 7496 0365 11        		.uleb128 0x11
 7497 0366 01        		.uleb128 0x1
 7498 0367 12        		.uleb128 0x12
 7499 0368 01        		.uleb128 0x1
GAS LISTING C:\Users\ADMINI~1\AppData\Local\Temp/ccnPzUe6.s 			page 135


 7500 0369 58        		.uleb128 0x58
 7501 036a 0B        		.uleb128 0xb
 7502 036b 59        		.uleb128 0x59
 7503 036c 05        		.uleb128 0x5
 7504 036d 01        		.uleb128 0x1
 7505 036e 13        		.uleb128 0x13
 7506 036f 00        		.byte	0x0
 7507 0370 00        		.byte	0x0
 7508 0371 40        		.uleb128 0x40
 7509 0372 34        		.uleb128 0x34
 7510 0373 00        		.byte	0x0
 7511 0374 31        		.uleb128 0x31
 7512 0375 13        		.uleb128 0x13
 7513 0376 02        		.uleb128 0x2
 7514 0377 06        		.uleb128 0x6
 7515 0378 00        		.byte	0x0
 7516 0379 00        		.byte	0x0
 7517 037a 41        		.uleb128 0x41
 7518 037b 2E        		.uleb128 0x2e
 7519 037c 01        		.byte	0x1
 7520 037d 3F        		.uleb128 0x3f
 7521 037e 0C        		.uleb128 0xc
 7522 037f 03        		.uleb128 0x3
 7523 0380 0E        		.uleb128 0xe
 7524 0381 3A        		.uleb128 0x3a
 7525 0382 0B        		.uleb128 0xb
 7526 0383 3B        		.uleb128 0x3b
 7527 0384 05        		.uleb128 0x5
 7528 0385 27        		.uleb128 0x27
 7529 0386 0C        		.uleb128 0xc
 7530 0387 49        		.uleb128 0x49
 7531 0388 13        		.uleb128 0x13
 7532 0389 11        		.uleb128 0x11
 7533 038a 01        		.uleb128 0x1
 7534 038b 12        		.uleb128 0x12
 7535 038c 01        		.uleb128 0x1
 7536 038d 40        		.uleb128 0x40
 7537 038e 0A        		.uleb128 0xa
 7538 038f 01        		.uleb128 0x1
 7539 0390 13        		.uleb128 0x13
 7540 0391 00        		.byte	0x0
 7541 0392 00        		.byte	0x0
 7542 0393 42        		.uleb128 0x42
 7543 0394 34        		.uleb128 0x34
 7544 0395 00        		.byte	0x0
 7545 0396 03        		.uleb128 0x3
 7546 0397 0E        		.uleb128 0xe
 7547 0398 3A        		.uleb128 0x3a
 7548 0399 0B        		.uleb128 0xb
 7549 039a 3B        		.uleb128 0x3b
 7550 039b 0B        		.uleb128 0xb
 7551 039c 49        		.uleb128 0x49
 7552 039d 13        		.uleb128 0x13
 7553 039e 02        		.uleb128 0x2
 7554 039f 0A        		.uleb128 0xa
 7555 03a0 00        		.byte	0x0
 7556 03a1 00        		.byte	0x0
GAS LISTING C:\Users\ADMINI~1\AppData\Local\Temp/ccnPzUe6.s 			page 136


 7557 03a2 43        		.uleb128 0x43
 7558 03a3 21        		.uleb128 0x21
 7559 03a4 00        		.byte	0x0
 7560 03a5 00        		.byte	0x0
 7561 03a6 00        		.byte	0x0
 7562 03a7 44        		.uleb128 0x44
 7563 03a8 34        		.uleb128 0x34
 7564 03a9 00        		.byte	0x0
 7565 03aa 03        		.uleb128 0x3
 7566 03ab 0E        		.uleb128 0xe
 7567 03ac 3A        		.uleb128 0x3a
 7568 03ad 0B        		.uleb128 0xb
 7569 03ae 3B        		.uleb128 0x3b
 7570 03af 05        		.uleb128 0x5
 7571 03b0 49        		.uleb128 0x49
 7572 03b1 13        		.uleb128 0x13
 7573 03b2 3F        		.uleb128 0x3f
 7574 03b3 0C        		.uleb128 0xc
 7575 03b4 3C        		.uleb128 0x3c
 7576 03b5 0C        		.uleb128 0xc
 7577 03b6 00        		.byte	0x0
 7578 03b7 00        		.byte	0x0
 7579 03b8 45        		.uleb128 0x45
 7580 03b9 34        		.uleb128 0x34
 7581 03ba 00        		.byte	0x0
 7582 03bb 03        		.uleb128 0x3
 7583 03bc 0E        		.uleb128 0xe
 7584 03bd 3A        		.uleb128 0x3a
 7585 03be 0B        		.uleb128 0xb
 7586 03bf 3B        		.uleb128 0x3b
 7587 03c0 0B        		.uleb128 0xb
 7588 03c1 49        		.uleb128 0x49
 7589 03c2 13        		.uleb128 0x13
 7590 03c3 3F        		.uleb128 0x3f
 7591 03c4 0C        		.uleb128 0xc
 7592 03c5 3C        		.uleb128 0x3c
 7593 03c6 0C        		.uleb128 0xc
 7594 03c7 00        		.byte	0x0
 7595 03c8 00        		.byte	0x0
 7596 03c9 46        		.uleb128 0x46
 7597 03ca 34        		.uleb128 0x34
 7598 03cb 00        		.byte	0x0
 7599 03cc 03        		.uleb128 0x3
 7600 03cd 0E        		.uleb128 0xe
 7601 03ce 3A        		.uleb128 0x3a
 7602 03cf 0B        		.uleb128 0xb
 7603 03d0 3B        		.uleb128 0x3b
 7604 03d1 0B        		.uleb128 0xb
 7605 03d2 49        		.uleb128 0x49
 7606 03d3 13        		.uleb128 0x13
 7607 03d4 3F        		.uleb128 0x3f
 7608 03d5 0C        		.uleb128 0xc
 7609 03d6 02        		.uleb128 0x2
 7610 03d7 0A        		.uleb128 0xa
 7611 03d8 00        		.byte	0x0
 7612 03d9 00        		.byte	0x0
 7613 03da 00        		.byte	0x0
GAS LISTING C:\Users\ADMINI~1\AppData\Local\Temp/ccnPzUe6.s 			page 137


 7614               		.section	.debug_pubnames,"",@progbits
 7615 0000 4406 0000 		.long	0x644
 7616 0004 0200      		.word	0x2
 7617 0006 0000 0000 		.long	.Ldebug_info0
 7618 000a C917 0000 		.long	0x17c9
 7619 000e 5908 0000 		.long	0x859
 7620 0012 7365 7457 		.string	"setWillStartKeyMapping"
 7620      696C 6C53 
 7620      7461 7274 
 7620      4B65 794D 
 7620      6170 7069 
 7621 0029 6908 0000 		.long	0x869
 7622 002d 6973 4B65 		.string	"isKeyMapping"
 7622      794D 6170 
 7622      7069 6E67 
 7622      00
 7623 003a 7908 0000 		.long	0x879
 7624 003e 6973 4465 		.string	"isDeepKeyMapping"
 7624      6570 4B65 
 7624      794D 6170 
 7624      7069 6E67 
 7624      00
 7625 004f 8908 0000 		.long	0x889
 7626 0053 6973 5265 		.string	"isReadyKeyMappingOnBoot"
 7626      6164 794B 
 7626      6579 4D61 
 7626      7070 696E 
 7626      674F 6E42 
 7627 006b A108 0000 		.long	0x8a1
 7628 006f 7265 6164 		.string	"readyKeyMappingOnBoot"
 7628      794B 6579 
 7628      4D61 7070 
 7628      696E 674F 
 7628      6E42 6F6F 
 7629 0085 B508 0000 		.long	0x8b5
 7630 0089 7374 6F70 		.string	"stopKeyMapping"
 7630      4B65 794D 
 7630      6170 7069 
 7630      6E67 00
 7631 0098 C508 0000 		.long	0x8c5
 7632 009c 6973 4D61 		.string	"isMacroKey"
 7632      6372 6F4B 
 7632      6579 00
 7633 00a7 E308 0000 		.long	0x8e3
 7634 00ab 6573 6361 		.string	"escapeMacroKeycode"
 7634      7065 4D61 
 7634      6372 6F4B 
 7634      6579 636F 
 7634      6465 00
 7635 00be 1709 0000 		.long	0x917
 7636 00c2 6973 4D61 		.string	"isMacroInput"
 7636      6372 6F49 
 7636      6E70 7574 
 7636      00
 7637 00cf 4409 0000 		.long	0x944
 7638 00d3 6170 706C 		.string	"applyKeyMapping"
 7638      794B 6579 
GAS LISTING C:\Users\ADMINI~1\AppData\Local\Temp/ccnPzUe6.s 			page 138


 7638      4D61 7070 
 7638      696E 6700 
 7639 00e3 7909 0000 		.long	0x979
 7640 00e7 7265 7365 		.string	"resetMacroInput"
 7640      744D 6163 
 7640      726F 496E 
 7640      7075 7400 
 7641 00f7 510A 0000 		.long	0xa51
 7642 00fb 7265 7365 		.string	"resetCurrentLayer"
 7642      7443 7572 
 7642      7265 6E74 
 7642      4C61 7965 
 7642      7200 
 7643 010d 7F0A 0000 		.long	0xa7f
 7644 0111 636C 6561 		.string	"clearMacro"
 7644      724D 6163 
 7644      726F 00
 7645 011c 940A 0000 		.long	0xa94
 7646 0120 7361 7665 		.string	"saveCurrentLayer"
 7646      4375 7272 
 7646      656E 744C 
 7646      6179 6572 
 7646      00
 7647 0131 BE0A 0000 		.long	0xabe
 7648 0135 7072 696E 		.string	"printPrepareString"
 7648      7450 7265 
 7648      7061 7265 
 7648      5374 7269 
 7648      6E67 00
 7649 0148 D30A 0000 		.long	0xad3
 7650 014c 7072 696E 		.string	"printMacroMessage"
 7650      744D 6163 
 7650      726F 4D65 
 7650      7373 6167 
 7650      6500 
 7651 015e E80A 0000 		.long	0xae8
 7652 0162 7072 696E 		.string	"printString"
 7652      7453 7472 
 7652      696E 6700 
 7653 016e 9F0B 0000 		.long	0xb9f
 7654 0172 7072 696E 		.string	"printMapperMessageAfter"
 7654      744D 6170 
 7654      7065 724D 
 7654      6573 7361 
 7654      6765 4166 
 7655 018a B40B 0000 		.long	0xbb4
 7656 018e 7072 696E 		.string	"printSelectMode"
 7656      7453 656C 
 7656      6563 744D 
 7656      6F64 6500 
 7657 019e C90B 0000 		.long	0xbc9
 7658 01a2 636C 6561 		.string	"clearMacroAfter"
 7658      724D 6163 
 7658      726F 4166 
 7658      7465 7200 
 7659 01b2 F90B 0000 		.long	0xbf9
 7660 01b6 7361 7665 		.string	"saveMacro"
GAS LISTING C:\Users\ADMINI~1\AppData\Local\Temp/ccnPzUe6.s 			page 139


 7660      4D61 6372 
 7660      6F00 
 7661 01c0 510C 0000 		.long	0xc51
 7662 01c4 7265 6164 		.string	"readMacro"
 7662      4D61 6372 
 7662      6F00 
 7663 01ce AD0C 0000 		.long	0xcad
 7664 01d2 6C6F 6164 		.string	"loadCurrentLayer"
 7664      4375 7272 
 7664      656E 744C 
 7664      6179 6572 
 7664      00
 7665 01e3 E70C 0000 		.long	0xce7
 7666 01e7 7075 744B 		.string	"putKeyCode"
 7666      6579 436F 
 7666      6465 00
 7667 01f2 920E 0000 		.long	0xe92
 7668 01f6 7361 7665 		.string	"saveCurrentLayerAfter"
 7668      4375 7272 
 7668      656E 744C 
 7668      6179 6572 
 7668      4166 7465 
 7669 020c E80E 0000 		.long	0xee8
 7670 0210 7072 6570 		.string	"prepareKeyMapper"
 7670      6172 654B 
 7670      6579 4D61 
 7670      7070 6572 
 7670      00
 7671 0221 FD0E 0000 		.long	0xefd
 7672 0225 6765 7443 		.string	"getCurrentKeycode"
 7672      7572 7265 
 7672      6E74 4B65 
 7672      7963 6F64 
 7672      6500 
 7673 0237 9F0F 0000 		.long	0xf9f
 7674 023b 6170 706C 		.string	"applyMacro"
 7674      794D 6163 
 7674      726F 00
 7675 0246 EF0F 0000 		.long	0xfef
 7676 024a 7374 6172 		.string	"startKeyMapping"
 7676      744B 6579 
 7676      4D61 7070 
 7676      696E 6700 
 7677 025a 2610 0000 		.long	0x1026
 7678 025e 7072 6570 		.string	"prepareKeyMapping"
 7678      6172 654B 
 7678      6579 4D61 
 7678      7070 696E 
 7678      6700 
 7679 0270 4E10 0000 		.long	0x104e
 7680 0274 636F 756E 		.string	"countKeyMappingEnabled"
 7680      744B 6579 
 7680      4D61 7070 
 7680      696E 6745 
 7680      6E61 626C 
 7681 028b 6210 0000 		.long	0x1062
 7682 028f 656E 7465 		.string	"enterFrameForMapper"
GAS LISTING C:\Users\ADMINI~1\AppData\Local\Temp/ccnPzUe6.s 			page 140


 7682      7246 7261 
 7682      6D65 466F 
 7682      724D 6170 
 7682      7065 7200 
 7683 02a3 7610 0000 		.long	0x1076
 7684 02a7 7374 6172 		.string	"startKeyMappingOnBoot"
 7684      744B 6579 
 7684      4D61 7070 
 7684      696E 674F 
 7684      6E42 6F6F 
 7685 02bd 2F12 0000 		.long	0x122f
 7686 02c1 7374 725F 		.string	"str_select_mode"
 7686      7365 6C65 
 7686      6374 5F6D 
 7686      6F64 6500 
 7687 02d1 5612 0000 		.long	0x1256
 7688 02d5 7374 725F 		.string	"str_select_mode1"
 7688      7365 6C65 
 7688      6374 5F6D 
 7688      6F64 6531 
 7688      00
 7689 02e6 7D12 0000 		.long	0x127d
 7690 02ea 7374 725F 		.string	"str_select_mode2"
 7690      7365 6C65 
 7690      6374 5F6D 
 7690      6F64 6532 
 7690      00
 7691 02fb A412 0000 		.long	0x12a4
 7692 02ff 7374 725F 		.string	"str_select_mode3"
 7692      7365 6C65 
 7692      6374 5F6D 
 7692      6F64 6533 
 7692      00
 7693 0310 BB12 0000 		.long	0x12bb
 7694 0314 7374 725F 		.string	"str_select_mode4"
 7694      7365 6C65 
 7694      6374 5F6D 
 7694      6F64 6534 
 7694      00
 7695 0325 E212 0000 		.long	0x12e2
 7696 0329 7374 725F 		.string	"str_exit"
 7696      6578 6974 
 7696      00
 7697 0332 0913 0000 		.long	0x1309
 7698 0336 7374 725F 		.string	"str_boot_mapper"
 7698      626F 6F74 
 7698      5F6D 6170 
 7698      7065 7200 
 7699 0346 3013 0000 		.long	0x1330
 7700 034a 7374 725F 		.string	"str_macro_message"
 7700      6D61 6372 
 7700      6F5F 6D65 
 7700      7373 6167 
 7700      6500 
 7701 035c 5713 0000 		.long	0x1357
 7702 0360 7374 725F 		.string	"str_macro_1"
 7702      6D61 6372 
GAS LISTING C:\Users\ADMINI~1\AppData\Local\Temp/ccnPzUe6.s 			page 141


 7702      6F5F 3100 
 7703 036c 6E13 0000 		.long	0x136e
 7704 0370 7374 725F 		.string	"str_macro_2"
 7704      6D61 6372 
 7704      6F5F 3200 
 7705 037c 8513 0000 		.long	0x1385
 7706 0380 7374 725F 		.string	"str_macro_9"
 7706      6D61 6372 
 7706      6F5F 3900 
 7707 038c 9C13 0000 		.long	0x139c
 7708 0390 7374 725F 		.string	"str_back_6"
 7708      6261 636B 
 7708      5F36 00
 7709 039b C313 0000 		.long	0x13c3
 7710 039f 7374 725F 		.string	"str_mapper_message"
 7710      6D61 7070 
 7710      6572 5F6D 
 7710      6573 7361 
 7710      6765 00
 7711 03b2 EA13 0000 		.long	0x13ea
 7712 03b6 7374 725F 		.string	"str_mapper_1"
 7712      6D61 7070 
 7712      6572 5F31 
 7712      00
 7713 03c3 1114 0000 		.long	0x1411
 7714 03c7 7374 725F 		.string	"str_mapper_2"
 7714      6D61 7070 
 7714      6572 5F32 
 7714      00
 7715 03d4 3814 0000 		.long	0x1438
 7716 03d8 7374 725F 		.string	"str_mapper_3"
 7716      6D61 7070 
 7716      6572 5F33 
 7716      00
 7717 03e5 5F14 0000 		.long	0x145f
 7718 03e9 7374 725F 		.string	"str_mapper_4"
 7718      6D61 7070 
 7718      6572 5F34 
 7718      00
 7719 03f6 8614 0000 		.long	0x1486
 7720 03fa 7374 725F 		.string	"str_mapper_9"
 7720      6D61 7070 
 7720      6572 5F39 
 7720      00
 7721 0407 9D14 0000 		.long	0x149d
 7722 040b 7374 725F 		.string	"str_prepare_message"
 7722      7072 6570 
 7722      6172 655F 
 7722      6D65 7373 
 7722      6167 6500 
 7723 041f C414 0000 		.long	0x14c4
 7724 0423 7374 725F 		.string	"str_choose_layer"
 7724      6368 6F6F 
 7724      7365 5F6C 
 7724      6179 6572 
 7724      00
 7725 0434 EB14 0000 		.long	0x14eb
GAS LISTING C:\Users\ADMINI~1\AppData\Local\Temp/ccnPzUe6.s 			page 142


 7726 0438 7374 725F 		.string	"str_choose_key"
 7726      6368 6F6F 
 7726      7365 5F6B 
 7726      6579 00
 7727 0447 1215 0000 		.long	0x1512
 7728 044b 7374 725F 		.string	"str_input_keycode"
 7728      696E 7075 
 7728      745F 6B65 
 7728      7963 6F64 
 7728      6500 
 7729 045d 3915 0000 		.long	0x1539
 7730 0461 7374 725F 		.string	"str_save_end_mapping"
 7730      7361 7665 
 7730      5F65 6E64 
 7730      5F6D 6170 
 7730      7069 6E67 
 7731 0476 6015 0000 		.long	0x1560
 7732 047a 7374 725F 		.string	"str_cancel_mapping"
 7732      6361 6E63 
 7732      656C 5F6D 
 7732      6170 7069 
 7732      6E67 00
 7733 048d 7715 0000 		.long	0x1577
 7734 0491 7374 725F 		.string	"str_reset_mapping"
 7734      7265 7365 
 7734      745F 6D61 
 7734      7070 696E 
 7734      6700 
 7735 04a3 9E15 0000 		.long	0x159e
 7736 04a7 7374 725F 		.string	"str_input_command"
 7736      696E 7075 
 7736      745F 636F 
 7736      6D6D 616E 
 7736      6400 
 7737 04b9 B515 0000 		.long	0x15b5
 7738 04bd 7374 725F 		.string	"str_nothing"
 7738      6E6F 7468 
 7738      696E 6700 
 7739 04c9 CC15 0000 		.long	0x15cc
 7740 04cd 7374 725F 		.string	"str_save_layer"
 7740      7361 7665 
 7740      5F6C 6179 
 7740      6572 00
 7741 04dc E315 0000 		.long	0x15e3
 7742 04e0 7374 725F 		.string	"str_load_layer"
 7742      6C6F 6164 
 7742      5F6C 6179 
 7742      6572 00
 7743 04ef FA15 0000 		.long	0x15fa
 7744 04f3 7374 725F 		.string	"str_saving"
 7744      7361 7669 
 7744      6E67 00
 7745 04fe 1116 0000 		.long	0x1611
 7746 0502 7374 725F 		.string	"str_col_row"
 7746      636F 6C5F 
 7746      726F 7700 
 7747 050e 3816 0000 		.long	0x1638
GAS LISTING C:\Users\ADMINI~1\AppData\Local\Temp/ccnPzUe6.s 			page 143


 7748 0512 7374 725F 		.string	"str_invalid_keycode"
 7748      696E 7661 
 7748      6C69 645F 
 7748      6B65 7963 
 7748      6F64 6500 
 7749 0526 5F16 0000 		.long	0x165f
 7750 052a 7374 725F 		.string	"str_select_number"
 7750      7365 6C65 
 7750      6374 5F6E 
 7750      756D 6265 
 7750      7200 
 7751 053c 8616 0000 		.long	0x1686
 7752 0540 7374 725F 		.string	"str_exit_macro"
 7752      6578 6974 
 7752      5F6D 6163 
 7752      726F 00
 7753 054f AD16 0000 		.long	0x16ad
 7754 0553 7374 725F 		.string	"str_input_macro"
 7754      696E 7075 
 7754      745F 6D61 
 7754      6372 6F00 
 7755 0563 D416 0000 		.long	0x16d4
 7756 0567 7374 725F 		.string	"str_invalid_macro_number"
 7756      696E 7661 
 7756      6C69 645F 
 7756      6D61 6372 
 7756      6F5F 6E75 
 7757 0580 FB16 0000 		.long	0x16fb
 7758 0584 7374 725F 		.string	"str_clear_all_macro"
 7758      636C 6561 
 7758      725F 616C 
 7758      6C5F 6D61 
 7758      6372 6F00 
 7759 0598 1217 0000 		.long	0x1712
 7760 059c 5F6D 6163 		.string	"_macroIndex"
 7760      726F 496E 
 7760      6465 7800 
 7761 05a8 2417 0000 		.long	0x1724
 7762 05ac 5F6D 6163 		.string	"_macroBufferIndex"
 7762      726F 4275 
 7762      6666 6572 
 7762      496E 6465 
 7762      7800 
 7763 05be 4617 0000 		.long	0x1746
 7764 05c2 5F6D 6163 		.string	"_macroPressedBuffer"
 7764      726F 5072 
 7764      6573 7365 
 7764      6442 7566 
 7764      6665 7200 
 7765 05d6 5817 0000 		.long	0x1758
 7766 05da 5F6D 6163 		.string	"_macroInputBuffer"
 7766      726F 496E 
 7766      7075 7442 
 7766      7566 6665 
 7766      7200 
 7767 05ec 6A17 0000 		.long	0x176a
 7768 05f0 5F70 7265 		.string	"_pressedEscapeKeyCount"
GAS LISTING C:\Users\ADMINI~1\AppData\Local\Temp/ccnPzUe6.s 			page 144


 7768      7373 6564 
 7768      4573 6361 
 7768      7065 4B65 
 7768      7943 6F75 
 7769 0607 7C17 0000 		.long	0x177c
 7770 060b 5F69 7350 		.string	"_isPressedEscapeKey"
 7770      7265 7373 
 7770      6564 4573 
 7770      6361 7065 
 7770      4B65 7900 
 7771 061f 8E17 0000 		.long	0x178e
 7772 0623 5F69 7354 		.string	"_isTiredEscapeKey"
 7772      6972 6564 
 7772      4573 6361 
 7772      7065 4B65 
 7772      7900 
 7773 0635 B617 0000 		.long	0x17b6
 7774 0639 5F6E 6577 		.string	"_newKeyMap"
 7774      4B65 794D 
 7774      6170 00
 7775 0644 0000 0000 		.long	0x0
 7776               		.section	.debug_aranges,"",@progbits
 7777 0000 1C00 0000 		.long	0x1c
 7778 0004 0200      		.word	0x2
 7779 0006 0000 0000 		.long	.Ldebug_info0
 7780 000a 04        		.byte	0x4
 7781 000b 00        		.byte	0x0
 7782 000c 0000      		.word	0x0
 7783 000e 0000      		.word	0x0
 7784 0010 0000 0000 		.long	.Ltext0
 7785 0014 100F 0000 		.long	.Letext0-.Ltext0
 7786 0018 0000 0000 		.long	0x0
 7787 001c 0000 0000 		.long	0x0
 7788               		.section	.debug_line
 7789 0000 5B0F 0000 		.long	.LELT0-.LSLT0
 7790               	.LSLT0:
 7791 0004 0200      		.word	0x2
 7792 0006 F500 0000 		.long	.LELTP0-.LASLTP0
 7793               	.LASLTP0:
 7794 000a 01        		.byte	0x1
 7795 000b 01        		.byte	0x1
 7796 000c F6        		.byte	0xf6
 7797 000d F5        		.byte	0xf5
 7798 000e 0A        		.byte	0xa
 7799 000f 00        		.byte	0x0
 7800 0010 01        		.byte	0x1
 7801 0011 01        		.byte	0x1
 7802 0012 01        		.byte	0x1
 7803 0013 01        		.byte	0x1
 7804 0014 00        		.byte	0x0
 7805 0015 00        		.byte	0x0
 7806 0016 00        		.byte	0x0
 7807 0017 01        		.byte	0x1
 7808 0018 633A 2F77 		.ascii	"c:/winavr-20100110/lib/gcc/../../avr/include"
 7808      696E 6176 
 7808      722D 3230 
 7808      3130 3031 
GAS LISTING C:\Users\ADMINI~1\AppData\Local\Temp/ccnPzUe6.s 			page 145


 7808      3130 2F6C 
 7809 0044 00        		.byte	0
 7810 0045 633A 2F77 		.ascii	"c:/winavr-20100110/lib/gcc/../../avr/include/util"
 7810      696E 6176 
 7810      722D 3230 
 7810      3130 3031 
 7810      3130 2F6C 
 7811 0076 00        		.byte	0
 7812 0077 00        		.byte	0x0
 7813 0078 6B65 796D 		.string	"keymapper.c"
 7813      6170 7065 
 7813      722E 6300 
 7814 0084 00        		.uleb128 0x0
 7815 0085 00        		.uleb128 0x0
 7816 0086 00        		.uleb128 0x0
 7817 0087 7574 696C 		.string	"util/delay_basic.h"
 7817      2F64 656C 
 7817      6179 5F62 
 7817      6173 6963 
 7817      2E68 00
 7818 009a 01        		.uleb128 0x1
 7819 009b 00        		.uleb128 0x0
 7820 009c 00        		.uleb128 0x0
 7821 009d 7574 696C 		.string	"util/delay.h"
 7821      2F64 656C 
 7821      6179 2E68 
 7821      00
 7822 00aa 01        		.uleb128 0x1
 7823 00ab 00        		.uleb128 0x0
 7824 00ac 00        		.uleb128 0x0
 7825 00ad 7374 6469 		.string	"stdint.h"
 7825      6E74 2E68 
 7825      00
 7826 00b6 01        		.uleb128 0x1
 7827 00b7 00        		.uleb128 0x0
 7828 00b8 00        		.uleb128 0x0
 7829 00b9 7374 6469 		.string	"stdio.h"
 7829      6F2E 6800 
 7830 00c1 01        		.uleb128 0x1
 7831 00c2 00        		.uleb128 0x0
 7832 00c3 00        		.uleb128 0x0
 7833 00c4 6B65 796D 		.string	"keymap.h"
 7833      6170 2E68 
 7833      00
 7834 00cd 00        		.uleb128 0x0
 7835 00ce 00        		.uleb128 0x0
 7836 00cf 00        		.uleb128 0x0
 7837 00d0 6D61 6372 		.string	"macrobuffer.h"
 7837      6F62 7566 
 7837      6665 722E 
 7837      6800 
 7838 00de 00        		.uleb128 0x0
 7839 00df 00        		.uleb128 0x0
 7840 00e0 00        		.uleb128 0x0
 7841 00e1 7072 696E 		.string	"print.h"
 7841      742E 6800 
 7842 00e9 00        		.uleb128 0x0
GAS LISTING C:\Users\ADMINI~1\AppData\Local\Temp/ccnPzUe6.s 			page 146


 7843 00ea 00        		.uleb128 0x0
 7844 00eb 00        		.uleb128 0x0
 7845 00ec 6861 7264 		.string	"hardwareinfo.h"
 7845      7761 7265 
 7845      696E 666F 
 7845      2E68 00
 7846 00fb 00        		.uleb128 0x0
 7847 00fc 00        		.uleb128 0x0
 7848 00fd 00        		.uleb128 0x0
 7849 00fe 00        		.byte	0x0
 7850               	.LELTP0:
 7851 00ff 00        		.byte	0x0
 7852 0100 05        		.uleb128 0x5
 7853 0101 02        		.byte	0x2
 7854 0102 0000 0000 		.long	.LM1
 7855 0106 86        		.byte	0x86
 7856 0107 00        		.byte	0x0
 7857 0108 05        		.uleb128 0x5
 7858 0109 02        		.byte	0x2
 7859 010a 0000 0000 		.long	.LM2
 7860 010e 15        		.byte	0x15
 7861 010f 00        		.byte	0x0
 7862 0110 05        		.uleb128 0x5
 7863 0111 02        		.byte	0x2
 7864 0112 0000 0000 		.long	.LM3
 7865 0116 15        		.byte	0x15
 7866 0117 00        		.byte	0x0
 7867 0118 05        		.uleb128 0x5
 7868 0119 02        		.byte	0x2
 7869 011a 0000 0000 		.long	.LM4
 7870 011e 16        		.byte	0x16
 7871 011f 00        		.byte	0x0
 7872 0120 05        		.uleb128 0x5
 7873 0121 02        		.byte	0x2
 7874 0122 0000 0000 		.long	.LM5
 7875 0126 01        		.byte	0x1
 7876 0127 00        		.byte	0x0
 7877 0128 05        		.uleb128 0x5
 7878 0129 02        		.byte	0x2
 7879 012a 0000 0000 		.long	.LM6
 7880 012e 16        		.byte	0x16
 7881 012f 00        		.byte	0x0
 7882 0130 05        		.uleb128 0x5
 7883 0131 02        		.byte	0x2
 7884 0132 0000 0000 		.long	.LM7
 7885 0136 15        		.byte	0x15
 7886 0137 00        		.byte	0x0
 7887 0138 05        		.uleb128 0x5
 7888 0139 02        		.byte	0x2
 7889 013a 0000 0000 		.long	.LM8
 7890 013e 01        		.byte	0x1
 7891 013f 00        		.byte	0x0
 7892 0140 05        		.uleb128 0x5
 7893 0141 02        		.byte	0x2
 7894 0142 0000 0000 		.long	.LM9
 7895 0146 16        		.byte	0x16
 7896 0147 00        		.byte	0x0
GAS LISTING C:\Users\ADMINI~1\AppData\Local\Temp/ccnPzUe6.s 			page 147


 7897 0148 05        		.uleb128 0x5
 7898 0149 02        		.byte	0x2
 7899 014a 0000 0000 		.long	.LM10
 7900 014e 41        		.byte	0x41
 7901 014f 00        		.byte	0x0
 7902 0150 05        		.uleb128 0x5
 7903 0151 02        		.byte	0x2
 7904 0152 0000 0000 		.long	.LM11
 7905 0156 16        		.byte	0x16
 7906 0157 00        		.byte	0x0
 7907 0158 05        		.uleb128 0x5
 7908 0159 02        		.byte	0x2
 7909 015a 0000 0000 		.long	.LM12
 7910 015e 18        		.byte	0x18
 7911 015f 00        		.byte	0x0
 7912 0160 05        		.uleb128 0x5
 7913 0161 02        		.byte	0x2
 7914 0162 0000 0000 		.long	.LM13
 7915 0166 15        		.byte	0x15
 7916 0167 00        		.byte	0x0
 7917 0168 05        		.uleb128 0x5
 7918 0169 02        		.byte	0x2
 7919 016a 0000 0000 		.long	.LM14
 7920 016e 16        		.byte	0x16
 7921 016f 00        		.byte	0x0
 7922 0170 05        		.uleb128 0x5
 7923 0171 02        		.byte	0x2
 7924 0172 0000 0000 		.long	.LM15
 7925 0176 33        		.byte	0x33
 7926 0177 00        		.byte	0x0
 7927 0178 05        		.uleb128 0x5
 7928 0179 02        		.byte	0x2
 7929 017a 0000 0000 		.long	.LM16
 7930 017e 15        		.byte	0x15
 7931 017f 00        		.byte	0x0
 7932 0180 05        		.uleb128 0x5
 7933 0181 02        		.byte	0x2
 7934 0182 0000 0000 		.long	.LM17
 7935 0186 15        		.byte	0x15
 7936 0187 00        		.byte	0x0
 7937 0188 05        		.uleb128 0x5
 7938 0189 02        		.byte	0x2
 7939 018a 0000 0000 		.long	.LM18
 7940 018e 16        		.byte	0x16
 7941 018f 00        		.byte	0x0
 7942 0190 05        		.uleb128 0x5
 7943 0191 02        		.byte	0x2
 7944 0192 0000 0000 		.long	.LM19
 7945 0196 4B        		.byte	0x4b
 7946 0197 00        		.byte	0x0
 7947 0198 05        		.uleb128 0x5
 7948 0199 02        		.byte	0x2
 7949 019a 0000 0000 		.long	.LM20
 7950 019e 01        		.byte	0x1
 7951 019f 00        		.byte	0x0
 7952 01a0 05        		.uleb128 0x5
 7953 01a1 02        		.byte	0x2
GAS LISTING C:\Users\ADMINI~1\AppData\Local\Temp/ccnPzUe6.s 			page 148


 7954 01a2 0000 0000 		.long	.LM21
 7955 01a6 1A        		.byte	0x1a
 7956 01a7 00        		.byte	0x0
 7957 01a8 05        		.uleb128 0x5
 7958 01a9 02        		.byte	0x2
 7959 01aa 0000 0000 		.long	.LM22
 7960 01ae 16        		.byte	0x16
 7961 01af 00        		.byte	0x0
 7962 01b0 05        		.uleb128 0x5
 7963 01b1 02        		.byte	0x2
 7964 01b2 0000 0000 		.long	.LM23
 7965 01b6 0D        		.byte	0xd
 7966 01b7 00        		.byte	0x0
 7967 01b8 05        		.uleb128 0x5
 7968 01b9 02        		.byte	0x2
 7969 01ba 0000 0000 		.long	.LM24
 7970 01be 20        		.byte	0x20
 7971 01bf 00        		.byte	0x0
 7972 01c0 05        		.uleb128 0x5
 7973 01c1 02        		.byte	0x2
 7974 01c2 0000 0000 		.long	.LM25
 7975 01c6 03        		.byte	0x3
 7976 01c7 8803      		.sleb128 392
 7977 01c9 01        		.byte	0x1
 7978 01ca 00        		.byte	0x0
 7979 01cb 05        		.uleb128 0x5
 7980 01cc 02        		.byte	0x2
 7981 01cd 0000 0000 		.long	.LM26
 7982 01d1 01        		.byte	0x1
 7983 01d2 00        		.byte	0x0
 7984 01d3 05        		.uleb128 0x5
 7985 01d4 02        		.byte	0x2
 7986 01d5 0000 0000 		.long	.LM27
 7987 01d9 1A        		.byte	0x1a
 7988 01da 00        		.byte	0x0
 7989 01db 05        		.uleb128 0x5
 7990 01dc 02        		.byte	0x2
 7991 01dd 0000 0000 		.long	.LM28
 7992 01e1 03        		.byte	0x3
 7993 01e2 A57D      		.sleb128 -347
 7994 01e4 01        		.byte	0x1
 7995 01e5 00        		.byte	0x0
 7996 01e6 05        		.uleb128 0x5
 7997 01e7 02        		.byte	0x2
 7998 01e8 0000 0000 		.long	.LM29
 7999 01ec 15        		.byte	0x15
 8000 01ed 00        		.byte	0x0
 8001 01ee 05        		.uleb128 0x5
 8002 01ef 02        		.byte	0x2
 8003 01f0 0000 0000 		.long	.LM30
 8004 01f4 15        		.byte	0x15
 8005 01f5 00        		.byte	0x0
 8006 01f6 05        		.uleb128 0x5
 8007 01f7 02        		.byte	0x2
 8008 01f8 0000 0000 		.long	.LM31
 8009 01fc 15        		.byte	0x15
 8010 01fd 00        		.byte	0x0
GAS LISTING C:\Users\ADMINI~1\AppData\Local\Temp/ccnPzUe6.s 			page 149


 8011 01fe 05        		.uleb128 0x5
 8012 01ff 02        		.byte	0x2
 8013 0200 0000 0000 		.long	.LM32
 8014 0204 03        		.byte	0x3
 8015 0205 AF7E      		.sleb128 -209
 8016 0207 01        		.byte	0x1
 8017 0208 00        		.byte	0x0
 8018 0209 05        		.uleb128 0x5
 8019 020a 02        		.byte	0x2
 8020 020b 0000 0000 		.long	.LM33
 8021 020f 0E        		.byte	0xe
 8022 0210 00        		.byte	0x0
 8023 0211 05        		.uleb128 0x5
 8024 0212 02        		.byte	0x2
 8025 0213 0000 0000 		.long	.LM34
 8026 0217 1B        		.byte	0x1b
 8027 0218 00        		.byte	0x0
 8028 0219 05        		.uleb128 0x5
 8029 021a 02        		.byte	0x2
 8030 021b 0000 0000 		.long	.LM35
 8031 021f 16        		.byte	0x16
 8032 0220 00        		.byte	0x0
 8033 0221 05        		.uleb128 0x5
 8034 0222 02        		.byte	0x2
 8035 0223 0000 0000 		.long	.LM36
 8036 0227 16        		.byte	0x16
 8037 0228 00        		.byte	0x0
 8038 0229 05        		.uleb128 0x5
 8039 022a 02        		.byte	0x2
 8040 022b 0000 0000 		.long	.LM37
 8041 022f 15        		.byte	0x15
 8042 0230 00        		.byte	0x0
 8043 0231 05        		.uleb128 0x5
 8044 0232 02        		.byte	0x2
 8045 0233 0000 0000 		.long	.LM38
 8046 0237 15        		.byte	0x15
 8047 0238 00        		.byte	0x0
 8048 0239 05        		.uleb128 0x5
 8049 023a 02        		.byte	0x2
 8050 023b 0000 0000 		.long	.LM39
 8051 023f 16        		.byte	0x16
 8052 0240 00        		.byte	0x0
 8053 0241 05        		.uleb128 0x5
 8054 0242 02        		.byte	0x2
 8055 0243 0000 0000 		.long	.LM40
 8056 0247 15        		.byte	0x15
 8057 0248 00        		.byte	0x0
 8058 0249 05        		.uleb128 0x5
 8059 024a 02        		.byte	0x2
 8060 024b 0000 0000 		.long	.LM41
 8061 024f 17        		.byte	0x17
 8062 0250 00        		.byte	0x0
 8063 0251 05        		.uleb128 0x5
 8064 0252 02        		.byte	0x2
 8065 0253 0000 0000 		.long	.LM42
 8066 0257 15        		.byte	0x15
 8067 0258 00        		.byte	0x0
GAS LISTING C:\Users\ADMINI~1\AppData\Local\Temp/ccnPzUe6.s 			page 150


 8068 0259 05        		.uleb128 0x5
 8069 025a 02        		.byte	0x2
 8070 025b 0000 0000 		.long	.LM43
 8071 025f 16        		.byte	0x16
 8072 0260 00        		.byte	0x0
 8073 0261 05        		.uleb128 0x5
 8074 0262 02        		.byte	0x2
 8075 0263 0000 0000 		.long	.LM44
 8076 0267 03        		.byte	0x3
 8077 0268 9C04      		.sleb128 540
 8078 026a 01        		.byte	0x1
 8079 026b 00        		.byte	0x0
 8080 026c 05        		.uleb128 0x5
 8081 026d 02        		.byte	0x2
 8082 026e 0000 0000 		.long	.LM45
 8083 0272 15        		.byte	0x15
 8084 0273 00        		.byte	0x0
 8085 0274 05        		.uleb128 0x5
 8086 0275 02        		.byte	0x2
 8087 0276 0000 0000 		.long	.LM46
 8088 027a 15        		.byte	0x15
 8089 027b 00        		.byte	0x0
 8090 027c 05        		.uleb128 0x5
 8091 027d 02        		.byte	0x2
 8092 027e 0000 0000 		.long	.LM47
 8093 0282 15        		.byte	0x15
 8094 0283 00        		.byte	0x0
 8095 0284 05        		.uleb128 0x5
 8096 0285 02        		.byte	0x2
 8097 0286 0000 0000 		.long	.LM48
 8098 028a 15        		.byte	0x15
 8099 028b 00        		.byte	0x0
 8100 028c 05        		.uleb128 0x5
 8101 028d 02        		.byte	0x2
 8102 028e 0000 0000 		.long	.LM49
 8103 0292 15        		.byte	0x15
 8104 0293 00        		.byte	0x0
 8105 0294 05        		.uleb128 0x5
 8106 0295 02        		.byte	0x2
 8107 0296 0000 0000 		.long	.LM50
 8108 029a 03        		.byte	0x3
 8109 029b 8A7D      		.sleb128 -374
 8110 029d 01        		.byte	0x1
 8111 029e 00        		.byte	0x0
 8112 029f 05        		.uleb128 0x5
 8113 02a0 02        		.byte	0x2
 8114 02a1 0000 0000 		.long	.LM51
 8115 02a5 18        		.byte	0x18
 8116 02a6 00        		.byte	0x0
 8117 02a7 05        		.uleb128 0x5
 8118 02a8 02        		.byte	0x2
 8119 02a9 0000 0000 		.long	.LM52
 8120 02ad 15        		.byte	0x15
 8121 02ae 00        		.byte	0x0
 8122 02af 05        		.uleb128 0x5
 8123 02b0 02        		.byte	0x2
 8124 02b1 0000 0000 		.long	.LM53
GAS LISTING C:\Users\ADMINI~1\AppData\Local\Temp/ccnPzUe6.s 			page 151


 8125 02b5 15        		.byte	0x15
 8126 02b6 00        		.byte	0x0
 8127 02b7 05        		.uleb128 0x5
 8128 02b8 02        		.byte	0x2
 8129 02b9 0000 0000 		.long	.LM54
 8130 02bd 16        		.byte	0x16
 8131 02be 00        		.byte	0x0
 8132 02bf 05        		.uleb128 0x5
 8133 02c0 02        		.byte	0x2
 8134 02c1 0000 0000 		.long	.LM55
 8135 02c5 15        		.byte	0x15
 8136 02c6 00        		.byte	0x0
 8137 02c7 05        		.uleb128 0x5
 8138 02c8 02        		.byte	0x2
 8139 02c9 0000 0000 		.long	.LM56
 8140 02cd 16        		.byte	0x16
 8141 02ce 00        		.byte	0x0
 8142 02cf 05        		.uleb128 0x5
 8143 02d0 02        		.byte	0x2
 8144 02d1 0000 0000 		.long	.LM57
 8145 02d5 15        		.byte	0x15
 8146 02d6 00        		.byte	0x0
 8147 02d7 05        		.uleb128 0x5
 8148 02d8 02        		.byte	0x2
 8149 02d9 0000 0000 		.long	.LM58
 8150 02dd 17        		.byte	0x17
 8151 02de 00        		.byte	0x0
 8152 02df 05        		.uleb128 0x5
 8153 02e0 02        		.byte	0x2
 8154 02e1 0000 0000 		.long	.LM59
 8155 02e5 2C        		.byte	0x2c
 8156 02e6 00        		.byte	0x0
 8157 02e7 05        		.uleb128 0x5
 8158 02e8 02        		.byte	0x2
 8159 02e9 0000 0000 		.long	.LM60
 8160 02ed 18        		.byte	0x18
 8161 02ee 00        		.byte	0x0
 8162 02ef 05        		.uleb128 0x5
 8163 02f0 02        		.byte	0x2
 8164 02f1 0000 0000 		.long	.LM61
 8165 02f5 16        		.byte	0x16
 8166 02f6 00        		.byte	0x0
 8167 02f7 05        		.uleb128 0x5
 8168 02f8 02        		.byte	0x2
 8169 02f9 0000 0000 		.long	.LM62
 8170 02fd 15        		.byte	0x15
 8171 02fe 00        		.byte	0x0
 8172 02ff 05        		.uleb128 0x5
 8173 0300 02        		.byte	0x2
 8174 0301 0000 0000 		.long	.LM63
 8175 0305 13        		.byte	0x13
 8176 0306 00        		.byte	0x0
 8177 0307 05        		.uleb128 0x5
 8178 0308 02        		.byte	0x2
 8179 0309 0000 0000 		.long	.LM64
 8180 030d 15        		.byte	0x15
 8181 030e 00        		.byte	0x0
GAS LISTING C:\Users\ADMINI~1\AppData\Local\Temp/ccnPzUe6.s 			page 152


 8182 030f 05        		.uleb128 0x5
 8183 0310 02        		.byte	0x2
 8184 0311 0000 0000 		.long	.LM65
 8185 0315 12        		.byte	0x12
 8186 0316 00        		.byte	0x0
 8187 0317 05        		.uleb128 0x5
 8188 0318 02        		.byte	0x2
 8189 0319 0000 0000 		.long	.LM66
 8190 031d 18        		.byte	0x18
 8191 031e 00        		.byte	0x0
 8192 031f 05        		.uleb128 0x5
 8193 0320 02        		.byte	0x2
 8194 0321 0000 0000 		.long	.LM67
 8195 0325 03        		.byte	0x3
 8196 0326 A902      		.sleb128 297
 8197 0328 01        		.byte	0x1
 8198 0329 00        		.byte	0x0
 8199 032a 05        		.uleb128 0x5
 8200 032b 02        		.byte	0x2
 8201 032c 0000 0000 		.long	.LM68
 8202 0330 15        		.byte	0x15
 8203 0331 00        		.byte	0x0
 8204 0332 05        		.uleb128 0x5
 8205 0333 02        		.byte	0x2
 8206 0334 0000 0000 		.long	.LM69
 8207 0338 15        		.byte	0x15
 8208 0339 00        		.byte	0x0
 8209 033a 05        		.uleb128 0x5
 8210 033b 02        		.byte	0x2
 8211 033c 0000 0000 		.long	.LM70
 8212 0340 1A        		.byte	0x1a
 8213 0341 00        		.byte	0x0
 8214 0342 05        		.uleb128 0x5
 8215 0343 02        		.byte	0x2
 8216 0344 0000 0000 		.long	.LM71
 8217 0348 12        		.byte	0x12
 8218 0349 00        		.byte	0x0
 8219 034a 05        		.uleb128 0x5
 8220 034b 02        		.byte	0x2
 8221 034c 0000 0000 		.long	.LM72
 8222 0350 13        		.byte	0x13
 8223 0351 00        		.byte	0x0
 8224 0352 05        		.uleb128 0x5
 8225 0353 02        		.byte	0x2
 8226 0354 0000 0000 		.long	.LM73
 8227 0358 1A        		.byte	0x1a
 8228 0359 00        		.byte	0x0
 8229 035a 05        		.uleb128 0x5
 8230 035b 02        		.byte	0x2
 8231 035c 0000 0000 		.long	.LM74
 8232 0360 16        		.byte	0x16
 8233 0361 00        		.byte	0x0
 8234 0362 05        		.uleb128 0x5
 8235 0363 02        		.byte	0x2
 8236 0364 0000 0000 		.long	.LM75
 8237 0368 03        		.byte	0x3
 8238 0369 68        		.sleb128 -24
GAS LISTING C:\Users\ADMINI~1\AppData\Local\Temp/ccnPzUe6.s 			page 153


 8239 036a 01        		.byte	0x1
 8240 036b 00        		.byte	0x0
 8241 036c 05        		.uleb128 0x5
 8242 036d 02        		.byte	0x2
 8243 036e 0000 0000 		.long	.LM76
 8244 0372 15        		.byte	0x15
 8245 0373 00        		.byte	0x0
 8246 0374 05        		.uleb128 0x5
 8247 0375 02        		.byte	0x2
 8248 0376 0000 0000 		.long	.LM77
 8249 037a 15        		.byte	0x15
 8250 037b 00        		.byte	0x0
 8251 037c 05        		.uleb128 0x5
 8252 037d 02        		.byte	0x2
 8253 037e 0000 0000 		.long	.LM78
 8254 0382 16        		.byte	0x16
 8255 0383 00        		.byte	0x0
 8256 0384 05        		.uleb128 0x5
 8257 0385 02        		.byte	0x2
 8258 0386 0000 0000 		.long	.LM79
 8259 038a 16        		.byte	0x16
 8260 038b 00        		.byte	0x0
 8261 038c 05        		.uleb128 0x5
 8262 038d 02        		.byte	0x2
 8263 038e 0000 0000 		.long	.LM80
 8264 0392 15        		.byte	0x15
 8265 0393 00        		.byte	0x0
 8266 0394 05        		.uleb128 0x5
 8267 0395 02        		.byte	0x2
 8268 0396 0000 0000 		.long	.LM81
 8269 039a 15        		.byte	0x15
 8270 039b 00        		.byte	0x0
 8271 039c 05        		.uleb128 0x5
 8272 039d 02        		.byte	0x2
 8273 039e 0000 0000 		.long	.LM82
 8274 03a2 03        		.byte	0x3
 8275 03a3 A47F      		.sleb128 -92
 8276 03a5 01        		.byte	0x1
 8277 03a6 00        		.byte	0x0
 8278 03a7 05        		.uleb128 0x5
 8279 03a8 02        		.byte	0x2
 8280 03a9 0000 0000 		.long	.LM83
 8281 03ad 15        		.byte	0x15
 8282 03ae 00        		.byte	0x0
 8283 03af 05        		.uleb128 0x5
 8284 03b0 02        		.byte	0x2
 8285 03b1 0000 0000 		.long	.LM84
 8286 03b5 03        		.byte	0x3
 8287 03b6 9E7D      		.sleb128 -354
 8288 03b8 01        		.byte	0x1
 8289 03b9 00        		.byte	0x0
 8290 03ba 05        		.uleb128 0x5
 8291 03bb 02        		.byte	0x2
 8292 03bc 0000 0000 		.long	.LM85
 8293 03c0 15        		.byte	0x15
 8294 03c1 00        		.byte	0x0
 8295 03c2 05        		.uleb128 0x5
GAS LISTING C:\Users\ADMINI~1\AppData\Local\Temp/ccnPzUe6.s 			page 154


 8296 03c3 02        		.byte	0x2
 8297 03c4 0000 0000 		.long	.LM86
 8298 03c8 03        		.byte	0x3
 8299 03c9 E602      		.sleb128 358
 8300 03cb 01        		.byte	0x1
 8301 03cc 00        		.byte	0x0
 8302 03cd 05        		.uleb128 0x5
 8303 03ce 02        		.byte	0x2
 8304 03cf 0000 0000 		.long	.LM87
 8305 03d3 15        		.byte	0x15
 8306 03d4 00        		.byte	0x0
 8307 03d5 05        		.uleb128 0x5
 8308 03d6 02        		.byte	0x2
 8309 03d7 0000 0000 		.long	.LM88
 8310 03db 16        		.byte	0x16
 8311 03dc 00        		.byte	0x0
 8312 03dd 05        		.uleb128 0x5
 8313 03de 02        		.byte	0x2
 8314 03df 0000 0000 		.long	.LM89
 8315 03e3 16        		.byte	0x16
 8316 03e4 00        		.byte	0x0
 8317 03e5 05        		.uleb128 0x5
 8318 03e6 02        		.byte	0x2
 8319 03e7 0000 0000 		.long	.LM90
 8320 03eb 15        		.byte	0x15
 8321 03ec 00        		.byte	0x0
 8322 03ed 05        		.uleb128 0x5
 8323 03ee 02        		.byte	0x2
 8324 03ef 0000 0000 		.long	.LM91
 8325 03f3 15        		.byte	0x15
 8326 03f4 00        		.byte	0x0
 8327 03f5 05        		.uleb128 0x5
 8328 03f6 02        		.byte	0x2
 8329 03f7 0000 0000 		.long	.LM92
 8330 03fb 03        		.byte	0x3
 8331 03fc B27F      		.sleb128 -78
 8332 03fe 01        		.byte	0x1
 8333 03ff 00        		.byte	0x0
 8334 0400 05        		.uleb128 0x5
 8335 0401 02        		.byte	0x2
 8336 0402 0000 0000 		.long	.LM93
 8337 0406 15        		.byte	0x15
 8338 0407 00        		.byte	0x0
 8339 0408 05        		.uleb128 0x5
 8340 0409 02        		.byte	0x2
 8341 040a 0000 0000 		.long	.LM94
 8342 040e 15        		.byte	0x15
 8343 040f 00        		.byte	0x0
 8344 0410 05        		.uleb128 0x5
 8345 0411 02        		.byte	0x2
 8346 0412 0000 0000 		.long	.LM95
 8347 0416 15        		.byte	0x15
 8348 0417 00        		.byte	0x0
 8349 0418 05        		.uleb128 0x5
 8350 0419 02        		.byte	0x2
 8351 041a 0000 0000 		.long	.LM96
 8352 041e 03        		.byte	0x3
GAS LISTING C:\Users\ADMINI~1\AppData\Local\Temp/ccnPzUe6.s 			page 155


 8353 041f 6D        		.sleb128 -19
 8354 0420 01        		.byte	0x1
 8355 0421 00        		.byte	0x0
 8356 0422 05        		.uleb128 0x5
 8357 0423 02        		.byte	0x2
 8358 0424 0000 0000 		.long	.LM97
 8359 0428 15        		.byte	0x15
 8360 0429 00        		.byte	0x0
 8361 042a 05        		.uleb128 0x5
 8362 042b 02        		.byte	0x2
 8363 042c 0000 0000 		.long	.LM98
 8364 0430 15        		.byte	0x15
 8365 0431 00        		.byte	0x0
 8366 0432 05        		.uleb128 0x5
 8367 0433 02        		.byte	0x2
 8368 0434 0000 0000 		.long	.LM99
 8369 0438 15        		.byte	0x15
 8370 0439 00        		.byte	0x0
 8371 043a 05        		.uleb128 0x5
 8372 043b 02        		.byte	0x2
 8373 043c 0000 0000 		.long	.LM100
 8374 0440 15        		.byte	0x15
 8375 0441 00        		.byte	0x0
 8376 0442 05        		.uleb128 0x5
 8377 0443 02        		.byte	0x2
 8378 0444 0000 0000 		.long	.LM101
 8379 0448 15        		.byte	0x15
 8380 0449 00        		.byte	0x0
 8381 044a 05        		.uleb128 0x5
 8382 044b 02        		.byte	0x2
 8383 044c 0000 0000 		.long	.LM102
 8384 0450 15        		.byte	0x15
 8385 0451 00        		.byte	0x0
 8386 0452 05        		.uleb128 0x5
 8387 0453 02        		.byte	0x2
 8388 0454 0000 0000 		.long	.LM103
 8389 0458 15        		.byte	0x15
 8390 0459 00        		.byte	0x0
 8391 045a 05        		.uleb128 0x5
 8392 045b 02        		.byte	0x2
 8393 045c 0000 0000 		.long	.LM104
 8394 0460 15        		.byte	0x15
 8395 0461 00        		.byte	0x0
 8396 0462 05        		.uleb128 0x5
 8397 0463 02        		.byte	0x2
 8398 0464 0000 0000 		.long	.LM105
 8399 0468 15        		.byte	0x15
 8400 0469 00        		.byte	0x0
 8401 046a 05        		.uleb128 0x5
 8402 046b 02        		.byte	0x2
 8403 046c 0000 0000 		.long	.LM106
 8404 0470 15        		.byte	0x15
 8405 0471 00        		.byte	0x0
 8406 0472 05        		.uleb128 0x5
 8407 0473 02        		.byte	0x2
 8408 0474 0000 0000 		.long	.LM107
 8409 0478 15        		.byte	0x15
GAS LISTING C:\Users\ADMINI~1\AppData\Local\Temp/ccnPzUe6.s 			page 156


 8410 0479 00        		.byte	0x0
 8411 047a 05        		.uleb128 0x5
 8412 047b 02        		.byte	0x2
 8413 047c 0000 0000 		.long	.LM108
 8414 0480 16        		.byte	0x16
 8415 0481 00        		.byte	0x0
 8416 0482 05        		.uleb128 0x5
 8417 0483 02        		.byte	0x2
 8418 0484 0000 0000 		.long	.LM109
 8419 0488 15        		.byte	0x15
 8420 0489 00        		.byte	0x0
 8421 048a 05        		.uleb128 0x5
 8422 048b 02        		.byte	0x2
 8423 048c 0000 0000 		.long	.LM110
 8424 0490 03        		.byte	0x3
 8425 0491 E27E      		.sleb128 -158
 8426 0493 01        		.byte	0x1
 8427 0494 00        		.byte	0x0
 8428 0495 05        		.uleb128 0x5
 8429 0496 02        		.byte	0x2
 8430 0497 0000 0000 		.long	.LM111
 8431 049b 01        		.byte	0x1
 8432 049c 00        		.byte	0x0
 8433 049d 05        		.uleb128 0x5
 8434 049e 02        		.byte	0x2
 8435 049f 0000 0000 		.long	.LM112
 8436 04a3 1C        		.byte	0x1c
 8437 04a4 00        		.byte	0x0
 8438 04a5 05        		.uleb128 0x5
 8439 04a6 02        		.byte	0x2
 8440 04a7 0000 0000 		.long	.LM113
 8441 04ab 15        		.byte	0x15
 8442 04ac 00        		.byte	0x0
 8443 04ad 05        		.uleb128 0x5
 8444 04ae 02        		.byte	0x2
 8445 04af 0000 0000 		.long	.LM114
 8446 04b3 10        		.byte	0x10
 8447 04b4 00        		.byte	0x0
 8448 04b5 05        		.uleb128 0x5
 8449 04b6 02        		.byte	0x2
 8450 04b7 0000 0000 		.long	.LM115
 8451 04bb 1B        		.byte	0x1b
 8452 04bc 00        		.byte	0x0
 8453 04bd 05        		.uleb128 0x5
 8454 04be 02        		.byte	0x2
 8455 04bf 0000 0000 		.long	.LM116
 8456 04c3 22        		.byte	0x22
 8457 04c4 00        		.byte	0x0
 8458 04c5 05        		.uleb128 0x5
 8459 04c6 02        		.byte	0x2
 8460 04c7 0000 0000 		.long	.LM117
 8461 04cb 18        		.byte	0x18
 8462 04cc 00        		.byte	0x0
 8463 04cd 05        		.uleb128 0x5
 8464 04ce 02        		.byte	0x2
 8465 04cf 0000 0000 		.long	.LM118
 8466 04d3 15        		.byte	0x15
GAS LISTING C:\Users\ADMINI~1\AppData\Local\Temp/ccnPzUe6.s 			page 157


 8467 04d4 00        		.byte	0x0
 8468 04d5 05        		.uleb128 0x5
 8469 04d6 02        		.byte	0x2
 8470 04d7 0000 0000 		.long	.LM119
 8471 04db 17        		.byte	0x17
 8472 04dc 00        		.byte	0x0
 8473 04dd 05        		.uleb128 0x5
 8474 04de 02        		.byte	0x2
 8475 04df 0000 0000 		.long	.LM120
 8476 04e3 16        		.byte	0x16
 8477 04e4 00        		.byte	0x0
 8478 04e5 05        		.uleb128 0x5
 8479 04e6 02        		.byte	0x2
 8480 04e7 0000 0000 		.long	.LM121
 8481 04eb 18        		.byte	0x18
 8482 04ec 00        		.byte	0x0
 8483 04ed 05        		.uleb128 0x5
 8484 04ee 02        		.byte	0x2
 8485 04ef 0000 0000 		.long	.LM122
 8486 04f3 18        		.byte	0x18
 8487 04f4 00        		.byte	0x0
 8488 04f5 05        		.uleb128 0x5
 8489 04f6 02        		.byte	0x2
 8490 04f7 0000 0000 		.long	.LM123
 8491 04fb 17        		.byte	0x17
 8492 04fc 00        		.byte	0x0
 8493 04fd 05        		.uleb128 0x5
 8494 04fe 02        		.byte	0x2
 8495 04ff 0000 0000 		.long	.LM124
 8496 0503 19        		.byte	0x19
 8497 0504 00        		.byte	0x0
 8498 0505 05        		.uleb128 0x5
 8499 0506 02        		.byte	0x2
 8500 0507 0000 0000 		.long	.LM125
 8501 050b 19        		.byte	0x19
 8502 050c 00        		.byte	0x0
 8503 050d 05        		.uleb128 0x5
 8504 050e 02        		.byte	0x2
 8505 050f 0000 0000 		.long	.LM126
 8506 0513 18        		.byte	0x18
 8507 0514 00        		.byte	0x0
 8508 0515 05        		.uleb128 0x5
 8509 0516 02        		.byte	0x2
 8510 0517 0000 0000 		.long	.LM127
 8511 051b 17        		.byte	0x17
 8512 051c 00        		.byte	0x0
 8513 051d 05        		.uleb128 0x5
 8514 051e 02        		.byte	0x2
 8515 051f 0000 0000 		.long	.LM128
 8516 0523 17        		.byte	0x17
 8517 0524 00        		.byte	0x0
 8518 0525 05        		.uleb128 0x5
 8519 0526 02        		.byte	0x2
 8520 0527 0000 0000 		.long	.LM129
 8521 052b 19        		.byte	0x19
 8522 052c 00        		.byte	0x0
 8523 052d 05        		.uleb128 0x5
GAS LISTING C:\Users\ADMINI~1\AppData\Local\Temp/ccnPzUe6.s 			page 158


 8524 052e 02        		.byte	0x2
 8525 052f 0000 0000 		.long	.LM130
 8526 0533 15        		.byte	0x15
 8527 0534 00        		.byte	0x0
 8528 0535 05        		.uleb128 0x5
 8529 0536 02        		.byte	0x2
 8530 0537 0000 0000 		.long	.LM131
 8531 053b 17        		.byte	0x17
 8532 053c 00        		.byte	0x0
 8533 053d 05        		.uleb128 0x5
 8534 053e 02        		.byte	0x2
 8535 053f 0000 0000 		.long	.LM132
 8536 0543 15        		.byte	0x15
 8537 0544 00        		.byte	0x0
 8538 0545 05        		.uleb128 0x5
 8539 0546 02        		.byte	0x2
 8540 0547 0000 0000 		.long	.LM133
 8541 054b 15        		.byte	0x15
 8542 054c 00        		.byte	0x0
 8543 054d 05        		.uleb128 0x5
 8544 054e 02        		.byte	0x2
 8545 054f 0000 0000 		.long	.LM134
 8546 0553 15        		.byte	0x15
 8547 0554 00        		.byte	0x0
 8548 0555 05        		.uleb128 0x5
 8549 0556 02        		.byte	0x2
 8550 0557 0000 0000 		.long	.LM135
 8551 055b 17        		.byte	0x17
 8552 055c 00        		.byte	0x0
 8553 055d 05        		.uleb128 0x5
 8554 055e 02        		.byte	0x2
 8555 055f 0000 0000 		.long	.LM136
 8556 0563 15        		.byte	0x15
 8557 0564 00        		.byte	0x0
 8558 0565 05        		.uleb128 0x5
 8559 0566 02        		.byte	0x2
 8560 0567 0000 0000 		.long	.LM137
 8561 056b 15        		.byte	0x15
 8562 056c 00        		.byte	0x0
 8563 056d 05        		.uleb128 0x5
 8564 056e 02        		.byte	0x2
 8565 056f 0000 0000 		.long	.LM138
 8566 0573 17        		.byte	0x17
 8567 0574 00        		.byte	0x0
 8568 0575 05        		.uleb128 0x5
 8569 0576 02        		.byte	0x2
 8570 0577 0000 0000 		.long	.LM139
 8571 057b 04        		.byte	0x4
 8572 057c 02        		.uleb128 0x2
 8573 057d 03        		.byte	0x3
 8574 057e C07D      		.sleb128 -320
 8575 0580 01        		.byte	0x1
 8576 0581 00        		.byte	0x0
 8577 0582 05        		.uleb128 0x5
 8578 0583 02        		.byte	0x2
 8579 0584 0000 0000 		.long	.LM140
 8580 0588 04        		.byte	0x4
GAS LISTING C:\Users\ADMINI~1\AppData\Local\Temp/ccnPzUe6.s 			page 159


 8581 0589 03        		.uleb128 0x3
 8582 058a 27        		.byte	0x27
 8583 058b 00        		.byte	0x0
 8584 058c 05        		.uleb128 0x5
 8585 058d 02        		.byte	0x2
 8586 058e 0000 0000 		.long	.LM141
 8587 0592 10        		.byte	0x10
 8588 0593 00        		.byte	0x0
 8589 0594 05        		.uleb128 0x5
 8590 0595 02        		.byte	0x2
 8591 0596 0000 0000 		.long	.LM142
 8592 059a 04        		.byte	0x4
 8593 059b 01        		.uleb128 0x1
 8594 059c 03        		.byte	0x3
 8595 059d B902      		.sleb128 313
 8596 059f 01        		.byte	0x1
 8597 05a0 00        		.byte	0x0
 8598 05a1 05        		.uleb128 0x5
 8599 05a2 02        		.byte	0x2
 8600 05a3 0000 0000 		.long	.LM143
 8601 05a7 28        		.byte	0x28
 8602 05a8 00        		.byte	0x0
 8603 05a9 05        		.uleb128 0x5
 8604 05aa 02        		.byte	0x2
 8605 05ab 0000 0000 		.long	.LM144
 8606 05af 15        		.byte	0x15
 8607 05b0 00        		.byte	0x0
 8608 05b1 05        		.uleb128 0x5
 8609 05b2 02        		.byte	0x2
 8610 05b3 0000 0000 		.long	.LM145
 8611 05b7 15        		.byte	0x15
 8612 05b8 00        		.byte	0x0
 8613 05b9 05        		.uleb128 0x5
 8614 05ba 02        		.byte	0x2
 8615 05bb 0000 0000 		.long	.LM146
 8616 05bf 15        		.byte	0x15
 8617 05c0 00        		.byte	0x0
 8618 05c1 05        		.uleb128 0x5
 8619 05c2 02        		.byte	0x2
 8620 05c3 0000 0000 		.long	.LM147
 8621 05c7 15        		.byte	0x15
 8622 05c8 00        		.byte	0x0
 8623 05c9 05        		.uleb128 0x5
 8624 05ca 02        		.byte	0x2
 8625 05cb 0000 0000 		.long	.LM148
 8626 05cf 15        		.byte	0x15
 8627 05d0 00        		.byte	0x0
 8628 05d1 05        		.uleb128 0x5
 8629 05d2 02        		.byte	0x2
 8630 05d3 0000 0000 		.long	.LM149
 8631 05d7 15        		.byte	0x15
 8632 05d8 00        		.byte	0x0
 8633 05d9 05        		.uleb128 0x5
 8634 05da 02        		.byte	0x2
 8635 05db 0000 0000 		.long	.LM150
 8636 05df 15        		.byte	0x15
 8637 05e0 00        		.byte	0x0
GAS LISTING C:\Users\ADMINI~1\AppData\Local\Temp/ccnPzUe6.s 			page 160


 8638 05e1 05        		.uleb128 0x5
 8639 05e2 02        		.byte	0x2
 8640 05e3 0000 0000 		.long	.LM151
 8641 05e7 15        		.byte	0x15
 8642 05e8 00        		.byte	0x0
 8643 05e9 05        		.uleb128 0x5
 8644 05ea 02        		.byte	0x2
 8645 05eb 0000 0000 		.long	.LM152
 8646 05ef 15        		.byte	0x15
 8647 05f0 00        		.byte	0x0
 8648 05f1 05        		.uleb128 0x5
 8649 05f2 02        		.byte	0x2
 8650 05f3 0000 0000 		.long	.LM153
 8651 05f7 16        		.byte	0x16
 8652 05f8 00        		.byte	0x0
 8653 05f9 05        		.uleb128 0x5
 8654 05fa 02        		.byte	0x2
 8655 05fb 0000 0000 		.long	.LM154
 8656 05ff 15        		.byte	0x15
 8657 0600 00        		.byte	0x0
 8658 0601 05        		.uleb128 0x5
 8659 0602 02        		.byte	0x2
 8660 0603 0000 0000 		.long	.LM155
 8661 0607 16        		.byte	0x16
 8662 0608 00        		.byte	0x0
 8663 0609 05        		.uleb128 0x5
 8664 060a 02        		.byte	0x2
 8665 060b 0000 0000 		.long	.LM156
 8666 060f 03        		.byte	0x3
 8667 0610 60        		.sleb128 -32
 8668 0611 01        		.byte	0x1
 8669 0612 00        		.byte	0x0
 8670 0613 05        		.uleb128 0x5
 8671 0614 02        		.byte	0x2
 8672 0615 0000 0000 		.long	.LM157
 8673 0619 15        		.byte	0x15
 8674 061a 00        		.byte	0x0
 8675 061b 05        		.uleb128 0x5
 8676 061c 02        		.byte	0x2
 8677 061d 0000 0000 		.long	.LM158
 8678 0621 15        		.byte	0x15
 8679 0622 00        		.byte	0x0
 8680 0623 05        		.uleb128 0x5
 8681 0624 02        		.byte	0x2
 8682 0625 0000 0000 		.long	.LM159
 8683 0629 15        		.byte	0x15
 8684 062a 00        		.byte	0x0
 8685 062b 05        		.uleb128 0x5
 8686 062c 02        		.byte	0x2
 8687 062d 0000 0000 		.long	.LM160
 8688 0631 15        		.byte	0x15
 8689 0632 00        		.byte	0x0
 8690 0633 05        		.uleb128 0x5
 8691 0634 02        		.byte	0x2
 8692 0635 0000 0000 		.long	.LM161
 8693 0639 15        		.byte	0x15
 8694 063a 00        		.byte	0x0
GAS LISTING C:\Users\ADMINI~1\AppData\Local\Temp/ccnPzUe6.s 			page 161


 8695 063b 05        		.uleb128 0x5
 8696 063c 02        		.byte	0x2
 8697 063d 0000 0000 		.long	.LM162
 8698 0641 15        		.byte	0x15
 8699 0642 00        		.byte	0x0
 8700 0643 05        		.uleb128 0x5
 8701 0644 02        		.byte	0x2
 8702 0645 0000 0000 		.long	.LM163
 8703 0649 15        		.byte	0x15
 8704 064a 00        		.byte	0x0
 8705 064b 05        		.uleb128 0x5
 8706 064c 02        		.byte	0x2
 8707 064d 0000 0000 		.long	.LM164
 8708 0651 15        		.byte	0x15
 8709 0652 00        		.byte	0x0
 8710 0653 05        		.uleb128 0x5
 8711 0654 02        		.byte	0x2
 8712 0655 0000 0000 		.long	.LM165
 8713 0659 15        		.byte	0x15
 8714 065a 00        		.byte	0x0
 8715 065b 05        		.uleb128 0x5
 8716 065c 02        		.byte	0x2
 8717 065d 0000 0000 		.long	.LM166
 8718 0661 15        		.byte	0x15
 8719 0662 00        		.byte	0x0
 8720 0663 05        		.uleb128 0x5
 8721 0664 02        		.byte	0x2
 8722 0665 0000 0000 		.long	.LM167
 8723 0669 15        		.byte	0x15
 8724 066a 00        		.byte	0x0
 8725 066b 05        		.uleb128 0x5
 8726 066c 02        		.byte	0x2
 8727 066d 0000 0000 		.long	.LM168
 8728 0671 16        		.byte	0x16
 8729 0672 00        		.byte	0x0
 8730 0673 05        		.uleb128 0x5
 8731 0674 02        		.byte	0x2
 8732 0675 0000 0000 		.long	.LM169
 8733 0679 15        		.byte	0x15
 8734 067a 00        		.byte	0x0
 8735 067b 05        		.uleb128 0x5
 8736 067c 02        		.byte	0x2
 8737 067d 0000 0000 		.long	.LM170
 8738 0681 15        		.byte	0x15
 8739 0682 00        		.byte	0x0
 8740 0683 05        		.uleb128 0x5
 8741 0684 02        		.byte	0x2
 8742 0685 0000 0000 		.long	.LM171
 8743 0689 CB        		.byte	0xcb
 8744 068a 00        		.byte	0x0
 8745 068b 05        		.uleb128 0x5
 8746 068c 02        		.byte	0x2
 8747 068d 0000 0000 		.long	.LM172
 8748 0691 01        		.byte	0x1
 8749 0692 00        		.byte	0x0
 8750 0693 05        		.uleb128 0x5
 8751 0694 02        		.byte	0x2
GAS LISTING C:\Users\ADMINI~1\AppData\Local\Temp/ccnPzUe6.s 			page 162


 8752 0695 0000 0000 		.long	.LM173
 8753 0699 19        		.byte	0x19
 8754 069a 00        		.byte	0x0
 8755 069b 05        		.uleb128 0x5
 8756 069c 02        		.byte	0x2
 8757 069d 0000 0000 		.long	.LM174
 8758 06a1 12        		.byte	0x12
 8759 06a2 00        		.byte	0x0
 8760 06a3 05        		.uleb128 0x5
 8761 06a4 02        		.byte	0x2
 8762 06a5 0000 0000 		.long	.LM175
 8763 06a9 1A        		.byte	0x1a
 8764 06aa 00        		.byte	0x0
 8765 06ab 05        		.uleb128 0x5
 8766 06ac 02        		.byte	0x2
 8767 06ad 0000 0000 		.long	.LM176
 8768 06b1 15        		.byte	0x15
 8769 06b2 00        		.byte	0x0
 8770 06b3 05        		.uleb128 0x5
 8771 06b4 02        		.byte	0x2
 8772 06b5 0000 0000 		.long	.LM177
 8773 06b9 15        		.byte	0x15
 8774 06ba 00        		.byte	0x0
 8775 06bb 05        		.uleb128 0x5
 8776 06bc 02        		.byte	0x2
 8777 06bd 0000 0000 		.long	.LM178
 8778 06c1 03        		.byte	0x3
 8779 06c2 62        		.sleb128 -30
 8780 06c3 01        		.byte	0x1
 8781 06c4 00        		.byte	0x0
 8782 06c5 05        		.uleb128 0x5
 8783 06c6 02        		.byte	0x2
 8784 06c7 0000 0000 		.long	.LM179
 8785 06cb 15        		.byte	0x15
 8786 06cc 00        		.byte	0x0
 8787 06cd 05        		.uleb128 0x5
 8788 06ce 02        		.byte	0x2
 8789 06cf 0000 0000 		.long	.LM180
 8790 06d3 1F        		.byte	0x1f
 8791 06d4 00        		.byte	0x0
 8792 06d5 05        		.uleb128 0x5
 8793 06d6 02        		.byte	0x2
 8794 06d7 0000 0000 		.long	.LM181
 8795 06db 10        		.byte	0x10
 8796 06dc 00        		.byte	0x0
 8797 06dd 05        		.uleb128 0x5
 8798 06de 02        		.byte	0x2
 8799 06df 0000 0000 		.long	.LM182
 8800 06e3 1C        		.byte	0x1c
 8801 06e4 00        		.byte	0x0
 8802 06e5 05        		.uleb128 0x5
 8803 06e6 02        		.byte	0x2
 8804 06e7 0000 0000 		.long	.LM183
 8805 06eb 15        		.byte	0x15
 8806 06ec 00        		.byte	0x0
 8807 06ed 05        		.uleb128 0x5
 8808 06ee 02        		.byte	0x2
GAS LISTING C:\Users\ADMINI~1\AppData\Local\Temp/ccnPzUe6.s 			page 163


 8809 06ef 0000 0000 		.long	.LM184
 8810 06f3 03        		.byte	0x3
 8811 06f4 5C        		.sleb128 -36
 8812 06f5 01        		.byte	0x1
 8813 06f6 00        		.byte	0x0
 8814 06f7 05        		.uleb128 0x5
 8815 06f8 02        		.byte	0x2
 8816 06f9 0000 0000 		.long	.LM185
 8817 06fd 15        		.byte	0x15
 8818 06fe 00        		.byte	0x0
 8819 06ff 05        		.uleb128 0x5
 8820 0700 02        		.byte	0x2
 8821 0701 0000 0000 		.long	.LM186
 8822 0705 1C        		.byte	0x1c
 8823 0706 00        		.byte	0x0
 8824 0707 05        		.uleb128 0x5
 8825 0708 02        		.byte	0x2
 8826 0709 0000 0000 		.long	.LM187
 8827 070d 13        		.byte	0x13
 8828 070e 00        		.byte	0x0
 8829 070f 05        		.uleb128 0x5
 8830 0710 02        		.byte	0x2
 8831 0711 0000 0000 		.long	.LM188
 8832 0715 16        		.byte	0x16
 8833 0716 00        		.byte	0x0
 8834 0717 05        		.uleb128 0x5
 8835 0718 02        		.byte	0x2
 8836 0719 0000 0000 		.long	.LM189
 8837 071d 16        		.byte	0x16
 8838 071e 00        		.byte	0x0
 8839 071f 05        		.uleb128 0x5
 8840 0720 02        		.byte	0x2
 8841 0721 0000 0000 		.long	.LM190
 8842 0725 15        		.byte	0x15
 8843 0726 00        		.byte	0x0
 8844 0727 05        		.uleb128 0x5
 8845 0728 02        		.byte	0x2
 8846 0729 0000 0000 		.long	.LM191
 8847 072d 0F        		.byte	0xf
 8848 072e 00        		.byte	0x0
 8849 072f 05        		.uleb128 0x5
 8850 0730 02        		.byte	0x2
 8851 0731 0000 0000 		.long	.LM192
 8852 0735 1D        		.byte	0x1d
 8853 0736 00        		.byte	0x0
 8854 0737 05        		.uleb128 0x5
 8855 0738 02        		.byte	0x2
 8856 0739 0000 0000 		.long	.LM193
 8857 073d 03        		.byte	0x3
 8858 073e 947F      		.sleb128 -108
 8859 0740 01        		.byte	0x1
 8860 0741 00        		.byte	0x0
 8861 0742 05        		.uleb128 0x5
 8862 0743 02        		.byte	0x2
 8863 0744 0000 0000 		.long	.LM194
 8864 0748 01        		.byte	0x1
 8865 0749 00        		.byte	0x0
GAS LISTING C:\Users\ADMINI~1\AppData\Local\Temp/ccnPzUe6.s 			page 164


 8866 074a 05        		.uleb128 0x5
 8867 074b 02        		.byte	0x2
 8868 074c 0000 0000 		.long	.LM195
 8869 0750 1B        		.byte	0x1b
 8870 0751 00        		.byte	0x0
 8871 0752 05        		.uleb128 0x5
 8872 0753 02        		.byte	0x2
 8873 0754 0000 0000 		.long	.LM196
 8874 0758 11        		.byte	0x11
 8875 0759 00        		.byte	0x0
 8876 075a 05        		.uleb128 0x5
 8877 075b 02        		.byte	0x2
 8878 075c 0000 0000 		.long	.LM197
 8879 0760 13        		.byte	0x13
 8880 0761 00        		.byte	0x0
 8881 0762 05        		.uleb128 0x5
 8882 0763 02        		.byte	0x2
 8883 0764 0000 0000 		.long	.LM198
 8884 0768 1B        		.byte	0x1b
 8885 0769 00        		.byte	0x0
 8886 076a 05        		.uleb128 0x5
 8887 076b 02        		.byte	0x2
 8888 076c 0000 0000 		.long	.LM199
 8889 0770 15        		.byte	0x15
 8890 0771 00        		.byte	0x0
 8891 0772 05        		.uleb128 0x5
 8892 0773 02        		.byte	0x2
 8893 0774 0000 0000 		.long	.LM200
 8894 0778 C2        		.byte	0xc2
 8895 0779 00        		.byte	0x0
 8896 077a 05        		.uleb128 0x5
 8897 077b 02        		.byte	0x2
 8898 077c 0000 0000 		.long	.LM201
 8899 0780 15        		.byte	0x15
 8900 0781 00        		.byte	0x0
 8901 0782 05        		.uleb128 0x5
 8902 0783 02        		.byte	0x2
 8903 0784 0000 0000 		.long	.LM202
 8904 0788 16        		.byte	0x16
 8905 0789 00        		.byte	0x0
 8906 078a 05        		.uleb128 0x5
 8907 078b 02        		.byte	0x2
 8908 078c 0000 0000 		.long	.LM203
 8909 0790 16        		.byte	0x16
 8910 0791 00        		.byte	0x0
 8911 0792 05        		.uleb128 0x5
 8912 0793 02        		.byte	0x2
 8913 0794 0000 0000 		.long	.LM204
 8914 0798 18        		.byte	0x18
 8915 0799 00        		.byte	0x0
 8916 079a 05        		.uleb128 0x5
 8917 079b 02        		.byte	0x2
 8918 079c 0000 0000 		.long	.LM205
 8919 07a0 1D        		.byte	0x1d
 8920 07a1 00        		.byte	0x0
 8921 07a2 05        		.uleb128 0x5
 8922 07a3 02        		.byte	0x2
GAS LISTING C:\Users\ADMINI~1\AppData\Local\Temp/ccnPzUe6.s 			page 165


 8923 07a4 0000 0000 		.long	.LM206
 8924 07a8 16        		.byte	0x16
 8925 07a9 00        		.byte	0x0
 8926 07aa 05        		.uleb128 0x5
 8927 07ab 02        		.byte	0x2
 8928 07ac 0000 0000 		.long	.LM207
 8929 07b0 15        		.byte	0x15
 8930 07b1 00        		.byte	0x0
 8931 07b2 05        		.uleb128 0x5
 8932 07b3 02        		.byte	0x2
 8933 07b4 0000 0000 		.long	.LM208
 8934 07b8 15        		.byte	0x15
 8935 07b9 00        		.byte	0x0
 8936 07ba 05        		.uleb128 0x5
 8937 07bb 02        		.byte	0x2
 8938 07bc 0000 0000 		.long	.LM209
 8939 07c0 15        		.byte	0x15
 8940 07c1 00        		.byte	0x0
 8941 07c2 05        		.uleb128 0x5
 8942 07c3 02        		.byte	0x2
 8943 07c4 0000 0000 		.long	.LM210
 8944 07c8 16        		.byte	0x16
 8945 07c9 00        		.byte	0x0
 8946 07ca 05        		.uleb128 0x5
 8947 07cb 02        		.byte	0x2
 8948 07cc 0000 0000 		.long	.LM211
 8949 07d0 16        		.byte	0x16
 8950 07d1 00        		.byte	0x0
 8951 07d2 05        		.uleb128 0x5
 8952 07d3 02        		.byte	0x2
 8953 07d4 0000 0000 		.long	.LM212
 8954 07d8 15        		.byte	0x15
 8955 07d9 00        		.byte	0x0
 8956 07da 05        		.uleb128 0x5
 8957 07db 02        		.byte	0x2
 8958 07dc 0000 0000 		.long	.LM213
 8959 07e0 15        		.byte	0x15
 8960 07e1 00        		.byte	0x0
 8961 07e2 05        		.uleb128 0x5
 8962 07e3 02        		.byte	0x2
 8963 07e4 0000 0000 		.long	.LM214
 8964 07e8 1B        		.byte	0x1b
 8965 07e9 00        		.byte	0x0
 8966 07ea 05        		.uleb128 0x5
 8967 07eb 02        		.byte	0x2
 8968 07ec 0000 0000 		.long	.LM215
 8969 07f0 15        		.byte	0x15
 8970 07f1 00        		.byte	0x0
 8971 07f2 05        		.uleb128 0x5
 8972 07f3 02        		.byte	0x2
 8973 07f4 0000 0000 		.long	.LM216
 8974 07f8 17        		.byte	0x17
 8975 07f9 00        		.byte	0x0
 8976 07fa 05        		.uleb128 0x5
 8977 07fb 02        		.byte	0x2
 8978 07fc 0000 0000 		.long	.LM217
 8979 0800 15        		.byte	0x15
GAS LISTING C:\Users\ADMINI~1\AppData\Local\Temp/ccnPzUe6.s 			page 166


 8980 0801 00        		.byte	0x0
 8981 0802 05        		.uleb128 0x5
 8982 0803 02        		.byte	0x2
 8983 0804 0000 0000 		.long	.LM218
 8984 0808 16        		.byte	0x16
 8985 0809 00        		.byte	0x0
 8986 080a 05        		.uleb128 0x5
 8987 080b 02        		.byte	0x2
 8988 080c 0000 0000 		.long	.LM219
 8989 0810 17        		.byte	0x17
 8990 0811 00        		.byte	0x0
 8991 0812 05        		.uleb128 0x5
 8992 0813 02        		.byte	0x2
 8993 0814 0000 0000 		.long	.LM220
 8994 0818 15        		.byte	0x15
 8995 0819 00        		.byte	0x0
 8996 081a 05        		.uleb128 0x5
 8997 081b 02        		.byte	0x2
 8998 081c 0000 0000 		.long	.LM221
 8999 0820 16        		.byte	0x16
 9000 0821 00        		.byte	0x0
 9001 0822 05        		.uleb128 0x5
 9002 0823 02        		.byte	0x2
 9003 0824 0000 0000 		.long	.LM222
 9004 0828 17        		.byte	0x17
 9005 0829 00        		.byte	0x0
 9006 082a 05        		.uleb128 0x5
 9007 082b 02        		.byte	0x2
 9008 082c 0000 0000 		.long	.LM223
 9009 0830 15        		.byte	0x15
 9010 0831 00        		.byte	0x0
 9011 0832 05        		.uleb128 0x5
 9012 0833 02        		.byte	0x2
 9013 0834 0000 0000 		.long	.LM224
 9014 0838 17        		.byte	0x17
 9015 0839 00        		.byte	0x0
 9016 083a 05        		.uleb128 0x5
 9017 083b 02        		.byte	0x2
 9018 083c 0000 0000 		.long	.LM225
 9019 0840 15        		.byte	0x15
 9020 0841 00        		.byte	0x0
 9021 0842 05        		.uleb128 0x5
 9022 0843 02        		.byte	0x2
 9023 0844 0000 0000 		.long	.LM226
 9024 0848 16        		.byte	0x16
 9025 0849 00        		.byte	0x0
 9026 084a 05        		.uleb128 0x5
 9027 084b 02        		.byte	0x2
 9028 084c 0000 0000 		.long	.LM227
 9029 0850 16        		.byte	0x16
 9030 0851 00        		.byte	0x0
 9031 0852 05        		.uleb128 0x5
 9032 0853 02        		.byte	0x2
 9033 0854 0000 0000 		.long	.LM228
 9034 0858 17        		.byte	0x17
 9035 0859 00        		.byte	0x0
 9036 085a 05        		.uleb128 0x5
GAS LISTING C:\Users\ADMINI~1\AppData\Local\Temp/ccnPzUe6.s 			page 167


 9037 085b 02        		.byte	0x2
 9038 085c 0000 0000 		.long	.LM229
 9039 0860 15        		.byte	0x15
 9040 0861 00        		.byte	0x0
 9041 0862 05        		.uleb128 0x5
 9042 0863 02        		.byte	0x2
 9043 0864 0000 0000 		.long	.LM230
 9044 0868 16        		.byte	0x16
 9045 0869 00        		.byte	0x0
 9046 086a 05        		.uleb128 0x5
 9047 086b 02        		.byte	0x2
 9048 086c 0000 0000 		.long	.LM231
 9049 0870 15        		.byte	0x15
 9050 0871 00        		.byte	0x0
 9051 0872 05        		.uleb128 0x5
 9052 0873 02        		.byte	0x2
 9053 0874 0000 0000 		.long	.LM232
 9054 0878 1B        		.byte	0x1b
 9055 0879 00        		.byte	0x0
 9056 087a 05        		.uleb128 0x5
 9057 087b 02        		.byte	0x2
 9058 087c 0000 0000 		.long	.LM233
 9059 0880 16        		.byte	0x16
 9060 0881 00        		.byte	0x0
 9061 0882 05        		.uleb128 0x5
 9062 0883 02        		.byte	0x2
 9063 0884 0000 0000 		.long	.LM234
 9064 0888 15        		.byte	0x15
 9065 0889 00        		.byte	0x0
 9066 088a 05        		.uleb128 0x5
 9067 088b 02        		.byte	0x2
 9068 088c 0000 0000 		.long	.LM235
 9069 0890 16        		.byte	0x16
 9070 0891 00        		.byte	0x0
 9071 0892 05        		.uleb128 0x5
 9072 0893 02        		.byte	0x2
 9073 0894 0000 0000 		.long	.LM236
 9074 0898 15        		.byte	0x15
 9075 0899 00        		.byte	0x0
 9076 089a 05        		.uleb128 0x5
 9077 089b 02        		.byte	0x2
 9078 089c 0000 0000 		.long	.LM237
 9079 08a0 1D        		.byte	0x1d
 9080 08a1 00        		.byte	0x0
 9081 08a2 05        		.uleb128 0x5
 9082 08a3 02        		.byte	0x2
 9083 08a4 0000 0000 		.long	.LM238
 9084 08a8 15        		.byte	0x15
 9085 08a9 00        		.byte	0x0
 9086 08aa 05        		.uleb128 0x5
 9087 08ab 02        		.byte	0x2
 9088 08ac 0000 0000 		.long	.LM239
 9089 08b0 15        		.byte	0x15
 9090 08b1 00        		.byte	0x0
 9091 08b2 05        		.uleb128 0x5
 9092 08b3 02        		.byte	0x2
 9093 08b4 0000 0000 		.long	.LM240
GAS LISTING C:\Users\ADMINI~1\AppData\Local\Temp/ccnPzUe6.s 			page 168


 9094 08b8 16        		.byte	0x16
 9095 08b9 00        		.byte	0x0
 9096 08ba 05        		.uleb128 0x5
 9097 08bb 02        		.byte	0x2
 9098 08bc 0000 0000 		.long	.LM241
 9099 08c0 15        		.byte	0x15
 9100 08c1 00        		.byte	0x0
 9101 08c2 05        		.uleb128 0x5
 9102 08c3 02        		.byte	0x2
 9103 08c4 0000 0000 		.long	.LM242
 9104 08c8 15        		.byte	0x15
 9105 08c9 00        		.byte	0x0
 9106 08ca 05        		.uleb128 0x5
 9107 08cb 02        		.byte	0x2
 9108 08cc 0000 0000 		.long	.LM243
 9109 08d0 17        		.byte	0x17
 9110 08d1 00        		.byte	0x0
 9111 08d2 05        		.uleb128 0x5
 9112 08d3 02        		.byte	0x2
 9113 08d4 0000 0000 		.long	.LM244
 9114 08d8 16        		.byte	0x16
 9115 08d9 00        		.byte	0x0
 9116 08da 05        		.uleb128 0x5
 9117 08db 02        		.byte	0x2
 9118 08dc 0000 0000 		.long	.LM245
 9119 08e0 15        		.byte	0x15
 9120 08e1 00        		.byte	0x0
 9121 08e2 05        		.uleb128 0x5
 9122 08e3 02        		.byte	0x2
 9123 08e4 0000 0000 		.long	.LM246
 9124 08e8 15        		.byte	0x15
 9125 08e9 00        		.byte	0x0
 9126 08ea 05        		.uleb128 0x5
 9127 08eb 02        		.byte	0x2
 9128 08ec 0000 0000 		.long	.LM247
 9129 08f0 03        		.byte	0x3
 9130 08f1 BE7D      		.sleb128 -322
 9131 08f3 01        		.byte	0x1
 9132 08f4 00        		.byte	0x0
 9133 08f5 05        		.uleb128 0x5
 9134 08f6 02        		.byte	0x2
 9135 08f7 0000 0000 		.long	.LM248
 9136 08fb 15        		.byte	0x15
 9137 08fc 00        		.byte	0x0
 9138 08fd 05        		.uleb128 0x5
 9139 08fe 02        		.byte	0x2
 9140 08ff 0000 0000 		.long	.LM249
 9141 0903 15        		.byte	0x15
 9142 0904 00        		.byte	0x0
 9143 0905 05        		.uleb128 0x5
 9144 0906 02        		.byte	0x2
 9145 0907 0000 0000 		.long	.LM250
 9146 090b 15        		.byte	0x15
 9147 090c 00        		.byte	0x0
 9148 090d 05        		.uleb128 0x5
 9149 090e 02        		.byte	0x2
 9150 090f 0000 0000 		.long	.LM251
GAS LISTING C:\Users\ADMINI~1\AppData\Local\Temp/ccnPzUe6.s 			page 169


 9151 0913 15        		.byte	0x15
 9152 0914 00        		.byte	0x0
 9153 0915 05        		.uleb128 0x5
 9154 0916 02        		.byte	0x2
 9155 0917 0000 0000 		.long	.LM252
 9156 091b 15        		.byte	0x15
 9157 091c 00        		.byte	0x0
 9158 091d 05        		.uleb128 0x5
 9159 091e 02        		.byte	0x2
 9160 091f 0000 0000 		.long	.LM253
 9161 0923 17        		.byte	0x17
 9162 0924 00        		.byte	0x0
 9163 0925 05        		.uleb128 0x5
 9164 0926 02        		.byte	0x2
 9165 0927 0000 0000 		.long	.LM254
 9166 092b 15        		.byte	0x15
 9167 092c 00        		.byte	0x0
 9168 092d 05        		.uleb128 0x5
 9169 092e 02        		.byte	0x2
 9170 092f 0000 0000 		.long	.LM255
 9171 0933 15        		.byte	0x15
 9172 0934 00        		.byte	0x0
 9173 0935 05        		.uleb128 0x5
 9174 0936 02        		.byte	0x2
 9175 0937 0000 0000 		.long	.LM256
 9176 093b 03        		.byte	0x3
 9177 093c BA02      		.sleb128 314
 9178 093e 01        		.byte	0x1
 9179 093f 00        		.byte	0x0
 9180 0940 05        		.uleb128 0x5
 9181 0941 02        		.byte	0x2
 9182 0942 0000 0000 		.long	.LM257
 9183 0946 15        		.byte	0x15
 9184 0947 00        		.byte	0x0
 9185 0948 05        		.uleb128 0x5
 9186 0949 02        		.byte	0x2
 9187 094a 0000 0000 		.long	.LM258
 9188 094e 15        		.byte	0x15
 9189 094f 00        		.byte	0x0
 9190 0950 05        		.uleb128 0x5
 9191 0951 02        		.byte	0x2
 9192 0952 0000 0000 		.long	.LM259
 9193 0956 15        		.byte	0x15
 9194 0957 00        		.byte	0x0
 9195 0958 05        		.uleb128 0x5
 9196 0959 02        		.byte	0x2
 9197 095a 0000 0000 		.long	.LM260
 9198 095e 15        		.byte	0x15
 9199 095f 00        		.byte	0x0
 9200 0960 05        		.uleb128 0x5
 9201 0961 02        		.byte	0x2
 9202 0962 0000 0000 		.long	.LM261
 9203 0966 15        		.byte	0x15
 9204 0967 00        		.byte	0x0
 9205 0968 05        		.uleb128 0x5
 9206 0969 02        		.byte	0x2
 9207 096a 0000 0000 		.long	.LM262
GAS LISTING C:\Users\ADMINI~1\AppData\Local\Temp/ccnPzUe6.s 			page 170


 9208 096e 16        		.byte	0x16
 9209 096f 00        		.byte	0x0
 9210 0970 05        		.uleb128 0x5
 9211 0971 02        		.byte	0x2
 9212 0972 0000 0000 		.long	.LM263
 9213 0976 15        		.byte	0x15
 9214 0977 00        		.byte	0x0
 9215 0978 05        		.uleb128 0x5
 9216 0979 02        		.byte	0x2
 9217 097a 0000 0000 		.long	.LM264
 9218 097e 15        		.byte	0x15
 9219 097f 00        		.byte	0x0
 9220 0980 05        		.uleb128 0x5
 9221 0981 02        		.byte	0x2
 9222 0982 0000 0000 		.long	.LM265
 9223 0986 18        		.byte	0x18
 9224 0987 00        		.byte	0x0
 9225 0988 05        		.uleb128 0x5
 9226 0989 02        		.byte	0x2
 9227 098a 0000 0000 		.long	.LM266
 9228 098e 15        		.byte	0x15
 9229 098f 00        		.byte	0x0
 9230 0990 05        		.uleb128 0x5
 9231 0991 02        		.byte	0x2
 9232 0992 0000 0000 		.long	.LM267
 9233 0996 17        		.byte	0x17
 9234 0997 00        		.byte	0x0
 9235 0998 05        		.uleb128 0x5
 9236 0999 02        		.byte	0x2
 9237 099a 0000 0000 		.long	.LM268
 9238 099e 15        		.byte	0x15
 9239 099f 00        		.byte	0x0
 9240 09a0 05        		.uleb128 0x5
 9241 09a1 02        		.byte	0x2
 9242 09a2 0000 0000 		.long	.LM269
 9243 09a6 16        		.byte	0x16
 9244 09a7 00        		.byte	0x0
 9245 09a8 05        		.uleb128 0x5
 9246 09a9 02        		.byte	0x2
 9247 09aa 0000 0000 		.long	.LM270
 9248 09ae 15        		.byte	0x15
 9249 09af 00        		.byte	0x0
 9250 09b0 05        		.uleb128 0x5
 9251 09b1 02        		.byte	0x2
 9252 09b2 0000 0000 		.long	.LM271
 9253 09b6 15        		.byte	0x15
 9254 09b7 00        		.byte	0x0
 9255 09b8 05        		.uleb128 0x5
 9256 09b9 02        		.byte	0x2
 9257 09ba 0000 0000 		.long	.LM272
 9258 09be 15        		.byte	0x15
 9259 09bf 00        		.byte	0x0
 9260 09c0 05        		.uleb128 0x5
 9261 09c1 02        		.byte	0x2
 9262 09c2 0000 0000 		.long	.LM273
 9263 09c6 17        		.byte	0x17
 9264 09c7 00        		.byte	0x0
GAS LISTING C:\Users\ADMINI~1\AppData\Local\Temp/ccnPzUe6.s 			page 171


 9265 09c8 05        		.uleb128 0x5
 9266 09c9 02        		.byte	0x2
 9267 09ca 0000 0000 		.long	.LM274
 9268 09ce 15        		.byte	0x15
 9269 09cf 00        		.byte	0x0
 9270 09d0 05        		.uleb128 0x5
 9271 09d1 02        		.byte	0x2
 9272 09d2 0000 0000 		.long	.LM275
 9273 09d6 15        		.byte	0x15
 9274 09d7 00        		.byte	0x0
 9275 09d8 05        		.uleb128 0x5
 9276 09d9 02        		.byte	0x2
 9277 09da 0000 0000 		.long	.LM276
 9278 09de 17        		.byte	0x17
 9279 09df 00        		.byte	0x0
 9280 09e0 05        		.uleb128 0x5
 9281 09e1 02        		.byte	0x2
 9282 09e2 0000 0000 		.long	.LM277
 9283 09e6 16        		.byte	0x16
 9284 09e7 00        		.byte	0x0
 9285 09e8 05        		.uleb128 0x5
 9286 09e9 02        		.byte	0x2
 9287 09ea 0000 0000 		.long	.LM278
 9288 09ee 17        		.byte	0x17
 9289 09ef 00        		.byte	0x0
 9290 09f0 05        		.uleb128 0x5
 9291 09f1 02        		.byte	0x2
 9292 09f2 0000 0000 		.long	.LM279
 9293 09f6 15        		.byte	0x15
 9294 09f7 00        		.byte	0x0
 9295 09f8 05        		.uleb128 0x5
 9296 09f9 02        		.byte	0x2
 9297 09fa 0000 0000 		.long	.LM280
 9298 09fe 15        		.byte	0x15
 9299 09ff 00        		.byte	0x0
 9300 0a00 05        		.uleb128 0x5
 9301 0a01 02        		.byte	0x2
 9302 0a02 0000 0000 		.long	.LM281
 9303 0a06 15        		.byte	0x15
 9304 0a07 00        		.byte	0x0
 9305 0a08 05        		.uleb128 0x5
 9306 0a09 02        		.byte	0x2
 9307 0a0a 0000 0000 		.long	.LM282
 9308 0a0e 15        		.byte	0x15
 9309 0a0f 00        		.byte	0x0
 9310 0a10 05        		.uleb128 0x5
 9311 0a11 02        		.byte	0x2
 9312 0a12 0000 0000 		.long	.LM283
 9313 0a16 03        		.byte	0x3
 9314 0a17 907B      		.sleb128 -624
 9315 0a19 01        		.byte	0x1
 9316 0a1a 00        		.byte	0x0
 9317 0a1b 05        		.uleb128 0x5
 9318 0a1c 02        		.byte	0x2
 9319 0a1d 0000 0000 		.long	.LM284
 9320 0a21 15        		.byte	0x15
 9321 0a22 00        		.byte	0x0
GAS LISTING C:\Users\ADMINI~1\AppData\Local\Temp/ccnPzUe6.s 			page 172


 9322 0a23 05        		.uleb128 0x5
 9323 0a24 02        		.byte	0x2
 9324 0a25 0000 0000 		.long	.LM285
 9325 0a29 03        		.byte	0x3
 9326 0a2a F104      		.sleb128 625
 9327 0a2c 01        		.byte	0x1
 9328 0a2d 00        		.byte	0x0
 9329 0a2e 05        		.uleb128 0x5
 9330 0a2f 02        		.byte	0x2
 9331 0a30 0000 0000 		.long	.LM286
 9332 0a34 15        		.byte	0x15
 9333 0a35 00        		.byte	0x0
 9334 0a36 05        		.uleb128 0x5
 9335 0a37 02        		.byte	0x2
 9336 0a38 0000 0000 		.long	.LM287
 9337 0a3c 15        		.byte	0x15
 9338 0a3d 00        		.byte	0x0
 9339 0a3e 05        		.uleb128 0x5
 9340 0a3f 02        		.byte	0x2
 9341 0a40 0000 0000 		.long	.LM288
 9342 0a44 1E        		.byte	0x1e
 9343 0a45 00        		.byte	0x0
 9344 0a46 05        		.uleb128 0x5
 9345 0a47 02        		.byte	0x2
 9346 0a48 0000 0000 		.long	.LM289
 9347 0a4c 16        		.byte	0x16
 9348 0a4d 00        		.byte	0x0
 9349 0a4e 05        		.uleb128 0x5
 9350 0a4f 02        		.byte	0x2
 9351 0a50 0000 0000 		.long	.LM290
 9352 0a54 16        		.byte	0x16
 9353 0a55 00        		.byte	0x0
 9354 0a56 05        		.uleb128 0x5
 9355 0a57 02        		.byte	0x2
 9356 0a58 0000 0000 		.long	.LM291
 9357 0a5c 15        		.byte	0x15
 9358 0a5d 00        		.byte	0x0
 9359 0a5e 05        		.uleb128 0x5
 9360 0a5f 02        		.byte	0x2
 9361 0a60 0000 0000 		.long	.LM292
 9362 0a64 16        		.byte	0x16
 9363 0a65 00        		.byte	0x0
 9364 0a66 05        		.uleb128 0x5
 9365 0a67 02        		.byte	0x2
 9366 0a68 0000 0000 		.long	.LM293
 9367 0a6c 15        		.byte	0x15
 9368 0a6d 00        		.byte	0x0
 9369 0a6e 05        		.uleb128 0x5
 9370 0a6f 02        		.byte	0x2
 9371 0a70 0000 0000 		.long	.LM294
 9372 0a74 1D        		.byte	0x1d
 9373 0a75 00        		.byte	0x0
 9374 0a76 05        		.uleb128 0x5
 9375 0a77 02        		.byte	0x2
 9376 0a78 0000 0000 		.long	.LM295
 9377 0a7c 16        		.byte	0x16
 9378 0a7d 00        		.byte	0x0
GAS LISTING C:\Users\ADMINI~1\AppData\Local\Temp/ccnPzUe6.s 			page 173


 9379 0a7e 05        		.uleb128 0x5
 9380 0a7f 02        		.byte	0x2
 9381 0a80 0000 0000 		.long	.LM296
 9382 0a84 16        		.byte	0x16
 9383 0a85 00        		.byte	0x0
 9384 0a86 05        		.uleb128 0x5
 9385 0a87 02        		.byte	0x2
 9386 0a88 0000 0000 		.long	.LM297
 9387 0a8c 16        		.byte	0x16
 9388 0a8d 00        		.byte	0x0
 9389 0a8e 05        		.uleb128 0x5
 9390 0a8f 02        		.byte	0x2
 9391 0a90 0000 0000 		.long	.LM298
 9392 0a94 16        		.byte	0x16
 9393 0a95 00        		.byte	0x0
 9394 0a96 05        		.uleb128 0x5
 9395 0a97 02        		.byte	0x2
 9396 0a98 0000 0000 		.long	.LM299
 9397 0a9c 17        		.byte	0x17
 9398 0a9d 00        		.byte	0x0
 9399 0a9e 05        		.uleb128 0x5
 9400 0a9f 02        		.byte	0x2
 9401 0aa0 0000 0000 		.long	.LM300
 9402 0aa4 15        		.byte	0x15
 9403 0aa5 00        		.byte	0x0
 9404 0aa6 05        		.uleb128 0x5
 9405 0aa7 02        		.byte	0x2
 9406 0aa8 0000 0000 		.long	.LM301
 9407 0aac 15        		.byte	0x15
 9408 0aad 00        		.byte	0x0
 9409 0aae 05        		.uleb128 0x5
 9410 0aaf 02        		.byte	0x2
 9411 0ab0 0000 0000 		.long	.LM302
 9412 0ab4 15        		.byte	0x15
 9413 0ab5 00        		.byte	0x0
 9414 0ab6 05        		.uleb128 0x5
 9415 0ab7 02        		.byte	0x2
 9416 0ab8 0000 0000 		.long	.LM303
 9417 0abc 16        		.byte	0x16
 9418 0abd 00        		.byte	0x0
 9419 0abe 05        		.uleb128 0x5
 9420 0abf 02        		.byte	0x2
 9421 0ac0 0000 0000 		.long	.LM304
 9422 0ac4 15        		.byte	0x15
 9423 0ac5 00        		.byte	0x0
 9424 0ac6 05        		.uleb128 0x5
 9425 0ac7 02        		.byte	0x2
 9426 0ac8 0000 0000 		.long	.LM305
 9427 0acc 1E        		.byte	0x1e
 9428 0acd 00        		.byte	0x0
 9429 0ace 05        		.uleb128 0x5
 9430 0acf 02        		.byte	0x2
 9431 0ad0 0000 0000 		.long	.LM306
 9432 0ad4 04        		.byte	0x4
 9433 0ad5 02        		.uleb128 0x2
 9434 0ad6 03        		.byte	0x3
 9435 0ad7 ED79      		.sleb128 -787
GAS LISTING C:\Users\ADMINI~1\AppData\Local\Temp/ccnPzUe6.s 			page 174


 9436 0ad9 01        		.byte	0x1
 9437 0ada 00        		.byte	0x0
 9438 0adb 05        		.uleb128 0x5
 9439 0adc 02        		.byte	0x2
 9440 0add 0000 0000 		.long	.LM307
 9441 0ae1 04        		.byte	0x4
 9442 0ae2 03        		.uleb128 0x3
 9443 0ae3 27        		.byte	0x27
 9444 0ae4 00        		.byte	0x0
 9445 0ae5 05        		.uleb128 0x5
 9446 0ae6 02        		.byte	0x2
 9447 0ae7 0000 0000 		.long	.LM308
 9448 0aeb 10        		.byte	0x10
 9449 0aec 00        		.byte	0x0
 9450 0aed 05        		.uleb128 0x5
 9451 0aee 02        		.byte	0x2
 9452 0aef 0000 0000 		.long	.LM309
 9453 0af3 04        		.byte	0x4
 9454 0af4 01        		.uleb128 0x1
 9455 0af5 03        		.byte	0x3
 9456 0af6 8706      		.sleb128 775
 9457 0af8 01        		.byte	0x1
 9458 0af9 00        		.byte	0x0
 9459 0afa 05        		.uleb128 0x5
 9460 0afb 02        		.byte	0x2
 9461 0afc 0000 0000 		.long	.LM310
 9462 0b00 16        		.byte	0x16
 9463 0b01 00        		.byte	0x0
 9464 0b02 05        		.uleb128 0x5
 9465 0b03 02        		.byte	0x2
 9466 0b04 0000 0000 		.long	.LM311
 9467 0b08 12        		.byte	0x12
 9468 0b09 00        		.byte	0x0
 9469 0b0a 05        		.uleb128 0x5
 9470 0b0b 02        		.byte	0x2
 9471 0b0c 0000 0000 		.long	.LM312
 9472 0b10 16        		.byte	0x16
 9473 0b11 00        		.byte	0x0
 9474 0b12 05        		.uleb128 0x5
 9475 0b13 02        		.byte	0x2
 9476 0b14 0000 0000 		.long	.LM313
 9477 0b18 15        		.byte	0x15
 9478 0b19 00        		.byte	0x0
 9479 0b1a 05        		.uleb128 0x5
 9480 0b1b 02        		.byte	0x2
 9481 0b1c 0000 0000 		.long	.LM314
 9482 0b20 15        		.byte	0x15
 9483 0b21 00        		.byte	0x0
 9484 0b22 05        		.uleb128 0x5
 9485 0b23 02        		.byte	0x2
 9486 0b24 0000 0000 		.long	.LM315
 9487 0b28 15        		.byte	0x15
 9488 0b29 00        		.byte	0x0
 9489 0b2a 05        		.uleb128 0x5
 9490 0b2b 02        		.byte	0x2
 9491 0b2c 0000 0000 		.long	.LM316
 9492 0b30 15        		.byte	0x15
GAS LISTING C:\Users\ADMINI~1\AppData\Local\Temp/ccnPzUe6.s 			page 175


 9493 0b31 00        		.byte	0x0
 9494 0b32 05        		.uleb128 0x5
 9495 0b33 02        		.byte	0x2
 9496 0b34 0000 0000 		.long	.LM317
 9497 0b38 15        		.byte	0x15
 9498 0b39 00        		.byte	0x0
 9499 0b3a 05        		.uleb128 0x5
 9500 0b3b 02        		.byte	0x2
 9501 0b3c 0000 0000 		.long	.LM318
 9502 0b40 15        		.byte	0x15
 9503 0b41 00        		.byte	0x0
 9504 0b42 05        		.uleb128 0x5
 9505 0b43 02        		.byte	0x2
 9506 0b44 0000 0000 		.long	.LM319
 9507 0b48 16        		.byte	0x16
 9508 0b49 00        		.byte	0x0
 9509 0b4a 05        		.uleb128 0x5
 9510 0b4b 02        		.byte	0x2
 9511 0b4c 0000 0000 		.long	.LM320
 9512 0b50 15        		.byte	0x15
 9513 0b51 00        		.byte	0x0
 9514 0b52 05        		.uleb128 0x5
 9515 0b53 02        		.byte	0x2
 9516 0b54 0000 0000 		.long	.LM321
 9517 0b58 15        		.byte	0x15
 9518 0b59 00        		.byte	0x0
 9519 0b5a 05        		.uleb128 0x5
 9520 0b5b 02        		.byte	0x2
 9521 0b5c 0000 0000 		.long	.LM322
 9522 0b60 15        		.byte	0x15
 9523 0b61 00        		.byte	0x0
 9524 0b62 05        		.uleb128 0x5
 9525 0b63 02        		.byte	0x2
 9526 0b64 0000 0000 		.long	.LM323
 9527 0b68 15        		.byte	0x15
 9528 0b69 00        		.byte	0x0
 9529 0b6a 05        		.uleb128 0x5
 9530 0b6b 02        		.byte	0x2
 9531 0b6c 0000 0000 		.long	.LM324
 9532 0b70 15        		.byte	0x15
 9533 0b71 00        		.byte	0x0
 9534 0b72 05        		.uleb128 0x5
 9535 0b73 02        		.byte	0x2
 9536 0b74 0000 0000 		.long	.LM325
 9537 0b78 17        		.byte	0x17
 9538 0b79 00        		.byte	0x0
 9539 0b7a 05        		.uleb128 0x5
 9540 0b7b 02        		.byte	0x2
 9541 0b7c 0000 0000 		.long	.LM326
 9542 0b80 15        		.byte	0x15
 9543 0b81 00        		.byte	0x0
 9544 0b82 05        		.uleb128 0x5
 9545 0b83 02        		.byte	0x2
 9546 0b84 0000 0000 		.long	.LM327
 9547 0b88 1B        		.byte	0x1b
 9548 0b89 00        		.byte	0x0
 9549 0b8a 05        		.uleb128 0x5
GAS LISTING C:\Users\ADMINI~1\AppData\Local\Temp/ccnPzUe6.s 			page 176


 9550 0b8b 02        		.byte	0x2
 9551 0b8c 0000 0000 		.long	.LM328
 9552 0b90 15        		.byte	0x15
 9553 0b91 00        		.byte	0x0
 9554 0b92 05        		.uleb128 0x5
 9555 0b93 02        		.byte	0x2
 9556 0b94 0000 0000 		.long	.LM329
 9557 0b98 15        		.byte	0x15
 9558 0b99 00        		.byte	0x0
 9559 0b9a 05        		.uleb128 0x5
 9560 0b9b 02        		.byte	0x2
 9561 0b9c 0000 0000 		.long	.LM330
 9562 0ba0 15        		.byte	0x15
 9563 0ba1 00        		.byte	0x0
 9564 0ba2 05        		.uleb128 0x5
 9565 0ba3 02        		.byte	0x2
 9566 0ba4 0000 0000 		.long	.LM331
 9567 0ba8 15        		.byte	0x15
 9568 0ba9 00        		.byte	0x0
 9569 0baa 05        		.uleb128 0x5
 9570 0bab 02        		.byte	0x2
 9571 0bac 0000 0000 		.long	.LM332
 9572 0bb0 15        		.byte	0x15
 9573 0bb1 00        		.byte	0x0
 9574 0bb2 05        		.uleb128 0x5
 9575 0bb3 02        		.byte	0x2
 9576 0bb4 0000 0000 		.long	.LM333
 9577 0bb8 15        		.byte	0x15
 9578 0bb9 00        		.byte	0x0
 9579 0bba 05        		.uleb128 0x5
 9580 0bbb 02        		.byte	0x2
 9581 0bbc 0000 0000 		.long	.LM334
 9582 0bc0 15        		.byte	0x15
 9583 0bc1 00        		.byte	0x0
 9584 0bc2 05        		.uleb128 0x5
 9585 0bc3 02        		.byte	0x2
 9586 0bc4 0000 0000 		.long	.LM335
 9587 0bc8 15        		.byte	0x15
 9588 0bc9 00        		.byte	0x0
 9589 0bca 05        		.uleb128 0x5
 9590 0bcb 02        		.byte	0x2
 9591 0bcc 0000 0000 		.long	.LM336
 9592 0bd0 03        		.byte	0x3
 9593 0bd1 DF7A      		.sleb128 -673
 9594 0bd3 01        		.byte	0x1
 9595 0bd4 00        		.byte	0x0
 9596 0bd5 05        		.uleb128 0x5
 9597 0bd6 02        		.byte	0x2
 9598 0bd7 0000 0000 		.long	.LM337
 9599 0bdb 03        		.byte	0x3
 9600 0bdc A305      		.sleb128 675
 9601 0bde 01        		.byte	0x1
 9602 0bdf 00        		.byte	0x0
 9603 0be0 05        		.uleb128 0x5
 9604 0be1 02        		.byte	0x2
 9605 0be2 0000 0000 		.long	.LM338
 9606 0be6 15        		.byte	0x15
GAS LISTING C:\Users\ADMINI~1\AppData\Local\Temp/ccnPzUe6.s 			page 177


 9607 0be7 00        		.byte	0x0
 9608 0be8 05        		.uleb128 0x5
 9609 0be9 02        		.byte	0x2
 9610 0bea 0000 0000 		.long	.LM339
 9611 0bee 16        		.byte	0x16
 9612 0bef 00        		.byte	0x0
 9613 0bf0 05        		.uleb128 0x5
 9614 0bf1 02        		.byte	0x2
 9615 0bf2 0000 0000 		.long	.LM340
 9616 0bf6 15        		.byte	0x15
 9617 0bf7 00        		.byte	0x0
 9618 0bf8 05        		.uleb128 0x5
 9619 0bf9 02        		.byte	0x2
 9620 0bfa 0000 0000 		.long	.LM341
 9621 0bfe 15        		.byte	0x15
 9622 0bff 00        		.byte	0x0
 9623 0c00 05        		.uleb128 0x5
 9624 0c01 02        		.byte	0x2
 9625 0c02 0000 0000 		.long	.LM342
 9626 0c06 16        		.byte	0x16
 9627 0c07 00        		.byte	0x0
 9628 0c08 05        		.uleb128 0x5
 9629 0c09 02        		.byte	0x2
 9630 0c0a 0000 0000 		.long	.LM343
 9631 0c0e 16        		.byte	0x16
 9632 0c0f 00        		.byte	0x0
 9633 0c10 05        		.uleb128 0x5
 9634 0c11 02        		.byte	0x2
 9635 0c12 0000 0000 		.long	.LM344
 9636 0c16 18        		.byte	0x18
 9637 0c17 00        		.byte	0x0
 9638 0c18 05        		.uleb128 0x5
 9639 0c19 02        		.byte	0x2
 9640 0c1a 0000 0000 		.long	.LM345
 9641 0c1e 16        		.byte	0x16
 9642 0c1f 00        		.byte	0x0
 9643 0c20 05        		.uleb128 0x5
 9644 0c21 02        		.byte	0x2
 9645 0c22 0000 0000 		.long	.LM346
 9646 0c26 16        		.byte	0x16
 9647 0c27 00        		.byte	0x0
 9648 0c28 05        		.uleb128 0x5
 9649 0c29 02        		.byte	0x2
 9650 0c2a 0000 0000 		.long	.LM347
 9651 0c2e 17        		.byte	0x17
 9652 0c2f 00        		.byte	0x0
 9653 0c30 05        		.uleb128 0x5
 9654 0c31 02        		.byte	0x2
 9655 0c32 0000 0000 		.long	.LM348
 9656 0c36 19        		.byte	0x19
 9657 0c37 00        		.byte	0x0
 9658 0c38 05        		.uleb128 0x5
 9659 0c39 02        		.byte	0x2
 9660 0c3a 0000 0000 		.long	.LM349
 9661 0c3e 15        		.byte	0x15
 9662 0c3f 00        		.byte	0x0
 9663 0c40 05        		.uleb128 0x5
GAS LISTING C:\Users\ADMINI~1\AppData\Local\Temp/ccnPzUe6.s 			page 178


 9664 0c41 02        		.byte	0x2
 9665 0c42 0000 0000 		.long	.LM350
 9666 0c46 15        		.byte	0x15
 9667 0c47 00        		.byte	0x0
 9668 0c48 05        		.uleb128 0x5
 9669 0c49 02        		.byte	0x2
 9670 0c4a 0000 0000 		.long	.LM351
 9671 0c4e 15        		.byte	0x15
 9672 0c4f 00        		.byte	0x0
 9673 0c50 05        		.uleb128 0x5
 9674 0c51 02        		.byte	0x2
 9675 0c52 0000 0000 		.long	.LM352
 9676 0c56 17        		.byte	0x17
 9677 0c57 00        		.byte	0x0
 9678 0c58 05        		.uleb128 0x5
 9679 0c59 02        		.byte	0x2
 9680 0c5a 0000 0000 		.long	.LM353
 9681 0c5e 15        		.byte	0x15
 9682 0c5f 00        		.byte	0x0
 9683 0c60 05        		.uleb128 0x5
 9684 0c61 02        		.byte	0x2
 9685 0c62 0000 0000 		.long	.LM354
 9686 0c66 17        		.byte	0x17
 9687 0c67 00        		.byte	0x0
 9688 0c68 05        		.uleb128 0x5
 9689 0c69 02        		.byte	0x2
 9690 0c6a 0000 0000 		.long	.LM355
 9691 0c6e 15        		.byte	0x15
 9692 0c6f 00        		.byte	0x0
 9693 0c70 05        		.uleb128 0x5
 9694 0c71 02        		.byte	0x2
 9695 0c72 0000 0000 		.long	.LM356
 9696 0c76 15        		.byte	0x15
 9697 0c77 00        		.byte	0x0
 9698 0c78 05        		.uleb128 0x5
 9699 0c79 02        		.byte	0x2
 9700 0c7a 0000 0000 		.long	.LM357
 9701 0c7e 04        		.byte	0x4
 9702 0c7f 02        		.uleb128 0x2
 9703 0c80 03        		.byte	0x3
 9704 0c81 A179      		.sleb128 -863
 9705 0c83 01        		.byte	0x1
 9706 0c84 00        		.byte	0x0
 9707 0c85 05        		.uleb128 0x5
 9708 0c86 02        		.byte	0x2
 9709 0c87 0000 0000 		.long	.LM358
 9710 0c8b 04        		.byte	0x4
 9711 0c8c 03        		.uleb128 0x3
 9712 0c8d 27        		.byte	0x27
 9713 0c8e 00        		.byte	0x0
 9714 0c8f 05        		.uleb128 0x5
 9715 0c90 02        		.byte	0x2
 9716 0c91 0000 0000 		.long	.LM359
 9717 0c95 10        		.byte	0x10
 9718 0c96 00        		.byte	0x0
 9719 0c97 05        		.uleb128 0x5
 9720 0c98 02        		.byte	0x2
GAS LISTING C:\Users\ADMINI~1\AppData\Local\Temp/ccnPzUe6.s 			page 179


 9721 0c99 0000 0000 		.long	.LM360
 9722 0c9d 04        		.byte	0x4
 9723 0c9e 01        		.uleb128 0x1
 9724 0c9f 03        		.byte	0x3
 9725 0ca0 D806      		.sleb128 856
 9726 0ca2 01        		.byte	0x1
 9727 0ca3 00        		.byte	0x0
 9728 0ca4 05        		.uleb128 0x5
 9729 0ca5 02        		.byte	0x2
 9730 0ca6 0000 0000 		.long	.LM361
 9731 0caa 17        		.byte	0x17
 9732 0cab 00        		.byte	0x0
 9733 0cac 05        		.uleb128 0x5
 9734 0cad 02        		.byte	0x2
 9735 0cae 0000 0000 		.long	.LM362
 9736 0cb2 03        		.byte	0x3
 9737 0cb3 BF7C      		.sleb128 -449
 9738 0cb5 01        		.byte	0x1
 9739 0cb6 00        		.byte	0x0
 9740 0cb7 05        		.uleb128 0x5
 9741 0cb8 02        		.byte	0x2
 9742 0cb9 0000 0000 		.long	.LM363
 9743 0cbd 01        		.byte	0x1
 9744 0cbe 00        		.byte	0x0
 9745 0cbf 05        		.uleb128 0x5
 9746 0cc0 02        		.byte	0x2
 9747 0cc1 0000 0000 		.long	.LM364
 9748 0cc5 1D        		.byte	0x1d
 9749 0cc6 00        		.byte	0x0
 9750 0cc7 05        		.uleb128 0x5
 9751 0cc8 02        		.byte	0x2
 9752 0cc9 0000 0000 		.long	.LM365
 9753 0ccd 10        		.byte	0x10
 9754 0cce 00        		.byte	0x0
 9755 0ccf 05        		.uleb128 0x5
 9756 0cd0 02        		.byte	0x2
 9757 0cd1 0000 0000 		.long	.LM366
 9758 0cd5 13        		.byte	0x13
 9759 0cd6 00        		.byte	0x0
 9760 0cd7 05        		.uleb128 0x5
 9761 0cd8 02        		.byte	0x2
 9762 0cd9 0000 0000 		.long	.LM367
 9763 0cdd 1C        		.byte	0x1c
 9764 0cde 00        		.byte	0x0
 9765 0cdf 05        		.uleb128 0x5
 9766 0ce0 02        		.byte	0x2
 9767 0ce1 0000 0000 		.long	.LM368
 9768 0ce5 16        		.byte	0x16
 9769 0ce6 00        		.byte	0x0
 9770 0ce7 05        		.uleb128 0x5
 9771 0ce8 02        		.byte	0x2
 9772 0ce9 0000 0000 		.long	.LM369
 9773 0ced 16        		.byte	0x16
 9774 0cee 00        		.byte	0x0
 9775 0cef 05        		.uleb128 0x5
 9776 0cf0 02        		.byte	0x2
 9777 0cf1 0000 0000 		.long	.LM370
GAS LISTING C:\Users\ADMINI~1\AppData\Local\Temp/ccnPzUe6.s 			page 180


 9778 0cf5 03        		.byte	0x3
 9779 0cf6 B07D      		.sleb128 -336
 9780 0cf8 01        		.byte	0x1
 9781 0cf9 00        		.byte	0x0
 9782 0cfa 05        		.uleb128 0x5
 9783 0cfb 02        		.byte	0x2
 9784 0cfc 0000 0000 		.long	.LM371
 9785 0d00 15        		.byte	0x15
 9786 0d01 00        		.byte	0x0
 9787 0d02 05        		.uleb128 0x5
 9788 0d03 02        		.byte	0x2
 9789 0d04 0000 0000 		.long	.LM372
 9790 0d08 03        		.byte	0x3
 9791 0d09 D102      		.sleb128 337
 9792 0d0b 01        		.byte	0x1
 9793 0d0c 00        		.byte	0x0
 9794 0d0d 05        		.uleb128 0x5
 9795 0d0e 02        		.byte	0x2
 9796 0d0f 0000 0000 		.long	.LM373
 9797 0d13 16        		.byte	0x16
 9798 0d14 00        		.byte	0x0
 9799 0d15 05        		.uleb128 0x5
 9800 0d16 02        		.byte	0x2
 9801 0d17 0000 0000 		.long	.LM374
 9802 0d1b 15        		.byte	0x15
 9803 0d1c 00        		.byte	0x0
 9804 0d1d 05        		.uleb128 0x5
 9805 0d1e 02        		.byte	0x2
 9806 0d1f 0000 0000 		.long	.LM375
 9807 0d23 15        		.byte	0x15
 9808 0d24 00        		.byte	0x0
 9809 0d25 05        		.uleb128 0x5
 9810 0d26 02        		.byte	0x2
 9811 0d27 0000 0000 		.long	.LM376
 9812 0d2b 15        		.byte	0x15
 9813 0d2c 00        		.byte	0x0
 9814 0d2d 05        		.uleb128 0x5
 9815 0d2e 02        		.byte	0x2
 9816 0d2f 0000 0000 		.long	.LM377
 9817 0d33 15        		.byte	0x15
 9818 0d34 00        		.byte	0x0
 9819 0d35 05        		.uleb128 0x5
 9820 0d36 02        		.byte	0x2
 9821 0d37 0000 0000 		.long	.LM378
 9822 0d3b 15        		.byte	0x15
 9823 0d3c 00        		.byte	0x0
 9824 0d3d 05        		.uleb128 0x5
 9825 0d3e 02        		.byte	0x2
 9826 0d3f 0000 0000 		.long	.LM379
 9827 0d43 18        		.byte	0x18
 9828 0d44 00        		.byte	0x0
 9829 0d45 05        		.uleb128 0x5
 9830 0d46 02        		.byte	0x2
 9831 0d47 0000 0000 		.long	.LM380
 9832 0d4b 15        		.byte	0x15
 9833 0d4c 00        		.byte	0x0
 9834 0d4d 05        		.uleb128 0x5
GAS LISTING C:\Users\ADMINI~1\AppData\Local\Temp/ccnPzUe6.s 			page 181


 9835 0d4e 02        		.byte	0x2
 9836 0d4f 0000 0000 		.long	.LM381
 9837 0d53 03        		.byte	0x3
 9838 0d54 56        		.sleb128 -42
 9839 0d55 01        		.byte	0x1
 9840 0d56 00        		.byte	0x0
 9841 0d57 05        		.uleb128 0x5
 9842 0d58 02        		.byte	0x2
 9843 0d59 0000 0000 		.long	.LM382
 9844 0d5d 15        		.byte	0x15
 9845 0d5e 00        		.byte	0x0
 9846 0d5f 05        		.uleb128 0x5
 9847 0d60 02        		.byte	0x2
 9848 0d61 0000 0000 		.long	.LM383
 9849 0d65 15        		.byte	0x15
 9850 0d66 00        		.byte	0x0
 9851 0d67 05        		.uleb128 0x5
 9852 0d68 02        		.byte	0x2
 9853 0d69 0000 0000 		.long	.LM384
 9854 0d6d 15        		.byte	0x15
 9855 0d6e 00        		.byte	0x0
 9856 0d6f 05        		.uleb128 0x5
 9857 0d70 02        		.byte	0x2
 9858 0d71 0000 0000 		.long	.LM385
 9859 0d75 15        		.byte	0x15
 9860 0d76 00        		.byte	0x0
 9861 0d77 05        		.uleb128 0x5
 9862 0d78 02        		.byte	0x2
 9863 0d79 0000 0000 		.long	.LM386
 9864 0d7d 16        		.byte	0x16
 9865 0d7e 00        		.byte	0x0
 9866 0d7f 05        		.uleb128 0x5
 9867 0d80 02        		.byte	0x2
 9868 0d81 0000 0000 		.long	.LM387
 9869 0d85 16        		.byte	0x16
 9870 0d86 00        		.byte	0x0
 9871 0d87 05        		.uleb128 0x5
 9872 0d88 02        		.byte	0x2
 9873 0d89 0000 0000 		.long	.LM388
 9874 0d8d 15        		.byte	0x15
 9875 0d8e 00        		.byte	0x0
 9876 0d8f 05        		.uleb128 0x5
 9877 0d90 02        		.byte	0x2
 9878 0d91 0000 0000 		.long	.LM389
 9879 0d95 03        		.byte	0x3
 9880 0d96 8D7E      		.sleb128 -243
 9881 0d98 01        		.byte	0x1
 9882 0d99 00        		.byte	0x0
 9883 0d9a 05        		.uleb128 0x5
 9884 0d9b 02        		.byte	0x2
 9885 0d9c 0000 0000 		.long	.LM390
 9886 0da0 16        		.byte	0x16
 9887 0da1 00        		.byte	0x0
 9888 0da2 05        		.uleb128 0x5
 9889 0da3 02        		.byte	0x2
 9890 0da4 0000 0000 		.long	.LM391
 9891 0da8 03        		.byte	0x3
GAS LISTING C:\Users\ADMINI~1\AppData\Local\Temp/ccnPzUe6.s 			page 182


 9892 0da9 6A        		.sleb128 -22
 9893 0daa 01        		.byte	0x1
 9894 0dab 00        		.byte	0x0
 9895 0dac 05        		.uleb128 0x5
 9896 0dad 02        		.byte	0x2
 9897 0dae 0000 0000 		.long	.LM392
 9898 0db2 38        		.byte	0x38
 9899 0db3 00        		.byte	0x0
 9900 0db4 05        		.uleb128 0x5
 9901 0db5 02        		.byte	0x2
 9902 0db6 0000 0000 		.long	.LM393
 9903 0dba 03        		.byte	0x3
 9904 0dbb 54        		.sleb128 -44
 9905 0dbc 01        		.byte	0x1
 9906 0dbd 00        		.byte	0x0
 9907 0dbe 05        		.uleb128 0x5
 9908 0dbf 02        		.byte	0x2
 9909 0dc0 0000 0000 		.long	.LM394
 9910 0dc4 45        		.byte	0x45
 9911 0dc5 00        		.byte	0x0
 9912 0dc6 05        		.uleb128 0x5
 9913 0dc7 02        		.byte	0x2
 9914 0dc8 0000 0000 		.long	.LM395
 9915 0dcc 03        		.byte	0x3
 9916 0dcd 9302      		.sleb128 275
 9917 0dcf 01        		.byte	0x1
 9918 0dd0 00        		.byte	0x0
 9919 0dd1 05        		.uleb128 0x5
 9920 0dd2 02        		.byte	0x2
 9921 0dd3 0000 0000 		.long	.LM396
 9922 0dd7 15        		.byte	0x15
 9923 0dd8 00        		.byte	0x0
 9924 0dd9 05        		.uleb128 0x5
 9925 0dda 02        		.byte	0x2
 9926 0ddb 0000 0000 		.long	.LM397
 9927 0ddf 03        		.byte	0x3
 9928 0de0 C87D      		.sleb128 -312
 9929 0de2 01        		.byte	0x1
 9930 0de3 00        		.byte	0x0
 9931 0de4 05        		.uleb128 0x5
 9932 0de5 02        		.byte	0x2
 9933 0de6 0000 0000 		.long	.LM398
 9934 0dea 03        		.byte	0x3
 9935 0deb BC02      		.sleb128 316
 9936 0ded 01        		.byte	0x1
 9937 0dee 00        		.byte	0x0
 9938 0def 05        		.uleb128 0x5
 9939 0df0 02        		.byte	0x2
 9940 0df1 0000 0000 		.long	.LM399
 9941 0df5 16        		.byte	0x16
 9942 0df6 00        		.byte	0x0
 9943 0df7 05        		.uleb128 0x5
 9944 0df8 02        		.byte	0x2
 9945 0df9 0000 0000 		.long	.LM400
 9946 0dfd 15        		.byte	0x15
 9947 0dfe 00        		.byte	0x0
 9948 0dff 05        		.uleb128 0x5
GAS LISTING C:\Users\ADMINI~1\AppData\Local\Temp/ccnPzUe6.s 			page 183


 9949 0e00 02        		.byte	0x2
 9950 0e01 0000 0000 		.long	.LM401
 9951 0e05 16        		.byte	0x16
 9952 0e06 00        		.byte	0x0
 9953 0e07 05        		.uleb128 0x5
 9954 0e08 02        		.byte	0x2
 9955 0e09 0000 0000 		.long	.LM402
 9956 0e0d 17        		.byte	0x17
 9957 0e0e 00        		.byte	0x0
 9958 0e0f 05        		.uleb128 0x5
 9959 0e10 02        		.byte	0x2
 9960 0e11 0000 0000 		.long	.LM403
 9961 0e15 03        		.byte	0x3
 9962 0e16 F77C      		.sleb128 -393
 9963 0e18 01        		.byte	0x1
 9964 0e19 00        		.byte	0x0
 9965 0e1a 05        		.uleb128 0x5
 9966 0e1b 02        		.byte	0x2
 9967 0e1c 0000 0000 		.long	.LM404
 9968 0e20 03        		.byte	0x3
 9969 0e21 B07F      		.sleb128 -80
 9970 0e23 01        		.byte	0x1
 9971 0e24 00        		.byte	0x0
 9972 0e25 05        		.uleb128 0x5
 9973 0e26 02        		.byte	0x2
 9974 0e27 0000 0000 		.long	.LM405
 9975 0e2b 65        		.byte	0x65
 9976 0e2c 00        		.byte	0x0
 9977 0e2d 05        		.uleb128 0x5
 9978 0e2e 02        		.byte	0x2
 9979 0e2f 0000 0000 		.long	.LM406
 9980 0e33 03        		.byte	0x3
 9981 0e34 5B        		.sleb128 -37
 9982 0e35 01        		.byte	0x1
 9983 0e36 00        		.byte	0x0
 9984 0e37 05        		.uleb128 0x5
 9985 0e38 02        		.byte	0x2
 9986 0e39 0000 0000 		.long	.LM407
 9987 0e3d 16        		.byte	0x16
 9988 0e3e 00        		.byte	0x0
 9989 0e3f 05        		.uleb128 0x5
 9990 0e40 02        		.byte	0x2
 9991 0e41 0000 0000 		.long	.LM408
 9992 0e45 03        		.byte	0x3
 9993 0e46 6D        		.sleb128 -19
 9994 0e47 01        		.byte	0x1
 9995 0e48 00        		.byte	0x0
 9996 0e49 05        		.uleb128 0x5
 9997 0e4a 02        		.byte	0x2
 9998 0e4b 0000 0000 		.long	.LM409
 9999 0e4f 03        		.byte	0x3
 10000 0e50 61        		.sleb128 -31
 10001 0e51 01        		.byte	0x1
 10002 0e52 00        		.byte	0x0
 10003 0e53 05        		.uleb128 0x5
 10004 0e54 02        		.byte	0x2
 10005 0e55 0000 0000 		.long	.LM410
GAS LISTING C:\Users\ADMINI~1\AppData\Local\Temp/ccnPzUe6.s 			page 184


 10006 0e59 37        		.byte	0x37
 10007 0e5a 00        		.byte	0x0
 10008 0e5b 05        		.uleb128 0x5
 10009 0e5c 02        		.byte	0x2
 10010 0e5d 0000 0000 		.long	.LM411
 10011 0e61 15        		.byte	0x15
 10012 0e62 00        		.byte	0x0
 10013 0e63 05        		.uleb128 0x5
 10014 0e64 02        		.byte	0x2
 10015 0e65 0000 0000 		.long	.LM412
 10016 0e69 16        		.byte	0x16
 10017 0e6a 00        		.byte	0x0
 10018 0e6b 05        		.uleb128 0x5
 10019 0e6c 02        		.byte	0x2
 10020 0e6d 0000 0000 		.long	.LM413
 10021 0e71 15        		.byte	0x15
 10022 0e72 00        		.byte	0x0
 10023 0e73 05        		.uleb128 0x5
 10024 0e74 02        		.byte	0x2
 10025 0e75 0000 0000 		.long	.LM414
 10026 0e79 18        		.byte	0x18
 10027 0e7a 00        		.byte	0x0
 10028 0e7b 05        		.uleb128 0x5
 10029 0e7c 02        		.byte	0x2
 10030 0e7d 0000 0000 		.long	.LM415
 10031 0e81 16        		.byte	0x16
 10032 0e82 00        		.byte	0x0
 10033 0e83 05        		.uleb128 0x5
 10034 0e84 02        		.byte	0x2
 10035 0e85 0000 0000 		.long	.LM416
 10036 0e89 4B        		.byte	0x4b
 10037 0e8a 00        		.byte	0x0
 10038 0e8b 05        		.uleb128 0x5
 10039 0e8c 02        		.byte	0x2
 10040 0e8d 0000 0000 		.long	.LM417
 10041 0e91 15        		.byte	0x15
 10042 0e92 00        		.byte	0x0
 10043 0e93 05        		.uleb128 0x5
 10044 0e94 02        		.byte	0x2
 10045 0e95 0000 0000 		.long	.LM418
 10046 0e99 15        		.byte	0x15
 10047 0e9a 00        		.byte	0x0
 10048 0e9b 05        		.uleb128 0x5
 10049 0e9c 02        		.byte	0x2
 10050 0e9d 0000 0000 		.long	.LM419
 10051 0ea1 15        		.byte	0x15
 10052 0ea2 00        		.byte	0x0
 10053 0ea3 05        		.uleb128 0x5
 10054 0ea4 02        		.byte	0x2
 10055 0ea5 0000 0000 		.long	.LM420
 10056 0ea9 19        		.byte	0x19
 10057 0eaa 00        		.byte	0x0
 10058 0eab 05        		.uleb128 0x5
 10059 0eac 02        		.byte	0x2
 10060 0ead 0000 0000 		.long	.LM421
 10061 0eb1 15        		.byte	0x15
 10062 0eb2 00        		.byte	0x0
GAS LISTING C:\Users\ADMINI~1\AppData\Local\Temp/ccnPzUe6.s 			page 185


 10063 0eb3 05        		.uleb128 0x5
 10064 0eb4 02        		.byte	0x2
 10065 0eb5 0000 0000 		.long	.LM422
 10066 0eb9 16        		.byte	0x16
 10067 0eba 00        		.byte	0x0
 10068 0ebb 05        		.uleb128 0x5
 10069 0ebc 02        		.byte	0x2
 10070 0ebd 0000 0000 		.long	.LM423
 10071 0ec1 15        		.byte	0x15
 10072 0ec2 00        		.byte	0x0
 10073 0ec3 05        		.uleb128 0x5
 10074 0ec4 02        		.byte	0x2
 10075 0ec5 0000 0000 		.long	.LM424
 10076 0ec9 16        		.byte	0x16
 10077 0eca 00        		.byte	0x0
 10078 0ecb 05        		.uleb128 0x5
 10079 0ecc 02        		.byte	0x2
 10080 0ecd 0000 0000 		.long	.LM425
 10081 0ed1 15        		.byte	0x15
 10082 0ed2 00        		.byte	0x0
 10083 0ed3 05        		.uleb128 0x5
 10084 0ed4 02        		.byte	0x2
 10085 0ed5 0000 0000 		.long	.LM426
 10086 0ed9 15        		.byte	0x15
 10087 0eda 00        		.byte	0x0
 10088 0edb 05        		.uleb128 0x5
 10089 0edc 02        		.byte	0x2
 10090 0edd 0000 0000 		.long	.LM427
 10091 0ee1 16        		.byte	0x16
 10092 0ee2 00        		.byte	0x0
 10093 0ee3 05        		.uleb128 0x5
 10094 0ee4 02        		.byte	0x2
 10095 0ee5 0000 0000 		.long	.LM428
 10096 0ee9 15        		.byte	0x15
 10097 0eea 00        		.byte	0x0
 10098 0eeb 05        		.uleb128 0x5
 10099 0eec 02        		.byte	0x2
 10100 0eed 0000 0000 		.long	.LM429
 10101 0ef1 16        		.byte	0x16
 10102 0ef2 00        		.byte	0x0
 10103 0ef3 05        		.uleb128 0x5
 10104 0ef4 02        		.byte	0x2
 10105 0ef5 0000 0000 		.long	.LM430
 10106 0ef9 15        		.byte	0x15
 10107 0efa 00        		.byte	0x0
 10108 0efb 05        		.uleb128 0x5
 10109 0efc 02        		.byte	0x2
 10110 0efd 0000 0000 		.long	.LM431
 10111 0f01 17        		.byte	0x17
 10112 0f02 00        		.byte	0x0
 10113 0f03 05        		.uleb128 0x5
 10114 0f04 02        		.byte	0x2
 10115 0f05 0000 0000 		.long	.LM432
 10116 0f09 16        		.byte	0x16
 10117 0f0a 00        		.byte	0x0
 10118 0f0b 05        		.uleb128 0x5
 10119 0f0c 02        		.byte	0x2
GAS LISTING C:\Users\ADMINI~1\AppData\Local\Temp/ccnPzUe6.s 			page 186


 10120 0f0d 0000 0000 		.long	.LM433
 10121 0f11 17        		.byte	0x17
 10122 0f12 00        		.byte	0x0
 10123 0f13 05        		.uleb128 0x5
 10124 0f14 02        		.byte	0x2
 10125 0f15 0000 0000 		.long	.LM434
 10126 0f19 15        		.byte	0x15
 10127 0f1a 00        		.byte	0x0
 10128 0f1b 05        		.uleb128 0x5
 10129 0f1c 02        		.byte	0x2
 10130 0f1d 0000 0000 		.long	.LM435
 10131 0f21 15        		.byte	0x15
 10132 0f22 00        		.byte	0x0
 10133 0f23 05        		.uleb128 0x5
 10134 0f24 02        		.byte	0x2
 10135 0f25 0000 0000 		.long	.LM436
 10136 0f29 03        		.byte	0x3
 10137 0f2a BD7F      		.sleb128 -67
 10138 0f2c 01        		.byte	0x1
 10139 0f2d 00        		.byte	0x0
 10140 0f2e 05        		.uleb128 0x5
 10141 0f2f 02        		.byte	0x2
 10142 0f30 0000 0000 		.long	.LM437
 10143 0f34 17        		.byte	0x17
 10144 0f35 00        		.byte	0x0
 10145 0f36 05        		.uleb128 0x5
 10146 0f37 02        		.byte	0x2
 10147 0f38 0000 0000 		.long	.LM438
 10148 0f3c 15        		.byte	0x15
 10149 0f3d 00        		.byte	0x0
 10150 0f3e 05        		.uleb128 0x5
 10151 0f3f 02        		.byte	0x2
 10152 0f40 0000 0000 		.long	.LM439
 10153 0f44 19        		.byte	0x19
 10154 0f45 00        		.byte	0x0
 10155 0f46 05        		.uleb128 0x5
 10156 0f47 02        		.byte	0x2
 10157 0f48 0000 0000 		.long	.LM440
 10158 0f4c 16        		.byte	0x16
 10159 0f4d 00        		.byte	0x0
 10160 0f4e 05        		.uleb128 0x5
 10161 0f4f 02        		.byte	0x2
 10162 0f50 0000 0000 		.long	.LM441
 10163 0f54 15        		.byte	0x15
 10164 0f55 00        		.byte	0x0
 10165 0f56 05        		.uleb128 0x5
 10166 0f57 02        		.byte	0x2
 10167 0f58 0000 0000 		.long	.Letext0
 10168 0f5c 00        		.byte	0x0
 10169 0f5d 01        		.uleb128 0x1
 10170 0f5e 01        		.byte	0x1
 10171               	.LELT0:
 10172 0f5f 1600 0000 		.section	.debug_str,"MS",@progbits,1
 10172      0200 1000 
 10172      0000 0101 
 10172      FB0E 0A00 
 10172      0101 0101 
GAS LISTING C:\Users\ADMINI~1\AppData\Local\Temp/ccnPzUe6.s 			page 187


 10173               	.LASF256:
 10174 0000 5F5F 6164 		.string	"__addr16"
 10174      6472 3136 
 10174      00
 10175               	.LASF254:
 10176 0009 7072 696E 		.string	"printStringFromFlash"
 10176      7453 7472 
 10176      696E 6746 
 10176      726F 6D46 
 10176      6C61 7368 
 10177               	.LASF308:
 10178 001e 5F63 7572 		.string	"_currentLayer"
 10178      7265 6E74 
 10178      4C61 7965 
 10178      7200 
 10179               	.LASF117:
 10180 002c 4B45 595F 		.string	"KEY_SCRLCK"
 10180      5343 524C 
 10180      434B 00
 10181               	.LASF304:
 10182 0037 5F62 7566 		.string	"_buffer"
 10182      6665 7200 
 10183               	.LASF310:
 10184 003f 7573 696E 		.string	"usingKeys"
 10184      674B 6579 
 10184      7300 
 10185               	.LASF181:
 10186 0049 4B45 595F 		.string	"KEY_REC"
 10186      5245 4300 
 10187               	.LASF337:
 10188 0051 7374 725F 		.string	"str_cancel_mapping"
 10188      6361 6E63 
 10188      656C 5F6D 
 10188      6170 7069 
 10188      6E67 00
 10189               	.LASF267:
 10190 0064 7072 696E 		.string	"printMapperMessageAfter"
 10190      744D 6170 
 10190      7065 724D 
 10190      6573 7361 
 10190      6765 4166 
 10191               	.LASF341:
 10192 007c 7374 725F 		.string	"str_save_layer"
 10192      7361 7665 
 10192      5F6C 6179 
 10192      6572 00
 10193               	.LASF326:
 10194 008b 7374 725F 		.string	"str_mapper_message"
 10194      6D61 7070 
 10194      6572 5F6D 
 10194      6573 7361 
 10194      6765 00
 10195               	.LASF274:
 10196 009e 7265 6164 		.string	"readMacro"
 10196      4D61 6372 
 10196      6F00 
 10197               	.LASF302:
GAS LISTING C:\Users\ADMINI~1\AppData\Local\Temp/ccnPzUe6.s 			page 188


 10198 00a8 5F63 6F6C 		.string	"_col"
 10198      00
 10199               	.LASF315:
 10200 00ad 7374 725F 		.string	"str_select_mode1"
 10200      7365 6C65 
 10200      6374 5F6D 
 10200      6F64 6531 
 10200      00
 10201               	.LASF316:
 10202 00be 7374 725F 		.string	"str_select_mode2"
 10202      7365 6C65 
 10202      6374 5F6D 
 10202      6F64 6532 
 10202      00
 10203               	.LASF154:
 10204 00cf 4B45 595F 		.string	"KEY_RSHIFT"
 10204      5253 4849 
 10204      4654 00
 10205               	.LASF261:
 10206 00da 7361 7665 		.string	"saveCurrentLayer"
 10206      4375 7272 
 10206      656E 744C 
 10206      6179 6572 
 10206      00
 10207               	.LASF187:
 10208 00eb 4B45 595F 		.string	"KEY_HANJA"
 10208      4841 4E4A 
 10208      4100 
 10209               	.LASF283:
 10210 00f5 7072 6570 		.string	"prepareKeyMapper"
 10210      6172 654B 
 10210      6579 4D61 
 10210      7070 6572 
 10210      00
 10211               	.LASF13:
 10212 0106 666C 6167 		.string	"flags"
 10212      7300 
 10213               	.LASF167:
 10214 010c 4B45 595F 		.string	"KEY_WWW_STOP"
 10214      5757 575F 
 10214      5354 4F50 
 10214      00
 10215               	.LASF139:
 10216 0119 4B45 595F 		.string	"KEY_KP_5"
 10216      4B50 5F35 
 10216      00
 10217               	.LASF180:
 10218 0122 4B45 595F 		.string	"KEY_SCREENSAVE"
 10218      5343 5245 
 10218      454E 5341 
 10218      5645 00
 10219               	.LASF173:
 10220 0131 4B45 595F 		.string	"KEY_PLAY"
 10220      504C 4159 
 10220      00
 10221               	.LASF8:
 10222 013a 756E 7369 		.string	"unsigned int"
GAS LISTING C:\Users\ADMINI~1\AppData\Local\Temp/ccnPzUe6.s 			page 189


 10222      676E 6564 
 10222      2069 6E74 
 10222      00
 10223               	.LASF183:
 10224 0147 4B45 595F 		.string	"KEY_MINIMIZE"
 10224      4D49 4E49 
 10224      4D49 5A45 
 10224      00
 10225               	.LASF155:
 10226 0154 4B45 595F 		.string	"KEY_RALT"
 10226      5241 4C54 
 10226      00
 10227               	.LASF334:
 10228 015d 7374 725F 		.string	"str_choose_key"
 10228      6368 6F6F 
 10228      7365 5F6B 
 10228      6579 00
 10229               	.LASF21:
 10230 016c 4B45 595F 		.string	"KEY_RSHIFT_HANGLE"
 10230      5253 4849 
 10230      4654 5F48 
 10230      414E 474C 
 10230      4500 
 10231               	.LASF182:
 10232 017e 4B45 595F 		.string	"KEY_REWIND"
 10232      5245 5749 
 10232      4E44 00
 10233               	.LASF129:
 10234 0189 4B45 595F 		.string	"KEY_NUMLOCK"
 10234      4E55 4D4C 
 10234      4F43 4B00 
 10235               	.LASF204:
 10236 0195 4B45 595F 		.string	"KEY_EQUAL_SIGN"
 10236      4551 5541 
 10236      4C5F 5349 
 10236      474E 00
 10237               	.LASF279:
 10238 01a4 674C 6179 		.string	"gLayer"
 10238      6572 00
 10239               	.LASF190:
 10240 01ab 4B45 595F 		.string	"KEY_KP_EQUAL"
 10240      4B50 5F45 
 10240      5155 414C 
 10240      00
 10241               	.LASF245:
 10242 01b8 7374 6F70 		.string	"stopKeyMapping"
 10242      4B65 794D 
 10242      6170 7069 
 10242      6E67 00
 10243               	.LASF338:
 10244 01c7 7374 725F 		.string	"str_reset_mapping"
 10244      7265 7365 
 10244      745F 6D61 
 10244      7070 696E 
 10244      6700 
 10245               	.LASF320:
 10246 01d9 7374 725F 		.string	"str_boot_mapper"
GAS LISTING C:\Users\ADMINI~1\AppData\Local\Temp/ccnPzUe6.s 			page 190


 10246      626F 6F74 
 10246      5F6D 6170 
 10246      7065 7200 
 10247               	.LASF171:
 10248 01e9 4B45 595F 		.string	"KEY_PREV_TRK"
 10248      5052 4556 
 10248      5F54 524B 
 10248      00
 10249               	.LASF23:
 10250 01f6 4B45 595F 		.string	"KEY_LSHIFT_HANGLE"
 10250      4C53 4849 
 10250      4654 5F48 
 10250      414E 474C 
 10250      4500 
 10251               	.LASF290:
 10252 0208 656E 7465 		.string	"enterFrameForMapper"
 10252      7246 7261 
 10252      6D65 466F 
 10252      724D 6170 
 10252      7065 7200 
 10253               	.LASF12:
 10254 021c 756E 6765 		.string	"unget"
 10254      7400 
 10255               	.LASF179:
 10256 0222 4B45 595F 		.string	"KEY_MYCOM"
 10256      4D59 434F 
 10256      4D00 
 10257               	.LASF156:
 10258 022c 4B45 595F 		.string	"KEY_RGUI"
 10258      5247 5549 
 10258      00
 10259               	.LASF101:
 10260 0235 4B45 595F 		.string	"KEY_DOT"
 10260      444F 5400 
 10261               	.LASF222:
 10262 023d 6D6F 6465 		.string	"mode"
 10262      00
 10263               	.LASF158:
 10264 0242 4B45 595F 		.string	"KEY_Multimedia"
 10264      4D75 6C74 
 10264      696D 6564 
 10264      6961 00
 10265               	.LASF333:
 10266 0251 7374 725F 		.string	"str_choose_layer"
 10266      6368 6F6F 
 10266      7365 5F6C 
 10266      6179 6572 
 10266      00
 10267               	.LASF224:
 10268 0262 5F5F 636F 		.string	"__count"
 10268      756E 7400 
 10269               	.LASF307:
 10270 026a 5F69 7357 		.string	"_isWorkingForEmpty"
 10270      6F72 6B69 
 10270      6E67 466F 
 10270      7245 6D70 
 10270      7479 00
GAS LISTING C:\Users\ADMINI~1\AppData\Local\Temp/ccnPzUe6.s 			page 191


 10271               	.LASF236:
 10272 027d 6765 744D 		.string	"getMappingKeyCode"
 10272      6170 7069 
 10272      6E67 4B65 
 10272      7943 6F64 
 10272      6500 
 10273               	.LASF355:
 10274 028f 5F70 7265 		.string	"_pressedEscapeKeyCount"
 10274      7373 6564 
 10274      4573 6361 
 10274      7065 4B65 
 10274      7943 6F75 
 10275               	.LASF52:
 10276 02a6 4B45 595F 		.string	"KEY_C"
 10276      4300 
 10277               	.LASF55:
 10278 02ac 4B45 595F 		.string	"KEY_F"
 10278      4600 
 10279               	.LASF293:
 10280 02b2 5F69 734B 		.string	"_isKeyMapping"
 10280      6579 4D61 
 10280      7070 696E 
 10280      6700 
 10281               	.LASF58:
 10282 02c0 4B45 595F 		.string	"KEY_I"
 10282      4900 
 10283               	.LASF157:
 10284 02c6 4B45 595F 		.string	"KEY_Modifiers_end"
 10284      4D6F 6469 
 10284      6669 6572 
 10284      735F 656E 
 10284      6400 
 10285               	.LASF269:
 10286 02d8 636C 6561 		.string	"clearMacroAfter"
 10286      724D 6163 
 10286      726F 4166 
 10286      7465 7200 
 10287               	.LASF260:
 10288 02e8 636C 6561 		.string	"clearMacro"
 10288      724D 6163 
 10288      726F 00
 10289               	.LASF271:
 10290 02f3 7361 7665 		.string	"saveMacro"
 10290      4D61 6372 
 10290      6F00 
 10291               	.LASF351:
 10292 02fd 5F6D 6163 		.string	"_macroIndex"
 10292      726F 496E 
 10292      6465 7800 
 10293               	.LASF144:
 10294 0309 4B45 595F 		.string	"KEY_KP_0"
 10294      4B50 5F30 
 10294      00
 10295               	.LASF135:
 10296 0312 4B45 595F 		.string	"KEY_KP_1"
 10296      4B50 5F31 
 10296      00
GAS LISTING C:\Users\ADMINI~1\AppData\Local\Temp/ccnPzUe6.s 			page 192


 10297               	.LASF136:
 10298 031b 4B45 595F 		.string	"KEY_KP_2"
 10298      4B50 5F32 
 10298      00
 10299               	.LASF70:
 10300 0324 4B45 595F 		.string	"KEY_U"
 10300      5500 
 10301               	.LASF26:
 10302 032a 4B45 595F 		.string	"KEY_RALT_HANJA"
 10302      5241 4C54 
 10302      5F48 414E 
 10302      4A41 00
 10303               	.LASF85:
 10304 0339 4B45 595F 		.string	"KEY_0"
 10304      3000 
 10305               	.LASF76:
 10306 033f 4B45 595F 		.string	"KEY_1"
 10306      3100 
 10307               	.LASF77:
 10308 0345 4B45 595F 		.string	"KEY_2"
 10308      3200 
 10309               	.LASF78:
 10310 034b 4B45 595F 		.string	"KEY_3"
 10310      3300 
 10311               	.LASF79:
 10312 0351 4B45 595F 		.string	"KEY_4"
 10312      3400 
 10313               	.LASF80:
 10314 0357 4B45 595F 		.string	"KEY_5"
 10314      3500 
 10315               	.LASF81:
 10316 035d 4B45 595F 		.string	"KEY_6"
 10316      3600 
 10317               	.LASF82:
 10318 0363 4B45 595F 		.string	"KEY_7"
 10318      3700 
 10319               	.LASF83:
 10320 0369 4B45 595F 		.string	"KEY_8"
 10320      3800 
 10321               	.LASF84:
 10322 036f 4B45 595F 		.string	"KEY_9"
 10322      3900 
 10323               	.LASF289:
 10324 0375 636F 756E 		.string	"countKeyMappingEnabled"
 10324      744B 6579 
 10324      4D61 7070 
 10324      696E 6745 
 10324      6E61 626C 
 10325               	.LASF248:
 10326 038c 6973 4D61 		.string	"isMacroInput"
 10326      6372 6F49 
 10326      6E70 7574 
 10326      00
 10327               	.LASF342:
 10328 0399 7374 725F 		.string	"str_load_layer"
 10328      6C6F 6164 
 10328      5F6C 6179 
GAS LISTING C:\Users\ADMINI~1\AppData\Local\Temp/ccnPzUe6.s 			page 193


 10328      6572 00
 10329               	.LASF50:
 10330 03a8 4B45 595F 		.string	"KEY_A"
 10330      4100 
 10331               	.LASF51:
 10332 03ae 4B45 595F 		.string	"KEY_B"
 10332      4200 
 10333               	.LASF19:
 10334 03b4 4B45 595F 		.string	"KEY_FN2_HANGLE"
 10334      464E 325F 
 10334      4841 4E47 
 10334      4C45 00
 10335               	.LASF53:
 10336 03c3 4B45 595F 		.string	"KEY_D"
 10336      4400 
 10337               	.LASF54:
 10338 03c9 4B45 595F 		.string	"KEY_E"
 10338      4500 
 10339               	.LASF25:
 10340 03cf 4B45 595F 		.string	"KEY_RALT_HANGLE"
 10340      5241 4C54 
 10340      5F48 414E 
 10340      474C 4500 
 10341               	.LASF56:
 10342 03df 4B45 595F 		.string	"KEY_G"
 10342      4700 
 10343               	.LASF57:
 10344 03e5 4B45 595F 		.string	"KEY_H"
 10344      4800 
 10345               	.LASF31:
 10346 03eb 4B45 595F 		.string	"KEY_LCTRL_HANGLE"
 10346      4C43 5452 
 10346      4C5F 4841 
 10346      4E47 4C45 
 10346      00
 10347               	.LASF59:
 10348 03fc 4B45 595F 		.string	"KEY_J"
 10348      4A00 
 10349               	.LASF60:
 10350 0402 4B45 595F 		.string	"KEY_K"
 10350      4B00 
 10351               	.LASF61:
 10352 0408 4B45 595F 		.string	"KEY_L"
 10352      4C00 
 10353               	.LASF62:
 10354 040e 4B45 595F 		.string	"KEY_M"
 10354      4D00 
 10355               	.LASF63:
 10356 0414 4B45 595F 		.string	"KEY_N"
 10356      4E00 
 10357               	.LASF64:
 10358 041a 4B45 595F 		.string	"KEY_O"
 10358      4F00 
 10359               	.LASF65:
 10360 0420 4B45 595F 		.string	"KEY_P"
 10360      5000 
 10361               	.LASF66:
GAS LISTING C:\Users\ADMINI~1\AppData\Local\Temp/ccnPzUe6.s 			page 194


 10362 0426 4B45 595F 		.string	"KEY_Q"
 10362      5100 
 10363               	.LASF67:
 10364 042c 4B45 595F 		.string	"KEY_R"
 10364      5200 
 10365               	.LASF68:
 10366 0432 4B45 595F 		.string	"KEY_S"
 10366      5300 
 10367               	.LASF69:
 10368 0438 4B45 595F 		.string	"KEY_T"
 10368      5400 
 10369               	.LASF6:
 10370 043e 6C6F 6E67 		.string	"long long unsigned int"
 10370      206C 6F6E 
 10370      6720 756E 
 10370      7369 676E 
 10370      6564 2069 
 10371               	.LASF71:
 10372 0455 4B45 595F 		.string	"KEY_V"
 10372      5600 
 10373               	.LASF72:
 10374 045b 4B45 595F 		.string	"KEY_W"
 10374      5700 
 10375               	.LASF73:
 10376 0461 4B45 595F 		.string	"KEY_X"
 10376      5800 
 10377               	.LASF74:
 10378 0467 4B45 595F 		.string	"KEY_Y"
 10378      5900 
 10379               	.LASF75:
 10380 046d 4B45 595F 		.string	"KEY_Z"
 10380      5A00 
 10381               	.LASF90:
 10382 0473 4B45 595F 		.string	"KEY_SPACE"
 10382      5350 4143 
 10382      4500 
 10383               	.LASF336:
 10384 047d 7374 725F 		.string	"str_save_end_mapping"
 10384      7361 7665 
 10384      5F65 6E64 
 10384      5F6D 6170 
 10384      7069 6E67 
 10385               	.LASF327:
 10386 0492 7374 725F 		.string	"str_mapper_1"
 10386      6D61 7070 
 10386      6572 5F31 
 10386      00
 10387               	.LASF292:
 10388 049f 6D79 7374 		.string	"mystdout"
 10388      646F 7574 
 10388      00
 10389               	.LASF330:
 10390 04a8 7374 725F 		.string	"str_mapper_4"
 10390      6D61 7070 
 10390      6572 5F34 
 10390      00
 10391               	.LASF148:
GAS LISTING C:\Users\ADMINI~1\AppData\Local\Temp/ccnPzUe6.s 			page 195


 10392 04b5 4B45 595F 		.string	"KEY_Modifiers"
 10392      4D6F 6469 
 10392      6669 6572 
 10392      7300 
 10393               	.LASF88:
 10394 04c3 4B45 595F 		.string	"KEY_BKSP"
 10394      424B 5350 
 10394      00
 10395               	.LASF127:
 10396 04cc 4B45 595F 		.string	"KEY_DOWN"
 10396      444F 574E 
 10396      00
 10397               	.LASF361:
 10398 04d5 443A 5C67 		.string	"D:\\git\\ps2avrU\\source"
 10398      6974 5C70 
 10398      7332 6176 
 10398      7255 5C73 
 10398      6F75 7263 
 10399               	.LASF331:
 10400 04eb 7374 725F 		.string	"str_mapper_9"
 10400      6D61 7070 
 10400      6572 5F39 
 10400      00
 10401               	.LASF244:
 10402 04f8 7374 6172 		.string	"startKeyMappingDeep"
 10402      744B 6579 
 10402      4D61 7070 
 10402      696E 6744 
 10402      6565 7000 
 10403               	.LASF43:
 10404 050c 4B45 595F 		.string	"KEY_MAC10"
 10404      4D41 4331 
 10404      3000 
 10405               	.LASF44:
 10406 0516 4B45 595F 		.string	"KEY_MAC11"
 10406      4D41 4331 
 10406      3100 
 10407               	.LASF45:
 10408 0520 4B45 595F 		.string	"KEY_MAC12"
 10408      4D41 4331 
 10408      3200 
 10409               	.LASF125:
 10410 052a 4B45 595F 		.string	"KEY_RIGHT"
 10410      5249 4748 
 10410      5400 
 10411               	.LASF27:
 10412 0534 4B45 595F 		.string	"KEY_LALT_HANGLE"
 10412      4C41 4C54 
 10412      5F48 414E 
 10412      474C 4500 
 10413               	.LASF188:
 10414 0544 4B45 595F 		.string	"KEY_HANGLE"
 10414      4841 4E47 
 10414      4C45 00
 10415               	.LASF270:
 10416 054f 6741 6464 		.string	"gAddress"
 10416      7265 7373 
GAS LISTING C:\Users\ADMINI~1\AppData\Local\Temp/ccnPzUe6.s 			page 196


 10416      00
 10417               	.LASF232:
 10418 0558 784C 6179 		.string	"xLayer"
 10418      6572 00
 10419               	.LASF228:
 10420 055f 5F5F 6D73 		.string	"__ms"
 10420      00
 10421               	.LASF32:
 10422 0564 4B45 595F 		.string	"KEY_LCTRL_HANJA"
 10422      4C43 5452 
 10422      4C5F 4841 
 10422      4E4A 4100 
 10423               	.LASF49:
 10424 0574 4B45 595F 		.string	"KEY_ErrorUndefined"
 10424      4572 726F 
 10424      7255 6E64 
 10424      6566 696E 
 10424      6564 00
 10425               	.LASF170:
 10426 0587 4B45 595F 		.string	"KEY_NEXT_TRK"
 10426      4E45 5854 
 10426      5F54 524B 
 10426      00
 10427               	.LASF24:
 10428 0594 4B45 595F 		.string	"KEY_LSHIFT_HANJA"
 10428      4C53 4849 
 10428      4654 5F48 
 10428      414E 4A41 
 10428      00
 10429               	.LASF252:
 10430 05a5 7853 7472 		.string	"xStr"
 10430      00
 10431               	.LASF353:
 10432 05aa 5F6D 6163 		.string	"_macroPressedBuffer"
 10432      726F 5072 
 10432      6573 7365 
 10432      6442 7566 
 10432      6665 7200 
 10433               	.LASF133:
 10434 05be 4B45 595F 		.string	"KEY_KP_PLUS"
 10434      4B50 5F50 
 10434      4C55 5300 
 10435               	.LASF276:
 10436 05ca 6C6F 6164 		.string	"loadCurrentLayer"
 10436      4375 7272 
 10436      656E 744C 
 10436      6179 6572 
 10436      00
 10437               	.LASF275:
 10438 05db 784D 6163 		.string	"xMacroIndex"
 10438      726F 496E 
 10438      6465 7800 
 10439               	.LASF278:
 10440 05e7 7849 7344 		.string	"xIsDown"
 10440      6F77 6E00 
 10441               	.LASF17:
 10442 05ef 4B45 595F 		.string	"KEY_FN_HANGLE"
GAS LISTING C:\Users\ADMINI~1\AppData\Local\Temp/ccnPzUe6.s 			page 197


 10442      464E 5F48 
 10442      414E 474C 
 10442      4500 
 10443               	.LASF235:
 10444 05fd 6765 7444 		.string	"getDefaultKeyCode"
 10444      6566 6175 
 10444      6C74 4B65 
 10444      7943 6F64 
 10444      6500 
 10445               	.LASF277:
 10446 060f 7075 744B 		.string	"putKeyCode"
 10446      6579 436F 
 10446      6465 00
 10447               	.LASF30:
 10448 061a 4B45 595F 		.string	"KEY_RCTRL_HANJA"
 10448      5243 5452 
 10448      4C5F 4841 
 10448      4E4A 4100 
 10449               	.LASF172:
 10450 062a 4B45 595F 		.string	"KEY_STOP"
 10450      5354 4F50 
 10450      00
 10451               	.LASF305:
 10452 0633 5F62 7566 		.string	"_bufferIndex"
 10452      6665 7249 
 10452      6E64 6578 
 10452      00
 10453               	.LASF301:
 10454 0640 5F77 6169 		.string	"_wait"
 10454      7400 
 10455               	.LASF288:
 10456 0646 7072 6570 		.string	"prepareKeyMapping"
 10456      6172 654B 
 10456      6579 4D61 
 10456      7070 696E 
 10456      6700 
 10457               	.LASF363:
 10458 0658 7072 696E 		.string	"printEnter"
 10458      7445 6E74 
 10458      6572 00
 10459               	.LASF358:
 10460 0663 5F6E 6577 		.string	"_newKeyMap"
 10460      4B65 794D 
 10460      6170 00
 10461               	.LASF16:
 10462 066e 4B45 595F 		.string	"KEY_dualAction"
 10462      6475 616C 
 10462      4163 7469 
 10462      6F6E 00
 10463               	.LASF178:
 10464 067d 4B45 595F 		.string	"KEY_CALC"
 10464      4341 4C43 
 10464      00
 10465               	.LASF9:
 10466 0686 6368 6172 		.string	"char"
 10466      00
 10467               	.LASF97:
GAS LISTING C:\Users\ADMINI~1\AppData\Local\Temp/ccnPzUe6.s 			page 198


 10468 068b 4B45 595F 		.string	"KEY_COLON"
 10468      434F 4C4F 
 10468      4E00 
 10469               	.LASF298:
 10470 0695 5F6D 6F64 		.string	"_mode"
 10470      6500 
 10471               	.LASF29:
 10472 069b 4B45 595F 		.string	"KEY_RCTRL_HANGLE"
 10472      5243 5452 
 10472      4C5F 4841 
 10472      4E47 4C45 
 10472      00
 10473               	.LASF150:
 10474 06ac 4B45 595F 		.string	"KEY_LSHIFT"
 10474      4C53 4849 
 10474      4654 00
 10475               	.LASF169:
 10476 06b7 4B45 595F 		.string	"KEY_WWW_FAVORITE"
 10476      5757 575F 
 10476      4641 564F 
 10476      5249 5445 
 10476      00
 10477               	.LASF348:
 10478 06c8 7374 725F 		.string	"str_input_macro"
 10478      696E 7075 
 10478      745F 6D61 
 10478      6372 6F00 
 10479               	.LASF314:
 10480 06d8 7374 725F 		.string	"str_select_mode"
 10480      7365 6C65 
 10480      6374 5F6D 
 10480      6F64 6500 
 10481               	.LASF164:
 10482 06e8 4B45 595F 		.string	"KEY_WWW_HOME"
 10482      5757 575F 
 10482      484F 4D45 
 10482      00
 10483               	.LASF255:
 10484 06f5 6743 6861 		.string	"gChar"
 10484      7200 
 10485               	.LASF214:
 10486 06fb 4B45 595F 		.string	"KEY_LANG3"
 10486      4C41 4E47 
 10486      3300 
 10487               	.LASF46:
 10488 0705 4B45 595F 		.string	"KEY_NONE"
 10488      4E4F 4E45 
 10488      00
 10489               	.LASF216:
 10490 070e 4B45 595F 		.string	"KEY_LANG5"
 10490      4C41 4E47 
 10490      3500 
 10491               	.LASF217:
 10492 0718 4B45 595F 		.string	"KEY_LANG6"
 10492      4C41 4E47 
 10492      3600 
 10493               	.LASF218:
GAS LISTING C:\Users\ADMINI~1\AppData\Local\Temp/ccnPzUe6.s 			page 199


 10494 0722 4B45 595F 		.string	"KEY_LANG7"
 10494      4C41 4E47 
 10494      3700 
 10495               	.LASF116:
 10496 072c 4B45 595F 		.string	"KEY_PRNSCR"
 10496      5052 4E53 
 10496      4352 00
 10497               	.LASF220:
 10498 0737 4B45 595F 		.string	"KEY_LANG9"
 10498      4C41 4E47 
 10498      3900 
 10499               	.LASF346:
 10500 0741 7374 725F 		.string	"str_select_number"
 10500      7365 6C65 
 10500      6374 5F6E 
 10500      756D 6265 
 10500      7200 
 10501               	.LASF339:
 10502 0753 7374 725F 		.string	"str_input_command"
 10502      696E 7075 
 10502      745F 636F 
 10502      6D6D 616E 
 10502      6400 
 10503               	.LASF123:
 10504 0765 4B45 595F 		.string	"KEY_END"
 10504      454E 4400 
 10505               	.LASF10:
 10506 076d 7569 6E74 		.string	"uint8_t"
 10506      385F 7400 
 10507               	.LASF176:
 10508 0775 4B45 595F 		.string	"KEY_VOL_DOWN"
 10508      564F 4C5F 
 10508      444F 574E 
 10508      00
 10509               	.LASF93:
 10510 0782 4B45 595F 		.string	"KEY_LBR"
 10510      4C42 5200 
 10511               	.LASF219:
 10512 078a 4B45 595F 		.string	"KEY_LANG8"
 10512      4C41 4E47 
 10512      3800 
 10513               	.LASF258:
 10514 0794 6170 706C 		.string	"applyKeyMapping"
 10514      794B 6579 
 10514      4D61 7070 
 10514      696E 6700 
 10515               	.LASF122:
 10516 07a4 4B45 595F 		.string	"KEY_DEL"
 10516      4445 4C00 
 10517               	.LASF325:
 10518 07ac 7374 725F 		.string	"str_back_6"
 10518      6261 636B 
 10518      5F36 00
 10519               	.LASF259:
 10520 07b7 7265 7365 		.string	"resetCurrentLayer"
 10520      7443 7572 
 10520      7265 6E74 
GAS LISTING C:\Users\ADMINI~1\AppData\Local\Temp/ccnPzUe6.s 			page 200


 10520      4C61 7965 
 10520      7200 
 10521               	.LASF147:
 10522 07c9 4B45 595F 		.string	"KEY_APPS"
 10522      4150 5053 
 10522      00
 10523               	.LASF229:
 10524 07d2 5F5F 7469 		.string	"__ticks"
 10524      636B 7300 
 10525               	.LASF266:
 10526 07da 7072 696E 		.string	"printPrompt"
 10526      7450 726F 
 10526      6D70 7400 
 10527               	.LASF137:
 10528 07e6 4B45 595F 		.string	"KEY_KP_3"
 10528      4B50 5F33 
 10528      00
 10529               	.LASF138:
 10530 07ef 4B45 595F 		.string	"KEY_KP_4"
 10530      4B50 5F34 
 10530      00
 10531               	.LASF321:
 10532 07f8 7374 725F 		.string	"str_macro_message"
 10532      6D61 6372 
 10532      6F5F 6D65 
 10532      7373 6167 
 10532      6500 
 10533               	.LASF7:
 10534 080a 6C6F 6E67 		.string	"long long int"
 10534      206C 6F6E 
 10534      6720 696E 
 10534      7400 
 10535               	.LASF140:
 10536 0818 4B45 595F 		.string	"KEY_KP_6"
 10536      4B50 5F36 
 10536      00
 10537               	.LASF141:
 10538 0821 4B45 595F 		.string	"KEY_KP_7"
 10538      4B50 5F37 
 10538      00
 10539               	.LASF142:
 10540 082a 4B45 595F 		.string	"KEY_KP_8"
 10540      4B50 5F38 
 10540      00
 10541               	.LASF143:
 10542 0833 4B45 595F 		.string	"KEY_KP_9"
 10542      4B50 5F39 
 10542      00
 10543               	.LASF98:
 10544 083c 4B45 595F 		.string	"KEY_QUOTE"
 10544      5155 4F54 
 10544      4500 
 10545               	.LASF238:
 10546 0846 6749 6478 		.string	"gIdx"
 10546      00
 10547               	.LASF285:
 10548 084b 6170 706C 		.string	"applyMacro"
GAS LISTING C:\Users\ADMINI~1\AppData\Local\Temp/ccnPzUe6.s 			page 201


 10548      794D 6163 
 10548      726F 00
 10549               	.LASF22:
 10550 0856 4B45 595F 		.string	"KEY_RSHIFT_HANJA"
 10550      5253 4849 
 10550      4654 5F48 
 10550      414E 4A41 
 10550      00
 10551               	.LASF92:
 10552 0867 4B45 595F 		.string	"KEY_EQUAL"
 10552      4551 5541 
 10552      4C00 
 10553               	.LASF296:
 10554 0871 6B65 794D 		.string	"keyMappingCountMax"
 10554      6170 7069 
 10554      6E67 436F 
 10554      756E 744D 
 10554      6178 00
 10555               	.LASF205:
 10556 0884 4B45 595F 		.string	"KEY_INT1"
 10556      494E 5431 
 10556      00
 10557               	.LASF206:
 10558 088d 4B45 595F 		.string	"KEY_INT2"
 10558      494E 5432 
 10558      00
 10559               	.LASF207:
 10560 0896 4B45 595F 		.string	"KEY_INT3"
 10560      494E 5433 
 10560      00
 10561               	.LASF208:
 10562 089f 4B45 595F 		.string	"KEY_INT4"
 10562      494E 5434 
 10562      00
 10563               	.LASF209:
 10564 08a8 4B45 595F 		.string	"KEY_INT5"
 10564      494E 5435 
 10564      00
 10565               	.LASF210:
 10566 08b1 4B45 595F 		.string	"KEY_INT6"
 10566      494E 5436 
 10566      00
 10567               	.LASF211:
 10568 08ba 4B45 595F 		.string	"KEY_INT7"
 10568      494E 5437 
 10568      00
 10569               	.LASF212:
 10570 08c3 4B45 595F 		.string	"KEY_INT8"
 10570      494E 5438 
 10570      00
 10571               	.LASF213:
 10572 08cc 4B45 595F 		.string	"KEY_INT9"
 10572      494E 5439 
 10572      00
 10573               	.LASF89:
 10574 08d5 4B45 595F 		.string	"KEY_TAB"
 10574      5441 4200 
GAS LISTING C:\Users\ADMINI~1\AppData\Local\Temp/ccnPzUe6.s 			page 202


 10575               	.LASF350:
 10576 08dd 7374 725F 		.string	"str_clear_all_macro"
 10576      636C 6561 
 10576      725F 616C 
 10576      6C5F 6D61 
 10576      6372 6F00 
 10577               	.LASF362:
 10578 08f1 5F5F 6669 		.string	"__file"
 10578      6C65 00
 10579               	.LASF14:
 10580 08f8 7369 7A65 		.string	"size"
 10580      00
 10581               	.LASF189:
 10582 08fd 4B45 595F 		.string	"KEY_KBD_POWER"
 10582      4B42 445F 
 10582      504F 5745 
 10582      5200 
 10583               	.LASF34:
 10584 090b 4B45 595F 		.string	"KEY_MAC1"
 10584      4D41 4331 
 10584      00
 10585               	.LASF35:
 10586 0914 4B45 595F 		.string	"KEY_MAC2"
 10586      4D41 4332 
 10586      00
 10587               	.LASF36:
 10588 091d 4B45 595F 		.string	"KEY_MAC3"
 10588      4D41 4333 
 10588      00
 10589               	.LASF37:
 10590 0926 4B45 595F 		.string	"KEY_MAC4"
 10590      4D41 4334 
 10590      00
 10591               	.LASF38:
 10592 092f 4B45 595F 		.string	"KEY_MAC5"
 10592      4D41 4335 
 10592      00
 10593               	.LASF39:
 10594 0938 4B45 595F 		.string	"KEY_MAC6"
 10594      4D41 4336 
 10594      00
 10595               	.LASF40:
 10596 0941 4B45 595F 		.string	"KEY_MAC7"
 10596      4D41 4337 
 10596      00
 10597               	.LASF41:
 10598 094a 4B45 595F 		.string	"KEY_MAC8"
 10598      4D41 4338 
 10598      00
 10599               	.LASF42:
 10600 0953 4B45 595F 		.string	"KEY_MAC9"
 10600      4D41 4339 
 10600      00
 10601               	.LASF130:
 10602 095c 4B45 595F 		.string	"KEY_KP_SLASH"
 10602      4B50 5F53 
 10602      4C41 5348 
GAS LISTING C:\Users\ADMINI~1\AppData\Local\Temp/ccnPzUe6.s 			page 203


 10602      00
 10603               	.LASF104:
 10604 0969 4B45 595F 		.string	"KEY_F1"
 10604      4631 00
 10605               	.LASF105:
 10606 0970 4B45 595F 		.string	"KEY_F2"
 10606      4632 00
 10607               	.LASF106:
 10608 0977 4B45 595F 		.string	"KEY_F3"
 10608      4633 00
 10609               	.LASF107:
 10610 097e 4B45 595F 		.string	"KEY_F4"
 10610      4634 00
 10611               	.LASF108:
 10612 0985 4B45 595F 		.string	"KEY_F5"
 10612      4635 00
 10613               	.LASF109:
 10614 098c 4B45 595F 		.string	"KEY_F6"
 10614      4636 00
 10615               	.LASF110:
 10616 0993 4B45 595F 		.string	"KEY_F7"
 10616      4637 00
 10617               	.LASF111:
 10618 099a 4B45 595F 		.string	"KEY_F8"
 10618      4638 00
 10619               	.LASF112:
 10620 09a1 4B45 595F 		.string	"KEY_F9"
 10620      4639 00
 10621               	.LASF159:
 10622 09a8 4B45 595F 		.string	"KEY_POWER"
 10622      504F 5745 
 10622      5200 
 10623               	.LASF227:
 10624 09b2 5F64 656C 		.string	"_delay_ms"
 10624      6179 5F6D 
 10624      7300 
 10625               	.LASF221:
 10626 09bc 4B45 595F 		.string	"KEY_extend_end"
 10626      6578 7465 
 10626      6E64 5F65 
 10626      6E64 00
 10627               	.LASF128:
 10628 09cb 4B45 595F 		.string	"KEY_UP"
 10628      5550 00
 10629               	.LASF354:
 10630 09d2 5F6D 6163 		.string	"_macroInputBuffer"
 10630      726F 496E 
 10630      7075 7442 
 10630      7566 6665 
 10630      7200 
 10631               	.LASF251:
 10632 09e4 784D 6F64 		.string	"xModi"
 10632      6900 
 10633               	.LASF253:
 10634 09ea 7075 7368 		.string	"pushCharacter"
 10634      4368 6172 
 10634      6163 7465 
GAS LISTING C:\Users\ADMINI~1\AppData\Local\Temp/ccnPzUe6.s 			page 204


 10634      7200 
 10635               	.LASF280:
 10636 09f8 6753 7472 		.string	"gStr"
 10636      00
 10637               	.LASF317:
 10638 09fd 7374 725F 		.string	"str_select_mode3"
 10638      7365 6C65 
 10638      6374 5F6D 
 10638      6F64 6533 
 10638      00
 10639               	.LASF318:
 10640 0a0e 7374 725F 		.string	"str_select_mode4"
 10640      7365 6C65 
 10640      6374 5F6D 
 10640      6F64 6534 
 10640      00
 10641               	.LASF233:
 10642 0a1f 7852 6F77 		.string	"xRow"
 10642      00
 10643               	.LASF286:
 10644 0a24 674D 6163 		.string	"gMacroIndex"
 10644      726F 496E 
 10644      6465 7800 
 10645               	.LASF151:
 10646 0a30 4B45 595F 		.string	"KEY_LALT"
 10646      4C41 4C54 
 10646      00
 10647               	.LASF359:
 10648 0a39 474E 5520 		.string	"GNU C 4.3.3"
 10648      4320 342E 
 10648      332E 3300 
 10649               	.LASF18:
 10650 0a45 4B45 595F 		.string	"KEY_FN_HANJA"
 10650      464E 5F48 
 10650      414E 4A41 
 10650      00
 10651               	.LASF118:
 10652 0a52 4B45 595F 		.string	"KEY_PAUSE"
 10652      5041 5553 
 10652      4500 
 10653               	.LASF11:
 10654 0a5c 7569 6E74 		.string	"uint16_t"
 10654      3136 5F74 
 10654      00
 10655               	.LASF291:
 10656 0a65 7374 6172 		.string	"startKeyMappingOnBoot"
 10656      744B 6579 
 10656      4D61 7070 
 10656      696E 674F 
 10656      6E42 6F6F 
 10657               	.LASF185:
 10658 0a7b 4B45 595F 		.string	"KEY_Multimedia_end"
 10658      4D75 6C74 
 10658      696D 6564 
 10658      6961 5F65 
 10658      6E64 00
 10659               	.LASF263:
GAS LISTING C:\Users\ADMINI~1\AppData\Local\Temp/ccnPzUe6.s 			page 205


 10660 0a8e 7072 696E 		.string	"printMacroMessage"
 10660      744D 6163 
 10660      726F 4D65 
 10660      7373 6167 
 10660      6500 
 10661               	.LASF294:
 10662 0aa0 656E 6162 		.string	"enabledKeyMappingCount"
 10662      6C65 644B 
 10662      6579 4D61 
 10662      7070 696E 
 10662      6743 6F75 
 10663               	.LASF174:
 10664 0ab7 4B45 595F 		.string	"KEY_MUTE"
 10664      4D55 5445 
 10664      00
 10665               	.LASF268:
 10666 0ac0 7072 696E 		.string	"printSelectMode"
 10666      7453 656C 
 10666      6563 744D 
 10666      6F64 6500 
 10667               	.LASF132:
 10668 0ad0 4B45 595F 		.string	"KEY_KP_MINUS"
 10668      4B50 5F4D 
 10668      494E 5553 
 10668      00
 10669               	.LASF257:
 10670 0add 5F5F 7265 		.string	"__result"
 10670      7375 6C74 
 10670      00
 10671               	.LASF262:
 10672 0ae6 7072 696E 		.string	"printPrepareString"
 10672      7450 7265 
 10672      7061 7265 
 10672      5374 7269 
 10672      6E67 00
 10673               	.LASF234:
 10674 0af9 7843 6F6C 		.string	"xCol"
 10674      00
 10675               	.LASF91:
 10676 0afe 4B45 595F 		.string	"KEY_MINUS"
 10676      4D49 4E55 
 10676      5300 
 10677               	.LASF226:
 10678 0b08 5F64 656C 		.string	"_delay_loop_2"
 10678      6179 5F6C 
 10678      6F6F 705F 
 10678      3200 
 10679               	.LASF86:
 10680 0b16 4B45 595F 		.string	"KEY_ENTER"
 10680      454E 5445 
 10680      5200 
 10681               	.LASF340:
 10682 0b20 7374 725F 		.string	"str_nothing"
 10682      6E6F 7468 
 10682      696E 6700 
 10683               	.LASF100:
 10684 0b2c 4B45 595F 		.string	"KEY_COMMA"
GAS LISTING C:\Users\ADMINI~1\AppData\Local\Temp/ccnPzUe6.s 			page 206


 10684      434F 4D4D 
 10684      4100 
 10685               	.LASF297:
 10686 0b36 5F6B 6579 		.string	"_keyMappingOnBoot"
 10686      4D61 7070 
 10686      696E 674F 
 10686      6E42 6F6F 
 10686      7400 
 10687               	.LASF3:
 10688 0b48 7368 6F72 		.string	"short int"
 10688      7420 696E 
 10688      7400 
 10689               	.LASF272:
 10690 0b52 674B 6579 		.string	"gKeyCode"
 10690      436F 6465 
 10690      00
 10691               	.LASF312:
 10692 0b5b 5F5F 696F 		.string	"__iob"
 10692      6200 
 10693               	.LASF5:
 10694 0b61 6C6F 6E67 		.string	"long int"
 10694      2069 6E74 
 10694      00
 10695               	.LASF103:
 10696 0b6a 4B45 595F 		.string	"KEY_CAPS"
 10696      4341 5053 
 10696      00
 10697               	.LASF306:
 10698 0b73 5F65 6469 		.string	"_editCount"
 10698      7443 6F75 
 10698      6E74 00
 10699               	.LASF319:
 10700 0b7e 7374 725F 		.string	"str_exit"
 10700      6578 6974 
 10700      00
 10701               	.LASF264:
 10702 0b87 7072 696E 		.string	"printString"
 10702      7453 7472 
 10702      696E 6700 
 10703               	.LASF356:
 10704 0b93 5F69 7350 		.string	"_isPressedEscapeKey"
 10704      7265 7373 
 10704      6564 4573 
 10704      6361 7065 
 10704      4B65 7900 
 10705               	.LASF134:
 10706 0ba7 4B45 595F 		.string	"KEY_KP_ENTER"
 10706      4B50 5F45 
 10706      4E54 4552 
 10706      00
 10707               	.LASF347:
 10708 0bb4 7374 725F 		.string	"str_exit_macro"
 10708      6578 6974 
 10708      5F6D 6163 
 10708      726F 00
 10709               	.LASF145:
 10710 0bc3 4B45 595F 		.string	"KEY_KP_DOT"
GAS LISTING C:\Users\ADMINI~1\AppData\Local\Temp/ccnPzUe6.s 			page 207


 10710      4B50 5F44 
 10710      4F54 00
 10711               	.LASF249:
 10712 0bce 7265 6164 		.string	"readyKeyMappingOnBoot"
 10712      794B 6579 
 10712      4D61 7070 
 10712      696E 674F 
 10712      6E42 6F6F 
 10713               	.LASF149:
 10714 0be4 4B45 595F 		.string	"KEY_LCTRL"
 10714      4C43 5452 
 10714      4C00 
 10715               	.LASF322:
 10716 0bee 7374 725F 		.string	"str_macro_1"
 10716      6D61 6372 
 10716      6F5F 3100 
 10717               	.LASF323:
 10718 0bfa 7374 725F 		.string	"str_macro_2"
 10718      6D61 6372 
 10718      6F5F 3200 
 10719               	.LASF250:
 10720 0c06 7265 7365 		.string	"resetMacroInput"
 10720      744D 6163 
 10720      726F 496E 
 10720      7075 7400 
 10721               	.LASF225:
 10722 0c16 784B 6579 		.string	"xKeyidx"
 10722      6964 7800 
 10723               	.LASF152:
 10724 0c1e 4B45 595F 		.string	"KEY_LGUI"
 10724      4C47 5549 
 10724      00
 10725               	.LASF324:
 10726 0c27 7374 725F 		.string	"str_macro_9"
 10726      6D61 6372 
 10726      6F5F 3900 
 10727               	.LASF287:
 10728 0c33 7374 6172 		.string	"startKeyMapping"
 10728      744B 6579 
 10728      4D61 7070 
 10728      696E 6700 
 10729               	.LASF47:
 10730 0c43 4B45 595F 		.string	"KEY_ErrorRollOver"
 10730      4572 726F 
 10730      7252 6F6C 
 10730      6C4F 7665 
 10730      7200 
 10731               	.LASF203:
 10732 0c55 4B45 595F 		.string	"KEY_KP_COMMA"
 10732      4B50 5F43 
 10732      4F4D 4D41 
 10732      00
 10733               	.LASF95:
 10734 0c62 4B45 595F 		.string	"KEY_BKSLASH"
 10734      424B 534C 
 10734      4153 4800 
 10735               	.LASF99:
GAS LISTING C:\Users\ADMINI~1\AppData\Local\Temp/ccnPzUe6.s 			page 208


 10736 0c6e 4B45 595F 		.string	"KEY_HASH"
 10736      4841 5348 
 10736      00
 10737               	.LASF186:
 10738 0c77 4B45 595F 		.string	"KEY_extend"
 10738      6578 7465 
 10738      6E64 00
 10739               	.LASF284:
 10740 0c82 6765 7443 		.string	"getCurrentKeycode"
 10740      7572 7265 
 10740      6E74 4B65 
 10740      7963 6F64 
 10740      6500 
 10741               	.LASF124:
 10742 0c94 4B45 595F 		.string	"KEY_PGDN"
 10742      5047 444E 
 10742      00
 10743               	.LASF87:
 10744 0c9d 4B45 595F 		.string	"KEY_ESC"
 10744      4553 4300 
 10745               	.LASF177:
 10746 0ca5 4B45 595F 		.string	"KEY_MEDIA"
 10746      4D45 4449 
 10746      4100 
 10747               	.LASF4:
 10748 0caf 6C6F 6E67 		.string	"long unsigned int"
 10748      2075 6E73 
 10748      6967 6E65 
 10748      6420 696E 
 10748      7400 
 10749               	.LASF162:
 10750 0cc1 4B45 595F 		.string	"KEY_EMAIL"
 10750      454D 4149 
 10750      4C00 
 10751               	.LASF126:
 10752 0ccb 4B45 595F 		.string	"KEY_LEFT"
 10752      4C45 4654 
 10752      00
 10753               	.LASF309:
 10754 0cd4 5F63 7572 		.string	"_currentLayerAfter"
 10754      7265 6E74 
 10754      4C61 7965 
 10754      7241 6674 
 10754      6572 00
 10755               	.LASF344:
 10756 0ce7 7374 725F 		.string	"str_col_row"
 10756      636F 6C5F 
 10756      726F 7700 
 10757               	.LASF335:
 10758 0cf3 7374 725F 		.string	"str_input_keycode"
 10758      696E 7075 
 10758      745F 6B65 
 10758      7963 6F64 
 10758      6500 
 10759               	.LASF352:
 10760 0d05 5F6D 6163 		.string	"_macroBufferIndex"
 10760      726F 4275 
GAS LISTING C:\Users\ADMINI~1\AppData\Local\Temp/ccnPzUe6.s 			page 209


 10760      6666 6572 
 10760      496E 6465 
 10760      7800 
 10761               	.LASF163:
 10762 0d17 4B45 595F 		.string	"KEY_WWW_SEARCH"
 10762      5757 575F 
 10762      5345 4152 
 10762      4348 00
 10763               	.LASF282:
 10764 0d26 7361 7665 		.string	"saveCurrentLayerAfter"
 10764      4375 7272 
 10764      656E 744C 
 10764      6179 6572 
 10764      4166 7465 
 10765               	.LASF0:
 10766 0d3c 756E 7369 		.string	"unsigned char"
 10766      676E 6564 
 10766      2063 6861 
 10766      7200 
 10767               	.LASF243:
 10768 0d4a 7072 696E 		.string	"printMapperMessage"
 10768      744D 6170 
 10768      7065 724D 
 10768      6573 7361 
 10768      6765 00
 10769               	.LASF94:
 10770 0d5d 4B45 595F 		.string	"KEY_RBR"
 10770      5242 5200 
 10771               	.LASF242:
 10772 0d65 6973 4465 		.string	"isDeepKeyMapping"
 10772      6570 4B65 
 10772      794D 6170 
 10772      7069 6E67 
 10772      00
 10773               	.LASF311:
 10774 0d76 5F6D 6163 		.string	"_macroDownCount"
 10774      726F 446F 
 10774      776E 436F 
 10774      756E 7400 
 10775               	.LASF237:
 10776 0d86 674B 6579 		.string	"gKeyIndex"
 10776      496E 6465 
 10776      7800 
 10777               	.LASF28:
 10778 0d90 4B45 595F 		.string	"KEY_LALT_HANJA"
 10778      4C41 4C54 
 10778      5F48 414E 
 10778      4A41 00
 10779               	.LASF160:
 10780 0d9f 4B45 595F 		.string	"KEY_SLEEP"
 10780      534C 4545 
 10780      5000 
 10781               	.LASF295:
 10782 0da9 6B65 794D 		.string	"keyMappingCount"
 10782      6170 7069 
 10782      6E67 436F 
 10782      756E 7400 
GAS LISTING C:\Users\ADMINI~1\AppData\Local\Temp/ccnPzUe6.s 			page 210


 10783               	.LASF247:
 10784 0db9 6973 5265 		.string	"isReadyKeyMappingOnBoot"
 10784      6164 794B 
 10784      6579 4D61 
 10784      7070 696E 
 10784      674F 6E42 
 10785               	.LASF33:
 10786 0dd1 4B45 595F 		.string	"KEY_dualAction_end"
 10786      6475 616C 
 10786      4163 7469 
 10786      6F6E 5F65 
 10786      6E64 00
 10787               	.LASF281:
 10788 0de4 674C 656E 		.string	"gLen"
 10788      00
 10789               	.LASF184:
 10790 0de9 4B45 595F 		.string	"KEY_EJECT"
 10790      454A 4543 
 10790      5400 
 10791               	.LASF131:
 10792 0df3 4B45 595F 		.string	"KEY_KP_AST"
 10792      4B50 5F41 
 10792      5354 00
 10793               	.LASF161:
 10794 0dfe 4B45 595F 		.string	"KEY_WAKE"
 10794      5741 4B45 
 10794      00
 10795               	.LASF332:
 10796 0e07 7374 725F 		.string	"str_prepare_message"
 10796      7072 6570 
 10796      6172 655F 
 10796      6D65 7373 
 10796      6167 6500 
 10797               	.LASF273:
 10798 0e1b 6275 6666 		.string	"buffers"
 10798      6572 7300 
 10799               	.LASF121:
 10800 0e23 4B45 595F 		.string	"KEY_PGUP"
 10800      5047 5550 
 10800      00
 10801               	.LASF246:
 10802 0e2c 7365 7457 		.string	"setWillStartKeyMapping"
 10802      696C 6C53 
 10802      7461 7274 
 10802      4B65 794D 
 10802      6170 7069 
 10803               	.LASF265:
 10804 0e43 7853 7472 		.string	"xString"
 10804      696E 6700 
 10805               	.LASF168:
 10806 0e4b 4B45 595F 		.string	"KEY_WWW_REFRESH"
 10806      5757 575F 
 10806      5245 4652 
 10806      4553 4800 
 10807               	.LASF175:
 10808 0e5b 4B45 595F 		.string	"KEY_VOL_UP"
 10808      564F 4C5F 
GAS LISTING C:\Users\ADMINI~1\AppData\Local\Temp/ccnPzUe6.s 			page 211


 10808      5550 00
 10809               	.LASF343:
 10810 0e66 7374 725F 		.string	"str_saving"
 10810      7361 7669 
 10810      6E67 00
 10811               	.LASF119:
 10812 0e71 4B45 595F 		.string	"KEY_INSERT"
 10812      494E 5345 
 10812      5254 00
 10813               	.LASF48:
 10814 0e7c 4B45 595F 		.string	"KEY_POSTFail"
 10814      504F 5354 
 10814      4661 696C 
 10814      00
 10815               	.LASF1:
 10816 0e89 7369 676E 		.string	"signed char"
 10816      6564 2063 
 10816      6861 7200 
 10817               	.LASF120:
 10818 0e95 4B45 595F 		.string	"KEY_HOME"
 10818      484F 4D45 
 10818      00
 10819               	.LASF2:
 10820 0e9e 7368 6F72 		.string	"short unsigned int"
 10820      7420 756E 
 10820      7369 676E 
 10820      6564 2069 
 10820      6E74 00
 10821               	.LASF240:
 10822 0eb1 6573 6361 		.string	"escapeMacroKeycode"
 10822      7065 4D61 
 10822      6372 6F4B 
 10822      6579 636F 
 10822      6465 00
 10823               	.LASF165:
 10824 0ec4 4B45 595F 		.string	"KEY_WWW_BACK"
 10824      5757 575F 
 10824      4241 434B 
 10824      00
 10825               	.LASF328:
 10826 0ed1 7374 725F 		.string	"str_mapper_2"
 10826      6D61 7070 
 10826      6572 5F32 
 10826      00
 10827               	.LASF329:
 10828 0ede 7374 725F 		.string	"str_mapper_3"
 10828      6D61 7070 
 10828      6572 5F33 
 10828      00
 10829               	.LASF230:
 10830 0eeb 5F5F 746D 		.string	"__tmp"
 10830      7000 
 10831               	.LASF113:
 10832 0ef1 4B45 595F 		.string	"KEY_F10"
 10832      4631 3000 
 10833               	.LASF114:
 10834 0ef9 4B45 595F 		.string	"KEY_F11"
GAS LISTING C:\Users\ADMINI~1\AppData\Local\Temp/ccnPzUe6.s 			page 212


 10834      4631 3100 
 10835               	.LASF115:
 10836 0f01 4B45 595F 		.string	"KEY_F12"
 10836      4631 3200 
 10837               	.LASF191:
 10838 0f09 4B45 595F 		.string	"KEY_F13"
 10838      4631 3300 
 10839               	.LASF192:
 10840 0f11 4B45 595F 		.string	"KEY_F14"
 10840      4631 3400 
 10841               	.LASF193:
 10842 0f19 4B45 595F 		.string	"KEY_F15"
 10842      4631 3500 
 10843               	.LASF194:
 10844 0f21 4B45 595F 		.string	"KEY_F16"
 10844      4631 3600 
 10845               	.LASF195:
 10846 0f29 4B45 595F 		.string	"KEY_F17"
 10846      4631 3700 
 10847               	.LASF20:
 10848 0f31 4B45 595F 		.string	"KEY_FN2_HANJA"
 10848      464E 325F 
 10848      4841 4E4A 
 10848      4100 
 10849               	.LASF197:
 10850 0f3f 4B45 595F 		.string	"KEY_F19"
 10850      4631 3900 
 10851               	.LASF299:
 10852 0f47 5F73 7465 		.string	"_step"
 10852      7000 
 10853               	.LASF15:
 10854 0f4d 7564 6174 		.string	"udata"
 10854      6100 
 10855               	.LASF231:
 10856 0f53 646F 7562 		.string	"double"
 10856      6C65 00
 10857               	.LASF166:
 10858 0f5a 4B45 595F 		.string	"KEY_WWW_FORWARD"
 10858      5757 575F 
 10858      464F 5257 
 10858      4152 4400 
 10859               	.LASF215:
 10860 0f6a 4B45 595F 		.string	"KEY_LANG4"
 10860      4C41 4E47 
 10860      3400 
 10861               	.LASF345:
 10862 0f74 7374 725F 		.string	"str_invalid_keycode"
 10862      696E 7661 
 10862      6C69 645F 
 10862      6B65 7963 
 10862      6F64 6500 
 10863               	.LASF196:
 10864 0f88 4B45 595F 		.string	"KEY_F18"
 10864      4631 3800 
 10865               	.LASF313:
 10866 0f90 494E 5445 		.string	"INTERFACE"
 10866      5246 4143 
GAS LISTING C:\Users\ADMINI~1\AppData\Local\Temp/ccnPzUe6.s 			page 213


 10866      4500 
 10867               	.LASF146:
 10868 0f9a 4B45 595F 		.string	"KEY_Europe2"
 10868      4575 726F 
 10868      7065 3200 
 10869               	.LASF153:
 10870 0fa6 4B45 595F 		.string	"KEY_RCTRL"
 10870      5243 5452 
 10870      4C00 
 10871               	.LASF223:
 10872 0fb0 6B65 7963 		.string	"keycode"
 10872      6F64 6500 
 10873               	.LASF357:
 10874 0fb8 5F69 7354 		.string	"_isTiredEscapeKey"
 10874      6972 6564 
 10874      4573 6361 
 10874      7065 4B65 
 10874      7900 
 10875               	.LASF349:
 10876 0fca 7374 725F 		.string	"str_invalid_macro_number"
 10876      696E 7661 
 10876      6C69 645F 
 10876      6D61 6372 
 10876      6F5F 6E75 
 10877               	.LASF300:
 10878 0fe3 5F73 7465 		.string	"_stepAfterLayerSave"
 10878      7041 6674 
 10878      6572 4C61 
 10878      7965 7253 
 10878      6176 6500 
 10879               	.LASF303:
 10880 0ff7 5F72 6F77 		.string	"_row"
 10880      00
 10881               	.LASF96:
 10882 0ffc 4B45 595F 		.string	"KEY_Europe1"
 10882      4575 726F 
 10882      7065 3100 
 10883               	.LASF241:
 10884 1008 6973 4B65 		.string	"isKeyMapping"
 10884      794D 6170 
 10884      7069 6E67 
 10884      00
 10885               	.LASF360:
 10886 1015 6B65 796D 		.string	"keymapper.c"
 10886      6170 7065 
 10886      722E 6300 
 10887               	.LASF239:
 10888 1021 6973 4D61 		.string	"isMacroKey"
 10888      6372 6F4B 
 10888      6579 00
 10889               	.LASF198:
 10890 102c 4B45 595F 		.string	"KEY_F20"
 10890      4632 3000 
 10891               	.LASF199:
 10892 1034 4B45 595F 		.string	"KEY_F21"
 10892      4632 3100 
 10893               	.LASF200:
GAS LISTING C:\Users\ADMINI~1\AppData\Local\Temp/ccnPzUe6.s 			page 214


 10894 103c 4B45 595F 		.string	"KEY_F22"
 10894      4632 3200 
 10895               	.LASF201:
 10896 1044 4B45 595F 		.string	"KEY_F23"
 10896      4632 3300 
 10897               	.LASF202:
 10898 104c 4B45 595F 		.string	"KEY_F24"
 10898      4632 3400 
 10899               	.LASF102:
 10900 1054 4B45 595F 		.string	"KEY_SLASH"
 10900      534C 4153 
 10900      4800 
 10901               	.global __do_copy_data
 10902               	.global __do_clear_bss
GAS LISTING C:\Users\ADMINI~1\AppData\Local\Temp/ccnPzUe6.s 			page 215


DEFINED SYMBOLS
                            *ABS*:00000000 keymapper.c
C:\Users\ADMINI~1\AppData\Local\Temp/ccnPzUe6.s:2      *ABS*:0000003f __SREG__
C:\Users\ADMINI~1\AppData\Local\Temp/ccnPzUe6.s:3      *ABS*:0000003e __SP_H__
C:\Users\ADMINI~1\AppData\Local\Temp/ccnPzUe6.s:4      *ABS*:0000003d __SP_L__
C:\Users\ADMINI~1\AppData\Local\Temp/ccnPzUe6.s:5      *ABS*:00000034 __CCP__
C:\Users\ADMINI~1\AppData\Local\Temp/ccnPzUe6.s:6      *ABS*:00000000 __tmp_reg__
C:\Users\ADMINI~1\AppData\Local\Temp/ccnPzUe6.s:7      *ABS*:00000001 __zero_reg__
C:\Users\ADMINI~1\AppData\Local\Temp/ccnPzUe6.s:18     .text:00000000 setWillStartKeyMapping
C:\Users\ADMINI~1\AppData\Local\Temp/ccnPzUe6.s:2931   .bss:00000006 _isKeyMapping
C:\Users\ADMINI~1\AppData\Local\Temp/ccnPzUe6.s:34     .text:0000000c isKeyMapping
C:\Users\ADMINI~1\AppData\Local\Temp/ccnPzUe6.s:49     .text:00000014 isDeepKeyMapping
C:\Users\ADMINI~1\AppData\Local\Temp/ccnPzUe6.s:64     .text:0000001c isReadyKeyMappingOnBoot
C:\Users\ADMINI~1\AppData\Local\Temp/ccnPzUe6.s:2934   .bss:0000000a _keyMappingOnBoot
C:\Users\ADMINI~1\AppData\Local\Temp/ccnPzUe6.s:77     .text:00000022 readyKeyMappingOnBoot
C:\Users\ADMINI~1\AppData\Local\Temp/ccnPzUe6.s:92     .text:0000002a stopKeyMapping
C:\Users\ADMINI~1\AppData\Local\Temp/ccnPzUe6.s:2942   .bss:0000000e _wait
C:\Users\ADMINI~1\AppData\Local\Temp/ccnPzUe6.s:108    .text:00000034 isMacroKey
C:\Users\ADMINI~1\AppData\Local\Temp/ccnPzUe6.s:130    .text:00000042 escapeMacroKeycode
C:\Users\ADMINI~1\AppData\Local\Temp/ccnPzUe6.s:156    .text:00000050 isMacroInput
C:\Users\ADMINI~1\AppData\Local\Temp/ccnPzUe6.s:2940   .bss:0000000c _step
C:\Users\ADMINI~1\AppData\Local\Temp/ccnPzUe6.s:175    .text:00000060 printEnter
C:\Users\ADMINI~1\AppData\Local\Temp/ccnPzUe6.s:197    .text:0000006e applyKeyMapping
C:\Users\ADMINI~1\AppData\Local\Temp/ccnPzUe6.s:2933   .bss:00000008 keyMappingCount
C:\Users\ADMINI~1\AppData\Local\Temp/ccnPzUe6.s:2932   .bss:00000007 enabledKeyMappingCount
C:\Users\ADMINI~1\AppData\Local\Temp/ccnPzUe6.s:2937   .data:0000011a keyMappingCountMax
C:\Users\ADMINI~1\AppData\Local\Temp/ccnPzUe6.s:277    .text:000000ea resetMacroInput
                            *COM*:00000030 _macroInputBuffer
                            *COM*:00000001 _macroBufferIndex
                            *COM*:00000018 _macroPressedBuffer
C:\Users\ADMINI~1\AppData\Local\Temp/ccnPzUe6.s:2915   .bss:00000005 _macroDownCount
C:\Users\ADMINI~1\AppData\Local\Temp/ccnPzUe6.s:308    .text:00000110 pushCharacter
C:\Users\ADMINI~1\AppData\Local\Temp/ccnPzUe6.s:361    .text:00000144 printStringFromFlash
C:\Users\ADMINI~1\AppData\Local\Temp/ccnPzUe6.s:470    .text:000001d4 resetCurrentLayer
C:\Users\ADMINI~1\AppData\Local\Temp/ccnPzUe6.s:2834   .progmem.data:000001c0 str_reset_mapping
                            *COM*:00000088 _newKeyMap
C:\Users\ADMINI~1\AppData\Local\Temp/ccnPzUe6.s:2947   .bss:00000015 _editCount
C:\Users\ADMINI~1\AppData\Local\Temp/ccnPzUe6.s:524    .text:00000220 clearMacro
C:\Users\ADMINI~1\AppData\Local\Temp/ccnPzUe6.s:2894   .progmem.data:000002f3 str_clear_all_macro
                             .bss:00000004 _isWorkingForEmpty
C:\Users\ADMINI~1\AppData\Local\Temp/ccnPzUe6.s:550    .text:0000023e saveCurrentLayer
C:\Users\ADMINI~1\AppData\Local\Temp/ccnPzUe6.s:2859   .progmem.data:00000224 str_saving
C:\Users\ADMINI~1\AppData\Local\Temp/ccnPzUe6.s:2941   .bss:0000000d _stepAfterLayerSave
C:\Users\ADMINI~1\AppData\Local\Temp/ccnPzUe6.s:592    .text:0000027a printPrepareString
C:\Users\ADMINI~1\AppData\Local\Temp/ccnPzUe6.s:2804   .progmem.data:00000109 str_prepare_message
C:\Users\ADMINI~1\AppData\Local\Temp/ccnPzUe6.s:610    .text:00000288 printMacroMessage
C:\Users\ADMINI~1\AppData\Local\Temp/ccnPzUe6.s:2749   .progmem.data:00000054 str_macro_message
C:\Users\ADMINI~1\AppData\Local\Temp/ccnPzUe6.s:2754   .progmem.data:0000005a str_macro_1
C:\Users\ADMINI~1\AppData\Local\Temp/ccnPzUe6.s:2759   .progmem.data:0000006f str_macro_2
C:\Users\ADMINI~1\AppData\Local\Temp/ccnPzUe6.s:2769   .progmem.data:00000082 str_back_6
C:\Users\ADMINI~1\AppData\Local\Temp/ccnPzUe6.s:2764   .progmem.data:00000076 str_macro_9
C:\Users\ADMINI~1\AppData\Local\Temp/ccnPzUe6.s:657    .text:000002d0 printString
C:\Users\ADMINI~1\AppData\Local\Temp/ccnPzUe6.s:760    .text:00000376 printPrompt
C:\Users\ADMINI~1\AppData\Local\Temp/ccnPzUe6.s:2809   .progmem.data:00000111 str_choose_layer
C:\Users\ADMINI~1\AppData\Local\Temp/ccnPzUe6.s:2948   .bss:00000017 _currentLayer
C:\Users\ADMINI~1\AppData\Local\Temp/ccnPzUe6.s:2814   .progmem.data:00000143 str_choose_key
C:\Users\ADMINI~1\AppData\Local\Temp/ccnPzUe6.s:2819   .progmem.data:00000162 str_input_keycode
GAS LISTING C:\Users\ADMINI~1\AppData\Local\Temp/ccnPzUe6.s 			page 216


C:\Users\ADMINI~1\AppData\Local\Temp/ccnPzUe6.s:2824   .progmem.data:00000184 str_save_end_mapping
C:\Users\ADMINI~1\AppData\Local\Temp/ccnPzUe6.s:2829   .progmem.data:0000019c str_cancel_mapping
C:\Users\ADMINI~1\AppData\Local\Temp/ccnPzUe6.s:2839   .progmem.data:000001df str_input_command
C:\Users\ADMINI~1\AppData\Local\Temp/ccnPzUe6.s:2874   .progmem.data:00000258 str_select_number
C:\Users\ADMINI~1\AppData\Local\Temp/ccnPzUe6.s:2879   .progmem.data:00000285 str_exit_macro
C:\Users\ADMINI~1\AppData\Local\Temp/ccnPzUe6.s:2884   .progmem.data:000002a0 str_input_macro
C:\Users\ADMINI~1\AppData\Local\Temp/ccnPzUe6.s:2744   .progmem.data:00000041 str_boot_mapper
C:\Users\ADMINI~1\AppData\Local\Temp/ccnPzUe6.s:2739   .progmem.data:00000037 str_exit
C:\Users\ADMINI~1\AppData\Local\Temp/ccnPzUe6.s:977    .text:000004a6 printSelectMode
C:\Users\ADMINI~1\AppData\Local\Temp/ccnPzUe6.s:934    .text:00000466 printMapperMessageAfter
C:\Users\ADMINI~1\AppData\Local\Temp/ccnPzUe6.s:2789   .progmem.data:000000c0 str_mapper_3
C:\Users\ADMINI~1\AppData\Local\Temp/ccnPzUe6.s:2794   .progmem.data:000000d0 str_mapper_4
C:\Users\ADMINI~1\AppData\Local\Temp/ccnPzUe6.s:2799   .progmem.data:000000e6 str_mapper_9
C:\Users\ADMINI~1\AppData\Local\Temp/ccnPzUe6.s:2714   .progmem.data:00000000 str_select_mode
C:\Users\ADMINI~1\AppData\Local\Temp/ccnPzUe6.s:2719   .progmem.data:0000000c str_select_mode1
C:\Users\ADMINI~1\AppData\Local\Temp/ccnPzUe6.s:2724   .progmem.data:0000001a str_select_mode2
C:\Users\ADMINI~1\AppData\Local\Temp/ccnPzUe6.s:2729   .progmem.data:00000022 str_select_mode3
C:\Users\ADMINI~1\AppData\Local\Temp/ccnPzUe6.s:2734   .progmem.data:00000029 str_select_mode4
C:\Users\ADMINI~1\AppData\Local\Temp/ccnPzUe6.s:1026   .text:000004f2 clearMacroAfter
C:\Users\ADMINI~1\AppData\Local\Temp/ccnPzUe6.s:1061   .text:0000051c saveMacro
                            *COM*:00000001 _macroIndex
C:\Users\ADMINI~1\AppData\Local\Temp/ccnPzUe6.s:1110   .text:00000564 readMacro
C:\Users\ADMINI~1\AppData\Local\Temp/ccnPzUe6.s:1172   .text:000005ac loadCurrentLayer
C:\Users\ADMINI~1\AppData\Local\Temp/ccnPzUe6.s:1278   .text:00000634 putKeyCode
C:\Users\ADMINI~1\AppData\Local\Temp/ccnPzUe6.s:2919   .data:0000010f usingKeys
C:\Users\ADMINI~1\AppData\Local\Temp/ccnPzUe6.s:2913   .bss:00000003 _isTiredEscapeKey
C:\Users\ADMINI~1\AppData\Local\Temp/ccnPzUe6.s:2907   .bss:00000002 _isPressedEscapeKey
C:\Users\ADMINI~1\AppData\Local\Temp/ccnPzUe6.s:2901   .bss:00000000 _pressedEscapeKeyCount
C:\Users\ADMINI~1\AppData\Local\Temp/ccnPzUe6.s:2946   .bss:00000014 _bufferIndex
C:\Users\ADMINI~1\AppData\Local\Temp/ccnPzUe6.s:2945   .bss:00000011 _buffer
C:\Users\ADMINI~1\AppData\Local\Temp/ccnPzUe6.s:2939   .bss:0000000b _mode
C:\Users\ADMINI~1\AppData\Local\Temp/ccnPzUe6.s:2774   .progmem.data:00000089 str_mapper_message
C:\Users\ADMINI~1\AppData\Local\Temp/ccnPzUe6.s:2779   .progmem.data:00000094 str_mapper_1
C:\Users\ADMINI~1\AppData\Local\Temp/ccnPzUe6.s:2784   .progmem.data:000000a3 str_mapper_2
C:\Users\ADMINI~1\AppData\Local\Temp/ccnPzUe6.s:2889   .progmem.data:000002d7 str_invalid_macro_number
C:\Users\ADMINI~1\AppData\Local\Temp/ccnPzUe6.s:2849   .progmem.data:000001fe str_save_layer
C:\Users\ADMINI~1\AppData\Local\Temp/ccnPzUe6.s:2949   .bss:00000018 _currentLayerAfter
C:\Users\ADMINI~1\AppData\Local\Temp/ccnPzUe6.s:2854   .progmem.data:00000211 str_load_layer
C:\Users\ADMINI~1\AppData\Local\Temp/ccnPzUe6.s:2943   .bss:0000000f _col
C:\Users\ADMINI~1\AppData\Local\Temp/ccnPzUe6.s:2944   .bss:00000010 _row
C:\Users\ADMINI~1\AppData\Local\Temp/ccnPzUe6.s:2864   .progmem.data:0000022e str_col_row
C:\Users\ADMINI~1\AppData\Local\Temp/ccnPzUe6.s:2869   .progmem.data:0000023a str_invalid_keycode
C:\Users\ADMINI~1\AppData\Local\Temp/ccnPzUe6.s:2204   .text:00000c42 saveCurrentLayerAfter
C:\Users\ADMINI~1\AppData\Local\Temp/ccnPzUe6.s:2328   .text:00000d10 prepareKeyMapper
C:\Users\ADMINI~1\AppData\Local\Temp/ccnPzUe6.s:2358   .text:00000d34 getCurrentKeycode
C:\Users\ADMINI~1\AppData\Local\Temp/ccnPzUe6.s:2433   .text:00000d8a applyMacro
C:\Users\ADMINI~1\AppData\Local\Temp/ccnPzUe6.s:2480   .text:00000dba startKeyMapping
C:\Users\ADMINI~1\AppData\Local\Temp/ccnPzUe6.s:2515   .text:00000dde prepareKeyMapping
C:\Users\ADMINI~1\AppData\Local\Temp/ccnPzUe6.s:2554   .text:00000e0e countKeyMappingEnabled
C:\Users\ADMINI~1\AppData\Local\Temp/ccnPzUe6.s:2590   .text:00000e48 enterFrameForMapper
C:\Users\ADMINI~1\AppData\Local\Temp/ccnPzUe6.s:2685   .text:00000ef0 startKeyMappingOnBoot
C:\Users\ADMINI~1\AppData\Local\Temp/ccnPzUe6.s:2844   .progmem.data:000001f6 str_nothing

UNDEFINED SYMBOLS
pushM
printf
INTERFACE
GAS LISTING C:\Users\ADMINI~1\AppData\Local\Temp/ccnPzUe6.s 			page 217


charToKey
sprintf
toString
setToBootMapper
__eewr_byte_m32
__eerd_byte_m32
getDualActionDownKeyIdex
findIndex
append
delete
puts
getKeyCode
isEmptyM
clearMacroPressedBuffer
isAllKeyRelease
prepareKeyMappingUsb
prepareKeyMappingPs2
isMacroProcessEnd
isBootMapper
__do_copy_data
__do_clear_bss
