GAS LISTING C:\Users\ADMINI~1\AppData\Local\Temp/ccPfdrLh.s 			page 1


   1               		.file	"keymap.c"
   2               	__SREG__ = 0x3f
   3               	__SP_H__ = 0x3e
   4               	__SP_L__ = 0x3d
   5               	__CCP__  = 0x34
   6               	__tmp_reg__ = 0
   7               	__zero_reg__ = 1
   8               		.section	.debug_abbrev,"",@progbits
   9               	.Ldebug_abbrev0:
  10               		.section	.debug_info,"",@progbits
  11               	.Ldebug_info0:
  12               		.section	.debug_line,"",@progbits
  13               	.Ldebug_line0:
  14               		.text
  15               	.Ltext0:
  16               	.global	isCanceledDualAction
  17               		.type	isCanceledDualAction, @function
  18               	isCanceledDualAction:
  19               	.LFB4:
  20               	.LM1:
  21               	/* prologue: function */
  22               	/* frame size = 0 */
  23               	.LM2:
  24 0000 8091 0000 		lds r24,_isCanceledDualAction
  25               	/* epilogue start */
  26 0004 0895      		ret
  27               	.LFE4:
  28               		.size	isCanceledDualAction, .-isCanceledDualAction
  29               	.global	applyDualActionDown
  30               		.type	applyDualActionDown, @function
  31               	applyDualActionDown:
  32               	.LFB5:
  33               	.LM3:
  34               	.LVL0:
  35               	/* prologue: function */
  36               	/* frame size = 0 */
  37 0006 9C01      		movw r18,r24
  38               	.LM4:
  39 0008 E091 0000 		lds r30,dualActionKeyIndex
  40               	.LVL1:
  41 000c EE23      		tst r30
  42 000e 01F0      		breq .L6
  43               	.LVL2:
  44 0010 8091 0000 		lds r24,_isCanceledDualAction
  45 0014 8823      		tst r24
  46 0016 01F0      		breq .L6
  47               	.LBB18:
  48               	.LBB19:
  49               	.LM5:
  50 0018 8E2F      		mov r24,r30
  51 001a 865D      		subi r24,lo8(-(42))
  52 001c 8031      		cpi r24,lo8(16)
  53 001e 00F4      		brsh .L5
  54               	.LM6:
  55 0020 F0E0      		ldi r31,lo8(0)
  56               	.LVL3:
  57 0022 E050      		subi r30,lo8(-(dualActionMaskDown-214))
GAS LISTING C:\Users\ADMINI~1\AppData\Local\Temp/ccPfdrLh.s 			page 2


  58 0024 F040      		sbci r31,hi8(-(dualActionMaskDown-214))
  59               	.LVL4:
  60 0026 E081      		ld r30,Z
  61               	.LVL5:
  62               	.L5:
  63               	.LBE19:
  64               	.LBE18:
  65               	.LM7:
  66 0028 8E2F      		mov r24,r30
  67 002a F901      		movw r30,r18
  68 002c 0995      		icall
  69               	.LVL6:
  70               	.LM8:
  71 002e 1092 0000 		sts dualActionKeyIndex,__zero_reg__
  72               	.LVL7:
  73               	.L6:
  74 0032 0895      		ret
  75               	.LFE5:
  76               		.size	applyDualActionDown, .-applyDualActionDown
  77               	.global	getDualActionDownKeyIdex
  78               		.type	getDualActionDownKeyIdex, @function
  79               	getDualActionDownKeyIdex:
  80               	.LFB8:
  81               	.LM9:
  82               	.LVL8:
  83               	/* prologue: function */
  84               	/* frame size = 0 */
  85 0034 E82F      		mov r30,r24
  86               	.LM10:
  87 0036 865D      		subi r24,lo8(-(42))
  88               	.LVL9:
  89 0038 8031      		cpi r24,lo8(16)
  90 003a 00F4      		brsh .L8
  91 003c 8091 0000 		lds r24,_isCanceledDualAction
  92 0040 8823      		tst r24
  93 0042 01F0      		breq .L8
  94               	.LM11:
  95 0044 F0E0      		ldi r31,lo8(0)
  96               	.LVL10:
  97 0046 E050      		subi r30,lo8(-(dualActionMaskDown-214))
  98 0048 F040      		sbci r31,hi8(-(dualActionMaskDown-214))
  99               	.LVL11:
 100 004a E081      		ld r30,Z
 101               	.LVL12:
 102               	.L8:
 103               	.LM12:
 104 004c 8E2F      		mov r24,r30
 105               	/* epilogue start */
 106 004e 0895      		ret
 107               	.LFE8:
 108               		.size	getDualActionDownKeyIdex, .-getDualActionDownKeyIdex
 109               	.global	setDualAction
 110               		.type	setDualAction, @function
 111               	setDualAction:
 112               	.LFB7:
 113               	.LM13:
 114               	.LVL13:
GAS LISTING C:\Users\ADMINI~1\AppData\Local\Temp/ccPfdrLh.s 			page 3


 115 0050 1F93      		push r17
 116               	/* prologue: function */
 117               	/* frame size = 0 */
 118 0052 982F      		mov r25,r24
 119 0054 865D      		subi r24,lo8(-(42))
 120               	.LVL14:
 121               	.LM14:
 122 0056 6623      		tst r22
 123 0058 01F0      		breq .L11
 124               	.LM15:
 125 005a 8031      		cpi r24,lo8(16)
 126 005c 00F4      		brsh .L12
 127               	.LM16:
 128 005e 8091 0000 		lds r24,_dualActionCount
 129 0062 8F5F      		subi r24,lo8(-(1))
 130 0064 8093 0000 		sts _dualActionCount,r24
 131               	.LM17:
 132 0068 8091 0000 		lds r24,_isActiveDualAction
 133 006c 8823      		tst r24
 134 006e 01F4      		brne .L17
 135               	.LM18:
 136 0070 9093 0000 		sts dualActionKeyIndex,r25
 137               	.LM19:
 138 0074 81E0      		ldi r24,lo8(1)
 139 0076 8093 0000 		sts _isActiveDualAction,r24
 140               	.LM20:
 141 007a 1092 0000 		sts _isCanceledDualAction,__zero_reg__
 142 007e 00C0      		rjmp .L16
 143               	.L12:
 144               	.LM21:
 145 0080 8091 0000 		lds r24,dualActionKeyIndex
 146 0084 8823      		tst r24
 147 0086 01F0      		breq .L16
 148               	.L17:
 149               	.LM22:
 150 0088 81E0      		ldi r24,lo8(1)
 151 008a 8093 0000 		sts _isCanceledDualAction,r24
 152 008e 00C0      		rjmp .L16
 153               	.L11:
 154               	.LM23:
 155 0090 8031      		cpi r24,lo8(16)
 156 0092 00F4      		brsh .L16
 157               	.LM24:
 158 0094 8091 0000 		lds r24,_dualActionCount
 159 0098 8150      		subi r24,lo8(-(-1))
 160 009a 8093 0000 		sts _dualActionCount,r24
 161               	.LBB20:
 162               	.LBB21:
 163               	.LM25:
 164 009e E091 0000 		lds r30,dualActionKeyIndex
 165 00a2 EE23      		tst r30
 166 00a4 01F0      		breq .L15
 167 00a6 8091 0000 		lds r24,_isCanceledDualAction
 168 00aa 8823      		tst r24
 169 00ac 01F4      		brne .L15
 170               	.LBB22:
 171               	.LM26:
GAS LISTING C:\Users\ADMINI~1\AppData\Local\Temp/ccPfdrLh.s 			page 4


 172 00ae F0E0      		ldi r31,lo8(0)
 173 00b0 E050      		subi r30,lo8(-(dualActionMaskUp-214))
 174 00b2 F040      		sbci r31,hi8(-(dualActionMaskUp-214))
 175 00b4 1081      		ld r17,Z
 176               	.LVL15:
 177               	.LM27:
 178 00b6 812F      		mov r24,r17
 179 00b8 0E94 0000 		call pushM
 180               	.LVL16:
 181               	.LM28:
 182 00bc 812F      		mov r24,r17
 183 00be 0E94 0000 		call pushM
 184               	.LM29:
 185 00c2 1092 0000 		sts dualActionKeyIndex,__zero_reg__
 186               	.LVL17:
 187               	.L15:
 188               	.LBE22:
 189               	.LM30:
 190 00c6 8091 0000 		lds r24,_dualActionCount
 191 00ca 8823      		tst r24
 192 00cc 01F4      		brne .L16
 193 00ce 1092 0000 		sts _isActiveDualAction,__zero_reg__
 194               	.L16:
 195               	/* epilogue start */
 196               	.LBE21:
 197               	.LBE20:
 198               	.LM31:
 199 00d2 1F91      		pop r17
 200               	.LVL18:
 201 00d4 0895      		ret
 202               	.LFE7:
 203               		.size	setDualAction, .-setDualAction
 204               	.global	dualActionMaskDown
 205               		.data
 206               		.type	dualActionMaskDown, @object
 207               		.size	dualActionMaskDown, 16
 208               	dualActionMaskDown:
 209 0000 FE        		.byte	-2
 210 0001 FE        		.byte	-2
 211 0002 F8        		.byte	-8
 212 0003 F8        		.byte	-8
 213 0004 6C        		.byte	108
 214 0005 6C        		.byte	108
 215 0006 68        		.byte	104
 216 0007 68        		.byte	104
 217 0008 6D        		.byte	109
 218 0009 6D        		.byte	109
 219 000a 69        		.byte	105
 220 000b 69        		.byte	105
 221 000c 6B        		.byte	107
 222 000d 6B        		.byte	107
 223 000e 67        		.byte	103
 224 000f 67        		.byte	103
 225               	.global	dualActionMaskUp
 226               		.type	dualActionMaskUp, @object
 227               		.size	dualActionMaskUp, 16
 228               	dualActionMaskUp:
GAS LISTING C:\Users\ADMINI~1\AppData\Local\Temp/ccPfdrLh.s 			page 5


 229 0010 8E        		.byte	-114
 230 0011 8D        		.byte	-115
 231 0012 8E        		.byte	-114
 232 0013 8D        		.byte	-115
 233 0014 8E        		.byte	-114
 234 0015 8D        		.byte	-115
 235 0016 8E        		.byte	-114
 236 0017 8D        		.byte	-115
 237 0018 8E        		.byte	-114
 238 0019 8D        		.byte	-115
 239 001a 8E        		.byte	-114
 240 001b 8D        		.byte	-115
 241 001c 8E        		.byte	-114
 242 001d 8D        		.byte	-115
 243 001e 8E        		.byte	-114
 244 001f 8D        		.byte	-115
 245               	.global	dualActionKeyIndex
 246               	.global	dualActionKeyIndex
 247               		.section .bss
 248               		.type	dualActionKeyIndex, @object
 249               		.size	dualActionKeyIndex, 1
 250               	dualActionKeyIndex:
 251 0000 00        		.skip 1,0
 252               	.global	keycode_set2
 253               		.section	.progmem.data,"a",@progbits
 254               		.type	keycode_set2, @object
 255               		.size	keycode_set2, 144
 256               	keycode_set2:
 257 0000 00        		.byte	0
 258 0001 00        		.byte	0
 259 0002 FC        		.byte	-4
 260 0003 00        		.byte	0
 261 0004 1C        		.byte	28
 262 0005 32        		.byte	50
 263 0006 21        		.byte	33
 264 0007 23        		.byte	35
 265 0008 24        		.byte	36
 266 0009 2B        		.byte	43
 267 000a 34        		.byte	52
 268 000b 33        		.byte	51
 269 000c 43        		.byte	67
 270 000d 3B        		.byte	59
 271 000e 42        		.byte	66
 272 000f 4B        		.byte	75
 273 0010 3A        		.byte	58
 274 0011 31        		.byte	49
 275 0012 44        		.byte	68
 276 0013 4D        		.byte	77
 277 0014 15        		.byte	21
 278 0015 2D        		.byte	45
 279 0016 1B        		.byte	27
 280 0017 2C        		.byte	44
 281 0018 3C        		.byte	60
 282 0019 2A        		.byte	42
 283 001a 1D        		.byte	29
 284 001b 22        		.byte	34
 285 001c 35        		.byte	53
GAS LISTING C:\Users\ADMINI~1\AppData\Local\Temp/ccPfdrLh.s 			page 6


 286 001d 1A        		.byte	26
 287 001e 16        		.byte	22
 288 001f 1E        		.byte	30
 289 0020 26        		.byte	38
 290 0021 25        		.byte	37
 291 0022 2E        		.byte	46
 292 0023 36        		.byte	54
 293 0024 3D        		.byte	61
 294 0025 3E        		.byte	62
 295 0026 46        		.byte	70
 296 0027 45        		.byte	69
 297 0028 5A        		.byte	90
 298 0029 76        		.byte	118
 299 002a 66        		.byte	102
 300 002b 0D        		.byte	13
 301 002c 29        		.byte	41
 302 002d 4E        		.byte	78
 303 002e 55        		.byte	85
 304 002f 54        		.byte	84
 305 0030 5B        		.byte	91
 306 0031 5D        		.byte	93
 307 0032 5D        		.byte	93
 308 0033 4C        		.byte	76
 309 0034 52        		.byte	82
 310 0035 0E        		.byte	14
 311 0036 41        		.byte	65
 312 0037 49        		.byte	73
 313 0038 4A        		.byte	74
 314 0039 58        		.byte	88
 315 003a 05        		.byte	5
 316 003b 06        		.byte	6
 317 003c 04        		.byte	4
 318 003d 0C        		.byte	12
 319 003e 03        		.byte	3
 320 003f 0B        		.byte	11
 321 0040 83        		.byte	-125
 322 0041 0A        		.byte	10
 323 0042 01        		.byte	1
 324 0043 09        		.byte	9
 325 0044 78        		.byte	120
 326 0045 07        		.byte	7
 327 0046 7C        		.byte	124
 328 0047 7E        		.byte	126
 329 0048 7C        		.byte	124
 330 0049 70        		.byte	112
 331 004a 6C        		.byte	108
 332 004b 7D        		.byte	125
 333 004c 71        		.byte	113
 334 004d 69        		.byte	105
 335 004e 7A        		.byte	122
 336 004f 74        		.byte	116
 337 0050 6B        		.byte	107
 338 0051 72        		.byte	114
 339 0052 75        		.byte	117
 340 0053 77        		.byte	119
 341 0054 4A        		.byte	74
 342 0055 7C        		.byte	124
GAS LISTING C:\Users\ADMINI~1\AppData\Local\Temp/ccPfdrLh.s 			page 7


 343 0056 7B        		.byte	123
 344 0057 79        		.byte	121
 345 0058 5A        		.byte	90
 346 0059 69        		.byte	105
 347 005a 72        		.byte	114
 348 005b 7A        		.byte	122
 349 005c 6B        		.byte	107
 350 005d 73        		.byte	115
 351 005e 74        		.byte	116
 352 005f 6C        		.byte	108
 353 0060 75        		.byte	117
 354 0061 7D        		.byte	125
 355 0062 70        		.byte	112
 356 0063 71        		.byte	113
 357 0064 61        		.byte	97
 358 0065 2F        		.byte	47
 359 0066 00        		.byte	0
 360 0067 14        		.byte	20
 361 0068 12        		.byte	18
 362 0069 11        		.byte	17
 363 006a 1F        		.byte	31
 364 006b 14        		.byte	20
 365 006c 59        		.byte	89
 366 006d 11        		.byte	17
 367 006e 27        		.byte	39
 368 006f 00        		.byte	0
 369 0070 00        		.byte	0
 370 0071 37        		.byte	55
 371 0072 3F        		.byte	63
 372 0073 5E        		.byte	94
 373 0074 48        		.byte	72
 374 0075 10        		.byte	16
 375 0076 3A        		.byte	58
 376 0077 38        		.byte	56
 377 0078 30        		.byte	48
 378 0079 28        		.byte	40
 379 007a 20        		.byte	32
 380 007b 18        		.byte	24
 381 007c 4D        		.byte	77
 382 007d 15        		.byte	21
 383 007e 3B        		.byte	59
 384 007f 34        		.byte	52
 385 0080 23        		.byte	35
 386 0081 32        		.byte	50
 387 0082 21        		.byte	33
 388 0083 50        		.byte	80
 389 0084 2B        		.byte	43
 390 0085 40        		.byte	64
 391 0086 4B        		.byte	75
 392 0087 1C        		.byte	28
 393 0088 43        		.byte	67
 394 0089 22        		.byte	34
 395 008a 1D        		.byte	29
 396 008b 00        		.byte	0
 397 008c 00        		.byte	0
 398 008d F1        		.byte	-15
 399 008e F2        		.byte	-14
GAS LISTING C:\Users\ADMINI~1\AppData\Local\Temp/ccPfdrLh.s 			page 8


 400 008f 00        		.byte	0
 401               	.global	keycode_USB_multimedia
 402               		.type	keycode_USB_multimedia, @object
 403               		.size	keycode_USB_multimedia, 52
 404               	keycode_USB_multimedia:
 405 0090 0000      		.word	0
 406 0092 0000      		.word	0
 407 0094 0000      		.word	0
 408 0096 8A01      		.word	394
 409 0098 2102      		.word	545
 410 009a 2302      		.word	547
 411 009c 2402      		.word	548
 412 009e 2502      		.word	549
 413 00a0 2602      		.word	550
 414 00a2 2702      		.word	551
 415 00a4 2A02      		.word	554
 416 00a6 B500      		.word	181
 417 00a8 B600      		.word	182
 418 00aa B700      		.word	183
 419 00ac CD00      		.word	205
 420 00ae E200      		.word	226
 421 00b0 E900      		.word	233
 422 00b2 EA00      		.word	234
 423 00b4 8301      		.word	387
 424 00b6 9201      		.word	402
 425 00b8 9401      		.word	404
 426 00ba 0000      		.word	0
 427 00bc 0000      		.word	0
 428 00be 0000      		.word	0
 429 00c0 0000      		.word	0
 430 00c2 0000      		.word	0
 431               	.global	keycode_USB_extend
 432               		.type	keycode_USB_extend, @object
 433               		.size	keycode_USB_extend, 4
 434               	keycode_USB_extend:
 435 00c4 9100      		.word	145
 436 00c6 9000      		.word	144
 437               	.global	keycode_set2_special
 438               		.type	keycode_set2_special, @object
 439               		.size	keycode_set2_special, 3
 440               	keycode_set2_special:
 441 00c8 46        		.byte	70
 442 00c9 48        		.byte	72
 443 00ca 00        		.byte	0
 444               	.global	keycode_set2_makeonly
 445               		.type	keycode_set2_makeonly, @object
 446               		.size	keycode_set2_makeonly, 4
 447               	keycode_set2_makeonly:
 448 00cb 48        		.byte	72
 449 00cc 8E        		.byte	-114
 450 00cd 8D        		.byte	-115
 451 00ce 00        		.byte	0
 452               	.global	keycode_set2_make_break
 453               		.type	keycode_set2_make_break, @object
 454               		.size	keycode_set2_make_break, 4
 455               	keycode_set2_make_break:
 456 00cf 71        		.byte	113
GAS LISTING C:\Users\ADMINI~1\AppData\Local\Temp/ccPfdrLh.s 			page 9


 457 00d0 72        		.byte	114
 458 00d1 73        		.byte	115
 459 00d2 00        		.byte	0
 460               	.global	keycode_set2_extend
 461               		.type	keycode_set2_extend, @object
 462               		.size	keycode_set2_extend, 45
 463               	keycode_set2_extend:
 464 00d3 6A        		.byte	106
 465 00d4 6B        		.byte	107
 466 00d5 6E        		.byte	110
 467 00d6 6D        		.byte	109
 468 00d7 65        		.byte	101
 469 00d8 46        		.byte	70
 470 00d9 49        		.byte	73
 471 00da 4A        		.byte	74
 472 00db 4B        		.byte	75
 473 00dc 4C        		.byte	76
 474 00dd 4D        		.byte	77
 475 00de 4E        		.byte	78
 476 00df 52        		.byte	82
 477 00e0 50        		.byte	80
 478 00e1 4F        		.byte	79
 479 00e2 51        		.byte	81
 480 00e3 54        		.byte	84
 481 00e4 58        		.byte	88
 482 00e5 71        		.byte	113
 483 00e6 72        		.byte	114
 484 00e7 73        		.byte	115
 485 00e8 74        		.byte	116
 486 00e9 75        		.byte	117
 487 00ea 76        		.byte	118
 488 00eb 77        		.byte	119
 489 00ec 78        		.byte	120
 490 00ed 79        		.byte	121
 491 00ee 7A        		.byte	122
 492 00ef 7B        		.byte	123
 493 00f0 7C        		.byte	124
 494 00f1 7D        		.byte	125
 495 00f2 7E        		.byte	126
 496 00f3 7F        		.byte	127
 497 00f4 80        		.byte	-128
 498 00f5 81        		.byte	-127
 499 00f6 82        		.byte	-126
 500 00f7 83        		.byte	-125
 501 00f8 84        		.byte	-124
 502 00f9 85        		.byte	-123
 503 00fa 86        		.byte	-122
 504 00fb 87        		.byte	-121
 505 00fc 88        		.byte	-120
 506 00fd 89        		.byte	-119
 507 00fe 8A        		.byte	-118
 508 00ff 00        		.byte	0
 509               	.global	keycode_set2_proc_shift
 510               		.type	keycode_set2_proc_shift, @object
 511               		.size	keycode_set2_proc_shift, 15
 512               	keycode_set2_proc_shift:
 513 0100 49        		.byte	73
GAS LISTING C:\Users\ADMINI~1\AppData\Local\Temp/ccPfdrLh.s 			page 10


 514 0101 4C        		.byte	76
 515 0102 4A        		.byte	74
 516 0103 4D        		.byte	77
 517 0104 4B        		.byte	75
 518 0105 4E        		.byte	78
 519 0106 6A        		.byte	106
 520 0107 6E        		.byte	110
 521 0108 65        		.byte	101
 522 0109 50        		.byte	80
 523 010a 4F        		.byte	79
 524 010b 52        		.byte	82
 525 010c 51        		.byte	81
 526 010d 54        		.byte	84
 527 010e 00        		.byte	0
 528               	.global	keymap_code
 529               		.type	keymap_code, @object
 530               		.size	keymap_code, 408
 531               	keymap_code:
 532 010f 48        		.byte	72
 533 0110 00        		.byte	0
 534 0111 00        		.byte	0
 535 0112 00        		.byte	0
 536 0113 6B        		.byte	107
 537 0114 00        		.byte	0
 538 0115 67        		.byte	103
 539 0116 3E        		.byte	62
 540 0117 14        		.byte	20
 541 0118 2B        		.byte	43
 542 0119 04        		.byte	4
 543 011a 29        		.byte	41
 544 011b 1D        		.byte	29
 545 011c 00        		.byte	0
 546 011d 35        		.byte	53
 547 011e 1E        		.byte	30
 548 011f 1A        		.byte	26
 549 0120 39        		.byte	57
 550 0121 16        		.byte	22
 551 0122 00        		.byte	0
 552 0123 1B        		.byte	27
 553 0124 00        		.byte	0
 554 0125 3A        		.byte	58
 555 0126 1F        		.byte	31
 556 0127 08        		.byte	8
 557 0128 3C        		.byte	60
 558 0129 07        		.byte	7
 559 012a 3D        		.byte	61
 560 012b 06        		.byte	6
 561 012c 00        		.byte	0
 562 012d 3B        		.byte	59
 563 012e 20        		.byte	32
 564 012f 15        		.byte	21
 565 0130 17        		.byte	23
 566 0131 09        		.byte	9
 567 0132 0A        		.byte	10
 568 0133 19        		.byte	25
 569 0134 05        		.byte	5
 570 0135 22        		.byte	34
GAS LISTING C:\Users\ADMINI~1\AppData\Local\Temp/ccPfdrLh.s 			page 11


 571 0136 21        		.byte	33
 572 0137 18        		.byte	24
 573 0138 1C        		.byte	28
 574 0139 0D        		.byte	13
 575 013a 0B        		.byte	11
 576 013b 10        		.byte	16
 577 013c 11        		.byte	17
 578 013d 23        		.byte	35
 579 013e 24        		.byte	36
 580 013f 0C        		.byte	12
 581 0140 30        		.byte	48
 582 0141 0E        		.byte	14
 583 0142 3F        		.byte	63
 584 0143 36        		.byte	54
 585 0144 00        		.byte	0
 586 0145 2E        		.byte	46
 587 0146 25        		.byte	37
 588 0147 12        		.byte	18
 589 0148 40        		.byte	64
 590 0149 0F        		.byte	15
 591 014a 00        		.byte	0
 592 014b 37        		.byte	55
 593 014c FE        		.byte	-2
 594 014d 41        		.byte	65
 595 014e 26        		.byte	38
 596 014f 13        		.byte	19
 597 0150 2F        		.byte	47
 598 0151 33        		.byte	51
 599 0152 34        		.byte	52
 600 0153 32        		.byte	50
 601 0154 38        		.byte	56
 602 0155 2D        		.byte	45
 603 0156 27        		.byte	39
 604 0157 47        		.byte	71
 605 0158 00        		.byte	0
 606 0159 00        		.byte	0
 607 015a 69        		.byte	105
 608 015b 64        		.byte	100
 609 015c 6D        		.byte	109
 610 015d 00        		.byte	0
 611 015e 46        		.byte	70
 612 015f 00        		.byte	0
 613 0160 2A        		.byte	42
 614 0161 31        		.byte	49
 615 0162 44        		.byte	68
 616 0163 28        		.byte	40
 617 0164 45        		.byte	69
 618 0165 42        		.byte	66
 619 0166 43        		.byte	67
 620 0167 C9        		.byte	-55
 621 0168 53        		.byte	83
 622 0169 5F        		.byte	95
 623 016a 2C        		.byte	44
 624 016b 5C        		.byte	92
 625 016c 51        		.byte	81
 626 016d 4C        		.byte	76
 627 016e 00        		.byte	0
GAS LISTING C:\Users\ADMINI~1\AppData\Local\Temp/ccPfdrLh.s 			page 12


 628 016f CA        		.byte	-54
 629 0170 54        		.byte	84
 630 0171 60        		.byte	96
 631 0172 5D        		.byte	93
 632 0173 5A        		.byte	90
 633 0174 4F        		.byte	79
 634 0175 49        		.byte	73
 635 0176 00        		.byte	0
 636 0177 CB        		.byte	-53
 637 0178 55        		.byte	85
 638 0179 61        		.byte	97
 639 017a 5E        		.byte	94
 640 017b 5B        		.byte	91
 641 017c 00        		.byte	0
 642 017d 4B        		.byte	75
 643 017e 4E        		.byte	78
 644 017f CC        		.byte	-52
 645 0180 56        		.byte	86
 646 0181 57        		.byte	87
 647 0182 52        		.byte	82
 648 0183 58        		.byte	88
 649 0184 50        		.byte	80
 650 0185 4A        		.byte	74
 651 0186 4D        		.byte	77
 652 0187 62        		.byte	98
 653 0188 68        		.byte	104
 654 0189 6C        		.byte	108
 655 018a 59        		.byte	89
 656 018b 63        		.byte	99
 657 018c 00        		.byte	0
 658 018d 00        		.byte	0
 659 018e 00        		.byte	0
 660 018f 00        		.byte	0
 661 0190 6A        		.byte	106
 662 0191 6E        		.byte	110
 663 0192 00        		.byte	0
 664 0193 00        		.byte	0
 665 0194 00        		.byte	0
 666 0195 00        		.byte	0
 667 0196 00        		.byte	0
 668 0197 53        		.byte	83
 669 0198 00        		.byte	0
 670 0199 00        		.byte	0
 671 019a 00        		.byte	0
 672 019b 6B        		.byte	107
 673 019c 00        		.byte	0
 674 019d 67        		.byte	103
 675 019e 3E        		.byte	62
 676 019f 14        		.byte	20
 677 01a0 2B        		.byte	43
 678 01a1 04        		.byte	4
 679 01a2 29        		.byte	41
 680 01a3 1D        		.byte	29
 681 01a4 00        		.byte	0
 682 01a5 35        		.byte	53
 683 01a6 1E        		.byte	30
 684 01a7 1A        		.byte	26
GAS LISTING C:\Users\ADMINI~1\AppData\Local\Temp/ccPfdrLh.s 			page 13


 685 01a8 FD        		.byte	-3
 686 01a9 16        		.byte	22
 687 01aa 00        		.byte	0
 688 01ab 1B        		.byte	27
 689 01ac 00        		.byte	0
 690 01ad 3A        		.byte	58
 691 01ae 1F        		.byte	31
 692 01af 08        		.byte	8
 693 01b0 3C        		.byte	60
 694 01b1 07        		.byte	7
 695 01b2 3D        		.byte	61
 696 01b3 06        		.byte	6
 697 01b4 00        		.byte	0
 698 01b5 3B        		.byte	59
 699 01b6 20        		.byte	32
 700 01b7 15        		.byte	21
 701 01b8 17        		.byte	23
 702 01b9 09        		.byte	9
 703 01ba 0A        		.byte	10
 704 01bb 19        		.byte	25
 705 01bc 05        		.byte	5
 706 01bd 22        		.byte	34
 707 01be 21        		.byte	33
 708 01bf 5C        		.byte	92
 709 01c0 1C        		.byte	28
 710 01c1 59        		.byte	89
 711 01c2 0B        		.byte	11
 712 01c3 62        		.byte	98
 713 01c4 11        		.byte	17
 714 01c5 23        		.byte	35
 715 01c6 5F        		.byte	95
 716 01c7 5D        		.byte	93
 717 01c8 30        		.byte	48
 718 01c9 5A        		.byte	90
 719 01ca 3F        		.byte	63
 720 01cb 62        		.byte	98
 721 01cc 00        		.byte	0
 722 01cd FA        		.byte	-6
 723 01ce 60        		.byte	96
 724 01cf 5E        		.byte	94
 725 01d0 40        		.byte	64
 726 01d1 5B        		.byte	91
 727 01d2 00        		.byte	0
 728 01d3 63        		.byte	99
 729 01d4 FE        		.byte	-2
 730 01d5 41        		.byte	65
 731 01d6 61        		.byte	97
 732 01d7 55        		.byte	85
 733 01d8 2F        		.byte	47
 734 01d9 56        		.byte	86
 735 01da 34        		.byte	52
 736 01db 32        		.byte	50
 737 01dc 57        		.byte	87
 738 01dd F9        		.byte	-7
 739 01de 54        		.byte	84
 740 01df 47        		.byte	71
 741 01e0 00        		.byte	0
GAS LISTING C:\Users\ADMINI~1\AppData\Local\Temp/ccPfdrLh.s 			page 14


 742 01e1 00        		.byte	0
 743 01e2 69        		.byte	105
 744 01e3 64        		.byte	100
 745 01e4 6D        		.byte	109
 746 01e5 00        		.byte	0
 747 01e6 46        		.byte	70
 748 01e7 00        		.byte	0
 749 01e8 2A        		.byte	42
 750 01e9 31        		.byte	49
 751 01ea 44        		.byte	68
 752 01eb 58        		.byte	88
 753 01ec 45        		.byte	69
 754 01ed 42        		.byte	66
 755 01ee 43        		.byte	67
 756 01ef C9        		.byte	-55
 757 01f0 53        		.byte	83
 758 01f1 5F        		.byte	95
 759 01f2 FC        		.byte	-4
 760 01f3 5C        		.byte	92
 761 01f4 51        		.byte	81
 762 01f5 4C        		.byte	76
 763 01f6 00        		.byte	0
 764 01f7 CA        		.byte	-54
 765 01f8 54        		.byte	84
 766 01f9 60        		.byte	96
 767 01fa 5D        		.byte	93
 768 01fb 5A        		.byte	90
 769 01fc 4F        		.byte	79
 770 01fd 49        		.byte	73
 771 01fe 00        		.byte	0
 772 01ff CB        		.byte	-53
 773 0200 55        		.byte	85
 774 0201 61        		.byte	97
 775 0202 5E        		.byte	94
 776 0203 5B        		.byte	91
 777 0204 00        		.byte	0
 778 0205 4B        		.byte	75
 779 0206 4E        		.byte	78
 780 0207 CC        		.byte	-52
 781 0208 56        		.byte	86
 782 0209 57        		.byte	87
 783 020a 52        		.byte	82
 784 020b 58        		.byte	88
 785 020c 50        		.byte	80
 786 020d 4A        		.byte	74
 787 020e 4D        		.byte	77
 788 020f 62        		.byte	98
 789 0210 68        		.byte	104
 790 0211 6C        		.byte	108
 791 0212 59        		.byte	89
 792 0213 63        		.byte	99
 793 0214 00        		.byte	0
 794 0215 00        		.byte	0
 795 0216 00        		.byte	0
 796 0217 00        		.byte	0
 797 0218 6A        		.byte	106
 798 0219 6E        		.byte	110
GAS LISTING C:\Users\ADMINI~1\AppData\Local\Temp/ccPfdrLh.s 			page 15


 799 021a 00        		.byte	0
 800 021b 00        		.byte	0
 801 021c 00        		.byte	0
 802 021d 00        		.byte	0
 803 021e 00        		.byte	0
 804 021f 48        		.byte	72
 805 0220 00        		.byte	0
 806 0221 00        		.byte	0
 807 0222 00        		.byte	0
 808 0223 6B        		.byte	107
 809 0224 00        		.byte	0
 810 0225 67        		.byte	103
 811 0226 3E        		.byte	62
 812 0227 14        		.byte	20
 813 0228 2B        		.byte	43
 814 0229 04        		.byte	4
 815 022a 29        		.byte	41
 816 022b 1D        		.byte	29
 817 022c 00        		.byte	0
 818 022d 35        		.byte	53
 819 022e 1E        		.byte	30
 820 022f 1A        		.byte	26
 821 0230 39        		.byte	57
 822 0231 16        		.byte	22
 823 0232 00        		.byte	0
 824 0233 1B        		.byte	27
 825 0234 00        		.byte	0
 826 0235 3A        		.byte	58
 827 0236 1F        		.byte	31
 828 0237 08        		.byte	8
 829 0238 3C        		.byte	60
 830 0239 07        		.byte	7
 831 023a 3D        		.byte	61
 832 023b 06        		.byte	6
 833 023c 00        		.byte	0
 834 023d 3B        		.byte	59
 835 023e 20        		.byte	32
 836 023f 15        		.byte	21
 837 0240 17        		.byte	23
 838 0241 09        		.byte	9
 839 0242 0A        		.byte	10
 840 0243 19        		.byte	25
 841 0244 05        		.byte	5
 842 0245 22        		.byte	34
 843 0246 21        		.byte	33
 844 0247 18        		.byte	24
 845 0248 1C        		.byte	28
 846 0249 0D        		.byte	13
 847 024a 0B        		.byte	11
 848 024b 10        		.byte	16
 849 024c 11        		.byte	17
 850 024d 23        		.byte	35
 851 024e 24        		.byte	36
 852 024f 0C        		.byte	12
 853 0250 30        		.byte	48
 854 0251 0E        		.byte	14
 855 0252 3F        		.byte	63
GAS LISTING C:\Users\ADMINI~1\AppData\Local\Temp/ccPfdrLh.s 			page 16


 856 0253 36        		.byte	54
 857 0254 00        		.byte	0
 858 0255 2E        		.byte	46
 859 0256 25        		.byte	37
 860 0257 12        		.byte	18
 861 0258 40        		.byte	64
 862 0259 0F        		.byte	15
 863 025a 00        		.byte	0
 864 025b 37        		.byte	55
 865 025c FE        		.byte	-2
 866 025d 41        		.byte	65
 867 025e 26        		.byte	38
 868 025f 13        		.byte	19
 869 0260 2F        		.byte	47
 870 0261 33        		.byte	51
 871 0262 34        		.byte	52
 872 0263 32        		.byte	50
 873 0264 38        		.byte	56
 874 0265 2D        		.byte	45
 875 0266 27        		.byte	39
 876 0267 47        		.byte	71
 877 0268 00        		.byte	0
 878 0269 00        		.byte	0
 879 026a 69        		.byte	105
 880 026b 64        		.byte	100
 881 026c 6D        		.byte	109
 882 026d 00        		.byte	0
 883 026e 46        		.byte	70
 884 026f 00        		.byte	0
 885 0270 2A        		.byte	42
 886 0271 31        		.byte	49
 887 0272 44        		.byte	68
 888 0273 28        		.byte	40
 889 0274 45        		.byte	69
 890 0275 42        		.byte	66
 891 0276 43        		.byte	67
 892 0277 C9        		.byte	-55
 893 0278 53        		.byte	83
 894 0279 5F        		.byte	95
 895 027a 2C        		.byte	44
 896 027b 5C        		.byte	92
 897 027c 51        		.byte	81
 898 027d 4C        		.byte	76
 899 027e 00        		.byte	0
 900 027f CA        		.byte	-54
 901 0280 54        		.byte	84
 902 0281 60        		.byte	96
 903 0282 5D        		.byte	93
 904 0283 5A        		.byte	90
 905 0284 4F        		.byte	79
 906 0285 49        		.byte	73
 907 0286 00        		.byte	0
 908 0287 CB        		.byte	-53
 909 0288 55        		.byte	85
 910 0289 61        		.byte	97
 911 028a 5E        		.byte	94
 912 028b 5B        		.byte	91
GAS LISTING C:\Users\ADMINI~1\AppData\Local\Temp/ccPfdrLh.s 			page 17


 913 028c 00        		.byte	0
 914 028d 4B        		.byte	75
 915 028e 4E        		.byte	78
 916 028f CC        		.byte	-52
 917 0290 56        		.byte	86
 918 0291 57        		.byte	87
 919 0292 52        		.byte	82
 920 0293 58        		.byte	88
 921 0294 50        		.byte	80
 922 0295 4A        		.byte	74
 923 0296 4D        		.byte	77
 924 0297 62        		.byte	98
 925 0298 68        		.byte	104
 926 0299 6C        		.byte	108
 927 029a 59        		.byte	89
 928 029b 63        		.byte	99
 929 029c 00        		.byte	0
 930 029d 00        		.byte	0
 931 029e 00        		.byte	0
 932 029f 00        		.byte	0
 933 02a0 6A        		.byte	106
 934 02a1 6E        		.byte	110
 935 02a2 00        		.byte	0
 936 02a3 00        		.byte	0
 937 02a4 00        		.byte	0
 938 02a5 00        		.byte	0
 939 02a6 00        		.byte	0
 940               		.lcomm _dualActionCount,1
 941               		.lcomm _isActiveDualAction,1
 942               		.lcomm _isCanceledDualAction,1
 943               		.section	.debug_frame,"",@progbits
 944               	.Lframe0:
 945 0000 0C00 0000 		.long	.LECIE0-.LSCIE0
 946               	.LSCIE0:
 947 0004 FFFF FFFF 		.long	0xffffffff
 948 0008 01        		.byte	0x1
 949 0009 00        		.string	""
 950 000a 01        		.uleb128 0x1
 951 000b 7F        		.sleb128 -1
 952 000c 24        		.byte	0x24
 953 000d 0C        		.byte	0xc
 954 000e 20        		.uleb128 0x20
 955 000f 00        		.uleb128 0x0
 956               		.p2align	2
 957               	.LECIE0:
 958               	.LSFDE0:
 959 0010 0C00 0000 		.long	.LEFDE0-.LASFDE0
 960               	.LASFDE0:
 961 0014 0000 0000 		.long	.Lframe0
 962 0018 0000 0000 		.long	.LFB4
 963 001c 0600 0000 		.long	.LFE4-.LFB4
 964               		.p2align	2
 965               	.LEFDE0:
 966               	.LSFDE2:
 967 0020 0C00 0000 		.long	.LEFDE2-.LASFDE2
 968               	.LASFDE2:
 969 0024 0000 0000 		.long	.Lframe0
GAS LISTING C:\Users\ADMINI~1\AppData\Local\Temp/ccPfdrLh.s 			page 18


 970 0028 0000 0000 		.long	.LFB5
 971 002c 2E00 0000 		.long	.LFE5-.LFB5
 972               		.p2align	2
 973               	.LEFDE2:
 974               	.LSFDE4:
 975 0030 0C00 0000 		.long	.LEFDE4-.LASFDE4
 976               	.LASFDE4:
 977 0034 0000 0000 		.long	.Lframe0
 978 0038 0000 0000 		.long	.LFB8
 979 003c 1C00 0000 		.long	.LFE8-.LFB8
 980               		.p2align	2
 981               	.LEFDE4:
 982               	.LSFDE6:
 983 0040 0C00 0000 		.long	.LEFDE6-.LASFDE6
 984               	.LASFDE6:
 985 0044 0000 0000 		.long	.Lframe0
 986 0048 0000 0000 		.long	.LFB7
 987 004c 8600 0000 		.long	.LFE7-.LFB7
 988               		.p2align	2
 989               	.LEFDE6:
 990               		.text
 991               	.Letext0:
 992               		.section	.debug_loc,"",@progbits
 993               	.Ldebug_loc0:
 994               	.LLST2:
 995 0000 0600 0000 		.long	.LVL0-.Ltext0
 996 0004 1000 0000 		.long	.LVL2-.Ltext0
 997 0008 0600      		.word	0x6
 998 000a 68        		.byte	0x68
 999 000b 93        		.byte	0x93
 1000 000c 01        		.uleb128 0x1
 1001 000d 69        		.byte	0x69
 1002 000e 93        		.byte	0x93
 1003 000f 01        		.uleb128 0x1
 1004 0010 1000 0000 		.long	.LVL2-.Ltext0
 1005 0014 2E00 0000 		.long	.LVL6-.Ltext0
 1006 0018 0600      		.word	0x6
 1007 001a 62        		.byte	0x62
 1008 001b 93        		.byte	0x93
 1009 001c 01        		.uleb128 0x1
 1010 001d 63        		.byte	0x63
 1011 001e 93        		.byte	0x93
 1012 001f 01        		.uleb128 0x1
 1013 0020 3200 0000 		.long	.LVL7-.Ltext0
 1014 0024 3400 0000 		.long	.LFE5-.Ltext0
 1015 0028 0600      		.word	0x6
 1016 002a 62        		.byte	0x62
 1017 002b 93        		.byte	0x93
 1018 002c 01        		.uleb128 0x1
 1019 002d 63        		.byte	0x63
 1020 002e 93        		.byte	0x93
 1021 002f 01        		.uleb128 0x1
 1022 0030 0000 0000 		.long	0x0
 1023 0034 0000 0000 		.long	0x0
 1024               	.LLST3:
 1025 0038 0600 0000 		.long	.LVL0-.Ltext0
 1026 003c 2E00 0000 		.long	.LVL6-.Ltext0
GAS LISTING C:\Users\ADMINI~1\AppData\Local\Temp/ccPfdrLh.s 			page 19


 1027 0040 0100      		.word	0x1
 1028 0042 66        		.byte	0x66
 1029 0043 3200 0000 		.long	.LVL7-.Ltext0
 1030 0047 3400 0000 		.long	.LFE5-.Ltext0
 1031 004b 0100      		.word	0x1
 1032 004d 66        		.byte	0x66
 1033 004e 0000 0000 		.long	0x0
 1034 0052 0000 0000 		.long	0x0
 1035               	.LLST4:
 1036 0056 0C00 0000 		.long	.LVL1-.Ltext0
 1037 005a 2200 0000 		.long	.LVL3-.Ltext0
 1038 005e 0100      		.word	0x1
 1039 0060 6E        		.byte	0x6e
 1040 0061 2200 0000 		.long	.LVL3-.Ltext0
 1041 0065 2E00 0000 		.long	.LVL6-.Ltext0
 1042 0069 0600      		.word	0x6
 1043 006b 6E        		.byte	0x6e
 1044 006c 93        		.byte	0x93
 1045 006d 01        		.uleb128 0x1
 1046 006e 6F        		.byte	0x6f
 1047 006f 93        		.byte	0x93
 1048 0070 01        		.uleb128 0x1
 1049 0071 3200 0000 		.long	.LVL7-.Ltext0
 1050 0075 3400 0000 		.long	.LFE5-.Ltext0
 1051 0079 0100      		.word	0x1
 1052 007b 6E        		.byte	0x6e
 1053 007c 0000 0000 		.long	0x0
 1054 0080 0000 0000 		.long	0x0
 1055               	.LLST6:
 1056 0084 3400 0000 		.long	.LVL8-.Ltext0
 1057 0088 3800 0000 		.long	.LVL9-.Ltext0
 1058 008c 0100      		.word	0x1
 1059 008e 68        		.byte	0x68
 1060 008f 3800 0000 		.long	.LVL9-.Ltext0
 1061 0093 4600 0000 		.long	.LVL10-.Ltext0
 1062 0097 0100      		.word	0x1
 1063 0099 6E        		.byte	0x6e
 1064 009a 4600 0000 		.long	.LVL10-.Ltext0
 1065 009e 5000 0000 		.long	.LFE8-.Ltext0
 1066 00a2 0600      		.word	0x6
 1067 00a4 6E        		.byte	0x6e
 1068 00a5 93        		.byte	0x93
 1069 00a6 01        		.uleb128 0x1
 1070 00a7 6F        		.byte	0x6f
 1071 00a8 93        		.byte	0x93
 1072 00a9 01        		.uleb128 0x1
 1073 00aa 0000 0000 		.long	0x0
 1074 00ae 0000 0000 		.long	0x0
 1075               	.LLST8:
 1076 00b2 5000 0000 		.long	.LVL13-.Ltext0
 1077 00b6 5600 0000 		.long	.LVL14-.Ltext0
 1078 00ba 0100      		.word	0x1
 1079 00bc 68        		.byte	0x68
 1080 00bd 5600 0000 		.long	.LVL14-.Ltext0
 1081 00c1 BC00 0000 		.long	.LVL16-.Ltext0
 1082 00c5 0100      		.word	0x1
 1083 00c7 69        		.byte	0x69
GAS LISTING C:\Users\ADMINI~1\AppData\Local\Temp/ccPfdrLh.s 			page 20


 1084 00c8 C600 0000 		.long	.LVL17-.Ltext0
 1085 00cc D600 0000 		.long	.LFE7-.Ltext0
 1086 00d0 0100      		.word	0x1
 1087 00d2 69        		.byte	0x69
 1088 00d3 0000 0000 		.long	0x0
 1089 00d7 0000 0000 		.long	0x0
 1090               	.LLST9:
 1091 00db 5000 0000 		.long	.LVL13-.Ltext0
 1092 00df BC00 0000 		.long	.LVL16-.Ltext0
 1093 00e3 0100      		.word	0x1
 1094 00e5 66        		.byte	0x66
 1095 00e6 C600 0000 		.long	.LVL17-.Ltext0
 1096 00ea D600 0000 		.long	.LFE7-.Ltext0
 1097 00ee 0100      		.word	0x1
 1098 00f0 66        		.byte	0x66
 1099 00f1 0000 0000 		.long	0x0
 1100 00f5 0000 0000 		.long	0x0
 1101               	.LLST10:
 1102 00f9 B600 0000 		.long	.LVL15-.Ltext0
 1103 00fd D400 0000 		.long	.LVL18-.Ltext0
 1104 0101 0100      		.word	0x1
 1105 0103 61        		.byte	0x61
 1106 0104 0000 0000 		.long	0x0
 1107 0108 0000 0000 		.long	0x0
 1108               		.section	.debug_info
 1109 0000 2104 0000 		.long	0x421
 1110 0004 0200      		.word	0x2
 1111 0006 0000 0000 		.long	.Ldebug_abbrev0
 1112 000a 04        		.byte	0x4
 1113 000b 01        		.uleb128 0x1
 1114 000c 0000 0000 		.long	.LASF48
 1115 0010 01        		.byte	0x1
 1116 0011 0000 0000 		.long	.LASF49
 1117 0015 0000 0000 		.long	.LASF50
 1118 0019 0000 0000 		.long	.Ltext0
 1119 001d 0000 0000 		.long	.Letext0
 1120 0021 0000 0000 		.long	.Ldebug_line0
 1121 0025 02        		.uleb128 0x2
 1122 0026 01        		.byte	0x1
 1123 0027 06        		.byte	0x6
 1124 0028 0000 0000 		.long	.LASF0
 1125 002c 03        		.uleb128 0x3
 1126 002d 0000 0000 		.long	.LASF2
 1127 0031 02        		.byte	0x2
 1128 0032 7A        		.byte	0x7a
 1129 0033 3700 0000 		.long	0x37
 1130 0037 02        		.uleb128 0x2
 1131 0038 01        		.byte	0x1
 1132 0039 08        		.byte	0x8
 1133 003a 0000 0000 		.long	.LASF1
 1134 003e 04        		.uleb128 0x4
 1135 003f 02        		.byte	0x2
 1136 0040 05        		.byte	0x5
 1137 0041 696E 7400 		.string	"int"
 1138 0045 03        		.uleb128 0x3
 1139 0046 0000 0000 		.long	.LASF3
 1140 004a 02        		.byte	0x2
GAS LISTING C:\Users\ADMINI~1\AppData\Local\Temp/ccPfdrLh.s 			page 21


 1141 004b 7C        		.byte	0x7c
 1142 004c 5000 0000 		.long	0x50
 1143 0050 02        		.uleb128 0x2
 1144 0051 02        		.byte	0x2
 1145 0052 07        		.byte	0x7
 1146 0053 0000 0000 		.long	.LASF4
 1147 0057 02        		.uleb128 0x2
 1148 0058 04        		.byte	0x4
 1149 0059 05        		.byte	0x5
 1150 005a 0000 0000 		.long	.LASF5
 1151 005e 02        		.uleb128 0x2
 1152 005f 04        		.byte	0x4
 1153 0060 07        		.byte	0x7
 1154 0061 0000 0000 		.long	.LASF6
 1155 0065 02        		.uleb128 0x2
 1156 0066 08        		.byte	0x8
 1157 0067 05        		.byte	0x5
 1158 0068 0000 0000 		.long	.LASF7
 1159 006c 02        		.uleb128 0x2
 1160 006d 08        		.byte	0x8
 1161 006e 07        		.byte	0x7
 1162 006f 0000 0000 		.long	.LASF8
 1163 0073 05        		.uleb128 0x5
 1164 0074 01        		.byte	0x1
 1165 0075 06        		.byte	0x6
 1166 0076 05        		.uleb128 0x5
 1167 0077 01        		.byte	0x1
 1168 0078 08        		.byte	0x8
 1169 0079 06        		.uleb128 0x6
 1170 007a 02        		.byte	0x2
 1171 007b 03        		.byte	0x3
 1172 007c 1A        		.byte	0x1a
 1173 007d 0001 0000 		.long	0x100
 1174 0081 07        		.uleb128 0x7
 1175 0082 0000 0000 		.long	.LASF9
 1176 0086 D501      		.sleb128 213
 1177 0088 07        		.uleb128 0x7
 1178 0089 0000 0000 		.long	.LASF10
 1179 008d D601      		.sleb128 214
 1180 008f 07        		.uleb128 0x7
 1181 0090 0000 0000 		.long	.LASF11
 1182 0094 D701      		.sleb128 215
 1183 0096 07        		.uleb128 0x7
 1184 0097 0000 0000 		.long	.LASF12
 1185 009b D801      		.sleb128 216
 1186 009d 07        		.uleb128 0x7
 1187 009e 0000 0000 		.long	.LASF13
 1188 00a2 D901      		.sleb128 217
 1189 00a4 07        		.uleb128 0x7
 1190 00a5 0000 0000 		.long	.LASF14
 1191 00a9 DA01      		.sleb128 218
 1192 00ab 07        		.uleb128 0x7
 1193 00ac 0000 0000 		.long	.LASF15
 1194 00b0 DB01      		.sleb128 219
 1195 00b2 07        		.uleb128 0x7
 1196 00b3 0000 0000 		.long	.LASF16
 1197 00b7 DC01      		.sleb128 220
GAS LISTING C:\Users\ADMINI~1\AppData\Local\Temp/ccPfdrLh.s 			page 22


 1198 00b9 07        		.uleb128 0x7
 1199 00ba 0000 0000 		.long	.LASF17
 1200 00be DD01      		.sleb128 221
 1201 00c0 07        		.uleb128 0x7
 1202 00c1 0000 0000 		.long	.LASF18
 1203 00c5 DE01      		.sleb128 222
 1204 00c7 07        		.uleb128 0x7
 1205 00c8 0000 0000 		.long	.LASF19
 1206 00cc DF01      		.sleb128 223
 1207 00ce 07        		.uleb128 0x7
 1208 00cf 0000 0000 		.long	.LASF20
 1209 00d3 E001      		.sleb128 224
 1210 00d5 07        		.uleb128 0x7
 1211 00d6 0000 0000 		.long	.LASF21
 1212 00da E101      		.sleb128 225
 1213 00dc 07        		.uleb128 0x7
 1214 00dd 0000 0000 		.long	.LASF22
 1215 00e1 E201      		.sleb128 226
 1216 00e3 07        		.uleb128 0x7
 1217 00e4 0000 0000 		.long	.LASF23
 1218 00e8 E301      		.sleb128 227
 1219 00ea 07        		.uleb128 0x7
 1220 00eb 0000 0000 		.long	.LASF24
 1221 00ef E401      		.sleb128 228
 1222 00f1 07        		.uleb128 0x7
 1223 00f2 0000 0000 		.long	.LASF25
 1224 00f6 E501      		.sleb128 229
 1225 00f8 07        		.uleb128 0x7
 1226 00f9 0000 0000 		.long	.LASF26
 1227 00fd E601      		.sleb128 230
 1228 00ff 00        		.byte	0x0
 1229 0100 02        		.uleb128 0x2
 1230 0101 01        		.byte	0x1
 1231 0102 06        		.byte	0x6
 1232 0103 0000 0000 		.long	.LASF27
 1233 0107 08        		.uleb128 0x8
 1234 0108 01        		.byte	0x1
 1235 0109 0000 0000 		.long	.LASF51
 1236 010d 01        		.byte	0x1
 1237 010e 36        		.byte	0x36
 1238 010f 01        		.byte	0x1
 1239 0110 2C00 0000 		.long	0x2c
 1240 0114 01        		.byte	0x1
 1241 0115 09        		.uleb128 0x9
 1242 0116 01        		.byte	0x1
 1243 0117 0000 0000 		.long	.LASF52
 1244 011b 01        		.byte	0x1
 1245 011c 6D        		.byte	0x6d
 1246 011d 01        		.byte	0x1
 1247 011e 2C00 0000 		.long	0x2c
 1248 0122 01        		.byte	0x1
 1249 0123 3401 0000 		.long	0x134
 1250 0127 0A        		.uleb128 0xa
 1251 0128 0000 0000 		.long	.LASF53
 1252 012c 01        		.byte	0x1
 1253 012d 6D        		.byte	0x6d
 1254 012e 2C00 0000 		.long	0x2c
GAS LISTING C:\Users\ADMINI~1\AppData\Local\Temp/ccPfdrLh.s 			page 23


 1255 0132 0B        		.uleb128 0xb
 1256 0133 00        		.byte	0x0
 1257 0134 0C        		.uleb128 0xc
 1258 0135 0000 0000 		.long	.LASF54
 1259 0139 01        		.byte	0x1
 1260 013a 44        		.byte	0x44
 1261 013b 01        		.byte	0x1
 1262 013c 01        		.byte	0x1
 1263 013d 5401 0000 		.long	0x154
 1264 0141 0D        		.uleb128 0xd
 1265 0142 5201 0000 		.long	0x152
 1266 0146 0E        		.uleb128 0xe
 1267 0147 0000 0000 		.long	.LASF55
 1268 014b 01        		.byte	0x1
 1269 014c 4A        		.byte	0x4a
 1270 014d 2C00 0000 		.long	0x2c
 1271 0151 00        		.byte	0x0
 1272 0152 0B        		.uleb128 0xb
 1273 0153 00        		.byte	0x0
 1274 0154 0F        		.uleb128 0xf
 1275 0155 0701 0000 		.long	0x107
 1276 0159 0000 0000 		.long	.LFB4
 1277 015d 0000 0000 		.long	.LFE4
 1278 0161 02        		.byte	0x2
 1279 0162 90        		.byte	0x90
 1280 0163 20        		.uleb128 0x20
 1281 0164 10        		.uleb128 0x10
 1282 0165 01        		.byte	0x1
 1283 0166 0000 0000 		.long	.LASF30
 1284 016a 01        		.byte	0x1
 1285 016b 3C        		.byte	0x3c
 1286 016c 01        		.byte	0x1
 1287 016d 0000 0000 		.long	.LFB5
 1288 0171 0000 0000 		.long	.LFE5
 1289 0175 02        		.byte	0x2
 1290 0176 90        		.byte	0x90
 1291 0177 20        		.uleb128 0x20
 1292 0178 B401 0000 		.long	0x1b4
 1293 017c 11        		.uleb128 0x11
 1294 017d 0000 0000 		.long	.LASF28
 1295 0181 01        		.byte	0x1
 1296 0182 3C        		.byte	0x3c
 1297 0183 C501 0000 		.long	0x1c5
 1298 0187 0000 0000 		.long	.LLST2
 1299 018b 11        		.uleb128 0x11
 1300 018c 0000 0000 		.long	.LASF29
 1301 0190 01        		.byte	0x1
 1302 0191 3C        		.byte	0x3c
 1303 0192 2C00 0000 		.long	0x2c
 1304 0196 0000 0000 		.long	.LLST3
 1305 019a 12        		.uleb128 0x12
 1306 019b 1501 0000 		.long	0x115
 1307 019f 0000 0000 		.long	.LBB18
 1308 01a3 0000 0000 		.long	.LBE18
 1309 01a7 01        		.byte	0x1
 1310 01a8 3F        		.byte	0x3f
 1311 01a9 13        		.uleb128 0x13
GAS LISTING C:\Users\ADMINI~1\AppData\Local\Temp/ccPfdrLh.s 			page 24


 1312 01aa 2701 0000 		.long	0x127
 1313 01ae 0000 0000 		.long	.LLST4
 1314 01b2 00        		.byte	0x0
 1315 01b3 00        		.byte	0x0
 1316 01b4 14        		.uleb128 0x14
 1317 01b5 01        		.byte	0x1
 1318 01b6 C501 0000 		.long	0x1c5
 1319 01ba 15        		.uleb128 0x15
 1320 01bb 2C00 0000 		.long	0x2c
 1321 01bf 15        		.uleb128 0x15
 1322 01c0 2C00 0000 		.long	0x2c
 1323 01c4 00        		.byte	0x0
 1324 01c5 16        		.uleb128 0x16
 1325 01c6 02        		.byte	0x2
 1326 01c7 B401 0000 		.long	0x1b4
 1327 01cb 17        		.uleb128 0x17
 1328 01cc 1501 0000 		.long	0x115
 1329 01d0 0000 0000 		.long	.LFB8
 1330 01d4 0000 0000 		.long	.LFE8
 1331 01d8 02        		.byte	0x2
 1332 01d9 90        		.byte	0x90
 1333 01da 20        		.uleb128 0x20
 1334 01db E901 0000 		.long	0x1e9
 1335 01df 13        		.uleb128 0x13
 1336 01e0 2701 0000 		.long	0x127
 1337 01e4 0000 0000 		.long	.LLST6
 1338 01e8 00        		.byte	0x0
 1339 01e9 10        		.uleb128 0x10
 1340 01ea 01        		.byte	0x1
 1341 01eb 0000 0000 		.long	.LASF31
 1342 01ef 01        		.byte	0x1
 1343 01f0 53        		.byte	0x53
 1344 01f1 01        		.byte	0x1
 1345 01f2 0000 0000 		.long	.LFB7
 1346 01f6 0000 0000 		.long	.LFE7
 1347 01fa 02        		.byte	0x2
 1348 01fb 90        		.byte	0x90
 1349 01fc 20        		.uleb128 0x20
 1350 01fd 4302 0000 		.long	0x243
 1351 0201 11        		.uleb128 0x11
 1352 0202 0000 0000 		.long	.LASF32
 1353 0206 01        		.byte	0x1
 1354 0207 53        		.byte	0x53
 1355 0208 2C00 0000 		.long	0x2c
 1356 020c 0000 0000 		.long	.LLST8
 1357 0210 11        		.uleb128 0x11
 1358 0211 0000 0000 		.long	.LASF29
 1359 0215 01        		.byte	0x1
 1360 0216 53        		.byte	0x53
 1361 0217 2C00 0000 		.long	0x2c
 1362 021b 0000 0000 		.long	.LLST9
 1363 021f 12        		.uleb128 0x12
 1364 0220 3401 0000 		.long	0x134
 1365 0224 0000 0000 		.long	.LBB20
 1366 0228 0000 0000 		.long	.LBE20
 1367 022c 01        		.byte	0x1
 1368 022d 68        		.byte	0x68
GAS LISTING C:\Users\ADMINI~1\AppData\Local\Temp/ccPfdrLh.s 			page 25


 1369 022e 18        		.uleb128 0x18
 1370 022f 0000 0000 		.long	.LBB22
 1371 0233 0000 0000 		.long	.LBE22
 1372 0237 19        		.uleb128 0x19
 1373 0238 4601 0000 		.long	0x146
 1374 023c 0000 0000 		.long	.LLST10
 1375 0240 00        		.byte	0x0
 1376 0241 00        		.byte	0x0
 1377 0242 00        		.byte	0x0
 1378 0243 1A        		.uleb128 0x1a
 1379 0244 0000 0000 		.long	.LASF33
 1380 0248 01        		.byte	0x1
 1381 0249 32        		.byte	0x32
 1382 024a 2C00 0000 		.long	0x2c
 1383 024e 05        		.byte	0x5
 1384 024f 03        		.byte	0x3
 1385 0250 0000 0000 		.long	_dualActionCount
 1386 0254 1A        		.uleb128 0x1a
 1387 0255 0000 0000 		.long	.LASF34
 1388 0259 01        		.byte	0x1
 1389 025a 34        		.byte	0x34
 1390 025b 2C00 0000 		.long	0x2c
 1391 025f 05        		.byte	0x5
 1392 0260 03        		.byte	0x3
 1393 0261 0000 0000 		.long	_isCanceledDualAction
 1394 0265 1A        		.uleb128 0x1a
 1395 0266 0000 0000 		.long	.LASF35
 1396 026a 01        		.byte	0x1
 1397 026b 3A        		.byte	0x3a
 1398 026c 2C00 0000 		.long	0x2c
 1399 0270 05        		.byte	0x5
 1400 0271 03        		.byte	0x3
 1401 0272 0000 0000 		.long	_isActiveDualAction
 1402 0276 1B        		.uleb128 0x1b
 1403 0277 2C00 0000 		.long	0x2c
 1404 027b 8602 0000 		.long	0x286
 1405 027f 1C        		.uleb128 0x1c
 1406 0280 8602 0000 		.long	0x286
 1407 0284 8F        		.byte	0x8f
 1408 0285 00        		.byte	0x0
 1409 0286 05        		.uleb128 0x5
 1410 0287 02        		.byte	0x2
 1411 0288 07        		.byte	0x7
 1412 0289 1D        		.uleb128 0x1d
 1413 028a 0000 0000 		.long	.LASF36
 1414 028e 01        		.byte	0x1
 1415 028f 75        		.byte	0x75
 1416 0290 9B02 0000 		.long	0x29b
 1417 0294 01        		.byte	0x1
 1418 0295 05        		.byte	0x5
 1419 0296 03        		.byte	0x3
 1420 0297 0000 0000 		.long	keycode_set2
 1421 029b 1E        		.uleb128 0x1e
 1422 029c 7602 0000 		.long	0x276
 1423 02a0 1B        		.uleb128 0x1b
 1424 02a1 4500 0000 		.long	0x45
 1425 02a5 B002 0000 		.long	0x2b0
GAS LISTING C:\Users\ADMINI~1\AppData\Local\Temp/ccPfdrLh.s 			page 26


 1426 02a9 1C        		.uleb128 0x1c
 1427 02aa 8602 0000 		.long	0x286
 1428 02ae 19        		.byte	0x19
 1429 02af 00        		.byte	0x0
 1430 02b0 1D        		.uleb128 0x1d
 1431 02b1 0000 0000 		.long	.LASF37
 1432 02b5 01        		.byte	0x1
 1433 02b6 98        		.byte	0x98
 1434 02b7 C202 0000 		.long	0x2c2
 1435 02bb 01        		.byte	0x1
 1436 02bc 05        		.byte	0x5
 1437 02bd 03        		.byte	0x3
 1438 02be 0000 0000 		.long	keycode_USB_multimedia
 1439 02c2 1E        		.uleb128 0x1e
 1440 02c3 A002 0000 		.long	0x2a0
 1441 02c7 1B        		.uleb128 0x1b
 1442 02c8 4500 0000 		.long	0x45
 1443 02cc D702 0000 		.long	0x2d7
 1444 02d0 1C        		.uleb128 0x1c
 1445 02d1 8602 0000 		.long	0x286
 1446 02d5 01        		.byte	0x1
 1447 02d6 00        		.byte	0x0
 1448 02d7 1D        		.uleb128 0x1d
 1449 02d8 0000 0000 		.long	.LASF38
 1450 02dc 01        		.byte	0x1
 1451 02dd 9F        		.byte	0x9f
 1452 02de E902 0000 		.long	0x2e9
 1453 02e2 01        		.byte	0x1
 1454 02e3 05        		.byte	0x5
 1455 02e4 03        		.byte	0x3
 1456 02e5 0000 0000 		.long	keycode_USB_extend
 1457 02e9 1E        		.uleb128 0x1e
 1458 02ea C702 0000 		.long	0x2c7
 1459 02ee 1B        		.uleb128 0x1b
 1460 02ef 2C00 0000 		.long	0x2c
 1461 02f3 FE02 0000 		.long	0x2fe
 1462 02f7 1C        		.uleb128 0x1c
 1463 02f8 8602 0000 		.long	0x286
 1464 02fc 02        		.byte	0x2
 1465 02fd 00        		.byte	0x0
 1466 02fe 1D        		.uleb128 0x1d
 1467 02ff 0000 0000 		.long	.LASF39
 1468 0303 01        		.byte	0x1
 1469 0304 A4        		.byte	0xa4
 1470 0305 1003 0000 		.long	0x310
 1471 0309 01        		.byte	0x1
 1472 030a 05        		.byte	0x5
 1473 030b 03        		.byte	0x3
 1474 030c 0000 0000 		.long	keycode_set2_special
 1475 0310 1E        		.uleb128 0x1e
 1476 0311 EE02 0000 		.long	0x2ee
 1477 0315 1B        		.uleb128 0x1b
 1478 0316 2C00 0000 		.long	0x2c
 1479 031a 2503 0000 		.long	0x325
 1480 031e 1C        		.uleb128 0x1c
 1481 031f 8602 0000 		.long	0x286
 1482 0323 03        		.byte	0x3
GAS LISTING C:\Users\ADMINI~1\AppData\Local\Temp/ccPfdrLh.s 			page 27


 1483 0324 00        		.byte	0x0
 1484 0325 1D        		.uleb128 0x1d
 1485 0326 0000 0000 		.long	.LASF40
 1486 032a 01        		.byte	0x1
 1487 032b A8        		.byte	0xa8
 1488 032c 3703 0000 		.long	0x337
 1489 0330 01        		.byte	0x1
 1490 0331 05        		.byte	0x5
 1491 0332 03        		.byte	0x3
 1492 0333 0000 0000 		.long	keycode_set2_makeonly
 1493 0337 1E        		.uleb128 0x1e
 1494 0338 1503 0000 		.long	0x315
 1495 033c 1D        		.uleb128 0x1d
 1496 033d 0000 0000 		.long	.LASF41
 1497 0341 01        		.byte	0x1
 1498 0342 AC        		.byte	0xac
 1499 0343 4E03 0000 		.long	0x34e
 1500 0347 01        		.byte	0x1
 1501 0348 05        		.byte	0x5
 1502 0349 03        		.byte	0x3
 1503 034a 0000 0000 		.long	keycode_set2_make_break
 1504 034e 1E        		.uleb128 0x1e
 1505 034f 1503 0000 		.long	0x315
 1506 0353 1B        		.uleb128 0x1b
 1507 0354 2C00 0000 		.long	0x2c
 1508 0358 6303 0000 		.long	0x363
 1509 035c 1C        		.uleb128 0x1c
 1510 035d 8602 0000 		.long	0x286
 1511 0361 2C        		.byte	0x2c
 1512 0362 00        		.byte	0x0
 1513 0363 1D        		.uleb128 0x1d
 1514 0364 0000 0000 		.long	.LASF42
 1515 0368 01        		.byte	0x1
 1516 0369 B0        		.byte	0xb0
 1517 036a 7503 0000 		.long	0x375
 1518 036e 01        		.byte	0x1
 1519 036f 05        		.byte	0x5
 1520 0370 03        		.byte	0x3
 1521 0371 0000 0000 		.long	keycode_set2_extend
 1522 0375 1E        		.uleb128 0x1e
 1523 0376 5303 0000 		.long	0x353
 1524 037a 1B        		.uleb128 0x1b
 1525 037b 2C00 0000 		.long	0x2c
 1526 037f 8A03 0000 		.long	0x38a
 1527 0383 1C        		.uleb128 0x1c
 1528 0384 8602 0000 		.long	0x286
 1529 0388 0E        		.byte	0xe
 1530 0389 00        		.byte	0x0
 1531 038a 1D        		.uleb128 0x1d
 1532 038b 0000 0000 		.long	.LASF43
 1533 038f 01        		.byte	0x1
 1534 0390 BB        		.byte	0xbb
 1535 0391 9C03 0000 		.long	0x39c
 1536 0395 01        		.byte	0x1
 1537 0396 05        		.byte	0x5
 1538 0397 03        		.byte	0x3
 1539 0398 0000 0000 		.long	keycode_set2_proc_shift
GAS LISTING C:\Users\ADMINI~1\AppData\Local\Temp/ccPfdrLh.s 			page 28


 1540 039c 1E        		.uleb128 0x1e
 1541 039d 7A03 0000 		.long	0x37a
 1542 03a1 1B        		.uleb128 0x1b
 1543 03a2 2C00 0000 		.long	0x2c
 1544 03a6 BD03 0000 		.long	0x3bd
 1545 03aa 1C        		.uleb128 0x1c
 1546 03ab 8602 0000 		.long	0x286
 1547 03af 02        		.byte	0x2
 1548 03b0 1C        		.uleb128 0x1c
 1549 03b1 8602 0000 		.long	0x286
 1550 03b5 10        		.byte	0x10
 1551 03b6 1C        		.uleb128 0x1c
 1552 03b7 8602 0000 		.long	0x286
 1553 03bb 07        		.byte	0x7
 1554 03bc 00        		.byte	0x0
 1555 03bd 1D        		.uleb128 0x1d
 1556 03be 0000 0000 		.long	.LASF44
 1557 03c2 01        		.byte	0x1
 1558 03c3 C2        		.byte	0xc2
 1559 03c4 CF03 0000 		.long	0x3cf
 1560 03c8 01        		.byte	0x1
 1561 03c9 05        		.byte	0x5
 1562 03ca 03        		.byte	0x3
 1563 03cb 0000 0000 		.long	keymap_code
 1564 03cf 1E        		.uleb128 0x1e
 1565 03d0 A103 0000 		.long	0x3a1
 1566 03d4 1D        		.uleb128 0x1d
 1567 03d5 0000 0000 		.long	.LASF45
 1568 03d9 01        		.byte	0x1
 1569 03da 33        		.byte	0x33
 1570 03db 2C00 0000 		.long	0x2c
 1571 03df 01        		.byte	0x1
 1572 03e0 05        		.byte	0x5
 1573 03e1 03        		.byte	0x3
 1574 03e2 0000 0000 		.long	dualActionKeyIndex
 1575 03e6 1B        		.uleb128 0x1b
 1576 03e7 2C00 0000 		.long	0x2c
 1577 03eb F603 0000 		.long	0x3f6
 1578 03ef 1C        		.uleb128 0x1c
 1579 03f0 8602 0000 		.long	0x286
 1580 03f4 0F        		.byte	0xf
 1581 03f5 00        		.byte	0x0
 1582 03f6 1D        		.uleb128 0x1d
 1583 03f7 0000 0000 		.long	.LASF46
 1584 03fb 01        		.byte	0x1
 1585 03fc 0D        		.byte	0xd
 1586 03fd 0804 0000 		.long	0x408
 1587 0401 01        		.byte	0x1
 1588 0402 05        		.byte	0x5
 1589 0403 03        		.byte	0x3
 1590 0404 0000 0000 		.long	dualActionMaskDown
 1591 0408 1E        		.uleb128 0x1e
 1592 0409 E603 0000 		.long	0x3e6
 1593 040d 1D        		.uleb128 0x1d
 1594 040e 0000 0000 		.long	.LASF47
 1595 0412 01        		.byte	0x1
 1596 0413 1F        		.byte	0x1f
GAS LISTING C:\Users\ADMINI~1\AppData\Local\Temp/ccPfdrLh.s 			page 29


 1597 0414 1F04 0000 		.long	0x41f
 1598 0418 01        		.byte	0x1
 1599 0419 05        		.byte	0x5
 1600 041a 03        		.byte	0x3
 1601 041b 0000 0000 		.long	dualActionMaskUp
 1602 041f 1E        		.uleb128 0x1e
 1603 0420 E603 0000 		.long	0x3e6
 1604 0424 00        		.byte	0x0
 1605               		.section	.debug_abbrev
 1606 0000 01        		.uleb128 0x1
 1607 0001 11        		.uleb128 0x11
 1608 0002 01        		.byte	0x1
 1609 0003 25        		.uleb128 0x25
 1610 0004 0E        		.uleb128 0xe
 1611 0005 13        		.uleb128 0x13
 1612 0006 0B        		.uleb128 0xb
 1613 0007 03        		.uleb128 0x3
 1614 0008 0E        		.uleb128 0xe
 1615 0009 1B        		.uleb128 0x1b
 1616 000a 0E        		.uleb128 0xe
 1617 000b 11        		.uleb128 0x11
 1618 000c 01        		.uleb128 0x1
 1619 000d 12        		.uleb128 0x12
 1620 000e 01        		.uleb128 0x1
 1621 000f 10        		.uleb128 0x10
 1622 0010 06        		.uleb128 0x6
 1623 0011 00        		.byte	0x0
 1624 0012 00        		.byte	0x0
 1625 0013 02        		.uleb128 0x2
 1626 0014 24        		.uleb128 0x24
 1627 0015 00        		.byte	0x0
 1628 0016 0B        		.uleb128 0xb
 1629 0017 0B        		.uleb128 0xb
 1630 0018 3E        		.uleb128 0x3e
 1631 0019 0B        		.uleb128 0xb
 1632 001a 03        		.uleb128 0x3
 1633 001b 0E        		.uleb128 0xe
 1634 001c 00        		.byte	0x0
 1635 001d 00        		.byte	0x0
 1636 001e 03        		.uleb128 0x3
 1637 001f 16        		.uleb128 0x16
 1638 0020 00        		.byte	0x0
 1639 0021 03        		.uleb128 0x3
 1640 0022 0E        		.uleb128 0xe
 1641 0023 3A        		.uleb128 0x3a
 1642 0024 0B        		.uleb128 0xb
 1643 0025 3B        		.uleb128 0x3b
 1644 0026 0B        		.uleb128 0xb
 1645 0027 49        		.uleb128 0x49
 1646 0028 13        		.uleb128 0x13
 1647 0029 00        		.byte	0x0
 1648 002a 00        		.byte	0x0
 1649 002b 04        		.uleb128 0x4
 1650 002c 24        		.uleb128 0x24
 1651 002d 00        		.byte	0x0
 1652 002e 0B        		.uleb128 0xb
 1653 002f 0B        		.uleb128 0xb
GAS LISTING C:\Users\ADMINI~1\AppData\Local\Temp/ccPfdrLh.s 			page 30


 1654 0030 3E        		.uleb128 0x3e
 1655 0031 0B        		.uleb128 0xb
 1656 0032 03        		.uleb128 0x3
 1657 0033 08        		.uleb128 0x8
 1658 0034 00        		.byte	0x0
 1659 0035 00        		.byte	0x0
 1660 0036 05        		.uleb128 0x5
 1661 0037 24        		.uleb128 0x24
 1662 0038 00        		.byte	0x0
 1663 0039 0B        		.uleb128 0xb
 1664 003a 0B        		.uleb128 0xb
 1665 003b 3E        		.uleb128 0x3e
 1666 003c 0B        		.uleb128 0xb
 1667 003d 00        		.byte	0x0
 1668 003e 00        		.byte	0x0
 1669 003f 06        		.uleb128 0x6
 1670 0040 04        		.uleb128 0x4
 1671 0041 01        		.byte	0x1
 1672 0042 0B        		.uleb128 0xb
 1673 0043 0B        		.uleb128 0xb
 1674 0044 3A        		.uleb128 0x3a
 1675 0045 0B        		.uleb128 0xb
 1676 0046 3B        		.uleb128 0x3b
 1677 0047 0B        		.uleb128 0xb
 1678 0048 01        		.uleb128 0x1
 1679 0049 13        		.uleb128 0x13
 1680 004a 00        		.byte	0x0
 1681 004b 00        		.byte	0x0
 1682 004c 07        		.uleb128 0x7
 1683 004d 28        		.uleb128 0x28
 1684 004e 00        		.byte	0x0
 1685 004f 03        		.uleb128 0x3
 1686 0050 0E        		.uleb128 0xe
 1687 0051 1C        		.uleb128 0x1c
 1688 0052 0D        		.uleb128 0xd
 1689 0053 00        		.byte	0x0
 1690 0054 00        		.byte	0x0
 1691 0055 08        		.uleb128 0x8
 1692 0056 2E        		.uleb128 0x2e
 1693 0057 00        		.byte	0x0
 1694 0058 3F        		.uleb128 0x3f
 1695 0059 0C        		.uleb128 0xc
 1696 005a 03        		.uleb128 0x3
 1697 005b 0E        		.uleb128 0xe
 1698 005c 3A        		.uleb128 0x3a
 1699 005d 0B        		.uleb128 0xb
 1700 005e 3B        		.uleb128 0x3b
 1701 005f 0B        		.uleb128 0xb
 1702 0060 27        		.uleb128 0x27
 1703 0061 0C        		.uleb128 0xc
 1704 0062 49        		.uleb128 0x49
 1705 0063 13        		.uleb128 0x13
 1706 0064 20        		.uleb128 0x20
 1707 0065 0B        		.uleb128 0xb
 1708 0066 00        		.byte	0x0
 1709 0067 00        		.byte	0x0
 1710 0068 09        		.uleb128 0x9
GAS LISTING C:\Users\ADMINI~1\AppData\Local\Temp/ccPfdrLh.s 			page 31


 1711 0069 2E        		.uleb128 0x2e
 1712 006a 01        		.byte	0x1
 1713 006b 3F        		.uleb128 0x3f
 1714 006c 0C        		.uleb128 0xc
 1715 006d 03        		.uleb128 0x3
 1716 006e 0E        		.uleb128 0xe
 1717 006f 3A        		.uleb128 0x3a
 1718 0070 0B        		.uleb128 0xb
 1719 0071 3B        		.uleb128 0x3b
 1720 0072 0B        		.uleb128 0xb
 1721 0073 27        		.uleb128 0x27
 1722 0074 0C        		.uleb128 0xc
 1723 0075 49        		.uleb128 0x49
 1724 0076 13        		.uleb128 0x13
 1725 0077 20        		.uleb128 0x20
 1726 0078 0B        		.uleb128 0xb
 1727 0079 01        		.uleb128 0x1
 1728 007a 13        		.uleb128 0x13
 1729 007b 00        		.byte	0x0
 1730 007c 00        		.byte	0x0
 1731 007d 0A        		.uleb128 0xa
 1732 007e 05        		.uleb128 0x5
 1733 007f 00        		.byte	0x0
 1734 0080 03        		.uleb128 0x3
 1735 0081 0E        		.uleb128 0xe
 1736 0082 3A        		.uleb128 0x3a
 1737 0083 0B        		.uleb128 0xb
 1738 0084 3B        		.uleb128 0x3b
 1739 0085 0B        		.uleb128 0xb
 1740 0086 49        		.uleb128 0x49
 1741 0087 13        		.uleb128 0x13
 1742 0088 00        		.byte	0x0
 1743 0089 00        		.byte	0x0
 1744 008a 0B        		.uleb128 0xb
 1745 008b 0B        		.uleb128 0xb
 1746 008c 00        		.byte	0x0
 1747 008d 00        		.byte	0x0
 1748 008e 00        		.byte	0x0
 1749 008f 0C        		.uleb128 0xc
 1750 0090 2E        		.uleb128 0x2e
 1751 0091 01        		.byte	0x1
 1752 0092 03        		.uleb128 0x3
 1753 0093 0E        		.uleb128 0xe
 1754 0094 3A        		.uleb128 0x3a
 1755 0095 0B        		.uleb128 0xb
 1756 0096 3B        		.uleb128 0x3b
 1757 0097 0B        		.uleb128 0xb
 1758 0098 27        		.uleb128 0x27
 1759 0099 0C        		.uleb128 0xc
 1760 009a 20        		.uleb128 0x20
 1761 009b 0B        		.uleb128 0xb
 1762 009c 01        		.uleb128 0x1
 1763 009d 13        		.uleb128 0x13
 1764 009e 00        		.byte	0x0
 1765 009f 00        		.byte	0x0
 1766 00a0 0D        		.uleb128 0xd
 1767 00a1 0B        		.uleb128 0xb
GAS LISTING C:\Users\ADMINI~1\AppData\Local\Temp/ccPfdrLh.s 			page 32


 1768 00a2 01        		.byte	0x1
 1769 00a3 01        		.uleb128 0x1
 1770 00a4 13        		.uleb128 0x13
 1771 00a5 00        		.byte	0x0
 1772 00a6 00        		.byte	0x0
 1773 00a7 0E        		.uleb128 0xe
 1774 00a8 34        		.uleb128 0x34
 1775 00a9 00        		.byte	0x0
 1776 00aa 03        		.uleb128 0x3
 1777 00ab 0E        		.uleb128 0xe
 1778 00ac 3A        		.uleb128 0x3a
 1779 00ad 0B        		.uleb128 0xb
 1780 00ae 3B        		.uleb128 0x3b
 1781 00af 0B        		.uleb128 0xb
 1782 00b0 49        		.uleb128 0x49
 1783 00b1 13        		.uleb128 0x13
 1784 00b2 00        		.byte	0x0
 1785 00b3 00        		.byte	0x0
 1786 00b4 0F        		.uleb128 0xf
 1787 00b5 2E        		.uleb128 0x2e
 1788 00b6 00        		.byte	0x0
 1789 00b7 31        		.uleb128 0x31
 1790 00b8 13        		.uleb128 0x13
 1791 00b9 11        		.uleb128 0x11
 1792 00ba 01        		.uleb128 0x1
 1793 00bb 12        		.uleb128 0x12
 1794 00bc 01        		.uleb128 0x1
 1795 00bd 40        		.uleb128 0x40
 1796 00be 0A        		.uleb128 0xa
 1797 00bf 00        		.byte	0x0
 1798 00c0 00        		.byte	0x0
 1799 00c1 10        		.uleb128 0x10
 1800 00c2 2E        		.uleb128 0x2e
 1801 00c3 01        		.byte	0x1
 1802 00c4 3F        		.uleb128 0x3f
 1803 00c5 0C        		.uleb128 0xc
 1804 00c6 03        		.uleb128 0x3
 1805 00c7 0E        		.uleb128 0xe
 1806 00c8 3A        		.uleb128 0x3a
 1807 00c9 0B        		.uleb128 0xb
 1808 00ca 3B        		.uleb128 0x3b
 1809 00cb 0B        		.uleb128 0xb
 1810 00cc 27        		.uleb128 0x27
 1811 00cd 0C        		.uleb128 0xc
 1812 00ce 11        		.uleb128 0x11
 1813 00cf 01        		.uleb128 0x1
 1814 00d0 12        		.uleb128 0x12
 1815 00d1 01        		.uleb128 0x1
 1816 00d2 40        		.uleb128 0x40
 1817 00d3 0A        		.uleb128 0xa
 1818 00d4 01        		.uleb128 0x1
 1819 00d5 13        		.uleb128 0x13
 1820 00d6 00        		.byte	0x0
 1821 00d7 00        		.byte	0x0
 1822 00d8 11        		.uleb128 0x11
 1823 00d9 05        		.uleb128 0x5
 1824 00da 00        		.byte	0x0
GAS LISTING C:\Users\ADMINI~1\AppData\Local\Temp/ccPfdrLh.s 			page 33


 1825 00db 03        		.uleb128 0x3
 1826 00dc 0E        		.uleb128 0xe
 1827 00dd 3A        		.uleb128 0x3a
 1828 00de 0B        		.uleb128 0xb
 1829 00df 3B        		.uleb128 0x3b
 1830 00e0 0B        		.uleb128 0xb
 1831 00e1 49        		.uleb128 0x49
 1832 00e2 13        		.uleb128 0x13
 1833 00e3 02        		.uleb128 0x2
 1834 00e4 06        		.uleb128 0x6
 1835 00e5 00        		.byte	0x0
 1836 00e6 00        		.byte	0x0
 1837 00e7 12        		.uleb128 0x12
 1838 00e8 1D        		.uleb128 0x1d
 1839 00e9 01        		.byte	0x1
 1840 00ea 31        		.uleb128 0x31
 1841 00eb 13        		.uleb128 0x13
 1842 00ec 11        		.uleb128 0x11
 1843 00ed 01        		.uleb128 0x1
 1844 00ee 12        		.uleb128 0x12
 1845 00ef 01        		.uleb128 0x1
 1846 00f0 58        		.uleb128 0x58
 1847 00f1 0B        		.uleb128 0xb
 1848 00f2 59        		.uleb128 0x59
 1849 00f3 0B        		.uleb128 0xb
 1850 00f4 00        		.byte	0x0
 1851 00f5 00        		.byte	0x0
 1852 00f6 13        		.uleb128 0x13
 1853 00f7 05        		.uleb128 0x5
 1854 00f8 00        		.byte	0x0
 1855 00f9 31        		.uleb128 0x31
 1856 00fa 13        		.uleb128 0x13
 1857 00fb 02        		.uleb128 0x2
 1858 00fc 06        		.uleb128 0x6
 1859 00fd 00        		.byte	0x0
 1860 00fe 00        		.byte	0x0
 1861 00ff 14        		.uleb128 0x14
 1862 0100 15        		.uleb128 0x15
 1863 0101 01        		.byte	0x1
 1864 0102 27        		.uleb128 0x27
 1865 0103 0C        		.uleb128 0xc
 1866 0104 01        		.uleb128 0x1
 1867 0105 13        		.uleb128 0x13
 1868 0106 00        		.byte	0x0
 1869 0107 00        		.byte	0x0
 1870 0108 15        		.uleb128 0x15
 1871 0109 05        		.uleb128 0x5
 1872 010a 00        		.byte	0x0
 1873 010b 49        		.uleb128 0x49
 1874 010c 13        		.uleb128 0x13
 1875 010d 00        		.byte	0x0
 1876 010e 00        		.byte	0x0
 1877 010f 16        		.uleb128 0x16
 1878 0110 0F        		.uleb128 0xf
 1879 0111 00        		.byte	0x0
 1880 0112 0B        		.uleb128 0xb
 1881 0113 0B        		.uleb128 0xb
GAS LISTING C:\Users\ADMINI~1\AppData\Local\Temp/ccPfdrLh.s 			page 34


 1882 0114 49        		.uleb128 0x49
 1883 0115 13        		.uleb128 0x13
 1884 0116 00        		.byte	0x0
 1885 0117 00        		.byte	0x0
 1886 0118 17        		.uleb128 0x17
 1887 0119 2E        		.uleb128 0x2e
 1888 011a 01        		.byte	0x1
 1889 011b 31        		.uleb128 0x31
 1890 011c 13        		.uleb128 0x13
 1891 011d 11        		.uleb128 0x11
 1892 011e 01        		.uleb128 0x1
 1893 011f 12        		.uleb128 0x12
 1894 0120 01        		.uleb128 0x1
 1895 0121 40        		.uleb128 0x40
 1896 0122 0A        		.uleb128 0xa
 1897 0123 01        		.uleb128 0x1
 1898 0124 13        		.uleb128 0x13
 1899 0125 00        		.byte	0x0
 1900 0126 00        		.byte	0x0
 1901 0127 18        		.uleb128 0x18
 1902 0128 0B        		.uleb128 0xb
 1903 0129 01        		.byte	0x1
 1904 012a 11        		.uleb128 0x11
 1905 012b 01        		.uleb128 0x1
 1906 012c 12        		.uleb128 0x12
 1907 012d 01        		.uleb128 0x1
 1908 012e 00        		.byte	0x0
 1909 012f 00        		.byte	0x0
 1910 0130 19        		.uleb128 0x19
 1911 0131 34        		.uleb128 0x34
 1912 0132 00        		.byte	0x0
 1913 0133 31        		.uleb128 0x31
 1914 0134 13        		.uleb128 0x13
 1915 0135 02        		.uleb128 0x2
 1916 0136 06        		.uleb128 0x6
 1917 0137 00        		.byte	0x0
 1918 0138 00        		.byte	0x0
 1919 0139 1A        		.uleb128 0x1a
 1920 013a 34        		.uleb128 0x34
 1921 013b 00        		.byte	0x0
 1922 013c 03        		.uleb128 0x3
 1923 013d 0E        		.uleb128 0xe
 1924 013e 3A        		.uleb128 0x3a
 1925 013f 0B        		.uleb128 0xb
 1926 0140 3B        		.uleb128 0x3b
 1927 0141 0B        		.uleb128 0xb
 1928 0142 49        		.uleb128 0x49
 1929 0143 13        		.uleb128 0x13
 1930 0144 02        		.uleb128 0x2
 1931 0145 0A        		.uleb128 0xa
 1932 0146 00        		.byte	0x0
 1933 0147 00        		.byte	0x0
 1934 0148 1B        		.uleb128 0x1b
 1935 0149 01        		.uleb128 0x1
 1936 014a 01        		.byte	0x1
 1937 014b 49        		.uleb128 0x49
 1938 014c 13        		.uleb128 0x13
GAS LISTING C:\Users\ADMINI~1\AppData\Local\Temp/ccPfdrLh.s 			page 35


 1939 014d 01        		.uleb128 0x1
 1940 014e 13        		.uleb128 0x13
 1941 014f 00        		.byte	0x0
 1942 0150 00        		.byte	0x0
 1943 0151 1C        		.uleb128 0x1c
 1944 0152 21        		.uleb128 0x21
 1945 0153 00        		.byte	0x0
 1946 0154 49        		.uleb128 0x49
 1947 0155 13        		.uleb128 0x13
 1948 0156 2F        		.uleb128 0x2f
 1949 0157 0B        		.uleb128 0xb
 1950 0158 00        		.byte	0x0
 1951 0159 00        		.byte	0x0
 1952 015a 1D        		.uleb128 0x1d
 1953 015b 34        		.uleb128 0x34
 1954 015c 00        		.byte	0x0
 1955 015d 03        		.uleb128 0x3
 1956 015e 0E        		.uleb128 0xe
 1957 015f 3A        		.uleb128 0x3a
 1958 0160 0B        		.uleb128 0xb
 1959 0161 3B        		.uleb128 0x3b
 1960 0162 0B        		.uleb128 0xb
 1961 0163 49        		.uleb128 0x49
 1962 0164 13        		.uleb128 0x13
 1963 0165 3F        		.uleb128 0x3f
 1964 0166 0C        		.uleb128 0xc
 1965 0167 02        		.uleb128 0x2
 1966 0168 0A        		.uleb128 0xa
 1967 0169 00        		.byte	0x0
 1968 016a 00        		.byte	0x0
 1969 016b 1E        		.uleb128 0x1e
 1970 016c 26        		.uleb128 0x26
 1971 016d 00        		.byte	0x0
 1972 016e 49        		.uleb128 0x49
 1973 016f 13        		.uleb128 0x13
 1974 0170 00        		.byte	0x0
 1975 0171 00        		.byte	0x0
 1976 0172 00        		.byte	0x0
 1977               		.section	.debug_pubnames,"",@progbits
 1978 0000 8701 0000 		.long	0x187
 1979 0004 0200      		.word	0x2
 1980 0006 0000 0000 		.long	.Ldebug_info0
 1981 000a 2504 0000 		.long	0x425
 1982 000e 5401 0000 		.long	0x154
 1983 0012 6973 4361 		.string	"isCanceledDualAction"
 1983      6E63 656C 
 1983      6564 4475 
 1983      616C 4163 
 1983      7469 6F6E 
 1984 0027 6401 0000 		.long	0x164
 1985 002b 6170 706C 		.string	"applyDualActionDown"
 1985      7944 7561 
 1985      6C41 6374 
 1985      696F 6E44 
 1985      6F77 6E00 
 1986 003f CB01 0000 		.long	0x1cb
 1987 0043 6765 7444 		.string	"getDualActionDownKeyIdex"
GAS LISTING C:\Users\ADMINI~1\AppData\Local\Temp/ccPfdrLh.s 			page 36


 1987      7561 6C41 
 1987      6374 696F 
 1987      6E44 6F77 
 1987      6E4B 6579 
 1988 005c E901 0000 		.long	0x1e9
 1989 0060 7365 7444 		.string	"setDualAction"
 1989      7561 6C41 
 1989      6374 696F 
 1989      6E00 
 1990 006e 8902 0000 		.long	0x289
 1991 0072 6B65 7963 		.string	"keycode_set2"
 1991      6F64 655F 
 1991      7365 7432 
 1991      00
 1992 007f B002 0000 		.long	0x2b0
 1993 0083 6B65 7963 		.string	"keycode_USB_multimedia"
 1993      6F64 655F 
 1993      5553 425F 
 1993      6D75 6C74 
 1993      696D 6564 
 1994 009a D702 0000 		.long	0x2d7
 1995 009e 6B65 7963 		.string	"keycode_USB_extend"
 1995      6F64 655F 
 1995      5553 425F 
 1995      6578 7465 
 1995      6E64 00
 1996 00b1 FE02 0000 		.long	0x2fe
 1997 00b5 6B65 7963 		.string	"keycode_set2_special"
 1997      6F64 655F 
 1997      7365 7432 
 1997      5F73 7065 
 1997      6369 616C 
 1998 00ca 2503 0000 		.long	0x325
 1999 00ce 6B65 7963 		.string	"keycode_set2_makeonly"
 1999      6F64 655F 
 1999      7365 7432 
 1999      5F6D 616B 
 1999      656F 6E6C 
 2000 00e4 3C03 0000 		.long	0x33c
 2001 00e8 6B65 7963 		.string	"keycode_set2_make_break"
 2001      6F64 655F 
 2001      7365 7432 
 2001      5F6D 616B 
 2001      655F 6272 
 2002 0100 6303 0000 		.long	0x363
 2003 0104 6B65 7963 		.string	"keycode_set2_extend"
 2003      6F64 655F 
 2003      7365 7432 
 2003      5F65 7874 
 2003      656E 6400 
 2004 0118 8A03 0000 		.long	0x38a
 2005 011c 6B65 7963 		.string	"keycode_set2_proc_shift"
 2005      6F64 655F 
 2005      7365 7432 
 2005      5F70 726F 
 2005      635F 7368 
 2006 0134 BD03 0000 		.long	0x3bd
GAS LISTING C:\Users\ADMINI~1\AppData\Local\Temp/ccPfdrLh.s 			page 37


 2007 0138 6B65 796D 		.string	"keymap_code"
 2007      6170 5F63 
 2007      6F64 6500 
 2008 0144 D403 0000 		.long	0x3d4
 2009 0148 6475 616C 		.string	"dualActionKeyIndex"
 2009      4163 7469 
 2009      6F6E 4B65 
 2009      7949 6E64 
 2009      6578 00
 2010 015b F603 0000 		.long	0x3f6
 2011 015f 6475 616C 		.string	"dualActionMaskDown"
 2011      4163 7469 
 2011      6F6E 4D61 
 2011      736B 446F 
 2011      776E 00
 2012 0172 0D04 0000 		.long	0x40d
 2013 0176 6475 616C 		.string	"dualActionMaskUp"
 2013      4163 7469 
 2013      6F6E 4D61 
 2013      736B 5570 
 2013      00
 2014 0187 0000 0000 		.long	0x0
 2015               		.section	.debug_aranges,"",@progbits
 2016 0000 1C00 0000 		.long	0x1c
 2017 0004 0200      		.word	0x2
 2018 0006 0000 0000 		.long	.Ldebug_info0
 2019 000a 04        		.byte	0x4
 2020 000b 00        		.byte	0x0
 2021 000c 0000      		.word	0x0
 2022 000e 0000      		.word	0x0
 2023 0010 0000 0000 		.long	.Ltext0
 2024 0014 D600 0000 		.long	.Letext0-.Ltext0
 2025 0018 0000 0000 		.long	0x0
 2026 001c 0000 0000 		.long	0x0
 2027               		.section	.debug_line
 2028 0000 6F01 0000 		.long	.LELT0-.LSLT0
 2029               	.LSLT0:
 2030 0004 0200      		.word	0x2
 2031 0006 6100 0000 		.long	.LELTP0-.LASLTP0
 2032               	.LASLTP0:
 2033 000a 01        		.byte	0x1
 2034 000b 01        		.byte	0x1
 2035 000c F6        		.byte	0xf6
 2036 000d F5        		.byte	0xf5
 2037 000e 0A        		.byte	0xa
 2038 000f 00        		.byte	0x0
 2039 0010 01        		.byte	0x1
 2040 0011 01        		.byte	0x1
 2041 0012 01        		.byte	0x1
 2042 0013 01        		.byte	0x1
 2043 0014 00        		.byte	0x0
 2044 0015 00        		.byte	0x0
 2045 0016 00        		.byte	0x0
 2046 0017 01        		.byte	0x1
 2047 0018 633A 2F77 		.ascii	"c:/winavr-20100110/lib/gcc/../../avr/include"
 2047      696E 6176 
 2047      722D 3230 
GAS LISTING C:\Users\ADMINI~1\AppData\Local\Temp/ccPfdrLh.s 			page 38


 2047      3130 3031 
 2047      3130 2F6C 
 2048 0044 00        		.byte	0
 2049 0045 00        		.byte	0x0
 2050 0046 6B65 796D 		.string	"keymap.c"
 2050      6170 2E63 
 2050      00
 2051 004f 00        		.uleb128 0x0
 2052 0050 00        		.uleb128 0x0
 2053 0051 00        		.uleb128 0x0
 2054 0052 7374 6469 		.string	"stdint.h"
 2054      6E74 2E68 
 2054      00
 2055 005b 01        		.uleb128 0x1
 2056 005c 00        		.uleb128 0x0
 2057 005d 00        		.uleb128 0x0
 2058 005e 6B65 796D 		.string	"keymap.h"
 2058      6170 2E68 
 2058      00
 2059 0067 00        		.uleb128 0x0
 2060 0068 00        		.uleb128 0x0
 2061 0069 00        		.uleb128 0x0
 2062 006a 00        		.byte	0x0
 2063               	.LELTP0:
 2064 006b 00        		.byte	0x0
 2065 006c 05        		.uleb128 0x5
 2066 006d 02        		.byte	0x2
 2067 006e 0000 0000 		.long	.LM1
 2068 0072 49        		.byte	0x49
 2069 0073 00        		.byte	0x0
 2070 0074 05        		.uleb128 0x5
 2071 0075 02        		.byte	0x2
 2072 0076 0000 0000 		.long	.LM2
 2073 007a 16        		.byte	0x16
 2074 007b 00        		.byte	0x0
 2075 007c 05        		.uleb128 0x5
 2076 007d 02        		.byte	0x2
 2077 007e 0000 0000 		.long	.LM3
 2078 0082 18        		.byte	0x18
 2079 0083 00        		.byte	0x0
 2080 0084 05        		.uleb128 0x5
 2081 0085 02        		.byte	0x2
 2082 0086 0000 0000 		.long	.LM4
 2083 008a 15        		.byte	0x15
 2084 008b 00        		.byte	0x0
 2085 008c 05        		.uleb128 0x5
 2086 008d 02        		.byte	0x2
 2087 008e 0000 0000 		.long	.LM5
 2088 0092 45        		.byte	0x45
 2089 0093 00        		.byte	0x0
 2090 0094 05        		.uleb128 0x5
 2091 0095 02        		.byte	0x2
 2092 0096 0000 0000 		.long	.LM6
 2093 009a 15        		.byte	0x15
 2094 009b 00        		.byte	0x0
 2095 009c 05        		.uleb128 0x5
 2096 009d 02        		.byte	0x2
GAS LISTING C:\Users\ADMINI~1\AppData\Local\Temp/ccPfdrLh.s 			page 39


 2097 009e 0000 0000 		.long	.LM7
 2098 00a2 03        		.byte	0x3
 2099 00a3 50        		.sleb128 -48
 2100 00a4 01        		.byte	0x1
 2101 00a5 00        		.byte	0x0
 2102 00a6 05        		.uleb128 0x5
 2103 00a7 02        		.byte	0x2
 2104 00a8 0000 0000 		.long	.LM8
 2105 00ac 15        		.byte	0x15
 2106 00ad 00        		.byte	0x0
 2107 00ae 05        		.uleb128 0x5
 2108 00af 02        		.byte	0x2
 2109 00b0 0000 0000 		.long	.LM9
 2110 00b4 41        		.byte	0x41
 2111 00b5 00        		.byte	0x0
 2112 00b6 05        		.uleb128 0x5
 2113 00b7 02        		.byte	0x2
 2114 00b8 0000 0000 		.long	.LM10
 2115 00bc 15        		.byte	0x15
 2116 00bd 00        		.byte	0x0
 2117 00be 05        		.uleb128 0x5
 2118 00bf 02        		.byte	0x2
 2119 00c0 0000 0000 		.long	.LM11
 2120 00c4 15        		.byte	0x15
 2121 00c5 00        		.byte	0x0
 2122 00c6 05        		.uleb128 0x5
 2123 00c7 02        		.byte	0x2
 2124 00c8 0000 0000 		.long	.LM12
 2125 00cc 17        		.byte	0x17
 2126 00cd 00        		.byte	0x0
 2127 00ce 05        		.uleb128 0x5
 2128 00cf 02        		.byte	0x2
 2129 00d0 0000 0000 		.long	.LM13
 2130 00d4 03        		.byte	0x3
 2131 00d5 61        		.sleb128 -31
 2132 00d6 01        		.byte	0x1
 2133 00d7 00        		.byte	0x0
 2134 00d8 05        		.uleb128 0x5
 2135 00d9 02        		.byte	0x2
 2136 00da 0000 0000 		.long	.LM14
 2137 00de 15        		.byte	0x15
 2138 00df 00        		.byte	0x0
 2139 00e0 05        		.uleb128 0x5
 2140 00e1 02        		.byte	0x2
 2141 00e2 0000 0000 		.long	.LM15
 2142 00e6 15        		.byte	0x15
 2143 00e7 00        		.byte	0x0
 2144 00e8 05        		.uleb128 0x5
 2145 00e9 02        		.byte	0x2
 2146 00ea 0000 0000 		.long	.LM16
 2147 00ee 15        		.byte	0x15
 2148 00ef 00        		.byte	0x0
 2149 00f0 05        		.uleb128 0x5
 2150 00f1 02        		.byte	0x2
 2151 00f2 0000 0000 		.long	.LM17
 2152 00f6 15        		.byte	0x15
 2153 00f7 00        		.byte	0x0
GAS LISTING C:\Users\ADMINI~1\AppData\Local\Temp/ccPfdrLh.s 			page 40


 2154 00f8 05        		.uleb128 0x5
 2155 00f9 02        		.byte	0x2
 2156 00fa 0000 0000 		.long	.LM18
 2157 00fe 15        		.byte	0x15
 2158 00ff 00        		.byte	0x0
 2159 0100 05        		.uleb128 0x5
 2160 0101 02        		.byte	0x2
 2161 0102 0000 0000 		.long	.LM19
 2162 0106 15        		.byte	0x15
 2163 0107 00        		.byte	0x0
 2164 0108 05        		.uleb128 0x5
 2165 0109 02        		.byte	0x2
 2166 010a 0000 0000 		.long	.LM20
 2167 010e 15        		.byte	0x15
 2168 010f 00        		.byte	0x0
 2169 0110 05        		.uleb128 0x5
 2170 0111 02        		.byte	0x2
 2171 0112 0000 0000 		.long	.LM21
 2172 0116 1A        		.byte	0x1a
 2173 0117 00        		.byte	0x0
 2174 0118 05        		.uleb128 0x5
 2175 0119 02        		.byte	0x2
 2176 011a 0000 0000 		.long	.LM22
 2177 011e 17        		.byte	0x17
 2178 011f 00        		.byte	0x0
 2179 0120 05        		.uleb128 0x5
 2180 0121 02        		.byte	0x2
 2181 0122 0000 0000 		.long	.LM23
 2182 0126 17        		.byte	0x17
 2183 0127 00        		.byte	0x0
 2184 0128 05        		.uleb128 0x5
 2185 0129 02        		.byte	0x2
 2186 012a 0000 0000 		.long	.LM24
 2187 012e 15        		.byte	0x15
 2188 012f 00        		.byte	0x0
 2189 0130 05        		.uleb128 0x5
 2190 0131 02        		.byte	0x2
 2191 0132 0000 0000 		.long	.LM25
 2192 0136 03        		.byte	0x3
 2193 0137 61        		.sleb128 -31
 2194 0138 01        		.byte	0x1
 2195 0139 00        		.byte	0x0
 2196 013a 05        		.uleb128 0x5
 2197 013b 02        		.byte	0x2
 2198 013c 0000 0000 		.long	.LM26
 2199 0140 16        		.byte	0x16
 2200 0141 00        		.byte	0x0
 2201 0142 05        		.uleb128 0x5
 2202 0143 02        		.byte	0x2
 2203 0144 0000 0000 		.long	.LM27
 2204 0148 15        		.byte	0x15
 2205 0149 00        		.byte	0x0
 2206 014a 05        		.uleb128 0x5
 2207 014b 02        		.byte	0x2
 2208 014c 0000 0000 		.long	.LM28
 2209 0150 15        		.byte	0x15
 2210 0151 00        		.byte	0x0
GAS LISTING C:\Users\ADMINI~1\AppData\Local\Temp/ccPfdrLh.s 			page 41


 2211 0152 05        		.uleb128 0x5
 2212 0153 02        		.byte	0x2
 2213 0154 0000 0000 		.long	.LM29
 2214 0158 15        		.byte	0x15
 2215 0159 00        		.byte	0x0
 2216 015a 05        		.uleb128 0x5
 2217 015b 02        		.byte	0x2
 2218 015c 0000 0000 		.long	.LM30
 2219 0160 17        		.byte	0x17
 2220 0161 00        		.byte	0x0
 2221 0162 05        		.uleb128 0x5
 2222 0163 02        		.byte	0x2
 2223 0164 0000 0000 		.long	.LM31
 2224 0168 2F        		.byte	0x2f
 2225 0169 00        		.byte	0x0
 2226 016a 05        		.uleb128 0x5
 2227 016b 02        		.byte	0x2
 2228 016c 0000 0000 		.long	.Letext0
 2229 0170 00        		.byte	0x0
 2230 0171 01        		.uleb128 0x1
 2231 0172 01        		.byte	0x1
 2232               	.LELT0:
 2233 0173 1600 0000 		.section	.debug_str,"MS",@progbits,1
 2233      0200 1000 
 2233      0000 0101 
 2233      FB0E 0A00 
 2233      0101 0101 
 2234               	.LASF30:
 2235 0000 6170 706C 		.string	"applyDualActionDown"
 2235      7944 7561 
 2235      6C41 6374 
 2235      696F 6E44 
 2235      6F77 6E00 
 2236               	.LASF15:
 2237 0014 4B45 595F 		.string	"KEY_RSHIFT_HANJA"
 2237      5253 4849 
 2237      4654 5F48 
 2237      414E 4A41 
 2237      00
 2238               	.LASF47:
 2239 0025 6475 616C 		.string	"dualActionMaskUp"
 2239      4163 7469 
 2239      6F6E 4D61 
 2239      736B 5570 
 2239      00
 2240               	.LASF36:
 2241 0036 6B65 7963 		.string	"keycode_set2"
 2241      6F64 655F 
 2241      7365 7432 
 2241      00
 2242               	.LASF24:
 2243 0043 4B45 595F 		.string	"KEY_LCTRL_HANGLE"
 2243      4C43 5452 
 2243      4C5F 4841 
 2243      4E47 4C45 
 2243      00
 2244               	.LASF34:
GAS LISTING C:\Users\ADMINI~1\AppData\Local\Temp/ccPfdrLh.s 			page 42


 2245 0054 5F69 7343 		.string	"_isCanceledDualAction"
 2245      616E 6365 
 2245      6C65 6444 
 2245      7561 6C41 
 2245      6374 696F 
 2246               	.LASF38:
 2247 006a 6B65 7963 		.string	"keycode_USB_extend"
 2247      6F64 655F 
 2247      5553 425F 
 2247      6578 7465 
 2247      6E64 00
 2248               	.LASF25:
 2249 007d 4B45 595F 		.string	"KEY_LCTRL_HANJA"
 2249      4C43 5452 
 2249      4C5F 4841 
 2249      4E4A 4100 
 2250               	.LASF33:
 2251 008d 5F64 7561 		.string	"_dualActionCount"
 2251      6C41 6374 
 2251      696F 6E43 
 2251      6F75 6E74 
 2251      00
 2252               	.LASF53:
 2253 009e 7841 6374 		.string	"xActionIndex"
 2253      696F 6E49 
 2253      6E64 6578 
 2253      00
 2254               	.LASF23:
 2255 00ab 4B45 595F 		.string	"KEY_RCTRL_HANJA"
 2255      5243 5452 
 2255      4C5F 4841 
 2255      4E4A 4100 
 2256               	.LASF11:
 2257 00bb 4B45 595F 		.string	"KEY_FN_HANJA"
 2257      464E 5F48 
 2257      414E 4A41 
 2257      00
 2258               	.LASF20:
 2259 00c8 4B45 595F 		.string	"KEY_LALT_HANGLE"
 2259      4C41 4C54 
 2259      5F48 414E 
 2259      474C 4500 
 2260               	.LASF1:
 2261 00d8 756E 7369 		.string	"unsigned char"
 2261      676E 6564 
 2261      2063 6861 
 2261      7200 
 2262               	.LASF45:
 2263 00e6 6475 616C 		.string	"dualActionKeyIndex"
 2263      4163 7469 
 2263      6F6E 4B65 
 2263      7949 6E64 
 2263      6578 00
 2264               	.LASF42:
 2265 00f9 6B65 7963 		.string	"keycode_set2_extend"
 2265      6F64 655F 
 2265      7365 7432 
GAS LISTING C:\Users\ADMINI~1\AppData\Local\Temp/ccPfdrLh.s 			page 43


 2265      5F65 7874 
 2265      656E 6400 
 2266               	.LASF43:
 2267 010d 6B65 7963 		.string	"keycode_set2_proc_shift"
 2267      6F64 655F 
 2267      7365 7432 
 2267      5F70 726F 
 2267      635F 7368 
 2268               	.LASF22:
 2269 0125 4B45 595F 		.string	"KEY_RCTRL_HANGLE"
 2269      5243 5452 
 2269      4C5F 4841 
 2269      4E47 4C45 
 2269      00
 2270               	.LASF16:
 2271 0136 4B45 595F 		.string	"KEY_LSHIFT_HANGLE"
 2271      4C53 4849 
 2271      4654 5F48 
 2271      414E 474C 
 2271      4500 
 2272               	.LASF48:
 2273 0148 474E 5520 		.string	"GNU C 4.3.3"
 2273      4320 342E 
 2273      332E 3300 
 2274               	.LASF35:
 2275 0154 5F69 7341 		.string	"_isActiveDualAction"
 2275      6374 6976 
 2275      6544 7561 
 2275      6C41 6374 
 2275      696F 6E00 
 2276               	.LASF46:
 2277 0168 6475 616C 		.string	"dualActionMaskDown"
 2277      4163 7469 
 2277      6F6E 4D61 
 2277      736B 446F 
 2277      776E 00
 2278               	.LASF6:
 2279 017b 6C6F 6E67 		.string	"long unsigned int"
 2279      2075 6E73 
 2279      6967 6E65 
 2279      6420 696E 
 2279      7400 
 2280               	.LASF14:
 2281 018d 4B45 595F 		.string	"KEY_RSHIFT_HANGLE"
 2281      5253 4849 
 2281      4654 5F48 
 2281      414E 474C 
 2281      4500 
 2282               	.LASF28:
 2283 019f 6675 6E63 		.string	"func"
 2283      00
 2284               	.LASF51:
 2285 01a4 6973 4361 		.string	"isCanceledDualAction"
 2285      6E63 656C 
 2285      6564 4475 
 2285      616C 4163 
 2285      7469 6F6E 
GAS LISTING C:\Users\ADMINI~1\AppData\Local\Temp/ccPfdrLh.s 			page 44


 2286               	.LASF41:
 2287 01b9 6B65 7963 		.string	"keycode_set2_make_break"
 2287      6F64 655F 
 2287      7365 7432 
 2287      5F6D 616B 
 2287      655F 6272 
 2288               	.LASF13:
 2289 01d1 4B45 595F 		.string	"KEY_FN2_HANJA"
 2289      464E 325F 
 2289      4841 4E4A 
 2289      4100 
 2290               	.LASF52:
 2291 01df 6765 7444 		.string	"getDualActionDownKeyIdex"
 2291      7561 6C41 
 2291      6374 696F 
 2291      6E44 6F77 
 2291      6E4B 6579 
 2292               	.LASF10:
 2293 01f8 4B45 595F 		.string	"KEY_FN_HANGLE"
 2293      464E 5F48 
 2293      414E 474C 
 2293      4500 
 2294               	.LASF17:
 2295 0206 4B45 595F 		.string	"KEY_LSHIFT_HANJA"
 2295      4C53 4849 
 2295      4654 5F48 
 2295      414E 4A41 
 2295      00
 2296               	.LASF4:
 2297 0217 756E 7369 		.string	"unsigned int"
 2297      676E 6564 
 2297      2069 6E74 
 2297      00
 2298               	.LASF8:
 2299 0224 6C6F 6E67 		.string	"long long unsigned int"
 2299      206C 6F6E 
 2299      6720 756E 
 2299      7369 676E 
 2299      6564 2069 
 2300               	.LASF2:
 2301 023b 7569 6E74 		.string	"uint8_t"
 2301      385F 7400 
 2302               	.LASF54:
 2303 0243 6170 706C 		.string	"applyDualActionUp"
 2303      7944 7561 
 2303      6C41 6374 
 2303      696F 6E55 
 2303      7000 
 2304               	.LASF29:
 2305 0255 6973 446F 		.string	"isDown"
 2305      776E 00
 2306               	.LASF44:
 2307 025c 6B65 796D 		.string	"keymap_code"
 2307      6170 5F63 
 2307      6F64 6500 
 2308               	.LASF7:
 2309 0268 6C6F 6E67 		.string	"long long int"
GAS LISTING C:\Users\ADMINI~1\AppData\Local\Temp/ccPfdrLh.s 			page 45


 2309      206C 6F6E 
 2309      6720 696E 
 2309      7400 
 2310               	.LASF27:
 2311 0276 6368 6172 		.string	"char"
 2311      00
 2312               	.LASF18:
 2313 027b 4B45 595F 		.string	"KEY_RALT_HANGLE"
 2313      5241 4C54 
 2313      5F48 414E 
 2313      474C 4500 
 2314               	.LASF37:
 2315 028b 6B65 7963 		.string	"keycode_USB_multimedia"
 2315      6F64 655F 
 2315      5553 425F 
 2315      6D75 6C74 
 2315      696D 6564 
 2316               	.LASF21:
 2317 02a2 4B45 595F 		.string	"KEY_LALT_HANJA"
 2317      4C41 4C54 
 2317      5F48 414E 
 2317      4A41 00
 2318               	.LASF26:
 2319 02b1 4B45 595F 		.string	"KEY_dualAction_end"
 2319      6475 616C 
 2319      4163 7469 
 2319      6F6E 5F65 
 2319      6E64 00
 2320               	.LASF9:
 2321 02c4 4B45 595F 		.string	"KEY_dualAction"
 2321      6475 616C 
 2321      4163 7469 
 2321      6F6E 00
 2322               	.LASF3:
 2323 02d3 7569 6E74 		.string	"uint16_t"
 2323      3136 5F74 
 2323      00
 2324               	.LASF50:
 2325 02dc 443A 5C67 		.string	"D:\\git2\\ps2avrU\\.git\\source"
 2325      6974 325C 
 2325      7073 3261 
 2325      7672 555C 
 2325      2E67 6974 
 2326               	.LASF31:
 2327 02f8 7365 7444 		.string	"setDualAction"
 2327      7561 6C41 
 2327      6374 696F 
 2327      6E00 
 2328               	.LASF39:
 2329 0306 6B65 7963 		.string	"keycode_set2_special"
 2329      6F64 655F 
 2329      7365 7432 
 2329      5F73 7065 
 2329      6369 616C 
 2330               	.LASF19:
 2331 031b 4B45 595F 		.string	"KEY_RALT_HANJA"
 2331      5241 4C54 
GAS LISTING C:\Users\ADMINI~1\AppData\Local\Temp/ccPfdrLh.s 			page 46


 2331      5F48 414E 
 2331      4A41 00
 2332               	.LASF5:
 2333 032a 6C6F 6E67 		.string	"long int"
 2333      2069 6E74 
 2333      00
 2334               	.LASF40:
 2335 0333 6B65 7963 		.string	"keycode_set2_makeonly"
 2335      6F64 655F 
 2335      7365 7432 
 2335      5F6D 616B 
 2335      656F 6E6C 
 2336               	.LASF55:
 2337 0349 6741 6374 		.string	"gActionIdx"
 2337      696F 6E49 
 2337      6478 00
 2338               	.LASF0:
 2339 0354 7369 676E 		.string	"signed char"
 2339      6564 2063 
 2339      6861 7200 
 2340               	.LASF12:
 2341 0360 4B45 595F 		.string	"KEY_FN2_HANGLE"
 2341      464E 325F 
 2341      4841 4E47 
 2341      4C45 00
 2342               	.LASF32:
 2343 036f 6B65 7969 		.string	"keyidx"
 2343      6478 00
 2344               	.LASF49:
 2345 0376 6B65 796D 		.string	"keymap.c"
 2345      6170 2E63 
 2345      00
 2346               	.global __do_copy_data
 2347               	.global __do_clear_bss
GAS LISTING C:\Users\ADMINI~1\AppData\Local\Temp/ccPfdrLh.s 			page 47


DEFINED SYMBOLS
                            *ABS*:00000000 keymap.c
C:\Users\ADMINI~1\AppData\Local\Temp/ccPfdrLh.s:2      *ABS*:0000003f __SREG__
C:\Users\ADMINI~1\AppData\Local\Temp/ccPfdrLh.s:3      *ABS*:0000003e __SP_H__
C:\Users\ADMINI~1\AppData\Local\Temp/ccPfdrLh.s:4      *ABS*:0000003d __SP_L__
C:\Users\ADMINI~1\AppData\Local\Temp/ccPfdrLh.s:5      *ABS*:00000034 __CCP__
C:\Users\ADMINI~1\AppData\Local\Temp/ccPfdrLh.s:6      *ABS*:00000000 __tmp_reg__
C:\Users\ADMINI~1\AppData\Local\Temp/ccPfdrLh.s:7      *ABS*:00000001 __zero_reg__
C:\Users\ADMINI~1\AppData\Local\Temp/ccPfdrLh.s:18     .text:00000000 isCanceledDualAction
C:\Users\ADMINI~1\AppData\Local\Temp/ccPfdrLh.s:941    .bss:00000003 _isCanceledDualAction
C:\Users\ADMINI~1\AppData\Local\Temp/ccPfdrLh.s:31     .text:00000006 applyDualActionDown
C:\Users\ADMINI~1\AppData\Local\Temp/ccPfdrLh.s:250    .bss:00000000 dualActionKeyIndex
C:\Users\ADMINI~1\AppData\Local\Temp/ccPfdrLh.s:208    .data:00000000 dualActionMaskDown
C:\Users\ADMINI~1\AppData\Local\Temp/ccPfdrLh.s:79     .text:00000034 getDualActionDownKeyIdex
C:\Users\ADMINI~1\AppData\Local\Temp/ccPfdrLh.s:111    .text:00000050 setDualAction
                             .bss:00000001 _dualActionCount
C:\Users\ADMINI~1\AppData\Local\Temp/ccPfdrLh.s:940    .bss:00000002 _isActiveDualAction
C:\Users\ADMINI~1\AppData\Local\Temp/ccPfdrLh.s:228    .data:00000010 dualActionMaskUp
C:\Users\ADMINI~1\AppData\Local\Temp/ccPfdrLh.s:256    .progmem.data:00000000 keycode_set2
C:\Users\ADMINI~1\AppData\Local\Temp/ccPfdrLh.s:404    .progmem.data:00000090 keycode_USB_multimedia
C:\Users\ADMINI~1\AppData\Local\Temp/ccPfdrLh.s:434    .progmem.data:000000c4 keycode_USB_extend
C:\Users\ADMINI~1\AppData\Local\Temp/ccPfdrLh.s:440    .progmem.data:000000c8 keycode_set2_special
C:\Users\ADMINI~1\AppData\Local\Temp/ccPfdrLh.s:447    .progmem.data:000000cb keycode_set2_makeonly
C:\Users\ADMINI~1\AppData\Local\Temp/ccPfdrLh.s:455    .progmem.data:000000cf keycode_set2_make_break
C:\Users\ADMINI~1\AppData\Local\Temp/ccPfdrLh.s:463    .progmem.data:000000d3 keycode_set2_extend
C:\Users\ADMINI~1\AppData\Local\Temp/ccPfdrLh.s:512    .progmem.data:00000100 keycode_set2_proc_shift
C:\Users\ADMINI~1\AppData\Local\Temp/ccPfdrLh.s:531    .progmem.data:0000010f keymap_code

UNDEFINED SYMBOLS
pushM
__do_copy_data
__do_clear_bss
