GAS LISTING C:\Users\ADMINI~1\AppData\Local\Temp/ccL1uJ6w.s 			page 1


   1               		.file	"keymap.c"
   2               	__SREG__ = 0x3f
   3               	__SP_H__ = 0x3e
   4               	__SP_L__ = 0x3d
   5               	__CCP__  = 0x34
   6               	__tmp_reg__ = 0
   7               	__zero_reg__ = 1
   8               		.section	.debug_abbrev,"",@progbits
   9               	.Ldebug_abbrev0:
  10               		.section	.debug_info,"",@progbits
  11               	.Ldebug_info0:
  12               		.section	.debug_line,"",@progbits
  13               	.Ldebug_line0:
  14               		.text
  15               	.Ltext0:
  16               	.global	isCanceledDualAction
  17               		.type	isCanceledDualAction, @function
  18               	isCanceledDualAction:
  19               	.LFB4:
  20               	.LM1:
  21               	/* prologue: function */
  22               	/* frame size = 0 */
  23               	.LM2:
  24 0000 8091 0000 		lds r24,_isCanceledDualAction
  25               	/* epilogue start */
  26 0004 0895      		ret
  27               	.LFE4:
  28               		.size	isCanceledDualAction, .-isCanceledDualAction
  29               	.global	applyDualActionDown
  30               		.type	applyDualActionDown, @function
  31               	applyDualActionDown:
  32               	.LFB5:
  33               	.LM3:
  34               	.LVL0:
  35               	/* prologue: function */
  36               	/* frame size = 0 */
  37 0006 9C01      		movw r18,r24
  38               	.LM4:
  39 0008 E091 0000 		lds r30,dualActionKeyIndex
  40               	.LVL1:
  41 000c EE23      		tst r30
  42 000e 01F0      		breq .L6
  43               	.LVL2:
  44 0010 8091 0000 		lds r24,_isCanceledDualAction
  45 0014 8823      		tst r24
  46 0016 01F0      		breq .L6
  47               	.LBB18:
  48               	.LBB19:
  49               	.LM5:
  50 0018 8E2F      		mov r24,r30
  51 001a 865D      		subi r24,lo8(-(42))
  52 001c 8031      		cpi r24,lo8(16)
  53 001e 00F4      		brsh .L5
  54               	.LM6:
  55 0020 F0E0      		ldi r31,lo8(0)
  56               	.LVL3:
  57 0022 E050      		subi r30,lo8(-(dualActionMaskDown-214))
GAS LISTING C:\Users\ADMINI~1\AppData\Local\Temp/ccL1uJ6w.s 			page 2


  58 0024 F040      		sbci r31,hi8(-(dualActionMaskDown-214))
  59               	.LVL4:
  60 0026 E081      		ld r30,Z
  61               	.LVL5:
  62               	.L5:
  63               	.LBE19:
  64               	.LBE18:
  65               	.LM7:
  66 0028 8E2F      		mov r24,r30
  67 002a F901      		movw r30,r18
  68 002c 0995      		icall
  69               	.LVL6:
  70               	.LM8:
  71 002e 1092 0000 		sts dualActionKeyIndex,__zero_reg__
  72               	.LVL7:
  73               	.L6:
  74 0032 0895      		ret
  75               	.LFE5:
  76               		.size	applyDualActionDown, .-applyDualActionDown
  77               	.global	getDualActionDownKeyIdex
  78               		.type	getDualActionDownKeyIdex, @function
  79               	getDualActionDownKeyIdex:
  80               	.LFB8:
  81               	.LM9:
  82               	.LVL8:
  83               	/* prologue: function */
  84               	/* frame size = 0 */
  85 0034 E82F      		mov r30,r24
  86               	.LM10:
  87 0036 865D      		subi r24,lo8(-(42))
  88               	.LVL9:
  89 0038 8031      		cpi r24,lo8(16)
  90 003a 00F4      		brsh .L8
  91 003c 8091 0000 		lds r24,_isCanceledDualAction
  92 0040 8823      		tst r24
  93 0042 01F0      		breq .L8
  94               	.LM11:
  95 0044 F0E0      		ldi r31,lo8(0)
  96               	.LVL10:
  97 0046 E050      		subi r30,lo8(-(dualActionMaskDown-214))
  98 0048 F040      		sbci r31,hi8(-(dualActionMaskDown-214))
  99               	.LVL11:
 100 004a E081      		ld r30,Z
 101               	.LVL12:
 102               	.L8:
 103               	.LM12:
 104 004c 8E2F      		mov r24,r30
 105               	/* epilogue start */
 106 004e 0895      		ret
 107               	.LFE8:
 108               		.size	getDualActionDownKeyIdex, .-getDualActionDownKeyIdex
 109               	.global	getKeyCode
 110               		.type	getKeyCode, @function
 111               	getKeyCode:
 112               	.LFB9:
 113               	.LM13:
 114               	.LVL13:
GAS LISTING C:\Users\ADMINI~1\AppData\Local\Temp/ccL1uJ6w.s 			page 3


 115               	/* prologue: function */
 116               	/* frame size = 0 */
 117               	.LBB20:
 118               	.LM14:
 119 0050 91E1      		ldi r25,lo8(17)
 120 0052 899F      		mul r24,r25
 121 0054 C001      		movw r24,r0
 122 0056 1124      		clr r1
 123               	.LVL14:
 124 0058 860F      		add r24,r22
 125 005a 911D      		adc r25,__zero_reg__
 126 005c 23E0      		ldi r18,3
 127 005e 880F      	1:	lsl r24
 128 0060 991F      		rol r25
 129 0062 2A95      		dec r18
 130 0064 01F4      		brne 1b
 131 0066 840F      		add r24,r20
 132 0068 911D      		adc r25,__zero_reg__
 133 006a E091 0000 		lds r30,keymapAddress
 134 006e F091 0000 		lds r31,(keymapAddress)+1
 135 0072 E80F      		add r30,r24
 136 0074 F91F      		adc r31,r25
 137               	/* #APP */
 138               	 ;  203 "keymap.c" 1
 139 0076 E491      		lpm r30, Z
 140               		
 141               	 ;  0 "" 2
 142               	.LVL15:
 143               	/* #NOAPP */
 144               	.LBE20:
 145               	.LM15:
 146 0078 8E2F      		mov r24,r30
 147               	/* epilogue start */
 148 007a 0895      		ret
 149               	.LFE9:
 150               		.size	getKeyCode, .-getKeyCode
 151               	.global	setDualAction
 152               		.type	setDualAction, @function
 153               	setDualAction:
 154               	.LFB7:
 155               	.LM16:
 156               	.LVL16:
 157 007c 1F93      		push r17
 158               	/* prologue: function */
 159               	/* frame size = 0 */
 160 007e 982F      		mov r25,r24
 161 0080 865D      		subi r24,lo8(-(42))
 162               	.LVL17:
 163               	.LM17:
 164 0082 6623      		tst r22
 165 0084 01F0      		breq .L13
 166               	.LM18:
 167 0086 8031      		cpi r24,lo8(16)
 168 0088 00F4      		brsh .L14
 169               	.LM19:
 170 008a 8091 0000 		lds r24,_dualActionCount
 171 008e 8F5F      		subi r24,lo8(-(1))
GAS LISTING C:\Users\ADMINI~1\AppData\Local\Temp/ccL1uJ6w.s 			page 4


 172 0090 8093 0000 		sts _dualActionCount,r24
 173               	.LM20:
 174 0094 8091 0000 		lds r24,_isActiveDualAction
 175 0098 8823      		tst r24
 176 009a 01F4      		brne .L19
 177               	.LM21:
 178 009c 9093 0000 		sts dualActionKeyIndex,r25
 179               	.LM22:
 180 00a0 81E0      		ldi r24,lo8(1)
 181 00a2 8093 0000 		sts _isActiveDualAction,r24
 182               	.LM23:
 183 00a6 1092 0000 		sts _isCanceledDualAction,__zero_reg__
 184 00aa 00C0      		rjmp .L18
 185               	.L14:
 186               	.LM24:
 187 00ac 8091 0000 		lds r24,dualActionKeyIndex
 188 00b0 8823      		tst r24
 189 00b2 01F0      		breq .L18
 190               	.L19:
 191               	.LM25:
 192 00b4 81E0      		ldi r24,lo8(1)
 193 00b6 8093 0000 		sts _isCanceledDualAction,r24
 194 00ba 00C0      		rjmp .L18
 195               	.L13:
 196               	.LM26:
 197 00bc 8031      		cpi r24,lo8(16)
 198 00be 00F4      		brsh .L18
 199               	.LM27:
 200 00c0 8091 0000 		lds r24,_dualActionCount
 201 00c4 8150      		subi r24,lo8(-(-1))
 202 00c6 8093 0000 		sts _dualActionCount,r24
 203               	.LBB21:
 204               	.LBB22:
 205               	.LM28:
 206 00ca E091 0000 		lds r30,dualActionKeyIndex
 207 00ce EE23      		tst r30
 208 00d0 01F0      		breq .L17
 209 00d2 8091 0000 		lds r24,_isCanceledDualAction
 210 00d6 8823      		tst r24
 211 00d8 01F4      		brne .L17
 212               	.LBB23:
 213               	.LM29:
 214 00da F0E0      		ldi r31,lo8(0)
 215 00dc E050      		subi r30,lo8(-(dualActionMaskUp-214))
 216 00de F040      		sbci r31,hi8(-(dualActionMaskUp-214))
 217 00e0 1081      		ld r17,Z
 218               	.LVL18:
 219               	.LM30:
 220 00e2 812F      		mov r24,r17
 221 00e4 0E94 0000 		call pushM
 222               	.LVL19:
 223               	.LM31:
 224 00e8 812F      		mov r24,r17
 225 00ea 0E94 0000 		call pushM
 226               	.LM32:
 227 00ee 1092 0000 		sts dualActionKeyIndex,__zero_reg__
 228               	.LVL20:
GAS LISTING C:\Users\ADMINI~1\AppData\Local\Temp/ccL1uJ6w.s 			page 5


 229               	.L17:
 230               	.LBE23:
 231               	.LM33:
 232 00f2 8091 0000 		lds r24,_dualActionCount
 233 00f6 8823      		tst r24
 234 00f8 01F4      		brne .L18
 235 00fa 1092 0000 		sts _isActiveDualAction,__zero_reg__
 236               	.L18:
 237               	/* epilogue start */
 238               	.LBE22:
 239               	.LBE21:
 240               	.LM34:
 241 00fe 1F91      		pop r17
 242               	.LVL21:
 243 0100 0895      		ret
 244               	.LFE7:
 245               		.size	setDualAction, .-setDualAction
 246               	.global	dualActionMaskDown
 247               		.data
 248               		.type	dualActionMaskDown, @object
 249               		.size	dualActionMaskDown, 16
 250               	dualActionMaskDown:
 251 0000 FE        		.byte	-2
 252 0001 FE        		.byte	-2
 253 0002 F8        		.byte	-8
 254 0003 F8        		.byte	-8
 255 0004 6C        		.byte	108
 256 0005 6C        		.byte	108
 257 0006 68        		.byte	104
 258 0007 68        		.byte	104
 259 0008 6D        		.byte	109
 260 0009 6D        		.byte	109
 261 000a 69        		.byte	105
 262 000b 69        		.byte	105
 263 000c 6B        		.byte	107
 264 000d 6B        		.byte	107
 265 000e 67        		.byte	103
 266 000f 67        		.byte	103
 267               	.global	dualActionMaskUp
 268               		.type	dualActionMaskUp, @object
 269               		.size	dualActionMaskUp, 16
 270               	dualActionMaskUp:
 271 0010 8E        		.byte	-114
 272 0011 8D        		.byte	-115
 273 0012 8E        		.byte	-114
 274 0013 8D        		.byte	-115
 275 0014 8E        		.byte	-114
 276 0015 8D        		.byte	-115
 277 0016 8E        		.byte	-114
 278 0017 8D        		.byte	-115
 279 0018 8E        		.byte	-114
 280 0019 8D        		.byte	-115
 281 001a 8E        		.byte	-114
 282 001b 8D        		.byte	-115
 283 001c 8E        		.byte	-114
 284 001d 8D        		.byte	-115
 285 001e 8E        		.byte	-114
GAS LISTING C:\Users\ADMINI~1\AppData\Local\Temp/ccL1uJ6w.s 			page 6


 286 001f 8D        		.byte	-115
 287               	.global	dualActionKeyIndex
 288               	.global	dualActionKeyIndex
 289               		.section .bss
 290               		.type	dualActionKeyIndex, @object
 291               		.size	dualActionKeyIndex, 1
 292               	dualActionKeyIndex:
 293 0000 00        		.skip 1,0
 294               	.global	keycode_set2
 295               		.section	.progmem.data,"a",@progbits
 296               		.type	keycode_set2, @object
 297               		.size	keycode_set2, 176
 298               	keycode_set2:
 299 0000 00        		.byte	0
 300 0001 00        		.byte	0
 301 0002 FC        		.byte	-4
 302 0003 00        		.byte	0
 303 0004 1C        		.byte	28
 304 0005 32        		.byte	50
 305 0006 21        		.byte	33
 306 0007 23        		.byte	35
 307 0008 24        		.byte	36
 308 0009 2B        		.byte	43
 309 000a 34        		.byte	52
 310 000b 33        		.byte	51
 311 000c 43        		.byte	67
 312 000d 3B        		.byte	59
 313 000e 42        		.byte	66
 314 000f 4B        		.byte	75
 315 0010 3A        		.byte	58
 316 0011 31        		.byte	49
 317 0012 44        		.byte	68
 318 0013 4D        		.byte	77
 319 0014 15        		.byte	21
 320 0015 2D        		.byte	45
 321 0016 1B        		.byte	27
 322 0017 2C        		.byte	44
 323 0018 3C        		.byte	60
 324 0019 2A        		.byte	42
 325 001a 1D        		.byte	29
 326 001b 22        		.byte	34
 327 001c 35        		.byte	53
 328 001d 1A        		.byte	26
 329 001e 16        		.byte	22
 330 001f 1E        		.byte	30
 331 0020 26        		.byte	38
 332 0021 25        		.byte	37
 333 0022 2E        		.byte	46
 334 0023 36        		.byte	54
 335 0024 3D        		.byte	61
 336 0025 3E        		.byte	62
 337 0026 46        		.byte	70
 338 0027 45        		.byte	69
 339 0028 5A        		.byte	90
 340 0029 76        		.byte	118
 341 002a 66        		.byte	102
 342 002b 0D        		.byte	13
GAS LISTING C:\Users\ADMINI~1\AppData\Local\Temp/ccL1uJ6w.s 			page 7


 343 002c 29        		.byte	41
 344 002d 4E        		.byte	78
 345 002e 55        		.byte	85
 346 002f 54        		.byte	84
 347 0030 5B        		.byte	91
 348 0031 5D        		.byte	93
 349 0032 5D        		.byte	93
 350 0033 4C        		.byte	76
 351 0034 52        		.byte	82
 352 0035 0E        		.byte	14
 353 0036 41        		.byte	65
 354 0037 49        		.byte	73
 355 0038 4A        		.byte	74
 356 0039 58        		.byte	88
 357 003a 05        		.byte	5
 358 003b 06        		.byte	6
 359 003c 04        		.byte	4
 360 003d 0C        		.byte	12
 361 003e 03        		.byte	3
 362 003f 0B        		.byte	11
 363 0040 83        		.byte	-125
 364 0041 0A        		.byte	10
 365 0042 01        		.byte	1
 366 0043 09        		.byte	9
 367 0044 78        		.byte	120
 368 0045 07        		.byte	7
 369 0046 7C        		.byte	124
 370 0047 7E        		.byte	126
 371 0048 7C        		.byte	124
 372 0049 70        		.byte	112
 373 004a 6C        		.byte	108
 374 004b 7D        		.byte	125
 375 004c 71        		.byte	113
 376 004d 69        		.byte	105
 377 004e 7A        		.byte	122
 378 004f 74        		.byte	116
 379 0050 6B        		.byte	107
 380 0051 72        		.byte	114
 381 0052 75        		.byte	117
 382 0053 77        		.byte	119
 383 0054 4A        		.byte	74
 384 0055 7C        		.byte	124
 385 0056 7B        		.byte	123
 386 0057 79        		.byte	121
 387 0058 5A        		.byte	90
 388 0059 69        		.byte	105
 389 005a 72        		.byte	114
 390 005b 7A        		.byte	122
 391 005c 6B        		.byte	107
 392 005d 73        		.byte	115
 393 005e 74        		.byte	116
 394 005f 6C        		.byte	108
 395 0060 75        		.byte	117
 396 0061 7D        		.byte	125
 397 0062 70        		.byte	112
 398 0063 71        		.byte	113
 399 0064 61        		.byte	97
GAS LISTING C:\Users\ADMINI~1\AppData\Local\Temp/ccL1uJ6w.s 			page 8


 400 0065 2F        		.byte	47
 401 0066 00        		.byte	0
 402 0067 14        		.byte	20
 403 0068 12        		.byte	18
 404 0069 11        		.byte	17
 405 006a 1F        		.byte	31
 406 006b 14        		.byte	20
 407 006c 59        		.byte	89
 408 006d 11        		.byte	17
 409 006e 27        		.byte	39
 410 006f 00        		.byte	0
 411 0070 00        		.byte	0
 412 0071 37        		.byte	55
 413 0072 3F        		.byte	63
 414 0073 5E        		.byte	94
 415 0074 48        		.byte	72
 416 0075 10        		.byte	16
 417 0076 3A        		.byte	58
 418 0077 38        		.byte	56
 419 0078 30        		.byte	48
 420 0079 28        		.byte	40
 421 007a 20        		.byte	32
 422 007b 18        		.byte	24
 423 007c 4D        		.byte	77
 424 007d 15        		.byte	21
 425 007e 3B        		.byte	59
 426 007f 34        		.byte	52
 427 0080 23        		.byte	35
 428 0081 32        		.byte	50
 429 0082 21        		.byte	33
 430 0083 50        		.byte	80
 431 0084 2B        		.byte	43
 432 0085 40        		.byte	64
 433 0086 4B        		.byte	75
 434 0087 1C        		.byte	28
 435 0088 43        		.byte	67
 436 0089 22        		.byte	34
 437 008a 1D        		.byte	29
 438 008b 00        		.byte	0
 439 008c 00        		.byte	0
 440 008d F1        		.byte	-15
 441 008e F2        		.byte	-14
 442 008f 37        		.byte	55
 443 0090 0F        		.byte	15
 444 0091 08        		.byte	8
 445 0092 10        		.byte	16
 446 0093 18        		.byte	24
 447 0094 20        		.byte	32
 448 0095 28        		.byte	40
 449 0096 30        		.byte	48
 450 0097 38        		.byte	56
 451 0098 40        		.byte	64
 452 0099 48        		.byte	72
 453 009a 50        		.byte	80
 454 009b 57        		.byte	87
 455 009c 5F        		.byte	95
 456 009d 6D        		.byte	109
GAS LISTING C:\Users\ADMINI~1\AppData\Local\Temp/ccL1uJ6w.s 			page 9


 457 009e 00        		.byte	0
 458 009f 51        		.byte	81
 459 00a0 13        		.byte	19
 460 00a1 6A        		.byte	106
 461 00a2 64        		.byte	100
 462 00a3 67        		.byte	103
 463 00a4 27        		.byte	39
 464 00a5 00        		.byte	0
 465 00a6 00        		.byte	0
 466 00a7 00        		.byte	0
 467 00a8 63        		.byte	99
 468 00a9 62        		.byte	98
 469 00aa 5F        		.byte	95
 470 00ab 00        		.byte	0
 471 00ac 00        		.byte	0
 472 00ad 00        		.byte	0
 473 00ae 00        		.byte	0
 474 00af 00        		.byte	0
 475               	.global	keycode_USB_multimedia
 476               		.type	keycode_USB_multimedia, @object
 477               		.size	keycode_USB_multimedia, 52
 478               	keycode_USB_multimedia:
 479 00b0 0000      		.word	0
 480 00b2 0000      		.word	0
 481 00b4 0000      		.word	0
 482 00b6 8A01      		.word	394
 483 00b8 2102      		.word	545
 484 00ba 2302      		.word	547
 485 00bc 2402      		.word	548
 486 00be 2502      		.word	549
 487 00c0 2602      		.word	550
 488 00c2 2702      		.word	551
 489 00c4 2A02      		.word	554
 490 00c6 B500      		.word	181
 491 00c8 B600      		.word	182
 492 00ca B700      		.word	183
 493 00cc CD00      		.word	205
 494 00ce E200      		.word	226
 495 00d0 E900      		.word	233
 496 00d2 EA00      		.word	234
 497 00d4 8301      		.word	387
 498 00d6 9201      		.word	402
 499 00d8 9401      		.word	404
 500 00da 0000      		.word	0
 501 00dc 0000      		.word	0
 502 00de 0000      		.word	0
 503 00e0 0000      		.word	0
 504 00e2 0000      		.word	0
 505               	.global	keycode_USB_extend
 506               		.type	keycode_USB_extend, @object
 507               		.size	keycode_USB_extend, 68
 508               	keycode_USB_extend:
 509 00e4 9100      		.word	145
 510 00e6 9000      		.word	144
 511 00e8 6600      		.word	102
 512 00ea 6700      		.word	103
 513 00ec 6800      		.word	104
GAS LISTING C:\Users\ADMINI~1\AppData\Local\Temp/ccL1uJ6w.s 			page 10


 514 00ee 6900      		.word	105
 515 00f0 6A00      		.word	106
 516 00f2 6B00      		.word	107
 517 00f4 6C00      		.word	108
 518 00f6 6D00      		.word	109
 519 00f8 6E00      		.word	110
 520 00fa 6F00      		.word	111
 521 00fc 7000      		.word	112
 522 00fe 7100      		.word	113
 523 0100 7200      		.word	114
 524 0102 7300      		.word	115
 525 0104 8500      		.word	133
 526 0106 8600      		.word	134
 527 0108 8700      		.word	135
 528 010a 8800      		.word	136
 529 010c 8900      		.word	137
 530 010e 8A00      		.word	138
 531 0110 8B00      		.word	139
 532 0112 8C00      		.word	140
 533 0114 8D00      		.word	141
 534 0116 8E00      		.word	142
 535 0118 8F00      		.word	143
 536 011a 9200      		.word	146
 537 011c 9300      		.word	147
 538 011e 9400      		.word	148
 539 0120 9500      		.word	149
 540 0122 9600      		.word	150
 541 0124 9700      		.word	151
 542 0126 9800      		.word	152
 543               	.global	keycode_set2_special
 544               		.type	keycode_set2_special, @object
 545               		.size	keycode_set2_special, 3
 546               	keycode_set2_special:
 547 0128 46        		.byte	70
 548 0129 48        		.byte	72
 549 012a 00        		.byte	0
 550               	.global	keycode_set2_makeonly
 551               		.type	keycode_set2_makeonly, @object
 552               		.size	keycode_set2_makeonly, 4
 553               	keycode_set2_makeonly:
 554 012b 48        		.byte	72
 555 012c 8E        		.byte	-114
 556 012d 8D        		.byte	-115
 557 012e 00        		.byte	0
 558               	.global	keycode_set2_make_break
 559               		.type	keycode_set2_make_break, @object
 560               		.size	keycode_set2_make_break, 5
 561               	keycode_set2_make_break:
 562 012f 71        		.byte	113
 563 0130 72        		.byte	114
 564 0131 73        		.byte	115
 565 0132 8F        		.byte	-113
 566 0133 00        		.byte	0
 567               	.global	keycode_set2_extend
 568               		.type	keycode_set2_extend, @object
 569               		.size	keycode_set2_extend, 46
 570               	keycode_set2_extend:
GAS LISTING C:\Users\ADMINI~1\AppData\Local\Temp/ccL1uJ6w.s 			page 11


 571 0134 6A        		.byte	106
 572 0135 6B        		.byte	107
 573 0136 6E        		.byte	110
 574 0137 6D        		.byte	109
 575 0138 65        		.byte	101
 576 0139 46        		.byte	70
 577 013a 49        		.byte	73
 578 013b 4A        		.byte	74
 579 013c 4B        		.byte	75
 580 013d 4C        		.byte	76
 581 013e 4D        		.byte	77
 582 013f 4E        		.byte	78
 583 0140 52        		.byte	82
 584 0141 50        		.byte	80
 585 0142 4F        		.byte	79
 586 0143 51        		.byte	81
 587 0144 54        		.byte	84
 588 0145 58        		.byte	88
 589 0146 71        		.byte	113
 590 0147 72        		.byte	114
 591 0148 73        		.byte	115
 592 0149 74        		.byte	116
 593 014a 75        		.byte	117
 594 014b 76        		.byte	118
 595 014c 77        		.byte	119
 596 014d 78        		.byte	120
 597 014e 79        		.byte	121
 598 014f 7A        		.byte	122
 599 0150 7B        		.byte	123
 600 0151 7C        		.byte	124
 601 0152 7D        		.byte	125
 602 0153 7E        		.byte	126
 603 0154 7F        		.byte	127
 604 0155 80        		.byte	-128
 605 0156 81        		.byte	-127
 606 0157 82        		.byte	-126
 607 0158 83        		.byte	-125
 608 0159 84        		.byte	-124
 609 015a 85        		.byte	-123
 610 015b 86        		.byte	-122
 611 015c 87        		.byte	-121
 612 015d 88        		.byte	-120
 613 015e 89        		.byte	-119
 614 015f 8A        		.byte	-118
 615 0160 8F        		.byte	-113
 616 0161 00        		.byte	0
 617               	.global	keycode_set2_proc_shift
 618               		.type	keycode_set2_proc_shift, @object
 619               		.size	keycode_set2_proc_shift, 15
 620               	keycode_set2_proc_shift:
 621 0162 49        		.byte	73
 622 0163 4C        		.byte	76
 623 0164 4A        		.byte	74
 624 0165 4D        		.byte	77
 625 0166 4B        		.byte	75
 626 0167 4E        		.byte	78
 627 0168 6A        		.byte	106
GAS LISTING C:\Users\ADMINI~1\AppData\Local\Temp/ccL1uJ6w.s 			page 12


 628 0169 6E        		.byte	110
 629 016a 65        		.byte	101
 630 016b 50        		.byte	80
 631 016c 4F        		.byte	79
 632 016d 52        		.byte	82
 633 016e 51        		.byte	81
 634 016f 54        		.byte	84
 635 0170 00        		.byte	0
 636               	.global	keymapAddress
 637               		.data
 638               		.type	keymapAddress, @object
 639               		.size	keymapAddress, 2
 640               	keymapAddress:
 641 0020 0065      		.word	25856
 642               		.lcomm _dualActionCount,1
 643               		.lcomm _isActiveDualAction,1
 644               		.lcomm _isCanceledDualAction,1
 645               		.section	.debug_frame,"",@progbits
 646               	.Lframe0:
 647 0000 0C00 0000 		.long	.LECIE0-.LSCIE0
 648               	.LSCIE0:
 649 0004 FFFF FFFF 		.long	0xffffffff
 650 0008 01        		.byte	0x1
 651 0009 00        		.string	""
 652 000a 01        		.uleb128 0x1
 653 000b 7F        		.sleb128 -1
 654 000c 24        		.byte	0x24
 655 000d 0C        		.byte	0xc
 656 000e 20        		.uleb128 0x20
 657 000f 00        		.uleb128 0x0
 658               		.p2align	2
 659               	.LECIE0:
 660               	.LSFDE0:
 661 0010 0C00 0000 		.long	.LEFDE0-.LASFDE0
 662               	.LASFDE0:
 663 0014 0000 0000 		.long	.Lframe0
 664 0018 0000 0000 		.long	.LFB4
 665 001c 0600 0000 		.long	.LFE4-.LFB4
 666               		.p2align	2
 667               	.LEFDE0:
 668               	.LSFDE2:
 669 0020 0C00 0000 		.long	.LEFDE2-.LASFDE2
 670               	.LASFDE2:
 671 0024 0000 0000 		.long	.Lframe0
 672 0028 0000 0000 		.long	.LFB5
 673 002c 2E00 0000 		.long	.LFE5-.LFB5
 674               		.p2align	2
 675               	.LEFDE2:
 676               	.LSFDE4:
 677 0030 0C00 0000 		.long	.LEFDE4-.LASFDE4
 678               	.LASFDE4:
 679 0034 0000 0000 		.long	.Lframe0
 680 0038 0000 0000 		.long	.LFB8
 681 003c 1C00 0000 		.long	.LFE8-.LFB8
 682               		.p2align	2
 683               	.LEFDE4:
 684               	.LSFDE6:
GAS LISTING C:\Users\ADMINI~1\AppData\Local\Temp/ccL1uJ6w.s 			page 13


 685 0040 0C00 0000 		.long	.LEFDE6-.LASFDE6
 686               	.LASFDE6:
 687 0044 0000 0000 		.long	.Lframe0
 688 0048 0000 0000 		.long	.LFB9
 689 004c 2C00 0000 		.long	.LFE9-.LFB9
 690               		.p2align	2
 691               	.LEFDE6:
 692               	.LSFDE8:
 693 0050 0C00 0000 		.long	.LEFDE8-.LASFDE8
 694               	.LASFDE8:
 695 0054 0000 0000 		.long	.Lframe0
 696 0058 0000 0000 		.long	.LFB7
 697 005c 8600 0000 		.long	.LFE7-.LFB7
 698               		.p2align	2
 699               	.LEFDE8:
 700               		.text
 701               	.Letext0:
 702               		.section	.debug_loc,"",@progbits
 703               	.Ldebug_loc0:
 704               	.LLST2:
 705 0000 0600 0000 		.long	.LVL0-.Ltext0
 706 0004 1000 0000 		.long	.LVL2-.Ltext0
 707 0008 0600      		.word	0x6
 708 000a 68        		.byte	0x68
 709 000b 93        		.byte	0x93
 710 000c 01        		.uleb128 0x1
 711 000d 69        		.byte	0x69
 712 000e 93        		.byte	0x93
 713 000f 01        		.uleb128 0x1
 714 0010 1000 0000 		.long	.LVL2-.Ltext0
 715 0014 2E00 0000 		.long	.LVL6-.Ltext0
 716 0018 0600      		.word	0x6
 717 001a 62        		.byte	0x62
 718 001b 93        		.byte	0x93
 719 001c 01        		.uleb128 0x1
 720 001d 63        		.byte	0x63
 721 001e 93        		.byte	0x93
 722 001f 01        		.uleb128 0x1
 723 0020 3200 0000 		.long	.LVL7-.Ltext0
 724 0024 3400 0000 		.long	.LFE5-.Ltext0
 725 0028 0600      		.word	0x6
 726 002a 62        		.byte	0x62
 727 002b 93        		.byte	0x93
 728 002c 01        		.uleb128 0x1
 729 002d 63        		.byte	0x63
 730 002e 93        		.byte	0x93
 731 002f 01        		.uleb128 0x1
 732 0030 0000 0000 		.long	0x0
 733 0034 0000 0000 		.long	0x0
 734               	.LLST3:
 735 0038 0600 0000 		.long	.LVL0-.Ltext0
 736 003c 2E00 0000 		.long	.LVL6-.Ltext0
 737 0040 0100      		.word	0x1
 738 0042 66        		.byte	0x66
 739 0043 3200 0000 		.long	.LVL7-.Ltext0
 740 0047 3400 0000 		.long	.LFE5-.Ltext0
 741 004b 0100      		.word	0x1
GAS LISTING C:\Users\ADMINI~1\AppData\Local\Temp/ccL1uJ6w.s 			page 14


 742 004d 66        		.byte	0x66
 743 004e 0000 0000 		.long	0x0
 744 0052 0000 0000 		.long	0x0
 745               	.LLST4:
 746 0056 0C00 0000 		.long	.LVL1-.Ltext0
 747 005a 2200 0000 		.long	.LVL3-.Ltext0
 748 005e 0100      		.word	0x1
 749 0060 6E        		.byte	0x6e
 750 0061 2200 0000 		.long	.LVL3-.Ltext0
 751 0065 2E00 0000 		.long	.LVL6-.Ltext0
 752 0069 0600      		.word	0x6
 753 006b 6E        		.byte	0x6e
 754 006c 93        		.byte	0x93
 755 006d 01        		.uleb128 0x1
 756 006e 6F        		.byte	0x6f
 757 006f 93        		.byte	0x93
 758 0070 01        		.uleb128 0x1
 759 0071 3200 0000 		.long	.LVL7-.Ltext0
 760 0075 3400 0000 		.long	.LFE5-.Ltext0
 761 0079 0100      		.word	0x1
 762 007b 6E        		.byte	0x6e
 763 007c 0000 0000 		.long	0x0
 764 0080 0000 0000 		.long	0x0
 765               	.LLST6:
 766 0084 3400 0000 		.long	.LVL8-.Ltext0
 767 0088 3800 0000 		.long	.LVL9-.Ltext0
 768 008c 0100      		.word	0x1
 769 008e 68        		.byte	0x68
 770 008f 3800 0000 		.long	.LVL9-.Ltext0
 771 0093 4600 0000 		.long	.LVL10-.Ltext0
 772 0097 0100      		.word	0x1
 773 0099 6E        		.byte	0x6e
 774 009a 4600 0000 		.long	.LVL10-.Ltext0
 775 009e 5000 0000 		.long	.LFE8-.Ltext0
 776 00a2 0600      		.word	0x6
 777 00a4 6E        		.byte	0x6e
 778 00a5 93        		.byte	0x93
 779 00a6 01        		.uleb128 0x1
 780 00a7 6F        		.byte	0x6f
 781 00a8 93        		.byte	0x93
 782 00a9 01        		.uleb128 0x1
 783 00aa 0000 0000 		.long	0x0
 784 00ae 0000 0000 		.long	0x0
 785               	.LLST8:
 786 00b2 5000 0000 		.long	.LVL13-.Ltext0
 787 00b6 5800 0000 		.long	.LVL14-.Ltext0
 788 00ba 0100      		.word	0x1
 789 00bc 68        		.byte	0x68
 790 00bd 0000 0000 		.long	0x0
 791 00c1 0000 0000 		.long	0x0
 792               	.LLST10:
 793 00c5 7C00 0000 		.long	.LVL16-.Ltext0
 794 00c9 8200 0000 		.long	.LVL17-.Ltext0
 795 00cd 0100      		.word	0x1
 796 00cf 68        		.byte	0x68
 797 00d0 8200 0000 		.long	.LVL17-.Ltext0
 798 00d4 E800 0000 		.long	.LVL19-.Ltext0
GAS LISTING C:\Users\ADMINI~1\AppData\Local\Temp/ccL1uJ6w.s 			page 15


 799 00d8 0100      		.word	0x1
 800 00da 69        		.byte	0x69
 801 00db F200 0000 		.long	.LVL20-.Ltext0
 802 00df 0201 0000 		.long	.LFE7-.Ltext0
 803 00e3 0100      		.word	0x1
 804 00e5 69        		.byte	0x69
 805 00e6 0000 0000 		.long	0x0
 806 00ea 0000 0000 		.long	0x0
 807               	.LLST11:
 808 00ee 7C00 0000 		.long	.LVL16-.Ltext0
 809 00f2 E800 0000 		.long	.LVL19-.Ltext0
 810 00f6 0100      		.word	0x1
 811 00f8 66        		.byte	0x66
 812 00f9 F200 0000 		.long	.LVL20-.Ltext0
 813 00fd 0201 0000 		.long	.LFE7-.Ltext0
 814 0101 0100      		.word	0x1
 815 0103 66        		.byte	0x66
 816 0104 0000 0000 		.long	0x0
 817 0108 0000 0000 		.long	0x0
 818               	.LLST12:
 819 010c E200 0000 		.long	.LVL18-.Ltext0
 820 0110 0001 0000 		.long	.LVL21-.Ltext0
 821 0114 0100      		.word	0x1
 822 0116 61        		.byte	0x61
 823 0117 0000 0000 		.long	0x0
 824 011b 0000 0000 		.long	0x0
 825               		.section	.debug_info
 826 0000 9004 0000 		.long	0x490
 827 0004 0200      		.word	0x2
 828 0006 0000 0000 		.long	.Ldebug_abbrev0
 829 000a 04        		.byte	0x4
 830 000b 01        		.uleb128 0x1
 831 000c 0000 0000 		.long	.LASF56
 832 0010 01        		.byte	0x1
 833 0011 0000 0000 		.long	.LASF57
 834 0015 0000 0000 		.long	.LASF58
 835 0019 0000 0000 		.long	.Ltext0
 836 001d 0000 0000 		.long	.Letext0
 837 0021 0000 0000 		.long	.Ldebug_line0
 838 0025 02        		.uleb128 0x2
 839 0026 01        		.byte	0x1
 840 0027 06        		.byte	0x6
 841 0028 0000 0000 		.long	.LASF0
 842 002c 03        		.uleb128 0x3
 843 002d 0000 0000 		.long	.LASF2
 844 0031 02        		.byte	0x2
 845 0032 7A        		.byte	0x7a
 846 0033 3700 0000 		.long	0x37
 847 0037 02        		.uleb128 0x2
 848 0038 01        		.byte	0x1
 849 0039 08        		.byte	0x8
 850 003a 0000 0000 		.long	.LASF1
 851 003e 04        		.uleb128 0x4
 852 003f 02        		.byte	0x2
 853 0040 05        		.byte	0x5
 854 0041 696E 7400 		.string	"int"
 855 0045 03        		.uleb128 0x3
GAS LISTING C:\Users\ADMINI~1\AppData\Local\Temp/ccL1uJ6w.s 			page 16


 856 0046 0000 0000 		.long	.LASF3
 857 004a 02        		.byte	0x2
 858 004b 7C        		.byte	0x7c
 859 004c 5000 0000 		.long	0x50
 860 0050 02        		.uleb128 0x2
 861 0051 02        		.byte	0x2
 862 0052 07        		.byte	0x7
 863 0053 0000 0000 		.long	.LASF4
 864 0057 02        		.uleb128 0x2
 865 0058 04        		.byte	0x4
 866 0059 05        		.byte	0x5
 867 005a 0000 0000 		.long	.LASF5
 868 005e 02        		.uleb128 0x2
 869 005f 04        		.byte	0x4
 870 0060 07        		.byte	0x7
 871 0061 0000 0000 		.long	.LASF6
 872 0065 02        		.uleb128 0x2
 873 0066 08        		.byte	0x8
 874 0067 05        		.byte	0x5
 875 0068 0000 0000 		.long	.LASF7
 876 006c 02        		.uleb128 0x2
 877 006d 08        		.byte	0x8
 878 006e 07        		.byte	0x7
 879 006f 0000 0000 		.long	.LASF8
 880 0073 05        		.uleb128 0x5
 881 0074 01        		.byte	0x1
 882 0075 06        		.byte	0x6
 883 0076 05        		.uleb128 0x5
 884 0077 01        		.byte	0x1
 885 0078 08        		.byte	0x8
 886 0079 02        		.uleb128 0x2
 887 007a 02        		.byte	0x2
 888 007b 07        		.byte	0x7
 889 007c 0000 0000 		.long	.LASF9
 890 0080 02        		.uleb128 0x2
 891 0081 02        		.byte	0x2
 892 0082 05        		.byte	0x5
 893 0083 0000 0000 		.long	.LASF10
 894 0087 02        		.uleb128 0x2
 895 0088 01        		.byte	0x1
 896 0089 06        		.byte	0x6
 897 008a 0000 0000 		.long	.LASF11
 898 008e 06        		.uleb128 0x6
 899 008f 02        		.byte	0x2
 900 0090 03        		.byte	0x3
 901 0091 1D        		.byte	0x1d
 902 0092 1501 0000 		.long	0x115
 903 0096 07        		.uleb128 0x7
 904 0097 0000 0000 		.long	.LASF12
 905 009b D501      		.sleb128 213
 906 009d 07        		.uleb128 0x7
 907 009e 0000 0000 		.long	.LASF13
 908 00a2 D601      		.sleb128 214
 909 00a4 07        		.uleb128 0x7
 910 00a5 0000 0000 		.long	.LASF14
 911 00a9 D701      		.sleb128 215
 912 00ab 07        		.uleb128 0x7
GAS LISTING C:\Users\ADMINI~1\AppData\Local\Temp/ccL1uJ6w.s 			page 17


 913 00ac 0000 0000 		.long	.LASF15
 914 00b0 D801      		.sleb128 216
 915 00b2 07        		.uleb128 0x7
 916 00b3 0000 0000 		.long	.LASF16
 917 00b7 D901      		.sleb128 217
 918 00b9 07        		.uleb128 0x7
 919 00ba 0000 0000 		.long	.LASF17
 920 00be DA01      		.sleb128 218
 921 00c0 07        		.uleb128 0x7
 922 00c1 0000 0000 		.long	.LASF18
 923 00c5 DB01      		.sleb128 219
 924 00c7 07        		.uleb128 0x7
 925 00c8 0000 0000 		.long	.LASF19
 926 00cc DC01      		.sleb128 220
 927 00ce 07        		.uleb128 0x7
 928 00cf 0000 0000 		.long	.LASF20
 929 00d3 DD01      		.sleb128 221
 930 00d5 07        		.uleb128 0x7
 931 00d6 0000 0000 		.long	.LASF21
 932 00da DE01      		.sleb128 222
 933 00dc 07        		.uleb128 0x7
 934 00dd 0000 0000 		.long	.LASF22
 935 00e1 DF01      		.sleb128 223
 936 00e3 07        		.uleb128 0x7
 937 00e4 0000 0000 		.long	.LASF23
 938 00e8 E001      		.sleb128 224
 939 00ea 07        		.uleb128 0x7
 940 00eb 0000 0000 		.long	.LASF24
 941 00ef E101      		.sleb128 225
 942 00f1 07        		.uleb128 0x7
 943 00f2 0000 0000 		.long	.LASF25
 944 00f6 E201      		.sleb128 226
 945 00f8 07        		.uleb128 0x7
 946 00f9 0000 0000 		.long	.LASF26
 947 00fd E301      		.sleb128 227
 948 00ff 07        		.uleb128 0x7
 949 0100 0000 0000 		.long	.LASF27
 950 0104 E401      		.sleb128 228
 951 0106 07        		.uleb128 0x7
 952 0107 0000 0000 		.long	.LASF28
 953 010b E501      		.sleb128 229
 954 010d 07        		.uleb128 0x7
 955 010e 0000 0000 		.long	.LASF29
 956 0112 E601      		.sleb128 230
 957 0114 00        		.byte	0x0
 958 0115 08        		.uleb128 0x8
 959 0116 01        		.byte	0x1
 960 0117 0000 0000 		.long	.LASF59
 961 011b 01        		.byte	0x1
 962 011c 37        		.byte	0x37
 963 011d 01        		.byte	0x1
 964 011e 2C00 0000 		.long	0x2c
 965 0122 01        		.byte	0x1
 966 0123 09        		.uleb128 0x9
 967 0124 01        		.byte	0x1
 968 0125 0000 0000 		.long	.LASF60
 969 0129 01        		.byte	0x1
GAS LISTING C:\Users\ADMINI~1\AppData\Local\Temp/ccL1uJ6w.s 			page 18


 970 012a 6E        		.byte	0x6e
 971 012b 01        		.byte	0x1
 972 012c 2C00 0000 		.long	0x2c
 973 0130 01        		.byte	0x1
 974 0131 4201 0000 		.long	0x142
 975 0135 0A        		.uleb128 0xa
 976 0136 0000 0000 		.long	.LASF61
 977 013a 01        		.byte	0x1
 978 013b 6E        		.byte	0x6e
 979 013c 2C00 0000 		.long	0x2c
 980 0140 0B        		.uleb128 0xb
 981 0141 00        		.byte	0x0
 982 0142 0C        		.uleb128 0xc
 983 0143 0000 0000 		.long	.LASF62
 984 0147 01        		.byte	0x1
 985 0148 45        		.byte	0x45
 986 0149 01        		.byte	0x1
 987 014a 01        		.byte	0x1
 988 014b 6201 0000 		.long	0x162
 989 014f 0D        		.uleb128 0xd
 990 0150 6001 0000 		.long	0x160
 991 0154 0E        		.uleb128 0xe
 992 0155 0000 0000 		.long	.LASF35
 993 0159 01        		.byte	0x1
 994 015a 4B        		.byte	0x4b
 995 015b 2C00 0000 		.long	0x2c
 996 015f 00        		.byte	0x0
 997 0160 0B        		.uleb128 0xb
 998 0161 00        		.byte	0x0
 999 0162 0F        		.uleb128 0xf
 1000 0163 1501 0000 		.long	0x115
 1001 0167 0000 0000 		.long	.LFB4
 1002 016b 0000 0000 		.long	.LFE4
 1003 016f 02        		.byte	0x2
 1004 0170 90        		.byte	0x90
 1005 0171 20        		.uleb128 0x20
 1006 0172 10        		.uleb128 0x10
 1007 0173 01        		.byte	0x1
 1008 0174 0000 0000 		.long	.LASF37
 1009 0178 01        		.byte	0x1
 1010 0179 3D        		.byte	0x3d
 1011 017a 01        		.byte	0x1
 1012 017b 0000 0000 		.long	.LFB5
 1013 017f 0000 0000 		.long	.LFE5
 1014 0183 02        		.byte	0x2
 1015 0184 90        		.byte	0x90
 1016 0185 20        		.uleb128 0x20
 1017 0186 C201 0000 		.long	0x1c2
 1018 018a 11        		.uleb128 0x11
 1019 018b 0000 0000 		.long	.LASF30
 1020 018f 01        		.byte	0x1
 1021 0190 3D        		.byte	0x3d
 1022 0191 D701 0000 		.long	0x1d7
 1023 0195 0000 0000 		.long	.LLST2
 1024 0199 11        		.uleb128 0x11
 1025 019a 0000 0000 		.long	.LASF31
 1026 019e 01        		.byte	0x1
GAS LISTING C:\Users\ADMINI~1\AppData\Local\Temp/ccL1uJ6w.s 			page 19


 1027 019f 3D        		.byte	0x3d
 1028 01a0 2C00 0000 		.long	0x2c
 1029 01a4 0000 0000 		.long	.LLST3
 1030 01a8 12        		.uleb128 0x12
 1031 01a9 2301 0000 		.long	0x123
 1032 01ad 0000 0000 		.long	.LBB18
 1033 01b1 0000 0000 		.long	.LBE18
 1034 01b5 01        		.byte	0x1
 1035 01b6 40        		.byte	0x40
 1036 01b7 13        		.uleb128 0x13
 1037 01b8 3501 0000 		.long	0x135
 1038 01bc 0000 0000 		.long	.LLST4
 1039 01c0 00        		.byte	0x0
 1040 01c1 00        		.byte	0x0
 1041 01c2 14        		.uleb128 0x14
 1042 01c3 01        		.byte	0x1
 1043 01c4 2C00 0000 		.long	0x2c
 1044 01c8 D701 0000 		.long	0x1d7
 1045 01cc 15        		.uleb128 0x15
 1046 01cd 2C00 0000 		.long	0x2c
 1047 01d1 15        		.uleb128 0x15
 1048 01d2 2C00 0000 		.long	0x2c
 1049 01d6 00        		.byte	0x0
 1050 01d7 16        		.uleb128 0x16
 1051 01d8 02        		.byte	0x2
 1052 01d9 C201 0000 		.long	0x1c2
 1053 01dd 17        		.uleb128 0x17
 1054 01de 2301 0000 		.long	0x123
 1055 01e2 0000 0000 		.long	.LFB8
 1056 01e6 0000 0000 		.long	.LFE8
 1057 01ea 02        		.byte	0x2
 1058 01eb 90        		.byte	0x90
 1059 01ec 20        		.uleb128 0x20
 1060 01ed FB01 0000 		.long	0x1fb
 1061 01f1 13        		.uleb128 0x13
 1062 01f2 3501 0000 		.long	0x135
 1063 01f6 0000 0000 		.long	.LLST6
 1064 01fa 00        		.byte	0x0
 1065 01fb 18        		.uleb128 0x18
 1066 01fc 01        		.byte	0x1
 1067 01fd 0000 0000 		.long	.LASF63
 1068 0201 01        		.byte	0x1
 1069 0202 CA        		.byte	0xca
 1070 0203 01        		.byte	0x1
 1071 0204 2C00 0000 		.long	0x2c
 1072 0208 0000 0000 		.long	.LFB9
 1073 020c 0000 0000 		.long	.LFE9
 1074 0210 02        		.byte	0x2
 1075 0211 90        		.byte	0x90
 1076 0212 20        		.uleb128 0x20
 1077 0213 6302 0000 		.long	0x263
 1078 0217 11        		.uleb128 0x11
 1079 0218 0000 0000 		.long	.LASF32
 1080 021c 01        		.byte	0x1
 1081 021d CA        		.byte	0xca
 1082 021e 2C00 0000 		.long	0x2c
 1083 0222 0000 0000 		.long	.LLST8
GAS LISTING C:\Users\ADMINI~1\AppData\Local\Temp/ccL1uJ6w.s 			page 20


 1084 0226 19        		.uleb128 0x19
 1085 0227 0000 0000 		.long	.LASF33
 1086 022b 01        		.byte	0x1
 1087 022c CA        		.byte	0xca
 1088 022d 2C00 0000 		.long	0x2c
 1089 0231 01        		.byte	0x1
 1090 0232 66        		.byte	0x66
 1091 0233 19        		.uleb128 0x19
 1092 0234 0000 0000 		.long	.LASF34
 1093 0238 01        		.byte	0x1
 1094 0239 CA        		.byte	0xca
 1095 023a 2C00 0000 		.long	0x2c
 1096 023e 01        		.byte	0x1
 1097 023f 64        		.byte	0x64
 1098 0240 1A        		.uleb128 0x1a
 1099 0241 0000 0000 		.long	.LBB20
 1100 0245 0000 0000 		.long	.LBE20
 1101 0249 0E        		.uleb128 0xe
 1102 024a 0000 0000 		.long	.LASF36
 1103 024e 01        		.byte	0x1
 1104 024f CB        		.byte	0xcb
 1105 0250 4500 0000 		.long	0x45
 1106 0254 1B        		.uleb128 0x1b
 1107 0255 0000 0000 		.long	.LASF40
 1108 0259 01        		.byte	0x1
 1109 025a CB        		.byte	0xcb
 1110 025b 2C00 0000 		.long	0x2c
 1111 025f 01        		.byte	0x1
 1112 0260 6E        		.byte	0x6e
 1113 0261 00        		.byte	0x0
 1114 0262 00        		.byte	0x0
 1115 0263 10        		.uleb128 0x10
 1116 0264 01        		.byte	0x1
 1117 0265 0000 0000 		.long	.LASF38
 1118 0269 01        		.byte	0x1
 1119 026a 54        		.byte	0x54
 1120 026b 01        		.byte	0x1
 1121 026c 0000 0000 		.long	.LFB7
 1122 0270 0000 0000 		.long	.LFE7
 1123 0274 02        		.byte	0x2
 1124 0275 90        		.byte	0x90
 1125 0276 20        		.uleb128 0x20
 1126 0277 BD02 0000 		.long	0x2bd
 1127 027b 11        		.uleb128 0x11
 1128 027c 0000 0000 		.long	.LASF39
 1129 0280 01        		.byte	0x1
 1130 0281 54        		.byte	0x54
 1131 0282 2C00 0000 		.long	0x2c
 1132 0286 0000 0000 		.long	.LLST10
 1133 028a 11        		.uleb128 0x11
 1134 028b 0000 0000 		.long	.LASF31
 1135 028f 01        		.byte	0x1
 1136 0290 54        		.byte	0x54
 1137 0291 2C00 0000 		.long	0x2c
 1138 0295 0000 0000 		.long	.LLST11
 1139 0299 12        		.uleb128 0x12
 1140 029a 4201 0000 		.long	0x142
GAS LISTING C:\Users\ADMINI~1\AppData\Local\Temp/ccL1uJ6w.s 			page 21


 1141 029e 0000 0000 		.long	.LBB21
 1142 02a2 0000 0000 		.long	.LBE21
 1143 02a6 01        		.byte	0x1
 1144 02a7 69        		.byte	0x69
 1145 02a8 1A        		.uleb128 0x1a
 1146 02a9 0000 0000 		.long	.LBB23
 1147 02ad 0000 0000 		.long	.LBE23
 1148 02b1 1C        		.uleb128 0x1c
 1149 02b2 5401 0000 		.long	0x154
 1150 02b6 0000 0000 		.long	.LLST12
 1151 02ba 00        		.byte	0x0
 1152 02bb 00        		.byte	0x0
 1153 02bc 00        		.byte	0x0
 1154 02bd 1B        		.uleb128 0x1b
 1155 02be 0000 0000 		.long	.LASF41
 1156 02c2 01        		.byte	0x1
 1157 02c3 33        		.byte	0x33
 1158 02c4 2C00 0000 		.long	0x2c
 1159 02c8 05        		.byte	0x5
 1160 02c9 03        		.byte	0x3
 1161 02ca 0000 0000 		.long	_dualActionCount
 1162 02ce 1B        		.uleb128 0x1b
 1163 02cf 0000 0000 		.long	.LASF42
 1164 02d3 01        		.byte	0x1
 1165 02d4 35        		.byte	0x35
 1166 02d5 2C00 0000 		.long	0x2c
 1167 02d9 05        		.byte	0x5
 1168 02da 03        		.byte	0x3
 1169 02db 0000 0000 		.long	_isCanceledDualAction
 1170 02df 1B        		.uleb128 0x1b
 1171 02e0 0000 0000 		.long	.LASF43
 1172 02e4 01        		.byte	0x1
 1173 02e5 3B        		.byte	0x3b
 1174 02e6 2C00 0000 		.long	0x2c
 1175 02ea 05        		.byte	0x5
 1176 02eb 03        		.byte	0x3
 1177 02ec 0000 0000 		.long	_isActiveDualAction
 1178 02f0 1D        		.uleb128 0x1d
 1179 02f1 2C00 0000 		.long	0x2c
 1180 02f5 0003 0000 		.long	0x300
 1181 02f9 1E        		.uleb128 0x1e
 1182 02fa 0003 0000 		.long	0x300
 1183 02fe AF        		.byte	0xaf
 1184 02ff 00        		.byte	0x0
 1185 0300 05        		.uleb128 0x5
 1186 0301 02        		.byte	0x2
 1187 0302 07        		.byte	0x7
 1188 0303 1F        		.uleb128 0x1f
 1189 0304 0000 0000 		.long	.LASF44
 1190 0308 01        		.byte	0x1
 1191 0309 76        		.byte	0x76
 1192 030a 1503 0000 		.long	0x315
 1193 030e 01        		.byte	0x1
 1194 030f 05        		.byte	0x5
 1195 0310 03        		.byte	0x3
 1196 0311 0000 0000 		.long	keycode_set2
 1197 0315 20        		.uleb128 0x20
GAS LISTING C:\Users\ADMINI~1\AppData\Local\Temp/ccL1uJ6w.s 			page 22


 1198 0316 F002 0000 		.long	0x2f0
 1199 031a 1D        		.uleb128 0x1d
 1200 031b 4500 0000 		.long	0x45
 1201 031f 2A03 0000 		.long	0x32a
 1202 0323 1E        		.uleb128 0x1e
 1203 0324 0003 0000 		.long	0x300
 1204 0328 19        		.byte	0x19
 1205 0329 00        		.byte	0x0
 1206 032a 1F        		.uleb128 0x1f
 1207 032b 0000 0000 		.long	.LASF45
 1208 032f 01        		.byte	0x1
 1209 0330 9C        		.byte	0x9c
 1210 0331 3C03 0000 		.long	0x33c
 1211 0335 01        		.byte	0x1
 1212 0336 05        		.byte	0x5
 1213 0337 03        		.byte	0x3
 1214 0338 0000 0000 		.long	keycode_USB_multimedia
 1215 033c 20        		.uleb128 0x20
 1216 033d 1A03 0000 		.long	0x31a
 1217 0341 1D        		.uleb128 0x1d
 1218 0342 4500 0000 		.long	0x45
 1219 0346 5103 0000 		.long	0x351
 1220 034a 1E        		.uleb128 0x1e
 1221 034b 0003 0000 		.long	0x300
 1222 034f 21        		.byte	0x21
 1223 0350 00        		.byte	0x0
 1224 0351 1F        		.uleb128 0x1f
 1225 0352 0000 0000 		.long	.LASF46
 1226 0356 01        		.byte	0x1
 1227 0357 A3        		.byte	0xa3
 1228 0358 6303 0000 		.long	0x363
 1229 035c 01        		.byte	0x1
 1230 035d 05        		.byte	0x5
 1231 035e 03        		.byte	0x3
 1232 035f 0000 0000 		.long	keycode_USB_extend
 1233 0363 20        		.uleb128 0x20
 1234 0364 4103 0000 		.long	0x341
 1235 0368 1D        		.uleb128 0x1d
 1236 0369 2C00 0000 		.long	0x2c
 1237 036d 7803 0000 		.long	0x378
 1238 0371 1E        		.uleb128 0x1e
 1239 0372 0003 0000 		.long	0x300
 1240 0376 02        		.byte	0x2
 1241 0377 00        		.byte	0x0
 1242 0378 1F        		.uleb128 0x1f
 1243 0379 0000 0000 		.long	.LASF47
 1244 037d 01        		.byte	0x1
 1245 037e AB        		.byte	0xab
 1246 037f 8A03 0000 		.long	0x38a
 1247 0383 01        		.byte	0x1
 1248 0384 05        		.byte	0x5
 1249 0385 03        		.byte	0x3
 1250 0386 0000 0000 		.long	keycode_set2_special
 1251 038a 20        		.uleb128 0x20
 1252 038b 6803 0000 		.long	0x368
 1253 038f 1D        		.uleb128 0x1d
 1254 0390 2C00 0000 		.long	0x2c
GAS LISTING C:\Users\ADMINI~1\AppData\Local\Temp/ccL1uJ6w.s 			page 23


 1255 0394 9F03 0000 		.long	0x39f
 1256 0398 1E        		.uleb128 0x1e
 1257 0399 0003 0000 		.long	0x300
 1258 039d 03        		.byte	0x3
 1259 039e 00        		.byte	0x0
 1260 039f 1F        		.uleb128 0x1f
 1261 03a0 0000 0000 		.long	.LASF48
 1262 03a4 01        		.byte	0x1
 1263 03a5 AF        		.byte	0xaf
 1264 03a6 B103 0000 		.long	0x3b1
 1265 03aa 01        		.byte	0x1
 1266 03ab 05        		.byte	0x5
 1267 03ac 03        		.byte	0x3
 1268 03ad 0000 0000 		.long	keycode_set2_makeonly
 1269 03b1 20        		.uleb128 0x20
 1270 03b2 8F03 0000 		.long	0x38f
 1271 03b6 1D        		.uleb128 0x1d
 1272 03b7 2C00 0000 		.long	0x2c
 1273 03bb C603 0000 		.long	0x3c6
 1274 03bf 1E        		.uleb128 0x1e
 1275 03c0 0003 0000 		.long	0x300
 1276 03c4 04        		.byte	0x4
 1277 03c5 00        		.byte	0x0
 1278 03c6 1F        		.uleb128 0x1f
 1279 03c7 0000 0000 		.long	.LASF49
 1280 03cb 01        		.byte	0x1
 1281 03cc B3        		.byte	0xb3
 1282 03cd D803 0000 		.long	0x3d8
 1283 03d1 01        		.byte	0x1
 1284 03d2 05        		.byte	0x5
 1285 03d3 03        		.byte	0x3
 1286 03d4 0000 0000 		.long	keycode_set2_make_break
 1287 03d8 20        		.uleb128 0x20
 1288 03d9 B603 0000 		.long	0x3b6
 1289 03dd 1D        		.uleb128 0x1d
 1290 03de 2C00 0000 		.long	0x2c
 1291 03e2 ED03 0000 		.long	0x3ed
 1292 03e6 1E        		.uleb128 0x1e
 1293 03e7 0003 0000 		.long	0x300
 1294 03eb 2D        		.byte	0x2d
 1295 03ec 00        		.byte	0x0
 1296 03ed 1F        		.uleb128 0x1f
 1297 03ee 0000 0000 		.long	.LASF50
 1298 03f2 01        		.byte	0x1
 1299 03f3 B7        		.byte	0xb7
 1300 03f4 FF03 0000 		.long	0x3ff
 1301 03f8 01        		.byte	0x1
 1302 03f9 05        		.byte	0x5
 1303 03fa 03        		.byte	0x3
 1304 03fb 0000 0000 		.long	keycode_set2_extend
 1305 03ff 20        		.uleb128 0x20
 1306 0400 DD03 0000 		.long	0x3dd
 1307 0404 1D        		.uleb128 0x1d
 1308 0405 2C00 0000 		.long	0x2c
 1309 0409 1404 0000 		.long	0x414
 1310 040d 1E        		.uleb128 0x1e
 1311 040e 0003 0000 		.long	0x300
GAS LISTING C:\Users\ADMINI~1\AppData\Local\Temp/ccL1uJ6w.s 			page 24


 1312 0412 0E        		.byte	0xe
 1313 0413 00        		.byte	0x0
 1314 0414 1F        		.uleb128 0x1f
 1315 0415 0000 0000 		.long	.LASF51
 1316 0419 01        		.byte	0x1
 1317 041a C2        		.byte	0xc2
 1318 041b 2604 0000 		.long	0x426
 1319 041f 01        		.byte	0x1
 1320 0420 05        		.byte	0x5
 1321 0421 03        		.byte	0x3
 1322 0422 0000 0000 		.long	keycode_set2_proc_shift
 1323 0426 20        		.uleb128 0x20
 1324 0427 0404 0000 		.long	0x404
 1325 042b 1F        		.uleb128 0x1f
 1326 042c 0000 0000 		.long	.LASF52
 1327 0430 01        		.byte	0x1
 1328 0431 34        		.byte	0x34
 1329 0432 2C00 0000 		.long	0x2c
 1330 0436 01        		.byte	0x1
 1331 0437 05        		.byte	0x5
 1332 0438 03        		.byte	0x3
 1333 0439 0000 0000 		.long	dualActionKeyIndex
 1334 043d 1D        		.uleb128 0x1d
 1335 043e 2C00 0000 		.long	0x2c
 1336 0442 4D04 0000 		.long	0x44d
 1337 0446 1E        		.uleb128 0x1e
 1338 0447 0003 0000 		.long	0x300
 1339 044b 0F        		.byte	0xf
 1340 044c 00        		.byte	0x0
 1341 044d 1F        		.uleb128 0x1f
 1342 044e 0000 0000 		.long	.LASF53
 1343 0452 01        		.byte	0x1
 1344 0453 0E        		.byte	0xe
 1345 0454 5F04 0000 		.long	0x45f
 1346 0458 01        		.byte	0x1
 1347 0459 05        		.byte	0x5
 1348 045a 03        		.byte	0x3
 1349 045b 0000 0000 		.long	dualActionMaskDown
 1350 045f 20        		.uleb128 0x20
 1351 0460 3D04 0000 		.long	0x43d
 1352 0464 1F        		.uleb128 0x1f
 1353 0465 0000 0000 		.long	.LASF54
 1354 0469 01        		.byte	0x1
 1355 046a 20        		.byte	0x20
 1356 046b 7604 0000 		.long	0x476
 1357 046f 01        		.byte	0x1
 1358 0470 05        		.byte	0x5
 1359 0471 03        		.byte	0x3
 1360 0472 0000 0000 		.long	dualActionMaskUp
 1361 0476 20        		.uleb128 0x20
 1362 0477 3D04 0000 		.long	0x43d
 1363 047b 1F        		.uleb128 0x1f
 1364 047c 0000 0000 		.long	.LASF55
 1365 0480 01        		.byte	0x1
 1366 0481 C9        		.byte	0xc9
 1367 0482 8D04 0000 		.long	0x48d
 1368 0486 01        		.byte	0x1
GAS LISTING C:\Users\ADMINI~1\AppData\Local\Temp/ccL1uJ6w.s 			page 25


 1369 0487 05        		.byte	0x5
 1370 0488 03        		.byte	0x3
 1371 0489 0000 0000 		.long	keymapAddress
 1372 048d 16        		.uleb128 0x16
 1373 048e 02        		.byte	0x2
 1374 048f 2C00 0000 		.long	0x2c
 1375 0493 00        		.byte	0x0
 1376               		.section	.debug_abbrev
 1377 0000 01        		.uleb128 0x1
 1378 0001 11        		.uleb128 0x11
 1379 0002 01        		.byte	0x1
 1380 0003 25        		.uleb128 0x25
 1381 0004 0E        		.uleb128 0xe
 1382 0005 13        		.uleb128 0x13
 1383 0006 0B        		.uleb128 0xb
 1384 0007 03        		.uleb128 0x3
 1385 0008 0E        		.uleb128 0xe
 1386 0009 1B        		.uleb128 0x1b
 1387 000a 0E        		.uleb128 0xe
 1388 000b 11        		.uleb128 0x11
 1389 000c 01        		.uleb128 0x1
 1390 000d 12        		.uleb128 0x12
 1391 000e 01        		.uleb128 0x1
 1392 000f 10        		.uleb128 0x10
 1393 0010 06        		.uleb128 0x6
 1394 0011 00        		.byte	0x0
 1395 0012 00        		.byte	0x0
 1396 0013 02        		.uleb128 0x2
 1397 0014 24        		.uleb128 0x24
 1398 0015 00        		.byte	0x0
 1399 0016 0B        		.uleb128 0xb
 1400 0017 0B        		.uleb128 0xb
 1401 0018 3E        		.uleb128 0x3e
 1402 0019 0B        		.uleb128 0xb
 1403 001a 03        		.uleb128 0x3
 1404 001b 0E        		.uleb128 0xe
 1405 001c 00        		.byte	0x0
 1406 001d 00        		.byte	0x0
 1407 001e 03        		.uleb128 0x3
 1408 001f 16        		.uleb128 0x16
 1409 0020 00        		.byte	0x0
 1410 0021 03        		.uleb128 0x3
 1411 0022 0E        		.uleb128 0xe
 1412 0023 3A        		.uleb128 0x3a
 1413 0024 0B        		.uleb128 0xb
 1414 0025 3B        		.uleb128 0x3b
 1415 0026 0B        		.uleb128 0xb
 1416 0027 49        		.uleb128 0x49
 1417 0028 13        		.uleb128 0x13
 1418 0029 00        		.byte	0x0
 1419 002a 00        		.byte	0x0
 1420 002b 04        		.uleb128 0x4
 1421 002c 24        		.uleb128 0x24
 1422 002d 00        		.byte	0x0
 1423 002e 0B        		.uleb128 0xb
 1424 002f 0B        		.uleb128 0xb
 1425 0030 3E        		.uleb128 0x3e
GAS LISTING C:\Users\ADMINI~1\AppData\Local\Temp/ccL1uJ6w.s 			page 26


 1426 0031 0B        		.uleb128 0xb
 1427 0032 03        		.uleb128 0x3
 1428 0033 08        		.uleb128 0x8
 1429 0034 00        		.byte	0x0
 1430 0035 00        		.byte	0x0
 1431 0036 05        		.uleb128 0x5
 1432 0037 24        		.uleb128 0x24
 1433 0038 00        		.byte	0x0
 1434 0039 0B        		.uleb128 0xb
 1435 003a 0B        		.uleb128 0xb
 1436 003b 3E        		.uleb128 0x3e
 1437 003c 0B        		.uleb128 0xb
 1438 003d 00        		.byte	0x0
 1439 003e 00        		.byte	0x0
 1440 003f 06        		.uleb128 0x6
 1441 0040 04        		.uleb128 0x4
 1442 0041 01        		.byte	0x1
 1443 0042 0B        		.uleb128 0xb
 1444 0043 0B        		.uleb128 0xb
 1445 0044 3A        		.uleb128 0x3a
 1446 0045 0B        		.uleb128 0xb
 1447 0046 3B        		.uleb128 0x3b
 1448 0047 0B        		.uleb128 0xb
 1449 0048 01        		.uleb128 0x1
 1450 0049 13        		.uleb128 0x13
 1451 004a 00        		.byte	0x0
 1452 004b 00        		.byte	0x0
 1453 004c 07        		.uleb128 0x7
 1454 004d 28        		.uleb128 0x28
 1455 004e 00        		.byte	0x0
 1456 004f 03        		.uleb128 0x3
 1457 0050 0E        		.uleb128 0xe
 1458 0051 1C        		.uleb128 0x1c
 1459 0052 0D        		.uleb128 0xd
 1460 0053 00        		.byte	0x0
 1461 0054 00        		.byte	0x0
 1462 0055 08        		.uleb128 0x8
 1463 0056 2E        		.uleb128 0x2e
 1464 0057 00        		.byte	0x0
 1465 0058 3F        		.uleb128 0x3f
 1466 0059 0C        		.uleb128 0xc
 1467 005a 03        		.uleb128 0x3
 1468 005b 0E        		.uleb128 0xe
 1469 005c 3A        		.uleb128 0x3a
 1470 005d 0B        		.uleb128 0xb
 1471 005e 3B        		.uleb128 0x3b
 1472 005f 0B        		.uleb128 0xb
 1473 0060 27        		.uleb128 0x27
 1474 0061 0C        		.uleb128 0xc
 1475 0062 49        		.uleb128 0x49
 1476 0063 13        		.uleb128 0x13
 1477 0064 20        		.uleb128 0x20
 1478 0065 0B        		.uleb128 0xb
 1479 0066 00        		.byte	0x0
 1480 0067 00        		.byte	0x0
 1481 0068 09        		.uleb128 0x9
 1482 0069 2E        		.uleb128 0x2e
GAS LISTING C:\Users\ADMINI~1\AppData\Local\Temp/ccL1uJ6w.s 			page 27


 1483 006a 01        		.byte	0x1
 1484 006b 3F        		.uleb128 0x3f
 1485 006c 0C        		.uleb128 0xc
 1486 006d 03        		.uleb128 0x3
 1487 006e 0E        		.uleb128 0xe
 1488 006f 3A        		.uleb128 0x3a
 1489 0070 0B        		.uleb128 0xb
 1490 0071 3B        		.uleb128 0x3b
 1491 0072 0B        		.uleb128 0xb
 1492 0073 27        		.uleb128 0x27
 1493 0074 0C        		.uleb128 0xc
 1494 0075 49        		.uleb128 0x49
 1495 0076 13        		.uleb128 0x13
 1496 0077 20        		.uleb128 0x20
 1497 0078 0B        		.uleb128 0xb
 1498 0079 01        		.uleb128 0x1
 1499 007a 13        		.uleb128 0x13
 1500 007b 00        		.byte	0x0
 1501 007c 00        		.byte	0x0
 1502 007d 0A        		.uleb128 0xa
 1503 007e 05        		.uleb128 0x5
 1504 007f 00        		.byte	0x0
 1505 0080 03        		.uleb128 0x3
 1506 0081 0E        		.uleb128 0xe
 1507 0082 3A        		.uleb128 0x3a
 1508 0083 0B        		.uleb128 0xb
 1509 0084 3B        		.uleb128 0x3b
 1510 0085 0B        		.uleb128 0xb
 1511 0086 49        		.uleb128 0x49
 1512 0087 13        		.uleb128 0x13
 1513 0088 00        		.byte	0x0
 1514 0089 00        		.byte	0x0
 1515 008a 0B        		.uleb128 0xb
 1516 008b 0B        		.uleb128 0xb
 1517 008c 00        		.byte	0x0
 1518 008d 00        		.byte	0x0
 1519 008e 00        		.byte	0x0
 1520 008f 0C        		.uleb128 0xc
 1521 0090 2E        		.uleb128 0x2e
 1522 0091 01        		.byte	0x1
 1523 0092 03        		.uleb128 0x3
 1524 0093 0E        		.uleb128 0xe
 1525 0094 3A        		.uleb128 0x3a
 1526 0095 0B        		.uleb128 0xb
 1527 0096 3B        		.uleb128 0x3b
 1528 0097 0B        		.uleb128 0xb
 1529 0098 27        		.uleb128 0x27
 1530 0099 0C        		.uleb128 0xc
 1531 009a 20        		.uleb128 0x20
 1532 009b 0B        		.uleb128 0xb
 1533 009c 01        		.uleb128 0x1
 1534 009d 13        		.uleb128 0x13
 1535 009e 00        		.byte	0x0
 1536 009f 00        		.byte	0x0
 1537 00a0 0D        		.uleb128 0xd
 1538 00a1 0B        		.uleb128 0xb
 1539 00a2 01        		.byte	0x1
GAS LISTING C:\Users\ADMINI~1\AppData\Local\Temp/ccL1uJ6w.s 			page 28


 1540 00a3 01        		.uleb128 0x1
 1541 00a4 13        		.uleb128 0x13
 1542 00a5 00        		.byte	0x0
 1543 00a6 00        		.byte	0x0
 1544 00a7 0E        		.uleb128 0xe
 1545 00a8 34        		.uleb128 0x34
 1546 00a9 00        		.byte	0x0
 1547 00aa 03        		.uleb128 0x3
 1548 00ab 0E        		.uleb128 0xe
 1549 00ac 3A        		.uleb128 0x3a
 1550 00ad 0B        		.uleb128 0xb
 1551 00ae 3B        		.uleb128 0x3b
 1552 00af 0B        		.uleb128 0xb
 1553 00b0 49        		.uleb128 0x49
 1554 00b1 13        		.uleb128 0x13
 1555 00b2 00        		.byte	0x0
 1556 00b3 00        		.byte	0x0
 1557 00b4 0F        		.uleb128 0xf
 1558 00b5 2E        		.uleb128 0x2e
 1559 00b6 00        		.byte	0x0
 1560 00b7 31        		.uleb128 0x31
 1561 00b8 13        		.uleb128 0x13
 1562 00b9 11        		.uleb128 0x11
 1563 00ba 01        		.uleb128 0x1
 1564 00bb 12        		.uleb128 0x12
 1565 00bc 01        		.uleb128 0x1
 1566 00bd 40        		.uleb128 0x40
 1567 00be 0A        		.uleb128 0xa
 1568 00bf 00        		.byte	0x0
 1569 00c0 00        		.byte	0x0
 1570 00c1 10        		.uleb128 0x10
 1571 00c2 2E        		.uleb128 0x2e
 1572 00c3 01        		.byte	0x1
 1573 00c4 3F        		.uleb128 0x3f
 1574 00c5 0C        		.uleb128 0xc
 1575 00c6 03        		.uleb128 0x3
 1576 00c7 0E        		.uleb128 0xe
 1577 00c8 3A        		.uleb128 0x3a
 1578 00c9 0B        		.uleb128 0xb
 1579 00ca 3B        		.uleb128 0x3b
 1580 00cb 0B        		.uleb128 0xb
 1581 00cc 27        		.uleb128 0x27
 1582 00cd 0C        		.uleb128 0xc
 1583 00ce 11        		.uleb128 0x11
 1584 00cf 01        		.uleb128 0x1
 1585 00d0 12        		.uleb128 0x12
 1586 00d1 01        		.uleb128 0x1
 1587 00d2 40        		.uleb128 0x40
 1588 00d3 0A        		.uleb128 0xa
 1589 00d4 01        		.uleb128 0x1
 1590 00d5 13        		.uleb128 0x13
 1591 00d6 00        		.byte	0x0
 1592 00d7 00        		.byte	0x0
 1593 00d8 11        		.uleb128 0x11
 1594 00d9 05        		.uleb128 0x5
 1595 00da 00        		.byte	0x0
 1596 00db 03        		.uleb128 0x3
GAS LISTING C:\Users\ADMINI~1\AppData\Local\Temp/ccL1uJ6w.s 			page 29


 1597 00dc 0E        		.uleb128 0xe
 1598 00dd 3A        		.uleb128 0x3a
 1599 00de 0B        		.uleb128 0xb
 1600 00df 3B        		.uleb128 0x3b
 1601 00e0 0B        		.uleb128 0xb
 1602 00e1 49        		.uleb128 0x49
 1603 00e2 13        		.uleb128 0x13
 1604 00e3 02        		.uleb128 0x2
 1605 00e4 06        		.uleb128 0x6
 1606 00e5 00        		.byte	0x0
 1607 00e6 00        		.byte	0x0
 1608 00e7 12        		.uleb128 0x12
 1609 00e8 1D        		.uleb128 0x1d
 1610 00e9 01        		.byte	0x1
 1611 00ea 31        		.uleb128 0x31
 1612 00eb 13        		.uleb128 0x13
 1613 00ec 11        		.uleb128 0x11
 1614 00ed 01        		.uleb128 0x1
 1615 00ee 12        		.uleb128 0x12
 1616 00ef 01        		.uleb128 0x1
 1617 00f0 58        		.uleb128 0x58
 1618 00f1 0B        		.uleb128 0xb
 1619 00f2 59        		.uleb128 0x59
 1620 00f3 0B        		.uleb128 0xb
 1621 00f4 00        		.byte	0x0
 1622 00f5 00        		.byte	0x0
 1623 00f6 13        		.uleb128 0x13
 1624 00f7 05        		.uleb128 0x5
 1625 00f8 00        		.byte	0x0
 1626 00f9 31        		.uleb128 0x31
 1627 00fa 13        		.uleb128 0x13
 1628 00fb 02        		.uleb128 0x2
 1629 00fc 06        		.uleb128 0x6
 1630 00fd 00        		.byte	0x0
 1631 00fe 00        		.byte	0x0
 1632 00ff 14        		.uleb128 0x14
 1633 0100 15        		.uleb128 0x15
 1634 0101 01        		.byte	0x1
 1635 0102 27        		.uleb128 0x27
 1636 0103 0C        		.uleb128 0xc
 1637 0104 49        		.uleb128 0x49
 1638 0105 13        		.uleb128 0x13
 1639 0106 01        		.uleb128 0x1
 1640 0107 13        		.uleb128 0x13
 1641 0108 00        		.byte	0x0
 1642 0109 00        		.byte	0x0
 1643 010a 15        		.uleb128 0x15
 1644 010b 05        		.uleb128 0x5
 1645 010c 00        		.byte	0x0
 1646 010d 49        		.uleb128 0x49
 1647 010e 13        		.uleb128 0x13
 1648 010f 00        		.byte	0x0
 1649 0110 00        		.byte	0x0
 1650 0111 16        		.uleb128 0x16
 1651 0112 0F        		.uleb128 0xf
 1652 0113 00        		.byte	0x0
 1653 0114 0B        		.uleb128 0xb
GAS LISTING C:\Users\ADMINI~1\AppData\Local\Temp/ccL1uJ6w.s 			page 30


 1654 0115 0B        		.uleb128 0xb
 1655 0116 49        		.uleb128 0x49
 1656 0117 13        		.uleb128 0x13
 1657 0118 00        		.byte	0x0
 1658 0119 00        		.byte	0x0
 1659 011a 17        		.uleb128 0x17
 1660 011b 2E        		.uleb128 0x2e
 1661 011c 01        		.byte	0x1
 1662 011d 31        		.uleb128 0x31
 1663 011e 13        		.uleb128 0x13
 1664 011f 11        		.uleb128 0x11
 1665 0120 01        		.uleb128 0x1
 1666 0121 12        		.uleb128 0x12
 1667 0122 01        		.uleb128 0x1
 1668 0123 40        		.uleb128 0x40
 1669 0124 0A        		.uleb128 0xa
 1670 0125 01        		.uleb128 0x1
 1671 0126 13        		.uleb128 0x13
 1672 0127 00        		.byte	0x0
 1673 0128 00        		.byte	0x0
 1674 0129 18        		.uleb128 0x18
 1675 012a 2E        		.uleb128 0x2e
 1676 012b 01        		.byte	0x1
 1677 012c 3F        		.uleb128 0x3f
 1678 012d 0C        		.uleb128 0xc
 1679 012e 03        		.uleb128 0x3
 1680 012f 0E        		.uleb128 0xe
 1681 0130 3A        		.uleb128 0x3a
 1682 0131 0B        		.uleb128 0xb
 1683 0132 3B        		.uleb128 0x3b
 1684 0133 0B        		.uleb128 0xb
 1685 0134 27        		.uleb128 0x27
 1686 0135 0C        		.uleb128 0xc
 1687 0136 49        		.uleb128 0x49
 1688 0137 13        		.uleb128 0x13
 1689 0138 11        		.uleb128 0x11
 1690 0139 01        		.uleb128 0x1
 1691 013a 12        		.uleb128 0x12
 1692 013b 01        		.uleb128 0x1
 1693 013c 40        		.uleb128 0x40
 1694 013d 0A        		.uleb128 0xa
 1695 013e 01        		.uleb128 0x1
 1696 013f 13        		.uleb128 0x13
 1697 0140 00        		.byte	0x0
 1698 0141 00        		.byte	0x0
 1699 0142 19        		.uleb128 0x19
 1700 0143 05        		.uleb128 0x5
 1701 0144 00        		.byte	0x0
 1702 0145 03        		.uleb128 0x3
 1703 0146 0E        		.uleb128 0xe
 1704 0147 3A        		.uleb128 0x3a
 1705 0148 0B        		.uleb128 0xb
 1706 0149 3B        		.uleb128 0x3b
 1707 014a 0B        		.uleb128 0xb
 1708 014b 49        		.uleb128 0x49
 1709 014c 13        		.uleb128 0x13
 1710 014d 02        		.uleb128 0x2
GAS LISTING C:\Users\ADMINI~1\AppData\Local\Temp/ccL1uJ6w.s 			page 31


 1711 014e 0A        		.uleb128 0xa
 1712 014f 00        		.byte	0x0
 1713 0150 00        		.byte	0x0
 1714 0151 1A        		.uleb128 0x1a
 1715 0152 0B        		.uleb128 0xb
 1716 0153 01        		.byte	0x1
 1717 0154 11        		.uleb128 0x11
 1718 0155 01        		.uleb128 0x1
 1719 0156 12        		.uleb128 0x12
 1720 0157 01        		.uleb128 0x1
 1721 0158 00        		.byte	0x0
 1722 0159 00        		.byte	0x0
 1723 015a 1B        		.uleb128 0x1b
 1724 015b 34        		.uleb128 0x34
 1725 015c 00        		.byte	0x0
 1726 015d 03        		.uleb128 0x3
 1727 015e 0E        		.uleb128 0xe
 1728 015f 3A        		.uleb128 0x3a
 1729 0160 0B        		.uleb128 0xb
 1730 0161 3B        		.uleb128 0x3b
 1731 0162 0B        		.uleb128 0xb
 1732 0163 49        		.uleb128 0x49
 1733 0164 13        		.uleb128 0x13
 1734 0165 02        		.uleb128 0x2
 1735 0166 0A        		.uleb128 0xa
 1736 0167 00        		.byte	0x0
 1737 0168 00        		.byte	0x0
 1738 0169 1C        		.uleb128 0x1c
 1739 016a 34        		.uleb128 0x34
 1740 016b 00        		.byte	0x0
 1741 016c 31        		.uleb128 0x31
 1742 016d 13        		.uleb128 0x13
 1743 016e 02        		.uleb128 0x2
 1744 016f 06        		.uleb128 0x6
 1745 0170 00        		.byte	0x0
 1746 0171 00        		.byte	0x0
 1747 0172 1D        		.uleb128 0x1d
 1748 0173 01        		.uleb128 0x1
 1749 0174 01        		.byte	0x1
 1750 0175 49        		.uleb128 0x49
 1751 0176 13        		.uleb128 0x13
 1752 0177 01        		.uleb128 0x1
 1753 0178 13        		.uleb128 0x13
 1754 0179 00        		.byte	0x0
 1755 017a 00        		.byte	0x0
 1756 017b 1E        		.uleb128 0x1e
 1757 017c 21        		.uleb128 0x21
 1758 017d 00        		.byte	0x0
 1759 017e 49        		.uleb128 0x49
 1760 017f 13        		.uleb128 0x13
 1761 0180 2F        		.uleb128 0x2f
 1762 0181 0B        		.uleb128 0xb
 1763 0182 00        		.byte	0x0
 1764 0183 00        		.byte	0x0
 1765 0184 1F        		.uleb128 0x1f
 1766 0185 34        		.uleb128 0x34
 1767 0186 00        		.byte	0x0
GAS LISTING C:\Users\ADMINI~1\AppData\Local\Temp/ccL1uJ6w.s 			page 32


 1768 0187 03        		.uleb128 0x3
 1769 0188 0E        		.uleb128 0xe
 1770 0189 3A        		.uleb128 0x3a
 1771 018a 0B        		.uleb128 0xb
 1772 018b 3B        		.uleb128 0x3b
 1773 018c 0B        		.uleb128 0xb
 1774 018d 49        		.uleb128 0x49
 1775 018e 13        		.uleb128 0x13
 1776 018f 3F        		.uleb128 0x3f
 1777 0190 0C        		.uleb128 0xc
 1778 0191 02        		.uleb128 0x2
 1779 0192 0A        		.uleb128 0xa
 1780 0193 00        		.byte	0x0
 1781 0194 00        		.byte	0x0
 1782 0195 20        		.uleb128 0x20
 1783 0196 26        		.uleb128 0x26
 1784 0197 00        		.byte	0x0
 1785 0198 49        		.uleb128 0x49
 1786 0199 13        		.uleb128 0x13
 1787 019a 00        		.byte	0x0
 1788 019b 00        		.byte	0x0
 1789 019c 00        		.byte	0x0
 1790               		.section	.debug_pubnames,"",@progbits
 1791 0000 9801 0000 		.long	0x198
 1792 0004 0200      		.word	0x2
 1793 0006 0000 0000 		.long	.Ldebug_info0
 1794 000a 9404 0000 		.long	0x494
 1795 000e 6201 0000 		.long	0x162
 1796 0012 6973 4361 		.string	"isCanceledDualAction"
 1796      6E63 656C 
 1796      6564 4475 
 1796      616C 4163 
 1796      7469 6F6E 
 1797 0027 7201 0000 		.long	0x172
 1798 002b 6170 706C 		.string	"applyDualActionDown"
 1798      7944 7561 
 1798      6C41 6374 
 1798      696F 6E44 
 1798      6F77 6E00 
 1799 003f DD01 0000 		.long	0x1dd
 1800 0043 6765 7444 		.string	"getDualActionDownKeyIdex"
 1800      7561 6C41 
 1800      6374 696F 
 1800      6E44 6F77 
 1800      6E4B 6579 
 1801 005c FB01 0000 		.long	0x1fb
 1802 0060 6765 744B 		.string	"getKeyCode"
 1802      6579 436F 
 1802      6465 00
 1803 006b 6302 0000 		.long	0x263
 1804 006f 7365 7444 		.string	"setDualAction"
 1804      7561 6C41 
 1804      6374 696F 
 1804      6E00 
 1805 007d 0303 0000 		.long	0x303
 1806 0081 6B65 7963 		.string	"keycode_set2"
 1806      6F64 655F 
GAS LISTING C:\Users\ADMINI~1\AppData\Local\Temp/ccL1uJ6w.s 			page 33


 1806      7365 7432 
 1806      00
 1807 008e 2A03 0000 		.long	0x32a
 1808 0092 6B65 7963 		.string	"keycode_USB_multimedia"
 1808      6F64 655F 
 1808      5553 425F 
 1808      6D75 6C74 
 1808      696D 6564 
 1809 00a9 5103 0000 		.long	0x351
 1810 00ad 6B65 7963 		.string	"keycode_USB_extend"
 1810      6F64 655F 
 1810      5553 425F 
 1810      6578 7465 
 1810      6E64 00
 1811 00c0 7803 0000 		.long	0x378
 1812 00c4 6B65 7963 		.string	"keycode_set2_special"
 1812      6F64 655F 
 1812      7365 7432 
 1812      5F73 7065 
 1812      6369 616C 
 1813 00d9 9F03 0000 		.long	0x39f
 1814 00dd 6B65 7963 		.string	"keycode_set2_makeonly"
 1814      6F64 655F 
 1814      7365 7432 
 1814      5F6D 616B 
 1814      656F 6E6C 
 1815 00f3 C603 0000 		.long	0x3c6
 1816 00f7 6B65 7963 		.string	"keycode_set2_make_break"
 1816      6F64 655F 
 1816      7365 7432 
 1816      5F6D 616B 
 1816      655F 6272 
 1817 010f ED03 0000 		.long	0x3ed
 1818 0113 6B65 7963 		.string	"keycode_set2_extend"
 1818      6F64 655F 
 1818      7365 7432 
 1818      5F65 7874 
 1818      656E 6400 
 1819 0127 1404 0000 		.long	0x414
 1820 012b 6B65 7963 		.string	"keycode_set2_proc_shift"
 1820      6F64 655F 
 1820      7365 7432 
 1820      5F70 726F 
 1820      635F 7368 
 1821 0143 2B04 0000 		.long	0x42b
 1822 0147 6475 616C 		.string	"dualActionKeyIndex"
 1822      4163 7469 
 1822      6F6E 4B65 
 1822      7949 6E64 
 1822      6578 00
 1823 015a 4D04 0000 		.long	0x44d
 1824 015e 6475 616C 		.string	"dualActionMaskDown"
 1824      4163 7469 
 1824      6F6E 4D61 
 1824      736B 446F 
 1824      776E 00
 1825 0171 6404 0000 		.long	0x464
GAS LISTING C:\Users\ADMINI~1\AppData\Local\Temp/ccL1uJ6w.s 			page 34


 1826 0175 6475 616C 		.string	"dualActionMaskUp"
 1826      4163 7469 
 1826      6F6E 4D61 
 1826      736B 5570 
 1826      00
 1827 0186 7B04 0000 		.long	0x47b
 1828 018a 6B65 796D 		.string	"keymapAddress"
 1828      6170 4164 
 1828      6472 6573 
 1828      7300 
 1829 0198 0000 0000 		.long	0x0
 1830               		.section	.debug_aranges,"",@progbits
 1831 0000 1C00 0000 		.long	0x1c
 1832 0004 0200      		.word	0x2
 1833 0006 0000 0000 		.long	.Ldebug_info0
 1834 000a 04        		.byte	0x4
 1835 000b 00        		.byte	0x0
 1836 000c 0000      		.word	0x0
 1837 000e 0000      		.word	0x0
 1838 0010 0000 0000 		.long	.Ltext0
 1839 0014 0201 0000 		.long	.Letext0-.Ltext0
 1840 0018 0000 0000 		.long	0x0
 1841 001c 0000 0000 		.long	0x0
 1842               		.section	.debug_line
 1843 0000 8801 0000 		.long	.LELT0-.LSLT0
 1844               	.LSLT0:
 1845 0004 0200      		.word	0x2
 1846 0006 6100 0000 		.long	.LELTP0-.LASLTP0
 1847               	.LASLTP0:
 1848 000a 01        		.byte	0x1
 1849 000b 01        		.byte	0x1
 1850 000c F6        		.byte	0xf6
 1851 000d F5        		.byte	0xf5
 1852 000e 0A        		.byte	0xa
 1853 000f 00        		.byte	0x0
 1854 0010 01        		.byte	0x1
 1855 0011 01        		.byte	0x1
 1856 0012 01        		.byte	0x1
 1857 0013 01        		.byte	0x1
 1858 0014 00        		.byte	0x0
 1859 0015 00        		.byte	0x0
 1860 0016 00        		.byte	0x0
 1861 0017 01        		.byte	0x1
 1862 0018 633A 2F77 		.ascii	"c:/winavr-20100110/lib/gcc/../../avr/include"
 1862      696E 6176 
 1862      722D 3230 
 1862      3130 3031 
 1862      3130 2F6C 
 1863 0044 00        		.byte	0
 1864 0045 00        		.byte	0x0
 1865 0046 6B65 796D 		.string	"keymap.c"
 1865      6170 2E63 
 1865      00
 1866 004f 00        		.uleb128 0x0
 1867 0050 00        		.uleb128 0x0
 1868 0051 00        		.uleb128 0x0
 1869 0052 7374 6469 		.string	"stdint.h"
GAS LISTING C:\Users\ADMINI~1\AppData\Local\Temp/ccL1uJ6w.s 			page 35


 1869      6E74 2E68 
 1869      00
 1870 005b 01        		.uleb128 0x1
 1871 005c 00        		.uleb128 0x0
 1872 005d 00        		.uleb128 0x0
 1873 005e 6B65 796D 		.string	"keymap.h"
 1873      6170 2E68 
 1873      00
 1874 0067 00        		.uleb128 0x0
 1875 0068 00        		.uleb128 0x0
 1876 0069 00        		.uleb128 0x0
 1877 006a 00        		.byte	0x0
 1878               	.LELTP0:
 1879 006b 00        		.byte	0x0
 1880 006c 05        		.uleb128 0x5
 1881 006d 02        		.byte	0x2
 1882 006e 0000 0000 		.long	.LM1
 1883 0072 4A        		.byte	0x4a
 1884 0073 00        		.byte	0x0
 1885 0074 05        		.uleb128 0x5
 1886 0075 02        		.byte	0x2
 1887 0076 0000 0000 		.long	.LM2
 1888 007a 16        		.byte	0x16
 1889 007b 00        		.byte	0x0
 1890 007c 05        		.uleb128 0x5
 1891 007d 02        		.byte	0x2
 1892 007e 0000 0000 		.long	.LM3
 1893 0082 18        		.byte	0x18
 1894 0083 00        		.byte	0x0
 1895 0084 05        		.uleb128 0x5
 1896 0085 02        		.byte	0x2
 1897 0086 0000 0000 		.long	.LM4
 1898 008a 15        		.byte	0x15
 1899 008b 00        		.byte	0x0
 1900 008c 05        		.uleb128 0x5
 1901 008d 02        		.byte	0x2
 1902 008e 0000 0000 		.long	.LM5
 1903 0092 45        		.byte	0x45
 1904 0093 00        		.byte	0x0
 1905 0094 05        		.uleb128 0x5
 1906 0095 02        		.byte	0x2
 1907 0096 0000 0000 		.long	.LM6
 1908 009a 15        		.byte	0x15
 1909 009b 00        		.byte	0x0
 1910 009c 05        		.uleb128 0x5
 1911 009d 02        		.byte	0x2
 1912 009e 0000 0000 		.long	.LM7
 1913 00a2 03        		.byte	0x3
 1914 00a3 50        		.sleb128 -48
 1915 00a4 01        		.byte	0x1
 1916 00a5 00        		.byte	0x0
 1917 00a6 05        		.uleb128 0x5
 1918 00a7 02        		.byte	0x2
 1919 00a8 0000 0000 		.long	.LM8
 1920 00ac 15        		.byte	0x15
 1921 00ad 00        		.byte	0x0
 1922 00ae 05        		.uleb128 0x5
GAS LISTING C:\Users\ADMINI~1\AppData\Local\Temp/ccL1uJ6w.s 			page 36


 1923 00af 02        		.byte	0x2
 1924 00b0 0000 0000 		.long	.LM9
 1925 00b4 41        		.byte	0x41
 1926 00b5 00        		.byte	0x0
 1927 00b6 05        		.uleb128 0x5
 1928 00b7 02        		.byte	0x2
 1929 00b8 0000 0000 		.long	.LM10
 1930 00bc 15        		.byte	0x15
 1931 00bd 00        		.byte	0x0
 1932 00be 05        		.uleb128 0x5
 1933 00bf 02        		.byte	0x2
 1934 00c0 0000 0000 		.long	.LM11
 1935 00c4 15        		.byte	0x15
 1936 00c5 00        		.byte	0x0
 1937 00c6 05        		.uleb128 0x5
 1938 00c7 02        		.byte	0x2
 1939 00c8 0000 0000 		.long	.LM12
 1940 00cc 17        		.byte	0x17
 1941 00cd 00        		.byte	0x0
 1942 00ce 05        		.uleb128 0x5
 1943 00cf 02        		.byte	0x2
 1944 00d0 0000 0000 		.long	.LM13
 1945 00d4 6B        		.byte	0x6b
 1946 00d5 00        		.byte	0x0
 1947 00d6 05        		.uleb128 0x5
 1948 00d7 02        		.byte	0x2
 1949 00d8 0000 0000 		.long	.LM14
 1950 00dc 15        		.byte	0x15
 1951 00dd 00        		.byte	0x0
 1952 00de 05        		.uleb128 0x5
 1953 00df 02        		.byte	0x2
 1954 00e0 0000 0000 		.long	.LM15
 1955 00e4 15        		.byte	0x15
 1956 00e5 00        		.byte	0x0
 1957 00e6 05        		.uleb128 0x5
 1958 00e7 02        		.byte	0x2
 1959 00e8 0000 0000 		.long	.LM16
 1960 00ec 03        		.byte	0x3
 1961 00ed 887F      		.sleb128 -120
 1962 00ef 01        		.byte	0x1
 1963 00f0 00        		.byte	0x0
 1964 00f1 05        		.uleb128 0x5
 1965 00f2 02        		.byte	0x2
 1966 00f3 0000 0000 		.long	.LM17
 1967 00f7 15        		.byte	0x15
 1968 00f8 00        		.byte	0x0
 1969 00f9 05        		.uleb128 0x5
 1970 00fa 02        		.byte	0x2
 1971 00fb 0000 0000 		.long	.LM18
 1972 00ff 15        		.byte	0x15
 1973 0100 00        		.byte	0x0
 1974 0101 05        		.uleb128 0x5
 1975 0102 02        		.byte	0x2
 1976 0103 0000 0000 		.long	.LM19
 1977 0107 15        		.byte	0x15
 1978 0108 00        		.byte	0x0
 1979 0109 05        		.uleb128 0x5
GAS LISTING C:\Users\ADMINI~1\AppData\Local\Temp/ccL1uJ6w.s 			page 37


 1980 010a 02        		.byte	0x2
 1981 010b 0000 0000 		.long	.LM20
 1982 010f 15        		.byte	0x15
 1983 0110 00        		.byte	0x0
 1984 0111 05        		.uleb128 0x5
 1985 0112 02        		.byte	0x2
 1986 0113 0000 0000 		.long	.LM21
 1987 0117 15        		.byte	0x15
 1988 0118 00        		.byte	0x0
 1989 0119 05        		.uleb128 0x5
 1990 011a 02        		.byte	0x2
 1991 011b 0000 0000 		.long	.LM22
 1992 011f 15        		.byte	0x15
 1993 0120 00        		.byte	0x0
 1994 0121 05        		.uleb128 0x5
 1995 0122 02        		.byte	0x2
 1996 0123 0000 0000 		.long	.LM23
 1997 0127 15        		.byte	0x15
 1998 0128 00        		.byte	0x0
 1999 0129 05        		.uleb128 0x5
 2000 012a 02        		.byte	0x2
 2001 012b 0000 0000 		.long	.LM24
 2002 012f 1A        		.byte	0x1a
 2003 0130 00        		.byte	0x0
 2004 0131 05        		.uleb128 0x5
 2005 0132 02        		.byte	0x2
 2006 0133 0000 0000 		.long	.LM25
 2007 0137 17        		.byte	0x17
 2008 0138 00        		.byte	0x0
 2009 0139 05        		.uleb128 0x5
 2010 013a 02        		.byte	0x2
 2011 013b 0000 0000 		.long	.LM26
 2012 013f 17        		.byte	0x17
 2013 0140 00        		.byte	0x0
 2014 0141 05        		.uleb128 0x5
 2015 0142 02        		.byte	0x2
 2016 0143 0000 0000 		.long	.LM27
 2017 0147 15        		.byte	0x15
 2018 0148 00        		.byte	0x0
 2019 0149 05        		.uleb128 0x5
 2020 014a 02        		.byte	0x2
 2021 014b 0000 0000 		.long	.LM28
 2022 014f 03        		.byte	0x3
 2023 0150 61        		.sleb128 -31
 2024 0151 01        		.byte	0x1
 2025 0152 00        		.byte	0x0
 2026 0153 05        		.uleb128 0x5
 2027 0154 02        		.byte	0x2
 2028 0155 0000 0000 		.long	.LM29
 2029 0159 16        		.byte	0x16
 2030 015a 00        		.byte	0x0
 2031 015b 05        		.uleb128 0x5
 2032 015c 02        		.byte	0x2
 2033 015d 0000 0000 		.long	.LM30
 2034 0161 15        		.byte	0x15
 2035 0162 00        		.byte	0x0
 2036 0163 05        		.uleb128 0x5
GAS LISTING C:\Users\ADMINI~1\AppData\Local\Temp/ccL1uJ6w.s 			page 38


 2037 0164 02        		.byte	0x2
 2038 0165 0000 0000 		.long	.LM31
 2039 0169 15        		.byte	0x15
 2040 016a 00        		.byte	0x0
 2041 016b 05        		.uleb128 0x5
 2042 016c 02        		.byte	0x2
 2043 016d 0000 0000 		.long	.LM32
 2044 0171 15        		.byte	0x15
 2045 0172 00        		.byte	0x0
 2046 0173 05        		.uleb128 0x5
 2047 0174 02        		.byte	0x2
 2048 0175 0000 0000 		.long	.LM33
 2049 0179 17        		.byte	0x17
 2050 017a 00        		.byte	0x0
 2051 017b 05        		.uleb128 0x5
 2052 017c 02        		.byte	0x2
 2053 017d 0000 0000 		.long	.LM34
 2054 0181 2F        		.byte	0x2f
 2055 0182 00        		.byte	0x0
 2056 0183 05        		.uleb128 0x5
 2057 0184 02        		.byte	0x2
 2058 0185 0000 0000 		.long	.Letext0
 2059 0189 00        		.byte	0x0
 2060 018a 01        		.uleb128 0x1
 2061 018b 01        		.byte	0x1
 2062               	.LELT0:
 2063 018c 1600 0000 		.section	.debug_str,"MS",@progbits,1
 2063      0200 1000 
 2063      0000 0101 
 2063      FB0E 0A00 
 2063      0101 0101 
 2064               	.LASF44:
 2065 0000 6B65 7963 		.string	"keycode_set2"
 2065      6F64 655F 
 2065      7365 7432 
 2065      00
 2066               	.LASF24:
 2067 000d 4B45 595F 		.string	"KEY_LALT_HANJA"
 2067      4C41 4C54 
 2067      5F48 414E 
 2067      4A41 00
 2068               	.LASF22:
 2069 001c 4B45 595F 		.string	"KEY_RALT_HANJA"
 2069      5241 4C54 
 2069      5F48 414E 
 2069      4A41 00
 2070               	.LASF19:
 2071 002b 4B45 595F 		.string	"KEY_LSHIFT_HANGLE"
 2071      4C53 4849 
 2071      4654 5F48 
 2071      414E 474C 
 2071      4500 
 2072               	.LASF36:
 2073 003d 5F5F 6164 		.string	"__addr16"
 2073      6472 3136 
 2073      00
 2074               	.LASF62:
GAS LISTING C:\Users\ADMINI~1\AppData\Local\Temp/ccL1uJ6w.s 			page 39


 2075 0046 6170 706C 		.string	"applyDualActionUp"
 2075      7944 7561 
 2075      6C41 6374 
 2075      696F 6E55 
 2075      7000 
 2076               	.LASF37:
 2077 0058 6170 706C 		.string	"applyDualActionDown"
 2077      7944 7561 
 2077      6C41 6374 
 2077      696F 6E44 
 2077      6F77 6E00 
 2078               	.LASF50:
 2079 006c 6B65 7963 		.string	"keycode_set2_extend"
 2079      6F64 655F 
 2079      7365 7432 
 2079      5F65 7874 
 2079      656E 6400 
 2080               	.LASF8:
 2081 0080 6C6F 6E67 		.string	"long long unsigned int"
 2081      206C 6F6E 
 2081      6720 756E 
 2081      7369 676E 
 2081      6564 2069 
 2082               	.LASF43:
 2083 0097 5F69 7341 		.string	"_isActiveDualAction"
 2083      6374 6976 
 2083      6544 7561 
 2083      6C41 6374 
 2083      696F 6E00 
 2084               	.LASF17:
 2085 00ab 4B45 595F 		.string	"KEY_RSHIFT_HANGLE"
 2085      5253 4849 
 2085      4654 5F48 
 2085      414E 474C 
 2085      4500 
 2086               	.LASF13:
 2087 00bd 4B45 595F 		.string	"KEY_FN_HANGLE"
 2087      464E 5F48 
 2087      414E 474C 
 2087      4500 
 2088               	.LASF7:
 2089 00cb 6C6F 6E67 		.string	"long long int"
 2089      206C 6F6E 
 2089      6720 696E 
 2089      7400 
 2090               	.LASF0:
 2091 00d9 7369 676E 		.string	"signed char"
 2091      6564 2063 
 2091      6861 7200 
 2092               	.LASF47:
 2093 00e5 6B65 7963 		.string	"keycode_set2_special"
 2093      6F64 655F 
 2093      7365 7432 
 2093      5F73 7065 
 2093      6369 616C 
 2094               	.LASF41:
 2095 00fa 5F64 7561 		.string	"_dualActionCount"
GAS LISTING C:\Users\ADMINI~1\AppData\Local\Temp/ccL1uJ6w.s 			page 40


 2095      6C41 6374 
 2095      696F 6E43 
 2095      6F75 6E74 
 2095      00
 2096               	.LASF52:
 2097 010b 6475 616C 		.string	"dualActionKeyIndex"
 2097      4163 7469 
 2097      6F6E 4B65 
 2097      7949 6E64 
 2097      6578 00
 2098               	.LASF45:
 2099 011e 6B65 7963 		.string	"keycode_USB_multimedia"
 2099      6F64 655F 
 2099      5553 425F 
 2099      6D75 6C74 
 2099      696D 6564 
 2100               	.LASF5:
 2101 0135 6C6F 6E67 		.string	"long int"
 2101      2069 6E74 
 2101      00
 2102               	.LASF3:
 2103 013e 7569 6E74 		.string	"uint16_t"
 2103      3136 5F74 
 2103      00
 2104               	.LASF25:
 2105 0147 4B45 595F 		.string	"KEY_RCTRL_HANGLE"
 2105      5243 5452 
 2105      4C5F 4841 
 2105      4E47 4C45 
 2105      00
 2106               	.LASF40:
 2107 0158 5F5F 7265 		.string	"__result"
 2107      7375 6C74 
 2107      00
 2108               	.LASF34:
 2109 0161 7843 6F6C 		.string	"xCol"
 2109      00
 2110               	.LASF16:
 2111 0166 4B45 595F 		.string	"KEY_FN2_HANJA"
 2111      464E 325F 
 2111      4841 4E4A 
 2111      4100 
 2112               	.LASF56:
 2113 0174 474E 5520 		.string	"GNU C 4.3.3"
 2113      4320 342E 
 2113      332E 3300 
 2114               	.LASF20:
 2115 0180 4B45 595F 		.string	"KEY_LSHIFT_HANJA"
 2115      4C53 4849 
 2115      4654 5F48 
 2115      414E 4A41 
 2115      00
 2116               	.LASF38:
 2117 0191 7365 7444 		.string	"setDualAction"
 2117      7561 6C41 
 2117      6374 696F 
 2117      6E00 
GAS LISTING C:\Users\ADMINI~1\AppData\Local\Temp/ccL1uJ6w.s 			page 41


 2118               	.LASF4:
 2119 019f 756E 7369 		.string	"unsigned int"
 2119      676E 6564 
 2119      2069 6E74 
 2119      00
 2120               	.LASF6:
 2121 01ac 6C6F 6E67 		.string	"long unsigned int"
 2121      2075 6E73 
 2121      6967 6E65 
 2121      6420 696E 
 2121      7400 
 2122               	.LASF51:
 2123 01be 6B65 7963 		.string	"keycode_set2_proc_shift"
 2123      6F64 655F 
 2123      7365 7432 
 2123      5F70 726F 
 2123      635F 7368 
 2124               	.LASF9:
 2125 01d6 7368 6F72 		.string	"short unsigned int"
 2125      7420 756E 
 2125      7369 676E 
 2125      6564 2069 
 2125      6E74 00
 2126               	.LASF46:
 2127 01e9 6B65 7963 		.string	"keycode_USB_extend"
 2127      6F64 655F 
 2127      5553 425F 
 2127      6578 7465 
 2127      6E64 00
 2128               	.LASF63:
 2129 01fc 6765 744B 		.string	"getKeyCode"
 2129      6579 436F 
 2129      6465 00
 2130               	.LASF31:
 2131 0207 6973 446F 		.string	"isDown"
 2131      776E 00
 2132               	.LASF57:
 2133 020e 6B65 796D 		.string	"keymap.c"
 2133      6170 2E63 
 2133      00
 2134               	.LASF12:
 2135 0217 4B45 595F 		.string	"KEY_dualAction"
 2135      6475 616C 
 2135      4163 7469 
 2135      6F6E 00
 2136               	.LASF29:
 2137 0226 4B45 595F 		.string	"KEY_dualAction_end"
 2137      6475 616C 
 2137      4163 7469 
 2137      6F6E 5F65 
 2137      6E64 00
 2138               	.LASF33:
 2139 0239 7852 6F77 		.string	"xRow"
 2139      00
 2140               	.LASF53:
 2141 023e 6475 616C 		.string	"dualActionMaskDown"
 2141      4163 7469 
GAS LISTING C:\Users\ADMINI~1\AppData\Local\Temp/ccL1uJ6w.s 			page 42


 2141      6F6E 4D61 
 2141      736B 446F 
 2141      776E 00
 2142               	.LASF26:
 2143 0251 4B45 595F 		.string	"KEY_RCTRL_HANJA"
 2143      5243 5452 
 2143      4C5F 4841 
 2143      4E4A 4100 
 2144               	.LASF28:
 2145 0261 4B45 595F 		.string	"KEY_LCTRL_HANJA"
 2145      4C43 5452 
 2145      4C5F 4841 
 2145      4E4A 4100 
 2146               	.LASF1:
 2147 0271 756E 7369 		.string	"unsigned char"
 2147      676E 6564 
 2147      2063 6861 
 2147      7200 
 2148               	.LASF27:
 2149 027f 4B45 595F 		.string	"KEY_LCTRL_HANGLE"
 2149      4C43 5452 
 2149      4C5F 4841 
 2149      4E47 4C45 
 2149      00
 2150               	.LASF49:
 2151 0290 6B65 7963 		.string	"keycode_set2_make_break"
 2151      6F64 655F 
 2151      7365 7432 
 2151      5F6D 616B 
 2151      655F 6272 
 2152               	.LASF10:
 2153 02a8 7368 6F72 		.string	"short int"
 2153      7420 696E 
 2153      7400 
 2154               	.LASF23:
 2155 02b2 4B45 595F 		.string	"KEY_LALT_HANGLE"
 2155      4C41 4C54 
 2155      5F48 414E 
 2155      474C 4500 
 2156               	.LASF18:
 2157 02c2 4B45 595F 		.string	"KEY_RSHIFT_HANJA"
 2157      5253 4849 
 2157      4654 5F48 
 2157      414E 4A41 
 2157      00
 2158               	.LASF15:
 2159 02d3 4B45 595F 		.string	"KEY_FN2_HANGLE"
 2159      464E 325F 
 2159      4841 4E47 
 2159      4C45 00
 2160               	.LASF11:
 2161 02e2 6368 6172 		.string	"char"
 2161      00
 2162               	.LASF30:
 2163 02e7 6675 6E63 		.string	"func"
 2163      00
 2164               	.LASF59:
GAS LISTING C:\Users\ADMINI~1\AppData\Local\Temp/ccL1uJ6w.s 			page 43


 2165 02ec 6973 4361 		.string	"isCanceledDualAction"
 2165      6E63 656C 
 2165      6564 4475 
 2165      616C 4163 
 2165      7469 6F6E 
 2166               	.LASF54:
 2167 0301 6475 616C 		.string	"dualActionMaskUp"
 2167      4163 7469 
 2167      6F6E 4D61 
 2167      736B 5570 
 2167      00
 2168               	.LASF60:
 2169 0312 6765 7444 		.string	"getDualActionDownKeyIdex"
 2169      7561 6C41 
 2169      6374 696F 
 2169      6E44 6F77 
 2169      6E4B 6579 
 2170               	.LASF42:
 2171 032b 5F69 7343 		.string	"_isCanceledDualAction"
 2171      616E 6365 
 2171      6C65 6444 
 2171      7561 6C41 
 2171      6374 696F 
 2172               	.LASF14:
 2173 0341 4B45 595F 		.string	"KEY_FN_HANJA"
 2173      464E 5F48 
 2173      414E 4A41 
 2173      00
 2174               	.LASF48:
 2175 034e 6B65 7963 		.string	"keycode_set2_makeonly"
 2175      6F64 655F 
 2175      7365 7432 
 2175      5F6D 616B 
 2175      656F 6E6C 
 2176               	.LASF2:
 2177 0364 7569 6E74 		.string	"uint8_t"
 2177      385F 7400 
 2178               	.LASF58:
 2179 036c 443A 5C67 		.string	"D:\\git\\ps2avrU\\source"
 2179      6974 5C70 
 2179      7332 6176 
 2179      7255 5C73 
 2179      6F75 7263 
 2180               	.LASF32:
 2181 0382 784C 6179 		.string	"xLayer"
 2181      6572 00
 2182               	.LASF55:
 2183 0389 6B65 796D 		.string	"keymapAddress"
 2183      6170 4164 
 2183      6472 6573 
 2183      7300 
 2184               	.LASF21:
 2185 0397 4B45 595F 		.string	"KEY_RALT_HANGLE"
 2185      5241 4C54 
 2185      5F48 414E 
 2185      474C 4500 
 2186               	.LASF39:
GAS LISTING C:\Users\ADMINI~1\AppData\Local\Temp/ccL1uJ6w.s 			page 44


 2187 03a7 6B65 7969 		.string	"keyidx"
 2187      6478 00
 2188               	.LASF35:
 2189 03ae 6741 6374 		.string	"gActionIdx"
 2189      696F 6E49 
 2189      6478 00
 2190               	.LASF61:
 2191 03b9 7841 6374 		.string	"xActionIndex"
 2191      696F 6E49 
 2191      6E64 6578 
 2191      00
 2192               	.global __do_copy_data
 2193               	.global __do_clear_bss
GAS LISTING C:\Users\ADMINI~1\AppData\Local\Temp/ccL1uJ6w.s 			page 45


DEFINED SYMBOLS
                            *ABS*:00000000 keymap.c
C:\Users\ADMINI~1\AppData\Local\Temp/ccL1uJ6w.s:2      *ABS*:0000003f __SREG__
C:\Users\ADMINI~1\AppData\Local\Temp/ccL1uJ6w.s:3      *ABS*:0000003e __SP_H__
C:\Users\ADMINI~1\AppData\Local\Temp/ccL1uJ6w.s:4      *ABS*:0000003d __SP_L__
C:\Users\ADMINI~1\AppData\Local\Temp/ccL1uJ6w.s:5      *ABS*:00000034 __CCP__
C:\Users\ADMINI~1\AppData\Local\Temp/ccL1uJ6w.s:6      *ABS*:00000000 __tmp_reg__
C:\Users\ADMINI~1\AppData\Local\Temp/ccL1uJ6w.s:7      *ABS*:00000001 __zero_reg__
C:\Users\ADMINI~1\AppData\Local\Temp/ccL1uJ6w.s:18     .text:00000000 isCanceledDualAction
C:\Users\ADMINI~1\AppData\Local\Temp/ccL1uJ6w.s:643    .bss:00000003 _isCanceledDualAction
C:\Users\ADMINI~1\AppData\Local\Temp/ccL1uJ6w.s:31     .text:00000006 applyDualActionDown
C:\Users\ADMINI~1\AppData\Local\Temp/ccL1uJ6w.s:292    .bss:00000000 dualActionKeyIndex
C:\Users\ADMINI~1\AppData\Local\Temp/ccL1uJ6w.s:250    .data:00000000 dualActionMaskDown
C:\Users\ADMINI~1\AppData\Local\Temp/ccL1uJ6w.s:79     .text:00000034 getDualActionDownKeyIdex
C:\Users\ADMINI~1\AppData\Local\Temp/ccL1uJ6w.s:111    .text:00000050 getKeyCode
C:\Users\ADMINI~1\AppData\Local\Temp/ccL1uJ6w.s:640    .data:00000020 keymapAddress
C:\Users\ADMINI~1\AppData\Local\Temp/ccL1uJ6w.s:153    .text:0000007c setDualAction
                             .bss:00000001 _dualActionCount
C:\Users\ADMINI~1\AppData\Local\Temp/ccL1uJ6w.s:642    .bss:00000002 _isActiveDualAction
C:\Users\ADMINI~1\AppData\Local\Temp/ccL1uJ6w.s:270    .data:00000010 dualActionMaskUp
C:\Users\ADMINI~1\AppData\Local\Temp/ccL1uJ6w.s:298    .progmem.data:00000000 keycode_set2
C:\Users\ADMINI~1\AppData\Local\Temp/ccL1uJ6w.s:478    .progmem.data:000000b0 keycode_USB_multimedia
C:\Users\ADMINI~1\AppData\Local\Temp/ccL1uJ6w.s:508    .progmem.data:000000e4 keycode_USB_extend
C:\Users\ADMINI~1\AppData\Local\Temp/ccL1uJ6w.s:546    .progmem.data:00000128 keycode_set2_special
C:\Users\ADMINI~1\AppData\Local\Temp/ccL1uJ6w.s:553    .progmem.data:0000012b keycode_set2_makeonly
C:\Users\ADMINI~1\AppData\Local\Temp/ccL1uJ6w.s:561    .progmem.data:0000012f keycode_set2_make_break
C:\Users\ADMINI~1\AppData\Local\Temp/ccL1uJ6w.s:570    .progmem.data:00000134 keycode_set2_extend
C:\Users\ADMINI~1\AppData\Local\Temp/ccL1uJ6w.s:620    .progmem.data:00000162 keycode_set2_proc_shift

UNDEFINED SYMBOLS
pushM
__do_copy_data
__do_clear_bss
