GAS LISTING C:\Users\ADMINI~1\AppData\Local\Temp/ccvC2rQa.s 			page 1


   1               		.file	"keymatrix.c"
   2               	__SREG__ = 0x3f
   3               	__SP_H__ = 0x3e
   4               	__SP_L__ = 0x3d
   5               	__CCP__  = 0x34
   6               	__tmp_reg__ = 0
   7               	__zero_reg__ = 1
   8               		.section	.debug_abbrev,"",@progbits
   9               	.Ldebug_abbrev0:
  10               		.section	.debug_info,"",@progbits
  11               	.Ldebug_info0:
  12               		.section	.debug_line,"",@progbits
  13               	.Ldebug_line0:
  14               		.text
  15               	.Ltext0:
  16               	.global	clearMatrix
  17               		.type	clearMatrix, @function
  18               	clearMatrix:
  19               	.LFB8:
  20               	.LM1:
  21               	/* prologue: function */
  22               	/* frame size = 0 */
  23               	.LM2:
  24 0000 80E0      		ldi r24,lo8(0)
  25 0002 90E0      		ldi r25,hi8(0)
  26               	.L2:
  27               	.LM3:
  28 0004 FC01      		movw r30,r24
  29 0006 E050      		subi r30,lo8(-(prevMatrix))
  30 0008 F040      		sbci r31,hi8(-(prevMatrix))
  31 000a 1082      		st Z,__zero_reg__
  32               	.LM4:
  33 000c FC01      		movw r30,r24
  34 000e E050      		subi r30,lo8(-(currentMatrix))
  35 0010 F040      		sbci r31,hi8(-(currentMatrix))
  36 0012 1082      		st Z,__zero_reg__
  37 0014 0196      		adiw r24,1
  38               	.LM5:
  39 0016 8131      		cpi r24,17
  40 0018 9105      		cpc r25,__zero_reg__
  41 001a 01F4      		brne .L2
  42               	.LM6:
  43 001c 8AE0      		ldi r24,lo8(10)
  44 001e 8093 0000 		sts debounceMAX,r24
  45               	/* epilogue start */
  46               	.LM7:
  47 0022 0895      		ret
  48               	.LFE8:
  49               		.size	clearMatrix, .-clearMatrix
  50               	.global	isAllKeyRelease
  51               		.type	isAllKeyRelease, @function
  52               	isAllKeyRelease:
  53               	.LFB9:
  54               	.LM8:
  55               	/* prologue: function */
  56               	/* frame size = 0 */
  57               	.LM9:
GAS LISTING C:\Users\ADMINI~1\AppData\Local\Temp/ccvC2rQa.s 			page 2


  58 0024 81E0      		ldi r24,lo8(1)
  59 0026 8093 0000 		sts _isAllKeyRelease,r24
  60 002a E0E0      		ldi r30,lo8(currentMatrix)
  61 002c F0E0      		ldi r31,hi8(currentMatrix)
  62               	.L8:
  63               	.LM10:
  64 002e 8081      		ld r24,Z
  65 0030 8823      		tst r24
  66 0032 01F0      		breq .L6
  67               	.LM11:
  68 0034 1092 0000 		sts _isAllKeyRelease,__zero_reg__
  69 0038 00C0      		rjmp .L7
  70               	.L6:
  71               	.LM12:
  72 003a 3196      		adiw r30,1
  73               	.LM13:
  74 003c 80E0      		ldi r24,hi8(currentMatrix+17)
  75 003e E030      		cpi r30,lo8(currentMatrix+17)
  76 0040 F807      		cpc r31,r24
  77 0042 01F4      		brne .L8
  78               	.L7:
  79               	.LM14:
  80 0044 8091 0000 		lds r24,_isAllKeyRelease
  81               	/* epilogue start */
  82 0048 0895      		ret
  83               	.LFE9:
  84               		.size	isAllKeyRelease, .-isAllKeyRelease
  85               	.global	getCurrentMatrix
  86               		.type	getCurrentMatrix, @function
  87               	getCurrentMatrix:
  88               	.LFB13:
  89               	.LM15:
  90               	/* prologue: function */
  91               	/* frame size = 0 */
  92               	.LM16:
  93 004a 80E0      		ldi r24,lo8(ghostFilterMatrix)
  94 004c 90E0      		ldi r25,hi8(ghostFilterMatrix)
  95               	/* epilogue start */
  96 004e 0895      		ret
  97               	.LFE13:
  98               		.size	getCurrentMatrix, .-getCurrentMatrix
  99               	.global	getLiveMatrix
 100               		.type	getLiveMatrix, @function
 101               	getLiveMatrix:
 102               	.LFB12:
 103               	.LM17:
 104 0050 8F92      		push r8
 105 0052 9F92      		push r9
 106 0054 AF92      		push r10
 107 0056 BF92      		push r11
 108 0058 DF92      		push r13
 109 005a EF92      		push r14
 110 005c FF92      		push r15
 111 005e 0F93      		push r16
 112 0060 1F93      		push r17
 113 0062 CF93      		push r28
 114 0064 DF93      		push r29
GAS LISTING C:\Users\ADMINI~1\AppData\Local\Temp/ccvC2rQa.s 			page 3


 115               	/* prologue: function */
 116               	/* frame size = 0 */
 117               	.LM18:
 118 0066 DD24      		clr r13
 119               	.LVL0:
 120 0068 C0E0      		ldi r28,lo8(0)
 121 006a D0E0      		ldi r29,hi8(0)
 122               	.LM19:
 123 006c 21E0      		ldi r18,lo8(1)
 124 006e E22E      		mov r14,r18
 125 0070 F12C      		mov r15,__zero_reg__
 126               	.LM20:
 127 0072 97E1      		ldi r25,lo8(23)
 128 0074 892E      		mov r8,r25
 129 0076 912C      		mov r9,__zero_reg__
 130               	.LM21:
 131 0078 8FE0      		ldi r24,lo8(15)
 132 007a A82E      		mov r10,r24
 133 007c B12C      		mov r11,__zero_reg__
 134               	.LVL1:
 135               	.L21:
 136               	.LM22:
 137 007e 8701      		movw r16,r14
 138 0080 0C2E      		mov r0,r28
 139 0082 00C0      		rjmp 2f
 140 0084 000F      	1:	lsl r16
 141 0086 111F      		rol r17
 142 0088 0A94      	2:	dec r0
 143 008a 02F4      		brpl 1b
 144 008c 07BB      		out 55-32,r16
 145               	.LM23:
 146 008e 802F      		mov r24,r16
 147 0090 8095      		com r24
 148 0092 88BB      		out 56-32,r24
 149               	.LM24:
 150 0094 81E0      		ldi r24,lo8(1)
 151 0096 90E0      		ldi r25,hi8(1)
 152 0098 0E94 0000 		call _delay_us_m
 153               	.LVL2:
 154 009c A0E0      		ldi r26,lo8(currentMatrix)
 155 009e B0E0      		ldi r27,hi8(currentMatrix)
 156 00a0 FD01      		movw r30,r26
 157 00a2 40E0      		ldi r20,lo8(0)
 158 00a4 50E0      		ldi r21,hi8(0)
 159               	.LM25:
 160 00a6 302F      		mov r19,r16
 161 00a8 3095      		com r19
 162               	.LVL3:
 163               	.L20:
 164               	.LM26:
 165 00aa 842F      		mov r24,r20
 166               	.LVL4:
 167               	.LM27:
 168 00ac 4830      		cpi r20,lo8(8)
 169 00ae 00F4      		brsh .L14
 170               	.LVL5:
 171               	.LM28:
GAS LISTING C:\Users\ADMINI~1\AppData\Local\Temp/ccvC2rQa.s 			page 4


 172 00b0 29B3      		in r18,57-32
 173 00b2 C701      		movw r24,r14
 174 00b4 042E      		mov r0,r20
 175 00b6 00C0      		rjmp 2f
 176 00b8 880F      	1:	lsl r24
 177 00ba 991F      		rol r25
 178 00bc 0A94      	2:	dec r0
 179 00be 02F4      		brpl 1b
 180               	.LVL6:
 181 00c0 00C0      		rjmp .L36
 182               	.LVL7:
 183               	.L14:
 184               	.LM29:
 185 00c2 8850      		subi r24,lo8(-(-8))
 186               	.LVL8:
 187 00c4 8830      		cpi r24,lo8(8)
 188 00c6 00F4      		brsh .L16
 189               	.LM30:
 190 00c8 23B3      		in r18,51-32
 191 00ca C501      		movw r24,r10
 192               	.LVL9:
 193 00cc 00C0      		rjmp .L38
 194               	.LVL10:
 195               	.L16:
 196               	.LM31:
 197 00ce 20B3      		in r18,48-32
 198 00d0 C401      		movw r24,r8
 199               	.LVL11:
 200               	.L38:
 201 00d2 841B      		sub r24,r20
 202 00d4 950B      		sbc r25,r21
 203 00d6 B701      		movw r22,r14
 204 00d8 00C0      		rjmp 2f
 205 00da 660F      	1:	lsl r22
 206 00dc 771F      		rol r23
 207 00de 8A95      	2:	dec r24
 208 00e0 02F4      		brpl 1b
 209 00e2 CB01      		movw r24,r22
 210               	.L36:
 211 00e4 2095      		com r18
 212 00e6 2823      		and r18,r24
 213               	.LM32:
 214 00e8 9081      		ld r25,Z
 215               	.LM33:
 216 00ea 802F      		mov r24,r16
 217 00ec 8923      		and r24,r25
 218 00ee 01F0      		breq .L17
 219 00f0 2223      		tst r18
 220 00f2 01F0      		breq .L18
 221 00f4 00C0      		rjmp .L19
 222               	.L17:
 223 00f6 2223      		tst r18
 224 00f8 01F0      		breq .L19
 225               	.LM34:
 226 00fa 902B      		or r25,r16
 227 00fc 00C0      		rjmp .L37
 228               	.L18:
GAS LISTING C:\Users\ADMINI~1\AppData\Local\Temp/ccvC2rQa.s 			page 5


 229               	.LM35:
 230 00fe 9323      		and r25,r19
 231               	.L37:
 232 0100 9083      		st Z,r25
 233 0102 DD24      		clr r13
 234 0104 D394      		inc r13
 235               	.L19:
 236 0106 4F5F      		subi r20,lo8(-(1))
 237 0108 5F4F      		sbci r21,hi8(-(1))
 238 010a 3196      		adiw r30,1
 239               	.LM36:
 240 010c 4131      		cpi r20,17
 241 010e 5105      		cpc r21,__zero_reg__
 242 0110 01F4      		brne .L20
 243 0112 2196      		adiw r28,1
 244               	.LM37:
 245 0114 C830      		cpi r28,8
 246 0116 D105      		cpc r29,__zero_reg__
 247 0118 01F0      		breq .+2
 248 011a 00C0      		rjmp .L21
 249               	.LM38:
 250 011c DD20      		tst r13
 251 011e 01F0      		breq .L22
 252               	.LM39:
 253 0120 1092 0000 		sts debounce,__zero_reg__
 254 0124 00C0      		rjmp .L23
 255               	.L22:
 256               	.LM40:
 257 0126 8091 0000 		lds r24,debounce
 258 012a 8436      		cpi r24,lo8(100)
 259 012c 00F4      		brsh .L23
 260               	.LM41:
 261 012e 8F5F      		subi r24,lo8(-(1))
 262 0130 8093 0000 		sts debounce,r24
 263               	.L23:
 264               	.LM42:
 265 0134 9091 0000 		lds r25,debounce
 266 0138 8091 0000 		lds r24,debounceMAX
 267 013c 9817      		cp r25,r24
 268 013e 01F0      		breq .L24
 269 0140 80E0      		ldi r24,lo8(0)
 270 0142 00C0      		rjmp .L25
 271               	.L24:
 272 0144 E0E0      		ldi r30,lo8(ghostFilterMatrix)
 273 0146 F0E0      		ldi r31,hi8(ghostFilterMatrix)
 274 0148 50E0      		ldi r21,lo8(0)
 275               	.LVL12:
 276 014a 40E0      		ldi r20,lo8(0)
 277               	.LVL13:
 278               	.L30:
 279 014c 9C91      		ld r25,X
 280               	.LM43:
 281 014e 4230      		cpi r20,lo8(2)
 282 0150 00F0      		brlo .L26
 283               	.LM44:
 284 0152 9527      		eor r25,r21
 285 0154 8081      		ld r24,Z
GAS LISTING C:\Users\ADMINI~1\AppData\Local\Temp/ccvC2rQa.s 			page 6


 286 0156 8923      		and r24,r25
 287 0158 8083      		st Z,r24
 288 015a 00C0      		rjmp .L27
 289               	.L26:
 290               	.LM45:
 291 015c 9083      		st Z,r25
 292               	.L27:
 293               	.LM46:
 294 015e 8081      		ld r24,Z
 295 0160 582B      		or r21,r24
 296 0162 40E0      		ldi r20,lo8(0)
 297 0164 20E0      		ldi r18,lo8(0)
 298 0166 30E0      		ldi r19,hi8(0)
 299               	.LVL14:
 300               	.LM47:
 301 0168 652F      		mov r22,r21
 302 016a 70E0      		ldi r23,lo8(0)
 303               	.LVL15:
 304               	.L29:
 305 016c CB01      		movw r24,r22
 306 016e 022E      		mov r0,r18
 307 0170 00C0      		rjmp 2f
 308 0172 9595      	1:	asr r25
 309 0174 8795      		ror r24
 310 0176 0A94      	2:	dec r0
 311 0178 02F4      		brpl 1b
 312 017a 80FD      		sbrc r24,0
 313               	.LM48:
 314 017c 4F5F      		subi r20,lo8(-(1))
 315               	.L28:
 316 017e 2F5F      		subi r18,lo8(-(1))
 317 0180 3F4F      		sbci r19,hi8(-(1))
 318               	.LM49:
 319 0182 2830      		cpi r18,8
 320 0184 3105      		cpc r19,__zero_reg__
 321 0186 01F4      		brne .L29
 322 0188 3196      		adiw r30,1
 323 018a 1196      		adiw r26,1
 324               	.LM50:
 325 018c 70E0      		ldi r23,hi8(ghostFilterMatrix+17)
 326 018e E030      		cpi r30,lo8(ghostFilterMatrix+17)
 327 0190 F707      		cpc r31,r23
 328               	.LVL16:
 329 0192 01F4      		brne .L30
 330 0194 81E0      		ldi r24,lo8(1)
 331               	.LVL17:
 332               	.L25:
 333               	/* epilogue start */
 334               	.LM51:
 335 0196 DF91      		pop r29
 336 0198 CF91      		pop r28
 337 019a 1F91      		pop r17
 338 019c 0F91      		pop r16
 339 019e FF90      		pop r15
 340 01a0 EF90      		pop r14
 341 01a2 DF90      		pop r13
 342               	.LVL18:
GAS LISTING C:\Users\ADMINI~1\AppData\Local\Temp/ccvC2rQa.s 			page 7


 343 01a4 BF90      		pop r11
 344 01a6 AF90      		pop r10
 345 01a8 9F90      		pop r9
 346 01aa 8F90      		pop r8
 347 01ac 0895      		ret
 348               	.LFE12:
 349               		.size	getLiveMatrix, .-getLiveMatrix
 350               	.global	setCurrentMatrix
 351               		.type	setCurrentMatrix, @function
 352               	setCurrentMatrix:
 353               	.LFB14:
 354               	.LM52:
 355 01ae 1F93      		push r17
 356               	/* prologue: function */
 357               	/* frame size = 0 */
 358               	.LM53:
 359 01b0 0E94 0000 		call startKeyMapping
 360               	.LM54:
 361 01b4 0E94 0000 		call getLiveMatrix
 362 01b8 182F      		mov r17,r24
 363               	.LVL19:
 364               	.LM55:
 365 01ba 0E94 0000 		call enterFrameForMapper
 366               	.LM56:
 367 01be 0E94 0000 		call isReadyKeyMappingOnBoot
 368 01c2 8111      		cpse r24,__zero_reg__
 369 01c4 10E0      		ldi r17,lo8(0)
 370               	.L40:
 371               	.LM57:
 372 01c6 812F      		mov r24,r17
 373               	/* epilogue start */
 374 01c8 1F91      		pop r17
 375               	.LVL20:
 376 01ca 0895      		ret
 377               	.LFE14:
 378               		.size	setCurrentMatrix, .-setCurrentMatrix
 379               	.global	getLayer
 380               		.type	getLayer, @function
 381               	getLayer:
 382               	.LFB11:
 383               	.LM58:
 384 01cc 4F92      		push r4
 385 01ce 5F92      		push r5
 386 01d0 6F92      		push r6
 387 01d2 7F92      		push r7
 388 01d4 9F92      		push r9
 389 01d6 AF92      		push r10
 390 01d8 BF92      		push r11
 391 01da CF92      		push r12
 392 01dc DF92      		push r13
 393 01de EF92      		push r14
 394 01e0 FF92      		push r15
 395 01e2 0F93      		push r16
 396 01e4 1F93      		push r17
 397 01e6 CF93      		push r28
 398 01e8 DF93      		push r29
 399               	/* prologue: function */
GAS LISTING C:\Users\ADMINI~1\AppData\Local\Temp/ccvC2rQa.s 			page 8


 400               	/* frame size = 0 */
 401               	.LM59:
 402 01ea EE24      		clr r14
 403 01ec FF24      		clr r15
 404               	.LM60:
 405 01ee 51E0      		ldi r21,lo8(1)
 406 01f0 C52E      		mov r12,r21
 407 01f2 D12C      		mov r13,__zero_reg__
 408               	.LM61:
 409 01f4 47E1      		ldi r20,lo8(23)
 410 01f6 442E      		mov r4,r20
 411 01f8 512C      		mov r5,__zero_reg__
 412               	.LM62:
 413 01fa 3FE0      		ldi r19,lo8(15)
 414 01fc 632E      		mov r6,r19
 415 01fe 712C      		mov r7,__zero_reg__
 416 0200 00C0      		rjmp .L43
 417               	.LVL21:
 418               	.L55:
 419               	.LM63:
 420 0202 0C2F      		mov r16,r28
 421               	.LM64:
 422 0204 8091 0000 		lds r24,_currentLayer
 423 0208 6C2F      		mov r22,r28
 424 020a 492D      		mov r20,r9
 425 020c 0E94 0000 		call getCurrentKeycode
 426               	.LVL22:
 427 0210 182F      		mov r17,r24
 428               	.LM65:
 429 0212 865D      		subi r24,lo8(-(42))
 430 0214 8031      		cpi r24,lo8(16)
 431 0216 00F4      		brsh .L44
 432               	.LM66:
 433 0218 E12F      		mov r30,r17
 434 021a F0E0      		ldi r31,lo8(0)
 435               	.LVL23:
 436 021c E050      		subi r30,lo8(-(dualActionMaskDown-214))
 437 021e F040      		sbci r31,hi8(-(dualActionMaskDown-214))
 438               	.LVL24:
 439 0220 1081      		ld r17,Z
 440               	.LVL25:
 441               	.L44:
 442               	.LM67:
 443 0222 812F      		mov r24,r17
 444 0224 865F      		subi r24,lo8(-(10))
 445 0226 8230      		cpi r24,lo8(2)
 446 0228 00F0      		brlo .L45
 447 022a 1E3F      		cpi r17,lo8(-2)
 448 022c 01F0      		breq .L45
 449 022e 183F      		cpi r17,lo8(-8)
 450 0230 01F0      		breq .L45
 451 0232 1B3F      		cpi r17,lo8(-5)
 452 0234 01F0      		breq .+2
 453 0236 00C0      		rjmp .L46
 454 0238 8091 0000 		lds r24,_currentLayer
 455 023c 8230      		cpi r24,lo8(2)
 456 023e 01F0      		breq .+2
GAS LISTING C:\Users\ADMINI~1\AppData\Local\Temp/ccvC2rQa.s 			page 9


 457 0240 00C0      		rjmp .L46
 458               	.L45:
 459               	.LM68:
 460 0242 A7BA      		out 55-32,r10
 461               	.LM69:
 462 0244 B8BA      		out 56-32,r11
 463               	.LM70:
 464 0246 81E0      		ldi r24,lo8(1)
 465 0248 90E0      		ldi r25,hi8(1)
 466 024a 0E94 0000 		call _delay_us_m
 467               	.LVL26:
 468               	.LM71:
 469 024e 0830      		cpi r16,lo8(8)
 470 0250 00F4      		brsh .L47
 471               	.LM72:
 472 0252 29B3      		in r18,57-32
 473               	.LVL27:
 474 0254 C601      		movw r24,r12
 475 0256 0C2E      		mov r0,r28
 476 0258 00C0      		rjmp 2f
 477 025a 880F      	1:	lsl r24
 478 025c 991F      		rol r25
 479 025e 0A94      	2:	dec r0
 480 0260 02F4      		brpl 1b
 481 0262 00C0      		rjmp .L61
 482               	.LVL28:
 483               	.L47:
 484               	.LM73:
 485 0264 0850      		subi r16,lo8(-(-8))
 486 0266 0830      		cpi r16,lo8(8)
 487 0268 00F4      		brsh .L49
 488               	.LM74:
 489 026a 23B3      		in r18,51-32
 490               	.LVL29:
 491 026c C301      		movw r24,r6
 492 026e 00C0      		rjmp .L64
 493               	.LVL30:
 494               	.L49:
 495               	.LM75:
 496 0270 20B3      		in r18,48-32
 497               	.LVL31:
 498 0272 C201      		movw r24,r4
 499               	.L64:
 500 0274 8C1B      		sub r24,r28
 501 0276 9D0B      		sbc r25,r29
 502 0278 A601      		movw r20,r12
 503 027a 00C0      		rjmp 2f
 504 027c 440F      	1:	lsl r20
 505 027e 551F      		rol r21
 506 0280 8A95      	2:	dec r24
 507 0282 02F4      		brpl 1b
 508 0284 CA01      		movw r24,r20
 509               	.L61:
 510 0286 2095      		com r18
 511 0288 2823      		and r18,r24
 512               	.LM76:
 513 028a 01F0      		breq .L46
GAS LISTING C:\Users\ADMINI~1\AppData\Local\Temp/ccvC2rQa.s 			page 10


 514               	.LM77:
 515 028c 1E3F      		cpi r17,lo8(-2)
 516 028e 01F0      		breq .L62
 517               	.L50:
 518               	.LM78:
 519 0290 183F      		cpi r17,lo8(-8)
 520 0292 01F4      		brne .+2
 521 0294 00C0      		rjmp .L63
 522               	.L52:
 523               	.LM79:
 524 0296 173F      		cpi r17,lo8(-9)
 525 0298 01F4      		brne .L53
 526               	.LM80:
 527 029a 8091 0000 		lds r24,_isAllKeyRelease
 528 029e 8823      		tst r24
 529 02a0 01F0      		breq .L46
 530               	.LM81:
 531 02a2 81E0      		ldi r24,lo8(1)
 532 02a4 8093 0000 		sts isLazyLayer.2281,r24
 533               	.L62:
 534 02a8 91E0      		ldi r25,lo8(1)
 535 02aa 00C0      		rjmp .L51
 536               	.L53:
 537               	.LM82:
 538 02ac 163F      		cpi r17,lo8(-10)
 539 02ae 01F4      		brne .L54
 540               	.LM83:
 541 02b0 8091 0000 		lds r24,_isAllKeyRelease
 542 02b4 8823      		tst r24
 543 02b6 01F0      		breq .L46
 544               	.LM84:
 545 02b8 82E0      		ldi r24,lo8(2)
 546 02ba 8093 0000 		sts isLazyLayer.2281,r24
 547 02be 00C0      		rjmp .L63
 548               	.L54:
 549               	.LM85:
 550 02c0 1B3F      		cpi r17,lo8(-5)
 551 02c2 01F4      		brne .L46
 552 02c4 90E0      		ldi r25,lo8(0)
 553 02c6 00C0      		rjmp .L51
 554               	.LVL32:
 555               	.L46:
 556 02c8 2196      		adiw r28,1
 557               	.LM86:
 558 02ca C131      		cpi r28,17
 559 02cc D105      		cpc r29,__zero_reg__
 560 02ce 01F0      		breq .+2
 561 02d0 00C0      		rjmp .L55
 562 02d2 0894      		sec
 563 02d4 E11C      		adc r14,__zero_reg__
 564 02d6 F11C      		adc r15,__zero_reg__
 565               	.LM87:
 566 02d8 58E0      		ldi r21,lo8(8)
 567 02da E516      		cp r14,r21
 568 02dc F104      		cpc r15,__zero_reg__
 569 02de 01F0      		breq .L56
 570               	.L43:
GAS LISTING C:\Users\ADMINI~1\AppData\Local\Temp/ccvC2rQa.s 			page 11


 571 02e0 9E2C      		mov r9,r14
 572               	.LM88:
 573 02e2 C601      		movw r24,r12
 574 02e4 0E2C      		mov r0,r14
 575 02e6 00C0      		rjmp 2f
 576 02e8 880F      	1:	lsl r24
 577 02ea 991F      		rol r25
 578 02ec 0A94      	2:	dec r0
 579 02ee 02F4      		brpl 1b
 580 02f0 A82E      		mov r10,r24
 581               	.LM89:
 582 02f2 B82E      		mov r11,r24
 583 02f4 B094      		com r11
 584 02f6 C0E0      		ldi r28,lo8(0)
 585 02f8 D0E0      		ldi r29,hi8(0)
 586 02fa 00C0      		rjmp .L55
 587               	.L56:
 588               	.LM90:
 589 02fc 0E94 0000 		call isAllKeyRelease
 590               	.LVL33:
 591 0300 8823      		tst r24
 592 0302 01F0      		breq .L57
 593               	.LM91:
 594 0304 1092 0000 		sts isLazyLayer.2281,__zero_reg__
 595               	.L57:
 596               	.LM92:
 597 0308 9091 0000 		lds r25,isLazyLayer.2281
 598 030c 9923      		tst r25
 599 030e 01F4      		brne .L51
 600               	.LM93:
 601 0310 8091 0000 		lds r24,isBeyondFN
 602 0314 8130      		cpi r24,lo8(1)
 603 0316 01F4      		brne .L58
 604               	.LM94:
 605 0318 82E0      		ldi r24,lo8(2)
 606 031a 8093 0000 		sts _currentLayer,r24
 607               	.LVL34:
 608               	.L63:
 609 031e 92E0      		ldi r25,lo8(2)
 610 0320 00C0      		rjmp .L51
 611               	.LVL35:
 612               	.L58:
 613               	.LM95:
 614 0322 1092 0000 		sts _currentLayer,__zero_reg__
 615               	.LVL36:
 616               	.L51:
 617               	.LM96:
 618 0326 892F      		mov r24,r25
 619               	/* epilogue start */
 620 0328 DF91      		pop r29
 621 032a CF91      		pop r28
 622 032c 1F91      		pop r17
 623               	.LVL37:
 624 032e 0F91      		pop r16
 625               	.LVL38:
 626 0330 FF90      		pop r15
 627 0332 EF90      		pop r14
GAS LISTING C:\Users\ADMINI~1\AppData\Local\Temp/ccvC2rQa.s 			page 12


 628 0334 DF90      		pop r13
 629 0336 CF90      		pop r12
 630 0338 BF90      		pop r11
 631 033a AF90      		pop r10
 632 033c 9F90      		pop r9
 633               	.LVL39:
 634 033e 7F90      		pop r7
 635 0340 6F90      		pop r6
 636 0342 5F90      		pop r5
 637 0344 4F90      		pop r4
 638 0346 0895      		ret
 639               	.LFE11:
 640               		.size	getLayer, .-getLayer
 641               	.global	applyFN
 642               		.type	applyFN, @function
 643               	applyFN:
 644               	.LFB10:
 645               	.LM97:
 646               	.LVL40:
 647 0348 0F93      		push r16
 648 034a 1F93      		push r17
 649               	/* prologue: function */
 650               	/* frame size = 0 */
 651 034c 182F      		mov r17,r24
 652 034e 062F      		mov r16,r22
 653               	.LM98:
 654 0350 8E3F      		cpi r24,lo8(-2)
 655 0352 01F4      		brne .+2
 656 0354 00C0      		rjmp .L66
 657               	.LVL41:
 658               	.LM99:
 659 0356 0E94 0000 		call setDualAction
 660               	.LVL42:
 661               	.LM100:
 662 035a 0023      		tst r16
 663 035c 01F0      		breq .L67
 664               	.LM101:
 665 035e 0E94 0000 		call applyKeyDownForFullLED
 666               	.LM102:
 667 0362 1C3F      		cpi r17,lo8(-4)
 668 0364 01F0      		breq .L68
 669 0366 8091 0000 		lds r24,_isExtraFNDown
 670 036a 8823      		tst r24
 671 036c 01F0      		breq .L69
 672 036e 1A32      		cpi r17,lo8(42)
 673 0370 01F4      		brne .L69
 674               	.LM103:
 675 0372 1092 0000 		sts isBeyondFN,__zero_reg__
 676 0376 00C0      		rjmp .L70
 677               	.L68:
 678               	.LM104:
 679 0378 8091 0000 		lds r24,isBeyondFN
 680 037c 91E0      		ldi r25,lo8(1)
 681 037e 8927      		eor r24,r25
 682 0380 8093 0000 		sts isBeyondFN,r24
 683               	.L70:
 684               	.LM105:
GAS LISTING C:\Users\ADMINI~1\AppData\Local\Temp/ccvC2rQa.s 			page 13


 685 0384 8091 0000 		lds r24,isBeyondFN
 686 0388 8823      		tst r24
 687 038a 01F4      		brne .L66
 688               	.LM106:
 689 038c 0E94 0000 		call getLEDState
 690 0390 80FF      		sbrs r24,0
 691 0392 00C0      		rjmp .L71
 692               	.LM107:
 693 0394 959A      		sbi 50-32,5
 694 0396 00C0      		rjmp .L66
 695               	.L71:
 696               	.LM108:
 697 0398 9598      		cbi 50-32,5
 698 039a 00C0      		rjmp .L66
 699               	.L69:
 700               	.LM109:
 701 039c 1932      		cpi r17,lo8(41)
 702 039e 01F4      		brne .L73
 703               	.LM110:
 704 03a0 81E0      		ldi r24,lo8(1)
 705 03a2 8093 0000 		sts _isExtraFNDown,r24
 706 03a6 00C0      		rjmp .L72
 707               	.L73:
 708               	.LM111:
 709 03a8 8823      		tst r24
 710 03aa 01F0      		breq .L74
 711 03ac 1933      		cpi r17,lo8(57)
 712 03ae 01F0      		breq .L75
 713               	.L74:
 714 03b0 1D3F      		cpi r17,lo8(-3)
 715 03b2 01F4      		brne .L76
 716               	.L75:
 717               	.LM112:
 718 03b4 0E94 0000 		call changeFullLedState
 719 03b8 00C0      		rjmp .L66
 720               	.L76:
 721               	.LM113:
 722 03ba 1A3F      		cpi r17,lo8(-6)
 723 03bc 01F4      		brne .L77
 724               	.LM114:
 725 03be 0E94 0000 		call increaseLedBrightness
 726 03c2 00C0      		rjmp .L66
 727               	.L77:
 728               	.LM115:
 729 03c4 193F      		cpi r17,lo8(-7)
 730 03c6 01F4      		brne .L78
 731               	.LM116:
 732 03c8 0E94 0000 		call reduceLedBrightness
 733 03cc 00C0      		rjmp .L66
 734               	.L67:
 735               	.LM117:
 736 03ce 1C3F      		cpi r17,lo8(-4)
 737 03d0 01F0      		breq .L66
 738               	.LM118:
 739 03d2 1932      		cpi r17,lo8(41)
 740 03d4 01F4      		brne .L78
 741               	.LM119:
GAS LISTING C:\Users\ADMINI~1\AppData\Local\Temp/ccvC2rQa.s 			page 14


 742 03d6 1092 0000 		sts _isExtraFNDown,__zero_reg__
 743 03da 00C0      		rjmp .L78
 744               	.LVL43:
 745               	.L66:
 746 03dc 80E0      		ldi r24,lo8(0)
 747 03de 00C0      		rjmp .L72
 748               	.LVL44:
 749               	.L78:
 750 03e0 81E0      		ldi r24,lo8(1)
 751               	.LVL45:
 752               	.L72:
 753               	/* epilogue start */
 754               	.LM120:
 755 03e2 1F91      		pop r17
 756               	.LVL46:
 757 03e4 0F91      		pop r16
 758               	.LVL47:
 759 03e6 0895      		ret
 760               	.LFE10:
 761               		.size	applyFN, .-applyFN
 762               	.global	isBeyondFN
 763               	.global	isBeyondFN
 764               		.section .bss
 765               		.type	isBeyondFN, @object
 766               		.size	isBeyondFN, 1
 767               	isBeyondFN:
 768 0000 00        		.skip 1,0
 769               	.global	_currentLayer
 770               	.global	_currentLayer
 771               		.type	_currentLayer, @object
 772               		.size	_currentLayer, 1
 773               	_currentLayer:
 774 0001 00        		.skip 1,0
 775               	.global	modmask
 776               		.data
 777               		.type	modmask, @object
 778               		.size	modmask, 32
 779               	modmask:
 780 0000 0100      		.word	1
 781 0002 0200      		.word	2
 782 0004 0400      		.word	4
 783 0006 0800      		.word	8
 784 0008 1000      		.word	16
 785 000a 2000      		.word	32
 786 000c 4000      		.word	64
 787 000e 8000      		.word	128
 788 0010 0001      		.word	256
 789 0012 0002      		.word	512
 790 0014 0004      		.word	1024
 791 0016 0008      		.word	2048
 792 0018 0010      		.word	4096
 793 001a 0020      		.word	8192
 794 001c 0040      		.word	16384
 795 001e 0080      		.word	-32768
 796               		.type	debounce, @object
 797               		.size	debounce, 1
 798               	debounce:
GAS LISTING C:\Users\ADMINI~1\AppData\Local\Temp/ccvC2rQa.s 			page 15


 799 0020 0A        		.byte	10
 800               		.type	debounceMAX, @object
 801               		.size	debounceMAX, 1
 802               	debounceMAX:
 803 0021 05        		.byte	5
 804               		.lcomm _isAllKeyRelease,1
 805               		.lcomm isLazyLayer.2281,1
 806               		.lcomm _isExtraFNDown,1
 807               		.comm prevMatrix,17,1
 808               		.comm currentMatrix,17,1
 809               		.comm ghostFilterMatrix,17,1
 810               		.section	.debug_frame,"",@progbits
 811               	.Lframe0:
 812 0000 0C00 0000 		.long	.LECIE0-.LSCIE0
 813               	.LSCIE0:
 814 0004 FFFF FFFF 		.long	0xffffffff
 815 0008 01        		.byte	0x1
 816 0009 00        		.string	""
 817 000a 01        		.uleb128 0x1
 818 000b 7F        		.sleb128 -1
 819 000c 24        		.byte	0x24
 820 000d 0C        		.byte	0xc
 821 000e 20        		.uleb128 0x20
 822 000f 00        		.uleb128 0x0
 823               		.p2align	2
 824               	.LECIE0:
 825               	.LSFDE0:
 826 0010 0C00 0000 		.long	.LEFDE0-.LASFDE0
 827               	.LASFDE0:
 828 0014 0000 0000 		.long	.Lframe0
 829 0018 0000 0000 		.long	.LFB8
 830 001c 2400 0000 		.long	.LFE8-.LFB8
 831               		.p2align	2
 832               	.LEFDE0:
 833               	.LSFDE2:
 834 0020 0C00 0000 		.long	.LEFDE2-.LASFDE2
 835               	.LASFDE2:
 836 0024 0000 0000 		.long	.Lframe0
 837 0028 0000 0000 		.long	.LFB9
 838 002c 2600 0000 		.long	.LFE9-.LFB9
 839               		.p2align	2
 840               	.LEFDE2:
 841               	.LSFDE4:
 842 0030 0C00 0000 		.long	.LEFDE4-.LASFDE4
 843               	.LASFDE4:
 844 0034 0000 0000 		.long	.Lframe0
 845 0038 0000 0000 		.long	.LFB13
 846 003c 0600 0000 		.long	.LFE13-.LFB13
 847               		.p2align	2
 848               	.LEFDE4:
 849               	.LSFDE6:
 850 0040 0C00 0000 		.long	.LEFDE6-.LASFDE6
 851               	.LASFDE6:
 852 0044 0000 0000 		.long	.Lframe0
 853 0048 0000 0000 		.long	.LFB12
 854 004c 5E01 0000 		.long	.LFE12-.LFB12
 855               		.p2align	2
GAS LISTING C:\Users\ADMINI~1\AppData\Local\Temp/ccvC2rQa.s 			page 16


 856               	.LEFDE6:
 857               	.LSFDE8:
 858 0050 0C00 0000 		.long	.LEFDE8-.LASFDE8
 859               	.LASFDE8:
 860 0054 0000 0000 		.long	.Lframe0
 861 0058 0000 0000 		.long	.LFB14
 862 005c 1E00 0000 		.long	.LFE14-.LFB14
 863               		.p2align	2
 864               	.LEFDE8:
 865               	.LSFDE10:
 866 0060 0C00 0000 		.long	.LEFDE10-.LASFDE10
 867               	.LASFDE10:
 868 0064 0000 0000 		.long	.Lframe0
 869 0068 0000 0000 		.long	.LFB11
 870 006c 7C01 0000 		.long	.LFE11-.LFB11
 871               		.p2align	2
 872               	.LEFDE10:
 873               	.LSFDE12:
 874 0070 0C00 0000 		.long	.LEFDE12-.LASFDE12
 875               	.LASFDE12:
 876 0074 0000 0000 		.long	.Lframe0
 877 0078 0000 0000 		.long	.LFB10
 878 007c A000 0000 		.long	.LFE10-.LFB10
 879               		.p2align	2
 880               	.LEFDE12:
 881               		.text
 882               	.Letext0:
 883               		.section	.debug_loc,"",@progbits
 884               	.Ldebug_loc0:
 885               	.LLST4:
 886 0000 AC00 0000 		.long	.LVL4-.Ltext0
 887 0004 B000 0000 		.long	.LVL5-.Ltext0
 888 0008 0100      		.word	0x1
 889 000a 68        		.byte	0x68
 890 000b B000 0000 		.long	.LVL5-.Ltext0
 891 000f C000 0000 		.long	.LVL6-.Ltext0
 892 0013 0100      		.word	0x1
 893 0015 64        		.byte	0x64
 894 0016 C200 0000 		.long	.LVL7-.Ltext0
 895 001a C400 0000 		.long	.LVL8-.Ltext0
 896 001e 0100      		.word	0x1
 897 0020 64        		.byte	0x64
 898 0021 C400 0000 		.long	.LVL8-.Ltext0
 899 0025 CC00 0000 		.long	.LVL9-.Ltext0
 900 0029 0100      		.word	0x1
 901 002b 68        		.byte	0x68
 902 002c CE00 0000 		.long	.LVL10-.Ltext0
 903 0030 D200 0000 		.long	.LVL11-.Ltext0
 904 0034 0100      		.word	0x1
 905 0036 68        		.byte	0x68
 906 0037 0000 0000 		.long	0x0
 907 003b 0000 0000 		.long	0x0
 908               	.LLST5:
 909 003f 7E00 0000 		.long	.LVL1-.Ltext0
 910 0043 9C00 0000 		.long	.LVL2-.Ltext0
 911 0047 0100      		.word	0x1
 912 0049 62        		.byte	0x62
GAS LISTING C:\Users\ADMINI~1\AppData\Local\Temp/ccvC2rQa.s 			page 17


 913 004a AA00 0000 		.long	.LVL3-.Ltext0
 914 004e 6801 0000 		.long	.LVL14-.Ltext0
 915 0052 0100      		.word	0x1
 916 0054 62        		.byte	0x62
 917 0055 9601 0000 		.long	.LVL17-.Ltext0
 918 0059 AE01 0000 		.long	.LFE12-.Ltext0
 919 005d 0100      		.word	0x1
 920 005f 62        		.byte	0x62
 921 0060 0000 0000 		.long	0x0
 922 0064 0000 0000 		.long	0x0
 923               	.LLST6:
 924 0068 6800 0000 		.long	.LVL0-.Ltext0
 925 006c A401 0000 		.long	.LVL18-.Ltext0
 926 0070 0100      		.word	0x1
 927 0072 5D        		.byte	0x5d
 928 0073 0000 0000 		.long	0x0
 929 0077 0000 0000 		.long	0x0
 930               	.LLST7:
 931 007b 4A01 0000 		.long	.LVL12-.Ltext0
 932 007f 6C01 0000 		.long	.LVL15-.Ltext0
 933 0083 0100      		.word	0x1
 934 0085 65        		.byte	0x65
 935 0086 6C01 0000 		.long	.LVL15-.Ltext0
 936 008a 9201 0000 		.long	.LVL16-.Ltext0
 937 008e 0600      		.word	0x6
 938 0090 66        		.byte	0x66
 939 0091 93        		.byte	0x93
 940 0092 01        		.uleb128 0x1
 941 0093 67        		.byte	0x67
 942 0094 93        		.byte	0x93
 943 0095 01        		.uleb128 0x1
 944 0096 9201 0000 		.long	.LVL16-.Ltext0
 945 009a AE01 0000 		.long	.LFE12-.Ltext0
 946 009e 0100      		.word	0x1
 947 00a0 66        		.byte	0x66
 948 00a1 0000 0000 		.long	0x0
 949 00a5 0000 0000 		.long	0x0
 950               	.LLST9:
 951 00a9 BA01 0000 		.long	.LVL19-.Ltext0
 952 00ad CA01 0000 		.long	.LVL20-.Ltext0
 953 00b1 0100      		.word	0x1
 954 00b3 61        		.byte	0x61
 955 00b4 0000 0000 		.long	0x0
 956 00b8 0000 0000 		.long	0x0
 957               	.LLST11:
 958 00bc 0202 0000 		.long	.LVL21-.Ltext0
 959 00c0 3E03 0000 		.long	.LVL39-.Ltext0
 960 00c4 0100      		.word	0x1
 961 00c6 59        		.byte	0x59
 962 00c7 0000 0000 		.long	0x0
 963 00cb 0000 0000 		.long	0x0
 964               	.LLST12:
 965 00cf 0202 0000 		.long	.LVL21-.Ltext0
 966 00d3 3003 0000 		.long	.LVL38-.Ltext0
 967 00d7 0100      		.word	0x1
 968 00d9 60        		.byte	0x60
 969 00da 0000 0000 		.long	0x0
GAS LISTING C:\Users\ADMINI~1\AppData\Local\Temp/ccvC2rQa.s 			page 18


 970 00de 0000 0000 		.long	0x0
 971               	.LLST13:
 972 00e2 0202 0000 		.long	.LVL21-.Ltext0
 973 00e6 1002 0000 		.long	.LVL22-.Ltext0
 974 00ea 0600      		.word	0x6
 975 00ec 61        		.byte	0x61
 976 00ed 93        		.byte	0x93
 977 00ee 01        		.uleb128 0x1
 978 00ef 6F        		.byte	0x6f
 979 00f0 93        		.byte	0x93
 980 00f1 01        		.uleb128 0x1
 981 00f2 1002 0000 		.long	.LVL22-.Ltext0
 982 00f6 1C02 0000 		.long	.LVL23-.Ltext0
 983 00fa 0100      		.word	0x1
 984 00fc 61        		.byte	0x61
 985 00fd 1C02 0000 		.long	.LVL23-.Ltext0
 986 0101 2202 0000 		.long	.LVL25-.Ltext0
 987 0105 0600      		.word	0x6
 988 0107 6E        		.byte	0x6e
 989 0108 93        		.byte	0x93
 990 0109 01        		.uleb128 0x1
 991 010a 6F        		.byte	0x6f
 992 010b 93        		.byte	0x93
 993 010c 01        		.uleb128 0x1
 994 010d 2202 0000 		.long	.LVL25-.Ltext0
 995 0111 4E02 0000 		.long	.LVL26-.Ltext0
 996 0115 0600      		.word	0x6
 997 0117 61        		.byte	0x61
 998 0118 93        		.byte	0x93
 999 0119 01        		.uleb128 0x1
 1000 011a 6F        		.byte	0x6f
 1001 011b 93        		.byte	0x93
 1002 011c 01        		.uleb128 0x1
 1003 011d 4E02 0000 		.long	.LVL26-.Ltext0
 1004 0121 C802 0000 		.long	.LVL32-.Ltext0
 1005 0125 0100      		.word	0x1
 1006 0127 61        		.byte	0x61
 1007 0128 C802 0000 		.long	.LVL32-.Ltext0
 1008 012c 0003 0000 		.long	.LVL33-.Ltext0
 1009 0130 0600      		.word	0x6
 1010 0132 61        		.byte	0x61
 1011 0133 93        		.byte	0x93
 1012 0134 01        		.uleb128 0x1
 1013 0135 6F        		.byte	0x6f
 1014 0136 93        		.byte	0x93
 1015 0137 01        		.uleb128 0x1
 1016 0138 0003 0000 		.long	.LVL33-.Ltext0
 1017 013c 2E03 0000 		.long	.LVL37-.Ltext0
 1018 0140 0100      		.word	0x1
 1019 0142 61        		.byte	0x61
 1020 0143 0000 0000 		.long	0x0
 1021 0147 0000 0000 		.long	0x0
 1022               	.LLST14:
 1023 014b 0202 0000 		.long	.LVL21-.Ltext0
 1024 014f 1002 0000 		.long	.LVL22-.Ltext0
 1025 0153 0100      		.word	0x1
 1026 0155 62        		.byte	0x62
GAS LISTING C:\Users\ADMINI~1\AppData\Local\Temp/ccvC2rQa.s 			page 19


 1027 0156 5402 0000 		.long	.LVL27-.Ltext0
 1028 015a 6402 0000 		.long	.LVL28-.Ltext0
 1029 015e 0100      		.word	0x1
 1030 0160 62        		.byte	0x62
 1031 0161 6C02 0000 		.long	.LVL29-.Ltext0
 1032 0165 7002 0000 		.long	.LVL30-.Ltext0
 1033 0169 0100      		.word	0x1
 1034 016b 62        		.byte	0x62
 1035 016c 7202 0000 		.long	.LVL31-.Ltext0
 1036 0170 0003 0000 		.long	.LVL33-.Ltext0
 1037 0174 0100      		.word	0x1
 1038 0176 62        		.byte	0x62
 1039 0177 1E03 0000 		.long	.LVL34-.Ltext0
 1040 017b 2203 0000 		.long	.LVL35-.Ltext0
 1041 017f 0100      		.word	0x1
 1042 0181 62        		.byte	0x62
 1043 0182 2603 0000 		.long	.LVL36-.Ltext0
 1044 0186 4803 0000 		.long	.LFE11-.Ltext0
 1045 018a 0100      		.word	0x1
 1046 018c 62        		.byte	0x62
 1047 018d 0000 0000 		.long	0x0
 1048 0191 0000 0000 		.long	0x0
 1049               	.LLST16:
 1050 0195 4803 0000 		.long	.LVL40-.Ltext0
 1051 0199 5A03 0000 		.long	.LVL42-.Ltext0
 1052 019d 0100      		.word	0x1
 1053 019f 68        		.byte	0x68
 1054 01a0 5A03 0000 		.long	.LVL42-.Ltext0
 1055 01a4 E403 0000 		.long	.LVL46-.Ltext0
 1056 01a8 0100      		.word	0x1
 1057 01aa 61        		.byte	0x61
 1058 01ab 0000 0000 		.long	0x0
 1059 01af 0000 0000 		.long	0x0
 1060               	.LLST17:
 1061 01b3 4803 0000 		.long	.LVL40-.Ltext0
 1062 01b7 5603 0000 		.long	.LVL41-.Ltext0
 1063 01bb 0100      		.word	0x1
 1064 01bd 66        		.byte	0x66
 1065 01be 5603 0000 		.long	.LVL41-.Ltext0
 1066 01c2 E603 0000 		.long	.LVL47-.Ltext0
 1067 01c6 0100      		.word	0x1
 1068 01c8 60        		.byte	0x60
 1069 01c9 E603 0000 		.long	.LVL47-.Ltext0
 1070 01cd E803 0000 		.long	.LFE10-.Ltext0
 1071 01d1 0100      		.word	0x1
 1072 01d3 66        		.byte	0x66
 1073 01d4 0000 0000 		.long	0x0
 1074 01d8 0000 0000 		.long	0x0
 1075               		.section	.debug_info
 1076 0000 6708 0000 		.long	0x867
 1077 0004 0200      		.word	0x2
 1078 0006 0000 0000 		.long	.Ldebug_abbrev0
 1079 000a 04        		.byte	0x4
 1080 000b 01        		.uleb128 0x1
 1081 000c 0000 0000 		.long	.LASF228
 1082 0010 01        		.byte	0x1
 1083 0011 0000 0000 		.long	.LASF229
GAS LISTING C:\Users\ADMINI~1\AppData\Local\Temp/ccvC2rQa.s 			page 20


 1084 0015 0000 0000 		.long	.LASF230
 1085 0019 0000 0000 		.long	.Ltext0
 1086 001d 0000 0000 		.long	.Letext0
 1087 0021 0000 0000 		.long	.Ldebug_line0
 1088 0025 02        		.uleb128 0x2
 1089 0026 01        		.byte	0x1
 1090 0027 08        		.byte	0x8
 1091 0028 0000 0000 		.long	.LASF0
 1092 002c 02        		.uleb128 0x2
 1093 002d 01        		.byte	0x1
 1094 002e 06        		.byte	0x6
 1095 002f 0000 0000 		.long	.LASF1
 1096 0033 02        		.uleb128 0x2
 1097 0034 02        		.byte	0x2
 1098 0035 07        		.byte	0x7
 1099 0036 0000 0000 		.long	.LASF2
 1100 003a 02        		.uleb128 0x2
 1101 003b 02        		.byte	0x2
 1102 003c 05        		.byte	0x5
 1103 003d 0000 0000 		.long	.LASF3
 1104 0041 02        		.uleb128 0x2
 1105 0042 04        		.byte	0x4
 1106 0043 07        		.byte	0x7
 1107 0044 0000 0000 		.long	.LASF4
 1108 0048 02        		.uleb128 0x2
 1109 0049 04        		.byte	0x4
 1110 004a 05        		.byte	0x5
 1111 004b 0000 0000 		.long	.LASF5
 1112 004f 02        		.uleb128 0x2
 1113 0050 08        		.byte	0x8
 1114 0051 07        		.byte	0x7
 1115 0052 0000 0000 		.long	.LASF6
 1116 0056 02        		.uleb128 0x2
 1117 0057 08        		.byte	0x8
 1118 0058 05        		.byte	0x5
 1119 0059 0000 0000 		.long	.LASF7
 1120 005d 02        		.uleb128 0x2
 1121 005e 02        		.byte	0x2
 1122 005f 07        		.byte	0x7
 1123 0060 0000 0000 		.long	.LASF8
 1124 0064 02        		.uleb128 0x2
 1125 0065 01        		.byte	0x1
 1126 0066 06        		.byte	0x6
 1127 0067 0000 0000 		.long	.LASF9
 1128 006b 03        		.uleb128 0x3
 1129 006c 02        		.byte	0x2
 1130 006d 05        		.byte	0x5
 1131 006e 696E 7400 		.string	"int"
 1132 0072 04        		.uleb128 0x4
 1133 0073 0000 0000 		.long	.LASF231
 1134 0077 03        		.byte	0x3
 1135 0078 7A        		.byte	0x7a
 1136 0079 2500 0000 		.long	0x25
 1137 007d 05        		.uleb128 0x5
 1138 007e 01        		.byte	0x1
 1139 007f 06        		.byte	0x6
 1140 0080 05        		.uleb128 0x5
GAS LISTING C:\Users\ADMINI~1\AppData\Local\Temp/ccvC2rQa.s 			page 21


 1141 0081 01        		.byte	0x1
 1142 0082 08        		.byte	0x8
 1143 0083 06        		.uleb128 0x6
 1144 0084 02        		.byte	0x2
 1145 0085 02        		.byte	0x2
 1146 0086 1A        		.byte	0x1a
 1147 0087 0A01 0000 		.long	0x10a
 1148 008b 07        		.uleb128 0x7
 1149 008c 0000 0000 		.long	.LASF10
 1150 0090 D501      		.sleb128 213
 1151 0092 07        		.uleb128 0x7
 1152 0093 0000 0000 		.long	.LASF11
 1153 0097 D601      		.sleb128 214
 1154 0099 07        		.uleb128 0x7
 1155 009a 0000 0000 		.long	.LASF12
 1156 009e D701      		.sleb128 215
 1157 00a0 07        		.uleb128 0x7
 1158 00a1 0000 0000 		.long	.LASF13
 1159 00a5 D801      		.sleb128 216
 1160 00a7 07        		.uleb128 0x7
 1161 00a8 0000 0000 		.long	.LASF14
 1162 00ac D901      		.sleb128 217
 1163 00ae 07        		.uleb128 0x7
 1164 00af 0000 0000 		.long	.LASF15
 1165 00b3 DA01      		.sleb128 218
 1166 00b5 07        		.uleb128 0x7
 1167 00b6 0000 0000 		.long	.LASF16
 1168 00ba DB01      		.sleb128 219
 1169 00bc 07        		.uleb128 0x7
 1170 00bd 0000 0000 		.long	.LASF17
 1171 00c1 DC01      		.sleb128 220
 1172 00c3 07        		.uleb128 0x7
 1173 00c4 0000 0000 		.long	.LASF18
 1174 00c8 DD01      		.sleb128 221
 1175 00ca 07        		.uleb128 0x7
 1176 00cb 0000 0000 		.long	.LASF19
 1177 00cf DE01      		.sleb128 222
 1178 00d1 07        		.uleb128 0x7
 1179 00d2 0000 0000 		.long	.LASF20
 1180 00d6 DF01      		.sleb128 223
 1181 00d8 07        		.uleb128 0x7
 1182 00d9 0000 0000 		.long	.LASF21
 1183 00dd E001      		.sleb128 224
 1184 00df 07        		.uleb128 0x7
 1185 00e0 0000 0000 		.long	.LASF22
 1186 00e4 E101      		.sleb128 225
 1187 00e6 07        		.uleb128 0x7
 1188 00e7 0000 0000 		.long	.LASF23
 1189 00eb E201      		.sleb128 226
 1190 00ed 07        		.uleb128 0x7
 1191 00ee 0000 0000 		.long	.LASF24
 1192 00f2 E301      		.sleb128 227
 1193 00f4 07        		.uleb128 0x7
 1194 00f5 0000 0000 		.long	.LASF25
 1195 00f9 E401      		.sleb128 228
 1196 00fb 07        		.uleb128 0x7
 1197 00fc 0000 0000 		.long	.LASF26
GAS LISTING C:\Users\ADMINI~1\AppData\Local\Temp/ccvC2rQa.s 			page 22


 1198 0100 E501      		.sleb128 229
 1199 0102 07        		.uleb128 0x7
 1200 0103 0000 0000 		.long	.LASF27
 1201 0107 E601      		.sleb128 230
 1202 0109 00        		.byte	0x0
 1203 010a 06        		.uleb128 0x6
 1204 010b 02        		.byte	0x2
 1205 010c 02        		.byte	0x2
 1206 010d 40        		.byte	0x40
 1207 010e A305 0000 		.long	0x5a3
 1208 0112 07        		.uleb128 0x7
 1209 0113 0000 0000 		.long	.LASF28
 1210 0117 00        		.sleb128 0
 1211 0118 07        		.uleb128 0x7
 1212 0119 0000 0000 		.long	.LASF29
 1213 011d 01        		.sleb128 1
 1214 011e 07        		.uleb128 0x7
 1215 011f 0000 0000 		.long	.LASF30
 1216 0123 02        		.sleb128 2
 1217 0124 07        		.uleb128 0x7
 1218 0125 0000 0000 		.long	.LASF31
 1219 0129 03        		.sleb128 3
 1220 012a 07        		.uleb128 0x7
 1221 012b 0000 0000 		.long	.LASF32
 1222 012f 04        		.sleb128 4
 1223 0130 07        		.uleb128 0x7
 1224 0131 0000 0000 		.long	.LASF33
 1225 0135 05        		.sleb128 5
 1226 0136 07        		.uleb128 0x7
 1227 0137 0000 0000 		.long	.LASF34
 1228 013b 06        		.sleb128 6
 1229 013c 07        		.uleb128 0x7
 1230 013d 0000 0000 		.long	.LASF35
 1231 0141 07        		.sleb128 7
 1232 0142 07        		.uleb128 0x7
 1233 0143 0000 0000 		.long	.LASF36
 1234 0147 08        		.sleb128 8
 1235 0148 07        		.uleb128 0x7
 1236 0149 0000 0000 		.long	.LASF37
 1237 014d 09        		.sleb128 9
 1238 014e 07        		.uleb128 0x7
 1239 014f 0000 0000 		.long	.LASF38
 1240 0153 0A        		.sleb128 10
 1241 0154 07        		.uleb128 0x7
 1242 0155 0000 0000 		.long	.LASF39
 1243 0159 0B        		.sleb128 11
 1244 015a 07        		.uleb128 0x7
 1245 015b 0000 0000 		.long	.LASF40
 1246 015f 0C        		.sleb128 12
 1247 0160 07        		.uleb128 0x7
 1248 0161 0000 0000 		.long	.LASF41
 1249 0165 0D        		.sleb128 13
 1250 0166 07        		.uleb128 0x7
 1251 0167 0000 0000 		.long	.LASF42
 1252 016b 0E        		.sleb128 14
 1253 016c 07        		.uleb128 0x7
 1254 016d 0000 0000 		.long	.LASF43
GAS LISTING C:\Users\ADMINI~1\AppData\Local\Temp/ccvC2rQa.s 			page 23


 1255 0171 0F        		.sleb128 15
 1256 0172 07        		.uleb128 0x7
 1257 0173 0000 0000 		.long	.LASF44
 1258 0177 10        		.sleb128 16
 1259 0178 07        		.uleb128 0x7
 1260 0179 0000 0000 		.long	.LASF45
 1261 017d 11        		.sleb128 17
 1262 017e 07        		.uleb128 0x7
 1263 017f 0000 0000 		.long	.LASF46
 1264 0183 12        		.sleb128 18
 1265 0184 07        		.uleb128 0x7
 1266 0185 0000 0000 		.long	.LASF47
 1267 0189 13        		.sleb128 19
 1268 018a 07        		.uleb128 0x7
 1269 018b 0000 0000 		.long	.LASF48
 1270 018f 14        		.sleb128 20
 1271 0190 07        		.uleb128 0x7
 1272 0191 0000 0000 		.long	.LASF49
 1273 0195 15        		.sleb128 21
 1274 0196 07        		.uleb128 0x7
 1275 0197 0000 0000 		.long	.LASF50
 1276 019b 16        		.sleb128 22
 1277 019c 07        		.uleb128 0x7
 1278 019d 0000 0000 		.long	.LASF51
 1279 01a1 17        		.sleb128 23
 1280 01a2 07        		.uleb128 0x7
 1281 01a3 0000 0000 		.long	.LASF52
 1282 01a7 18        		.sleb128 24
 1283 01a8 07        		.uleb128 0x7
 1284 01a9 0000 0000 		.long	.LASF53
 1285 01ad 19        		.sleb128 25
 1286 01ae 07        		.uleb128 0x7
 1287 01af 0000 0000 		.long	.LASF54
 1288 01b3 1A        		.sleb128 26
 1289 01b4 07        		.uleb128 0x7
 1290 01b5 0000 0000 		.long	.LASF55
 1291 01b9 1B        		.sleb128 27
 1292 01ba 07        		.uleb128 0x7
 1293 01bb 0000 0000 		.long	.LASF56
 1294 01bf 1C        		.sleb128 28
 1295 01c0 07        		.uleb128 0x7
 1296 01c1 0000 0000 		.long	.LASF57
 1297 01c5 1D        		.sleb128 29
 1298 01c6 07        		.uleb128 0x7
 1299 01c7 0000 0000 		.long	.LASF58
 1300 01cb 1E        		.sleb128 30
 1301 01cc 07        		.uleb128 0x7
 1302 01cd 0000 0000 		.long	.LASF59
 1303 01d1 1F        		.sleb128 31
 1304 01d2 07        		.uleb128 0x7
 1305 01d3 0000 0000 		.long	.LASF60
 1306 01d7 20        		.sleb128 32
 1307 01d8 07        		.uleb128 0x7
 1308 01d9 0000 0000 		.long	.LASF61
 1309 01dd 21        		.sleb128 33
 1310 01de 07        		.uleb128 0x7
 1311 01df 0000 0000 		.long	.LASF62
GAS LISTING C:\Users\ADMINI~1\AppData\Local\Temp/ccvC2rQa.s 			page 24


 1312 01e3 22        		.sleb128 34
 1313 01e4 07        		.uleb128 0x7
 1314 01e5 0000 0000 		.long	.LASF63
 1315 01e9 23        		.sleb128 35
 1316 01ea 07        		.uleb128 0x7
 1317 01eb 0000 0000 		.long	.LASF64
 1318 01ef 24        		.sleb128 36
 1319 01f0 07        		.uleb128 0x7
 1320 01f1 0000 0000 		.long	.LASF65
 1321 01f5 25        		.sleb128 37
 1322 01f6 07        		.uleb128 0x7
 1323 01f7 0000 0000 		.long	.LASF66
 1324 01fb 26        		.sleb128 38
 1325 01fc 07        		.uleb128 0x7
 1326 01fd 0000 0000 		.long	.LASF67
 1327 0201 27        		.sleb128 39
 1328 0202 07        		.uleb128 0x7
 1329 0203 0000 0000 		.long	.LASF68
 1330 0207 28        		.sleb128 40
 1331 0208 07        		.uleb128 0x7
 1332 0209 0000 0000 		.long	.LASF69
 1333 020d 29        		.sleb128 41
 1334 020e 07        		.uleb128 0x7
 1335 020f 0000 0000 		.long	.LASF70
 1336 0213 2A        		.sleb128 42
 1337 0214 07        		.uleb128 0x7
 1338 0215 0000 0000 		.long	.LASF71
 1339 0219 2B        		.sleb128 43
 1340 021a 07        		.uleb128 0x7
 1341 021b 0000 0000 		.long	.LASF72
 1342 021f 2C        		.sleb128 44
 1343 0220 07        		.uleb128 0x7
 1344 0221 0000 0000 		.long	.LASF73
 1345 0225 2D        		.sleb128 45
 1346 0226 07        		.uleb128 0x7
 1347 0227 0000 0000 		.long	.LASF74
 1348 022b 2E        		.sleb128 46
 1349 022c 07        		.uleb128 0x7
 1350 022d 0000 0000 		.long	.LASF75
 1351 0231 2F        		.sleb128 47
 1352 0232 07        		.uleb128 0x7
 1353 0233 0000 0000 		.long	.LASF76
 1354 0237 30        		.sleb128 48
 1355 0238 07        		.uleb128 0x7
 1356 0239 0000 0000 		.long	.LASF77
 1357 023d 31        		.sleb128 49
 1358 023e 07        		.uleb128 0x7
 1359 023f 0000 0000 		.long	.LASF78
 1360 0243 32        		.sleb128 50
 1361 0244 07        		.uleb128 0x7
 1362 0245 0000 0000 		.long	.LASF79
 1363 0249 33        		.sleb128 51
 1364 024a 07        		.uleb128 0x7
 1365 024b 0000 0000 		.long	.LASF80
 1366 024f 34        		.sleb128 52
 1367 0250 07        		.uleb128 0x7
 1368 0251 0000 0000 		.long	.LASF81
GAS LISTING C:\Users\ADMINI~1\AppData\Local\Temp/ccvC2rQa.s 			page 25


 1369 0255 35        		.sleb128 53
 1370 0256 07        		.uleb128 0x7
 1371 0257 0000 0000 		.long	.LASF82
 1372 025b 36        		.sleb128 54
 1373 025c 07        		.uleb128 0x7
 1374 025d 0000 0000 		.long	.LASF83
 1375 0261 37        		.sleb128 55
 1376 0262 07        		.uleb128 0x7
 1377 0263 0000 0000 		.long	.LASF84
 1378 0267 38        		.sleb128 56
 1379 0268 07        		.uleb128 0x7
 1380 0269 0000 0000 		.long	.LASF85
 1381 026d 39        		.sleb128 57
 1382 026e 07        		.uleb128 0x7
 1383 026f 0000 0000 		.long	.LASF86
 1384 0273 3A        		.sleb128 58
 1385 0274 07        		.uleb128 0x7
 1386 0275 0000 0000 		.long	.LASF87
 1387 0279 3B        		.sleb128 59
 1388 027a 07        		.uleb128 0x7
 1389 027b 0000 0000 		.long	.LASF88
 1390 027f 3C        		.sleb128 60
 1391 0280 07        		.uleb128 0x7
 1392 0281 0000 0000 		.long	.LASF89
 1393 0285 3D        		.sleb128 61
 1394 0286 07        		.uleb128 0x7
 1395 0287 0000 0000 		.long	.LASF90
 1396 028b 3E        		.sleb128 62
 1397 028c 07        		.uleb128 0x7
 1398 028d 0000 0000 		.long	.LASF91
 1399 0291 3F        		.sleb128 63
 1400 0292 07        		.uleb128 0x7
 1401 0293 0000 0000 		.long	.LASF92
 1402 0297 C000      		.sleb128 64
 1403 0299 07        		.uleb128 0x7
 1404 029a 0000 0000 		.long	.LASF93
 1405 029e C100      		.sleb128 65
 1406 02a0 07        		.uleb128 0x7
 1407 02a1 0000 0000 		.long	.LASF94
 1408 02a5 C200      		.sleb128 66
 1409 02a7 07        		.uleb128 0x7
 1410 02a8 0000 0000 		.long	.LASF95
 1411 02ac C300      		.sleb128 67
 1412 02ae 07        		.uleb128 0x7
 1413 02af 0000 0000 		.long	.LASF96
 1414 02b3 C400      		.sleb128 68
 1415 02b5 07        		.uleb128 0x7
 1416 02b6 0000 0000 		.long	.LASF97
 1417 02ba C500      		.sleb128 69
 1418 02bc 07        		.uleb128 0x7
 1419 02bd 0000 0000 		.long	.LASF98
 1420 02c1 C600      		.sleb128 70
 1421 02c3 07        		.uleb128 0x7
 1422 02c4 0000 0000 		.long	.LASF99
 1423 02c8 C700      		.sleb128 71
 1424 02ca 07        		.uleb128 0x7
 1425 02cb 0000 0000 		.long	.LASF100
GAS LISTING C:\Users\ADMINI~1\AppData\Local\Temp/ccvC2rQa.s 			page 26


 1426 02cf C800      		.sleb128 72
 1427 02d1 07        		.uleb128 0x7
 1428 02d2 0000 0000 		.long	.LASF101
 1429 02d6 C900      		.sleb128 73
 1430 02d8 07        		.uleb128 0x7
 1431 02d9 0000 0000 		.long	.LASF102
 1432 02dd CA00      		.sleb128 74
 1433 02df 07        		.uleb128 0x7
 1434 02e0 0000 0000 		.long	.LASF103
 1435 02e4 CB00      		.sleb128 75
 1436 02e6 07        		.uleb128 0x7
 1437 02e7 0000 0000 		.long	.LASF104
 1438 02eb CC00      		.sleb128 76
 1439 02ed 07        		.uleb128 0x7
 1440 02ee 0000 0000 		.long	.LASF105
 1441 02f2 CD00      		.sleb128 77
 1442 02f4 07        		.uleb128 0x7
 1443 02f5 0000 0000 		.long	.LASF106
 1444 02f9 CE00      		.sleb128 78
 1445 02fb 07        		.uleb128 0x7
 1446 02fc 0000 0000 		.long	.LASF107
 1447 0300 CF00      		.sleb128 79
 1448 0302 07        		.uleb128 0x7
 1449 0303 0000 0000 		.long	.LASF108
 1450 0307 D000      		.sleb128 80
 1451 0309 07        		.uleb128 0x7
 1452 030a 0000 0000 		.long	.LASF109
 1453 030e D100      		.sleb128 81
 1454 0310 07        		.uleb128 0x7
 1455 0311 0000 0000 		.long	.LASF110
 1456 0315 D200      		.sleb128 82
 1457 0317 07        		.uleb128 0x7
 1458 0318 0000 0000 		.long	.LASF111
 1459 031c D300      		.sleb128 83
 1460 031e 07        		.uleb128 0x7
 1461 031f 0000 0000 		.long	.LASF112
 1462 0323 D400      		.sleb128 84
 1463 0325 07        		.uleb128 0x7
 1464 0326 0000 0000 		.long	.LASF113
 1465 032a D500      		.sleb128 85
 1466 032c 07        		.uleb128 0x7
 1467 032d 0000 0000 		.long	.LASF114
 1468 0331 D600      		.sleb128 86
 1469 0333 07        		.uleb128 0x7
 1470 0334 0000 0000 		.long	.LASF115
 1471 0338 D700      		.sleb128 87
 1472 033a 07        		.uleb128 0x7
 1473 033b 0000 0000 		.long	.LASF116
 1474 033f D800      		.sleb128 88
 1475 0341 07        		.uleb128 0x7
 1476 0342 0000 0000 		.long	.LASF117
 1477 0346 D900      		.sleb128 89
 1478 0348 07        		.uleb128 0x7
 1479 0349 0000 0000 		.long	.LASF118
 1480 034d DA00      		.sleb128 90
 1481 034f 07        		.uleb128 0x7
 1482 0350 0000 0000 		.long	.LASF119
GAS LISTING C:\Users\ADMINI~1\AppData\Local\Temp/ccvC2rQa.s 			page 27


 1483 0354 DB00      		.sleb128 91
 1484 0356 07        		.uleb128 0x7
 1485 0357 0000 0000 		.long	.LASF120
 1486 035b DC00      		.sleb128 92
 1487 035d 07        		.uleb128 0x7
 1488 035e 0000 0000 		.long	.LASF121
 1489 0362 DD00      		.sleb128 93
 1490 0364 07        		.uleb128 0x7
 1491 0365 0000 0000 		.long	.LASF122
 1492 0369 DE00      		.sleb128 94
 1493 036b 07        		.uleb128 0x7
 1494 036c 0000 0000 		.long	.LASF123
 1495 0370 DF00      		.sleb128 95
 1496 0372 07        		.uleb128 0x7
 1497 0373 0000 0000 		.long	.LASF124
 1498 0377 E000      		.sleb128 96
 1499 0379 07        		.uleb128 0x7
 1500 037a 0000 0000 		.long	.LASF125
 1501 037e E100      		.sleb128 97
 1502 0380 07        		.uleb128 0x7
 1503 0381 0000 0000 		.long	.LASF126
 1504 0385 E200      		.sleb128 98
 1505 0387 07        		.uleb128 0x7
 1506 0388 0000 0000 		.long	.LASF127
 1507 038c E300      		.sleb128 99
 1508 038e 07        		.uleb128 0x7
 1509 038f 0000 0000 		.long	.LASF128
 1510 0393 E400      		.sleb128 100
 1511 0395 07        		.uleb128 0x7
 1512 0396 0000 0000 		.long	.LASF129
 1513 039a E500      		.sleb128 101
 1514 039c 07        		.uleb128 0x7
 1515 039d 0000 0000 		.long	.LASF130
 1516 03a1 E600      		.sleb128 102
 1517 03a3 07        		.uleb128 0x7
 1518 03a4 0000 0000 		.long	.LASF131
 1519 03a8 E700      		.sleb128 103
 1520 03aa 07        		.uleb128 0x7
 1521 03ab 0000 0000 		.long	.LASF132
 1522 03af E800      		.sleb128 104
 1523 03b1 07        		.uleb128 0x7
 1524 03b2 0000 0000 		.long	.LASF133
 1525 03b6 E900      		.sleb128 105
 1526 03b8 07        		.uleb128 0x7
 1527 03b9 0000 0000 		.long	.LASF134
 1528 03bd EA00      		.sleb128 106
 1529 03bf 07        		.uleb128 0x7
 1530 03c0 0000 0000 		.long	.LASF135
 1531 03c4 EB00      		.sleb128 107
 1532 03c6 07        		.uleb128 0x7
 1533 03c7 0000 0000 		.long	.LASF136
 1534 03cb EC00      		.sleb128 108
 1535 03cd 07        		.uleb128 0x7
 1536 03ce 0000 0000 		.long	.LASF137
 1537 03d2 ED00      		.sleb128 109
 1538 03d4 07        		.uleb128 0x7
 1539 03d5 0000 0000 		.long	.LASF138
GAS LISTING C:\Users\ADMINI~1\AppData\Local\Temp/ccvC2rQa.s 			page 28


 1540 03d9 EE00      		.sleb128 110
 1541 03db 07        		.uleb128 0x7
 1542 03dc 0000 0000 		.long	.LASF139
 1543 03e0 EF00      		.sleb128 111
 1544 03e2 07        		.uleb128 0x7
 1545 03e3 0000 0000 		.long	.LASF140
 1546 03e7 F000      		.sleb128 112
 1547 03e9 07        		.uleb128 0x7
 1548 03ea 0000 0000 		.long	.LASF141
 1549 03ee F100      		.sleb128 113
 1550 03f0 07        		.uleb128 0x7
 1551 03f1 0000 0000 		.long	.LASF142
 1552 03f5 F200      		.sleb128 114
 1553 03f7 07        		.uleb128 0x7
 1554 03f8 0000 0000 		.long	.LASF143
 1555 03fc F300      		.sleb128 115
 1556 03fe 07        		.uleb128 0x7
 1557 03ff 0000 0000 		.long	.LASF144
 1558 0403 F400      		.sleb128 116
 1559 0405 07        		.uleb128 0x7
 1560 0406 0000 0000 		.long	.LASF145
 1561 040a F500      		.sleb128 117
 1562 040c 07        		.uleb128 0x7
 1563 040d 0000 0000 		.long	.LASF146
 1564 0411 F600      		.sleb128 118
 1565 0413 07        		.uleb128 0x7
 1566 0414 0000 0000 		.long	.LASF147
 1567 0418 F700      		.sleb128 119
 1568 041a 07        		.uleb128 0x7
 1569 041b 0000 0000 		.long	.LASF148
 1570 041f F800      		.sleb128 120
 1571 0421 07        		.uleb128 0x7
 1572 0422 0000 0000 		.long	.LASF149
 1573 0426 F900      		.sleb128 121
 1574 0428 07        		.uleb128 0x7
 1575 0429 0000 0000 		.long	.LASF150
 1576 042d FA00      		.sleb128 122
 1577 042f 07        		.uleb128 0x7
 1578 0430 0000 0000 		.long	.LASF151
 1579 0434 FB00      		.sleb128 123
 1580 0436 07        		.uleb128 0x7
 1581 0437 0000 0000 		.long	.LASF152
 1582 043b FC00      		.sleb128 124
 1583 043d 07        		.uleb128 0x7
 1584 043e 0000 0000 		.long	.LASF153
 1585 0442 FD00      		.sleb128 125
 1586 0444 07        		.uleb128 0x7
 1587 0445 0000 0000 		.long	.LASF154
 1588 0449 FE00      		.sleb128 126
 1589 044b 07        		.uleb128 0x7
 1590 044c 0000 0000 		.long	.LASF155
 1591 0450 FF00      		.sleb128 127
 1592 0452 07        		.uleb128 0x7
 1593 0453 0000 0000 		.long	.LASF156
 1594 0457 8001      		.sleb128 128
 1595 0459 07        		.uleb128 0x7
 1596 045a 0000 0000 		.long	.LASF157
GAS LISTING C:\Users\ADMINI~1\AppData\Local\Temp/ccvC2rQa.s 			page 29


 1597 045e 8101      		.sleb128 129
 1598 0460 07        		.uleb128 0x7
 1599 0461 0000 0000 		.long	.LASF158
 1600 0465 8201      		.sleb128 130
 1601 0467 07        		.uleb128 0x7
 1602 0468 0000 0000 		.long	.LASF159
 1603 046c 8301      		.sleb128 131
 1604 046e 07        		.uleb128 0x7
 1605 046f 0000 0000 		.long	.LASF160
 1606 0473 8401      		.sleb128 132
 1607 0475 07        		.uleb128 0x7
 1608 0476 0000 0000 		.long	.LASF161
 1609 047a 8501      		.sleb128 133
 1610 047c 07        		.uleb128 0x7
 1611 047d 0000 0000 		.long	.LASF162
 1612 0481 8601      		.sleb128 134
 1613 0483 07        		.uleb128 0x7
 1614 0484 0000 0000 		.long	.LASF163
 1615 0488 8701      		.sleb128 135
 1616 048a 07        		.uleb128 0x7
 1617 048b 0000 0000 		.long	.LASF164
 1618 048f 8801      		.sleb128 136
 1619 0491 07        		.uleb128 0x7
 1620 0492 0000 0000 		.long	.LASF165
 1621 0496 8901      		.sleb128 137
 1622 0498 07        		.uleb128 0x7
 1623 0499 0000 0000 		.long	.LASF166
 1624 049d 8A01      		.sleb128 138
 1625 049f 07        		.uleb128 0x7
 1626 04a0 0000 0000 		.long	.LASF167
 1627 04a4 8B01      		.sleb128 139
 1628 04a6 07        		.uleb128 0x7
 1629 04a7 0000 0000 		.long	.LASF168
 1630 04ab 8C01      		.sleb128 140
 1631 04ad 07        		.uleb128 0x7
 1632 04ae 0000 0000 		.long	.LASF169
 1633 04b2 8D01      		.sleb128 141
 1634 04b4 07        		.uleb128 0x7
 1635 04b5 0000 0000 		.long	.LASF170
 1636 04b9 8E01      		.sleb128 142
 1637 04bb 07        		.uleb128 0x7
 1638 04bc 0000 0000 		.long	.LASF171
 1639 04c0 8F01      		.sleb128 143
 1640 04c2 07        		.uleb128 0x7
 1641 04c3 0000 0000 		.long	.LASF172
 1642 04c7 9001      		.sleb128 144
 1643 04c9 07        		.uleb128 0x7
 1644 04ca 0000 0000 		.long	.LASF173
 1645 04ce 9101      		.sleb128 145
 1646 04d0 07        		.uleb128 0x7
 1647 04d1 0000 0000 		.long	.LASF174
 1648 04d5 9201      		.sleb128 146
 1649 04d7 07        		.uleb128 0x7
 1650 04d8 0000 0000 		.long	.LASF175
 1651 04dc 9301      		.sleb128 147
 1652 04de 07        		.uleb128 0x7
 1653 04df 0000 0000 		.long	.LASF176
GAS LISTING C:\Users\ADMINI~1\AppData\Local\Temp/ccvC2rQa.s 			page 30


 1654 04e3 9401      		.sleb128 148
 1655 04e5 07        		.uleb128 0x7
 1656 04e6 0000 0000 		.long	.LASF177
 1657 04ea 9501      		.sleb128 149
 1658 04ec 07        		.uleb128 0x7
 1659 04ed 0000 0000 		.long	.LASF178
 1660 04f1 9601      		.sleb128 150
 1661 04f3 07        		.uleb128 0x7
 1662 04f4 0000 0000 		.long	.LASF179
 1663 04f8 9701      		.sleb128 151
 1664 04fa 07        		.uleb128 0x7
 1665 04fb 0000 0000 		.long	.LASF180
 1666 04ff 9801      		.sleb128 152
 1667 0501 07        		.uleb128 0x7
 1668 0502 0000 0000 		.long	.LASF181
 1669 0506 9901      		.sleb128 153
 1670 0508 07        		.uleb128 0x7
 1671 0509 0000 0000 		.long	.LASF182
 1672 050d 9A01      		.sleb128 154
 1673 050f 07        		.uleb128 0x7
 1674 0510 0000 0000 		.long	.LASF183
 1675 0514 9B01      		.sleb128 155
 1676 0516 07        		.uleb128 0x7
 1677 0517 0000 0000 		.long	.LASF184
 1678 051b 9C01      		.sleb128 156
 1679 051d 07        		.uleb128 0x7
 1680 051e 0000 0000 		.long	.LASF185
 1681 0522 9D01      		.sleb128 157
 1682 0524 07        		.uleb128 0x7
 1683 0525 0000 0000 		.long	.LASF186
 1684 0529 9E01      		.sleb128 158
 1685 052b 07        		.uleb128 0x7
 1686 052c 0000 0000 		.long	.LASF187
 1687 0530 9F01      		.sleb128 159
 1688 0532 07        		.uleb128 0x7
 1689 0533 0000 0000 		.long	.LASF188
 1690 0537 A001      		.sleb128 160
 1691 0539 07        		.uleb128 0x7
 1692 053a 0000 0000 		.long	.LASF189
 1693 053e A101      		.sleb128 161
 1694 0540 07        		.uleb128 0x7
 1695 0541 0000 0000 		.long	.LASF190
 1696 0545 A201      		.sleb128 162
 1697 0547 07        		.uleb128 0x7
 1698 0548 0000 0000 		.long	.LASF191
 1699 054c A301      		.sleb128 163
 1700 054e 07        		.uleb128 0x7
 1701 054f 0000 0000 		.long	.LASF192
 1702 0553 A401      		.sleb128 164
 1703 0555 07        		.uleb128 0x7
 1704 0556 0000 0000 		.long	.LASF193
 1705 055a A501      		.sleb128 165
 1706 055c 07        		.uleb128 0x7
 1707 055d 0000 0000 		.long	.LASF194
 1708 0561 A601      		.sleb128 166
 1709 0563 07        		.uleb128 0x7
 1710 0564 0000 0000 		.long	.LASF195
GAS LISTING C:\Users\ADMINI~1\AppData\Local\Temp/ccvC2rQa.s 			page 31


 1711 0568 A701      		.sleb128 167
 1712 056a 07        		.uleb128 0x7
 1713 056b 0000 0000 		.long	.LASF196
 1714 056f A801      		.sleb128 168
 1715 0571 07        		.uleb128 0x7
 1716 0572 0000 0000 		.long	.LASF197
 1717 0576 A901      		.sleb128 169
 1718 0578 07        		.uleb128 0x7
 1719 0579 0000 0000 		.long	.LASF198
 1720 057d AA01      		.sleb128 170
 1721 057f 07        		.uleb128 0x7
 1722 0580 0000 0000 		.long	.LASF199
 1723 0584 AB01      		.sleb128 171
 1724 0586 07        		.uleb128 0x7
 1725 0587 0000 0000 		.long	.LASF200
 1726 058b AC01      		.sleb128 172
 1727 058d 07        		.uleb128 0x7
 1728 058e 0000 0000 		.long	.LASF201
 1729 0592 AD01      		.sleb128 173
 1730 0594 07        		.uleb128 0x7
 1731 0595 0000 0000 		.long	.LASF202
 1732 0599 AE01      		.sleb128 174
 1733 059b 07        		.uleb128 0x7
 1734 059c 0000 0000 		.long	.LASF203
 1735 05a0 AF01      		.sleb128 175
 1736 05a2 00        		.byte	0x0
 1737 05a3 08        		.uleb128 0x8
 1738 05a4 01        		.byte	0x1
 1739 05a5 0000 0000 		.long	.LASF232
 1740 05a9 01        		.byte	0x1
 1741 05aa 3A        		.byte	0x3a
 1742 05ab 01        		.byte	0x1
 1743 05ac 0000 0000 		.long	.LFB8
 1744 05b0 0000 0000 		.long	.LFE8
 1745 05b4 02        		.byte	0x2
 1746 05b5 90        		.byte	0x90
 1747 05b6 20        		.uleb128 0x20
 1748 05b7 C705 0000 		.long	0x5c7
 1749 05bb 09        		.uleb128 0x9
 1750 05bc 726F 7700 		.string	"row"
 1751 05c0 01        		.byte	0x1
 1752 05c1 3B        		.byte	0x3b
 1753 05c2 7200 0000 		.long	0x72
 1754 05c6 00        		.byte	0x0
 1755 05c7 0A        		.uleb128 0xa
 1756 05c8 01        		.byte	0x1
 1757 05c9 0000 0000 		.long	.LASF204
 1758 05cd 01        		.byte	0x1
 1759 05ce 45        		.byte	0x45
 1760 05cf 01        		.byte	0x1
 1761 05d0 7200 0000 		.long	0x72
 1762 05d4 0000 0000 		.long	.LFB9
 1763 05d8 0000 0000 		.long	.LFE9
 1764 05dc 02        		.byte	0x2
 1765 05dd 90        		.byte	0x90
 1766 05de 20        		.uleb128 0x20
 1767 05df FA05 0000 		.long	0x5fa
GAS LISTING C:\Users\ADMINI~1\AppData\Local\Temp/ccvC2rQa.s 			page 32


 1768 05e3 09        		.uleb128 0x9
 1769 05e4 6375 7200 		.string	"cur"
 1770 05e8 01        		.byte	0x1
 1771 05e9 46        		.byte	0x46
 1772 05ea 7200 0000 		.long	0x72
 1773 05ee 09        		.uleb128 0x9
 1774 05ef 726F 7700 		.string	"row"
 1775 05f3 01        		.byte	0x1
 1776 05f4 46        		.byte	0x46
 1777 05f5 7200 0000 		.long	0x72
 1778 05f9 00        		.byte	0x0
 1779 05fa 0B        		.uleb128 0xb
 1780 05fb 01        		.byte	0x1
 1781 05fc 0000 0000 		.long	.LASF233
 1782 0600 01        		.byte	0x1
 1783 0601 2D01      		.word	0x12d
 1784 0603 01        		.byte	0x1
 1785 0604 1306 0000 		.long	0x613
 1786 0608 0000 0000 		.long	.LFB13
 1787 060c 0000 0000 		.long	.LFE13
 1788 0610 02        		.byte	0x2
 1789 0611 90        		.byte	0x90
 1790 0612 20        		.uleb128 0x20
 1791 0613 0C        		.uleb128 0xc
 1792 0614 02        		.byte	0x2
 1793 0615 7200 0000 		.long	0x72
 1794 0619 0A        		.uleb128 0xa
 1795 061a 01        		.byte	0x1
 1796 061b 0000 0000 		.long	.LASF205
 1797 061f 01        		.byte	0x1
 1798 0620 DA        		.byte	0xda
 1799 0621 01        		.byte	0x1
 1800 0622 7200 0000 		.long	0x72
 1801 0626 0000 0000 		.long	.LFB12
 1802 062a 0000 0000 		.long	.LFE12
 1803 062e 02        		.byte	0x2
 1804 062f 90        		.byte	0x90
 1805 0630 20        		.uleb128 0x20
 1806 0631 A106 0000 		.long	0x6a1
 1807 0635 09        		.uleb128 0x9
 1808 0636 636F 6C00 		.string	"col"
 1809 063a 01        		.byte	0x1
 1810 063b DB        		.byte	0xdb
 1811 063c 7200 0000 		.long	0x72
 1812 0640 0D        		.uleb128 0xd
 1813 0641 726F 7700 		.string	"row"
 1814 0645 01        		.byte	0x1
 1815 0646 DB        		.byte	0xdb
 1816 0647 7200 0000 		.long	0x72
 1817 064b 0000 0000 		.long	.LLST4
 1818 064f 0E        		.uleb128 0xe
 1819 0650 0000 0000 		.long	.LASF206
 1820 0654 01        		.byte	0x1
 1821 0655 DC        		.byte	0xdc
 1822 0656 7200 0000 		.long	0x72
 1823 065a 0D        		.uleb128 0xd
 1824 065b 6375 7200 		.string	"cur"
GAS LISTING C:\Users\ADMINI~1\AppData\Local\Temp/ccvC2rQa.s 			page 33


 1825 065f 01        		.byte	0x1
 1826 0660 DC        		.byte	0xdc
 1827 0661 7200 0000 		.long	0x72
 1828 0665 0000 0000 		.long	.LLST5
 1829 0669 0F        		.uleb128 0xf
 1830 066a 0000 0000 		.long	.LASF207
 1831 066e 01        		.byte	0x1
 1832 066f DE        		.byte	0xde
 1833 0670 7200 0000 		.long	0x72
 1834 0674 0000 0000 		.long	.LLST6
 1835 0678 10        		.uleb128 0x10
 1836 0679 0000 0000 		.long	.LASF208
 1837 067d 01        		.byte	0x1
 1838 067e 1101      		.word	0x111
 1839 0680 7200 0000 		.long	0x72
 1840 0684 0000 0000 		.long	.LLST7
 1841 0688 11        		.uleb128 0x11
 1842 0689 0000 0000 		.long	.LASF209
 1843 068d 01        		.byte	0x1
 1844 068e 1201      		.word	0x112
 1845 0690 7200 0000 		.long	0x72
 1846 0694 01        		.byte	0x1
 1847 0695 64        		.byte	0x64
 1848 0696 12        		.uleb128 0x12
 1849 0697 6900      		.string	"i"
 1850 0699 01        		.byte	0x1
 1851 069a 1301      		.word	0x113
 1852 069c 7200 0000 		.long	0x72
 1853 06a0 00        		.byte	0x0
 1854 06a1 13        		.uleb128 0x13
 1855 06a2 01        		.byte	0x1
 1856 06a3 0000 0000 		.long	.LASF210
 1857 06a7 01        		.byte	0x1
 1858 06a8 3801      		.word	0x138
 1859 06aa 01        		.byte	0x1
 1860 06ab 7200 0000 		.long	0x72
 1861 06af 0000 0000 		.long	.LFB14
 1862 06b3 0000 0000 		.long	.LFE14
 1863 06b7 02        		.byte	0x2
 1864 06b8 90        		.byte	0x90
 1865 06b9 20        		.uleb128 0x20
 1866 06ba CF06 0000 		.long	0x6cf
 1867 06be 10        		.uleb128 0x10
 1868 06bf 0000 0000 		.long	.LASF211
 1869 06c3 01        		.byte	0x1
 1870 06c4 3C01      		.word	0x13c
 1871 06c6 7200 0000 		.long	0x72
 1872 06ca 0000 0000 		.long	.LLST9
 1873 06ce 00        		.byte	0x0
 1874 06cf 0A        		.uleb128 0xa
 1875 06d0 01        		.byte	0x1
 1876 06d1 0000 0000 		.long	.LASF212
 1877 06d5 01        		.byte	0x1
 1878 06d6 87        		.byte	0x87
 1879 06d7 01        		.byte	0x1
 1880 06d8 7200 0000 		.long	0x72
 1881 06dc 0000 0000 		.long	.LFB11
GAS LISTING C:\Users\ADMINI~1\AppData\Local\Temp/ccvC2rQa.s 			page 34


 1882 06e0 0000 0000 		.long	.LFE11
 1883 06e4 02        		.byte	0x2
 1884 06e5 90        		.byte	0x90
 1885 06e6 20        		.uleb128 0x20
 1886 06e7 3907 0000 		.long	0x739
 1887 06eb 0D        		.uleb128 0xd
 1888 06ec 636F 6C00 		.string	"col"
 1889 06f0 01        		.byte	0x1
 1890 06f1 88        		.byte	0x88
 1891 06f2 7200 0000 		.long	0x72
 1892 06f6 0000 0000 		.long	.LLST11
 1893 06fa 0D        		.uleb128 0xd
 1894 06fb 726F 7700 		.string	"row"
 1895 06ff 01        		.byte	0x1
 1896 0700 88        		.byte	0x88
 1897 0701 7200 0000 		.long	0x72
 1898 0705 0000 0000 		.long	.LLST12
 1899 0709 0F        		.uleb128 0xf
 1900 070a 0000 0000 		.long	.LASF213
 1901 070e 01        		.byte	0x1
 1902 070f 88        		.byte	0x88
 1903 0710 7200 0000 		.long	0x72
 1904 0714 0000 0000 		.long	.LLST13
 1905 0718 0D        		.uleb128 0xd
 1906 0719 6375 7200 		.string	"cur"
 1907 071d 01        		.byte	0x1
 1908 071e 88        		.byte	0x88
 1909 071f 7200 0000 		.long	0x72
 1910 0723 0000 0000 		.long	.LLST14
 1911 0727 14        		.uleb128 0x14
 1912 0728 0000 0000 		.long	.LASF214
 1913 072c 01        		.byte	0x1
 1914 072d 89        		.byte	0x89
 1915 072e 7200 0000 		.long	0x72
 1916 0732 05        		.byte	0x5
 1917 0733 03        		.byte	0x3
 1918 0734 0000 0000 		.long	isLazyLayer.2281
 1919 0738 00        		.byte	0x0
 1920 0739 0A        		.uleb128 0xa
 1921 073a 01        		.byte	0x1
 1922 073b 0000 0000 		.long	.LASF215
 1923 073f 01        		.byte	0x1
 1924 0740 52        		.byte	0x52
 1925 0741 01        		.byte	0x1
 1926 0742 7200 0000 		.long	0x72
 1927 0746 0000 0000 		.long	.LFB10
 1928 074a 0000 0000 		.long	.LFE10
 1929 074e 02        		.byte	0x2
 1930 074f 90        		.byte	0x90
 1931 0750 20        		.uleb128 0x20
 1932 0751 7407 0000 		.long	0x774
 1933 0755 15        		.uleb128 0x15
 1934 0756 0000 0000 		.long	.LASF213
 1935 075a 01        		.byte	0x1
 1936 075b 52        		.byte	0x52
 1937 075c 7200 0000 		.long	0x72
 1938 0760 0000 0000 		.long	.LLST16
GAS LISTING C:\Users\ADMINI~1\AppData\Local\Temp/ccvC2rQa.s 			page 35


 1939 0764 15        		.uleb128 0x15
 1940 0765 0000 0000 		.long	.LASF216
 1941 0769 01        		.byte	0x1
 1942 076a 52        		.byte	0x52
 1943 076b 7200 0000 		.long	0x72
 1944 076f 0000 0000 		.long	.LLST17
 1945 0773 00        		.byte	0x0
 1946 0774 14        		.uleb128 0x14
 1947 0775 0000 0000 		.long	.LASF217
 1948 0779 01        		.byte	0x1
 1949 077a 29        		.byte	0x29
 1950 077b 7200 0000 		.long	0x72
 1951 077f 05        		.byte	0x5
 1952 0780 03        		.byte	0x3
 1953 0781 0000 0000 		.long	_isExtraFNDown
 1954 0785 14        		.uleb128 0x14
 1955 0786 0000 0000 		.long	.LASF218
 1956 078a 01        		.byte	0x1
 1957 078b 2A        		.byte	0x2a
 1958 078c 7200 0000 		.long	0x72
 1959 0790 05        		.byte	0x5
 1960 0791 03        		.byte	0x3
 1961 0792 0000 0000 		.long	debounceMAX
 1962 0796 14        		.uleb128 0x14
 1963 0797 0000 0000 		.long	.LASF219
 1964 079b 01        		.byte	0x1
 1965 079c 2B        		.byte	0x2b
 1966 079d 7200 0000 		.long	0x72
 1967 07a1 05        		.byte	0x5
 1968 07a2 03        		.byte	0x3
 1969 07a3 0000 0000 		.long	debounce
 1970 07a7 14        		.uleb128 0x14
 1971 07a8 0000 0000 		.long	.LASF220
 1972 07ac 01        		.byte	0x1
 1973 07ad 2C        		.byte	0x2c
 1974 07ae 7200 0000 		.long	0x72
 1975 07b2 05        		.byte	0x5
 1976 07b3 03        		.byte	0x3
 1977 07b4 0000 0000 		.long	_isAllKeyRelease
 1978 07b8 16        		.uleb128 0x16
 1979 07b9 7200 0000 		.long	0x72
 1980 07bd C307 0000 		.long	0x7c3
 1981 07c1 17        		.uleb128 0x17
 1982 07c2 00        		.byte	0x0
 1983 07c3 18        		.uleb128 0x18
 1984 07c4 0000 0000 		.long	.LASF221
 1985 07c8 02        		.byte	0x2
 1986 07c9 0A01      		.word	0x10a
 1987 07cb D107 0000 		.long	0x7d1
 1988 07cf 01        		.byte	0x1
 1989 07d0 01        		.byte	0x1
 1990 07d1 19        		.uleb128 0x19
 1991 07d2 B807 0000 		.long	0x7b8
 1992 07d6 1A        		.uleb128 0x1a
 1993 07d7 0000 0000 		.long	.LASF222
 1994 07db 01        		.byte	0x1
 1995 07dc 1C        		.byte	0x1c
GAS LISTING C:\Users\ADMINI~1\AppData\Local\Temp/ccvC2rQa.s 			page 36


 1996 07dd 7200 0000 		.long	0x72
 1997 07e1 01        		.byte	0x1
 1998 07e2 05        		.byte	0x5
 1999 07e3 03        		.byte	0x3
 2000 07e4 0000 0000 		.long	isBeyondFN
 2001 07e8 16        		.uleb128 0x16
 2002 07e9 3300 0000 		.long	0x33
 2003 07ed F807 0000 		.long	0x7f8
 2004 07f1 1B        		.uleb128 0x1b
 2005 07f2 F807 0000 		.long	0x7f8
 2006 07f6 0F        		.byte	0xf
 2007 07f7 00        		.byte	0x0
 2008 07f8 05        		.uleb128 0x5
 2009 07f9 02        		.byte	0x2
 2010 07fa 07        		.byte	0x7
 2011 07fb 1A        		.uleb128 0x1a
 2012 07fc 0000 0000 		.long	.LASF223
 2013 0800 01        		.byte	0x1
 2014 0801 32        		.byte	0x32
 2015 0802 0D08 0000 		.long	0x80d
 2016 0806 01        		.byte	0x1
 2017 0807 05        		.byte	0x5
 2018 0808 03        		.byte	0x3
 2019 0809 0000 0000 		.long	modmask
 2020 080d 19        		.uleb128 0x19
 2021 080e E807 0000 		.long	0x7e8
 2022 0812 16        		.uleb128 0x16
 2023 0813 7200 0000 		.long	0x72
 2024 0817 2208 0000 		.long	0x822
 2025 081b 1B        		.uleb128 0x1b
 2026 081c F807 0000 		.long	0x7f8
 2027 0820 10        		.byte	0x10
 2028 0821 00        		.byte	0x0
 2029 0822 1A        		.uleb128 0x1a
 2030 0823 0000 0000 		.long	.LASF224
 2031 0827 01        		.byte	0x1
 2032 0828 1E        		.byte	0x1e
 2033 0829 1208 0000 		.long	0x812
 2034 082d 01        		.byte	0x1
 2035 082e 05        		.byte	0x5
 2036 082f 03        		.byte	0x3
 2037 0830 0000 0000 		.long	prevMatrix
 2038 0834 1A        		.uleb128 0x1a
 2039 0835 0000 0000 		.long	.LASF225
 2040 0839 01        		.byte	0x1
 2041 083a 1F        		.byte	0x1f
 2042 083b 1208 0000 		.long	0x812
 2043 083f 01        		.byte	0x1
 2044 0840 05        		.byte	0x5
 2045 0841 03        		.byte	0x3
 2046 0842 0000 0000 		.long	currentMatrix
 2047 0846 1A        		.uleb128 0x1a
 2048 0847 0000 0000 		.long	.LASF226
 2049 084b 01        		.byte	0x1
 2050 084c 22        		.byte	0x22
 2051 084d 1208 0000 		.long	0x812
 2052 0851 01        		.byte	0x1
GAS LISTING C:\Users\ADMINI~1\AppData\Local\Temp/ccvC2rQa.s 			page 37


 2053 0852 05        		.byte	0x5
 2054 0853 03        		.byte	0x3
 2055 0854 0000 0000 		.long	ghostFilterMatrix
 2056 0858 1A        		.uleb128 0x1a
 2057 0859 0000 0000 		.long	.LASF227
 2058 085d 01        		.byte	0x1
 2059 085e 25        		.byte	0x25
 2060 085f 7200 0000 		.long	0x72
 2061 0863 01        		.byte	0x1
 2062 0864 05        		.byte	0x5
 2063 0865 03        		.byte	0x3
 2064 0866 0000 0000 		.long	_currentLayer
 2065 086a 00        		.byte	0x0
 2066               		.section	.debug_abbrev
 2067 0000 01        		.uleb128 0x1
 2068 0001 11        		.uleb128 0x11
 2069 0002 01        		.byte	0x1
 2070 0003 25        		.uleb128 0x25
 2071 0004 0E        		.uleb128 0xe
 2072 0005 13        		.uleb128 0x13
 2073 0006 0B        		.uleb128 0xb
 2074 0007 03        		.uleb128 0x3
 2075 0008 0E        		.uleb128 0xe
 2076 0009 1B        		.uleb128 0x1b
 2077 000a 0E        		.uleb128 0xe
 2078 000b 11        		.uleb128 0x11
 2079 000c 01        		.uleb128 0x1
 2080 000d 12        		.uleb128 0x12
 2081 000e 01        		.uleb128 0x1
 2082 000f 10        		.uleb128 0x10
 2083 0010 06        		.uleb128 0x6
 2084 0011 00        		.byte	0x0
 2085 0012 00        		.byte	0x0
 2086 0013 02        		.uleb128 0x2
 2087 0014 24        		.uleb128 0x24
 2088 0015 00        		.byte	0x0
 2089 0016 0B        		.uleb128 0xb
 2090 0017 0B        		.uleb128 0xb
 2091 0018 3E        		.uleb128 0x3e
 2092 0019 0B        		.uleb128 0xb
 2093 001a 03        		.uleb128 0x3
 2094 001b 0E        		.uleb128 0xe
 2095 001c 00        		.byte	0x0
 2096 001d 00        		.byte	0x0
 2097 001e 03        		.uleb128 0x3
 2098 001f 24        		.uleb128 0x24
 2099 0020 00        		.byte	0x0
 2100 0021 0B        		.uleb128 0xb
 2101 0022 0B        		.uleb128 0xb
 2102 0023 3E        		.uleb128 0x3e
 2103 0024 0B        		.uleb128 0xb
 2104 0025 03        		.uleb128 0x3
 2105 0026 08        		.uleb128 0x8
 2106 0027 00        		.byte	0x0
 2107 0028 00        		.byte	0x0
 2108 0029 04        		.uleb128 0x4
 2109 002a 16        		.uleb128 0x16
GAS LISTING C:\Users\ADMINI~1\AppData\Local\Temp/ccvC2rQa.s 			page 38


 2110 002b 00        		.byte	0x0
 2111 002c 03        		.uleb128 0x3
 2112 002d 0E        		.uleb128 0xe
 2113 002e 3A        		.uleb128 0x3a
 2114 002f 0B        		.uleb128 0xb
 2115 0030 3B        		.uleb128 0x3b
 2116 0031 0B        		.uleb128 0xb
 2117 0032 49        		.uleb128 0x49
 2118 0033 13        		.uleb128 0x13
 2119 0034 00        		.byte	0x0
 2120 0035 00        		.byte	0x0
 2121 0036 05        		.uleb128 0x5
 2122 0037 24        		.uleb128 0x24
 2123 0038 00        		.byte	0x0
 2124 0039 0B        		.uleb128 0xb
 2125 003a 0B        		.uleb128 0xb
 2126 003b 3E        		.uleb128 0x3e
 2127 003c 0B        		.uleb128 0xb
 2128 003d 00        		.byte	0x0
 2129 003e 00        		.byte	0x0
 2130 003f 06        		.uleb128 0x6
 2131 0040 04        		.uleb128 0x4
 2132 0041 01        		.byte	0x1
 2133 0042 0B        		.uleb128 0xb
 2134 0043 0B        		.uleb128 0xb
 2135 0044 3A        		.uleb128 0x3a
 2136 0045 0B        		.uleb128 0xb
 2137 0046 3B        		.uleb128 0x3b
 2138 0047 0B        		.uleb128 0xb
 2139 0048 01        		.uleb128 0x1
 2140 0049 13        		.uleb128 0x13
 2141 004a 00        		.byte	0x0
 2142 004b 00        		.byte	0x0
 2143 004c 07        		.uleb128 0x7
 2144 004d 28        		.uleb128 0x28
 2145 004e 00        		.byte	0x0
 2146 004f 03        		.uleb128 0x3
 2147 0050 0E        		.uleb128 0xe
 2148 0051 1C        		.uleb128 0x1c
 2149 0052 0D        		.uleb128 0xd
 2150 0053 00        		.byte	0x0
 2151 0054 00        		.byte	0x0
 2152 0055 08        		.uleb128 0x8
 2153 0056 2E        		.uleb128 0x2e
 2154 0057 01        		.byte	0x1
 2155 0058 3F        		.uleb128 0x3f
 2156 0059 0C        		.uleb128 0xc
 2157 005a 03        		.uleb128 0x3
 2158 005b 0E        		.uleb128 0xe
 2159 005c 3A        		.uleb128 0x3a
 2160 005d 0B        		.uleb128 0xb
 2161 005e 3B        		.uleb128 0x3b
 2162 005f 0B        		.uleb128 0xb
 2163 0060 27        		.uleb128 0x27
 2164 0061 0C        		.uleb128 0xc
 2165 0062 11        		.uleb128 0x11
 2166 0063 01        		.uleb128 0x1
GAS LISTING C:\Users\ADMINI~1\AppData\Local\Temp/ccvC2rQa.s 			page 39


 2167 0064 12        		.uleb128 0x12
 2168 0065 01        		.uleb128 0x1
 2169 0066 40        		.uleb128 0x40
 2170 0067 0A        		.uleb128 0xa
 2171 0068 01        		.uleb128 0x1
 2172 0069 13        		.uleb128 0x13
 2173 006a 00        		.byte	0x0
 2174 006b 00        		.byte	0x0
 2175 006c 09        		.uleb128 0x9
 2176 006d 34        		.uleb128 0x34
 2177 006e 00        		.byte	0x0
 2178 006f 03        		.uleb128 0x3
 2179 0070 08        		.uleb128 0x8
 2180 0071 3A        		.uleb128 0x3a
 2181 0072 0B        		.uleb128 0xb
 2182 0073 3B        		.uleb128 0x3b
 2183 0074 0B        		.uleb128 0xb
 2184 0075 49        		.uleb128 0x49
 2185 0076 13        		.uleb128 0x13
 2186 0077 00        		.byte	0x0
 2187 0078 00        		.byte	0x0
 2188 0079 0A        		.uleb128 0xa
 2189 007a 2E        		.uleb128 0x2e
 2190 007b 01        		.byte	0x1
 2191 007c 3F        		.uleb128 0x3f
 2192 007d 0C        		.uleb128 0xc
 2193 007e 03        		.uleb128 0x3
 2194 007f 0E        		.uleb128 0xe
 2195 0080 3A        		.uleb128 0x3a
 2196 0081 0B        		.uleb128 0xb
 2197 0082 3B        		.uleb128 0x3b
 2198 0083 0B        		.uleb128 0xb
 2199 0084 27        		.uleb128 0x27
 2200 0085 0C        		.uleb128 0xc
 2201 0086 49        		.uleb128 0x49
 2202 0087 13        		.uleb128 0x13
 2203 0088 11        		.uleb128 0x11
 2204 0089 01        		.uleb128 0x1
 2205 008a 12        		.uleb128 0x12
 2206 008b 01        		.uleb128 0x1
 2207 008c 40        		.uleb128 0x40
 2208 008d 0A        		.uleb128 0xa
 2209 008e 01        		.uleb128 0x1
 2210 008f 13        		.uleb128 0x13
 2211 0090 00        		.byte	0x0
 2212 0091 00        		.byte	0x0
 2213 0092 0B        		.uleb128 0xb
 2214 0093 2E        		.uleb128 0x2e
 2215 0094 00        		.byte	0x0
 2216 0095 3F        		.uleb128 0x3f
 2217 0096 0C        		.uleb128 0xc
 2218 0097 03        		.uleb128 0x3
 2219 0098 0E        		.uleb128 0xe
 2220 0099 3A        		.uleb128 0x3a
 2221 009a 0B        		.uleb128 0xb
 2222 009b 3B        		.uleb128 0x3b
 2223 009c 05        		.uleb128 0x5
GAS LISTING C:\Users\ADMINI~1\AppData\Local\Temp/ccvC2rQa.s 			page 40


 2224 009d 27        		.uleb128 0x27
 2225 009e 0C        		.uleb128 0xc
 2226 009f 49        		.uleb128 0x49
 2227 00a0 13        		.uleb128 0x13
 2228 00a1 11        		.uleb128 0x11
 2229 00a2 01        		.uleb128 0x1
 2230 00a3 12        		.uleb128 0x12
 2231 00a4 01        		.uleb128 0x1
 2232 00a5 40        		.uleb128 0x40
 2233 00a6 0A        		.uleb128 0xa
 2234 00a7 00        		.byte	0x0
 2235 00a8 00        		.byte	0x0
 2236 00a9 0C        		.uleb128 0xc
 2237 00aa 0F        		.uleb128 0xf
 2238 00ab 00        		.byte	0x0
 2239 00ac 0B        		.uleb128 0xb
 2240 00ad 0B        		.uleb128 0xb
 2241 00ae 49        		.uleb128 0x49
 2242 00af 13        		.uleb128 0x13
 2243 00b0 00        		.byte	0x0
 2244 00b1 00        		.byte	0x0
 2245 00b2 0D        		.uleb128 0xd
 2246 00b3 34        		.uleb128 0x34
 2247 00b4 00        		.byte	0x0
 2248 00b5 03        		.uleb128 0x3
 2249 00b6 08        		.uleb128 0x8
 2250 00b7 3A        		.uleb128 0x3a
 2251 00b8 0B        		.uleb128 0xb
 2252 00b9 3B        		.uleb128 0x3b
 2253 00ba 0B        		.uleb128 0xb
 2254 00bb 49        		.uleb128 0x49
 2255 00bc 13        		.uleb128 0x13
 2256 00bd 02        		.uleb128 0x2
 2257 00be 06        		.uleb128 0x6
 2258 00bf 00        		.byte	0x0
 2259 00c0 00        		.byte	0x0
 2260 00c1 0E        		.uleb128 0xe
 2261 00c2 34        		.uleb128 0x34
 2262 00c3 00        		.byte	0x0
 2263 00c4 03        		.uleb128 0x3
 2264 00c5 0E        		.uleb128 0xe
 2265 00c6 3A        		.uleb128 0x3a
 2266 00c7 0B        		.uleb128 0xb
 2267 00c8 3B        		.uleb128 0x3b
 2268 00c9 0B        		.uleb128 0xb
 2269 00ca 49        		.uleb128 0x49
 2270 00cb 13        		.uleb128 0x13
 2271 00cc 00        		.byte	0x0
 2272 00cd 00        		.byte	0x0
 2273 00ce 0F        		.uleb128 0xf
 2274 00cf 34        		.uleb128 0x34
 2275 00d0 00        		.byte	0x0
 2276 00d1 03        		.uleb128 0x3
 2277 00d2 0E        		.uleb128 0xe
 2278 00d3 3A        		.uleb128 0x3a
 2279 00d4 0B        		.uleb128 0xb
 2280 00d5 3B        		.uleb128 0x3b
GAS LISTING C:\Users\ADMINI~1\AppData\Local\Temp/ccvC2rQa.s 			page 41


 2281 00d6 0B        		.uleb128 0xb
 2282 00d7 49        		.uleb128 0x49
 2283 00d8 13        		.uleb128 0x13
 2284 00d9 02        		.uleb128 0x2
 2285 00da 06        		.uleb128 0x6
 2286 00db 00        		.byte	0x0
 2287 00dc 00        		.byte	0x0
 2288 00dd 10        		.uleb128 0x10
 2289 00de 34        		.uleb128 0x34
 2290 00df 00        		.byte	0x0
 2291 00e0 03        		.uleb128 0x3
 2292 00e1 0E        		.uleb128 0xe
 2293 00e2 3A        		.uleb128 0x3a
 2294 00e3 0B        		.uleb128 0xb
 2295 00e4 3B        		.uleb128 0x3b
 2296 00e5 05        		.uleb128 0x5
 2297 00e6 49        		.uleb128 0x49
 2298 00e7 13        		.uleb128 0x13
 2299 00e8 02        		.uleb128 0x2
 2300 00e9 06        		.uleb128 0x6
 2301 00ea 00        		.byte	0x0
 2302 00eb 00        		.byte	0x0
 2303 00ec 11        		.uleb128 0x11
 2304 00ed 34        		.uleb128 0x34
 2305 00ee 00        		.byte	0x0
 2306 00ef 03        		.uleb128 0x3
 2307 00f0 0E        		.uleb128 0xe
 2308 00f1 3A        		.uleb128 0x3a
 2309 00f2 0B        		.uleb128 0xb
 2310 00f3 3B        		.uleb128 0x3b
 2311 00f4 05        		.uleb128 0x5
 2312 00f5 49        		.uleb128 0x49
 2313 00f6 13        		.uleb128 0x13
 2314 00f7 02        		.uleb128 0x2
 2315 00f8 0A        		.uleb128 0xa
 2316 00f9 00        		.byte	0x0
 2317 00fa 00        		.byte	0x0
 2318 00fb 12        		.uleb128 0x12
 2319 00fc 34        		.uleb128 0x34
 2320 00fd 00        		.byte	0x0
 2321 00fe 03        		.uleb128 0x3
 2322 00ff 08        		.uleb128 0x8
 2323 0100 3A        		.uleb128 0x3a
 2324 0101 0B        		.uleb128 0xb
 2325 0102 3B        		.uleb128 0x3b
 2326 0103 05        		.uleb128 0x5
 2327 0104 49        		.uleb128 0x49
 2328 0105 13        		.uleb128 0x13
 2329 0106 00        		.byte	0x0
 2330 0107 00        		.byte	0x0
 2331 0108 13        		.uleb128 0x13
 2332 0109 2E        		.uleb128 0x2e
 2333 010a 01        		.byte	0x1
 2334 010b 3F        		.uleb128 0x3f
 2335 010c 0C        		.uleb128 0xc
 2336 010d 03        		.uleb128 0x3
 2337 010e 0E        		.uleb128 0xe
GAS LISTING C:\Users\ADMINI~1\AppData\Local\Temp/ccvC2rQa.s 			page 42


 2338 010f 3A        		.uleb128 0x3a
 2339 0110 0B        		.uleb128 0xb
 2340 0111 3B        		.uleb128 0x3b
 2341 0112 05        		.uleb128 0x5
 2342 0113 27        		.uleb128 0x27
 2343 0114 0C        		.uleb128 0xc
 2344 0115 49        		.uleb128 0x49
 2345 0116 13        		.uleb128 0x13
 2346 0117 11        		.uleb128 0x11
 2347 0118 01        		.uleb128 0x1
 2348 0119 12        		.uleb128 0x12
 2349 011a 01        		.uleb128 0x1
 2350 011b 40        		.uleb128 0x40
 2351 011c 0A        		.uleb128 0xa
 2352 011d 01        		.uleb128 0x1
 2353 011e 13        		.uleb128 0x13
 2354 011f 00        		.byte	0x0
 2355 0120 00        		.byte	0x0
 2356 0121 14        		.uleb128 0x14
 2357 0122 34        		.uleb128 0x34
 2358 0123 00        		.byte	0x0
 2359 0124 03        		.uleb128 0x3
 2360 0125 0E        		.uleb128 0xe
 2361 0126 3A        		.uleb128 0x3a
 2362 0127 0B        		.uleb128 0xb
 2363 0128 3B        		.uleb128 0x3b
 2364 0129 0B        		.uleb128 0xb
 2365 012a 49        		.uleb128 0x49
 2366 012b 13        		.uleb128 0x13
 2367 012c 02        		.uleb128 0x2
 2368 012d 0A        		.uleb128 0xa
 2369 012e 00        		.byte	0x0
 2370 012f 00        		.byte	0x0
 2371 0130 15        		.uleb128 0x15
 2372 0131 05        		.uleb128 0x5
 2373 0132 00        		.byte	0x0
 2374 0133 03        		.uleb128 0x3
 2375 0134 0E        		.uleb128 0xe
 2376 0135 3A        		.uleb128 0x3a
 2377 0136 0B        		.uleb128 0xb
 2378 0137 3B        		.uleb128 0x3b
 2379 0138 0B        		.uleb128 0xb
 2380 0139 49        		.uleb128 0x49
 2381 013a 13        		.uleb128 0x13
 2382 013b 02        		.uleb128 0x2
 2383 013c 06        		.uleb128 0x6
 2384 013d 00        		.byte	0x0
 2385 013e 00        		.byte	0x0
 2386 013f 16        		.uleb128 0x16
 2387 0140 01        		.uleb128 0x1
 2388 0141 01        		.byte	0x1
 2389 0142 49        		.uleb128 0x49
 2390 0143 13        		.uleb128 0x13
 2391 0144 01        		.uleb128 0x1
 2392 0145 13        		.uleb128 0x13
 2393 0146 00        		.byte	0x0
 2394 0147 00        		.byte	0x0
GAS LISTING C:\Users\ADMINI~1\AppData\Local\Temp/ccvC2rQa.s 			page 43


 2395 0148 17        		.uleb128 0x17
 2396 0149 21        		.uleb128 0x21
 2397 014a 00        		.byte	0x0
 2398 014b 00        		.byte	0x0
 2399 014c 00        		.byte	0x0
 2400 014d 18        		.uleb128 0x18
 2401 014e 34        		.uleb128 0x34
 2402 014f 00        		.byte	0x0
 2403 0150 03        		.uleb128 0x3
 2404 0151 0E        		.uleb128 0xe
 2405 0152 3A        		.uleb128 0x3a
 2406 0153 0B        		.uleb128 0xb
 2407 0154 3B        		.uleb128 0x3b
 2408 0155 05        		.uleb128 0x5
 2409 0156 49        		.uleb128 0x49
 2410 0157 13        		.uleb128 0x13
 2411 0158 3F        		.uleb128 0x3f
 2412 0159 0C        		.uleb128 0xc
 2413 015a 3C        		.uleb128 0x3c
 2414 015b 0C        		.uleb128 0xc
 2415 015c 00        		.byte	0x0
 2416 015d 00        		.byte	0x0
 2417 015e 19        		.uleb128 0x19
 2418 015f 26        		.uleb128 0x26
 2419 0160 00        		.byte	0x0
 2420 0161 49        		.uleb128 0x49
 2421 0162 13        		.uleb128 0x13
 2422 0163 00        		.byte	0x0
 2423 0164 00        		.byte	0x0
 2424 0165 1A        		.uleb128 0x1a
 2425 0166 34        		.uleb128 0x34
 2426 0167 00        		.byte	0x0
 2427 0168 03        		.uleb128 0x3
 2428 0169 0E        		.uleb128 0xe
 2429 016a 3A        		.uleb128 0x3a
 2430 016b 0B        		.uleb128 0xb
 2431 016c 3B        		.uleb128 0x3b
 2432 016d 0B        		.uleb128 0xb
 2433 016e 49        		.uleb128 0x49
 2434 016f 13        		.uleb128 0x13
 2435 0170 3F        		.uleb128 0x3f
 2436 0171 0C        		.uleb128 0xc
 2437 0172 02        		.uleb128 0x2
 2438 0173 0A        		.uleb128 0xa
 2439 0174 00        		.byte	0x0
 2440 0175 00        		.byte	0x0
 2441 0176 1B        		.uleb128 0x1b
 2442 0177 21        		.uleb128 0x21
 2443 0178 00        		.byte	0x0
 2444 0179 49        		.uleb128 0x49
 2445 017a 13        		.uleb128 0x13
 2446 017b 2F        		.uleb128 0x2f
 2447 017c 0B        		.uleb128 0xb
 2448 017d 00        		.byte	0x0
 2449 017e 00        		.byte	0x0
 2450 017f 00        		.byte	0x0
 2451               		.section	.debug_pubnames,"",@progbits
GAS LISTING C:\Users\ADMINI~1\AppData\Local\Temp/ccvC2rQa.s 			page 44


 2452 0000 EB00 0000 		.long	0xeb
 2453 0004 0200      		.word	0x2
 2454 0006 0000 0000 		.long	.Ldebug_info0
 2455 000a 6B08 0000 		.long	0x86b
 2456 000e A305 0000 		.long	0x5a3
 2457 0012 636C 6561 		.string	"clearMatrix"
 2457      724D 6174 
 2457      7269 7800 
 2458 001e C705 0000 		.long	0x5c7
 2459 0022 6973 416C 		.string	"isAllKeyRelease"
 2459      6C4B 6579 
 2459      5265 6C65 
 2459      6173 6500 
 2460 0032 FA05 0000 		.long	0x5fa
 2461 0036 6765 7443 		.string	"getCurrentMatrix"
 2461      7572 7265 
 2461      6E74 4D61 
 2461      7472 6978 
 2461      00
 2462 0047 1906 0000 		.long	0x619
 2463 004b 6765 744C 		.string	"getLiveMatrix"
 2463      6976 654D 
 2463      6174 7269 
 2463      7800 
 2464 0059 A106 0000 		.long	0x6a1
 2465 005d 7365 7443 		.string	"setCurrentMatrix"
 2465      7572 7265 
 2465      6E74 4D61 
 2465      7472 6978 
 2465      00
 2466 006e CF06 0000 		.long	0x6cf
 2467 0072 6765 744C 		.string	"getLayer"
 2467      6179 6572 
 2467      00
 2468 007b 3907 0000 		.long	0x739
 2469 007f 6170 706C 		.string	"applyFN"
 2469      7946 4E00 
 2470 0087 D607 0000 		.long	0x7d6
 2471 008b 6973 4265 		.string	"isBeyondFN"
 2471      796F 6E64 
 2471      464E 00
 2472 0096 FB07 0000 		.long	0x7fb
 2473 009a 6D6F 646D 		.string	"modmask"
 2473      6173 6B00 
 2474 00a2 2208 0000 		.long	0x822
 2475 00a6 7072 6576 		.string	"prevMatrix"
 2475      4D61 7472 
 2475      6978 00
 2476 00b1 3408 0000 		.long	0x834
 2477 00b5 6375 7272 		.string	"currentMatrix"
 2477      656E 744D 
 2477      6174 7269 
 2477      7800 
 2478 00c3 4608 0000 		.long	0x846
 2479 00c7 6768 6F73 		.string	"ghostFilterMatrix"
 2479      7446 696C 
 2479      7465 724D 
GAS LISTING C:\Users\ADMINI~1\AppData\Local\Temp/ccvC2rQa.s 			page 45


 2479      6174 7269 
 2479      7800 
 2480 00d9 5808 0000 		.long	0x858
 2481 00dd 5F63 7572 		.string	"_currentLayer"
 2481      7265 6E74 
 2481      4C61 7965 
 2481      7200 
 2482 00eb 0000 0000 		.long	0x0
 2483               		.section	.debug_aranges,"",@progbits
 2484 0000 1C00 0000 		.long	0x1c
 2485 0004 0200      		.word	0x2
 2486 0006 0000 0000 		.long	.Ldebug_info0
 2487 000a 04        		.byte	0x4
 2488 000b 00        		.byte	0x0
 2489 000c 0000      		.word	0x0
 2490 000e 0000      		.word	0x0
 2491 0010 0000 0000 		.long	.Ltext0
 2492 0014 E803 0000 		.long	.Letext0-.Ltext0
 2493 0018 0000 0000 		.long	0x0
 2494 001c 0000 0000 		.long	0x0
 2495               		.section	.debug_line
 2496 0000 4904 0000 		.long	.LELT0-.LSLT0
 2497               	.LSLT0:
 2498 0004 0200      		.word	0x2
 2499 0006 6400 0000 		.long	.LELTP0-.LASLTP0
 2500               	.LASLTP0:
 2501 000a 01        		.byte	0x1
 2502 000b 01        		.byte	0x1
 2503 000c F6        		.byte	0xf6
 2504 000d F5        		.byte	0xf5
 2505 000e 0A        		.byte	0xa
 2506 000f 00        		.byte	0x0
 2507 0010 01        		.byte	0x1
 2508 0011 01        		.byte	0x1
 2509 0012 01        		.byte	0x1
 2510 0013 01        		.byte	0x1
 2511 0014 00        		.byte	0x0
 2512 0015 00        		.byte	0x0
 2513 0016 00        		.byte	0x0
 2514 0017 01        		.byte	0x1
 2515 0018 633A 2F77 		.ascii	"c:/winavr-20100110/lib/gcc/../../avr/include"
 2515      696E 6176 
 2515      722D 3230 
 2515      3130 3031 
 2515      3130 2F6C 
 2516 0044 00        		.byte	0
 2517 0045 00        		.byte	0x0
 2518 0046 6B65 796D 		.string	"keymatrix.c"
 2518      6174 7269 
 2518      782E 6300 
 2519 0052 00        		.uleb128 0x0
 2520 0053 00        		.uleb128 0x0
 2521 0054 00        		.uleb128 0x0
 2522 0055 6B65 796D 		.string	"keymap.h"
 2522      6170 2E68 
 2522      00
 2523 005e 00        		.uleb128 0x0
GAS LISTING C:\Users\ADMINI~1\AppData\Local\Temp/ccvC2rQa.s 			page 46


 2524 005f 00        		.uleb128 0x0
 2525 0060 00        		.uleb128 0x0
 2526 0061 7374 6469 		.string	"stdint.h"
 2526      6E74 2E68 
 2526      00
 2527 006a 01        		.uleb128 0x1
 2528 006b 00        		.uleb128 0x0
 2529 006c 00        		.uleb128 0x0
 2530 006d 00        		.byte	0x0
 2531               	.LELTP0:
 2532 006e 00        		.byte	0x0
 2533 006f 05        		.uleb128 0x5
 2534 0070 02        		.byte	0x2
 2535 0071 0000 0000 		.long	.LM1
 2536 0075 4D        		.byte	0x4d
 2537 0076 00        		.byte	0x0
 2538 0077 05        		.uleb128 0x5
 2539 0078 02        		.byte	0x2
 2540 0079 0000 0000 		.long	.LM2
 2541 007d 01        		.byte	0x1
 2542 007e 00        		.byte	0x0
 2543 007f 05        		.uleb128 0x5
 2544 0080 02        		.byte	0x2
 2545 0081 0000 0000 		.long	.LM3
 2546 0085 17        		.byte	0x17
 2547 0086 00        		.byte	0x0
 2548 0087 05        		.uleb128 0x5
 2549 0088 02        		.byte	0x2
 2550 0089 0000 0000 		.long	.LM4
 2551 008d 15        		.byte	0x15
 2552 008e 00        		.byte	0x0
 2553 008f 05        		.uleb128 0x5
 2554 0090 02        		.byte	0x2
 2555 0091 0000 0000 		.long	.LM5
 2556 0095 12        		.byte	0x12
 2557 0096 00        		.byte	0x0
 2558 0097 05        		.uleb128 0x5
 2559 0098 02        		.byte	0x2
 2560 0099 0000 0000 		.long	.LM6
 2561 009d 19        		.byte	0x19
 2562 009e 00        		.byte	0x0
 2563 009f 05        		.uleb128 0x5
 2564 00a0 02        		.byte	0x2
 2565 00a1 0000 0000 		.long	.LM7
 2566 00a5 15        		.byte	0x15
 2567 00a6 00        		.byte	0x0
 2568 00a7 05        		.uleb128 0x5
 2569 00a8 02        		.byte	0x2
 2570 00a9 0000 0000 		.long	.LM8
 2571 00ad 17        		.byte	0x17
 2572 00ae 00        		.byte	0x0
 2573 00af 05        		.uleb128 0x5
 2574 00b0 02        		.byte	0x2
 2575 00b1 0000 0000 		.long	.LM9
 2576 00b5 16        		.byte	0x16
 2577 00b6 00        		.byte	0x0
 2578 00b7 05        		.uleb128 0x5
GAS LISTING C:\Users\ADMINI~1\AppData\Local\Temp/ccvC2rQa.s 			page 47


 2579 00b8 02        		.byte	0x2
 2580 00b9 0000 0000 		.long	.LM10
 2581 00bd 16        		.byte	0x16
 2582 00be 00        		.byte	0x0
 2583 00bf 05        		.uleb128 0x5
 2584 00c0 02        		.byte	0x2
 2585 00c1 0000 0000 		.long	.LM11
 2586 00c5 15        		.byte	0x15
 2587 00c6 00        		.byte	0x0
 2588 00c7 05        		.uleb128 0x5
 2589 00c8 02        		.byte	0x2
 2590 00c9 0000 0000 		.long	.LM12
 2591 00cd 15        		.byte	0x15
 2592 00ce 00        		.byte	0x0
 2593 00cf 05        		.uleb128 0x5
 2594 00d0 02        		.byte	0x2
 2595 00d1 0000 0000 		.long	.LM13
 2596 00d5 11        		.byte	0x11
 2597 00d6 00        		.byte	0x0
 2598 00d7 05        		.uleb128 0x5
 2599 00d8 02        		.byte	0x2
 2600 00d9 0000 0000 		.long	.LM14
 2601 00dd 1B        		.byte	0x1b
 2602 00de 00        		.byte	0x0
 2603 00df 05        		.uleb128 0x5
 2604 00e0 02        		.byte	0x2
 2605 00e1 0000 0000 		.long	.LM15
 2606 00e5 F2        		.byte	0xf2
 2607 00e6 00        		.byte	0x0
 2608 00e7 05        		.uleb128 0x5
 2609 00e8 02        		.byte	0x2
 2610 00e9 0000 0000 		.long	.LM16
 2611 00ed 1C        		.byte	0x1c
 2612 00ee 00        		.byte	0x0
 2613 00ef 05        		.uleb128 0x5
 2614 00f0 02        		.byte	0x2
 2615 00f1 0000 0000 		.long	.LM17
 2616 00f5 03        		.byte	0x3
 2617 00f6 A57F      		.sleb128 -91
 2618 00f8 01        		.byte	0x1
 2619 00f9 00        		.byte	0x0
 2620 00fa 05        		.uleb128 0x5
 2621 00fb 02        		.byte	0x2
 2622 00fc 0000 0000 		.long	.LM18
 2623 0100 01        		.byte	0x1
 2624 0101 00        		.byte	0x0
 2625 0102 05        		.uleb128 0x5
 2626 0103 02        		.byte	0x2
 2627 0104 0000 0000 		.long	.LM19
 2628 0108 1D        		.byte	0x1d
 2629 0109 00        		.byte	0x0
 2630 010a 05        		.uleb128 0x5
 2631 010b 02        		.byte	0x2
 2632 010c 0000 0000 		.long	.LM20
 2633 0110 23        		.byte	0x23
 2634 0111 00        		.byte	0x0
 2635 0112 05        		.uleb128 0x5
GAS LISTING C:\Users\ADMINI~1\AppData\Local\Temp/ccvC2rQa.s 			page 48


 2636 0113 02        		.byte	0x2
 2637 0114 0000 0000 		.long	.LM21
 2638 0118 11        		.byte	0x11
 2639 0119 00        		.byte	0x0
 2640 011a 05        		.uleb128 0x5
 2641 011b 02        		.byte	0x2
 2642 011c 0000 0000 		.long	.LM22
 2643 0120 03        		.byte	0x3
 2644 0121 74        		.sleb128 -12
 2645 0122 01        		.byte	0x1
 2646 0123 00        		.byte	0x0
 2647 0124 05        		.uleb128 0x5
 2648 0125 02        		.byte	0x2
 2649 0126 0000 0000 		.long	.LM23
 2650 012a 15        		.byte	0x15
 2651 012b 00        		.byte	0x0
 2652 012c 05        		.uleb128 0x5
 2653 012d 02        		.byte	0x2
 2654 012e 0000 0000 		.long	.LM24
 2655 0132 16        		.byte	0x16
 2656 0133 00        		.byte	0x0
 2657 0134 05        		.uleb128 0x5
 2658 0135 02        		.byte	0x2
 2659 0136 0000 0000 		.long	.LM25
 2660 013a 29        		.byte	0x29
 2661 013b 00        		.byte	0x0
 2662 013c 05        		.uleb128 0x5
 2663 013d 02        		.byte	0x2
 2664 013e 0000 0000 		.long	.LM26
 2665 0142 03        		.byte	0x3
 2666 0143 6B        		.sleb128 -21
 2667 0144 01        		.byte	0x1
 2668 0145 00        		.byte	0x0
 2669 0146 05        		.uleb128 0x5
 2670 0147 02        		.byte	0x2
 2671 0148 0000 0000 		.long	.LM27
 2672 014c 19        		.byte	0x19
 2673 014d 00        		.byte	0x0
 2674 014e 05        		.uleb128 0x5
 2675 014f 02        		.byte	0x2
 2676 0150 0000 0000 		.long	.LM28
 2677 0154 15        		.byte	0x15
 2678 0155 00        		.byte	0x0
 2679 0156 05        		.uleb128 0x5
 2680 0157 02        		.byte	0x2
 2681 0158 0000 0000 		.long	.LM29
 2682 015c 16        		.byte	0x16
 2683 015d 00        		.byte	0x0
 2684 015e 05        		.uleb128 0x5
 2685 015f 02        		.byte	0x2
 2686 0160 0000 0000 		.long	.LM30
 2687 0164 15        		.byte	0x15
 2688 0165 00        		.byte	0x0
 2689 0166 05        		.uleb128 0x5
 2690 0167 02        		.byte	0x2
 2691 0168 0000 0000 		.long	.LM31
 2692 016c 17        		.byte	0x17
GAS LISTING C:\Users\ADMINI~1\AppData\Local\Temp/ccvC2rQa.s 			page 49


 2693 016d 00        		.byte	0x0
 2694 016e 05        		.uleb128 0x5
 2695 016f 02        		.byte	0x2
 2696 0170 0000 0000 		.long	.LM32
 2697 0174 17        		.byte	0x17
 2698 0175 00        		.byte	0x0
 2699 0176 05        		.uleb128 0x5
 2700 0177 02        		.byte	0x2
 2701 0178 0000 0000 		.long	.LM33
 2702 017c 16        		.byte	0x16
 2703 017d 00        		.byte	0x0
 2704 017e 05        		.uleb128 0x5
 2705 017f 02        		.byte	0x2
 2706 0180 0000 0000 		.long	.LM34
 2707 0184 16        		.byte	0x16
 2708 0185 00        		.byte	0x0
 2709 0186 05        		.uleb128 0x5
 2710 0187 02        		.byte	0x2
 2711 0188 0000 0000 		.long	.LM35
 2712 018c 16        		.byte	0x16
 2713 018d 00        		.byte	0x0
 2714 018e 05        		.uleb128 0x5
 2715 018f 02        		.byte	0x2
 2716 0190 0000 0000 		.long	.LM36
 2717 0194 03        		.byte	0x3
 2718 0195 6E        		.sleb128 -18
 2719 0196 01        		.byte	0x1
 2720 0197 00        		.byte	0x0
 2721 0198 05        		.uleb128 0x5
 2722 0199 02        		.byte	0x2
 2723 019a 0000 0000 		.long	.LM37
 2724 019e 0B        		.byte	0xb
 2725 019f 00        		.byte	0x0
 2726 01a0 05        		.uleb128 0x5
 2727 01a1 02        		.byte	0x2
 2728 01a2 0000 0000 		.long	.LM38
 2729 01a6 37        		.byte	0x37
 2730 01a7 00        		.byte	0x0
 2731 01a8 05        		.uleb128 0x5
 2732 01a9 02        		.byte	0x2
 2733 01aa 0000 0000 		.long	.LM39
 2734 01ae 15        		.byte	0x15
 2735 01af 00        		.byte	0x0
 2736 01b0 05        		.uleb128 0x5
 2737 01b1 02        		.byte	0x2
 2738 01b2 0000 0000 		.long	.LM40
 2739 01b6 15        		.byte	0x15
 2740 01b7 00        		.byte	0x0
 2741 01b8 05        		.uleb128 0x5
 2742 01b9 02        		.byte	0x2
 2743 01ba 0000 0000 		.long	.LM41
 2744 01be 16        		.byte	0x16
 2745 01bf 00        		.byte	0x0
 2746 01c0 05        		.uleb128 0x5
 2747 01c1 02        		.byte	0x2
 2748 01c2 0000 0000 		.long	.LM42
 2749 01c6 17        		.byte	0x17
GAS LISTING C:\Users\ADMINI~1\AppData\Local\Temp/ccvC2rQa.s 			page 50


 2750 01c7 00        		.byte	0x0
 2751 01c8 05        		.uleb128 0x5
 2752 01c9 02        		.byte	0x2
 2753 01ca 0000 0000 		.long	.LM43
 2754 01ce 20        		.byte	0x20
 2755 01cf 00        		.byte	0x0
 2756 01d0 05        		.uleb128 0x5
 2757 01d1 02        		.byte	0x2
 2758 01d2 0000 0000 		.long	.LM44
 2759 01d6 15        		.byte	0x15
 2760 01d7 00        		.byte	0x0
 2761 01d8 05        		.uleb128 0x5
 2762 01d9 02        		.byte	0x2
 2763 01da 0000 0000 		.long	.LM45
 2764 01de 16        		.byte	0x16
 2765 01df 00        		.byte	0x0
 2766 01e0 05        		.uleb128 0x5
 2767 01e1 02        		.byte	0x2
 2768 01e2 0000 0000 		.long	.LM46
 2769 01e6 17        		.byte	0x17
 2770 01e7 00        		.byte	0x0
 2771 01e8 05        		.uleb128 0x5
 2772 01e9 02        		.byte	0x2
 2773 01ea 0000 0000 		.long	.LM47
 2774 01ee 1B        		.byte	0x1b
 2775 01ef 00        		.byte	0x0
 2776 01f0 05        		.uleb128 0x5
 2777 01f1 02        		.byte	0x2
 2778 01f2 0000 0000 		.long	.LM48
 2779 01f6 15        		.byte	0x15
 2780 01f7 00        		.byte	0x0
 2781 01f8 05        		.uleb128 0x5
 2782 01f9 02        		.byte	0x2
 2783 01fa 0000 0000 		.long	.LM49
 2784 01fe 11        		.byte	0x11
 2785 01ff 00        		.byte	0x0
 2786 0200 05        		.uleb128 0x5
 2787 0201 02        		.byte	0x2
 2788 0202 0000 0000 		.long	.LM50
 2789 0206 03        		.byte	0x3
 2790 0207 73        		.sleb128 -13
 2791 0208 01        		.byte	0x1
 2792 0209 00        		.byte	0x0
 2793 020a 05        		.uleb128 0x5
 2794 020b 02        		.byte	0x2
 2795 020c 0000 0000 		.long	.LM51
 2796 0210 2B        		.byte	0x2b
 2797 0211 00        		.byte	0x0
 2798 0212 05        		.uleb128 0x5
 2799 0213 02        		.byte	0x2
 2800 0214 0000 0000 		.long	.LM52
 2801 0218 21        		.byte	0x21
 2802 0219 00        		.byte	0x0
 2803 021a 05        		.uleb128 0x5
 2804 021b 02        		.byte	0x2
 2805 021c 0000 0000 		.long	.LM53
 2806 0220 16        		.byte	0x16
GAS LISTING C:\Users\ADMINI~1\AppData\Local\Temp/ccvC2rQa.s 			page 51


 2807 0221 00        		.byte	0x0
 2808 0222 05        		.uleb128 0x5
 2809 0223 02        		.byte	0x2
 2810 0224 0000 0000 		.long	.LM54
 2811 0228 16        		.byte	0x16
 2812 0229 00        		.byte	0x0
 2813 022a 05        		.uleb128 0x5
 2814 022b 02        		.byte	0x2
 2815 022c 0000 0000 		.long	.LM55
 2816 0230 17        		.byte	0x17
 2817 0231 00        		.byte	0x0
 2818 0232 05        		.uleb128 0x5
 2819 0233 02        		.byte	0x2
 2820 0234 0000 0000 		.long	.LM56
 2821 0238 16        		.byte	0x16
 2822 0239 00        		.byte	0x0
 2823 023a 05        		.uleb128 0x5
 2824 023b 02        		.byte	0x2
 2825 023c 0000 0000 		.long	.LM57
 2826 0240 19        		.byte	0x19
 2827 0241 00        		.byte	0x0
 2828 0242 05        		.uleb128 0x5
 2829 0243 02        		.byte	0x2
 2830 0244 0000 0000 		.long	.LM58
 2831 0248 03        		.byte	0x3
 2832 0249 C17E      		.sleb128 -191
 2833 024b 01        		.byte	0x1
 2834 024c 00        		.byte	0x0
 2835 024d 05        		.uleb128 0x5
 2836 024e 02        		.byte	0x2
 2837 024f 0000 0000 		.long	.LM59
 2838 0253 01        		.byte	0x1
 2839 0254 00        		.byte	0x0
 2840 0255 05        		.uleb128 0x5
 2841 0256 02        		.byte	0x2
 2842 0257 0000 0000 		.long	.LM60
 2843 025b 27        		.byte	0x27
 2844 025c 00        		.byte	0x0
 2845 025d 05        		.uleb128 0x5
 2846 025e 02        		.byte	0x2
 2847 025f 0000 0000 		.long	.LM61
 2848 0263 29        		.byte	0x29
 2849 0264 00        		.byte	0x0
 2850 0265 05        		.uleb128 0x5
 2851 0266 02        		.byte	0x2
 2852 0267 0000 0000 		.long	.LM62
 2853 026b 11        		.byte	0x11
 2854 026c 00        		.byte	0x0
 2855 026d 05        		.uleb128 0x5
 2856 026e 02        		.byte	0x2
 2857 026f 0000 0000 		.long	.LM63
 2858 0273 03        		.byte	0x3
 2859 0274 5B        		.sleb128 -37
 2860 0275 01        		.byte	0x1
 2861 0276 00        		.byte	0x0
 2862 0277 05        		.uleb128 0x5
 2863 0278 02        		.byte	0x2
GAS LISTING C:\Users\ADMINI~1\AppData\Local\Temp/ccvC2rQa.s 			page 52


 2864 0279 0000 0000 		.long	.LM64
 2865 027d 1D        		.byte	0x1d
 2866 027e 00        		.byte	0x0
 2867 027f 05        		.uleb128 0x5
 2868 0280 02        		.byte	0x2
 2869 0281 0000 0000 		.long	.LM65
 2870 0285 16        		.byte	0x16
 2871 0286 00        		.byte	0x0
 2872 0287 05        		.uleb128 0x5
 2873 0288 02        		.byte	0x2
 2874 0289 0000 0000 		.long	.LM66
 2875 028d 15        		.byte	0x15
 2876 028e 00        		.byte	0x0
 2877 028f 05        		.uleb128 0x5
 2878 0290 02        		.byte	0x2
 2879 0291 0000 0000 		.long	.LM67
 2880 0295 17        		.byte	0x17
 2881 0296 00        		.byte	0x0
 2882 0297 05        		.uleb128 0x5
 2883 0298 02        		.byte	0x2
 2884 0299 0000 0000 		.long	.LM68
 2885 029d 18        		.byte	0x18
 2886 029e 00        		.byte	0x0
 2887 029f 05        		.uleb128 0x5
 2888 02a0 02        		.byte	0x2
 2889 02a1 0000 0000 		.long	.LM69
 2890 02a5 15        		.byte	0x15
 2891 02a6 00        		.byte	0x0
 2892 02a7 05        		.uleb128 0x5
 2893 02a8 02        		.byte	0x2
 2894 02a9 0000 0000 		.long	.LM70
 2895 02ad 1F        		.byte	0x1f
 2896 02ae 00        		.byte	0x0
 2897 02af 05        		.uleb128 0x5
 2898 02b0 02        		.byte	0x2
 2899 02b1 0000 0000 		.long	.LM71
 2900 02b5 16        		.byte	0x16
 2901 02b6 00        		.byte	0x0
 2902 02b7 05        		.uleb128 0x5
 2903 02b8 02        		.byte	0x2
 2904 02b9 0000 0000 		.long	.LM72
 2905 02bd 15        		.byte	0x15
 2906 02be 00        		.byte	0x0
 2907 02bf 05        		.uleb128 0x5
 2908 02c0 02        		.byte	0x2
 2909 02c1 0000 0000 		.long	.LM73
 2910 02c5 16        		.byte	0x16
 2911 02c6 00        		.byte	0x0
 2912 02c7 05        		.uleb128 0x5
 2913 02c8 02        		.byte	0x2
 2914 02c9 0000 0000 		.long	.LM74
 2915 02cd 15        		.byte	0x15
 2916 02ce 00        		.byte	0x0
 2917 02cf 05        		.uleb128 0x5
 2918 02d0 02        		.byte	0x2
 2919 02d1 0000 0000 		.long	.LM75
 2920 02d5 17        		.byte	0x17
GAS LISTING C:\Users\ADMINI~1\AppData\Local\Temp/ccvC2rQa.s 			page 53


 2921 02d6 00        		.byte	0x0
 2922 02d7 05        		.uleb128 0x5
 2923 02d8 02        		.byte	0x2
 2924 02d9 0000 0000 		.long	.LM76
 2925 02dd 17        		.byte	0x17
 2926 02de 00        		.byte	0x0
 2927 02df 05        		.uleb128 0x5
 2928 02e0 02        		.byte	0x2
 2929 02e1 0000 0000 		.long	.LM77
 2930 02e5 16        		.byte	0x16
 2931 02e6 00        		.byte	0x0
 2932 02e7 05        		.uleb128 0x5
 2933 02e8 02        		.byte	0x2
 2934 02e9 0000 0000 		.long	.LM78
 2935 02ed 17        		.byte	0x17
 2936 02ee 00        		.byte	0x0
 2937 02ef 05        		.uleb128 0x5
 2938 02f0 02        		.byte	0x2
 2939 02f1 0000 0000 		.long	.LM79
 2940 02f5 16        		.byte	0x16
 2941 02f6 00        		.byte	0x0
 2942 02f7 05        		.uleb128 0x5
 2943 02f8 02        		.byte	0x2
 2944 02f9 0000 0000 		.long	.LM80
 2945 02fd 15        		.byte	0x15
 2946 02fe 00        		.byte	0x0
 2947 02ff 05        		.uleb128 0x5
 2948 0300 02        		.byte	0x2
 2949 0301 0000 0000 		.long	.LM81
 2950 0305 15        		.byte	0x15
 2951 0306 00        		.byte	0x0
 2952 0307 05        		.uleb128 0x5
 2953 0308 02        		.byte	0x2
 2954 0309 0000 0000 		.long	.LM82
 2955 030d 17        		.byte	0x17
 2956 030e 00        		.byte	0x0
 2957 030f 05        		.uleb128 0x5
 2958 0310 02        		.byte	0x2
 2959 0311 0000 0000 		.long	.LM83
 2960 0315 15        		.byte	0x15
 2961 0316 00        		.byte	0x0
 2962 0317 05        		.uleb128 0x5
 2963 0318 02        		.byte	0x2
 2964 0319 0000 0000 		.long	.LM84
 2965 031d 15        		.byte	0x15
 2966 031e 00        		.byte	0x0
 2967 031f 05        		.uleb128 0x5
 2968 0320 02        		.byte	0x2
 2969 0321 0000 0000 		.long	.LM85
 2970 0325 17        		.byte	0x17
 2971 0326 00        		.byte	0x0
 2972 0327 05        		.uleb128 0x5
 2973 0328 02        		.byte	0x2
 2974 0329 0000 0000 		.long	.LM86
 2975 032d 03        		.byte	0x3
 2976 032e 4B        		.sleb128 -53
 2977 032f 01        		.byte	0x1
GAS LISTING C:\Users\ADMINI~1\AppData\Local\Temp/ccvC2rQa.s 			page 54


 2978 0330 00        		.byte	0x0
 2979 0331 05        		.uleb128 0x5
 2980 0332 02        		.byte	0x2
 2981 0333 0000 0000 		.long	.LM87
 2982 0337 13        		.byte	0x13
 2983 0338 00        		.byte	0x0
 2984 0339 05        		.uleb128 0x5
 2985 033a 02        		.byte	0x2
 2986 033b 0000 0000 		.long	.LM88
 2987 033f 21        		.byte	0x21
 2988 0340 00        		.byte	0x0
 2989 0341 05        		.uleb128 0x5
 2990 0342 02        		.byte	0x2
 2991 0343 0000 0000 		.long	.LM89
 2992 0347 15        		.byte	0x15
 2993 0348 00        		.byte	0x0
 2994 0349 05        		.uleb128 0x5
 2995 034a 02        		.byte	0x2
 2996 034b 0000 0000 		.long	.LM90
 2997 034f 44        		.byte	0x44
 2998 0350 00        		.byte	0x0
 2999 0351 05        		.uleb128 0x5
 3000 0352 02        		.byte	0x2
 3001 0353 0000 0000 		.long	.LM91
 3002 0357 15        		.byte	0x15
 3003 0358 00        		.byte	0x0
 3004 0359 05        		.uleb128 0x5
 3005 035a 02        		.byte	0x2
 3006 035b 0000 0000 		.long	.LM92
 3007 035f 17        		.byte	0x17
 3008 0360 00        		.byte	0x0
 3009 0361 05        		.uleb128 0x5
 3010 0362 02        		.byte	0x2
 3011 0363 0000 0000 		.long	.LM93
 3012 0367 16        		.byte	0x16
 3013 0368 00        		.byte	0x0
 3014 0369 05        		.uleb128 0x5
 3015 036a 02        		.byte	0x2
 3016 036b 0000 0000 		.long	.LM94
 3017 036f 15        		.byte	0x15
 3018 0370 00        		.byte	0x0
 3019 0371 05        		.uleb128 0x5
 3020 0372 02        		.byte	0x2
 3021 0373 0000 0000 		.long	.LM95
 3022 0377 18        		.byte	0x18
 3023 0378 00        		.byte	0x0
 3024 0379 05        		.uleb128 0x5
 3025 037a 02        		.byte	0x2
 3026 037b 0000 0000 		.long	.LM96
 3027 037f 16        		.byte	0x16
 3028 0380 00        		.byte	0x0
 3029 0381 05        		.uleb128 0x5
 3030 0382 02        		.byte	0x2
 3031 0383 0000 0000 		.long	.LM97
 3032 0387 03        		.byte	0x3
 3033 0388 FA7E      		.sleb128 -134
 3034 038a 01        		.byte	0x1
GAS LISTING C:\Users\ADMINI~1\AppData\Local\Temp/ccvC2rQa.s 			page 55


 3035 038b 00        		.byte	0x0
 3036 038c 05        		.uleb128 0x5
 3037 038d 02        		.byte	0x2
 3038 038e 0000 0000 		.long	.LM98
 3039 0392 16        		.byte	0x16
 3040 0393 00        		.byte	0x0
 3041 0394 05        		.uleb128 0x5
 3042 0395 02        		.byte	0x2
 3043 0396 0000 0000 		.long	.LM99
 3044 039a 15        		.byte	0x15
 3045 039b 00        		.byte	0x0
 3046 039c 05        		.uleb128 0x5
 3047 039d 02        		.byte	0x2
 3048 039e 0000 0000 		.long	.LM100
 3049 03a2 16        		.byte	0x16
 3050 03a3 00        		.byte	0x0
 3051 03a4 05        		.uleb128 0x5
 3052 03a5 02        		.byte	0x2
 3053 03a6 0000 0000 		.long	.LM101
 3054 03aa 15        		.byte	0x15
 3055 03ab 00        		.byte	0x0
 3056 03ac 05        		.uleb128 0x5
 3057 03ad 02        		.byte	0x2
 3058 03ae 0000 0000 		.long	.LM102
 3059 03b2 16        		.byte	0x16
 3060 03b3 00        		.byte	0x0
 3061 03b4 05        		.uleb128 0x5
 3062 03b5 02        		.byte	0x2
 3063 03b6 0000 0000 		.long	.LM103
 3064 03ba 16        		.byte	0x16
 3065 03bb 00        		.byte	0x0
 3066 03bc 05        		.uleb128 0x5
 3067 03bd 02        		.byte	0x2
 3068 03be 0000 0000 		.long	.LM104
 3069 03c2 16        		.byte	0x16
 3070 03c3 00        		.byte	0x0
 3071 03c4 05        		.uleb128 0x5
 3072 03c5 02        		.byte	0x2
 3073 03c6 0000 0000 		.long	.LM105
 3074 03ca 16        		.byte	0x16
 3075 03cb 00        		.byte	0x0
 3076 03cc 05        		.uleb128 0x5
 3077 03cd 02        		.byte	0x2
 3078 03ce 0000 0000 		.long	.LM106
 3079 03d2 15        		.byte	0x15
 3080 03d3 00        		.byte	0x0
 3081 03d4 05        		.uleb128 0x5
 3082 03d5 02        		.byte	0x2
 3083 03d6 0000 0000 		.long	.LM107
 3084 03da 15        		.byte	0x15
 3085 03db 00        		.byte	0x0
 3086 03dc 05        		.uleb128 0x5
 3087 03dd 02        		.byte	0x2
 3088 03de 0000 0000 		.long	.LM108
 3089 03e2 16        		.byte	0x16
 3090 03e3 00        		.byte	0x0
 3091 03e4 05        		.uleb128 0x5
GAS LISTING C:\Users\ADMINI~1\AppData\Local\Temp/ccvC2rQa.s 			page 56


 3092 03e5 02        		.byte	0x2
 3093 03e6 0000 0000 		.long	.LM109
 3094 03ea 18        		.byte	0x18
 3095 03eb 00        		.byte	0x0
 3096 03ec 05        		.uleb128 0x5
 3097 03ed 02        		.byte	0x2
 3098 03ee 0000 0000 		.long	.LM110
 3099 03f2 15        		.byte	0x15
 3100 03f3 00        		.byte	0x0
 3101 03f4 05        		.uleb128 0x5
 3102 03f5 02        		.byte	0x2
 3103 03f6 0000 0000 		.long	.LM111
 3104 03fa 15        		.byte	0x15
 3105 03fb 00        		.byte	0x0
 3106 03fc 05        		.uleb128 0x5
 3107 03fd 02        		.byte	0x2
 3108 03fe 0000 0000 		.long	.LM112
 3109 0402 16        		.byte	0x16
 3110 0403 00        		.byte	0x0
 3111 0404 05        		.uleb128 0x5
 3112 0405 02        		.byte	0x2
 3113 0406 0000 0000 		.long	.LM113
 3114 040a 16        		.byte	0x16
 3115 040b 00        		.byte	0x0
 3116 040c 05        		.uleb128 0x5
 3117 040d 02        		.byte	0x2
 3118 040e 0000 0000 		.long	.LM114
 3119 0412 15        		.byte	0x15
 3120 0413 00        		.byte	0x0
 3121 0414 05        		.uleb128 0x5
 3122 0415 02        		.byte	0x2
 3123 0416 0000 0000 		.long	.LM115
 3124 041a 16        		.byte	0x16
 3125 041b 00        		.byte	0x0
 3126 041c 05        		.uleb128 0x5
 3127 041d 02        		.byte	0x2
 3128 041e 0000 0000 		.long	.LM116
 3129 0422 15        		.byte	0x15
 3130 0423 00        		.byte	0x0
 3131 0424 05        		.uleb128 0x5
 3132 0425 02        		.byte	0x2
 3133 0426 0000 0000 		.long	.LM117
 3134 042a 1B        		.byte	0x1b
 3135 042b 00        		.byte	0x0
 3136 042c 05        		.uleb128 0x5
 3137 042d 02        		.byte	0x2
 3138 042e 0000 0000 		.long	.LM118
 3139 0432 16        		.byte	0x16
 3140 0433 00        		.byte	0x0
 3141 0434 05        		.uleb128 0x5
 3142 0435 02        		.byte	0x2
 3143 0436 0000 0000 		.long	.LM119
 3144 043a 15        		.byte	0x15
 3145 043b 00        		.byte	0x0
 3146 043c 05        		.uleb128 0x5
 3147 043d 02        		.byte	0x2
 3148 043e 0000 0000 		.long	.LM120
GAS LISTING C:\Users\ADMINI~1\AppData\Local\Temp/ccvC2rQa.s 			page 57


 3149 0442 1B        		.byte	0x1b
 3150 0443 00        		.byte	0x0
 3151 0444 05        		.uleb128 0x5
 3152 0445 02        		.byte	0x2
 3153 0446 0000 0000 		.long	.Letext0
 3154 044a 00        		.byte	0x0
 3155 044b 01        		.uleb128 0x1
 3156 044c 01        		.byte	0x1
 3157               	.LELT0:
 3158 044d 1600 0000 		.section	.debug_str,"MS",@progbits,1
 3158      0200 1000 
 3158      0000 0101 
 3158      FB0E 0A00 
 3158      0101 0101 
 3159               	.LASF132:
 3160 0000 4B45 595F 		.string	"KEY_LSHIFT"
 3160      4C53 4849 
 3160      4654 00
 3161               	.LASF206:
 3162 000b 7072 6576 		.string	"prev"
 3162      00
 3163               	.LASF84:
 3164 0010 4B45 595F 		.string	"KEY_SLASH"
 3164      534C 4153 
 3164      4800 
 3165               	.LASF22:
 3166 001a 4B45 595F 		.string	"KEY_LALT_HANJA"
 3166      4C41 4C54 
 3166      5F48 414E 
 3166      4A41 00
 3167               	.LASF155:
 3168 0029 4B45 595F 		.string	"KEY_PLAY"
 3168      504C 4159 
 3168      00
 3169               	.LASF208:
 3170 0032 6768 6F73 		.string	"ghost"
 3170      7400 
 3171               	.LASF163:
 3172 0038 4B45 595F 		.string	"KEY_REC"
 3172      5245 4300 
 3173               	.LASF111:
 3174 0040 4B45 595F 		.string	"KEY_NUMLOCK"
 3174      4E55 4D4C 
 3174      4F43 4B00 
 3175               	.LASF20:
 3176 004c 4B45 595F 		.string	"KEY_RALT_HANJA"
 3176      5241 4C54 
 3176      5F48 414E 
 3176      4A41 00
 3177               	.LASF17:
 3178 005b 4B45 595F 		.string	"KEY_LSHIFT_HANGLE"
 3178      4C53 4849 
 3178      4654 5F48 
 3178      414E 474C 
 3178      4500 
 3179               	.LASF131:
 3180 006d 4B45 595F 		.string	"KEY_LCTRL"
GAS LISTING C:\Users\ADMINI~1\AppData\Local\Temp/ccvC2rQa.s 			page 58


 3180      4C43 5452 
 3180      4C00 
 3181               	.LASF95:
 3182 0077 4B45 595F 		.string	"KEY_F10"
 3182      4631 3000 
 3183               	.LASF96:
 3184 007f 4B45 595F 		.string	"KEY_F11"
 3184      4631 3100 
 3185               	.LASF97:
 3186 0087 4B45 595F 		.string	"KEY_F12"
 3186      4631 3200 
 3187               	.LASF173:
 3188 008f 4B45 595F 		.string	"KEY_F13"
 3188      4631 3300 
 3189               	.LASF174:
 3190 0097 4B45 595F 		.string	"KEY_F14"
 3190      4631 3400 
 3191               	.LASF175:
 3192 009f 4B45 595F 		.string	"KEY_F15"
 3192      4631 3500 
 3193               	.LASF176:
 3194 00a7 4B45 595F 		.string	"KEY_F16"
 3194      4631 3600 
 3195               	.LASF177:
 3196 00af 4B45 595F 		.string	"KEY_F17"
 3196      4631 3700 
 3197               	.LASF178:
 3198 00b7 4B45 595F 		.string	"KEY_F18"
 3198      4631 3800 
 3199               	.LASF127:
 3200 00bf 4B45 595F 		.string	"KEY_KP_DOT"
 3200      4B50 5F44 
 3200      4F54 00
 3201               	.LASF154:
 3202 00ca 4B45 595F 		.string	"KEY_STOP"
 3202      5354 4F50 
 3202      00
 3203               	.LASF212:
 3204 00d3 6765 744C 		.string	"getLayer"
 3204      6179 6572 
 3204      00
 3205               	.LASF105:
 3206 00dc 4B45 595F 		.string	"KEY_END"
 3206      454E 4400 
 3207               	.LASF6:
 3208 00e4 6C6F 6E67 		.string	"long long unsigned int"
 3208      206C 6F6E 
 3208      6720 756E 
 3208      7369 676E 
 3208      6564 2069 
 3209               	.LASF150:
 3210 00fb 4B45 595F 		.string	"KEY_WWW_REFRESH"
 3210      5757 575F 
 3210      5245 4652 
 3210      4553 4800 
 3211               	.LASF70:
 3212 010b 4B45 595F 		.string	"KEY_BKSP"
GAS LISTING C:\Users\ADMINI~1\AppData\Local\Temp/ccvC2rQa.s 			page 59


 3212      424B 5350 
 3212      00
 3213               	.LASF104:
 3214 0114 4B45 595F 		.string	"KEY_DEL"
 3214      4445 4C00 
 3215               	.LASF153:
 3216 011c 4B45 595F 		.string	"KEY_PREV_TRK"
 3216      5052 4556 
 3216      5F54 524B 
 3216      00
 3217               	.LASF79:
 3218 0129 4B45 595F 		.string	"KEY_COLON"
 3218      434F 4C4F 
 3218      4E00 
 3219               	.LASF15:
 3220 0133 4B45 595F 		.string	"KEY_RSHIFT_HANGLE"
 3220      5253 4849 
 3220      4654 5F48 
 3220      414E 474C 
 3220      4500 
 3221               	.LASF141:
 3222 0145 4B45 595F 		.string	"KEY_POWER"
 3222      504F 5745 
 3222      5200 
 3223               	.LASF11:
 3224 014f 4B45 595F 		.string	"KEY_FN_HANGLE"
 3224      464E 5F48 
 3224      414E 474C 
 3224      4500 
 3225               	.LASF159:
 3226 015d 4B45 595F 		.string	"KEY_MEDIA"
 3226      4D45 4449 
 3226      4100 
 3227               	.LASF7:
 3228 0167 6C6F 6E67 		.string	"long long int"
 3228      206C 6F6E 
 3228      6720 696E 
 3228      7400 
 3229               	.LASF1:
 3230 0175 7369 676E 		.string	"signed char"
 3230      6564 2063 
 3230      6861 7200 
 3231               	.LASF114:
 3232 0181 4B45 595F 		.string	"KEY_KP_MINUS"
 3232      4B50 5F4D 
 3232      494E 5553 
 3232      00
 3233               	.LASF157:
 3234 018e 4B45 595F 		.string	"KEY_VOL_UP"
 3234      564F 4C5F 
 3234      5550 00
 3235               	.LASF180:
 3236 0199 4B45 595F 		.string	"KEY_F20"
 3236      4632 3000 
 3237               	.LASF181:
 3238 01a1 4B45 595F 		.string	"KEY_F21"
 3238      4632 3100 
GAS LISTING C:\Users\ADMINI~1\AppData\Local\Temp/ccvC2rQa.s 			page 60


 3239               	.LASF76:
 3240 01a9 4B45 595F 		.string	"KEY_RBR"
 3240      5242 5200 
 3241               	.LASF183:
 3242 01b1 4B45 595F 		.string	"KEY_F23"
 3242      4632 3300 
 3243               	.LASF156:
 3244 01b9 4B45 595F 		.string	"KEY_MUTE"
 3244      4D55 5445 
 3244      00
 3245               	.LASF5:
 3246 01c2 6C6F 6E67 		.string	"long int"
 3246      2069 6E74 
 3246      00
 3247               	.LASF147:
 3248 01cb 4B45 595F 		.string	"KEY_WWW_BACK"
 3248      5757 575F 
 3248      4241 434B 
 3248      00
 3249               	.LASF78:
 3250 01d8 4B45 595F 		.string	"KEY_Europe1"
 3250      4575 726F 
 3250      7065 3100 
 3251               	.LASF128:
 3252 01e4 4B45 595F 		.string	"KEY_Europe2"
 3252      4575 726F 
 3252      7065 3200 
 3253               	.LASF112:
 3254 01f0 4B45 595F 		.string	"KEY_KP_SLASH"
 3254      4B50 5F53 
 3254      4C41 5348 
 3254      00
 3255               	.LASF107:
 3256 01fd 4B45 595F 		.string	"KEY_RIGHT"
 3256      5249 4748 
 3256      5400 
 3257               	.LASF196:
 3258 0207 4B45 595F 		.string	"KEY_LANG3"
 3258      4C41 4E47 
 3258      3300 
 3259               	.LASF197:
 3260 0211 4B45 595F 		.string	"KEY_LANG4"
 3260      4C41 4E47 
 3260      3400 
 3261               	.LASF198:
 3262 021b 4B45 595F 		.string	"KEY_LANG5"
 3262      4C41 4E47 
 3262      3500 
 3263               	.LASF199:
 3264 0225 4B45 595F 		.string	"KEY_LANG6"
 3264      4C41 4E47 
 3264      3600 
 3265               	.LASF200:
 3266 022f 4B45 595F 		.string	"KEY_LANG7"
 3266      4C41 4E47 
 3266      3700 
 3267               	.LASF81:
GAS LISTING C:\Users\ADMINI~1\AppData\Local\Temp/ccvC2rQa.s 			page 61


 3268 0239 4B45 595F 		.string	"KEY_HASH"
 3268      4841 5348 
 3268      00
 3269               	.LASF137:
 3270 0242 4B45 595F 		.string	"KEY_RALT"
 3270      5241 4C54 
 3270      00
 3271               	.LASF151:
 3272 024b 4B45 595F 		.string	"KEY_WWW_FAVORITE"
 3272      5757 575F 
 3272      4641 564F 
 3272      5249 5445 
 3272      00
 3273               	.LASF202:
 3274 025c 4B45 595F 		.string	"KEY_LANG9"
 3274      4C41 4E47 
 3274      3900 
 3275               	.LASF23:
 3276 0266 4B45 595F 		.string	"KEY_RCTRL_HANGLE"
 3276      5243 5452 
 3276      4C5F 4841 
 3276      4E47 4C45 
 3276      00
 3277               	.LASF233:
 3278 0277 6765 7443 		.string	"getCurrentMatrix"
 3278      7572 7265 
 3278      6E74 4D61 
 3278      7472 6978 
 3278      00
 3279               	.LASF168:
 3280 0288 4B45 595F 		.string	"KEY_extend"
 3280      6578 7465 
 3280      6E64 00
 3281               	.LASF75:
 3282 0293 4B45 595F 		.string	"KEY_LBR"
 3282      4C42 5200 
 3283               	.LASF14:
 3284 029b 4B45 595F 		.string	"KEY_FN2_HANJA"
 3284      464E 325F 
 3284      4841 4E4A 
 3284      4100 
 3285               	.LASF228:
 3286 02a9 474E 5520 		.string	"GNU C 4.3.3"
 3286      4320 342E 
 3286      332E 3300 
 3287               	.LASF98:
 3288 02b5 4B45 595F 		.string	"KEY_PRNSCR"
 3288      5052 4E53 
 3288      4352 00
 3289               	.LASF106:
 3290 02c0 4B45 595F 		.string	"KEY_PGDN"
 3290      5047 444E 
 3290      00
 3291               	.LASF138:
 3292 02c9 4B45 595F 		.string	"KEY_RGUI"
 3292      5247 5549 
 3292      00
GAS LISTING C:\Users\ADMINI~1\AppData\Local\Temp/ccvC2rQa.s 			page 62


 3293               	.LASF146:
 3294 02d2 4B45 595F 		.string	"KEY_WWW_HOME"
 3294      5757 575F 
 3294      484F 4D45 
 3294      00
 3295               	.LASF18:
 3296 02df 4B45 595F 		.string	"KEY_LSHIFT_HANJA"
 3296      4C53 4849 
 3296      4654 5F48 
 3296      414E 4A41 
 3296      00
 3297               	.LASF220:
 3298 02f0 5F69 7341 		.string	"_isAllKeyRelease"
 3298      6C6C 4B65 
 3298      7952 656C 
 3298      6561 7365 
 3298      00
 3299               	.LASF8:
 3300 0301 756E 7369 		.string	"unsigned int"
 3300      676E 6564 
 3300      2069 6E74 
 3300      00
 3301               	.LASF136:
 3302 030e 4B45 595F 		.string	"KEY_RSHIFT"
 3302      5253 4849 
 3302      4654 00
 3303               	.LASF44:
 3304 0319 4B45 595F 		.string	"KEY_M"
 3304      4D00 
 3305               	.LASF99:
 3306 031f 4B45 595F 		.string	"KEY_SCRLCK"
 3306      5343 524C 
 3306      434B 00
 3307               	.LASF4:
 3308 032a 6C6F 6E67 		.string	"long unsigned int"
 3308      2075 6E73 
 3308      6967 6E65 
 3308      6420 696E 
 3308      7400 
 3309               	.LASF170:
 3310 033c 4B45 595F 		.string	"KEY_HANGLE"
 3310      4841 4E47 
 3310      4C45 00
 3311               	.LASF80:
 3312 0347 4B45 595F 		.string	"KEY_QUOTE"
 3312      5155 4F54 
 3312      4500 
 3313               	.LASF209:
 3314 0351 6E65 6564 		.string	"needDetection"
 3314      4465 7465 
 3314      6374 696F 
 3314      6E00 
 3315               	.LASF28:
 3316 035f 4B45 595F 		.string	"KEY_NONE"
 3316      4E4F 4E45 
 3316      00
 3317               	.LASF116:
GAS LISTING C:\Users\ADMINI~1\AppData\Local\Temp/ccvC2rQa.s 			page 63


 3318 0368 4B45 595F 		.string	"KEY_KP_ENTER"
 3318      4B50 5F45 
 3318      4E54 4552 
 3318      00
 3319               	.LASF54:
 3320 0375 4B45 595F 		.string	"KEY_W"
 3320      5700 
 3321               	.LASF101:
 3322 037b 4B45 595F 		.string	"KEY_INSERT"
 3322      494E 5345 
 3322      5254 00
 3323               	.LASF115:
 3324 0386 4B45 595F 		.string	"KEY_KP_PLUS"
 3324      4B50 5F50 
 3324      4C55 5300 
 3325               	.LASF2:
 3326 0392 7368 6F72 		.string	"short unsigned int"
 3326      7420 756E 
 3326      7369 676E 
 3326      6564 2069 
 3326      6E74 00
 3327               	.LASF85:
 3328 03a5 4B45 595F 		.string	"KEY_CAPS"
 3328      4341 5053 
 3328      00
 3329               	.LASF224:
 3330 03ae 7072 6576 		.string	"prevMatrix"
 3330      4D61 7472 
 3330      6978 00
 3331               	.LASF210:
 3332 03b9 7365 7443 		.string	"setCurrentMatrix"
 3332      7572 7265 
 3332      6E74 4D61 
 3332      7472 6978 
 3332      00
 3333               	.LASF227:
 3334 03ca 5F63 7572 		.string	"_currentLayer"
 3334      7265 6E74 
 3334      4C61 7965 
 3334      7200 
 3335               	.LASF83:
 3336 03d8 4B45 595F 		.string	"KEY_DOT"
 3336      444F 5400 
 3337               	.LASF223:
 3338 03e0 6D6F 646D 		.string	"modmask"
 3338      6173 6B00 
 3339               	.LASF165:
 3340 03e8 4B45 595F 		.string	"KEY_MINIMIZE"
 3340      4D49 4E49 
 3340      4D49 5A45 
 3340      00
 3341               	.LASF72:
 3342 03f5 4B45 595F 		.string	"KEY_SPACE"
 3342      5350 4143 
 3342      4500 
 3343               	.LASF142:
 3344 03ff 4B45 595F 		.string	"KEY_SLEEP"
GAS LISTING C:\Users\ADMINI~1\AppData\Local\Temp/ccvC2rQa.s 			page 64


 3344      534C 4545 
 3344      5000 
 3345               	.LASF213:
 3346 0409 6B65 7969 		.string	"keyidx"
 3346      6478 00
 3347               	.LASF167:
 3348 0410 4B45 595F 		.string	"KEY_Multimedia_end"
 3348      4D75 6C74 
 3348      696D 6564 
 3348      6961 5F65 
 3348      6E64 00
 3349               	.LASF31:
 3350 0423 4B45 595F 		.string	"KEY_ErrorUndefined"
 3350      4572 726F 
 3350      7255 6E64 
 3350      6566 696E 
 3350      6564 00
 3351               	.LASF149:
 3352 0436 4B45 595F 		.string	"KEY_WWW_STOP"
 3352      5757 575F 
 3352      5354 4F50 
 3352      00
 3353               	.LASF172:
 3354 0443 4B45 595F 		.string	"KEY_KP_EQUAL"
 3354      4B50 5F45 
 3354      5155 414C 
 3354      00
 3355               	.LASF219:
 3356 0450 6465 626F 		.string	"debounce"
 3356      756E 6365 
 3356      00
 3357               	.LASF67:
 3358 0459 4B45 595F 		.string	"KEY_0"
 3358      3000 
 3359               	.LASF58:
 3360 045f 4B45 595F 		.string	"KEY_1"
 3360      3100 
 3361               	.LASF59:
 3362 0465 4B45 595F 		.string	"KEY_2"
 3362      3200 
 3363               	.LASF60:
 3364 046b 4B45 595F 		.string	"KEY_3"
 3364      3300 
 3365               	.LASF61:
 3366 0471 4B45 595F 		.string	"KEY_4"
 3366      3400 
 3367               	.LASF62:
 3368 0477 4B45 595F 		.string	"KEY_5"
 3368      3500 
 3369               	.LASF63:
 3370 047d 4B45 595F 		.string	"KEY_6"
 3370      3600 
 3371               	.LASF64:
 3372 0483 4B45 595F 		.string	"KEY_7"
 3372      3700 
 3373               	.LASF65:
 3374 0489 4B45 595F 		.string	"KEY_8"
GAS LISTING C:\Users\ADMINI~1\AppData\Local\Temp/ccvC2rQa.s 			page 65


 3374      3800 
 3375               	.LASF66:
 3376 048f 4B45 595F 		.string	"KEY_9"
 3376      3900 
 3377               	.LASF73:
 3378 0495 4B45 595F 		.string	"KEY_MINUS"
 3378      4D49 4E55 
 3378      5300 
 3379               	.LASF143:
 3380 049f 4B45 595F 		.string	"KEY_WAKE"
 3380      5741 4B45 
 3380      00
 3381               	.LASF32:
 3382 04a8 4B45 595F 		.string	"KEY_A"
 3382      4100 
 3383               	.LASF33:
 3384 04ae 4B45 595F 		.string	"KEY_B"
 3384      4200 
 3385               	.LASF34:
 3386 04b4 4B45 595F 		.string	"KEY_C"
 3386      4300 
 3387               	.LASF35:
 3388 04ba 4B45 595F 		.string	"KEY_D"
 3388      4400 
 3389               	.LASF36:
 3390 04c0 4B45 595F 		.string	"KEY_E"
 3390      4500 
 3391               	.LASF37:
 3392 04c6 4B45 595F 		.string	"KEY_F"
 3392      4600 
 3393               	.LASF38:
 3394 04cc 4B45 595F 		.string	"KEY_G"
 3394      4700 
 3395               	.LASF39:
 3396 04d2 4B45 595F 		.string	"KEY_H"
 3396      4800 
 3397               	.LASF40:
 3398 04d8 4B45 595F 		.string	"KEY_I"
 3398      4900 
 3399               	.LASF41:
 3400 04de 4B45 595F 		.string	"KEY_J"
 3400      4A00 
 3401               	.LASF42:
 3402 04e4 4B45 595F 		.string	"KEY_K"
 3402      4B00 
 3403               	.LASF43:
 3404 04ea 4B45 595F 		.string	"KEY_L"
 3404      4C00 
 3405               	.LASF10:
 3406 04f0 4B45 595F 		.string	"KEY_dualAction"
 3406      6475 616C 
 3406      4163 7469 
 3406      6F6E 00
 3407               	.LASF45:
 3408 04ff 4B45 595F 		.string	"KEY_N"
 3408      4E00 
 3409               	.LASF46:
GAS LISTING C:\Users\ADMINI~1\AppData\Local\Temp/ccvC2rQa.s 			page 66


 3410 0505 4B45 595F 		.string	"KEY_O"
 3410      4F00 
 3411               	.LASF47:
 3412 050b 4B45 595F 		.string	"KEY_P"
 3412      5000 
 3413               	.LASF48:
 3414 0511 4B45 595F 		.string	"KEY_Q"
 3414      5100 
 3415               	.LASF49:
 3416 0517 4B45 595F 		.string	"KEY_R"
 3416      5200 
 3417               	.LASF50:
 3418 051d 4B45 595F 		.string	"KEY_S"
 3418      5300 
 3419               	.LASF51:
 3420 0523 4B45 595F 		.string	"KEY_T"
 3420      5400 
 3421               	.LASF52:
 3422 0529 4B45 595F 		.string	"KEY_U"
 3422      5500 
 3423               	.LASF53:
 3424 052f 4B45 595F 		.string	"KEY_V"
 3424      5600 
 3425               	.LASF27:
 3426 0535 4B45 595F 		.string	"KEY_dualAction_end"
 3426      6475 616C 
 3426      4163 7469 
 3426      6F6E 5F65 
 3426      6E64 00
 3427               	.LASF55:
 3428 0548 4B45 595F 		.string	"KEY_X"
 3428      5800 
 3429               	.LASF56:
 3430 054e 4B45 595F 		.string	"KEY_Y"
 3430      5900 
 3431               	.LASF57:
 3432 0554 4B45 595F 		.string	"KEY_Z"
 3432      5A00 
 3433               	.LASF164:
 3434 055a 4B45 595F 		.string	"KEY_REWIND"
 3434      5245 5749 
 3434      4E44 00
 3435               	.LASF229:
 3436 0565 6B65 796D 		.string	"keymatrix.c"
 3436      6174 7269 
 3436      782E 6300 
 3437               	.LASF201:
 3438 0571 4B45 595F 		.string	"KEY_LANG8"
 3438      4C41 4E47 
 3438      3800 
 3439               	.LASF226:
 3440 057b 6768 6F73 		.string	"ghostFilterMatrix"
 3440      7446 696C 
 3440      7465 724D 
 3440      6174 7269 
 3440      7800 
 3441               	.LASF221:
GAS LISTING C:\Users\ADMINI~1\AppData\Local\Temp/ccvC2rQa.s 			page 67


 3442 058d 6475 616C 		.string	"dualActionMaskDown"
 3442      4163 7469 
 3442      6F6E 4D61 
 3442      736B 446F 
 3442      776E 00
 3443               	.LASF184:
 3444 05a0 4B45 595F 		.string	"KEY_F24"
 3444      4632 3400 
 3445               	.LASF152:
 3446 05a8 4B45 595F 		.string	"KEY_NEXT_TRK"
 3446      4E45 5854 
 3446      5F54 524B 
 3446      00
 3447               	.LASF24:
 3448 05b5 4B45 595F 		.string	"KEY_RCTRL_HANJA"
 3448      5243 5452 
 3448      4C5F 4841 
 3448      4E4A 4100 
 3449               	.LASF26:
 3450 05c5 4B45 595F 		.string	"KEY_LCTRL_HANJA"
 3450      4C43 5452 
 3450      4C5F 4841 
 3450      4E4A 4100 
 3451               	.LASF113:
 3452 05d5 4B45 595F 		.string	"KEY_KP_AST"
 3452      4B50 5F41 
 3452      5354 00
 3453               	.LASF158:
 3454 05e0 4B45 595F 		.string	"KEY_VOL_DOWN"
 3454      564F 4C5F 
 3454      444F 574E 
 3454      00
 3455               	.LASF166:
 3456 05ed 4B45 595F 		.string	"KEY_EJECT"
 3456      454A 4543 
 3456      5400 
 3457               	.LASF218:
 3458 05f7 6465 626F 		.string	"debounceMAX"
 3458      756E 6365 
 3458      4D41 5800 
 3459               	.LASF139:
 3460 0603 4B45 595F 		.string	"KEY_Modifiers_end"
 3460      4D6F 6469 
 3460      6669 6572 
 3460      735F 656E 
 3460      6400 
 3461               	.LASF0:
 3462 0615 756E 7369 		.string	"unsigned char"
 3462      676E 6564 
 3462      2063 6861 
 3462      7200 
 3463               	.LASF162:
 3464 0623 4B45 595F 		.string	"KEY_SCREENSAVE"
 3464      5343 5245 
 3464      454E 5341 
 3464      5645 00
 3465               	.LASF203:
GAS LISTING C:\Users\ADMINI~1\AppData\Local\Temp/ccvC2rQa.s 			page 68


 3466 0632 4B45 595F 		.string	"KEY_extend_end"
 3466      6578 7465 
 3466      6E64 5F65 
 3466      6E64 00
 3467               	.LASF179:
 3468 0641 4B45 595F 		.string	"KEY_F19"
 3468      4631 3900 
 3469               	.LASF82:
 3470 0649 4B45 595F 		.string	"KEY_COMMA"
 3470      434F 4D4D 
 3470      4100 
 3471               	.LASF25:
 3472 0653 4B45 595F 		.string	"KEY_LCTRL_HANGLE"
 3472      4C43 5452 
 3472      4C5F 4841 
 3472      4E47 4C45 
 3472      00
 3473               	.LASF204:
 3474 0664 6973 416C 		.string	"isAllKeyRelease"
 3474      6C4B 6579 
 3474      5265 6C65 
 3474      6173 6500 
 3475               	.LASF71:
 3476 0674 4B45 595F 		.string	"KEY_TAB"
 3476      5441 4200 
 3477               	.LASF3:
 3478 067c 7368 6F72 		.string	"short int"
 3478      7420 696E 
 3478      7400 
 3479               	.LASF225:
 3480 0686 6375 7272 		.string	"currentMatrix"
 3480      656E 744D 
 3480      6174 7269 
 3480      7800 
 3481               	.LASF109:
 3482 0694 4B45 595F 		.string	"KEY_DOWN"
 3482      444F 574E 
 3482      00
 3483               	.LASF21:
 3484 069d 4B45 595F 		.string	"KEY_LALT_HANGLE"
 3484      4C41 4C54 
 3484      5F48 414E 
 3484      474C 4500 
 3485               	.LASF74:
 3486 06ad 4B45 595F 		.string	"KEY_EQUAL"
 3486      4551 5541 
 3486      4C00 
 3487               	.LASF211:
 3488 06b7 6743 6C65 		.string	"gClearMatrix"
 3488      6172 4D61 
 3488      7472 6978 
 3488      00
 3489               	.LASF16:
 3490 06c4 4B45 595F 		.string	"KEY_RSHIFT_HANJA"
 3490      5253 4849 
 3490      4654 5F48 
 3490      414E 4A41 
GAS LISTING C:\Users\ADMINI~1\AppData\Local\Temp/ccvC2rQa.s 			page 69


 3490      00
 3491               	.LASF100:
 3492 06d5 4B45 595F 		.string	"KEY_PAUSE"
 3492      5041 5553 
 3492      4500 
 3493               	.LASF117:
 3494 06df 4B45 595F 		.string	"KEY_KP_1"
 3494      4B50 5F31 
 3494      00
 3495               	.LASF118:
 3496 06e8 4B45 595F 		.string	"KEY_KP_2"
 3496      4B50 5F32 
 3496      00
 3497               	.LASF119:
 3498 06f1 4B45 595F 		.string	"KEY_KP_3"
 3498      4B50 5F33 
 3498      00
 3499               	.LASF103:
 3500 06fa 4B45 595F 		.string	"KEY_PGUP"
 3500      5047 5550 
 3500      00
 3501               	.LASF30:
 3502 0703 4B45 595F 		.string	"KEY_POSTFail"
 3502      504F 5354 
 3502      4661 696C 
 3502      00
 3503               	.LASF122:
 3504 0710 4B45 595F 		.string	"KEY_KP_6"
 3504      4B50 5F36 
 3504      00
 3505               	.LASF123:
 3506 0719 4B45 595F 		.string	"KEY_KP_7"
 3506      4B50 5F37 
 3506      00
 3507               	.LASF124:
 3508 0722 4B45 595F 		.string	"KEY_KP_8"
 3508      4B50 5F38 
 3508      00
 3509               	.LASF68:
 3510 072b 4B45 595F 		.string	"KEY_ENTER"
 3510      454E 5445 
 3510      5200 
 3511               	.LASF69:
 3512 0735 4B45 595F 		.string	"KEY_ESC"
 3512      4553 4300 
 3513               	.LASF13:
 3514 073d 4B45 595F 		.string	"KEY_FN2_HANGLE"
 3514      464E 325F 
 3514      4841 4E47 
 3514      4C45 00
 3515               	.LASF9:
 3516 074c 6368 6172 		.string	"char"
 3516      00
 3517               	.LASF169:
 3518 0751 4B45 595F 		.string	"KEY_HANJA"
 3518      4841 4E4A 
 3518      4100 
GAS LISTING C:\Users\ADMINI~1\AppData\Local\Temp/ccvC2rQa.s 			page 70


 3519               	.LASF121:
 3520 075b 4B45 595F 		.string	"KEY_KP_5"
 3520      4B50 5F35 
 3520      00
 3521               	.LASF222:
 3522 0764 6973 4265 		.string	"isBeyondFN"
 3522      796F 6E64 
 3522      464E 00
 3523               	.LASF126:
 3524 076f 4B45 595F 		.string	"KEY_KP_0"
 3524      4B50 5F30 
 3524      00
 3525               	.LASF125:
 3526 0778 4B45 595F 		.string	"KEY_KP_9"
 3526      4B50 5F39 
 3526      00
 3527               	.LASF215:
 3528 0781 6170 706C 		.string	"applyFN"
 3528      7946 4E00 
 3529               	.LASF120:
 3530 0789 4B45 595F 		.string	"KEY_KP_4"
 3530      4B50 5F34 
 3530      00
 3531               	.LASF144:
 3532 0792 4B45 595F 		.string	"KEY_EMAIL"
 3532      454D 4149 
 3532      4C00 
 3533               	.LASF214:
 3534 079c 6973 4C61 		.string	"isLazyLayer"
 3534      7A79 4C61 
 3534      7965 7200 
 3535               	.LASF171:
 3536 07a8 4B45 595F 		.string	"KEY_KBD_POWER"
 3536      4B42 445F 
 3536      504F 5745 
 3536      5200 
 3537               	.LASF217:
 3538 07b6 5F69 7345 		.string	"_isExtraFNDown"
 3538      7874 7261 
 3538      464E 446F 
 3538      776E 00
 3539               	.LASF135:
 3540 07c5 4B45 595F 		.string	"KEY_RCTRL"
 3540      5243 5452 
 3540      4C00 
 3541               	.LASF232:
 3542 07cf 636C 6561 		.string	"clearMatrix"
 3542      724D 6174 
 3542      7269 7800 
 3543               	.LASF77:
 3544 07db 4B45 595F 		.string	"KEY_BKSLASH"
 3544      424B 534C 
 3544      4153 4800 
 3545               	.LASF216:
 3546 07e7 6973 446F 		.string	"isDown"
 3546      776E 00
 3547               	.LASF160:
GAS LISTING C:\Users\ADMINI~1\AppData\Local\Temp/ccvC2rQa.s 			page 71


 3548 07ee 4B45 595F 		.string	"KEY_CALC"
 3548      4341 4C43 
 3548      00
 3549               	.LASF187:
 3550 07f7 4B45 595F 		.string	"KEY_INT1"
 3550      494E 5431 
 3550      00
 3551               	.LASF188:
 3552 0800 4B45 595F 		.string	"KEY_INT2"
 3552      494E 5432 
 3552      00
 3553               	.LASF189:
 3554 0809 4B45 595F 		.string	"KEY_INT3"
 3554      494E 5433 
 3554      00
 3555               	.LASF190:
 3556 0812 4B45 595F 		.string	"KEY_INT4"
 3556      494E 5434 
 3556      00
 3557               	.LASF191:
 3558 081b 4B45 595F 		.string	"KEY_INT5"
 3558      494E 5435 
 3558      00
 3559               	.LASF192:
 3560 0824 4B45 595F 		.string	"KEY_INT6"
 3560      494E 5436 
 3560      00
 3561               	.LASF193:
 3562 082d 4B45 595F 		.string	"KEY_INT7"
 3562      494E 5437 
 3562      00
 3563               	.LASF194:
 3564 0836 4B45 595F 		.string	"KEY_INT8"
 3564      494E 5438 
 3564      00
 3565               	.LASF195:
 3566 083f 4B45 595F 		.string	"KEY_INT9"
 3566      494E 5439 
 3566      00
 3567               	.LASF205:
 3568 0848 6765 744C 		.string	"getLiveMatrix"
 3568      6976 654D 
 3568      6174 7269 
 3568      7800 
 3569               	.LASF133:
 3570 0856 4B45 595F 		.string	"KEY_LALT"
 3570      4C41 4C54 
 3570      00
 3571               	.LASF12:
 3572 085f 4B45 595F 		.string	"KEY_FN_HANJA"
 3572      464E 5F48 
 3572      414E 4A41 
 3572      00
 3573               	.LASF87:
 3574 086c 4B45 595F 		.string	"KEY_F2"
 3574      4632 00
 3575               	.LASF88:
GAS LISTING C:\Users\ADMINI~1\AppData\Local\Temp/ccvC2rQa.s 			page 72


 3576 0873 4B45 595F 		.string	"KEY_F3"
 3576      4633 00
 3577               	.LASF89:
 3578 087a 4B45 595F 		.string	"KEY_F4"
 3578      4634 00
 3579               	.LASF90:
 3580 0881 4B45 595F 		.string	"KEY_F5"
 3580      4635 00
 3581               	.LASF91:
 3582 0888 4B45 595F 		.string	"KEY_F6"
 3582      4636 00
 3583               	.LASF92:
 3584 088f 4B45 595F 		.string	"KEY_F7"
 3584      4637 00
 3585               	.LASF93:
 3586 0896 4B45 595F 		.string	"KEY_F8"
 3586      4638 00
 3587               	.LASF231:
 3588 089d 7569 6E74 		.string	"uint8_t"
 3588      385F 7400 
 3589               	.LASF102:
 3590 08a5 4B45 595F 		.string	"KEY_HOME"
 3590      484F 4D45 
 3590      00
 3591               	.LASF148:
 3592 08ae 4B45 595F 		.string	"KEY_WWW_FORWARD"
 3592      5757 575F 
 3592      464F 5257 
 3592      4152 4400 
 3593               	.LASF230:
 3594 08be 443A 5C67 		.string	"D:\\git\\ps2avrU\\source"
 3594      6974 5C70 
 3594      7332 6176 
 3594      7255 5C73 
 3594      6F75 7263 
 3595               	.LASF129:
 3596 08d4 4B45 595F 		.string	"KEY_APPS"
 3596      4150 5053 
 3596      00
 3597               	.LASF145:
 3598 08dd 4B45 595F 		.string	"KEY_WWW_SEARCH"
 3598      5757 575F 
 3598      5345 4152 
 3598      4348 00
 3599               	.LASF110:
 3600 08ec 4B45 595F 		.string	"KEY_UP"
 3600      5550 00
 3601               	.LASF86:
 3602 08f3 4B45 595F 		.string	"KEY_F1"
 3602      4631 00
 3603               	.LASF161:
 3604 08fa 4B45 595F 		.string	"KEY_MYCOM"
 3604      4D59 434F 
 3604      4D00 
 3605               	.LASF186:
 3606 0904 4B45 595F 		.string	"KEY_EQUAL_SIGN"
 3606      4551 5541 
GAS LISTING C:\Users\ADMINI~1\AppData\Local\Temp/ccvC2rQa.s 			page 73


 3606      4C5F 5349 
 3606      474E 00
 3607               	.LASF29:
 3608 0913 4B45 595F 		.string	"KEY_ErrorRollOver"
 3608      4572 726F 
 3608      7252 6F6C 
 3608      6C4F 7665 
 3608      7200 
 3609               	.LASF94:
 3610 0925 4B45 595F 		.string	"KEY_F9"
 3610      4639 00
 3611               	.LASF207:
 3612 092c 6973 4D6F 		.string	"isModified"
 3612      6469 6669 
 3612      6564 00
 3613               	.LASF134:
 3614 0937 4B45 595F 		.string	"KEY_LGUI"
 3614      4C47 5549 
 3614      00
 3615               	.LASF19:
 3616 0940 4B45 595F 		.string	"KEY_RALT_HANGLE"
 3616      5241 4C54 
 3616      5F48 414E 
 3616      474C 4500 
 3617               	.LASF185:
 3618 0950 4B45 595F 		.string	"KEY_KP_COMMA"
 3618      4B50 5F43 
 3618      4F4D 4D41 
 3618      00
 3619               	.LASF140:
 3620 095d 4B45 595F 		.string	"KEY_Multimedia"
 3620      4D75 6C74 
 3620      696D 6564 
 3620      6961 00
 3621               	.LASF130:
 3622 096c 4B45 595F 		.string	"KEY_Modifiers"
 3622      4D6F 6469 
 3622      6669 6572 
 3622      7300 
 3623               	.LASF108:
 3624 097a 4B45 595F 		.string	"KEY_LEFT"
 3624      4C45 4654 
 3624      00
 3625               	.LASF182:
 3626 0983 4B45 595F 		.string	"KEY_F22"
 3626      4632 3200 
 3627               	.global __do_copy_data
 3628               	.global __do_clear_bss
GAS LISTING C:\Users\ADMINI~1\AppData\Local\Temp/ccvC2rQa.s 			page 74


DEFINED SYMBOLS
                            *ABS*:00000000 keymatrix.c
C:\Users\ADMINI~1\AppData\Local\Temp/ccvC2rQa.s:2      *ABS*:0000003f __SREG__
C:\Users\ADMINI~1\AppData\Local\Temp/ccvC2rQa.s:3      *ABS*:0000003e __SP_H__
C:\Users\ADMINI~1\AppData\Local\Temp/ccvC2rQa.s:4      *ABS*:0000003d __SP_L__
C:\Users\ADMINI~1\AppData\Local\Temp/ccvC2rQa.s:5      *ABS*:00000034 __CCP__
C:\Users\ADMINI~1\AppData\Local\Temp/ccvC2rQa.s:6      *ABS*:00000000 __tmp_reg__
C:\Users\ADMINI~1\AppData\Local\Temp/ccvC2rQa.s:7      *ABS*:00000001 __zero_reg__
C:\Users\ADMINI~1\AppData\Local\Temp/ccvC2rQa.s:18     .text:00000000 clearMatrix
                            *COM*:00000011 prevMatrix
                            *COM*:00000011 currentMatrix
C:\Users\ADMINI~1\AppData\Local\Temp/ccvC2rQa.s:802    .data:00000021 debounceMAX
C:\Users\ADMINI~1\AppData\Local\Temp/ccvC2rQa.s:52     .text:00000024 isAllKeyRelease
                             .bss:00000002 _isAllKeyRelease
C:\Users\ADMINI~1\AppData\Local\Temp/ccvC2rQa.s:87     .text:0000004a getCurrentMatrix
                            *COM*:00000011 ghostFilterMatrix
C:\Users\ADMINI~1\AppData\Local\Temp/ccvC2rQa.s:101    .text:00000050 getLiveMatrix
C:\Users\ADMINI~1\AppData\Local\Temp/ccvC2rQa.s:798    .data:00000020 debounce
C:\Users\ADMINI~1\AppData\Local\Temp/ccvC2rQa.s:352    .text:000001ae setCurrentMatrix
C:\Users\ADMINI~1\AppData\Local\Temp/ccvC2rQa.s:381    .text:000001cc getLayer
C:\Users\ADMINI~1\AppData\Local\Temp/ccvC2rQa.s:773    .bss:00000001 _currentLayer
C:\Users\ADMINI~1\AppData\Local\Temp/ccvC2rQa.s:804    .bss:00000003 isLazyLayer.2281
C:\Users\ADMINI~1\AppData\Local\Temp/ccvC2rQa.s:767    .bss:00000000 isBeyondFN
C:\Users\ADMINI~1\AppData\Local\Temp/ccvC2rQa.s:643    .text:00000348 applyFN
C:\Users\ADMINI~1\AppData\Local\Temp/ccvC2rQa.s:805    .bss:00000004 _isExtraFNDown
C:\Users\ADMINI~1\AppData\Local\Temp/ccvC2rQa.s:779    .data:00000000 modmask

UNDEFINED SYMBOLS
_delay_us_m
startKeyMapping
enterFrameForMapper
isReadyKeyMappingOnBoot
getCurrentKeycode
dualActionMaskDown
setDualAction
applyKeyDownForFullLED
getLEDState
changeFullLedState
increaseLedBrightness
reduceLedBrightness
__do_copy_data
__do_clear_bss
