GAS LISTING C:\Users\ADMINI~1\AppData\Local\Temp/ccKaOfSf.s 			page 1


   1               		.file	"keymatrix.c"
   2               	__SREG__ = 0x3f
   3               	__SP_H__ = 0x3e
   4               	__SP_L__ = 0x3d
   5               	__CCP__  = 0x34
   6               	__tmp_reg__ = 0
   7               	__zero_reg__ = 1
   8               		.section	.debug_abbrev,"",@progbits
   9               	.Ldebug_abbrev0:
  10               		.section	.debug_info,"",@progbits
  11               	.Ldebug_info0:
  12               		.section	.debug_line,"",@progbits
  13               	.Ldebug_line0:
  14               		.text
  15               	.Ltext0:
  16               	.global	clearMatrix
  17               		.type	clearMatrix, @function
  18               	clearMatrix:
  19               	.LFB8:
  20               	.LM1:
  21               	/* prologue: function */
  22               	/* frame size = 0 */
  23               	.LM2:
  24 0000 80E0      		ldi r24,lo8(0)
  25 0002 90E0      		ldi r25,hi8(0)
  26               	.L2:
  27               	.LM3:
  28 0004 FC01      		movw r30,r24
  29 0006 E050      		subi r30,lo8(-(prevMatrix))
  30 0008 F040      		sbci r31,hi8(-(prevMatrix))
  31 000a 1082      		st Z,__zero_reg__
  32               	.LM4:
  33 000c FC01      		movw r30,r24
  34 000e E050      		subi r30,lo8(-(currentMatrix))
  35 0010 F040      		sbci r31,hi8(-(currentMatrix))
  36 0012 1082      		st Z,__zero_reg__
  37 0014 0196      		adiw r24,1
  38               	.LM5:
  39 0016 8131      		cpi r24,17
  40 0018 9105      		cpc r25,__zero_reg__
  41 001a 01F4      		brne .L2
  42               	.LM6:
  43 001c 8AE0      		ldi r24,lo8(10)
  44 001e 8093 0000 		sts debounceMAX,r24
  45               	/* epilogue start */
  46               	.LM7:
  47 0022 0895      		ret
  48               	.LFE8:
  49               		.size	clearMatrix, .-clearMatrix
  50               	.global	isAllKeyRelease
  51               		.type	isAllKeyRelease, @function
  52               	isAllKeyRelease:
  53               	.LFB9:
  54               	.LM8:
  55               	/* prologue: function */
  56               	/* frame size = 0 */
  57               	.LM9:
GAS LISTING C:\Users\ADMINI~1\AppData\Local\Temp/ccKaOfSf.s 			page 2


  58 0024 E0E0      		ldi r30,lo8(currentMatrix)
  59 0026 F0E0      		ldi r31,hi8(currentMatrix)
  60               	.L8:
  61               	.LM10:
  62 0028 8081      		ld r24,Z
  63 002a 8823      		tst r24
  64 002c 01F0      		breq .L6
  65 002e 80E0      		ldi r24,lo8(0)
  66               	.LVL0:
  67 0030 0895      		ret
  68               	.LVL1:
  69               	.L6:
  70 0032 3196      		adiw r30,1
  71               	.LM11:
  72 0034 80E0      		ldi r24,hi8(currentMatrix+17)
  73 0036 E030      		cpi r30,lo8(currentMatrix+17)
  74 0038 F807      		cpc r31,r24
  75 003a 01F4      		brne .L8
  76 003c 81E0      		ldi r24,lo8(1)
  77               	.LVL2:
  78               	.LVL3:
  79               	.LM12:
  80 003e 0895      		ret
  81               	.LFE9:
  82               		.size	isAllKeyRelease, .-isAllKeyRelease
  83               	.global	getLiveMatrix
  84               		.type	getLiveMatrix, @function
  85               	getLiveMatrix:
  86               	.LFB12:
  87               	.LM13:
  88 0040 8F92      		push r8
  89 0042 9F92      		push r9
  90 0044 AF92      		push r10
  91 0046 BF92      		push r11
  92 0048 DF92      		push r13
  93 004a EF92      		push r14
  94 004c FF92      		push r15
  95 004e 0F93      		push r16
  96 0050 1F93      		push r17
  97 0052 CF93      		push r28
  98 0054 DF93      		push r29
  99               	/* prologue: function */
 100               	/* frame size = 0 */
 101               	.LM14:
 102 0056 DD24      		clr r13
 103               	.LVL4:
 104 0058 C0E0      		ldi r28,lo8(0)
 105 005a D0E0      		ldi r29,hi8(0)
 106               	.LM15:
 107 005c 21E0      		ldi r18,lo8(1)
 108 005e E22E      		mov r14,r18
 109 0060 F12C      		mov r15,__zero_reg__
 110               	.LM16:
 111 0062 97E1      		ldi r25,lo8(23)
 112 0064 892E      		mov r8,r25
 113 0066 912C      		mov r9,__zero_reg__
 114               	.LM17:
GAS LISTING C:\Users\ADMINI~1\AppData\Local\Temp/ccKaOfSf.s 			page 3


 115 0068 8FE0      		ldi r24,lo8(15)
 116 006a A82E      		mov r10,r24
 117 006c B12C      		mov r11,__zero_reg__
 118               	.LVL5:
 119               	.L19:
 120               	.LM18:
 121 006e 8701      		movw r16,r14
 122 0070 0C2E      		mov r0,r28
 123 0072 00C0      		rjmp 2f
 124 0074 000F      	1:	lsl r16
 125 0076 111F      		rol r17
 126 0078 0A94      	2:	dec r0
 127 007a 02F4      		brpl 1b
 128 007c 07BB      		out 55-32,r16
 129               	.LM19:
 130 007e 802F      		mov r24,r16
 131 0080 8095      		com r24
 132 0082 88BB      		out 56-32,r24
 133               	.LM20:
 134 0084 81E0      		ldi r24,lo8(1)
 135 0086 90E0      		ldi r25,hi8(1)
 136 0088 0E94 0000 		call _delay_us_m
 137               	.LVL6:
 138 008c E0E0      		ldi r30,lo8(currentMatrix)
 139 008e F0E0      		ldi r31,hi8(currentMatrix)
 140 0090 40E0      		ldi r20,lo8(0)
 141 0092 50E0      		ldi r21,hi8(0)
 142               	.LM21:
 143 0094 302F      		mov r19,r16
 144 0096 3095      		com r19
 145               	.LVL7:
 146               	.L18:
 147               	.LM22:
 148 0098 842F      		mov r24,r20
 149               	.LVL8:
 150               	.LM23:
 151 009a 4830      		cpi r20,lo8(8)
 152 009c 00F4      		brsh .L12
 153               	.LVL9:
 154               	.LM24:
 155 009e 29B3      		in r18,57-32
 156 00a0 C701      		movw r24,r14
 157 00a2 042E      		mov r0,r20
 158 00a4 00C0      		rjmp 2f
 159 00a6 880F      	1:	lsl r24
 160 00a8 991F      		rol r25
 161 00aa 0A94      	2:	dec r0
 162 00ac 02F4      		brpl 1b
 163               	.LVL10:
 164 00ae 00C0      		rjmp .L26
 165               	.LVL11:
 166               	.L12:
 167               	.LM25:
 168 00b0 8850      		subi r24,lo8(-(-8))
 169               	.LVL12:
 170 00b2 8830      		cpi r24,lo8(8)
 171 00b4 00F4      		brsh .L14
GAS LISTING C:\Users\ADMINI~1\AppData\Local\Temp/ccKaOfSf.s 			page 4


 172               	.LM26:
 173 00b6 23B3      		in r18,51-32
 174 00b8 C501      		movw r24,r10
 175               	.LVL13:
 176 00ba 00C0      		rjmp .L28
 177               	.LVL14:
 178               	.L14:
 179               	.LM27:
 180 00bc 20B3      		in r18,48-32
 181 00be C401      		movw r24,r8
 182               	.LVL15:
 183               	.L28:
 184 00c0 841B      		sub r24,r20
 185 00c2 950B      		sbc r25,r21
 186 00c4 B701      		movw r22,r14
 187 00c6 00C0      		rjmp 2f
 188 00c8 660F      	1:	lsl r22
 189 00ca 771F      		rol r23
 190 00cc 8A95      	2:	dec r24
 191 00ce 02F4      		brpl 1b
 192 00d0 CB01      		movw r24,r22
 193               	.L26:
 194 00d2 2095      		com r18
 195 00d4 2823      		and r18,r24
 196               	.LM28:
 197 00d6 9081      		ld r25,Z
 198               	.LM29:
 199 00d8 802F      		mov r24,r16
 200 00da 8923      		and r24,r25
 201 00dc 01F0      		breq .L15
 202 00de 2223      		tst r18
 203 00e0 01F0      		breq .L16
 204 00e2 00C0      		rjmp .L17
 205               	.L15:
 206 00e4 2223      		tst r18
 207 00e6 01F0      		breq .L17
 208               	.LM30:
 209 00e8 902B      		or r25,r16
 210 00ea 00C0      		rjmp .L27
 211               	.L16:
 212               	.LM31:
 213 00ec 9323      		and r25,r19
 214               	.L27:
 215 00ee 9083      		st Z,r25
 216 00f0 DD24      		clr r13
 217 00f2 D394      		inc r13
 218               	.L17:
 219 00f4 4F5F      		subi r20,lo8(-(1))
 220 00f6 5F4F      		sbci r21,hi8(-(1))
 221 00f8 3196      		adiw r30,1
 222               	.LM32:
 223 00fa 4131      		cpi r20,17
 224 00fc 5105      		cpc r21,__zero_reg__
 225 00fe 01F4      		brne .L18
 226 0100 2196      		adiw r28,1
 227               	.LM33:
 228 0102 C830      		cpi r28,8
GAS LISTING C:\Users\ADMINI~1\AppData\Local\Temp/ccKaOfSf.s 			page 5


 229 0104 D105      		cpc r29,__zero_reg__
 230 0106 01F0      		breq .+2
 231 0108 00C0      		rjmp .L19
 232               	.LM34:
 233 010a DD20      		tst r13
 234 010c 01F0      		breq .L20
 235               	.LM35:
 236 010e 1092 0000 		sts debounce,__zero_reg__
 237 0112 00C0      		rjmp .L21
 238               	.L20:
 239               	.LM36:
 240 0114 8091 0000 		lds r24,debounce
 241 0118 8436      		cpi r24,lo8(100)
 242 011a 00F4      		brsh .L21
 243               	.LM37:
 244 011c 8F5F      		subi r24,lo8(-(1))
 245 011e 8093 0000 		sts debounce,r24
 246               	.L21:
 247 0122 20E0      		ldi r18,lo8(0)
 248               	.LVL16:
 249 0124 9091 0000 		lds r25,debounce
 250 0128 8091 0000 		lds r24,debounceMAX
 251 012c 9817      		cp r25,r24
 252 012e 01F4      		brne .L22
 253 0130 21E0      		ldi r18,lo8(1)
 254               	.L22:
 255               	.LM38:
 256 0132 822F      		mov r24,r18
 257               	/* epilogue start */
 258 0134 DF91      		pop r29
 259 0136 CF91      		pop r28
 260 0138 1F91      		pop r17
 261 013a 0F91      		pop r16
 262 013c FF90      		pop r15
 263 013e EF90      		pop r14
 264 0140 DF90      		pop r13
 265               	.LVL17:
 266 0142 BF90      		pop r11
 267 0144 AF90      		pop r10
 268 0146 9F90      		pop r9
 269 0148 8F90      		pop r8
 270 014a 0895      		ret
 271               	.LFE12:
 272               		.size	getLiveMatrix, .-getLiveMatrix
 273               	.global	setCurrentMatrix
 274               		.type	setCurrentMatrix, @function
 275               	setCurrentMatrix:
 276               	.LFB13:
 277               	.LM39:
 278 014c 1F93      		push r17
 279               	/* prologue: function */
 280               	/* frame size = 0 */
 281               	.LM40:
 282 014e 0E94 0000 		call startKeyMapping
 283               	.LM41:
 284 0152 0E94 0000 		call getLiveMatrix
 285 0156 182F      		mov r17,r24
GAS LISTING C:\Users\ADMINI~1\AppData\Local\Temp/ccKaOfSf.s 			page 6


 286               	.LVL18:
 287               	.LM42:
 288 0158 0E94 0000 		call enterFrameForMapper
 289               	.LM43:
 290 015c 0E94 0000 		call isReadyKeyMappingOnBoot
 291 0160 8111      		cpse r24,__zero_reg__
 292 0162 10E0      		ldi r17,lo8(0)
 293               	.L30:
 294               	.LM44:
 295 0164 812F      		mov r24,r17
 296               	/* epilogue start */
 297 0166 1F91      		pop r17
 298               	.LVL19:
 299 0168 0895      		ret
 300               	.LFE13:
 301               		.size	setCurrentMatrix, .-setCurrentMatrix
 302               	.global	getLayer
 303               		.type	getLayer, @function
 304               	getLayer:
 305               	.LFB11:
 306               	.LM45:
 307 016a 4F92      		push r4
 308 016c 5F92      		push r5
 309 016e 6F92      		push r6
 310 0170 7F92      		push r7
 311 0172 9F92      		push r9
 312 0174 AF92      		push r10
 313 0176 BF92      		push r11
 314 0178 CF92      		push r12
 315 017a DF92      		push r13
 316 017c EF92      		push r14
 317 017e FF92      		push r15
 318 0180 0F93      		push r16
 319 0182 1F93      		push r17
 320 0184 CF93      		push r28
 321 0186 DF93      		push r29
 322               	/* prologue: function */
 323               	/* frame size = 0 */
 324               	.LM46:
 325 0188 EE24      		clr r14
 326 018a FF24      		clr r15
 327               	.LM47:
 328 018c 51E0      		ldi r21,lo8(1)
 329 018e C52E      		mov r12,r21
 330 0190 D12C      		mov r13,__zero_reg__
 331               	.LM48:
 332 0192 47E1      		ldi r20,lo8(23)
 333 0194 442E      		mov r4,r20
 334 0196 512C      		mov r5,__zero_reg__
 335               	.LM49:
 336 0198 3FE0      		ldi r19,lo8(15)
 337 019a 632E      		mov r6,r19
 338 019c 712C      		mov r7,__zero_reg__
 339 019e 00C0      		rjmp .L33
 340               	.LVL20:
 341               	.L43:
 342               	.LM50:
GAS LISTING C:\Users\ADMINI~1\AppData\Local\Temp/ccKaOfSf.s 			page 7


 343 01a0 0C2F      		mov r16,r28
 344               	.LM51:
 345 01a2 8091 0000 		lds r24,_currentLayer
 346 01a6 6C2F      		mov r22,r28
 347 01a8 492D      		mov r20,r9
 348 01aa 0E94 0000 		call getCurrentKeycode
 349               	.LVL21:
 350 01ae 182F      		mov r17,r24
 351               	.LM52:
 352 01b0 865D      		subi r24,lo8(-(42))
 353 01b2 8031      		cpi r24,lo8(16)
 354 01b4 00F4      		brsh .L34
 355               	.LM53:
 356 01b6 E12F      		mov r30,r17
 357 01b8 F0E0      		ldi r31,lo8(0)
 358               	.LVL22:
 359 01ba E050      		subi r30,lo8(-(dualActionMaskDown-214))
 360 01bc F040      		sbci r31,hi8(-(dualActionMaskDown-214))
 361               	.LVL23:
 362 01be 1081      		ld r17,Z
 363               	.LVL24:
 364               	.L34:
 365               	.LM54:
 366 01c0 1E3F      		cpi r17,lo8(-2)
 367 01c2 01F0      		breq .L35
 368 01c4 183F      		cpi r17,lo8(-8)
 369 01c6 01F0      		breq .L35
 370 01c8 1B3F      		cpi r17,lo8(-5)
 371 01ca 01F4      		brne .L36
 372 01cc 8091 0000 		lds r24,_currentLayer
 373 01d0 8230      		cpi r24,lo8(2)
 374 01d2 01F4      		brne .L36
 375               	.L35:
 376               	.LM55:
 377 01d4 A7BA      		out 55-32,r10
 378               	.LM56:
 379 01d6 B8BA      		out 56-32,r11
 380               	.LM57:
 381 01d8 81E0      		ldi r24,lo8(1)
 382 01da 90E0      		ldi r25,hi8(1)
 383 01dc 0E94 0000 		call _delay_us_m
 384               	.LVL25:
 385               	.LM58:
 386 01e0 0830      		cpi r16,lo8(8)
 387 01e2 00F4      		brsh .L37
 388               	.LM59:
 389 01e4 29B3      		in r18,57-32
 390               	.LVL26:
 391 01e6 C601      		movw r24,r12
 392 01e8 0C2E      		mov r0,r28
 393 01ea 00C0      		rjmp 2f
 394 01ec 880F      	1:	lsl r24
 395 01ee 991F      		rol r25
 396 01f0 0A94      	2:	dec r0
 397 01f2 02F4      		brpl 1b
 398 01f4 00C0      		rjmp .L48
 399               	.LVL27:
GAS LISTING C:\Users\ADMINI~1\AppData\Local\Temp/ccKaOfSf.s 			page 8


 400               	.L37:
 401               	.LM60:
 402 01f6 0850      		subi r16,lo8(-(-8))
 403 01f8 0830      		cpi r16,lo8(8)
 404 01fa 00F4      		brsh .L39
 405               	.LM61:
 406 01fc 23B3      		in r18,51-32
 407               	.LVL28:
 408 01fe C301      		movw r24,r6
 409 0200 00C0      		rjmp .L50
 410               	.LVL29:
 411               	.L39:
 412               	.LM62:
 413 0202 20B3      		in r18,48-32
 414               	.LVL30:
 415 0204 C201      		movw r24,r4
 416               	.L50:
 417 0206 8C1B      		sub r24,r28
 418 0208 9D0B      		sbc r25,r29
 419 020a A601      		movw r20,r12
 420 020c 00C0      		rjmp 2f
 421 020e 440F      	1:	lsl r20
 422 0210 551F      		rol r21
 423 0212 8A95      	2:	dec r24
 424 0214 02F4      		brpl 1b
 425 0216 CA01      		movw r24,r20
 426               	.L48:
 427 0218 2095      		com r18
 428 021a 2823      		and r18,r24
 429               	.LM63:
 430 021c 01F0      		breq .L36
 431               	.LM64:
 432 021e 1E3F      		cpi r17,lo8(-2)
 433 0220 01F4      		brne .L40
 434 0222 81E0      		ldi r24,lo8(1)
 435 0224 00C0      		rjmp .L41
 436               	.L40:
 437               	.LM65:
 438 0226 183F      		cpi r17,lo8(-8)
 439 0228 01F4      		brne .L42
 440 022a 82E0      		ldi r24,lo8(2)
 441 022c 00C0      		rjmp .L41
 442               	.L42:
 443               	.LM66:
 444 022e 1B3F      		cpi r17,lo8(-5)
 445 0230 01F0      		breq .L49
 446               	.LVL31:
 447               	.L36:
 448 0232 2196      		adiw r28,1
 449               	.LM67:
 450 0234 C131      		cpi r28,17
 451 0236 D105      		cpc r29,__zero_reg__
 452 0238 01F0      		breq .+2
 453 023a 00C0      		rjmp .L43
 454 023c 0894      		sec
 455 023e E11C      		adc r14,__zero_reg__
 456 0240 F11C      		adc r15,__zero_reg__
GAS LISTING C:\Users\ADMINI~1\AppData\Local\Temp/ccKaOfSf.s 			page 9


 457               	.LM68:
 458 0242 58E0      		ldi r21,lo8(8)
 459 0244 E516      		cp r14,r21
 460 0246 F104      		cpc r15,__zero_reg__
 461 0248 01F0      		breq .L44
 462               	.L33:
 463 024a 9E2C      		mov r9,r14
 464               	.LM69:
 465 024c C601      		movw r24,r12
 466 024e 0E2C      		mov r0,r14
 467 0250 00C0      		rjmp 2f
 468 0252 880F      	1:	lsl r24
 469 0254 991F      		rol r25
 470 0256 0A94      	2:	dec r0
 471 0258 02F4      		brpl 1b
 472 025a A82E      		mov r10,r24
 473               	.LM70:
 474 025c B82E      		mov r11,r24
 475 025e B094      		com r11
 476 0260 C0E0      		ldi r28,lo8(0)
 477 0262 D0E0      		ldi r29,hi8(0)
 478 0264 00C0      		rjmp .L43
 479               	.L44:
 480               	.LM71:
 481 0266 8091 0000 		lds r24,isBeyondFN
 482 026a 8130      		cpi r24,lo8(1)
 483 026c 01F4      		brne .L45
 484               	.LM72:
 485 026e 82E0      		ldi r24,lo8(2)
 486 0270 8093 0000 		sts _currentLayer,r24
 487 0274 00C0      		rjmp .L41
 488               	.L45:
 489               	.LM73:
 490 0276 1092 0000 		sts _currentLayer,__zero_reg__
 491               	.L49:
 492 027a 80E0      		ldi r24,lo8(0)
 493               	.L41:
 494               	/* epilogue start */
 495               	.LM74:
 496 027c DF91      		pop r29
 497 027e CF91      		pop r28
 498 0280 1F91      		pop r17
 499               	.LVL32:
 500 0282 0F91      		pop r16
 501               	.LVL33:
 502 0284 FF90      		pop r15
 503 0286 EF90      		pop r14
 504 0288 DF90      		pop r13
 505 028a CF90      		pop r12
 506 028c BF90      		pop r11
 507 028e AF90      		pop r10
 508 0290 9F90      		pop r9
 509               	.LVL34:
 510 0292 7F90      		pop r7
 511 0294 6F90      		pop r6
 512 0296 5F90      		pop r5
 513 0298 4F90      		pop r4
GAS LISTING C:\Users\ADMINI~1\AppData\Local\Temp/ccKaOfSf.s 			page 10


 514 029a 0895      		ret
 515               	.LFE11:
 516               		.size	getLayer, .-getLayer
 517               	.global	applyFN
 518               		.type	applyFN, @function
 519               	applyFN:
 520               	.LFB10:
 521               	.LM75:
 522               	.LVL35:
 523 029c 0F93      		push r16
 524 029e 1F93      		push r17
 525               	/* prologue: function */
 526               	/* frame size = 0 */
 527 02a0 182F      		mov r17,r24
 528 02a2 062F      		mov r16,r22
 529               	.LM76:
 530 02a4 8E3F      		cpi r24,lo8(-2)
 531 02a6 01F4      		brne .+2
 532 02a8 00C0      		rjmp .L52
 533               	.LVL36:
 534               	.LM77:
 535 02aa 0E94 0000 		call setDualAction
 536               	.LVL37:
 537               	.LM78:
 538 02ae 0023      		tst r16
 539 02b0 01F0      		breq .L53
 540               	.LM79:
 541 02b2 0E94 0000 		call applyKeyDownForFullLED
 542               	.LM80:
 543 02b6 1C3F      		cpi r17,lo8(-4)
 544 02b8 01F0      		breq .L54
 545 02ba 8091 0000 		lds r24,_isExtraFNDown
 546 02be 8823      		tst r24
 547 02c0 01F0      		breq .L55
 548 02c2 1A32      		cpi r17,lo8(42)
 549 02c4 01F4      		brne .L55
 550               	.LM81:
 551 02c6 1092 0000 		sts isBeyondFN,__zero_reg__
 552 02ca 00C0      		rjmp .L56
 553               	.L54:
 554               	.LM82:
 555 02cc 8091 0000 		lds r24,isBeyondFN
 556 02d0 91E0      		ldi r25,lo8(1)
 557 02d2 8927      		eor r24,r25
 558 02d4 8093 0000 		sts isBeyondFN,r24
 559               	.L56:
 560               	.LM83:
 561 02d8 8091 0000 		lds r24,isBeyondFN
 562 02dc 8823      		tst r24
 563 02de 01F4      		brne .L52
 564               	.LM84:
 565 02e0 0E94 0000 		call getLEDState
 566 02e4 80FF      		sbrs r24,0
 567 02e6 00C0      		rjmp .L57
 568               	.LM85:
 569 02e8 909A      		sbi 50-32,0
 570 02ea 00C0      		rjmp .L52
GAS LISTING C:\Users\ADMINI~1\AppData\Local\Temp/ccKaOfSf.s 			page 11


 571               	.L57:
 572               	.LM86:
 573 02ec 9098      		cbi 50-32,0
 574 02ee 00C0      		rjmp .L52
 575               	.L55:
 576               	.LM87:
 577 02f0 1932      		cpi r17,lo8(41)
 578 02f2 01F4      		brne .L59
 579               	.LM88:
 580 02f4 81E0      		ldi r24,lo8(1)
 581 02f6 8093 0000 		sts _isExtraFNDown,r24
 582 02fa 00C0      		rjmp .L58
 583               	.L59:
 584               	.LM89:
 585 02fc 8823      		tst r24
 586 02fe 01F0      		breq .L60
 587 0300 1933      		cpi r17,lo8(57)
 588 0302 01F0      		breq .L61
 589               	.L60:
 590 0304 1D3F      		cpi r17,lo8(-3)
 591 0306 01F4      		brne .L62
 592               	.L61:
 593               	.LM90:
 594 0308 0E94 0000 		call changeFullLedState
 595 030c 00C0      		rjmp .L52
 596               	.L62:
 597               	.LM91:
 598 030e 1A3F      		cpi r17,lo8(-6)
 599 0310 01F4      		brne .L63
 600               	.LM92:
 601 0312 0E94 0000 		call increaseLedBrightness
 602 0316 00C0      		rjmp .L52
 603               	.L63:
 604               	.LM93:
 605 0318 193F      		cpi r17,lo8(-7)
 606 031a 01F4      		brne .L64
 607               	.LM94:
 608 031c 0E94 0000 		call reduceLedBrightness
 609 0320 00C0      		rjmp .L52
 610               	.L53:
 611               	.LM95:
 612 0322 1C3F      		cpi r17,lo8(-4)
 613 0324 01F0      		breq .L52
 614               	.LM96:
 615 0326 1932      		cpi r17,lo8(41)
 616 0328 01F4      		brne .L64
 617               	.LM97:
 618 032a 1092 0000 		sts _isExtraFNDown,__zero_reg__
 619 032e 00C0      		rjmp .L64
 620               	.LVL38:
 621               	.L52:
 622 0330 80E0      		ldi r24,lo8(0)
 623 0332 00C0      		rjmp .L58
 624               	.LVL39:
 625               	.L64:
 626 0334 81E0      		ldi r24,lo8(1)
 627               	.LVL40:
GAS LISTING C:\Users\ADMINI~1\AppData\Local\Temp/ccKaOfSf.s 			page 12


 628               	.L58:
 629               	/* epilogue start */
 630               	.LM98:
 631 0336 1F91      		pop r17
 632               	.LVL41:
 633 0338 0F91      		pop r16
 634               	.LVL42:
 635 033a 0895      		ret
 636               	.LFE10:
 637               		.size	applyFN, .-applyFN
 638               	.global	isBeyondFN
 639               	.global	isBeyondFN
 640               		.section .bss
 641               		.type	isBeyondFN, @object
 642               		.size	isBeyondFN, 1
 643               	isBeyondFN:
 644 0000 00        		.skip 1,0
 645               	.global	_currentLayer
 646               	.global	_currentLayer
 647               		.type	_currentLayer, @object
 648               		.size	_currentLayer, 1
 649               	_currentLayer:
 650 0001 00        		.skip 1,0
 651               	.global	modmask
 652               		.data
 653               		.type	modmask, @object
 654               		.size	modmask, 32
 655               	modmask:
 656 0000 0100      		.word	1
 657 0002 0200      		.word	2
 658 0004 0400      		.word	4
 659 0006 0800      		.word	8
 660 0008 1000      		.word	16
 661 000a 2000      		.word	32
 662 000c 4000      		.word	64
 663 000e 8000      		.word	128
 664 0010 0001      		.word	256
 665 0012 0002      		.word	512
 666 0014 0004      		.word	1024
 667 0016 0008      		.word	2048
 668 0018 0010      		.word	4096
 669 001a 0020      		.word	8192
 670 001c 0040      		.word	16384
 671 001e 0080      		.word	-32768
 672               		.type	debounce, @object
 673               		.size	debounce, 1
 674               	debounce:
 675 0020 0A        		.byte	10
 676               		.type	debounceMAX, @object
 677               		.size	debounceMAX, 1
 678               	debounceMAX:
 679 0021 05        		.byte	5
 680               		.lcomm _isExtraFNDown,1
 681               		.comm prevMatrix,17,1
 682               		.comm currentMatrix,17,1
 683               		.section	.debug_frame,"",@progbits
 684               	.Lframe0:
GAS LISTING C:\Users\ADMINI~1\AppData\Local\Temp/ccKaOfSf.s 			page 13


 685 0000 0C00 0000 		.long	.LECIE0-.LSCIE0
 686               	.LSCIE0:
 687 0004 FFFF FFFF 		.long	0xffffffff
 688 0008 01        		.byte	0x1
 689 0009 00        		.string	""
 690 000a 01        		.uleb128 0x1
 691 000b 7F        		.sleb128 -1
 692 000c 24        		.byte	0x24
 693 000d 0C        		.byte	0xc
 694 000e 20        		.uleb128 0x20
 695 000f 00        		.uleb128 0x0
 696               		.p2align	2
 697               	.LECIE0:
 698               	.LSFDE0:
 699 0010 0C00 0000 		.long	.LEFDE0-.LASFDE0
 700               	.LASFDE0:
 701 0014 0000 0000 		.long	.Lframe0
 702 0018 0000 0000 		.long	.LFB8
 703 001c 2400 0000 		.long	.LFE8-.LFB8
 704               		.p2align	2
 705               	.LEFDE0:
 706               	.LSFDE2:
 707 0020 0C00 0000 		.long	.LEFDE2-.LASFDE2
 708               	.LASFDE2:
 709 0024 0000 0000 		.long	.Lframe0
 710 0028 0000 0000 		.long	.LFB9
 711 002c 1C00 0000 		.long	.LFE9-.LFB9
 712               		.p2align	2
 713               	.LEFDE2:
 714               	.LSFDE4:
 715 0030 0C00 0000 		.long	.LEFDE4-.LASFDE4
 716               	.LASFDE4:
 717 0034 0000 0000 		.long	.Lframe0
 718 0038 0000 0000 		.long	.LFB12
 719 003c 0C01 0000 		.long	.LFE12-.LFB12
 720               		.p2align	2
 721               	.LEFDE4:
 722               	.LSFDE6:
 723 0040 0C00 0000 		.long	.LEFDE6-.LASFDE6
 724               	.LASFDE6:
 725 0044 0000 0000 		.long	.Lframe0
 726 0048 0000 0000 		.long	.LFB13
 727 004c 1E00 0000 		.long	.LFE13-.LFB13
 728               		.p2align	2
 729               	.LEFDE6:
 730               	.LSFDE8:
 731 0050 0C00 0000 		.long	.LEFDE8-.LASFDE8
 732               	.LASFDE8:
 733 0054 0000 0000 		.long	.Lframe0
 734 0058 0000 0000 		.long	.LFB11
 735 005c 3201 0000 		.long	.LFE11-.LFB11
 736               		.p2align	2
 737               	.LEFDE8:
 738               	.LSFDE10:
 739 0060 0C00 0000 		.long	.LEFDE10-.LASFDE10
 740               	.LASFDE10:
 741 0064 0000 0000 		.long	.Lframe0
GAS LISTING C:\Users\ADMINI~1\AppData\Local\Temp/ccKaOfSf.s 			page 14


 742 0068 0000 0000 		.long	.LFB10
 743 006c A000 0000 		.long	.LFE10-.LFB10
 744               		.p2align	2
 745               	.LEFDE10:
 746               		.text
 747               	.Letext0:
 748               		.section	.debug_loc,"",@progbits
 749               	.Ldebug_loc0:
 750               	.LLST2:
 751 0000 3000 0000 		.long	.LVL0-.Ltext0
 752 0004 3200 0000 		.long	.LVL1-.Ltext0
 753 0008 0100      		.word	0x1
 754 000a 68        		.byte	0x68
 755 000b 3E00 0000 		.long	.LVL2-.Ltext0
 756 000f 3E00 0000 		.long	.LVL3-.Ltext0
 757 0013 0100      		.word	0x1
 758 0015 68        		.byte	0x68
 759 0016 0000 0000 		.long	0x0
 760 001a 0000 0000 		.long	0x0
 761               	.LLST4:
 762 001e 9A00 0000 		.long	.LVL8-.Ltext0
 763 0022 9E00 0000 		.long	.LVL9-.Ltext0
 764 0026 0100      		.word	0x1
 765 0028 68        		.byte	0x68
 766 0029 9E00 0000 		.long	.LVL9-.Ltext0
 767 002d AE00 0000 		.long	.LVL10-.Ltext0
 768 0031 0100      		.word	0x1
 769 0033 64        		.byte	0x64
 770 0034 B000 0000 		.long	.LVL11-.Ltext0
 771 0038 B200 0000 		.long	.LVL12-.Ltext0
 772 003c 0100      		.word	0x1
 773 003e 64        		.byte	0x64
 774 003f B200 0000 		.long	.LVL12-.Ltext0
 775 0043 BA00 0000 		.long	.LVL13-.Ltext0
 776 0047 0100      		.word	0x1
 777 0049 68        		.byte	0x68
 778 004a BC00 0000 		.long	.LVL14-.Ltext0
 779 004e C000 0000 		.long	.LVL15-.Ltext0
 780 0052 0100      		.word	0x1
 781 0054 68        		.byte	0x68
 782 0055 0000 0000 		.long	0x0
 783 0059 0000 0000 		.long	0x0
 784               	.LLST5:
 785 005d 6E00 0000 		.long	.LVL5-.Ltext0
 786 0061 8C00 0000 		.long	.LVL6-.Ltext0
 787 0065 0100      		.word	0x1
 788 0067 62        		.byte	0x62
 789 0068 9800 0000 		.long	.LVL7-.Ltext0
 790 006c 2401 0000 		.long	.LVL16-.Ltext0
 791 0070 0100      		.word	0x1
 792 0072 62        		.byte	0x62
 793 0073 0000 0000 		.long	0x0
 794 0077 0000 0000 		.long	0x0
 795               	.LLST6:
 796 007b 5800 0000 		.long	.LVL4-.Ltext0
 797 007f 4201 0000 		.long	.LVL17-.Ltext0
 798 0083 0100      		.word	0x1
GAS LISTING C:\Users\ADMINI~1\AppData\Local\Temp/ccKaOfSf.s 			page 15


 799 0085 5D        		.byte	0x5d
 800 0086 0000 0000 		.long	0x0
 801 008a 0000 0000 		.long	0x0
 802               	.LLST8:
 803 008e 5801 0000 		.long	.LVL18-.Ltext0
 804 0092 6801 0000 		.long	.LVL19-.Ltext0
 805 0096 0100      		.word	0x1
 806 0098 61        		.byte	0x61
 807 0099 0000 0000 		.long	0x0
 808 009d 0000 0000 		.long	0x0
 809               	.LLST10:
 810 00a1 A001 0000 		.long	.LVL20-.Ltext0
 811 00a5 9202 0000 		.long	.LVL34-.Ltext0
 812 00a9 0100      		.word	0x1
 813 00ab 59        		.byte	0x59
 814 00ac 0000 0000 		.long	0x0
 815 00b0 0000 0000 		.long	0x0
 816               	.LLST11:
 817 00b4 A001 0000 		.long	.LVL20-.Ltext0
 818 00b8 8402 0000 		.long	.LVL33-.Ltext0
 819 00bc 0100      		.word	0x1
 820 00be 60        		.byte	0x60
 821 00bf 0000 0000 		.long	0x0
 822 00c3 0000 0000 		.long	0x0
 823               	.LLST12:
 824 00c7 A001 0000 		.long	.LVL20-.Ltext0
 825 00cb AE01 0000 		.long	.LVL21-.Ltext0
 826 00cf 0600      		.word	0x6
 827 00d1 61        		.byte	0x61
 828 00d2 93        		.byte	0x93
 829 00d3 01        		.uleb128 0x1
 830 00d4 6F        		.byte	0x6f
 831 00d5 93        		.byte	0x93
 832 00d6 01        		.uleb128 0x1
 833 00d7 AE01 0000 		.long	.LVL21-.Ltext0
 834 00db BA01 0000 		.long	.LVL22-.Ltext0
 835 00df 0100      		.word	0x1
 836 00e1 61        		.byte	0x61
 837 00e2 BA01 0000 		.long	.LVL22-.Ltext0
 838 00e6 C001 0000 		.long	.LVL24-.Ltext0
 839 00ea 0600      		.word	0x6
 840 00ec 6E        		.byte	0x6e
 841 00ed 93        		.byte	0x93
 842 00ee 01        		.uleb128 0x1
 843 00ef 6F        		.byte	0x6f
 844 00f0 93        		.byte	0x93
 845 00f1 01        		.uleb128 0x1
 846 00f2 C001 0000 		.long	.LVL24-.Ltext0
 847 00f6 E001 0000 		.long	.LVL25-.Ltext0
 848 00fa 0600      		.word	0x6
 849 00fc 61        		.byte	0x61
 850 00fd 93        		.byte	0x93
 851 00fe 01        		.uleb128 0x1
 852 00ff 6F        		.byte	0x6f
 853 0100 93        		.byte	0x93
 854 0101 01        		.uleb128 0x1
 855 0102 E001 0000 		.long	.LVL25-.Ltext0
GAS LISTING C:\Users\ADMINI~1\AppData\Local\Temp/ccKaOfSf.s 			page 16


 856 0106 3202 0000 		.long	.LVL31-.Ltext0
 857 010a 0100      		.word	0x1
 858 010c 61        		.byte	0x61
 859 010d 3202 0000 		.long	.LVL31-.Ltext0
 860 0111 8202 0000 		.long	.LVL32-.Ltext0
 861 0115 0600      		.word	0x6
 862 0117 61        		.byte	0x61
 863 0118 93        		.byte	0x93
 864 0119 01        		.uleb128 0x1
 865 011a 6F        		.byte	0x6f
 866 011b 93        		.byte	0x93
 867 011c 01        		.uleb128 0x1
 868 011d 0000 0000 		.long	0x0
 869 0121 0000 0000 		.long	0x0
 870               	.LLST13:
 871 0125 A001 0000 		.long	.LVL20-.Ltext0
 872 0129 AE01 0000 		.long	.LVL21-.Ltext0
 873 012d 0100      		.word	0x1
 874 012f 62        		.byte	0x62
 875 0130 E601 0000 		.long	.LVL26-.Ltext0
 876 0134 F601 0000 		.long	.LVL27-.Ltext0
 877 0138 0100      		.word	0x1
 878 013a 62        		.byte	0x62
 879 013b FE01 0000 		.long	.LVL28-.Ltext0
 880 013f 0202 0000 		.long	.LVL29-.Ltext0
 881 0143 0100      		.word	0x1
 882 0145 62        		.byte	0x62
 883 0146 0402 0000 		.long	.LVL30-.Ltext0
 884 014a 9C02 0000 		.long	.LFE11-.Ltext0
 885 014e 0100      		.word	0x1
 886 0150 62        		.byte	0x62
 887 0151 0000 0000 		.long	0x0
 888 0155 0000 0000 		.long	0x0
 889               	.LLST15:
 890 0159 9C02 0000 		.long	.LVL35-.Ltext0
 891 015d AE02 0000 		.long	.LVL37-.Ltext0
 892 0161 0100      		.word	0x1
 893 0163 68        		.byte	0x68
 894 0164 AE02 0000 		.long	.LVL37-.Ltext0
 895 0168 3803 0000 		.long	.LVL41-.Ltext0
 896 016c 0100      		.word	0x1
 897 016e 61        		.byte	0x61
 898 016f 0000 0000 		.long	0x0
 899 0173 0000 0000 		.long	0x0
 900               	.LLST16:
 901 0177 9C02 0000 		.long	.LVL35-.Ltext0
 902 017b AA02 0000 		.long	.LVL36-.Ltext0
 903 017f 0100      		.word	0x1
 904 0181 66        		.byte	0x66
 905 0182 AA02 0000 		.long	.LVL36-.Ltext0
 906 0186 3A03 0000 		.long	.LVL42-.Ltext0
 907 018a 0100      		.word	0x1
 908 018c 60        		.byte	0x60
 909 018d 3A03 0000 		.long	.LVL42-.Ltext0
 910 0191 3C03 0000 		.long	.LFE10-.Ltext0
 911 0195 0100      		.word	0x1
 912 0197 66        		.byte	0x66
GAS LISTING C:\Users\ADMINI~1\AppData\Local\Temp/ccKaOfSf.s 			page 17


 913 0198 0000 0000 		.long	0x0
 914 019c 0000 0000 		.long	0x0
 915               		.section	.debug_info
 916 0000 0D07 0000 		.long	0x70d
 917 0004 0200      		.word	0x2
 918 0006 0000 0000 		.long	.Ldebug_abbrev0
 919 000a 04        		.byte	0x4
 920 000b 01        		.uleb128 0x1
 921 000c 0000 0000 		.long	.LASF191
 922 0010 01        		.byte	0x1
 923 0011 0000 0000 		.long	.LASF192
 924 0015 0000 0000 		.long	.LASF193
 925 0019 0000 0000 		.long	.Ltext0
 926 001d 0000 0000 		.long	.Letext0
 927 0021 0000 0000 		.long	.Ldebug_line0
 928 0025 02        		.uleb128 0x2
 929 0026 01        		.byte	0x1
 930 0027 08        		.byte	0x8
 931 0028 0000 0000 		.long	.LASF0
 932 002c 02        		.uleb128 0x2
 933 002d 01        		.byte	0x1
 934 002e 06        		.byte	0x6
 935 002f 0000 0000 		.long	.LASF1
 936 0033 02        		.uleb128 0x2
 937 0034 02        		.byte	0x2
 938 0035 07        		.byte	0x7
 939 0036 0000 0000 		.long	.LASF2
 940 003a 02        		.uleb128 0x2
 941 003b 02        		.byte	0x2
 942 003c 05        		.byte	0x5
 943 003d 0000 0000 		.long	.LASF3
 944 0041 02        		.uleb128 0x2
 945 0042 04        		.byte	0x4
 946 0043 07        		.byte	0x7
 947 0044 0000 0000 		.long	.LASF4
 948 0048 02        		.uleb128 0x2
 949 0049 04        		.byte	0x4
 950 004a 05        		.byte	0x5
 951 004b 0000 0000 		.long	.LASF5
 952 004f 02        		.uleb128 0x2
 953 0050 08        		.byte	0x8
 954 0051 07        		.byte	0x7
 955 0052 0000 0000 		.long	.LASF6
 956 0056 02        		.uleb128 0x2
 957 0057 08        		.byte	0x8
 958 0058 05        		.byte	0x5
 959 0059 0000 0000 		.long	.LASF7
 960 005d 02        		.uleb128 0x2
 961 005e 02        		.byte	0x2
 962 005f 07        		.byte	0x7
 963 0060 0000 0000 		.long	.LASF8
 964 0064 02        		.uleb128 0x2
 965 0065 01        		.byte	0x1
 966 0066 06        		.byte	0x6
 967 0067 0000 0000 		.long	.LASF9
 968 006b 03        		.uleb128 0x3
 969 006c 02        		.byte	0x2
GAS LISTING C:\Users\ADMINI~1\AppData\Local\Temp/ccKaOfSf.s 			page 18


 970 006d 05        		.byte	0x5
 971 006e 696E 7400 		.string	"int"
 972 0072 04        		.uleb128 0x4
 973 0073 0000 0000 		.long	.LASF194
 974 0077 03        		.byte	0x3
 975 0078 7A        		.byte	0x7a
 976 0079 2500 0000 		.long	0x25
 977 007d 05        		.uleb128 0x5
 978 007e 01        		.byte	0x1
 979 007f 06        		.byte	0x6
 980 0080 05        		.uleb128 0x5
 981 0081 01        		.byte	0x1
 982 0082 08        		.byte	0x8
 983 0083 06        		.uleb128 0x6
 984 0084 02        		.byte	0x2
 985 0085 02        		.byte	0x2
 986 0086 18        		.byte	0x18
 987 0087 0A01 0000 		.long	0x10a
 988 008b 07        		.uleb128 0x7
 989 008c 0000 0000 		.long	.LASF10
 990 0090 D501      		.sleb128 213
 991 0092 07        		.uleb128 0x7
 992 0093 0000 0000 		.long	.LASF11
 993 0097 D601      		.sleb128 214
 994 0099 07        		.uleb128 0x7
 995 009a 0000 0000 		.long	.LASF12
 996 009e D701      		.sleb128 215
 997 00a0 07        		.uleb128 0x7
 998 00a1 0000 0000 		.long	.LASF13
 999 00a5 D801      		.sleb128 216
 1000 00a7 07        		.uleb128 0x7
 1001 00a8 0000 0000 		.long	.LASF14
 1002 00ac D901      		.sleb128 217
 1003 00ae 07        		.uleb128 0x7
 1004 00af 0000 0000 		.long	.LASF15
 1005 00b3 DA01      		.sleb128 218
 1006 00b5 07        		.uleb128 0x7
 1007 00b6 0000 0000 		.long	.LASF16
 1008 00ba DB01      		.sleb128 219
 1009 00bc 07        		.uleb128 0x7
 1010 00bd 0000 0000 		.long	.LASF17
 1011 00c1 DC01      		.sleb128 220
 1012 00c3 07        		.uleb128 0x7
 1013 00c4 0000 0000 		.long	.LASF18
 1014 00c8 DD01      		.sleb128 221
 1015 00ca 07        		.uleb128 0x7
 1016 00cb 0000 0000 		.long	.LASF19
 1017 00cf DE01      		.sleb128 222
 1018 00d1 07        		.uleb128 0x7
 1019 00d2 0000 0000 		.long	.LASF20
 1020 00d6 DF01      		.sleb128 223
 1021 00d8 07        		.uleb128 0x7
 1022 00d9 0000 0000 		.long	.LASF21
 1023 00dd E001      		.sleb128 224
 1024 00df 07        		.uleb128 0x7
 1025 00e0 0000 0000 		.long	.LASF22
 1026 00e4 E101      		.sleb128 225
GAS LISTING C:\Users\ADMINI~1\AppData\Local\Temp/ccKaOfSf.s 			page 19


 1027 00e6 07        		.uleb128 0x7
 1028 00e7 0000 0000 		.long	.LASF23
 1029 00eb E201      		.sleb128 226
 1030 00ed 07        		.uleb128 0x7
 1031 00ee 0000 0000 		.long	.LASF24
 1032 00f2 E301      		.sleb128 227
 1033 00f4 07        		.uleb128 0x7
 1034 00f5 0000 0000 		.long	.LASF25
 1035 00f9 E401      		.sleb128 228
 1036 00fb 07        		.uleb128 0x7
 1037 00fc 0000 0000 		.long	.LASF26
 1038 0100 E501      		.sleb128 229
 1039 0102 07        		.uleb128 0x7
 1040 0103 0000 0000 		.long	.LASF27
 1041 0107 E601      		.sleb128 230
 1042 0109 00        		.byte	0x0
 1043 010a 06        		.uleb128 0x6
 1044 010b 02        		.byte	0x2
 1045 010c 02        		.byte	0x2
 1046 010d 3E        		.byte	0x3e
 1047 010e C304 0000 		.long	0x4c3
 1048 0112 07        		.uleb128 0x7
 1049 0113 0000 0000 		.long	.LASF28
 1050 0117 00        		.sleb128 0
 1051 0118 07        		.uleb128 0x7
 1052 0119 0000 0000 		.long	.LASF29
 1053 011d 01        		.sleb128 1
 1054 011e 07        		.uleb128 0x7
 1055 011f 0000 0000 		.long	.LASF30
 1056 0123 02        		.sleb128 2
 1057 0124 07        		.uleb128 0x7
 1058 0125 0000 0000 		.long	.LASF31
 1059 0129 03        		.sleb128 3
 1060 012a 07        		.uleb128 0x7
 1061 012b 0000 0000 		.long	.LASF32
 1062 012f 04        		.sleb128 4
 1063 0130 07        		.uleb128 0x7
 1064 0131 0000 0000 		.long	.LASF33
 1065 0135 05        		.sleb128 5
 1066 0136 07        		.uleb128 0x7
 1067 0137 0000 0000 		.long	.LASF34
 1068 013b 06        		.sleb128 6
 1069 013c 07        		.uleb128 0x7
 1070 013d 0000 0000 		.long	.LASF35
 1071 0141 07        		.sleb128 7
 1072 0142 07        		.uleb128 0x7
 1073 0143 0000 0000 		.long	.LASF36
 1074 0147 08        		.sleb128 8
 1075 0148 07        		.uleb128 0x7
 1076 0149 0000 0000 		.long	.LASF37
 1077 014d 09        		.sleb128 9
 1078 014e 07        		.uleb128 0x7
 1079 014f 0000 0000 		.long	.LASF38
 1080 0153 0A        		.sleb128 10
 1081 0154 07        		.uleb128 0x7
 1082 0155 0000 0000 		.long	.LASF39
 1083 0159 0B        		.sleb128 11
GAS LISTING C:\Users\ADMINI~1\AppData\Local\Temp/ccKaOfSf.s 			page 20


 1084 015a 07        		.uleb128 0x7
 1085 015b 0000 0000 		.long	.LASF40
 1086 015f 0C        		.sleb128 12
 1087 0160 07        		.uleb128 0x7
 1088 0161 0000 0000 		.long	.LASF41
 1089 0165 0D        		.sleb128 13
 1090 0166 07        		.uleb128 0x7
 1091 0167 0000 0000 		.long	.LASF42
 1092 016b 0E        		.sleb128 14
 1093 016c 07        		.uleb128 0x7
 1094 016d 0000 0000 		.long	.LASF43
 1095 0171 0F        		.sleb128 15
 1096 0172 07        		.uleb128 0x7
 1097 0173 0000 0000 		.long	.LASF44
 1098 0177 10        		.sleb128 16
 1099 0178 07        		.uleb128 0x7
 1100 0179 0000 0000 		.long	.LASF45
 1101 017d 11        		.sleb128 17
 1102 017e 07        		.uleb128 0x7
 1103 017f 0000 0000 		.long	.LASF46
 1104 0183 12        		.sleb128 18
 1105 0184 07        		.uleb128 0x7
 1106 0185 0000 0000 		.long	.LASF47
 1107 0189 13        		.sleb128 19
 1108 018a 07        		.uleb128 0x7
 1109 018b 0000 0000 		.long	.LASF48
 1110 018f 14        		.sleb128 20
 1111 0190 07        		.uleb128 0x7
 1112 0191 0000 0000 		.long	.LASF49
 1113 0195 15        		.sleb128 21
 1114 0196 07        		.uleb128 0x7
 1115 0197 0000 0000 		.long	.LASF50
 1116 019b 16        		.sleb128 22
 1117 019c 07        		.uleb128 0x7
 1118 019d 0000 0000 		.long	.LASF51
 1119 01a1 17        		.sleb128 23
 1120 01a2 07        		.uleb128 0x7
 1121 01a3 0000 0000 		.long	.LASF52
 1122 01a7 18        		.sleb128 24
 1123 01a8 07        		.uleb128 0x7
 1124 01a9 0000 0000 		.long	.LASF53
 1125 01ad 19        		.sleb128 25
 1126 01ae 07        		.uleb128 0x7
 1127 01af 0000 0000 		.long	.LASF54
 1128 01b3 1A        		.sleb128 26
 1129 01b4 07        		.uleb128 0x7
 1130 01b5 0000 0000 		.long	.LASF55
 1131 01b9 1B        		.sleb128 27
 1132 01ba 07        		.uleb128 0x7
 1133 01bb 0000 0000 		.long	.LASF56
 1134 01bf 1C        		.sleb128 28
 1135 01c0 07        		.uleb128 0x7
 1136 01c1 0000 0000 		.long	.LASF57
 1137 01c5 1D        		.sleb128 29
 1138 01c6 07        		.uleb128 0x7
 1139 01c7 0000 0000 		.long	.LASF58
 1140 01cb 1E        		.sleb128 30
GAS LISTING C:\Users\ADMINI~1\AppData\Local\Temp/ccKaOfSf.s 			page 21


 1141 01cc 07        		.uleb128 0x7
 1142 01cd 0000 0000 		.long	.LASF59
 1143 01d1 1F        		.sleb128 31
 1144 01d2 07        		.uleb128 0x7
 1145 01d3 0000 0000 		.long	.LASF60
 1146 01d7 20        		.sleb128 32
 1147 01d8 07        		.uleb128 0x7
 1148 01d9 0000 0000 		.long	.LASF61
 1149 01dd 21        		.sleb128 33
 1150 01de 07        		.uleb128 0x7
 1151 01df 0000 0000 		.long	.LASF62
 1152 01e3 22        		.sleb128 34
 1153 01e4 07        		.uleb128 0x7
 1154 01e5 0000 0000 		.long	.LASF63
 1155 01e9 23        		.sleb128 35
 1156 01ea 07        		.uleb128 0x7
 1157 01eb 0000 0000 		.long	.LASF64
 1158 01ef 24        		.sleb128 36
 1159 01f0 07        		.uleb128 0x7
 1160 01f1 0000 0000 		.long	.LASF65
 1161 01f5 25        		.sleb128 37
 1162 01f6 07        		.uleb128 0x7
 1163 01f7 0000 0000 		.long	.LASF66
 1164 01fb 26        		.sleb128 38
 1165 01fc 07        		.uleb128 0x7
 1166 01fd 0000 0000 		.long	.LASF67
 1167 0201 27        		.sleb128 39
 1168 0202 07        		.uleb128 0x7
 1169 0203 0000 0000 		.long	.LASF68
 1170 0207 28        		.sleb128 40
 1171 0208 07        		.uleb128 0x7
 1172 0209 0000 0000 		.long	.LASF69
 1173 020d 29        		.sleb128 41
 1174 020e 07        		.uleb128 0x7
 1175 020f 0000 0000 		.long	.LASF70
 1176 0213 2A        		.sleb128 42
 1177 0214 07        		.uleb128 0x7
 1178 0215 0000 0000 		.long	.LASF71
 1179 0219 2B        		.sleb128 43
 1180 021a 07        		.uleb128 0x7
 1181 021b 0000 0000 		.long	.LASF72
 1182 021f 2C        		.sleb128 44
 1183 0220 07        		.uleb128 0x7
 1184 0221 0000 0000 		.long	.LASF73
 1185 0225 2D        		.sleb128 45
 1186 0226 07        		.uleb128 0x7
 1187 0227 0000 0000 		.long	.LASF74
 1188 022b 2E        		.sleb128 46
 1189 022c 07        		.uleb128 0x7
 1190 022d 0000 0000 		.long	.LASF75
 1191 0231 2F        		.sleb128 47
 1192 0232 07        		.uleb128 0x7
 1193 0233 0000 0000 		.long	.LASF76
 1194 0237 30        		.sleb128 48
 1195 0238 07        		.uleb128 0x7
 1196 0239 0000 0000 		.long	.LASF77
 1197 023d 31        		.sleb128 49
GAS LISTING C:\Users\ADMINI~1\AppData\Local\Temp/ccKaOfSf.s 			page 22


 1198 023e 07        		.uleb128 0x7
 1199 023f 0000 0000 		.long	.LASF78
 1200 0243 32        		.sleb128 50
 1201 0244 07        		.uleb128 0x7
 1202 0245 0000 0000 		.long	.LASF79
 1203 0249 33        		.sleb128 51
 1204 024a 07        		.uleb128 0x7
 1205 024b 0000 0000 		.long	.LASF80
 1206 024f 34        		.sleb128 52
 1207 0250 07        		.uleb128 0x7
 1208 0251 0000 0000 		.long	.LASF81
 1209 0255 35        		.sleb128 53
 1210 0256 07        		.uleb128 0x7
 1211 0257 0000 0000 		.long	.LASF82
 1212 025b 36        		.sleb128 54
 1213 025c 07        		.uleb128 0x7
 1214 025d 0000 0000 		.long	.LASF83
 1215 0261 37        		.sleb128 55
 1216 0262 07        		.uleb128 0x7
 1217 0263 0000 0000 		.long	.LASF84
 1218 0267 38        		.sleb128 56
 1219 0268 07        		.uleb128 0x7
 1220 0269 0000 0000 		.long	.LASF85
 1221 026d 39        		.sleb128 57
 1222 026e 07        		.uleb128 0x7
 1223 026f 0000 0000 		.long	.LASF86
 1224 0273 3A        		.sleb128 58
 1225 0274 07        		.uleb128 0x7
 1226 0275 0000 0000 		.long	.LASF87
 1227 0279 3B        		.sleb128 59
 1228 027a 07        		.uleb128 0x7
 1229 027b 0000 0000 		.long	.LASF88
 1230 027f 3C        		.sleb128 60
 1231 0280 07        		.uleb128 0x7
 1232 0281 0000 0000 		.long	.LASF89
 1233 0285 3D        		.sleb128 61
 1234 0286 07        		.uleb128 0x7
 1235 0287 0000 0000 		.long	.LASF90
 1236 028b 3E        		.sleb128 62
 1237 028c 07        		.uleb128 0x7
 1238 028d 0000 0000 		.long	.LASF91
 1239 0291 3F        		.sleb128 63
 1240 0292 07        		.uleb128 0x7
 1241 0293 0000 0000 		.long	.LASF92
 1242 0297 C000      		.sleb128 64
 1243 0299 07        		.uleb128 0x7
 1244 029a 0000 0000 		.long	.LASF93
 1245 029e C100      		.sleb128 65
 1246 02a0 07        		.uleb128 0x7
 1247 02a1 0000 0000 		.long	.LASF94
 1248 02a5 C200      		.sleb128 66
 1249 02a7 07        		.uleb128 0x7
 1250 02a8 0000 0000 		.long	.LASF95
 1251 02ac C300      		.sleb128 67
 1252 02ae 07        		.uleb128 0x7
 1253 02af 0000 0000 		.long	.LASF96
 1254 02b3 C400      		.sleb128 68
GAS LISTING C:\Users\ADMINI~1\AppData\Local\Temp/ccKaOfSf.s 			page 23


 1255 02b5 07        		.uleb128 0x7
 1256 02b6 0000 0000 		.long	.LASF97
 1257 02ba C500      		.sleb128 69
 1258 02bc 07        		.uleb128 0x7
 1259 02bd 0000 0000 		.long	.LASF98
 1260 02c1 C600      		.sleb128 70
 1261 02c3 07        		.uleb128 0x7
 1262 02c4 0000 0000 		.long	.LASF99
 1263 02c8 C700      		.sleb128 71
 1264 02ca 07        		.uleb128 0x7
 1265 02cb 0000 0000 		.long	.LASF100
 1266 02cf C800      		.sleb128 72
 1267 02d1 07        		.uleb128 0x7
 1268 02d2 0000 0000 		.long	.LASF101
 1269 02d6 C900      		.sleb128 73
 1270 02d8 07        		.uleb128 0x7
 1271 02d9 0000 0000 		.long	.LASF102
 1272 02dd CA00      		.sleb128 74
 1273 02df 07        		.uleb128 0x7
 1274 02e0 0000 0000 		.long	.LASF103
 1275 02e4 CB00      		.sleb128 75
 1276 02e6 07        		.uleb128 0x7
 1277 02e7 0000 0000 		.long	.LASF104
 1278 02eb CC00      		.sleb128 76
 1279 02ed 07        		.uleb128 0x7
 1280 02ee 0000 0000 		.long	.LASF105
 1281 02f2 CD00      		.sleb128 77
 1282 02f4 07        		.uleb128 0x7
 1283 02f5 0000 0000 		.long	.LASF106
 1284 02f9 CE00      		.sleb128 78
 1285 02fb 07        		.uleb128 0x7
 1286 02fc 0000 0000 		.long	.LASF107
 1287 0300 CF00      		.sleb128 79
 1288 0302 07        		.uleb128 0x7
 1289 0303 0000 0000 		.long	.LASF108
 1290 0307 D000      		.sleb128 80
 1291 0309 07        		.uleb128 0x7
 1292 030a 0000 0000 		.long	.LASF109
 1293 030e D100      		.sleb128 81
 1294 0310 07        		.uleb128 0x7
 1295 0311 0000 0000 		.long	.LASF110
 1296 0315 D200      		.sleb128 82
 1297 0317 07        		.uleb128 0x7
 1298 0318 0000 0000 		.long	.LASF111
 1299 031c D300      		.sleb128 83
 1300 031e 07        		.uleb128 0x7
 1301 031f 0000 0000 		.long	.LASF112
 1302 0323 D400      		.sleb128 84
 1303 0325 07        		.uleb128 0x7
 1304 0326 0000 0000 		.long	.LASF113
 1305 032a D500      		.sleb128 85
 1306 032c 07        		.uleb128 0x7
 1307 032d 0000 0000 		.long	.LASF114
 1308 0331 D600      		.sleb128 86
 1309 0333 07        		.uleb128 0x7
 1310 0334 0000 0000 		.long	.LASF115
 1311 0338 D700      		.sleb128 87
GAS LISTING C:\Users\ADMINI~1\AppData\Local\Temp/ccKaOfSf.s 			page 24


 1312 033a 07        		.uleb128 0x7
 1313 033b 0000 0000 		.long	.LASF116
 1314 033f D800      		.sleb128 88
 1315 0341 07        		.uleb128 0x7
 1316 0342 0000 0000 		.long	.LASF117
 1317 0346 D900      		.sleb128 89
 1318 0348 07        		.uleb128 0x7
 1319 0349 0000 0000 		.long	.LASF118
 1320 034d DA00      		.sleb128 90
 1321 034f 07        		.uleb128 0x7
 1322 0350 0000 0000 		.long	.LASF119
 1323 0354 DB00      		.sleb128 91
 1324 0356 07        		.uleb128 0x7
 1325 0357 0000 0000 		.long	.LASF120
 1326 035b DC00      		.sleb128 92
 1327 035d 07        		.uleb128 0x7
 1328 035e 0000 0000 		.long	.LASF121
 1329 0362 DD00      		.sleb128 93
 1330 0364 07        		.uleb128 0x7
 1331 0365 0000 0000 		.long	.LASF122
 1332 0369 DE00      		.sleb128 94
 1333 036b 07        		.uleb128 0x7
 1334 036c 0000 0000 		.long	.LASF123
 1335 0370 DF00      		.sleb128 95
 1336 0372 07        		.uleb128 0x7
 1337 0373 0000 0000 		.long	.LASF124
 1338 0377 E000      		.sleb128 96
 1339 0379 07        		.uleb128 0x7
 1340 037a 0000 0000 		.long	.LASF125
 1341 037e E100      		.sleb128 97
 1342 0380 07        		.uleb128 0x7
 1343 0381 0000 0000 		.long	.LASF126
 1344 0385 E200      		.sleb128 98
 1345 0387 07        		.uleb128 0x7
 1346 0388 0000 0000 		.long	.LASF127
 1347 038c E300      		.sleb128 99
 1348 038e 07        		.uleb128 0x7
 1349 038f 0000 0000 		.long	.LASF128
 1350 0393 E400      		.sleb128 100
 1351 0395 07        		.uleb128 0x7
 1352 0396 0000 0000 		.long	.LASF129
 1353 039a E500      		.sleb128 101
 1354 039c 07        		.uleb128 0x7
 1355 039d 0000 0000 		.long	.LASF130
 1356 03a1 E600      		.sleb128 102
 1357 03a3 07        		.uleb128 0x7
 1358 03a4 0000 0000 		.long	.LASF131
 1359 03a8 E700      		.sleb128 103
 1360 03aa 07        		.uleb128 0x7
 1361 03ab 0000 0000 		.long	.LASF132
 1362 03af E800      		.sleb128 104
 1363 03b1 07        		.uleb128 0x7
 1364 03b2 0000 0000 		.long	.LASF133
 1365 03b6 E900      		.sleb128 105
 1366 03b8 07        		.uleb128 0x7
 1367 03b9 0000 0000 		.long	.LASF134
 1368 03bd EA00      		.sleb128 106
GAS LISTING C:\Users\ADMINI~1\AppData\Local\Temp/ccKaOfSf.s 			page 25


 1369 03bf 07        		.uleb128 0x7
 1370 03c0 0000 0000 		.long	.LASF135
 1371 03c4 EB00      		.sleb128 107
 1372 03c6 07        		.uleb128 0x7
 1373 03c7 0000 0000 		.long	.LASF136
 1374 03cb EC00      		.sleb128 108
 1375 03cd 07        		.uleb128 0x7
 1376 03ce 0000 0000 		.long	.LASF137
 1377 03d2 ED00      		.sleb128 109
 1378 03d4 07        		.uleb128 0x7
 1379 03d5 0000 0000 		.long	.LASF138
 1380 03d9 EE00      		.sleb128 110
 1381 03db 07        		.uleb128 0x7
 1382 03dc 0000 0000 		.long	.LASF139
 1383 03e0 EF00      		.sleb128 111
 1384 03e2 07        		.uleb128 0x7
 1385 03e3 0000 0000 		.long	.LASF140
 1386 03e7 F000      		.sleb128 112
 1387 03e9 07        		.uleb128 0x7
 1388 03ea 0000 0000 		.long	.LASF141
 1389 03ee F100      		.sleb128 113
 1390 03f0 07        		.uleb128 0x7
 1391 03f1 0000 0000 		.long	.LASF142
 1392 03f5 F200      		.sleb128 114
 1393 03f7 07        		.uleb128 0x7
 1394 03f8 0000 0000 		.long	.LASF143
 1395 03fc F300      		.sleb128 115
 1396 03fe 07        		.uleb128 0x7
 1397 03ff 0000 0000 		.long	.LASF144
 1398 0403 F400      		.sleb128 116
 1399 0405 07        		.uleb128 0x7
 1400 0406 0000 0000 		.long	.LASF145
 1401 040a F500      		.sleb128 117
 1402 040c 07        		.uleb128 0x7
 1403 040d 0000 0000 		.long	.LASF146
 1404 0411 F600      		.sleb128 118
 1405 0413 07        		.uleb128 0x7
 1406 0414 0000 0000 		.long	.LASF147
 1407 0418 F700      		.sleb128 119
 1408 041a 07        		.uleb128 0x7
 1409 041b 0000 0000 		.long	.LASF148
 1410 041f F800      		.sleb128 120
 1411 0421 07        		.uleb128 0x7
 1412 0422 0000 0000 		.long	.LASF149
 1413 0426 F900      		.sleb128 121
 1414 0428 07        		.uleb128 0x7
 1415 0429 0000 0000 		.long	.LASF150
 1416 042d FA00      		.sleb128 122
 1417 042f 07        		.uleb128 0x7
 1418 0430 0000 0000 		.long	.LASF151
 1419 0434 FB00      		.sleb128 123
 1420 0436 07        		.uleb128 0x7
 1421 0437 0000 0000 		.long	.LASF152
 1422 043b FC00      		.sleb128 124
 1423 043d 07        		.uleb128 0x7
 1424 043e 0000 0000 		.long	.LASF153
 1425 0442 FD00      		.sleb128 125
GAS LISTING C:\Users\ADMINI~1\AppData\Local\Temp/ccKaOfSf.s 			page 26


 1426 0444 07        		.uleb128 0x7
 1427 0445 0000 0000 		.long	.LASF154
 1428 0449 FE00      		.sleb128 126
 1429 044b 07        		.uleb128 0x7
 1430 044c 0000 0000 		.long	.LASF155
 1431 0450 FF00      		.sleb128 127
 1432 0452 07        		.uleb128 0x7
 1433 0453 0000 0000 		.long	.LASF156
 1434 0457 8001      		.sleb128 128
 1435 0459 07        		.uleb128 0x7
 1436 045a 0000 0000 		.long	.LASF157
 1437 045e 8101      		.sleb128 129
 1438 0460 07        		.uleb128 0x7
 1439 0461 0000 0000 		.long	.LASF158
 1440 0465 8201      		.sleb128 130
 1441 0467 07        		.uleb128 0x7
 1442 0468 0000 0000 		.long	.LASF159
 1443 046c 8301      		.sleb128 131
 1444 046e 07        		.uleb128 0x7
 1445 046f 0000 0000 		.long	.LASF160
 1446 0473 8401      		.sleb128 132
 1447 0475 07        		.uleb128 0x7
 1448 0476 0000 0000 		.long	.LASF161
 1449 047a 8501      		.sleb128 133
 1450 047c 07        		.uleb128 0x7
 1451 047d 0000 0000 		.long	.LASF162
 1452 0481 8601      		.sleb128 134
 1453 0483 07        		.uleb128 0x7
 1454 0484 0000 0000 		.long	.LASF163
 1455 0488 8701      		.sleb128 135
 1456 048a 07        		.uleb128 0x7
 1457 048b 0000 0000 		.long	.LASF164
 1458 048f 8801      		.sleb128 136
 1459 0491 07        		.uleb128 0x7
 1460 0492 0000 0000 		.long	.LASF165
 1461 0496 8901      		.sleb128 137
 1462 0498 07        		.uleb128 0x7
 1463 0499 0000 0000 		.long	.LASF166
 1464 049d 8A01      		.sleb128 138
 1465 049f 07        		.uleb128 0x7
 1466 04a0 0000 0000 		.long	.LASF167
 1467 04a4 8B01      		.sleb128 139
 1468 04a6 07        		.uleb128 0x7
 1469 04a7 0000 0000 		.long	.LASF168
 1470 04ab 8C01      		.sleb128 140
 1471 04ad 07        		.uleb128 0x7
 1472 04ae 0000 0000 		.long	.LASF169
 1473 04b2 8D01      		.sleb128 141
 1474 04b4 07        		.uleb128 0x7
 1475 04b5 0000 0000 		.long	.LASF170
 1476 04b9 8E01      		.sleb128 142
 1477 04bb 07        		.uleb128 0x7
 1478 04bc 0000 0000 		.long	.LASF171
 1479 04c0 8F01      		.sleb128 143
 1480 04c2 00        		.byte	0x0
 1481 04c3 08        		.uleb128 0x8
 1482 04c4 01        		.byte	0x1
GAS LISTING C:\Users\ADMINI~1\AppData\Local\Temp/ccKaOfSf.s 			page 27


 1483 04c5 0000 0000 		.long	.LASF195
 1484 04c9 01        		.byte	0x1
 1485 04ca 34        		.byte	0x34
 1486 04cb 01        		.byte	0x1
 1487 04cc 0000 0000 		.long	.LFB8
 1488 04d0 0000 0000 		.long	.LFE8
 1489 04d4 02        		.byte	0x2
 1490 04d5 90        		.byte	0x90
 1491 04d6 20        		.uleb128 0x20
 1492 04d7 E704 0000 		.long	0x4e7
 1493 04db 09        		.uleb128 0x9
 1494 04dc 726F 7700 		.string	"row"
 1495 04e0 01        		.byte	0x1
 1496 04e1 35        		.byte	0x35
 1497 04e2 7200 0000 		.long	0x72
 1498 04e6 00        		.byte	0x0
 1499 04e7 0A        		.uleb128 0xa
 1500 04e8 01        		.byte	0x1
 1501 04e9 0000 0000 		.long	.LASF172
 1502 04ed 01        		.byte	0x1
 1503 04ee 3F        		.byte	0x3f
 1504 04ef 01        		.byte	0x1
 1505 04f0 7200 0000 		.long	0x72
 1506 04f4 0000 0000 		.long	.LFB9
 1507 04f8 0000 0000 		.long	.LFE9
 1508 04fc 02        		.byte	0x2
 1509 04fd 90        		.byte	0x90
 1510 04fe 20        		.uleb128 0x20
 1511 04ff 1E05 0000 		.long	0x51e
 1512 0503 0B        		.uleb128 0xb
 1513 0504 6375 7200 		.string	"cur"
 1514 0508 01        		.byte	0x1
 1515 0509 40        		.byte	0x40
 1516 050a 7200 0000 		.long	0x72
 1517 050e 0000 0000 		.long	.LLST2
 1518 0512 09        		.uleb128 0x9
 1519 0513 726F 7700 		.string	"row"
 1520 0517 01        		.byte	0x1
 1521 0518 40        		.byte	0x40
 1522 0519 7200 0000 		.long	0x72
 1523 051d 00        		.byte	0x0
 1524 051e 0A        		.uleb128 0xa
 1525 051f 01        		.byte	0x1
 1526 0520 0000 0000 		.long	.LASF173
 1527 0524 01        		.byte	0x1
 1528 0525 C1        		.byte	0xc1
 1529 0526 01        		.byte	0x1
 1530 0527 7200 0000 		.long	0x72
 1531 052b 0000 0000 		.long	.LFB12
 1532 052f 0000 0000 		.long	.LFE12
 1533 0533 02        		.byte	0x2
 1534 0534 90        		.byte	0x90
 1535 0535 20        		.uleb128 0x20
 1536 0536 7E05 0000 		.long	0x57e
 1537 053a 09        		.uleb128 0x9
 1538 053b 636F 6C00 		.string	"col"
 1539 053f 01        		.byte	0x1
GAS LISTING C:\Users\ADMINI~1\AppData\Local\Temp/ccKaOfSf.s 			page 28


 1540 0540 C2        		.byte	0xc2
 1541 0541 7200 0000 		.long	0x72
 1542 0545 0B        		.uleb128 0xb
 1543 0546 726F 7700 		.string	"row"
 1544 054a 01        		.byte	0x1
 1545 054b C2        		.byte	0xc2
 1546 054c 7200 0000 		.long	0x72
 1547 0550 0000 0000 		.long	.LLST4
 1548 0554 0C        		.uleb128 0xc
 1549 0555 0000 0000 		.long	.LASF174
 1550 0559 01        		.byte	0x1
 1551 055a C3        		.byte	0xc3
 1552 055b 7200 0000 		.long	0x72
 1553 055f 0B        		.uleb128 0xb
 1554 0560 6375 7200 		.string	"cur"
 1555 0564 01        		.byte	0x1
 1556 0565 C3        		.byte	0xc3
 1557 0566 7200 0000 		.long	0x72
 1558 056a 0000 0000 		.long	.LLST5
 1559 056e 0D        		.uleb128 0xd
 1560 056f 0000 0000 		.long	.LASF175
 1561 0573 01        		.byte	0x1
 1562 0574 C5        		.byte	0xc5
 1563 0575 7200 0000 		.long	0x72
 1564 0579 0000 0000 		.long	.LLST6
 1565 057d 00        		.byte	0x0
 1566 057e 0A        		.uleb128 0xa
 1567 057f 01        		.byte	0x1
 1568 0580 0000 0000 		.long	.LASF176
 1569 0584 01        		.byte	0x1
 1570 0585 F9        		.byte	0xf9
 1571 0586 01        		.byte	0x1
 1572 0587 7200 0000 		.long	0x72
 1573 058b 0000 0000 		.long	.LFB13
 1574 058f 0000 0000 		.long	.LFE13
 1575 0593 02        		.byte	0x2
 1576 0594 90        		.byte	0x90
 1577 0595 20        		.uleb128 0x20
 1578 0596 AA05 0000 		.long	0x5aa
 1579 059a 0D        		.uleb128 0xd
 1580 059b 0000 0000 		.long	.LASF177
 1581 059f 01        		.byte	0x1
 1582 05a0 FD        		.byte	0xfd
 1583 05a1 7200 0000 		.long	0x72
 1584 05a5 0000 0000 		.long	.LLST8
 1585 05a9 00        		.byte	0x0
 1586 05aa 0A        		.uleb128 0xa
 1587 05ab 01        		.byte	0x1
 1588 05ac 0000 0000 		.long	.LASF178
 1589 05b0 01        		.byte	0x1
 1590 05b1 81        		.byte	0x81
 1591 05b2 01        		.byte	0x1
 1592 05b3 7200 0000 		.long	0x72
 1593 05b7 0000 0000 		.long	.LFB11
 1594 05bb 0000 0000 		.long	.LFE11
 1595 05bf 02        		.byte	0x2
 1596 05c0 90        		.byte	0x90
GAS LISTING C:\Users\ADMINI~1\AppData\Local\Temp/ccKaOfSf.s 			page 29


 1597 05c1 20        		.uleb128 0x20
 1598 05c2 0306 0000 		.long	0x603
 1599 05c6 0B        		.uleb128 0xb
 1600 05c7 636F 6C00 		.string	"col"
 1601 05cb 01        		.byte	0x1
 1602 05cc 82        		.byte	0x82
 1603 05cd 7200 0000 		.long	0x72
 1604 05d1 0000 0000 		.long	.LLST10
 1605 05d5 0B        		.uleb128 0xb
 1606 05d6 726F 7700 		.string	"row"
 1607 05da 01        		.byte	0x1
 1608 05db 82        		.byte	0x82
 1609 05dc 7200 0000 		.long	0x72
 1610 05e0 0000 0000 		.long	.LLST11
 1611 05e4 0D        		.uleb128 0xd
 1612 05e5 0000 0000 		.long	.LASF179
 1613 05e9 01        		.byte	0x1
 1614 05ea 82        		.byte	0x82
 1615 05eb 7200 0000 		.long	0x72
 1616 05ef 0000 0000 		.long	.LLST12
 1617 05f3 0B        		.uleb128 0xb
 1618 05f4 6375 7200 		.string	"cur"
 1619 05f8 01        		.byte	0x1
 1620 05f9 82        		.byte	0x82
 1621 05fa 7200 0000 		.long	0x72
 1622 05fe 0000 0000 		.long	.LLST13
 1623 0602 00        		.byte	0x0
 1624 0603 0A        		.uleb128 0xa
 1625 0604 01        		.byte	0x1
 1626 0605 0000 0000 		.long	.LASF180
 1627 0609 01        		.byte	0x1
 1628 060a 4C        		.byte	0x4c
 1629 060b 01        		.byte	0x1
 1630 060c 7200 0000 		.long	0x72
 1631 0610 0000 0000 		.long	.LFB10
 1632 0614 0000 0000 		.long	.LFE10
 1633 0618 02        		.byte	0x2
 1634 0619 90        		.byte	0x90
 1635 061a 20        		.uleb128 0x20
 1636 061b 3E06 0000 		.long	0x63e
 1637 061f 0E        		.uleb128 0xe
 1638 0620 0000 0000 		.long	.LASF179
 1639 0624 01        		.byte	0x1
 1640 0625 4C        		.byte	0x4c
 1641 0626 7200 0000 		.long	0x72
 1642 062a 0000 0000 		.long	.LLST15
 1643 062e 0E        		.uleb128 0xe
 1644 062f 0000 0000 		.long	.LASF181
 1645 0633 01        		.byte	0x1
 1646 0634 4C        		.byte	0x4c
 1647 0635 7200 0000 		.long	0x72
 1648 0639 0000 0000 		.long	.LLST16
 1649 063d 00        		.byte	0x0
 1650 063e 0F        		.uleb128 0xf
 1651 063f 0000 0000 		.long	.LASF182
 1652 0643 01        		.byte	0x1
 1653 0644 24        		.byte	0x24
GAS LISTING C:\Users\ADMINI~1\AppData\Local\Temp/ccKaOfSf.s 			page 30


 1654 0645 7200 0000 		.long	0x72
 1655 0649 05        		.byte	0x5
 1656 064a 03        		.byte	0x3
 1657 064b 0000 0000 		.long	_isExtraFNDown
 1658 064f 0F        		.uleb128 0xf
 1659 0650 0000 0000 		.long	.LASF183
 1660 0654 01        		.byte	0x1
 1661 0655 25        		.byte	0x25
 1662 0656 7200 0000 		.long	0x72
 1663 065a 05        		.byte	0x5
 1664 065b 03        		.byte	0x3
 1665 065c 0000 0000 		.long	debounceMAX
 1666 0660 0F        		.uleb128 0xf
 1667 0661 0000 0000 		.long	.LASF184
 1668 0665 01        		.byte	0x1
 1669 0666 26        		.byte	0x26
 1670 0667 7200 0000 		.long	0x72
 1671 066b 05        		.byte	0x5
 1672 066c 03        		.byte	0x3
 1673 066d 0000 0000 		.long	debounce
 1674 0671 10        		.uleb128 0x10
 1675 0672 7200 0000 		.long	0x72
 1676 0676 7C06 0000 		.long	0x67c
 1677 067a 11        		.uleb128 0x11
 1678 067b 00        		.byte	0x0
 1679 067c 12        		.uleb128 0x12
 1680 067d 0000 0000 		.long	.LASF185
 1681 0681 02        		.byte	0x2
 1682 0682 E5        		.byte	0xe5
 1683 0683 8906 0000 		.long	0x689
 1684 0687 01        		.byte	0x1
 1685 0688 01        		.byte	0x1
 1686 0689 13        		.uleb128 0x13
 1687 068a 7106 0000 		.long	0x671
 1688 068e 14        		.uleb128 0x14
 1689 068f 0000 0000 		.long	.LASF186
 1690 0693 01        		.byte	0x1
 1691 0694 1C        		.byte	0x1c
 1692 0695 7200 0000 		.long	0x72
 1693 0699 01        		.byte	0x1
 1694 069a 05        		.byte	0x5
 1695 069b 03        		.byte	0x3
 1696 069c 0000 0000 		.long	isBeyondFN
 1697 06a0 10        		.uleb128 0x10
 1698 06a1 3300 0000 		.long	0x33
 1699 06a5 B006 0000 		.long	0x6b0
 1700 06a9 15        		.uleb128 0x15
 1701 06aa B006 0000 		.long	0x6b0
 1702 06ae 0F        		.byte	0xf
 1703 06af 00        		.byte	0x0
 1704 06b0 05        		.uleb128 0x5
 1705 06b1 02        		.byte	0x2
 1706 06b2 07        		.byte	0x7
 1707 06b3 14        		.uleb128 0x14
 1708 06b4 0000 0000 		.long	.LASF187
 1709 06b8 01        		.byte	0x1
 1710 06b9 2C        		.byte	0x2c
GAS LISTING C:\Users\ADMINI~1\AppData\Local\Temp/ccKaOfSf.s 			page 31


 1711 06ba C506 0000 		.long	0x6c5
 1712 06be 01        		.byte	0x1
 1713 06bf 05        		.byte	0x5
 1714 06c0 03        		.byte	0x3
 1715 06c1 0000 0000 		.long	modmask
 1716 06c5 13        		.uleb128 0x13
 1717 06c6 A006 0000 		.long	0x6a0
 1718 06ca 10        		.uleb128 0x10
 1719 06cb 7200 0000 		.long	0x72
 1720 06cf DA06 0000 		.long	0x6da
 1721 06d3 15        		.uleb128 0x15
 1722 06d4 B006 0000 		.long	0x6b0
 1723 06d8 10        		.byte	0x10
 1724 06d9 00        		.byte	0x0
 1725 06da 14        		.uleb128 0x14
 1726 06db 0000 0000 		.long	.LASF188
 1727 06df 01        		.byte	0x1
 1728 06e0 1E        		.byte	0x1e
 1729 06e1 CA06 0000 		.long	0x6ca
 1730 06e5 01        		.byte	0x1
 1731 06e6 05        		.byte	0x5
 1732 06e7 03        		.byte	0x3
 1733 06e8 0000 0000 		.long	prevMatrix
 1734 06ec 14        		.uleb128 0x14
 1735 06ed 0000 0000 		.long	.LASF189
 1736 06f1 01        		.byte	0x1
 1737 06f2 1F        		.byte	0x1f
 1738 06f3 CA06 0000 		.long	0x6ca
 1739 06f7 01        		.byte	0x1
 1740 06f8 05        		.byte	0x5
 1741 06f9 03        		.byte	0x3
 1742 06fa 0000 0000 		.long	currentMatrix
 1743 06fe 14        		.uleb128 0x14
 1744 06ff 0000 0000 		.long	.LASF190
 1745 0703 01        		.byte	0x1
 1746 0704 20        		.byte	0x20
 1747 0705 7200 0000 		.long	0x72
 1748 0709 01        		.byte	0x1
 1749 070a 05        		.byte	0x5
 1750 070b 03        		.byte	0x3
 1751 070c 0000 0000 		.long	_currentLayer
 1752 0710 00        		.byte	0x0
 1753               		.section	.debug_abbrev
 1754 0000 01        		.uleb128 0x1
 1755 0001 11        		.uleb128 0x11
 1756 0002 01        		.byte	0x1
 1757 0003 25        		.uleb128 0x25
 1758 0004 0E        		.uleb128 0xe
 1759 0005 13        		.uleb128 0x13
 1760 0006 0B        		.uleb128 0xb
 1761 0007 03        		.uleb128 0x3
 1762 0008 0E        		.uleb128 0xe
 1763 0009 1B        		.uleb128 0x1b
 1764 000a 0E        		.uleb128 0xe
 1765 000b 11        		.uleb128 0x11
 1766 000c 01        		.uleb128 0x1
 1767 000d 12        		.uleb128 0x12
GAS LISTING C:\Users\ADMINI~1\AppData\Local\Temp/ccKaOfSf.s 			page 32


 1768 000e 01        		.uleb128 0x1
 1769 000f 10        		.uleb128 0x10
 1770 0010 06        		.uleb128 0x6
 1771 0011 00        		.byte	0x0
 1772 0012 00        		.byte	0x0
 1773 0013 02        		.uleb128 0x2
 1774 0014 24        		.uleb128 0x24
 1775 0015 00        		.byte	0x0
 1776 0016 0B        		.uleb128 0xb
 1777 0017 0B        		.uleb128 0xb
 1778 0018 3E        		.uleb128 0x3e
 1779 0019 0B        		.uleb128 0xb
 1780 001a 03        		.uleb128 0x3
 1781 001b 0E        		.uleb128 0xe
 1782 001c 00        		.byte	0x0
 1783 001d 00        		.byte	0x0
 1784 001e 03        		.uleb128 0x3
 1785 001f 24        		.uleb128 0x24
 1786 0020 00        		.byte	0x0
 1787 0021 0B        		.uleb128 0xb
 1788 0022 0B        		.uleb128 0xb
 1789 0023 3E        		.uleb128 0x3e
 1790 0024 0B        		.uleb128 0xb
 1791 0025 03        		.uleb128 0x3
 1792 0026 08        		.uleb128 0x8
 1793 0027 00        		.byte	0x0
 1794 0028 00        		.byte	0x0
 1795 0029 04        		.uleb128 0x4
 1796 002a 16        		.uleb128 0x16
 1797 002b 00        		.byte	0x0
 1798 002c 03        		.uleb128 0x3
 1799 002d 0E        		.uleb128 0xe
 1800 002e 3A        		.uleb128 0x3a
 1801 002f 0B        		.uleb128 0xb
 1802 0030 3B        		.uleb128 0x3b
 1803 0031 0B        		.uleb128 0xb
 1804 0032 49        		.uleb128 0x49
 1805 0033 13        		.uleb128 0x13
 1806 0034 00        		.byte	0x0
 1807 0035 00        		.byte	0x0
 1808 0036 05        		.uleb128 0x5
 1809 0037 24        		.uleb128 0x24
 1810 0038 00        		.byte	0x0
 1811 0039 0B        		.uleb128 0xb
 1812 003a 0B        		.uleb128 0xb
 1813 003b 3E        		.uleb128 0x3e
 1814 003c 0B        		.uleb128 0xb
 1815 003d 00        		.byte	0x0
 1816 003e 00        		.byte	0x0
 1817 003f 06        		.uleb128 0x6
 1818 0040 04        		.uleb128 0x4
 1819 0041 01        		.byte	0x1
 1820 0042 0B        		.uleb128 0xb
 1821 0043 0B        		.uleb128 0xb
 1822 0044 3A        		.uleb128 0x3a
 1823 0045 0B        		.uleb128 0xb
 1824 0046 3B        		.uleb128 0x3b
GAS LISTING C:\Users\ADMINI~1\AppData\Local\Temp/ccKaOfSf.s 			page 33


 1825 0047 0B        		.uleb128 0xb
 1826 0048 01        		.uleb128 0x1
 1827 0049 13        		.uleb128 0x13
 1828 004a 00        		.byte	0x0
 1829 004b 00        		.byte	0x0
 1830 004c 07        		.uleb128 0x7
 1831 004d 28        		.uleb128 0x28
 1832 004e 00        		.byte	0x0
 1833 004f 03        		.uleb128 0x3
 1834 0050 0E        		.uleb128 0xe
 1835 0051 1C        		.uleb128 0x1c
 1836 0052 0D        		.uleb128 0xd
 1837 0053 00        		.byte	0x0
 1838 0054 00        		.byte	0x0
 1839 0055 08        		.uleb128 0x8
 1840 0056 2E        		.uleb128 0x2e
 1841 0057 01        		.byte	0x1
 1842 0058 3F        		.uleb128 0x3f
 1843 0059 0C        		.uleb128 0xc
 1844 005a 03        		.uleb128 0x3
 1845 005b 0E        		.uleb128 0xe
 1846 005c 3A        		.uleb128 0x3a
 1847 005d 0B        		.uleb128 0xb
 1848 005e 3B        		.uleb128 0x3b
 1849 005f 0B        		.uleb128 0xb
 1850 0060 27        		.uleb128 0x27
 1851 0061 0C        		.uleb128 0xc
 1852 0062 11        		.uleb128 0x11
 1853 0063 01        		.uleb128 0x1
 1854 0064 12        		.uleb128 0x12
 1855 0065 01        		.uleb128 0x1
 1856 0066 40        		.uleb128 0x40
 1857 0067 0A        		.uleb128 0xa
 1858 0068 01        		.uleb128 0x1
 1859 0069 13        		.uleb128 0x13
 1860 006a 00        		.byte	0x0
 1861 006b 00        		.byte	0x0
 1862 006c 09        		.uleb128 0x9
 1863 006d 34        		.uleb128 0x34
 1864 006e 00        		.byte	0x0
 1865 006f 03        		.uleb128 0x3
 1866 0070 08        		.uleb128 0x8
 1867 0071 3A        		.uleb128 0x3a
 1868 0072 0B        		.uleb128 0xb
 1869 0073 3B        		.uleb128 0x3b
 1870 0074 0B        		.uleb128 0xb
 1871 0075 49        		.uleb128 0x49
 1872 0076 13        		.uleb128 0x13
 1873 0077 00        		.byte	0x0
 1874 0078 00        		.byte	0x0
 1875 0079 0A        		.uleb128 0xa
 1876 007a 2E        		.uleb128 0x2e
 1877 007b 01        		.byte	0x1
 1878 007c 3F        		.uleb128 0x3f
 1879 007d 0C        		.uleb128 0xc
 1880 007e 03        		.uleb128 0x3
 1881 007f 0E        		.uleb128 0xe
GAS LISTING C:\Users\ADMINI~1\AppData\Local\Temp/ccKaOfSf.s 			page 34


 1882 0080 3A        		.uleb128 0x3a
 1883 0081 0B        		.uleb128 0xb
 1884 0082 3B        		.uleb128 0x3b
 1885 0083 0B        		.uleb128 0xb
 1886 0084 27        		.uleb128 0x27
 1887 0085 0C        		.uleb128 0xc
 1888 0086 49        		.uleb128 0x49
 1889 0087 13        		.uleb128 0x13
 1890 0088 11        		.uleb128 0x11
 1891 0089 01        		.uleb128 0x1
 1892 008a 12        		.uleb128 0x12
 1893 008b 01        		.uleb128 0x1
 1894 008c 40        		.uleb128 0x40
 1895 008d 0A        		.uleb128 0xa
 1896 008e 01        		.uleb128 0x1
 1897 008f 13        		.uleb128 0x13
 1898 0090 00        		.byte	0x0
 1899 0091 00        		.byte	0x0
 1900 0092 0B        		.uleb128 0xb
 1901 0093 34        		.uleb128 0x34
 1902 0094 00        		.byte	0x0
 1903 0095 03        		.uleb128 0x3
 1904 0096 08        		.uleb128 0x8
 1905 0097 3A        		.uleb128 0x3a
 1906 0098 0B        		.uleb128 0xb
 1907 0099 3B        		.uleb128 0x3b
 1908 009a 0B        		.uleb128 0xb
 1909 009b 49        		.uleb128 0x49
 1910 009c 13        		.uleb128 0x13
 1911 009d 02        		.uleb128 0x2
 1912 009e 06        		.uleb128 0x6
 1913 009f 00        		.byte	0x0
 1914 00a0 00        		.byte	0x0
 1915 00a1 0C        		.uleb128 0xc
 1916 00a2 34        		.uleb128 0x34
 1917 00a3 00        		.byte	0x0
 1918 00a4 03        		.uleb128 0x3
 1919 00a5 0E        		.uleb128 0xe
 1920 00a6 3A        		.uleb128 0x3a
 1921 00a7 0B        		.uleb128 0xb
 1922 00a8 3B        		.uleb128 0x3b
 1923 00a9 0B        		.uleb128 0xb
 1924 00aa 49        		.uleb128 0x49
 1925 00ab 13        		.uleb128 0x13
 1926 00ac 00        		.byte	0x0
 1927 00ad 00        		.byte	0x0
 1928 00ae 0D        		.uleb128 0xd
 1929 00af 34        		.uleb128 0x34
 1930 00b0 00        		.byte	0x0
 1931 00b1 03        		.uleb128 0x3
 1932 00b2 0E        		.uleb128 0xe
 1933 00b3 3A        		.uleb128 0x3a
 1934 00b4 0B        		.uleb128 0xb
 1935 00b5 3B        		.uleb128 0x3b
 1936 00b6 0B        		.uleb128 0xb
 1937 00b7 49        		.uleb128 0x49
 1938 00b8 13        		.uleb128 0x13
GAS LISTING C:\Users\ADMINI~1\AppData\Local\Temp/ccKaOfSf.s 			page 35


 1939 00b9 02        		.uleb128 0x2
 1940 00ba 06        		.uleb128 0x6
 1941 00bb 00        		.byte	0x0
 1942 00bc 00        		.byte	0x0
 1943 00bd 0E        		.uleb128 0xe
 1944 00be 05        		.uleb128 0x5
 1945 00bf 00        		.byte	0x0
 1946 00c0 03        		.uleb128 0x3
 1947 00c1 0E        		.uleb128 0xe
 1948 00c2 3A        		.uleb128 0x3a
 1949 00c3 0B        		.uleb128 0xb
 1950 00c4 3B        		.uleb128 0x3b
 1951 00c5 0B        		.uleb128 0xb
 1952 00c6 49        		.uleb128 0x49
 1953 00c7 13        		.uleb128 0x13
 1954 00c8 02        		.uleb128 0x2
 1955 00c9 06        		.uleb128 0x6
 1956 00ca 00        		.byte	0x0
 1957 00cb 00        		.byte	0x0
 1958 00cc 0F        		.uleb128 0xf
 1959 00cd 34        		.uleb128 0x34
 1960 00ce 00        		.byte	0x0
 1961 00cf 03        		.uleb128 0x3
 1962 00d0 0E        		.uleb128 0xe
 1963 00d1 3A        		.uleb128 0x3a
 1964 00d2 0B        		.uleb128 0xb
 1965 00d3 3B        		.uleb128 0x3b
 1966 00d4 0B        		.uleb128 0xb
 1967 00d5 49        		.uleb128 0x49
 1968 00d6 13        		.uleb128 0x13
 1969 00d7 02        		.uleb128 0x2
 1970 00d8 0A        		.uleb128 0xa
 1971 00d9 00        		.byte	0x0
 1972 00da 00        		.byte	0x0
 1973 00db 10        		.uleb128 0x10
 1974 00dc 01        		.uleb128 0x1
 1975 00dd 01        		.byte	0x1
 1976 00de 49        		.uleb128 0x49
 1977 00df 13        		.uleb128 0x13
 1978 00e0 01        		.uleb128 0x1
 1979 00e1 13        		.uleb128 0x13
 1980 00e2 00        		.byte	0x0
 1981 00e3 00        		.byte	0x0
 1982 00e4 11        		.uleb128 0x11
 1983 00e5 21        		.uleb128 0x21
 1984 00e6 00        		.byte	0x0
 1985 00e7 00        		.byte	0x0
 1986 00e8 00        		.byte	0x0
 1987 00e9 12        		.uleb128 0x12
 1988 00ea 34        		.uleb128 0x34
 1989 00eb 00        		.byte	0x0
 1990 00ec 03        		.uleb128 0x3
 1991 00ed 0E        		.uleb128 0xe
 1992 00ee 3A        		.uleb128 0x3a
 1993 00ef 0B        		.uleb128 0xb
 1994 00f0 3B        		.uleb128 0x3b
 1995 00f1 0B        		.uleb128 0xb
GAS LISTING C:\Users\ADMINI~1\AppData\Local\Temp/ccKaOfSf.s 			page 36


 1996 00f2 49        		.uleb128 0x49
 1997 00f3 13        		.uleb128 0x13
 1998 00f4 3F        		.uleb128 0x3f
 1999 00f5 0C        		.uleb128 0xc
 2000 00f6 3C        		.uleb128 0x3c
 2001 00f7 0C        		.uleb128 0xc
 2002 00f8 00        		.byte	0x0
 2003 00f9 00        		.byte	0x0
 2004 00fa 13        		.uleb128 0x13
 2005 00fb 26        		.uleb128 0x26
 2006 00fc 00        		.byte	0x0
 2007 00fd 49        		.uleb128 0x49
 2008 00fe 13        		.uleb128 0x13
 2009 00ff 00        		.byte	0x0
 2010 0100 00        		.byte	0x0
 2011 0101 14        		.uleb128 0x14
 2012 0102 34        		.uleb128 0x34
 2013 0103 00        		.byte	0x0
 2014 0104 03        		.uleb128 0x3
 2015 0105 0E        		.uleb128 0xe
 2016 0106 3A        		.uleb128 0x3a
 2017 0107 0B        		.uleb128 0xb
 2018 0108 3B        		.uleb128 0x3b
 2019 0109 0B        		.uleb128 0xb
 2020 010a 49        		.uleb128 0x49
 2021 010b 13        		.uleb128 0x13
 2022 010c 3F        		.uleb128 0x3f
 2023 010d 0C        		.uleb128 0xc
 2024 010e 02        		.uleb128 0x2
 2025 010f 0A        		.uleb128 0xa
 2026 0110 00        		.byte	0x0
 2027 0111 00        		.byte	0x0
 2028 0112 15        		.uleb128 0x15
 2029 0113 21        		.uleb128 0x21
 2030 0114 00        		.byte	0x0
 2031 0115 49        		.uleb128 0x49
 2032 0116 13        		.uleb128 0x13
 2033 0117 2F        		.uleb128 0x2f
 2034 0118 0B        		.uleb128 0xb
 2035 0119 00        		.byte	0x0
 2036 011a 00        		.byte	0x0
 2037 011b 00        		.byte	0x0
 2038               		.section	.debug_pubnames,"",@progbits
 2039 0000 C000 0000 		.long	0xc0
 2040 0004 0200      		.word	0x2
 2041 0006 0000 0000 		.long	.Ldebug_info0
 2042 000a 1107 0000 		.long	0x711
 2043 000e C304 0000 		.long	0x4c3
 2044 0012 636C 6561 		.string	"clearMatrix"
 2044      724D 6174 
 2044      7269 7800 
 2045 001e E704 0000 		.long	0x4e7
 2046 0022 6973 416C 		.string	"isAllKeyRelease"
 2046      6C4B 6579 
 2046      5265 6C65 
 2046      6173 6500 
 2047 0032 1E05 0000 		.long	0x51e
GAS LISTING C:\Users\ADMINI~1\AppData\Local\Temp/ccKaOfSf.s 			page 37


 2048 0036 6765 744C 		.string	"getLiveMatrix"
 2048      6976 654D 
 2048      6174 7269 
 2048      7800 
 2049 0044 7E05 0000 		.long	0x57e
 2050 0048 7365 7443 		.string	"setCurrentMatrix"
 2050      7572 7265 
 2050      6E74 4D61 
 2050      7472 6978 
 2050      00
 2051 0059 AA05 0000 		.long	0x5aa
 2052 005d 6765 744C 		.string	"getLayer"
 2052      6179 6572 
 2052      00
 2053 0066 0306 0000 		.long	0x603
 2054 006a 6170 706C 		.string	"applyFN"
 2054      7946 4E00 
 2055 0072 8E06 0000 		.long	0x68e
 2056 0076 6973 4265 		.string	"isBeyondFN"
 2056      796F 6E64 
 2056      464E 00
 2057 0081 B306 0000 		.long	0x6b3
 2058 0085 6D6F 646D 		.string	"modmask"
 2058      6173 6B00 
 2059 008d DA06 0000 		.long	0x6da
 2060 0091 7072 6576 		.string	"prevMatrix"
 2060      4D61 7472 
 2060      6978 00
 2061 009c EC06 0000 		.long	0x6ec
 2062 00a0 6375 7272 		.string	"currentMatrix"
 2062      656E 744D 
 2062      6174 7269 
 2062      7800 
 2063 00ae FE06 0000 		.long	0x6fe
 2064 00b2 5F63 7572 		.string	"_currentLayer"
 2064      7265 6E74 
 2064      4C61 7965 
 2064      7200 
 2065 00c0 0000 0000 		.long	0x0
 2066               		.section	.debug_aranges,"",@progbits
 2067 0000 1C00 0000 		.long	0x1c
 2068 0004 0200      		.word	0x2
 2069 0006 0000 0000 		.long	.Ldebug_info0
 2070 000a 04        		.byte	0x4
 2071 000b 00        		.byte	0x0
 2072 000c 0000      		.word	0x0
 2073 000e 0000      		.word	0x0
 2074 0010 0000 0000 		.long	.Ltext0
 2075 0014 3C03 0000 		.long	.Letext0-.Ltext0
 2076 0018 0000 0000 		.long	0x0
 2077 001c 0000 0000 		.long	0x0
 2078               		.section	.debug_line
 2079 0000 9403 0000 		.long	.LELT0-.LSLT0
 2080               	.LSLT0:
 2081 0004 0200      		.word	0x2
 2082 0006 6400 0000 		.long	.LELTP0-.LASLTP0
 2083               	.LASLTP0:
GAS LISTING C:\Users\ADMINI~1\AppData\Local\Temp/ccKaOfSf.s 			page 38


 2084 000a 01        		.byte	0x1
 2085 000b 01        		.byte	0x1
 2086 000c F6        		.byte	0xf6
 2087 000d F5        		.byte	0xf5
 2088 000e 0A        		.byte	0xa
 2089 000f 00        		.byte	0x0
 2090 0010 01        		.byte	0x1
 2091 0011 01        		.byte	0x1
 2092 0012 01        		.byte	0x1
 2093 0013 01        		.byte	0x1
 2094 0014 00        		.byte	0x0
 2095 0015 00        		.byte	0x0
 2096 0016 00        		.byte	0x0
 2097 0017 01        		.byte	0x1
 2098 0018 633A 2F77 		.ascii	"c:/winavr-20100110/lib/gcc/../../avr/include"
 2098      696E 6176 
 2098      722D 3230 
 2098      3130 3031 
 2098      3130 2F6C 
 2099 0044 00        		.byte	0
 2100 0045 00        		.byte	0x0
 2101 0046 6B65 796D 		.string	"keymatrix.c"
 2101      6174 7269 
 2101      782E 6300 
 2102 0052 00        		.uleb128 0x0
 2103 0053 00        		.uleb128 0x0
 2104 0054 00        		.uleb128 0x0
 2105 0055 6B65 796D 		.string	"keymap.h"
 2105      6170 2E68 
 2105      00
 2106 005e 00        		.uleb128 0x0
 2107 005f 00        		.uleb128 0x0
 2108 0060 00        		.uleb128 0x0
 2109 0061 7374 6469 		.string	"stdint.h"
 2109      6E74 2E68 
 2109      00
 2110 006a 01        		.uleb128 0x1
 2111 006b 00        		.uleb128 0x0
 2112 006c 00        		.uleb128 0x0
 2113 006d 00        		.byte	0x0
 2114               	.LELTP0:
 2115 006e 00        		.byte	0x0
 2116 006f 05        		.uleb128 0x5
 2117 0070 02        		.byte	0x2
 2118 0071 0000 0000 		.long	.LM1
 2119 0075 47        		.byte	0x47
 2120 0076 00        		.byte	0x0
 2121 0077 05        		.uleb128 0x5
 2122 0078 02        		.byte	0x2
 2123 0079 0000 0000 		.long	.LM2
 2124 007d 01        		.byte	0x1
 2125 007e 00        		.byte	0x0
 2126 007f 05        		.uleb128 0x5
 2127 0080 02        		.byte	0x2
 2128 0081 0000 0000 		.long	.LM3
 2129 0085 17        		.byte	0x17
 2130 0086 00        		.byte	0x0
GAS LISTING C:\Users\ADMINI~1\AppData\Local\Temp/ccKaOfSf.s 			page 39


 2131 0087 05        		.uleb128 0x5
 2132 0088 02        		.byte	0x2
 2133 0089 0000 0000 		.long	.LM4
 2134 008d 15        		.byte	0x15
 2135 008e 00        		.byte	0x0
 2136 008f 05        		.uleb128 0x5
 2137 0090 02        		.byte	0x2
 2138 0091 0000 0000 		.long	.LM5
 2139 0095 12        		.byte	0x12
 2140 0096 00        		.byte	0x0
 2141 0097 05        		.uleb128 0x5
 2142 0098 02        		.byte	0x2
 2143 0099 0000 0000 		.long	.LM6
 2144 009d 19        		.byte	0x19
 2145 009e 00        		.byte	0x0
 2146 009f 05        		.uleb128 0x5
 2147 00a0 02        		.byte	0x2
 2148 00a1 0000 0000 		.long	.LM7
 2149 00a5 15        		.byte	0x15
 2150 00a6 00        		.byte	0x0
 2151 00a7 05        		.uleb128 0x5
 2152 00a8 02        		.byte	0x2
 2153 00a9 0000 0000 		.long	.LM8
 2154 00ad 17        		.byte	0x17
 2155 00ae 00        		.byte	0x0
 2156 00af 05        		.uleb128 0x5
 2157 00b0 02        		.byte	0x2
 2158 00b1 0000 0000 		.long	.LM9
 2159 00b5 01        		.byte	0x1
 2160 00b6 00        		.byte	0x0
 2161 00b7 05        		.uleb128 0x5
 2162 00b8 02        		.byte	0x2
 2163 00b9 0000 0000 		.long	.LM10
 2164 00bd 18        		.byte	0x18
 2165 00be 00        		.byte	0x0
 2166 00bf 05        		.uleb128 0x5
 2167 00c0 02        		.byte	0x2
 2168 00c1 0000 0000 		.long	.LM11
 2169 00c5 13        		.byte	0x13
 2170 00c6 00        		.byte	0x0
 2171 00c7 05        		.uleb128 0x5
 2172 00c8 02        		.byte	0x2
 2173 00c9 0000 0000 		.long	.LM12
 2174 00cd 1B        		.byte	0x1b
 2175 00ce 00        		.byte	0x0
 2176 00cf 05        		.uleb128 0x5
 2177 00d0 02        		.byte	0x2
 2178 00d1 0000 0000 		.long	.LM13
 2179 00d5 8C        		.byte	0x8c
 2180 00d6 00        		.byte	0x0
 2181 00d7 05        		.uleb128 0x5
 2182 00d8 02        		.byte	0x2
 2183 00d9 0000 0000 		.long	.LM14
 2184 00dd 01        		.byte	0x1
 2185 00de 00        		.byte	0x0
 2186 00df 05        		.uleb128 0x5
 2187 00e0 02        		.byte	0x2
GAS LISTING C:\Users\ADMINI~1\AppData\Local\Temp/ccKaOfSf.s 			page 40


 2188 00e1 0000 0000 		.long	.LM15
 2189 00e5 1D        		.byte	0x1d
 2190 00e6 00        		.byte	0x0
 2191 00e7 05        		.uleb128 0x5
 2192 00e8 02        		.byte	0x2
 2193 00e9 0000 0000 		.long	.LM16
 2194 00ed 23        		.byte	0x23
 2195 00ee 00        		.byte	0x0
 2196 00ef 05        		.uleb128 0x5
 2197 00f0 02        		.byte	0x2
 2198 00f1 0000 0000 		.long	.LM17
 2199 00f5 11        		.byte	0x11
 2200 00f6 00        		.byte	0x0
 2201 00f7 05        		.uleb128 0x5
 2202 00f8 02        		.byte	0x2
 2203 00f9 0000 0000 		.long	.LM18
 2204 00fd 03        		.byte	0x3
 2205 00fe 74        		.sleb128 -12
 2206 00ff 01        		.byte	0x1
 2207 0100 00        		.byte	0x0
 2208 0101 05        		.uleb128 0x5
 2209 0102 02        		.byte	0x2
 2210 0103 0000 0000 		.long	.LM19
 2211 0107 15        		.byte	0x15
 2212 0108 00        		.byte	0x0
 2213 0109 05        		.uleb128 0x5
 2214 010a 02        		.byte	0x2
 2215 010b 0000 0000 		.long	.LM20
 2216 010f 16        		.byte	0x16
 2217 0110 00        		.byte	0x0
 2218 0111 05        		.uleb128 0x5
 2219 0112 02        		.byte	0x2
 2220 0113 0000 0000 		.long	.LM21
 2221 0117 29        		.byte	0x29
 2222 0118 00        		.byte	0x0
 2223 0119 05        		.uleb128 0x5
 2224 011a 02        		.byte	0x2
 2225 011b 0000 0000 		.long	.LM22
 2226 011f 03        		.byte	0x3
 2227 0120 6B        		.sleb128 -21
 2228 0121 01        		.byte	0x1
 2229 0122 00        		.byte	0x0
 2230 0123 05        		.uleb128 0x5
 2231 0124 02        		.byte	0x2
 2232 0125 0000 0000 		.long	.LM23
 2233 0129 19        		.byte	0x19
 2234 012a 00        		.byte	0x0
 2235 012b 05        		.uleb128 0x5
 2236 012c 02        		.byte	0x2
 2237 012d 0000 0000 		.long	.LM24
 2238 0131 15        		.byte	0x15
 2239 0132 00        		.byte	0x0
 2240 0133 05        		.uleb128 0x5
 2241 0134 02        		.byte	0x2
 2242 0135 0000 0000 		.long	.LM25
 2243 0139 16        		.byte	0x16
 2244 013a 00        		.byte	0x0
GAS LISTING C:\Users\ADMINI~1\AppData\Local\Temp/ccKaOfSf.s 			page 41


 2245 013b 05        		.uleb128 0x5
 2246 013c 02        		.byte	0x2
 2247 013d 0000 0000 		.long	.LM26
 2248 0141 15        		.byte	0x15
 2249 0142 00        		.byte	0x0
 2250 0143 05        		.uleb128 0x5
 2251 0144 02        		.byte	0x2
 2252 0145 0000 0000 		.long	.LM27
 2253 0149 17        		.byte	0x17
 2254 014a 00        		.byte	0x0
 2255 014b 05        		.uleb128 0x5
 2256 014c 02        		.byte	0x2
 2257 014d 0000 0000 		.long	.LM28
 2258 0151 17        		.byte	0x17
 2259 0152 00        		.byte	0x0
 2260 0153 05        		.uleb128 0x5
 2261 0154 02        		.byte	0x2
 2262 0155 0000 0000 		.long	.LM29
 2263 0159 16        		.byte	0x16
 2264 015a 00        		.byte	0x0
 2265 015b 05        		.uleb128 0x5
 2266 015c 02        		.byte	0x2
 2267 015d 0000 0000 		.long	.LM30
 2268 0161 16        		.byte	0x16
 2269 0162 00        		.byte	0x0
 2270 0163 05        		.uleb128 0x5
 2271 0164 02        		.byte	0x2
 2272 0165 0000 0000 		.long	.LM31
 2273 0169 16        		.byte	0x16
 2274 016a 00        		.byte	0x0
 2275 016b 05        		.uleb128 0x5
 2276 016c 02        		.byte	0x2
 2277 016d 0000 0000 		.long	.LM32
 2278 0171 03        		.byte	0x3
 2279 0172 6E        		.sleb128 -18
 2280 0173 01        		.byte	0x1
 2281 0174 00        		.byte	0x0
 2282 0175 05        		.uleb128 0x5
 2283 0176 02        		.byte	0x2
 2284 0177 0000 0000 		.long	.LM33
 2285 017b 0B        		.byte	0xb
 2286 017c 00        		.byte	0x0
 2287 017d 05        		.uleb128 0x5
 2288 017e 02        		.byte	0x2
 2289 017f 0000 0000 		.long	.LM34
 2290 0183 37        		.byte	0x37
 2291 0184 00        		.byte	0x0
 2292 0185 05        		.uleb128 0x5
 2293 0186 02        		.byte	0x2
 2294 0187 0000 0000 		.long	.LM35
 2295 018b 15        		.byte	0x15
 2296 018c 00        		.byte	0x0
 2297 018d 05        		.uleb128 0x5
 2298 018e 02        		.byte	0x2
 2299 018f 0000 0000 		.long	.LM36
 2300 0193 15        		.byte	0x15
 2301 0194 00        		.byte	0x0
GAS LISTING C:\Users\ADMINI~1\AppData\Local\Temp/ccKaOfSf.s 			page 42


 2302 0195 05        		.uleb128 0x5
 2303 0196 02        		.byte	0x2
 2304 0197 0000 0000 		.long	.LM37
 2305 019b 16        		.byte	0x16
 2306 019c 00        		.byte	0x0
 2307 019d 05        		.uleb128 0x5
 2308 019e 02        		.byte	0x2
 2309 019f 0000 0000 		.long	.LM38
 2310 01a3 1C        		.byte	0x1c
 2311 01a4 00        		.byte	0x0
 2312 01a5 05        		.uleb128 0x5
 2313 01a6 02        		.byte	0x2
 2314 01a7 0000 0000 		.long	.LM39
 2315 01ab 17        		.byte	0x17
 2316 01ac 00        		.byte	0x0
 2317 01ad 05        		.uleb128 0x5
 2318 01ae 02        		.byte	0x2
 2319 01af 0000 0000 		.long	.LM40
 2320 01b3 16        		.byte	0x16
 2321 01b4 00        		.byte	0x0
 2322 01b5 05        		.uleb128 0x5
 2323 01b6 02        		.byte	0x2
 2324 01b7 0000 0000 		.long	.LM41
 2325 01bb 16        		.byte	0x16
 2326 01bc 00        		.byte	0x0
 2327 01bd 05        		.uleb128 0x5
 2328 01be 02        		.byte	0x2
 2329 01bf 0000 0000 		.long	.LM42
 2330 01c3 17        		.byte	0x17
 2331 01c4 00        		.byte	0x0
 2332 01c5 05        		.uleb128 0x5
 2333 01c6 02        		.byte	0x2
 2334 01c7 0000 0000 		.long	.LM43
 2335 01cb 16        		.byte	0x16
 2336 01cc 00        		.byte	0x0
 2337 01cd 05        		.uleb128 0x5
 2338 01ce 02        		.byte	0x2
 2339 01cf 0000 0000 		.long	.LM44
 2340 01d3 1D        		.byte	0x1d
 2341 01d4 00        		.byte	0x0
 2342 01d5 05        		.uleb128 0x5
 2343 01d6 02        		.byte	0x2
 2344 01d7 0000 0000 		.long	.LM45
 2345 01db 03        		.byte	0x3
 2346 01dc F67E      		.sleb128 -138
 2347 01de 01        		.byte	0x1
 2348 01df 00        		.byte	0x0
 2349 01e0 05        		.uleb128 0x5
 2350 01e1 02        		.byte	0x2
 2351 01e2 0000 0000 		.long	.LM46
 2352 01e6 01        		.byte	0x1
 2353 01e7 00        		.byte	0x0
 2354 01e8 05        		.uleb128 0x5
 2355 01e9 02        		.byte	0x2
 2356 01ea 0000 0000 		.long	.LM47
 2357 01ee 24        		.byte	0x24
 2358 01ef 00        		.byte	0x0
GAS LISTING C:\Users\ADMINI~1\AppData\Local\Temp/ccKaOfSf.s 			page 43


 2359 01f0 05        		.uleb128 0x5
 2360 01f1 02        		.byte	0x2
 2361 01f2 0000 0000 		.long	.LM48
 2362 01f6 29        		.byte	0x29
 2363 01f7 00        		.byte	0x0
 2364 01f8 05        		.uleb128 0x5
 2365 01f9 02        		.byte	0x2
 2366 01fa 0000 0000 		.long	.LM49
 2367 01fe 11        		.byte	0x11
 2368 01ff 00        		.byte	0x0
 2369 0200 05        		.uleb128 0x5
 2370 0201 02        		.byte	0x2
 2371 0202 0000 0000 		.long	.LM50
 2372 0206 03        		.byte	0x3
 2373 0207 5E        		.sleb128 -34
 2374 0208 01        		.byte	0x1
 2375 0209 00        		.byte	0x0
 2376 020a 05        		.uleb128 0x5
 2377 020b 02        		.byte	0x2
 2378 020c 0000 0000 		.long	.LM51
 2379 0210 1C        		.byte	0x1c
 2380 0211 00        		.byte	0x0
 2381 0212 05        		.uleb128 0x5
 2382 0213 02        		.byte	0x2
 2383 0214 0000 0000 		.long	.LM52
 2384 0218 16        		.byte	0x16
 2385 0219 00        		.byte	0x0
 2386 021a 05        		.uleb128 0x5
 2387 021b 02        		.byte	0x2
 2388 021c 0000 0000 		.long	.LM53
 2389 0220 15        		.byte	0x15
 2390 0221 00        		.byte	0x0
 2391 0222 05        		.uleb128 0x5
 2392 0223 02        		.byte	0x2
 2393 0224 0000 0000 		.long	.LM54
 2394 0228 17        		.byte	0x17
 2395 0229 00        		.byte	0x0
 2396 022a 05        		.uleb128 0x5
 2397 022b 02        		.byte	0x2
 2398 022c 0000 0000 		.long	.LM55
 2399 0230 16        		.byte	0x16
 2400 0231 00        		.byte	0x0
 2401 0232 05        		.uleb128 0x5
 2402 0233 02        		.byte	0x2
 2403 0234 0000 0000 		.long	.LM56
 2404 0238 15        		.byte	0x15
 2405 0239 00        		.byte	0x0
 2406 023a 05        		.uleb128 0x5
 2407 023b 02        		.byte	0x2
 2408 023c 0000 0000 		.long	.LM57
 2409 0240 1F        		.byte	0x1f
 2410 0241 00        		.byte	0x0
 2411 0242 05        		.uleb128 0x5
 2412 0243 02        		.byte	0x2
 2413 0244 0000 0000 		.long	.LM58
 2414 0248 16        		.byte	0x16
 2415 0249 00        		.byte	0x0
GAS LISTING C:\Users\ADMINI~1\AppData\Local\Temp/ccKaOfSf.s 			page 44


 2416 024a 05        		.uleb128 0x5
 2417 024b 02        		.byte	0x2
 2418 024c 0000 0000 		.long	.LM59
 2419 0250 15        		.byte	0x15
 2420 0251 00        		.byte	0x0
 2421 0252 05        		.uleb128 0x5
 2422 0253 02        		.byte	0x2
 2423 0254 0000 0000 		.long	.LM60
 2424 0258 16        		.byte	0x16
 2425 0259 00        		.byte	0x0
 2426 025a 05        		.uleb128 0x5
 2427 025b 02        		.byte	0x2
 2428 025c 0000 0000 		.long	.LM61
 2429 0260 15        		.byte	0x15
 2430 0261 00        		.byte	0x0
 2431 0262 05        		.uleb128 0x5
 2432 0263 02        		.byte	0x2
 2433 0264 0000 0000 		.long	.LM62
 2434 0268 17        		.byte	0x17
 2435 0269 00        		.byte	0x0
 2436 026a 05        		.uleb128 0x5
 2437 026b 02        		.byte	0x2
 2438 026c 0000 0000 		.long	.LM63
 2439 0270 17        		.byte	0x17
 2440 0271 00        		.byte	0x0
 2441 0272 05        		.uleb128 0x5
 2442 0273 02        		.byte	0x2
 2443 0274 0000 0000 		.long	.LM64
 2444 0278 16        		.byte	0x16
 2445 0279 00        		.byte	0x0
 2446 027a 05        		.uleb128 0x5
 2447 027b 02        		.byte	0x2
 2448 027c 0000 0000 		.long	.LM65
 2449 0280 17        		.byte	0x17
 2450 0281 00        		.byte	0x0
 2451 0282 05        		.uleb128 0x5
 2452 0283 02        		.byte	0x2
 2453 0284 0000 0000 		.long	.LM66
 2454 0288 16        		.byte	0x16
 2455 0289 00        		.byte	0x0
 2456 028a 05        		.uleb128 0x5
 2457 028b 02        		.byte	0x2
 2458 028c 0000 0000 		.long	.LM67
 2459 0290 03        		.byte	0x3
 2460 0291 57        		.sleb128 -41
 2461 0292 01        		.byte	0x1
 2462 0293 00        		.byte	0x0
 2463 0294 05        		.uleb128 0x5
 2464 0295 02        		.byte	0x2
 2465 0296 0000 0000 		.long	.LM68
 2466 029a 13        		.byte	0x13
 2467 029b 00        		.byte	0x0
 2468 029c 05        		.uleb128 0x5
 2469 029d 02        		.byte	0x2
 2470 029e 0000 0000 		.long	.LM69
 2471 02a2 1F        		.byte	0x1f
 2472 02a3 00        		.byte	0x0
GAS LISTING C:\Users\ADMINI~1\AppData\Local\Temp/ccKaOfSf.s 			page 45


 2473 02a4 05        		.uleb128 0x5
 2474 02a5 02        		.byte	0x2
 2475 02a6 0000 0000 		.long	.LM70
 2476 02aa 15        		.byte	0x15
 2477 02ab 00        		.byte	0x0
 2478 02ac 05        		.uleb128 0x5
 2479 02ad 02        		.byte	0x2
 2480 02ae 0000 0000 		.long	.LM71
 2481 02b2 3A        		.byte	0x3a
 2482 02b3 00        		.byte	0x0
 2483 02b4 05        		.uleb128 0x5
 2484 02b5 02        		.byte	0x2
 2485 02b6 0000 0000 		.long	.LM72
 2486 02ba 15        		.byte	0x15
 2487 02bb 00        		.byte	0x0
 2488 02bc 05        		.uleb128 0x5
 2489 02bd 02        		.byte	0x2
 2490 02be 0000 0000 		.long	.LM73
 2491 02c2 18        		.byte	0x18
 2492 02c3 00        		.byte	0x0
 2493 02c4 05        		.uleb128 0x5
 2494 02c5 02        		.byte	0x2
 2495 02c6 0000 0000 		.long	.LM74
 2496 02ca 16        		.byte	0x16
 2497 02cb 00        		.byte	0x0
 2498 02cc 05        		.uleb128 0x5
 2499 02cd 02        		.byte	0x2
 2500 02ce 0000 0000 		.long	.LM75
 2501 02d2 03        		.byte	0x3
 2502 02d3 8D7F      		.sleb128 -115
 2503 02d5 01        		.byte	0x1
 2504 02d6 00        		.byte	0x0
 2505 02d7 05        		.uleb128 0x5
 2506 02d8 02        		.byte	0x2
 2507 02d9 0000 0000 		.long	.LM76
 2508 02dd 16        		.byte	0x16
 2509 02de 00        		.byte	0x0
 2510 02df 05        		.uleb128 0x5
 2511 02e0 02        		.byte	0x2
 2512 02e1 0000 0000 		.long	.LM77
 2513 02e5 15        		.byte	0x15
 2514 02e6 00        		.byte	0x0
 2515 02e7 05        		.uleb128 0x5
 2516 02e8 02        		.byte	0x2
 2517 02e9 0000 0000 		.long	.LM78
 2518 02ed 16        		.byte	0x16
 2519 02ee 00        		.byte	0x0
 2520 02ef 05        		.uleb128 0x5
 2521 02f0 02        		.byte	0x2
 2522 02f1 0000 0000 		.long	.LM79
 2523 02f5 15        		.byte	0x15
 2524 02f6 00        		.byte	0x0
 2525 02f7 05        		.uleb128 0x5
 2526 02f8 02        		.byte	0x2
 2527 02f9 0000 0000 		.long	.LM80
 2528 02fd 16        		.byte	0x16
 2529 02fe 00        		.byte	0x0
GAS LISTING C:\Users\ADMINI~1\AppData\Local\Temp/ccKaOfSf.s 			page 46


 2530 02ff 05        		.uleb128 0x5
 2531 0300 02        		.byte	0x2
 2532 0301 0000 0000 		.long	.LM81
 2533 0305 16        		.byte	0x16
 2534 0306 00        		.byte	0x0
 2535 0307 05        		.uleb128 0x5
 2536 0308 02        		.byte	0x2
 2537 0309 0000 0000 		.long	.LM82
 2538 030d 16        		.byte	0x16
 2539 030e 00        		.byte	0x0
 2540 030f 05        		.uleb128 0x5
 2541 0310 02        		.byte	0x2
 2542 0311 0000 0000 		.long	.LM83
 2543 0315 16        		.byte	0x16
 2544 0316 00        		.byte	0x0
 2545 0317 05        		.uleb128 0x5
 2546 0318 02        		.byte	0x2
 2547 0319 0000 0000 		.long	.LM84
 2548 031d 15        		.byte	0x15
 2549 031e 00        		.byte	0x0
 2550 031f 05        		.uleb128 0x5
 2551 0320 02        		.byte	0x2
 2552 0321 0000 0000 		.long	.LM85
 2553 0325 15        		.byte	0x15
 2554 0326 00        		.byte	0x0
 2555 0327 05        		.uleb128 0x5
 2556 0328 02        		.byte	0x2
 2557 0329 0000 0000 		.long	.LM86
 2558 032d 16        		.byte	0x16
 2559 032e 00        		.byte	0x0
 2560 032f 05        		.uleb128 0x5
 2561 0330 02        		.byte	0x2
 2562 0331 0000 0000 		.long	.LM87
 2563 0335 18        		.byte	0x18
 2564 0336 00        		.byte	0x0
 2565 0337 05        		.uleb128 0x5
 2566 0338 02        		.byte	0x2
 2567 0339 0000 0000 		.long	.LM88
 2568 033d 15        		.byte	0x15
 2569 033e 00        		.byte	0x0
 2570 033f 05        		.uleb128 0x5
 2571 0340 02        		.byte	0x2
 2572 0341 0000 0000 		.long	.LM89
 2573 0345 15        		.byte	0x15
 2574 0346 00        		.byte	0x0
 2575 0347 05        		.uleb128 0x5
 2576 0348 02        		.byte	0x2
 2577 0349 0000 0000 		.long	.LM90
 2578 034d 16        		.byte	0x16
 2579 034e 00        		.byte	0x0
 2580 034f 05        		.uleb128 0x5
 2581 0350 02        		.byte	0x2
 2582 0351 0000 0000 		.long	.LM91
 2583 0355 16        		.byte	0x16
 2584 0356 00        		.byte	0x0
 2585 0357 05        		.uleb128 0x5
 2586 0358 02        		.byte	0x2
GAS LISTING C:\Users\ADMINI~1\AppData\Local\Temp/ccKaOfSf.s 			page 47


 2587 0359 0000 0000 		.long	.LM92
 2588 035d 15        		.byte	0x15
 2589 035e 00        		.byte	0x0
 2590 035f 05        		.uleb128 0x5
 2591 0360 02        		.byte	0x2
 2592 0361 0000 0000 		.long	.LM93
 2593 0365 16        		.byte	0x16
 2594 0366 00        		.byte	0x0
 2595 0367 05        		.uleb128 0x5
 2596 0368 02        		.byte	0x2
 2597 0369 0000 0000 		.long	.LM94
 2598 036d 15        		.byte	0x15
 2599 036e 00        		.byte	0x0
 2600 036f 05        		.uleb128 0x5
 2601 0370 02        		.byte	0x2
 2602 0371 0000 0000 		.long	.LM95
 2603 0375 1B        		.byte	0x1b
 2604 0376 00        		.byte	0x0
 2605 0377 05        		.uleb128 0x5
 2606 0378 02        		.byte	0x2
 2607 0379 0000 0000 		.long	.LM96
 2608 037d 16        		.byte	0x16
 2609 037e 00        		.byte	0x0
 2610 037f 05        		.uleb128 0x5
 2611 0380 02        		.byte	0x2
 2612 0381 0000 0000 		.long	.LM97
 2613 0385 15        		.byte	0x15
 2614 0386 00        		.byte	0x0
 2615 0387 05        		.uleb128 0x5
 2616 0388 02        		.byte	0x2
 2617 0389 0000 0000 		.long	.LM98
 2618 038d 1B        		.byte	0x1b
 2619 038e 00        		.byte	0x0
 2620 038f 05        		.uleb128 0x5
 2621 0390 02        		.byte	0x2
 2622 0391 0000 0000 		.long	.Letext0
 2623 0395 00        		.byte	0x0
 2624 0396 01        		.uleb128 0x1
 2625 0397 01        		.byte	0x1
 2626               	.LELT0:
 2627 0398 1600 0000 		.section	.debug_str,"MS",@progbits,1
 2627      0200 1000 
 2627      0000 0101 
 2627      FB0E 0A00 
 2627      0101 0101 
 2628               	.LASF132:
 2629 0000 4B45 595F 		.string	"KEY_LSHIFT"
 2629      4C53 4849 
 2629      4654 00
 2630               	.LASF84:
 2631 000b 4B45 595F 		.string	"KEY_SLASH"
 2631      534C 4153 
 2631      4800 
 2632               	.LASF22:
 2633 0015 4B45 595F 		.string	"KEY_LALT_HANJA"
 2633      4C41 4C54 
 2633      5F48 414E 
GAS LISTING C:\Users\ADMINI~1\AppData\Local\Temp/ccKaOfSf.s 			page 48


 2633      4A41 00
 2634               	.LASF155:
 2635 0024 4B45 595F 		.string	"KEY_PLAY"
 2635      504C 4159 
 2635      00
 2636               	.LASF163:
 2637 002d 4B45 595F 		.string	"KEY_REC"
 2637      5245 4300 
 2638               	.LASF111:
 2639 0035 4B45 595F 		.string	"KEY_NUMLOCK"
 2639      4E55 4D4C 
 2639      4F43 4B00 
 2640               	.LASF20:
 2641 0041 4B45 595F 		.string	"KEY_RALT_HANJA"
 2641      5241 4C54 
 2641      5F48 414E 
 2641      4A41 00
 2642               	.LASF17:
 2643 0050 4B45 595F 		.string	"KEY_LSHIFT_HANGLE"
 2643      4C53 4849 
 2643      4654 5F48 
 2643      414E 474C 
 2643      4500 
 2644               	.LASF131:
 2645 0062 4B45 595F 		.string	"KEY_LCTRL"
 2645      4C43 5452 
 2645      4C00 
 2646               	.LASF95:
 2647 006c 4B45 595F 		.string	"KEY_F10"
 2647      4631 3000 
 2648               	.LASF96:
 2649 0074 4B45 595F 		.string	"KEY_F11"
 2649      4631 3100 
 2650               	.LASF97:
 2651 007c 4B45 595F 		.string	"KEY_F12"
 2651      4631 3200 
 2652               	.LASF174:
 2653 0084 7072 6576 		.string	"prev"
 2653      00
 2654               	.LASF177:
 2655 0089 6743 6C65 		.string	"gClearMatrix"
 2655      6172 4D61 
 2655      7472 6978 
 2655      00
 2656               	.LASF127:
 2657 0096 4B45 595F 		.string	"KEY_KP_DOT"
 2657      4B50 5F44 
 2657      4F54 00
 2658               	.LASF154:
 2659 00a1 4B45 595F 		.string	"KEY_STOP"
 2659      5354 4F50 
 2659      00
 2660               	.LASF193:
 2661 00aa 443A 5C67 		.string	"D:\\git2\\ps2avrU\\.git\\source"
 2661      6974 325C 
 2661      7073 3261 
 2661      7672 555C 
GAS LISTING C:\Users\ADMINI~1\AppData\Local\Temp/ccKaOfSf.s 			page 49


 2661      2E67 6974 
 2662               	.LASF178:
 2663 00c6 6765 744C 		.string	"getLayer"
 2663      6179 6572 
 2663      00
 2664               	.LASF105:
 2665 00cf 4B45 595F 		.string	"KEY_END"
 2665      454E 4400 
 2666               	.LASF6:
 2667 00d7 6C6F 6E67 		.string	"long long unsigned int"
 2667      206C 6F6E 
 2667      6720 756E 
 2667      7369 676E 
 2667      6564 2069 
 2668               	.LASF150:
 2669 00ee 4B45 595F 		.string	"KEY_WWW_REFRESH"
 2669      5757 575F 
 2669      5245 4652 
 2669      4553 4800 
 2670               	.LASF70:
 2671 00fe 4B45 595F 		.string	"KEY_BKSP"
 2671      424B 5350 
 2671      00
 2672               	.LASF104:
 2673 0107 4B45 595F 		.string	"KEY_DEL"
 2673      4445 4C00 
 2674               	.LASF153:
 2675 010f 4B45 595F 		.string	"KEY_PREV_TRK"
 2675      5052 4556 
 2675      5F54 524B 
 2675      00
 2676               	.LASF79:
 2677 011c 4B45 595F 		.string	"KEY_COLON"
 2677      434F 4C4F 
 2677      4E00 
 2678               	.LASF15:
 2679 0126 4B45 595F 		.string	"KEY_RSHIFT_HANGLE"
 2679      5253 4849 
 2679      4654 5F48 
 2679      414E 474C 
 2679      4500 
 2680               	.LASF141:
 2681 0138 4B45 595F 		.string	"KEY_POWER"
 2681      504F 5745 
 2681      5200 
 2682               	.LASF11:
 2683 0142 4B45 595F 		.string	"KEY_FN_HANGLE"
 2683      464E 5F48 
 2683      414E 474C 
 2683      4500 
 2684               	.LASF159:
 2685 0150 4B45 595F 		.string	"KEY_MEDIA"
 2685      4D45 4449 
 2685      4100 
 2686               	.LASF7:
 2687 015a 6C6F 6E67 		.string	"long long int"
 2687      206C 6F6E 
GAS LISTING C:\Users\ADMINI~1\AppData\Local\Temp/ccKaOfSf.s 			page 50


 2687      6720 696E 
 2687      7400 
 2688               	.LASF1:
 2689 0168 7369 676E 		.string	"signed char"
 2689      6564 2063 
 2689      6861 7200 
 2690               	.LASF114:
 2691 0174 4B45 595F 		.string	"KEY_KP_MINUS"
 2691      4B50 5F4D 
 2691      494E 5553 
 2691      00
 2692               	.LASF157:
 2693 0181 4B45 595F 		.string	"KEY_VOL_UP"
 2693      564F 4C5F 
 2693      5550 00
 2694               	.LASF76:
 2695 018c 4B45 595F 		.string	"KEY_RBR"
 2695      5242 5200 
 2696               	.LASF156:
 2697 0194 4B45 595F 		.string	"KEY_MUTE"
 2697      4D55 5445 
 2697      00
 2698               	.LASF5:
 2699 019d 6C6F 6E67 		.string	"long int"
 2699      2069 6E74 
 2699      00
 2700               	.LASF147:
 2701 01a6 4B45 595F 		.string	"KEY_WWW_BACK"
 2701      5757 575F 
 2701      4241 434B 
 2701      00
 2702               	.LASF78:
 2703 01b3 4B45 595F 		.string	"KEY_Europe1"
 2703      4575 726F 
 2703      7065 3100 
 2704               	.LASF128:
 2705 01bf 4B45 595F 		.string	"KEY_Europe2"
 2705      4575 726F 
 2705      7065 3200 
 2706               	.LASF112:
 2707 01cb 4B45 595F 		.string	"KEY_KP_SLASH"
 2707      4B50 5F53 
 2707      4C41 5348 
 2707      00
 2708               	.LASF107:
 2709 01d8 4B45 595F 		.string	"KEY_RIGHT"
 2709      5249 4748 
 2709      5400 
 2710               	.LASF81:
 2711 01e2 4B45 595F 		.string	"KEY_HASH"
 2711      4841 5348 
 2711      00
 2712               	.LASF137:
 2713 01eb 4B45 595F 		.string	"KEY_RALT"
 2713      5241 4C54 
 2713      00
 2714               	.LASF151:
GAS LISTING C:\Users\ADMINI~1\AppData\Local\Temp/ccKaOfSf.s 			page 51


 2715 01f4 4B45 595F 		.string	"KEY_WWW_FAVORITE"
 2715      5757 575F 
 2715      4641 564F 
 2715      5249 5445 
 2715      00
 2716               	.LASF23:
 2717 0205 4B45 595F 		.string	"KEY_RCTRL_HANGLE"
 2717      5243 5452 
 2717      4C5F 4841 
 2717      4E47 4C45 
 2717      00
 2718               	.LASF75:
 2719 0216 4B45 595F 		.string	"KEY_LBR"
 2719      4C42 5200 
 2720               	.LASF14:
 2721 021e 4B45 595F 		.string	"KEY_FN2_HANJA"
 2721      464E 325F 
 2721      4841 4E4A 
 2721      4100 
 2722               	.LASF191:
 2723 022c 474E 5520 		.string	"GNU C 4.3.3"
 2723      4320 342E 
 2723      332E 3300 
 2724               	.LASF98:
 2725 0238 4B45 595F 		.string	"KEY_PRNSCR"
 2725      5052 4E53 
 2725      4352 00
 2726               	.LASF106:
 2727 0243 4B45 595F 		.string	"KEY_PGDN"
 2727      5047 444E 
 2727      00
 2728               	.LASF138:
 2729 024c 4B45 595F 		.string	"KEY_RGUI"
 2729      5247 5549 
 2729      00
 2730               	.LASF146:
 2731 0255 4B45 595F 		.string	"KEY_WWW_HOME"
 2731      5757 575F 
 2731      484F 4D45 
 2731      00
 2732               	.LASF18:
 2733 0262 4B45 595F 		.string	"KEY_LSHIFT_HANJA"
 2733      4C53 4849 
 2733      4654 5F48 
 2733      414E 4A41 
 2733      00
 2734               	.LASF8:
 2735 0273 756E 7369 		.string	"unsigned int"
 2735      676E 6564 
 2735      2069 6E74 
 2735      00
 2736               	.LASF136:
 2737 0280 4B45 595F 		.string	"KEY_RSHIFT"
 2737      5253 4849 
 2737      4654 00
 2738               	.LASF44:
 2739 028b 4B45 595F 		.string	"KEY_M"
GAS LISTING C:\Users\ADMINI~1\AppData\Local\Temp/ccKaOfSf.s 			page 52


 2739      4D00 
 2740               	.LASF99:
 2741 0291 4B45 595F 		.string	"KEY_SCRLCK"
 2741      5343 524C 
 2741      434B 00
 2742               	.LASF4:
 2743 029c 6C6F 6E67 		.string	"long unsigned int"
 2743      2075 6E73 
 2743      6967 6E65 
 2743      6420 696E 
 2743      7400 
 2744               	.LASF170:
 2745 02ae 4B45 595F 		.string	"KEY_HANGLE"
 2745      4841 4E47 
 2745      4C45 00
 2746               	.LASF80:
 2747 02b9 4B45 595F 		.string	"KEY_QUOTE"
 2747      5155 4F54 
 2747      4500 
 2748               	.LASF28:
 2749 02c3 4B45 595F 		.string	"KEY_NONE"
 2749      4E4F 4E45 
 2749      00
 2750               	.LASF116:
 2751 02cc 4B45 595F 		.string	"KEY_KP_ENTER"
 2751      4B50 5F45 
 2751      4E54 4552 
 2751      00
 2752               	.LASF54:
 2753 02d9 4B45 595F 		.string	"KEY_W"
 2753      5700 
 2754               	.LASF101:
 2755 02df 4B45 595F 		.string	"KEY_INSERT"
 2755      494E 5345 
 2755      5254 00
 2756               	.LASF115:
 2757 02ea 4B45 595F 		.string	"KEY_KP_PLUS"
 2757      4B50 5F50 
 2757      4C55 5300 
 2758               	.LASF2:
 2759 02f6 7368 6F72 		.string	"short unsigned int"
 2759      7420 756E 
 2759      7369 676E 
 2759      6564 2069 
 2759      6E74 00
 2760               	.LASF85:
 2761 0309 4B45 595F 		.string	"KEY_CAPS"
 2761      4341 5053 
 2761      00
 2762               	.LASF188:
 2763 0312 7072 6576 		.string	"prevMatrix"
 2763      4D61 7472 
 2763      6978 00
 2764               	.LASF176:
 2765 031d 7365 7443 		.string	"setCurrentMatrix"
 2765      7572 7265 
 2765      6E74 4D61 
GAS LISTING C:\Users\ADMINI~1\AppData\Local\Temp/ccKaOfSf.s 			page 53


 2765      7472 6978 
 2765      00
 2766               	.LASF190:
 2767 032e 5F63 7572 		.string	"_currentLayer"
 2767      7265 6E74 
 2767      4C61 7965 
 2767      7200 
 2768               	.LASF83:
 2769 033c 4B45 595F 		.string	"KEY_DOT"
 2769      444F 5400 
 2770               	.LASF165:
 2771 0344 4B45 595F 		.string	"KEY_MINIMIZE"
 2771      4D49 4E49 
 2771      4D49 5A45 
 2771      00
 2772               	.LASF72:
 2773 0351 4B45 595F 		.string	"KEY_SPACE"
 2773      5350 4143 
 2773      4500 
 2774               	.LASF142:
 2775 035b 4B45 595F 		.string	"KEY_SLEEP"
 2775      534C 4545 
 2775      5000 
 2776               	.LASF179:
 2777 0365 6B65 7969 		.string	"keyidx"
 2777      6478 00
 2778               	.LASF167:
 2779 036c 4B45 595F 		.string	"KEY_Multimedia_end"
 2779      4D75 6C74 
 2779      696D 6564 
 2779      6961 5F65 
 2779      6E64 00
 2780               	.LASF31:
 2781 037f 4B45 595F 		.string	"KEY_ErrorUndefined"
 2781      4572 726F 
 2781      7255 6E64 
 2781      6566 696E 
 2781      6564 00
 2782               	.LASF149:
 2783 0392 4B45 595F 		.string	"KEY_WWW_STOP"
 2783      5757 575F 
 2783      5354 4F50 
 2783      00
 2784               	.LASF184:
 2785 039f 6465 626F 		.string	"debounce"
 2785      756E 6365 
 2785      00
 2786               	.LASF67:
 2787 03a8 4B45 595F 		.string	"KEY_0"
 2787      3000 
 2788               	.LASF58:
 2789 03ae 4B45 595F 		.string	"KEY_1"
 2789      3100 
 2790               	.LASF59:
 2791 03b4 4B45 595F 		.string	"KEY_2"
 2791      3200 
 2792               	.LASF60:
GAS LISTING C:\Users\ADMINI~1\AppData\Local\Temp/ccKaOfSf.s 			page 54


 2793 03ba 4B45 595F 		.string	"KEY_3"
 2793      3300 
 2794               	.LASF61:
 2795 03c0 4B45 595F 		.string	"KEY_4"
 2795      3400 
 2796               	.LASF62:
 2797 03c6 4B45 595F 		.string	"KEY_5"
 2797      3500 
 2798               	.LASF63:
 2799 03cc 4B45 595F 		.string	"KEY_6"
 2799      3600 
 2800               	.LASF64:
 2801 03d2 4B45 595F 		.string	"KEY_7"
 2801      3700 
 2802               	.LASF65:
 2803 03d8 4B45 595F 		.string	"KEY_8"
 2803      3800 
 2804               	.LASF66:
 2805 03de 4B45 595F 		.string	"KEY_9"
 2805      3900 
 2806               	.LASF73:
 2807 03e4 4B45 595F 		.string	"KEY_MINUS"
 2807      4D49 4E55 
 2807      5300 
 2808               	.LASF143:
 2809 03ee 4B45 595F 		.string	"KEY_WAKE"
 2809      5741 4B45 
 2809      00
 2810               	.LASF32:
 2811 03f7 4B45 595F 		.string	"KEY_A"
 2811      4100 
 2812               	.LASF33:
 2813 03fd 4B45 595F 		.string	"KEY_B"
 2813      4200 
 2814               	.LASF34:
 2815 0403 4B45 595F 		.string	"KEY_C"
 2815      4300 
 2816               	.LASF35:
 2817 0409 4B45 595F 		.string	"KEY_D"
 2817      4400 
 2818               	.LASF36:
 2819 040f 4B45 595F 		.string	"KEY_E"
 2819      4500 
 2820               	.LASF37:
 2821 0415 4B45 595F 		.string	"KEY_F"
 2821      4600 
 2822               	.LASF38:
 2823 041b 4B45 595F 		.string	"KEY_G"
 2823      4700 
 2824               	.LASF39:
 2825 0421 4B45 595F 		.string	"KEY_H"
 2825      4800 
 2826               	.LASF40:
 2827 0427 4B45 595F 		.string	"KEY_I"
 2827      4900 
 2828               	.LASF41:
 2829 042d 4B45 595F 		.string	"KEY_J"
GAS LISTING C:\Users\ADMINI~1\AppData\Local\Temp/ccKaOfSf.s 			page 55


 2829      4A00 
 2830               	.LASF42:
 2831 0433 4B45 595F 		.string	"KEY_K"
 2831      4B00 
 2832               	.LASF43:
 2833 0439 4B45 595F 		.string	"KEY_L"
 2833      4C00 
 2834               	.LASF10:
 2835 043f 4B45 595F 		.string	"KEY_dualAction"
 2835      6475 616C 
 2835      4163 7469 
 2835      6F6E 00
 2836               	.LASF45:
 2837 044e 4B45 595F 		.string	"KEY_N"
 2837      4E00 
 2838               	.LASF46:
 2839 0454 4B45 595F 		.string	"KEY_O"
 2839      4F00 
 2840               	.LASF47:
 2841 045a 4B45 595F 		.string	"KEY_P"
 2841      5000 
 2842               	.LASF48:
 2843 0460 4B45 595F 		.string	"KEY_Q"
 2843      5100 
 2844               	.LASF49:
 2845 0466 4B45 595F 		.string	"KEY_R"
 2845      5200 
 2846               	.LASF50:
 2847 046c 4B45 595F 		.string	"KEY_S"
 2847      5300 
 2848               	.LASF51:
 2849 0472 4B45 595F 		.string	"KEY_T"
 2849      5400 
 2850               	.LASF52:
 2851 0478 4B45 595F 		.string	"KEY_U"
 2851      5500 
 2852               	.LASF53:
 2853 047e 4B45 595F 		.string	"KEY_V"
 2853      5600 
 2854               	.LASF27:
 2855 0484 4B45 595F 		.string	"KEY_dualAction_end"
 2855      6475 616C 
 2855      4163 7469 
 2855      6F6E 5F65 
 2855      6E64 00
 2856               	.LASF55:
 2857 0497 4B45 595F 		.string	"KEY_X"
 2857      5800 
 2858               	.LASF56:
 2859 049d 4B45 595F 		.string	"KEY_Y"
 2859      5900 
 2860               	.LASF57:
 2861 04a3 4B45 595F 		.string	"KEY_Z"
 2861      5A00 
 2862               	.LASF164:
 2863 04a9 4B45 595F 		.string	"KEY_REWIND"
 2863      5245 5749 
GAS LISTING C:\Users\ADMINI~1\AppData\Local\Temp/ccKaOfSf.s 			page 56


 2863      4E44 00
 2864               	.LASF192:
 2865 04b4 6B65 796D 		.string	"keymatrix.c"
 2865      6174 7269 
 2865      782E 6300 
 2866               	.LASF185:
 2867 04c0 6475 616C 		.string	"dualActionMaskDown"
 2867      4163 7469 
 2867      6F6E 4D61 
 2867      736B 446F 
 2867      776E 00
 2868               	.LASF152:
 2869 04d3 4B45 595F 		.string	"KEY_NEXT_TRK"
 2869      4E45 5854 
 2869      5F54 524B 
 2869      00
 2870               	.LASF24:
 2871 04e0 4B45 595F 		.string	"KEY_RCTRL_HANJA"
 2871      5243 5452 
 2871      4C5F 4841 
 2871      4E4A 4100 
 2872               	.LASF26:
 2873 04f0 4B45 595F 		.string	"KEY_LCTRL_HANJA"
 2873      4C43 5452 
 2873      4C5F 4841 
 2873      4E4A 4100 
 2874               	.LASF113:
 2875 0500 4B45 595F 		.string	"KEY_KP_AST"
 2875      4B50 5F41 
 2875      5354 00
 2876               	.LASF158:
 2877 050b 4B45 595F 		.string	"KEY_VOL_DOWN"
 2877      564F 4C5F 
 2877      444F 574E 
 2877      00
 2878               	.LASF166:
 2879 0518 4B45 595F 		.string	"KEY_EJECT"
 2879      454A 4543 
 2879      5400 
 2880               	.LASF183:
 2881 0522 6465 626F 		.string	"debounceMAX"
 2881      756E 6365 
 2881      4D41 5800 
 2882               	.LASF139:
 2883 052e 4B45 595F 		.string	"KEY_Modifiers_end"
 2883      4D6F 6469 
 2883      6669 6572 
 2883      735F 656E 
 2883      6400 
 2884               	.LASF0:
 2885 0540 756E 7369 		.string	"unsigned char"
 2885      676E 6564 
 2885      2063 6861 
 2885      7200 
 2886               	.LASF162:
 2887 054e 4B45 595F 		.string	"KEY_SCREENSAVE"
 2887      5343 5245 
GAS LISTING C:\Users\ADMINI~1\AppData\Local\Temp/ccKaOfSf.s 			page 57


 2887      454E 5341 
 2887      5645 00
 2888               	.LASF171:
 2889 055d 4B45 595F 		.string	"KEY_extend_end"
 2889      6578 7465 
 2889      6E64 5F65 
 2889      6E64 00
 2890               	.LASF82:
 2891 056c 4B45 595F 		.string	"KEY_COMMA"
 2891      434F 4D4D 
 2891      4100 
 2892               	.LASF25:
 2893 0576 4B45 595F 		.string	"KEY_LCTRL_HANGLE"
 2893      4C43 5452 
 2893      4C5F 4841 
 2893      4E47 4C45 
 2893      00
 2894               	.LASF181:
 2895 0587 6973 446F 		.string	"isDown"
 2895      776E 00
 2896               	.LASF71:
 2897 058e 4B45 595F 		.string	"KEY_TAB"
 2897      5441 4200 
 2898               	.LASF3:
 2899 0596 7368 6F72 		.string	"short int"
 2899      7420 696E 
 2899      7400 
 2900               	.LASF189:
 2901 05a0 6375 7272 		.string	"currentMatrix"
 2901      656E 744D 
 2901      6174 7269 
 2901      7800 
 2902               	.LASF109:
 2903 05ae 4B45 595F 		.string	"KEY_DOWN"
 2903      444F 574E 
 2903      00
 2904               	.LASF21:
 2905 05b7 4B45 595F 		.string	"KEY_LALT_HANGLE"
 2905      4C41 4C54 
 2905      5F48 414E 
 2905      474C 4500 
 2906               	.LASF74:
 2907 05c7 4B45 595F 		.string	"KEY_EQUAL"
 2907      4551 5541 
 2907      4C00 
 2908               	.LASF16:
 2909 05d1 4B45 595F 		.string	"KEY_RSHIFT_HANJA"
 2909      5253 4849 
 2909      4654 5F48 
 2909      414E 4A41 
 2909      00
 2910               	.LASF100:
 2911 05e2 4B45 595F 		.string	"KEY_PAUSE"
 2911      5041 5553 
 2911      4500 
 2912               	.LASF117:
 2913 05ec 4B45 595F 		.string	"KEY_KP_1"
GAS LISTING C:\Users\ADMINI~1\AppData\Local\Temp/ccKaOfSf.s 			page 58


 2913      4B50 5F31 
 2913      00
 2914               	.LASF118:
 2915 05f5 4B45 595F 		.string	"KEY_KP_2"
 2915      4B50 5F32 
 2915      00
 2916               	.LASF119:
 2917 05fe 4B45 595F 		.string	"KEY_KP_3"
 2917      4B50 5F33 
 2917      00
 2918               	.LASF103:
 2919 0607 4B45 595F 		.string	"KEY_PGUP"
 2919      5047 5550 
 2919      00
 2920               	.LASF30:
 2921 0610 4B45 595F 		.string	"KEY_POSTFail"
 2921      504F 5354 
 2921      4661 696C 
 2921      00
 2922               	.LASF122:
 2923 061d 4B45 595F 		.string	"KEY_KP_6"
 2923      4B50 5F36 
 2923      00
 2924               	.LASF123:
 2925 0626 4B45 595F 		.string	"KEY_KP_7"
 2925      4B50 5F37 
 2925      00
 2926               	.LASF124:
 2927 062f 4B45 595F 		.string	"KEY_KP_8"
 2927      4B50 5F38 
 2927      00
 2928               	.LASF68:
 2929 0638 4B45 595F 		.string	"KEY_ENTER"
 2929      454E 5445 
 2929      5200 
 2930               	.LASF69:
 2931 0642 4B45 595F 		.string	"KEY_ESC"
 2931      4553 4300 
 2932               	.LASF13:
 2933 064a 4B45 595F 		.string	"KEY_FN2_HANGLE"
 2933      464E 325F 
 2933      4841 4E47 
 2933      4C45 00
 2934               	.LASF9:
 2935 0659 6368 6172 		.string	"char"
 2935      00
 2936               	.LASF169:
 2937 065e 4B45 595F 		.string	"KEY_HANJA"
 2937      4841 4E4A 
 2937      4100 
 2938               	.LASF121:
 2939 0668 4B45 595F 		.string	"KEY_KP_5"
 2939      4B50 5F35 
 2939      00
 2940               	.LASF186:
 2941 0671 6973 4265 		.string	"isBeyondFN"
 2941      796F 6E64 
GAS LISTING C:\Users\ADMINI~1\AppData\Local\Temp/ccKaOfSf.s 			page 59


 2941      464E 00
 2942               	.LASF126:
 2943 067c 4B45 595F 		.string	"KEY_KP_0"
 2943      4B50 5F30 
 2943      00
 2944               	.LASF125:
 2945 0685 4B45 595F 		.string	"KEY_KP_9"
 2945      4B50 5F39 
 2945      00
 2946               	.LASF180:
 2947 068e 6170 706C 		.string	"applyFN"
 2947      7946 4E00 
 2948               	.LASF120:
 2949 0696 4B45 595F 		.string	"KEY_KP_4"
 2949      4B50 5F34 
 2949      00
 2950               	.LASF144:
 2951 069f 4B45 595F 		.string	"KEY_EMAIL"
 2951      454D 4149 
 2951      4C00 
 2952               	.LASF187:
 2953 06a9 6D6F 646D 		.string	"modmask"
 2953      6173 6B00 
 2954               	.LASF182:
 2955 06b1 5F69 7345 		.string	"_isExtraFNDown"
 2955      7874 7261 
 2955      464E 446F 
 2955      776E 00
 2956               	.LASF135:
 2957 06c0 4B45 595F 		.string	"KEY_RCTRL"
 2957      5243 5452 
 2957      4C00 
 2958               	.LASF195:
 2959 06ca 636C 6561 		.string	"clearMatrix"
 2959      724D 6174 
 2959      7269 7800 
 2960               	.LASF77:
 2961 06d6 4B45 595F 		.string	"KEY_BKSLASH"
 2961      424B 534C 
 2961      4153 4800 
 2962               	.LASF160:
 2963 06e2 4B45 595F 		.string	"KEY_CALC"
 2963      4341 4C43 
 2963      00
 2964               	.LASF173:
 2965 06eb 6765 744C 		.string	"getLiveMatrix"
 2965      6976 654D 
 2965      6174 7269 
 2965      7800 
 2966               	.LASF133:
 2967 06f9 4B45 595F 		.string	"KEY_LALT"
 2967      4C41 4C54 
 2967      00
 2968               	.LASF12:
 2969 0702 4B45 595F 		.string	"KEY_FN_HANJA"
 2969      464E 5F48 
 2969      414E 4A41 
GAS LISTING C:\Users\ADMINI~1\AppData\Local\Temp/ccKaOfSf.s 			page 60


 2969      00
 2970               	.LASF87:
 2971 070f 4B45 595F 		.string	"KEY_F2"
 2971      4632 00
 2972               	.LASF88:
 2973 0716 4B45 595F 		.string	"KEY_F3"
 2973      4633 00
 2974               	.LASF89:
 2975 071d 4B45 595F 		.string	"KEY_F4"
 2975      4634 00
 2976               	.LASF90:
 2977 0724 4B45 595F 		.string	"KEY_F5"
 2977      4635 00
 2978               	.LASF91:
 2979 072b 4B45 595F 		.string	"KEY_F6"
 2979      4636 00
 2980               	.LASF92:
 2981 0732 4B45 595F 		.string	"KEY_F7"
 2981      4637 00
 2982               	.LASF93:
 2983 0739 4B45 595F 		.string	"KEY_F8"
 2983      4638 00
 2984               	.LASF194:
 2985 0740 7569 6E74 		.string	"uint8_t"
 2985      385F 7400 
 2986               	.LASF102:
 2987 0748 4B45 595F 		.string	"KEY_HOME"
 2987      484F 4D45 
 2987      00
 2988               	.LASF148:
 2989 0751 4B45 595F 		.string	"KEY_WWW_FORWARD"
 2989      5757 575F 
 2989      464F 5257 
 2989      4152 4400 
 2990               	.LASF168:
 2991 0761 4B45 595F 		.string	"KEY_extend"
 2991      6578 7465 
 2991      6E64 00
 2992               	.LASF129:
 2993 076c 4B45 595F 		.string	"KEY_APPS"
 2993      4150 5053 
 2993      00
 2994               	.LASF145:
 2995 0775 4B45 595F 		.string	"KEY_WWW_SEARCH"
 2995      5757 575F 
 2995      5345 4152 
 2995      4348 00
 2996               	.LASF110:
 2997 0784 4B45 595F 		.string	"KEY_UP"
 2997      5550 00
 2998               	.LASF86:
 2999 078b 4B45 595F 		.string	"KEY_F1"
 2999      4631 00
 3000               	.LASF161:
 3001 0792 4B45 595F 		.string	"KEY_MYCOM"
 3001      4D59 434F 
 3001      4D00 
GAS LISTING C:\Users\ADMINI~1\AppData\Local\Temp/ccKaOfSf.s 			page 61


 3002               	.LASF29:
 3003 079c 4B45 595F 		.string	"KEY_ErrorRollOver"
 3003      4572 726F 
 3003      7252 6F6C 
 3003      6C4F 7665 
 3003      7200 
 3004               	.LASF94:
 3005 07ae 4B45 595F 		.string	"KEY_F9"
 3005      4639 00
 3006               	.LASF175:
 3007 07b5 6973 4D6F 		.string	"isModified"
 3007      6469 6669 
 3007      6564 00
 3008               	.LASF134:
 3009 07c0 4B45 595F 		.string	"KEY_LGUI"
 3009      4C47 5549 
 3009      00
 3010               	.LASF19:
 3011 07c9 4B45 595F 		.string	"KEY_RALT_HANGLE"
 3011      5241 4C54 
 3011      5F48 414E 
 3011      474C 4500 
 3012               	.LASF140:
 3013 07d9 4B45 595F 		.string	"KEY_Multimedia"
 3013      4D75 6C74 
 3013      696D 6564 
 3013      6961 00
 3014               	.LASF130:
 3015 07e8 4B45 595F 		.string	"KEY_Modifiers"
 3015      4D6F 6469 
 3015      6669 6572 
 3015      7300 
 3016               	.LASF108:
 3017 07f6 4B45 595F 		.string	"KEY_LEFT"
 3017      4C45 4654 
 3017      00
 3018               	.LASF172:
 3019 07ff 6973 416C 		.string	"isAllKeyRelease"
 3019      6C4B 6579 
 3019      5265 6C65 
 3019      6173 6500 
 3020               	.global __do_copy_data
 3021               	.global __do_clear_bss
GAS LISTING C:\Users\ADMINI~1\AppData\Local\Temp/ccKaOfSf.s 			page 62


DEFINED SYMBOLS
                            *ABS*:00000000 keymatrix.c
C:\Users\ADMINI~1\AppData\Local\Temp/ccKaOfSf.s:2      *ABS*:0000003f __SREG__
C:\Users\ADMINI~1\AppData\Local\Temp/ccKaOfSf.s:3      *ABS*:0000003e __SP_H__
C:\Users\ADMINI~1\AppData\Local\Temp/ccKaOfSf.s:4      *ABS*:0000003d __SP_L__
C:\Users\ADMINI~1\AppData\Local\Temp/ccKaOfSf.s:5      *ABS*:00000034 __CCP__
C:\Users\ADMINI~1\AppData\Local\Temp/ccKaOfSf.s:6      *ABS*:00000000 __tmp_reg__
C:\Users\ADMINI~1\AppData\Local\Temp/ccKaOfSf.s:7      *ABS*:00000001 __zero_reg__
C:\Users\ADMINI~1\AppData\Local\Temp/ccKaOfSf.s:18     .text:00000000 clearMatrix
                            *COM*:00000011 prevMatrix
                            *COM*:00000011 currentMatrix
C:\Users\ADMINI~1\AppData\Local\Temp/ccKaOfSf.s:678    .data:00000021 debounceMAX
C:\Users\ADMINI~1\AppData\Local\Temp/ccKaOfSf.s:52     .text:00000024 isAllKeyRelease
C:\Users\ADMINI~1\AppData\Local\Temp/ccKaOfSf.s:85     .text:00000040 getLiveMatrix
C:\Users\ADMINI~1\AppData\Local\Temp/ccKaOfSf.s:674    .data:00000020 debounce
C:\Users\ADMINI~1\AppData\Local\Temp/ccKaOfSf.s:275    .text:0000014c setCurrentMatrix
C:\Users\ADMINI~1\AppData\Local\Temp/ccKaOfSf.s:304    .text:0000016a getLayer
C:\Users\ADMINI~1\AppData\Local\Temp/ccKaOfSf.s:649    .bss:00000001 _currentLayer
C:\Users\ADMINI~1\AppData\Local\Temp/ccKaOfSf.s:643    .bss:00000000 isBeyondFN
C:\Users\ADMINI~1\AppData\Local\Temp/ccKaOfSf.s:519    .text:0000029c applyFN
                             .bss:00000002 _isExtraFNDown
C:\Users\ADMINI~1\AppData\Local\Temp/ccKaOfSf.s:655    .data:00000000 modmask

UNDEFINED SYMBOLS
_delay_us_m
startKeyMapping
enterFrameForMapper
isReadyKeyMappingOnBoot
getCurrentKeycode
dualActionMaskDown
setDualAction
applyKeyDownForFullLED
getLEDState
changeFullLedState
increaseLedBrightness
reduceLedBrightness
__do_copy_data
__do_clear_bss
