GAS LISTING C:\Users\ADMINI~1\AppData\Local\Temp/ccSxsHok.s 			page 1


   1               		.file	"keymain.c"
   2               	__SREG__ = 0x3f
   3               	__SP_H__ = 0x3e
   4               	__SP_L__ = 0x3d
   5               	__CCP__  = 0x34
   6               	__tmp_reg__ = 0
   7               	__zero_reg__ = 1
   8               		.section	.debug_abbrev,"",@progbits
   9               	.Ldebug_abbrev0:
  10               		.section	.debug_info,"",@progbits
  11               	.Ldebug_info0:
  12               		.section	.debug_line,"",@progbits
  13               	.Ldebug_line0:
  14               		.text
  15               	.Ltext0:
  16               		.type	uart_putchar, @function
  17               	uart_putchar:
  18               	.LFB3:
  19               	.LM1:
  20               	.LVL0:
  21 0000 1F93      		push r17
  22               	/* prologue: function */
  23               	/* frame size = 0 */
  24 0002 182F      		mov r17,r24
  25               	.LM2:
  26 0004 8A30      		cpi r24,lo8(10)
  27 0006 01F4      		brne .L4
  28               	.LM3:
  29 0008 8DE0      		ldi r24,lo8(13)
  30               	.LVL1:
  31 000a 0E94 0000 		call uart_putchar
  32               	.LVL2:
  33               	.L4:
  34               	.LM4:
  35 000e 5D9B      		sbis 43-32,5
  36 0010 00C0      		rjmp .L4
  37               	.LM5:
  38 0012 1CB9      		out 44-32,r17
  39               	.LM6:
  40 0014 80E0      		ldi r24,lo8(0)
  41 0016 90E0      		ldi r25,hi8(0)
  42               	/* epilogue start */
  43 0018 1F91      		pop r17
  44               	.LVL3:
  45 001a 0895      		ret
  46               	.LFE3:
  47               		.size	uart_putchar, .-uart_putchar
  48               	.global	setUsbOn
  49               		.type	setUsbOn, @function
  50               	setUsbOn:
  51               	.LFB9:
  52               	.LM7:
  53               	/* prologue: function */
  54               	/* frame size = 0 */
  55               	.LM8:
  56 001c 8D98      		cbi 49-32,5
  57               	.LM9:
GAS LISTING C:\Users\ADMINI~1\AppData\Local\Temp/ccSxsHok.s 			page 2


  58 001e 959A      		sbi 50-32,5
  59               	/* epilogue start */
  60               	.LM10:
  61 0020 0895      		ret
  62               	.LFE9:
  63               		.size	setUsbOn, .-setUsbOn
  64               	.global	setUsbOff
  65               		.type	setUsbOff, @function
  66               	setUsbOff:
  67               	.LFB10:
  68               	.LM11:
  69               	/* prologue: function */
  70               	/* frame size = 0 */
  71               	.LM12:
  72 0022 8D9A      		sbi 49-32,5
  73               	.LM13:
  74 0024 9598      		cbi 50-32,5
  75               	/* epilogue start */
  76               	.LM14:
  77 0026 0895      		ret
  78               	.LFE10:
  79               		.size	setUsbOff, .-setUsbOff
  80               	.global	clearTimers
  81               		.type	clearTimers, @function
  82               	clearTimers:
  83               	.LFB12:
  84               	.LM15:
  85 0028 1F93      		push r17
  86               	/* prologue: function */
  87               	/* frame size = 0 */
  88               	.LM16:
  89 002a 10E0      		ldi r17,lo8(0)
  90               	.LVL4:
  91               	.L11:
  92               	.LM17:
  93 002c 812F      		mov r24,r17
  94 002e 0E94 0000 		call timerDetach
  95               	.LM18:
  96 0032 1F5F      		subi r17,lo8(-(1))
  97 0034 1730      		cpi r17,lo8(7)
  98 0036 01F4      		brne .L11
  99               	.LM19:
 100 0038 89B7      		in r24,89-32
 101 003a 8E7F      		andi r24,lo8(-2)
 102 003c 89BF      		out 89-32,r24
 103               	.LM20:
 104 003e 89B7      		in r24,89-32
 105 0040 8B7F      		andi r24,lo8(-5)
 106 0042 89BF      		out 89-32,r24
 107               	.LM21:
 108 0044 89B7      		in r24,89-32
 109 0046 8F7B      		andi r24,lo8(-65)
 110 0048 89BF      		out 89-32,r24
 111               	/* epilogue start */
 112               	.LM22:
 113 004a 1F91      		pop r17
 114               	.LVL5:
GAS LISTING C:\Users\ADMINI~1\AppData\Local\Temp/ccSxsHok.s 			page 3


 115 004c 0895      		ret
 116               	.LFE12:
 117               		.size	clearTimers, .-clearTimers
 118               		.type	initHardware, @function
 119               	initHardware:
 120               	.LFB13:
 121               	.LM23:
 122               	.LVL6:
 123               	/* prologue: function */
 124               	/* frame size = 0 */
 125               	.LM24:
 126 004e 9FEF      		ldi r25,lo8(-1)
 127 0050 97BB      		out 55-32,r25
 128               	.LM25:
 129 0052 98BB      		out 56-32,r25
 130               	.LM26:
 131 0054 1ABA      		out 58-32,__zero_reg__
 132               	.LM27:
 133 0056 14BA      		out 52-32,__zero_reg__
 134               	.LM28:
 135 0058 9BBB      		out 59-32,r25
 136               	.LM29:
 137 005a 95BB      		out 53-32,r25
 138               	.LM30:
 139 005c 91BB      		out 49-32,r25
 140               	.LM31:
 141 005e 91B3      		in r25,49-32
 142 0060 9F75      		andi r25,lo8(95)
 143 0062 91BB      		out 49-32,r25
 144               	.LM32:
 145 0064 12BA      		out 50-32,__zero_reg__
 146               	.LM33:
 147 0066 92B3      		in r25,50-32
 148 0068 906A      		ori r25,lo8(-96)
 149 006a 92BB      		out 50-32,r25
 150               	.LM34:
 151 006c 91B3      		in r25,49-32
 152 006e 9361      		ori r25,lo8(19)
 153 0070 91BB      		out 49-32,r25
 154               	.LM35:
 155 0072 92B3      		in r25,50-32
 156 0074 9C7E      		andi r25,lo8(-20)
 157 0076 92BB      		out 50-32,r25
 158               	.LM36:
 159 0078 8E9A      		sbi 49-32,6
 160               	.LM37:
 161 007a 9698      		cbi 50-32,6
 162               	.LM38:
 163 007c 8823      		tst r24
 164 007e 01F0      		breq .L15
 165               	.LM39:
 166 0080 8BE0      		ldi r24,lo8(11)
 167 0082 90E0      		ldi r25,hi8(11)
 168               	.LVL7:
 169 0084 0E94 0000 		call _delay_us_m
 170               	.LM40:
 171 0088 81B3      		in r24,49-32
GAS LISTING C:\Users\ADMINI~1\AppData\Local\Temp/ccSxsHok.s 			page 4


 172 008a 837F      		andi r24,lo8(-13)
 173 008c 81BB      		out 49-32,r24
 174               	.LM41:
 175 008e 83B7      		in r24,83-32
 176 0090 8560      		ori r24,lo8(5)
 177 0092 83BF      		out 83-32,r24
 178               	.LM42:
 179 0094 0E94 0000 		call clearTimers
 180               	.LBB18:
 181               	.LBB19:
 182               	.LM43:
 183 0098 8D98      		cbi 49-32,5
 184               	.LM44:
 185 009a 959A      		sbi 50-32,5
 186 009c 0895      		ret
 187               	.LVL8:
 188               	.L15:
 189               	.LBE19:
 190               	.LBE18:
 191               	.LBB20:
 192               	.LBB21:
 193               	.LM45:
 194 009e 8D9A      		sbi 49-32,5
 195               	.LM46:
 196 00a0 9598      		cbi 50-32,5
 197 00a2 0895      		ret
 198               	.LBE21:
 199               	.LBE20:
 200               	.LFE13:
 201               		.size	initHardware, .-initHardware
 202               	.global	clearInterface
 203               		.type	clearInterface, @function
 204               	clearInterface:
 205               	.LFB11:
 206               	.LM47:
 207               	/* prologue: function */
 208               	/* frame size = 0 */
 209               	.LM48:
 210               	/* #APP */
 211               	 ;  59 "keymain.c" 1
 212 00a4 F894      		cli
 213               	 ;  0 "" 2
 214               	.LM49:
 215               	/* #NOAPP */
 216 00a6 0E94 0000 		call clearLEDInited
 217               	.LM50:
 218 00aa 1092 0000 		sts (interfaceCount)+1,__zero_reg__
 219 00ae 1092 0000 		sts interfaceCount,__zero_reg__
 220               	.LM51:
 221 00b2 1092 0000 		sts interfaceReady,__zero_reg__
 222               	/* epilogue start */
 223               	.LM52:
 224 00b6 0895      		ret
 225               	.LFE11:
 226               		.size	clearInterface, .-clearInterface
 227               		.data
 228               	.LC0:
GAS LISTING C:\Users\ADMINI~1\AppData\Local\Temp/ccSxsHok.s 			page 5


 229 0000 2E2E 2E2E 		.string	"...........readyKeyMappingOnBoot "
 229      2E2E 2E2E 
 229      2E2E 2E72 
 229      6561 6479 
 229      4B65 794D 
 230               	.LC1:
 231 0022 4B45 595F 		.string	"KEY_U "
 231      5520 00
 232               	.LC2:
 233 0029 4B45 595F 		.string	"KEY_P "
 233      5020 00
 234               	.LC3:
 235 0030 7573 6572 		.string	"user selected INTERFACE %02x \n"
 235      2073 656C 
 235      6563 7465 
 235      6420 494E 
 235      5445 5246 
 236               	.LC4:
 237 004f 494E 5445 		.string	"INTERFACE %02x \n"
 237      5246 4143 
 237      4520 2530 
 237      3278 200A 
 237      00
 238               		.text
 239               	.global	main
 240               		.type	main, @function
 241               	main:
 242               	.LFB14:
 243               	.LM53:
 244 00b8 8F92      		push r8
 245 00ba 9F92      		push r9
 246 00bc BF92      		push r11
 247 00be CF92      		push r12
 248 00c0 DF92      		push r13
 249 00c2 EF92      		push r14
 250 00c4 FF92      		push r15
 251 00c6 0F93      		push r16
 252 00c8 1F93      		push r17
 253 00ca CF93      		push r28
 254 00cc DF93      		push r29
 255               	/* prologue: function */
 256               	/* frame size = 0 */
 257               	.LBB22:
 258               	.LBB23:
 259               	.LM54:
 260 00ce 80E0      		ldi r24,lo8(mystdout)
 261 00d0 90E0      		ldi r25,hi8(mystdout)
 262 00d2 9093 0000 		sts (__iob+2)+1,r25
 263 00d6 8093 0000 		sts __iob+2,r24
 264               	.LM55:
 265 00da 10BC      		out 64-32,__zero_reg__
 266               	.LM56:
 267 00dc 8CE0      		ldi r24,lo8(12)
 268 00de 89B9      		out 41-32,r24
 269               	.LM57:
 270 00e0 1BB8      		out 43-32,__zero_reg__
 271               	.LM58:
GAS LISTING C:\Users\ADMINI~1\AppData\Local\Temp/ccSxsHok.s 			page 6


 272 00e2 88E0      		ldi r24,lo8(8)
 273 00e4 8AB9      		out 42-32,r24
 274               	.LM59:
 275 00e6 86E8      		ldi r24,lo8(-122)
 276 00e8 80BD      		out 64-32,r24
 277               	.LBE23:
 278               	.LBE22:
 279               	.LM60:
 280 00ea 8FEF      		ldi r24,lo8(-1)
 281 00ec 8093 0000 		sts INTERFACE,r24
 282               	.LM61:
 283 00f0 87BB      		out 55-32,r24
 284               	.LM62:
 285 00f2 88BB      		out 56-32,r24
 286               	.LM63:
 287 00f4 1ABA      		out 58-32,__zero_reg__
 288               	.LM64:
 289 00f6 14BA      		out 52-32,__zero_reg__
 290               	.LM65:
 291 00f8 8BBB      		out 59-32,r24
 292               	.LM66:
 293 00fa 85BB      		out 53-32,r24
 294               	.LM67:
 295 00fc 11BA      		out 49-32,__zero_reg__
 296               	.LM68:
 297 00fe 80E8      		ldi r24,lo8(-128)
 298 0100 82BB      		out 50-32,r24
 299               	.LM69:
 300 0102 81E0      		ldi r24,lo8(1)
 301 0104 90E0      		ldi r25,hi8(1)
 302 0106 0E94 0000 		call _delay_us_m
 303 010a 10E0      		ldi r17,lo8(0)
 304               	.LVL9:
 305               	.L22:
 306               	.LM70:
 307 010c 0E94 0000 		call getLiveMatrix
 308 0110 8823      		tst r24
 309 0112 01F4      		brne .L21
 310 0114 1F5F      		subi r17,lo8(-(1))
 311 0116 1E31      		cpi r17,lo8(30)
 312 0118 01F4      		brne .L22
 313               	.L21:
 314               	.LM71:
 315 011a 0E94 0000 		call getCurrentMatrix
 316 011e 6C01      		movw r12,r24
 317               	.LVL10:
 318 0120 FF24      		clr r15
 319               	.LVL11:
 320 0122 00E0      		ldi r16,lo8(0)
 321 0124 10E0      		ldi r17,hi8(0)
 322               	.LM72:
 323 0126 81E0      		ldi r24,lo8(1)
 324 0128 882E      		mov r8,r24
 325 012a 912C      		mov r9,__zero_reg__
 326 012c 00C0      		rjmp .L23
 327               	.LVL12:
 328               	.L28:
GAS LISTING C:\Users\ADMINI~1\AppData\Local\Temp/ccSxsHok.s 			page 7


 329               	.LM73:
 330 012e 6C2F      		mov r22,r28
 331               	.LM74:
 332 0130 F601      		movw r30,r12
 333 0132 EC0F      		add r30,r28
 334 0134 FD1F      		adc r31,r29
 335 0136 8081      		ld r24,Z
 336               	.LVL13:
 337 0138 8B21      		and r24,r11
 338 013a 01F0      		breq .L24
 339               	.LM75:
 340 013c C130      		cpi r28,lo8(1)
 341 013e 01F4      		brne .L25
 342               	.LVL14:
 343 0140 81E0      		ldi r24,lo8(1)
 344 0142 E816      		cp r14,r24
 345 0144 01F4      		brne .L25
 346               	.LM76:
 347 0146 0E94 0000 		call setToBootMapper
 348 014a 00C0      		rjmp .L24
 349               	.LVL15:
 350               	.L25:
 351               	.LM77:
 352 014c 80E0      		ldi r24,lo8(0)
 353 014e 4E2D      		mov r20,r14
 354 0150 0E94 0000 		call getKeyCode
 355               	.LM78:
 356 0154 8031      		cpi r24,lo8(16)
 357               	.LVL16:
 358 0156 01F4      		brne .L26
 359               	.LM79:
 360 0158 80E0      		ldi r24,lo8(.LC0)
 361 015a 90E0      		ldi r25,hi8(.LC0)
 362               	.LVL17:
 363 015c 0E94 0000 		call puts
 364               	.LM80:
 365 0160 0E94 0000 		call readyKeyMappingOnBoot
 366 0164 00C0      		rjmp .L24
 367               	.LVL18:
 368               	.L26:
 369               	.LM81:
 370 0166 8831      		cpi r24,lo8(24)
 371 0168 01F4      		brne .L27
 372               	.LM82:
 373 016a 80E0      		ldi r24,lo8(.LC1)
 374 016c 90E0      		ldi r25,hi8(.LC1)
 375               	.LVL19:
 376 016e 0E94 0000 		call puts
 377               	.LM83:
 378 0172 A1E0      		ldi r26,lo8(1)
 379 0174 FA2A      		or r15,r26
 380 0176 00C0      		rjmp .L24
 381               	.LVL20:
 382               	.L27:
 383               	.LM84:
 384 0178 8331      		cpi r24,lo8(19)
 385 017a 01F4      		brne .L24
GAS LISTING C:\Users\ADMINI~1\AppData\Local\Temp/ccSxsHok.s 			page 8


 386               	.LM85:
 387 017c 80E0      		ldi r24,lo8(.LC2)
 388 017e 90E0      		ldi r25,hi8(.LC2)
 389               	.LVL21:
 390 0180 0E94 0000 		call puts
 391               	.LM86:
 392 0184 B2E0      		ldi r27,lo8(2)
 393 0186 FB2A      		or r15,r27
 394               	.LVL22:
 395               	.L24:
 396 0188 2196      		adiw r28,1
 397               	.LVL23:
 398               	.LM87:
 399 018a C131      		cpi r28,17
 400 018c D105      		cpc r29,__zero_reg__
 401 018e 01F4      		brne .L28
 402 0190 0F5F      		subi r16,lo8(-(1))
 403 0192 1F4F      		sbci r17,hi8(-(1))
 404               	.LM88:
 405 0194 0830      		cpi r16,8
 406 0196 1105      		cpc r17,__zero_reg__
 407 0198 01F0      		breq .L29
 408               	.L23:
 409 019a E02E      		mov r14,r16
 410               	.LM89:
 411 019c C401      		movw r24,r8
 412               	.LVL24:
 413 019e 002E      		mov r0,r16
 414 01a0 00C0      		rjmp 2f
 415 01a2 880F      	1:	lsl r24
 416 01a4 991F      		rol r25
 417 01a6 0A94      	2:	dec r0
 418 01a8 02F4      		brpl 1b
 419 01aa B82E      		mov r11,r24
 420 01ac C0E0      		ldi r28,lo8(0)
 421 01ae D0E0      		ldi r29,hi8(0)
 422 01b0 00C0      		rjmp .L28
 423               	.LVL25:
 424               	.L29:
 425               	.LM90:
 426 01b2 FF20      		tst r15
 427 01b4 01F0      		breq .L30
 428               	.LM91:
 429 01b6 F394      		inc r15
 430 01b8 F092 0000 		sts INTERFACE,r15
 431               	.L30:
 432               	.LM92:
 433 01bc 00D0      		rcall .
 434 01be 00D0      		rcall .
 435 01c0 EDB7      		in r30,__SP_L__
 436 01c2 FEB7      		in r31,__SP_H__
 437 01c4 3196      		adiw r30,1
 438 01c6 80E0      		ldi r24,lo8(.LC3)
 439 01c8 90E0      		ldi r25,hi8(.LC3)
 440               	.LVL26:
 441 01ca ADB7      		in r26,__SP_L__
 442 01cc BEB7      		in r27,__SP_H__
GAS LISTING C:\Users\ADMINI~1\AppData\Local\Temp/ccSxsHok.s 			page 9


 443 01ce 1296      		adiw r26,1+1
 444 01d0 9C93      		st X,r25
 445 01d2 8E93      		st -X,r24
 446 01d4 1197      		sbiw r26,1
 447 01d6 8091 0000 		lds r24,INTERFACE
 448 01da 8283      		std Z+2,r24
 449 01dc 1382      		std Z+3,__zero_reg__
 450 01de 0E94 0000 		call printf
 451               	.LVL27:
 452               	.LM93:
 453 01e2 6091 0000 		lds r22,INTERFACE
 454 01e6 0F90      		pop __tmp_reg__
 455 01e8 0F90      		pop __tmp_reg__
 456 01ea 0F90      		pop __tmp_reg__
 457 01ec 0F90      		pop __tmp_reg__
 458 01ee 6430      		cpi r22,lo8(4)
 459 01f0 01F4      		brne .L31
 460               	.LM94:
 461 01f2 8CE0      		ldi r24,lo8(12)
 462 01f4 90E0      		ldi r25,hi8(12)
 463 01f6 6FEF      		ldi r22,lo8(-1)
 464 01f8 00C0      		rjmp .L54
 465               	.L31:
 466               	.LM95:
 467 01fa 6430      		cpi r22,lo8(4)
 468 01fc 00F4      		brsh .L33
 469               	.LM96:
 470 01fe 8CE0      		ldi r24,lo8(12)
 471 0200 90E0      		ldi r25,hi8(12)
 472               	.L54:
 473 0202 0E94 0000 		call __eewr_byte_m32
 474 0206 00C0      		rjmp .L32
 475               	.L33:
 476               	.LM97:
 477 0208 8CE0      		ldi r24,lo8(12)
 478 020a 90E0      		ldi r25,hi8(12)
 479 020c 0E94 0000 		call __eerd_byte_m32
 480 0210 8093 0000 		sts INTERFACE,r24
 481               	.L32:
 482               	.LM98:
 483 0214 8A98      		cbi 49-32,2
 484               	.LM99:
 485 0216 929A      		sbi 50-32,2
 486               	.LM100:
 487 0218 2091 0000 		lds r18,INTERFACE
 488 021c 2430      		cpi r18,lo8(4)
 489 021e 00F0      		brlo .L34
 490 0220 80E0      		ldi r24,lo8(0)
 491               	.LVL28:
 492 0222 90E0      		ldi r25,lo8(0)
 493               	.LVL29:
 494               	.L41:
 495               	.LM101:
 496 0224 8299      		sbic 48-32,2
 497 0226 00C0      		rjmp .L35
 498               	.LM102:
 499 0228 92FD      		sbrc r25,2
GAS LISTING C:\Users\ADMINI~1\AppData\Local\Temp/ccSxsHok.s 			page 10


 500 022a 00C0      		rjmp .L55
 501               	.L36:
 502               	.LM103:
 503 022c 8F5F      		subi r24,lo8(-(1))
 504               	.LM104:
 505 022e 8630      		cpi r24,lo8(6)
 506 0230 00F0      		brlo .L40
 507 0232 21E0      		ldi r18,lo8(1)
 508 0234 00C0      		rjmp .L40
 509               	.L35:
 510               	.LM105:
 511 0236 829B      		sbis 48-32,2
 512 0238 00C0      		rjmp .L38
 513               	.LM106:
 514 023a 92FD      		sbrc r25,2
 515 023c 00C0      		rjmp .L39
 516               	.L55:
 517 023e 80E0      		ldi r24,lo8(0)
 518 0240 00C0      		rjmp .L40
 519               	.L39:
 520               	.LM107:
 521 0242 8F5F      		subi r24,lo8(-(1))
 522               	.LM108:
 523 0244 8630      		cpi r24,lo8(6)
 524 0246 00F0      		brlo .L40
 525 0248 20E0      		ldi r18,lo8(0)
 526               	.L40:
 527               	.LM109:
 528 024a 90B3      		in r25,48-32
 529               	.L38:
 530               	.LM110:
 531 024c 2230      		cpi r18,lo8(2)
 532 024e 00F4      		brsh .L41
 533 0250 2093 0000 		sts INTERFACE,r18
 534               	.L34:
 535               	.LM111:
 536 0254 00D0      		rcall .
 537 0256 00D0      		rcall .
 538 0258 EDB7      		in r30,__SP_L__
 539 025a FEB7      		in r31,__SP_H__
 540 025c 3196      		adiw r30,1
 541 025e 80E0      		ldi r24,lo8(.LC4)
 542 0260 90E0      		ldi r25,hi8(.LC4)
 543               	.LVL30:
 544 0262 ADB7      		in r26,__SP_L__
 545 0264 BEB7      		in r27,__SP_H__
 546 0266 1296      		adiw r26,1+1
 547 0268 9C93      		st X,r25
 548 026a 8E93      		st -X,r24
 549 026c 1197      		sbiw r26,1
 550 026e 8091 0000 		lds r24,INTERFACE
 551 0272 8283      		std Z+2,r24
 552 0274 1382      		std Z+3,__zero_reg__
 553 0276 0E94 0000 		call printf
 554               	.LVL31:
 555 027a 0F90      		pop __tmp_reg__
 556 027c 0F90      		pop __tmp_reg__
GAS LISTING C:\Users\ADMINI~1\AppData\Local\Temp/ccSxsHok.s 			page 11


 557 027e 0F90      		pop __tmp_reg__
 558 0280 0F90      		pop __tmp_reg__
 559               	.LBB24:
 560               	.LBB25:
 561               	.LBB26:
 562               	.LBB27:
 563               	.LM112:
 564 0282 CCE2      		ldi r28,lo8(300)
 565 0284 D1E0      		ldi r29,hi8(300)
 566               	.L53:
 567               	.LBE27:
 568               	.LBE26:
 569               	.LBE25:
 570               	.LBE24:
 571               	.LM113:
 572 0286 8091 0000 		lds r24,INTERFACE
 573 028a 8150      		subi r24,lo8(-(-1))
 574 028c 8230      		cpi r24,lo8(2)
 575 028e 00F4      		brsh .L42
 576               	.LM114:
 577 0290 0E94 0000 		call clearInterface
 578               	.LM115:
 579 0294 81E0      		ldi r24,lo8(1)
 580 0296 0E94 0000 		call initHardware
 581               	.LM116:
 582 029a 0E94 0000 		call usb_main
 583               	.L42:
 584               	.LM117:
 585 029e 8091 0000 		lds r24,INTERFACE
 586 02a2 8823      		tst r24
 587 02a4 01F0      		breq .L43
 588 02a6 8330      		cpi r24,lo8(3)
 589 02a8 01F4      		brne .L53
 590               	.L43:
 591               	.LM118:
 592 02aa 82B3      		in r24,50-32
 593 02ac 8360      		ori r24,lo8(3)
 594 02ae 82BB      		out 50-32,r24
 595 02b0 88EE      		ldi r24,lo8(1000)
 596 02b2 93E0      		ldi r25,hi8(1000)
 597               	.LVL32:
 598               	.L45:
 599               	.LBB31:
 600               	.LBB30:
 601               	.LBB29:
 602               	.LBB28:
 603               	.LM119:
 604 02b4 FE01      		movw r30,r28
 605               	.LVL33:
 606               	/* #APP */
 607               	 ;  105 "c:/winavr-20100110/lib/gcc/../../avr/include/util/delay_basic.h" 1
 608 02b6 3197      		1: sbiw r30,1
 609 02b8 01F4      		brne 1b
 610               	 ;  0 "" 2
 611               	/* #NOAPP */
 612               	.LBE28:
 613               	.LBE29:
GAS LISTING C:\Users\ADMINI~1\AppData\Local\Temp/ccSxsHok.s 			page 12


 614               	.LM120:
 615 02ba 0197      		sbiw r24,1
 616               	.LM121:
 617 02bc 01F4      		brne .L45
 618               	.LBE30:
 619               	.LBE31:
 620               	.LM122:
 621 02be 82B3      		in r24,50-32
 622               	.LVL34:
 623 02c0 8C7F      		andi r24,lo8(-4)
 624 02c2 82BB      		out 50-32,r24
 625               	.LM123:
 626 02c4 0E94 0000 		call clearInterface
 627               	.LVL35:
 628               	.LM124:
 629 02c8 80E0      		ldi r24,lo8(0)
 630 02ca 0E94 0000 		call initHardware
 631               	.LM125:
 632 02ce 0E94 0000 		call ps2_main
 633 02d2 00C0      		rjmp .L53
 634               	.LFE14:
 635               		.size	main, .-main
 636               	.global	interfaceCount
 637               	.global	interfaceCount
 638               		.section .bss
 639               		.type	interfaceCount, @object
 640               		.size	interfaceCount, 2
 641               	interfaceCount:
 642 0000 0000      		.skip 2,0
 643               	.global	interfaceReady
 644               	.global	interfaceReady
 645               		.type	interfaceReady, @object
 646               		.size	interfaceReady, 1
 647               	interfaceReady:
 648 0002 00        		.skip 1,0
 649               	.global	INTERFACE
 650               		.data
 651               		.type	INTERFACE, @object
 652               		.size	INTERFACE, 1
 653               	INTERFACE:
 654 0060 FF        		.byte	-1
 655               		.type	mystdout, @object
 656               		.size	mystdout, 14
 657               	mystdout:
 658 0061 0000 00   		.skip 3,0
 659 0064 02        		.byte	2
 660 0065 0000 0000 		.skip 4,0
 661 0069 0000      		.word	gs(uart_putchar)
 662 006b 0000      		.word	0
 663 006d 0000      		.word	0
 664               		.section	.debug_frame,"",@progbits
 665               	.Lframe0:
 666 0000 0C00 0000 		.long	.LECIE0-.LSCIE0
 667               	.LSCIE0:
 668 0004 FFFF FFFF 		.long	0xffffffff
 669 0008 01        		.byte	0x1
 670 0009 00        		.string	""
GAS LISTING C:\Users\ADMINI~1\AppData\Local\Temp/ccSxsHok.s 			page 13


 671 000a 01        		.uleb128 0x1
 672 000b 7F        		.sleb128 -1
 673 000c 24        		.byte	0x24
 674 000d 0C        		.byte	0xc
 675 000e 20        		.uleb128 0x20
 676 000f 00        		.uleb128 0x0
 677               		.p2align	2
 678               	.LECIE0:
 679               	.LSFDE0:
 680 0010 0C00 0000 		.long	.LEFDE0-.LASFDE0
 681               	.LASFDE0:
 682 0014 0000 0000 		.long	.Lframe0
 683 0018 0000 0000 		.long	.LFB3
 684 001c 1C00 0000 		.long	.LFE3-.LFB3
 685               		.p2align	2
 686               	.LEFDE0:
 687               	.LSFDE2:
 688 0020 0C00 0000 		.long	.LEFDE2-.LASFDE2
 689               	.LASFDE2:
 690 0024 0000 0000 		.long	.Lframe0
 691 0028 0000 0000 		.long	.LFB9
 692 002c 0600 0000 		.long	.LFE9-.LFB9
 693               		.p2align	2
 694               	.LEFDE2:
 695               	.LSFDE4:
 696 0030 0C00 0000 		.long	.LEFDE4-.LASFDE4
 697               	.LASFDE4:
 698 0034 0000 0000 		.long	.Lframe0
 699 0038 0000 0000 		.long	.LFB10
 700 003c 0600 0000 		.long	.LFE10-.LFB10
 701               		.p2align	2
 702               	.LEFDE4:
 703               	.LSFDE6:
 704 0040 0C00 0000 		.long	.LEFDE6-.LASFDE6
 705               	.LASFDE6:
 706 0044 0000 0000 		.long	.Lframe0
 707 0048 0000 0000 		.long	.LFB12
 708 004c 2600 0000 		.long	.LFE12-.LFB12
 709               		.p2align	2
 710               	.LEFDE6:
 711               	.LSFDE8:
 712 0050 0C00 0000 		.long	.LEFDE8-.LASFDE8
 713               	.LASFDE8:
 714 0054 0000 0000 		.long	.Lframe0
 715 0058 0000 0000 		.long	.LFB13
 716 005c 5600 0000 		.long	.LFE13-.LFB13
 717               		.p2align	2
 718               	.LEFDE8:
 719               	.LSFDE10:
 720 0060 0C00 0000 		.long	.LEFDE10-.LASFDE10
 721               	.LASFDE10:
 722 0064 0000 0000 		.long	.Lframe0
 723 0068 0000 0000 		.long	.LFB11
 724 006c 1400 0000 		.long	.LFE11-.LFB11
 725               		.p2align	2
 726               	.LEFDE10:
 727               	.LSFDE12:
GAS LISTING C:\Users\ADMINI~1\AppData\Local\Temp/ccSxsHok.s 			page 14


 728 0070 0C00 0000 		.long	.LEFDE12-.LASFDE12
 729               	.LASFDE12:
 730 0074 0000 0000 		.long	.Lframe0
 731 0078 0000 0000 		.long	.LFB14
 732 007c 1C02 0000 		.long	.LFE14-.LFB14
 733               		.p2align	2
 734               	.LEFDE12:
 735               		.text
 736               	.Letext0:
 737               		.section	.debug_loc,"",@progbits
 738               	.Ldebug_loc0:
 739               	.LLST1:
 740 0000 0000 0000 		.long	.LVL0-.Ltext0
 741 0004 0A00 0000 		.long	.LVL1-.Ltext0
 742 0008 0100      		.word	0x1
 743 000a 68        		.byte	0x68
 744 000b 0A00 0000 		.long	.LVL1-.Ltext0
 745 000f 1A00 0000 		.long	.LVL3-.Ltext0
 746 0013 0100      		.word	0x1
 747 0015 61        		.byte	0x61
 748 0016 0000 0000 		.long	0x0
 749 001a 0000 0000 		.long	0x0
 750               	.LLST2:
 751 001e 0000 0000 		.long	.LVL0-.Ltext0
 752 0022 0E00 0000 		.long	.LVL2-.Ltext0
 753 0026 0600      		.word	0x6
 754 0028 66        		.byte	0x66
 755 0029 93        		.byte	0x93
 756 002a 01        		.uleb128 0x1
 757 002b 67        		.byte	0x67
 758 002c 93        		.byte	0x93
 759 002d 01        		.uleb128 0x1
 760 002e 0E00 0000 		.long	.LVL2-.Ltext0
 761 0032 1C00 0000 		.long	.LFE3-.Ltext0
 762 0036 0600      		.word	0x6
 763 0038 66        		.byte	0x66
 764 0039 93        		.byte	0x93
 765 003a 01        		.uleb128 0x1
 766 003b 67        		.byte	0x67
 767 003c 93        		.byte	0x93
 768 003d 01        		.uleb128 0x1
 769 003e 0000 0000 		.long	0x0
 770 0042 0000 0000 		.long	0x0
 771               	.LLST6:
 772 0046 2C00 0000 		.long	.LVL4-.Ltext0
 773 004a 4C00 0000 		.long	.LVL5-.Ltext0
 774 004e 0100      		.word	0x1
 775 0050 61        		.byte	0x61
 776 0051 0000 0000 		.long	0x0
 777 0055 0000 0000 		.long	0x0
 778               	.LLST8:
 779 0059 4E00 0000 		.long	.LVL6-.Ltext0
 780 005d 8400 0000 		.long	.LVL7-.Ltext0
 781 0061 0100      		.word	0x1
 782 0063 68        		.byte	0x68
 783 0064 9E00 0000 		.long	.LVL8-.Ltext0
 784 0068 A400 0000 		.long	.LFE13-.Ltext0
GAS LISTING C:\Users\ADMINI~1\AppData\Local\Temp/ccSxsHok.s 			page 15


 785 006c 0100      		.word	0x1
 786 006e 68        		.byte	0x68
 787 006f 0000 0000 		.long	0x0
 788 0073 0000 0000 		.long	0x0
 789               	.LLST11:
 790 0077 2E01 0000 		.long	.LVL12-.Ltext0
 791 007b 4001 0000 		.long	.LVL14-.Ltext0
 792 007f 0100      		.word	0x1
 793 0081 66        		.byte	0x66
 794 0082 4001 0000 		.long	.LVL14-.Ltext0
 795 0086 8A01 0000 		.long	.LVL23-.Ltext0
 796 008a 0100      		.word	0x1
 797 008c 6C        		.byte	0x6c
 798 008d 8A01 0000 		.long	.LVL23-.Ltext0
 799 0091 E201 0000 		.long	.LVL27-.Ltext0
 800 0095 0100      		.word	0x1
 801 0097 66        		.byte	0x66
 802 0098 0000 0000 		.long	0x0
 803 009c 0000 0000 		.long	0x0
 804               	.LLST12:
 805 00a0 2E01 0000 		.long	.LVL12-.Ltext0
 806 00a4 3801 0000 		.long	.LVL13-.Ltext0
 807 00a8 0100      		.word	0x1
 808 00aa 68        		.byte	0x68
 809 00ab 5601 0000 		.long	.LVL16-.Ltext0
 810 00af 5C01 0000 		.long	.LVL17-.Ltext0
 811 00b3 0100      		.word	0x1
 812 00b5 68        		.byte	0x68
 813 00b6 6601 0000 		.long	.LVL18-.Ltext0
 814 00ba 6E01 0000 		.long	.LVL19-.Ltext0
 815 00be 0100      		.word	0x1
 816 00c0 68        		.byte	0x68
 817 00c1 7801 0000 		.long	.LVL20-.Ltext0
 818 00c5 8001 0000 		.long	.LVL21-.Ltext0
 819 00c9 0100      		.word	0x1
 820 00cb 68        		.byte	0x68
 821 00cc 8801 0000 		.long	.LVL22-.Ltext0
 822 00d0 9E01 0000 		.long	.LVL24-.Ltext0
 823 00d4 0100      		.word	0x1
 824 00d6 68        		.byte	0x68
 825 00d7 B201 0000 		.long	.LVL25-.Ltext0
 826 00db CA01 0000 		.long	.LVL26-.Ltext0
 827 00df 0100      		.word	0x1
 828 00e1 68        		.byte	0x68
 829 00e2 0000 0000 		.long	0x0
 830 00e6 0000 0000 		.long	0x0
 831               	.LLST13:
 832 00ea 2202 0000 		.long	.LVL28-.Ltext0
 833 00ee 6202 0000 		.long	.LVL30-.Ltext0
 834 00f2 0100      		.word	0x1
 835 00f4 68        		.byte	0x68
 836 00f5 0000 0000 		.long	0x0
 837 00f9 0000 0000 		.long	0x0
 838               	.LLST14:
 839 00fd 2402 0000 		.long	.LVL29-.Ltext0
 840 0101 7A02 0000 		.long	.LVL31-.Ltext0
 841 0105 0100      		.word	0x1
GAS LISTING C:\Users\ADMINI~1\AppData\Local\Temp/ccSxsHok.s 			page 16


 842 0107 69        		.byte	0x69
 843 0108 0000 0000 		.long	0x0
 844 010c 0000 0000 		.long	0x0
 845               	.LLST15:
 846 0110 B402 0000 		.long	.LVL32-.Ltext0
 847 0114 C002 0000 		.long	.LVL34-.Ltext0
 848 0118 0600      		.word	0x6
 849 011a 68        		.byte	0x68
 850 011b 93        		.byte	0x93
 851 011c 01        		.uleb128 0x1
 852 011d 69        		.byte	0x69
 853 011e 93        		.byte	0x93
 854 011f 01        		.uleb128 0x1
 855 0120 0000 0000 		.long	0x0
 856 0124 0000 0000 		.long	0x0
 857               	.LLST16:
 858 0128 B602 0000 		.long	.LVL33-.Ltext0
 859 012c C802 0000 		.long	.LVL35-.Ltext0
 860 0130 0600      		.word	0x6
 861 0132 6E        		.byte	0x6e
 862 0133 93        		.byte	0x93
 863 0134 01        		.uleb128 0x1
 864 0135 6F        		.byte	0x6f
 865 0136 93        		.byte	0x93
 866 0137 01        		.uleb128 0x1
 867 0138 0000 0000 		.long	0x0
 868 013c 0000 0000 		.long	0x0
 869               		.section	.debug_info
 870 0000 8408 0000 		.long	0x884
 871 0004 0200      		.word	0x2
 872 0006 0000 0000 		.long	.Ldebug_abbrev0
 873 000a 04        		.byte	0x4
 874 000b 01        		.uleb128 0x1
 875 000c 0000 0000 		.long	.LASF215
 876 0010 01        		.byte	0x1
 877 0011 0000 0000 		.long	.LASF216
 878 0015 0000 0000 		.long	.LASF217
 879 0019 0000 0000 		.long	.Ltext0
 880 001d 0000 0000 		.long	.Letext0
 881 0021 0000 0000 		.long	.Ldebug_line0
 882 0025 02        		.uleb128 0x2
 883 0026 7530 3800 		.string	"u08"
 884 002a 07        		.byte	0x7
 885 002b 20        		.byte	0x20
 886 002c 3000 0000 		.long	0x30
 887 0030 03        		.uleb128 0x3
 888 0031 01        		.byte	0x1
 889 0032 08        		.byte	0x8
 890 0033 0000 0000 		.long	.LASF0
 891 0037 03        		.uleb128 0x3
 892 0038 01        		.byte	0x1
 893 0039 06        		.byte	0x6
 894 003a 0000 0000 		.long	.LASF1
 895 003e 03        		.uleb128 0x3
 896 003f 02        		.byte	0x2
 897 0040 07        		.byte	0x7
 898 0041 0000 0000 		.long	.LASF2
GAS LISTING C:\Users\ADMINI~1\AppData\Local\Temp/ccSxsHok.s 			page 17


 899 0045 03        		.uleb128 0x3
 900 0046 02        		.byte	0x2
 901 0047 05        		.byte	0x5
 902 0048 0000 0000 		.long	.LASF3
 903 004c 03        		.uleb128 0x3
 904 004d 04        		.byte	0x4
 905 004e 07        		.byte	0x7
 906 004f 0000 0000 		.long	.LASF4
 907 0053 03        		.uleb128 0x3
 908 0054 04        		.byte	0x4
 909 0055 05        		.byte	0x5
 910 0056 0000 0000 		.long	.LASF5
 911 005a 03        		.uleb128 0x3
 912 005b 08        		.byte	0x8
 913 005c 07        		.byte	0x7
 914 005d 0000 0000 		.long	.LASF6
 915 0061 03        		.uleb128 0x3
 916 0062 08        		.byte	0x8
 917 0063 05        		.byte	0x5
 918 0064 0000 0000 		.long	.LASF7
 919 0068 03        		.uleb128 0x3
 920 0069 02        		.byte	0x2
 921 006a 07        		.byte	0x7
 922 006b 0000 0000 		.long	.LASF8
 923 006f 03        		.uleb128 0x3
 924 0070 01        		.byte	0x1
 925 0071 06        		.byte	0x6
 926 0072 0000 0000 		.long	.LASF9
 927 0076 04        		.uleb128 0x4
 928 0077 02        		.byte	0x2
 929 0078 05        		.byte	0x5
 930 0079 696E 7400 		.string	"int"
 931 007d 05        		.uleb128 0x5
 932 007e 0000 0000 		.long	.LASF10
 933 0082 05        		.byte	0x5
 934 0083 7A        		.byte	0x7a
 935 0084 3000 0000 		.long	0x30
 936 0088 05        		.uleb128 0x5
 937 0089 0000 0000 		.long	.LASF11
 938 008d 05        		.byte	0x5
 939 008e 7C        		.byte	0x7c
 940 008f 6800 0000 		.long	0x68
 941 0093 06        		.uleb128 0x6
 942 0094 0000 0000 		.long	.LASF218
 943 0098 0E        		.byte	0xe
 944 0099 06        		.byte	0x6
 945 009a F2        		.byte	0xf2
 946 009b 1501 0000 		.long	0x115
 947 009f 07        		.uleb128 0x7
 948 00a0 6275 6600 		.string	"buf"
 949 00a4 06        		.byte	0x6
 950 00a5 F3        		.byte	0xf3
 951 00a6 1501 0000 		.long	0x115
 952 00aa 02        		.byte	0x2
 953 00ab 23        		.byte	0x23
 954 00ac 00        		.uleb128 0x0
 955 00ad 08        		.uleb128 0x8
GAS LISTING C:\Users\ADMINI~1\AppData\Local\Temp/ccSxsHok.s 			page 18


 956 00ae 0000 0000 		.long	.LASF12
 957 00b2 06        		.byte	0x6
 958 00b3 F4        		.byte	0xf4
 959 00b4 3000 0000 		.long	0x30
 960 00b8 02        		.byte	0x2
 961 00b9 23        		.byte	0x23
 962 00ba 02        		.uleb128 0x2
 963 00bb 08        		.uleb128 0x8
 964 00bc 0000 0000 		.long	.LASF13
 965 00c0 06        		.byte	0x6
 966 00c1 F5        		.byte	0xf5
 967 00c2 7D00 0000 		.long	0x7d
 968 00c6 02        		.byte	0x2
 969 00c7 23        		.byte	0x23
 970 00c8 03        		.uleb128 0x3
 971 00c9 09        		.uleb128 0x9
 972 00ca 0000 0000 		.long	.LASF14
 973 00ce 06        		.byte	0x6
 974 00cf 0501      		.word	0x105
 975 00d1 7600 0000 		.long	0x76
 976 00d5 02        		.byte	0x2
 977 00d6 23        		.byte	0x23
 978 00d7 04        		.uleb128 0x4
 979 00d8 0A        		.uleb128 0xa
 980 00d9 6C65 6E00 		.string	"len"
 981 00dd 06        		.byte	0x6
 982 00de 0601      		.word	0x106
 983 00e0 7600 0000 		.long	0x76
 984 00e4 02        		.byte	0x2
 985 00e5 23        		.byte	0x23
 986 00e6 06        		.uleb128 0x6
 987 00e7 0A        		.uleb128 0xa
 988 00e8 7075 7400 		.string	"put"
 989 00ec 06        		.byte	0x6
 990 00ed 0701      		.word	0x107
 991 00ef 3601 0000 		.long	0x136
 992 00f3 02        		.byte	0x2
 993 00f4 23        		.byte	0x23
 994 00f5 08        		.uleb128 0x8
 995 00f6 0A        		.uleb128 0xa
 996 00f7 6765 7400 		.string	"get"
 997 00fb 06        		.byte	0x6
 998 00fc 0801      		.word	0x108
 999 00fe 4C01 0000 		.long	0x14c
 1000 0102 02        		.byte	0x2
 1001 0103 23        		.byte	0x23
 1002 0104 0A        		.uleb128 0xa
 1003 0105 09        		.uleb128 0x9
 1004 0106 0000 0000 		.long	.LASF15
 1005 010a 06        		.byte	0x6
 1006 010b 0901      		.word	0x109
 1007 010d 5201 0000 		.long	0x152
 1008 0111 02        		.byte	0x2
 1009 0112 23        		.byte	0x23
 1010 0113 0C        		.uleb128 0xc
 1011 0114 00        		.byte	0x0
 1012 0115 0B        		.uleb128 0xb
GAS LISTING C:\Users\ADMINI~1\AppData\Local\Temp/ccSxsHok.s 			page 19


 1013 0116 02        		.byte	0x2
 1014 0117 6F00 0000 		.long	0x6f
 1015 011b 0C        		.uleb128 0xc
 1016 011c 01        		.byte	0x1
 1017 011d 7600 0000 		.long	0x76
 1018 0121 3001 0000 		.long	0x130
 1019 0125 0D        		.uleb128 0xd
 1020 0126 6F00 0000 		.long	0x6f
 1021 012a 0D        		.uleb128 0xd
 1022 012b 3001 0000 		.long	0x130
 1023 012f 00        		.byte	0x0
 1024 0130 0B        		.uleb128 0xb
 1025 0131 02        		.byte	0x2
 1026 0132 9300 0000 		.long	0x93
 1027 0136 0B        		.uleb128 0xb
 1028 0137 02        		.byte	0x2
 1029 0138 1B01 0000 		.long	0x11b
 1030 013c 0C        		.uleb128 0xc
 1031 013d 01        		.byte	0x1
 1032 013e 7600 0000 		.long	0x76
 1033 0142 4C01 0000 		.long	0x14c
 1034 0146 0D        		.uleb128 0xd
 1035 0147 3001 0000 		.long	0x130
 1036 014b 00        		.byte	0x0
 1037 014c 0B        		.uleb128 0xb
 1038 014d 02        		.byte	0x2
 1039 014e 3C01 0000 		.long	0x13c
 1040 0152 0E        		.uleb128 0xe
 1041 0153 02        		.byte	0x2
 1042 0154 0F        		.uleb128 0xf
 1043 0155 01        		.byte	0x1
 1044 0156 06        		.byte	0x6
 1045 0157 0F        		.uleb128 0xf
 1046 0158 01        		.byte	0x1
 1047 0159 08        		.byte	0x8
 1048 015a 10        		.uleb128 0x10
 1049 015b 02        		.byte	0x2
 1050 015c 08        		.byte	0x8
 1051 015d 41        		.byte	0x41
 1052 015e F305 0000 		.long	0x5f3
 1053 0162 11        		.uleb128 0x11
 1054 0163 0000 0000 		.long	.LASF16
 1055 0167 00        		.sleb128 0
 1056 0168 11        		.uleb128 0x11
 1057 0169 0000 0000 		.long	.LASF17
 1058 016d 01        		.sleb128 1
 1059 016e 11        		.uleb128 0x11
 1060 016f 0000 0000 		.long	.LASF18
 1061 0173 02        		.sleb128 2
 1062 0174 11        		.uleb128 0x11
 1063 0175 0000 0000 		.long	.LASF19
 1064 0179 03        		.sleb128 3
 1065 017a 11        		.uleb128 0x11
 1066 017b 0000 0000 		.long	.LASF20
 1067 017f 04        		.sleb128 4
 1068 0180 11        		.uleb128 0x11
 1069 0181 0000 0000 		.long	.LASF21
GAS LISTING C:\Users\ADMINI~1\AppData\Local\Temp/ccSxsHok.s 			page 20


 1070 0185 05        		.sleb128 5
 1071 0186 11        		.uleb128 0x11
 1072 0187 0000 0000 		.long	.LASF22
 1073 018b 06        		.sleb128 6
 1074 018c 11        		.uleb128 0x11
 1075 018d 0000 0000 		.long	.LASF23
 1076 0191 07        		.sleb128 7
 1077 0192 11        		.uleb128 0x11
 1078 0193 0000 0000 		.long	.LASF24
 1079 0197 08        		.sleb128 8
 1080 0198 11        		.uleb128 0x11
 1081 0199 0000 0000 		.long	.LASF25
 1082 019d 09        		.sleb128 9
 1083 019e 11        		.uleb128 0x11
 1084 019f 0000 0000 		.long	.LASF26
 1085 01a3 0A        		.sleb128 10
 1086 01a4 11        		.uleb128 0x11
 1087 01a5 0000 0000 		.long	.LASF27
 1088 01a9 0B        		.sleb128 11
 1089 01aa 11        		.uleb128 0x11
 1090 01ab 0000 0000 		.long	.LASF28
 1091 01af 0C        		.sleb128 12
 1092 01b0 11        		.uleb128 0x11
 1093 01b1 0000 0000 		.long	.LASF29
 1094 01b5 0D        		.sleb128 13
 1095 01b6 11        		.uleb128 0x11
 1096 01b7 0000 0000 		.long	.LASF30
 1097 01bb 0E        		.sleb128 14
 1098 01bc 11        		.uleb128 0x11
 1099 01bd 0000 0000 		.long	.LASF31
 1100 01c1 0F        		.sleb128 15
 1101 01c2 11        		.uleb128 0x11
 1102 01c3 0000 0000 		.long	.LASF32
 1103 01c7 10        		.sleb128 16
 1104 01c8 11        		.uleb128 0x11
 1105 01c9 0000 0000 		.long	.LASF33
 1106 01cd 11        		.sleb128 17
 1107 01ce 11        		.uleb128 0x11
 1108 01cf 0000 0000 		.long	.LASF34
 1109 01d3 12        		.sleb128 18
 1110 01d4 11        		.uleb128 0x11
 1111 01d5 0000 0000 		.long	.LASF35
 1112 01d9 13        		.sleb128 19
 1113 01da 11        		.uleb128 0x11
 1114 01db 0000 0000 		.long	.LASF36
 1115 01df 14        		.sleb128 20
 1116 01e0 11        		.uleb128 0x11
 1117 01e1 0000 0000 		.long	.LASF37
 1118 01e5 15        		.sleb128 21
 1119 01e6 11        		.uleb128 0x11
 1120 01e7 0000 0000 		.long	.LASF38
 1121 01eb 16        		.sleb128 22
 1122 01ec 11        		.uleb128 0x11
 1123 01ed 0000 0000 		.long	.LASF39
 1124 01f1 17        		.sleb128 23
 1125 01f2 11        		.uleb128 0x11
 1126 01f3 0000 0000 		.long	.LASF40
GAS LISTING C:\Users\ADMINI~1\AppData\Local\Temp/ccSxsHok.s 			page 21


 1127 01f7 18        		.sleb128 24
 1128 01f8 11        		.uleb128 0x11
 1129 01f9 0000 0000 		.long	.LASF41
 1130 01fd 19        		.sleb128 25
 1131 01fe 11        		.uleb128 0x11
 1132 01ff 0000 0000 		.long	.LASF42
 1133 0203 1A        		.sleb128 26
 1134 0204 11        		.uleb128 0x11
 1135 0205 0000 0000 		.long	.LASF43
 1136 0209 1B        		.sleb128 27
 1137 020a 11        		.uleb128 0x11
 1138 020b 0000 0000 		.long	.LASF44
 1139 020f 1C        		.sleb128 28
 1140 0210 11        		.uleb128 0x11
 1141 0211 0000 0000 		.long	.LASF45
 1142 0215 1D        		.sleb128 29
 1143 0216 11        		.uleb128 0x11
 1144 0217 0000 0000 		.long	.LASF46
 1145 021b 1E        		.sleb128 30
 1146 021c 11        		.uleb128 0x11
 1147 021d 0000 0000 		.long	.LASF47
 1148 0221 1F        		.sleb128 31
 1149 0222 11        		.uleb128 0x11
 1150 0223 0000 0000 		.long	.LASF48
 1151 0227 20        		.sleb128 32
 1152 0228 11        		.uleb128 0x11
 1153 0229 0000 0000 		.long	.LASF49
 1154 022d 21        		.sleb128 33
 1155 022e 11        		.uleb128 0x11
 1156 022f 0000 0000 		.long	.LASF50
 1157 0233 22        		.sleb128 34
 1158 0234 11        		.uleb128 0x11
 1159 0235 0000 0000 		.long	.LASF51
 1160 0239 23        		.sleb128 35
 1161 023a 11        		.uleb128 0x11
 1162 023b 0000 0000 		.long	.LASF52
 1163 023f 24        		.sleb128 36
 1164 0240 11        		.uleb128 0x11
 1165 0241 0000 0000 		.long	.LASF53
 1166 0245 25        		.sleb128 37
 1167 0246 11        		.uleb128 0x11
 1168 0247 0000 0000 		.long	.LASF54
 1169 024b 26        		.sleb128 38
 1170 024c 11        		.uleb128 0x11
 1171 024d 0000 0000 		.long	.LASF55
 1172 0251 27        		.sleb128 39
 1173 0252 11        		.uleb128 0x11
 1174 0253 0000 0000 		.long	.LASF56
 1175 0257 28        		.sleb128 40
 1176 0258 11        		.uleb128 0x11
 1177 0259 0000 0000 		.long	.LASF57
 1178 025d 29        		.sleb128 41
 1179 025e 11        		.uleb128 0x11
 1180 025f 0000 0000 		.long	.LASF58
 1181 0263 2A        		.sleb128 42
 1182 0264 11        		.uleb128 0x11
 1183 0265 0000 0000 		.long	.LASF59
GAS LISTING C:\Users\ADMINI~1\AppData\Local\Temp/ccSxsHok.s 			page 22


 1184 0269 2B        		.sleb128 43
 1185 026a 11        		.uleb128 0x11
 1186 026b 0000 0000 		.long	.LASF60
 1187 026f 2C        		.sleb128 44
 1188 0270 11        		.uleb128 0x11
 1189 0271 0000 0000 		.long	.LASF61
 1190 0275 2D        		.sleb128 45
 1191 0276 11        		.uleb128 0x11
 1192 0277 0000 0000 		.long	.LASF62
 1193 027b 2E        		.sleb128 46
 1194 027c 11        		.uleb128 0x11
 1195 027d 0000 0000 		.long	.LASF63
 1196 0281 2F        		.sleb128 47
 1197 0282 11        		.uleb128 0x11
 1198 0283 0000 0000 		.long	.LASF64
 1199 0287 30        		.sleb128 48
 1200 0288 11        		.uleb128 0x11
 1201 0289 0000 0000 		.long	.LASF65
 1202 028d 31        		.sleb128 49
 1203 028e 11        		.uleb128 0x11
 1204 028f 0000 0000 		.long	.LASF66
 1205 0293 32        		.sleb128 50
 1206 0294 11        		.uleb128 0x11
 1207 0295 0000 0000 		.long	.LASF67
 1208 0299 33        		.sleb128 51
 1209 029a 11        		.uleb128 0x11
 1210 029b 0000 0000 		.long	.LASF68
 1211 029f 34        		.sleb128 52
 1212 02a0 11        		.uleb128 0x11
 1213 02a1 0000 0000 		.long	.LASF69
 1214 02a5 35        		.sleb128 53
 1215 02a6 11        		.uleb128 0x11
 1216 02a7 0000 0000 		.long	.LASF70
 1217 02ab 36        		.sleb128 54
 1218 02ac 11        		.uleb128 0x11
 1219 02ad 0000 0000 		.long	.LASF71
 1220 02b1 37        		.sleb128 55
 1221 02b2 11        		.uleb128 0x11
 1222 02b3 0000 0000 		.long	.LASF72
 1223 02b7 38        		.sleb128 56
 1224 02b8 11        		.uleb128 0x11
 1225 02b9 0000 0000 		.long	.LASF73
 1226 02bd 39        		.sleb128 57
 1227 02be 11        		.uleb128 0x11
 1228 02bf 0000 0000 		.long	.LASF74
 1229 02c3 3A        		.sleb128 58
 1230 02c4 11        		.uleb128 0x11
 1231 02c5 0000 0000 		.long	.LASF75
 1232 02c9 3B        		.sleb128 59
 1233 02ca 11        		.uleb128 0x11
 1234 02cb 0000 0000 		.long	.LASF76
 1235 02cf 3C        		.sleb128 60
 1236 02d0 11        		.uleb128 0x11
 1237 02d1 0000 0000 		.long	.LASF77
 1238 02d5 3D        		.sleb128 61
 1239 02d6 11        		.uleb128 0x11
 1240 02d7 0000 0000 		.long	.LASF78
GAS LISTING C:\Users\ADMINI~1\AppData\Local\Temp/ccSxsHok.s 			page 23


 1241 02db 3E        		.sleb128 62
 1242 02dc 11        		.uleb128 0x11
 1243 02dd 0000 0000 		.long	.LASF79
 1244 02e1 3F        		.sleb128 63
 1245 02e2 11        		.uleb128 0x11
 1246 02e3 0000 0000 		.long	.LASF80
 1247 02e7 C000      		.sleb128 64
 1248 02e9 11        		.uleb128 0x11
 1249 02ea 0000 0000 		.long	.LASF81
 1250 02ee C100      		.sleb128 65
 1251 02f0 11        		.uleb128 0x11
 1252 02f1 0000 0000 		.long	.LASF82
 1253 02f5 C200      		.sleb128 66
 1254 02f7 11        		.uleb128 0x11
 1255 02f8 0000 0000 		.long	.LASF83
 1256 02fc C300      		.sleb128 67
 1257 02fe 11        		.uleb128 0x11
 1258 02ff 0000 0000 		.long	.LASF84
 1259 0303 C400      		.sleb128 68
 1260 0305 11        		.uleb128 0x11
 1261 0306 0000 0000 		.long	.LASF85
 1262 030a C500      		.sleb128 69
 1263 030c 11        		.uleb128 0x11
 1264 030d 0000 0000 		.long	.LASF86
 1265 0311 C600      		.sleb128 70
 1266 0313 11        		.uleb128 0x11
 1267 0314 0000 0000 		.long	.LASF87
 1268 0318 C700      		.sleb128 71
 1269 031a 11        		.uleb128 0x11
 1270 031b 0000 0000 		.long	.LASF88
 1271 031f C800      		.sleb128 72
 1272 0321 11        		.uleb128 0x11
 1273 0322 0000 0000 		.long	.LASF89
 1274 0326 C900      		.sleb128 73
 1275 0328 11        		.uleb128 0x11
 1276 0329 0000 0000 		.long	.LASF90
 1277 032d CA00      		.sleb128 74
 1278 032f 11        		.uleb128 0x11
 1279 0330 0000 0000 		.long	.LASF91
 1280 0334 CB00      		.sleb128 75
 1281 0336 11        		.uleb128 0x11
 1282 0337 0000 0000 		.long	.LASF92
 1283 033b CC00      		.sleb128 76
 1284 033d 11        		.uleb128 0x11
 1285 033e 0000 0000 		.long	.LASF93
 1286 0342 CD00      		.sleb128 77
 1287 0344 11        		.uleb128 0x11
 1288 0345 0000 0000 		.long	.LASF94
 1289 0349 CE00      		.sleb128 78
 1290 034b 11        		.uleb128 0x11
 1291 034c 0000 0000 		.long	.LASF95
 1292 0350 CF00      		.sleb128 79
 1293 0352 11        		.uleb128 0x11
 1294 0353 0000 0000 		.long	.LASF96
 1295 0357 D000      		.sleb128 80
 1296 0359 11        		.uleb128 0x11
 1297 035a 0000 0000 		.long	.LASF97
GAS LISTING C:\Users\ADMINI~1\AppData\Local\Temp/ccSxsHok.s 			page 24


 1298 035e D100      		.sleb128 81
 1299 0360 11        		.uleb128 0x11
 1300 0361 0000 0000 		.long	.LASF98
 1301 0365 D200      		.sleb128 82
 1302 0367 11        		.uleb128 0x11
 1303 0368 0000 0000 		.long	.LASF99
 1304 036c D300      		.sleb128 83
 1305 036e 11        		.uleb128 0x11
 1306 036f 0000 0000 		.long	.LASF100
 1307 0373 D400      		.sleb128 84
 1308 0375 11        		.uleb128 0x11
 1309 0376 0000 0000 		.long	.LASF101
 1310 037a D500      		.sleb128 85
 1311 037c 11        		.uleb128 0x11
 1312 037d 0000 0000 		.long	.LASF102
 1313 0381 D600      		.sleb128 86
 1314 0383 11        		.uleb128 0x11
 1315 0384 0000 0000 		.long	.LASF103
 1316 0388 D700      		.sleb128 87
 1317 038a 11        		.uleb128 0x11
 1318 038b 0000 0000 		.long	.LASF104
 1319 038f D800      		.sleb128 88
 1320 0391 11        		.uleb128 0x11
 1321 0392 0000 0000 		.long	.LASF105
 1322 0396 D900      		.sleb128 89
 1323 0398 11        		.uleb128 0x11
 1324 0399 0000 0000 		.long	.LASF106
 1325 039d DA00      		.sleb128 90
 1326 039f 11        		.uleb128 0x11
 1327 03a0 0000 0000 		.long	.LASF107
 1328 03a4 DB00      		.sleb128 91
 1329 03a6 11        		.uleb128 0x11
 1330 03a7 0000 0000 		.long	.LASF108
 1331 03ab DC00      		.sleb128 92
 1332 03ad 11        		.uleb128 0x11
 1333 03ae 0000 0000 		.long	.LASF109
 1334 03b2 DD00      		.sleb128 93
 1335 03b4 11        		.uleb128 0x11
 1336 03b5 0000 0000 		.long	.LASF110
 1337 03b9 DE00      		.sleb128 94
 1338 03bb 11        		.uleb128 0x11
 1339 03bc 0000 0000 		.long	.LASF111
 1340 03c0 DF00      		.sleb128 95
 1341 03c2 11        		.uleb128 0x11
 1342 03c3 0000 0000 		.long	.LASF112
 1343 03c7 E000      		.sleb128 96
 1344 03c9 11        		.uleb128 0x11
 1345 03ca 0000 0000 		.long	.LASF113
 1346 03ce E100      		.sleb128 97
 1347 03d0 11        		.uleb128 0x11
 1348 03d1 0000 0000 		.long	.LASF114
 1349 03d5 E200      		.sleb128 98
 1350 03d7 11        		.uleb128 0x11
 1351 03d8 0000 0000 		.long	.LASF115
 1352 03dc E300      		.sleb128 99
 1353 03de 11        		.uleb128 0x11
 1354 03df 0000 0000 		.long	.LASF116
GAS LISTING C:\Users\ADMINI~1\AppData\Local\Temp/ccSxsHok.s 			page 25


 1355 03e3 E400      		.sleb128 100
 1356 03e5 11        		.uleb128 0x11
 1357 03e6 0000 0000 		.long	.LASF117
 1358 03ea E500      		.sleb128 101
 1359 03ec 11        		.uleb128 0x11
 1360 03ed 0000 0000 		.long	.LASF118
 1361 03f1 E600      		.sleb128 102
 1362 03f3 11        		.uleb128 0x11
 1363 03f4 0000 0000 		.long	.LASF119
 1364 03f8 E700      		.sleb128 103
 1365 03fa 11        		.uleb128 0x11
 1366 03fb 0000 0000 		.long	.LASF120
 1367 03ff E800      		.sleb128 104
 1368 0401 11        		.uleb128 0x11
 1369 0402 0000 0000 		.long	.LASF121
 1370 0406 E900      		.sleb128 105
 1371 0408 11        		.uleb128 0x11
 1372 0409 0000 0000 		.long	.LASF122
 1373 040d EA00      		.sleb128 106
 1374 040f 11        		.uleb128 0x11
 1375 0410 0000 0000 		.long	.LASF123
 1376 0414 EB00      		.sleb128 107
 1377 0416 11        		.uleb128 0x11
 1378 0417 0000 0000 		.long	.LASF124
 1379 041b EC00      		.sleb128 108
 1380 041d 11        		.uleb128 0x11
 1381 041e 0000 0000 		.long	.LASF125
 1382 0422 ED00      		.sleb128 109
 1383 0424 11        		.uleb128 0x11
 1384 0425 0000 0000 		.long	.LASF126
 1385 0429 EE00      		.sleb128 110
 1386 042b 11        		.uleb128 0x11
 1387 042c 0000 0000 		.long	.LASF127
 1388 0430 EF00      		.sleb128 111
 1389 0432 11        		.uleb128 0x11
 1390 0433 0000 0000 		.long	.LASF128
 1391 0437 F000      		.sleb128 112
 1392 0439 11        		.uleb128 0x11
 1393 043a 0000 0000 		.long	.LASF129
 1394 043e F100      		.sleb128 113
 1395 0440 11        		.uleb128 0x11
 1396 0441 0000 0000 		.long	.LASF130
 1397 0445 F200      		.sleb128 114
 1398 0447 11        		.uleb128 0x11
 1399 0448 0000 0000 		.long	.LASF131
 1400 044c F300      		.sleb128 115
 1401 044e 11        		.uleb128 0x11
 1402 044f 0000 0000 		.long	.LASF132
 1403 0453 F400      		.sleb128 116
 1404 0455 11        		.uleb128 0x11
 1405 0456 0000 0000 		.long	.LASF133
 1406 045a F500      		.sleb128 117
 1407 045c 11        		.uleb128 0x11
 1408 045d 0000 0000 		.long	.LASF134
 1409 0461 F600      		.sleb128 118
 1410 0463 11        		.uleb128 0x11
 1411 0464 0000 0000 		.long	.LASF135
GAS LISTING C:\Users\ADMINI~1\AppData\Local\Temp/ccSxsHok.s 			page 26


 1412 0468 F700      		.sleb128 119
 1413 046a 11        		.uleb128 0x11
 1414 046b 0000 0000 		.long	.LASF136
 1415 046f F800      		.sleb128 120
 1416 0471 11        		.uleb128 0x11
 1417 0472 0000 0000 		.long	.LASF137
 1418 0476 F900      		.sleb128 121
 1419 0478 11        		.uleb128 0x11
 1420 0479 0000 0000 		.long	.LASF138
 1421 047d FA00      		.sleb128 122
 1422 047f 11        		.uleb128 0x11
 1423 0480 0000 0000 		.long	.LASF139
 1424 0484 FB00      		.sleb128 123
 1425 0486 11        		.uleb128 0x11
 1426 0487 0000 0000 		.long	.LASF140
 1427 048b FC00      		.sleb128 124
 1428 048d 11        		.uleb128 0x11
 1429 048e 0000 0000 		.long	.LASF141
 1430 0492 FD00      		.sleb128 125
 1431 0494 11        		.uleb128 0x11
 1432 0495 0000 0000 		.long	.LASF142
 1433 0499 FE00      		.sleb128 126
 1434 049b 11        		.uleb128 0x11
 1435 049c 0000 0000 		.long	.LASF143
 1436 04a0 FF00      		.sleb128 127
 1437 04a2 11        		.uleb128 0x11
 1438 04a3 0000 0000 		.long	.LASF144
 1439 04a7 8001      		.sleb128 128
 1440 04a9 11        		.uleb128 0x11
 1441 04aa 0000 0000 		.long	.LASF145
 1442 04ae 8101      		.sleb128 129
 1443 04b0 11        		.uleb128 0x11
 1444 04b1 0000 0000 		.long	.LASF146
 1445 04b5 8201      		.sleb128 130
 1446 04b7 11        		.uleb128 0x11
 1447 04b8 0000 0000 		.long	.LASF147
 1448 04bc 8301      		.sleb128 131
 1449 04be 11        		.uleb128 0x11
 1450 04bf 0000 0000 		.long	.LASF148
 1451 04c3 8401      		.sleb128 132
 1452 04c5 11        		.uleb128 0x11
 1453 04c6 0000 0000 		.long	.LASF149
 1454 04ca 8501      		.sleb128 133
 1455 04cc 11        		.uleb128 0x11
 1456 04cd 0000 0000 		.long	.LASF150
 1457 04d1 8601      		.sleb128 134
 1458 04d3 11        		.uleb128 0x11
 1459 04d4 0000 0000 		.long	.LASF151
 1460 04d8 8701      		.sleb128 135
 1461 04da 11        		.uleb128 0x11
 1462 04db 0000 0000 		.long	.LASF152
 1463 04df 8801      		.sleb128 136
 1464 04e1 11        		.uleb128 0x11
 1465 04e2 0000 0000 		.long	.LASF153
 1466 04e6 8901      		.sleb128 137
 1467 04e8 11        		.uleb128 0x11
 1468 04e9 0000 0000 		.long	.LASF154
GAS LISTING C:\Users\ADMINI~1\AppData\Local\Temp/ccSxsHok.s 			page 27


 1469 04ed 8A01      		.sleb128 138
 1470 04ef 11        		.uleb128 0x11
 1471 04f0 0000 0000 		.long	.LASF155
 1472 04f4 8B01      		.sleb128 139
 1473 04f6 11        		.uleb128 0x11
 1474 04f7 0000 0000 		.long	.LASF156
 1475 04fb 8C01      		.sleb128 140
 1476 04fd 11        		.uleb128 0x11
 1477 04fe 0000 0000 		.long	.LASF157
 1478 0502 8D01      		.sleb128 141
 1479 0504 11        		.uleb128 0x11
 1480 0505 0000 0000 		.long	.LASF158
 1481 0509 8E01      		.sleb128 142
 1482 050b 11        		.uleb128 0x11
 1483 050c 0000 0000 		.long	.LASF159
 1484 0510 8F01      		.sleb128 143
 1485 0512 11        		.uleb128 0x11
 1486 0513 0000 0000 		.long	.LASF160
 1487 0517 9001      		.sleb128 144
 1488 0519 11        		.uleb128 0x11
 1489 051a 0000 0000 		.long	.LASF161
 1490 051e 9101      		.sleb128 145
 1491 0520 11        		.uleb128 0x11
 1492 0521 0000 0000 		.long	.LASF162
 1493 0525 9201      		.sleb128 146
 1494 0527 11        		.uleb128 0x11
 1495 0528 0000 0000 		.long	.LASF163
 1496 052c 9301      		.sleb128 147
 1497 052e 11        		.uleb128 0x11
 1498 052f 0000 0000 		.long	.LASF164
 1499 0533 9401      		.sleb128 148
 1500 0535 11        		.uleb128 0x11
 1501 0536 0000 0000 		.long	.LASF165
 1502 053a 9501      		.sleb128 149
 1503 053c 11        		.uleb128 0x11
 1504 053d 0000 0000 		.long	.LASF166
 1505 0541 9601      		.sleb128 150
 1506 0543 11        		.uleb128 0x11
 1507 0544 0000 0000 		.long	.LASF167
 1508 0548 9701      		.sleb128 151
 1509 054a 11        		.uleb128 0x11
 1510 054b 0000 0000 		.long	.LASF168
 1511 054f 9801      		.sleb128 152
 1512 0551 11        		.uleb128 0x11
 1513 0552 0000 0000 		.long	.LASF169
 1514 0556 9901      		.sleb128 153
 1515 0558 11        		.uleb128 0x11
 1516 0559 0000 0000 		.long	.LASF170
 1517 055d 9A01      		.sleb128 154
 1518 055f 11        		.uleb128 0x11
 1519 0560 0000 0000 		.long	.LASF171
 1520 0564 9B01      		.sleb128 155
 1521 0566 11        		.uleb128 0x11
 1522 0567 0000 0000 		.long	.LASF172
 1523 056b 9C01      		.sleb128 156
 1524 056d 11        		.uleb128 0x11
 1525 056e 0000 0000 		.long	.LASF173
GAS LISTING C:\Users\ADMINI~1\AppData\Local\Temp/ccSxsHok.s 			page 28


 1526 0572 9D01      		.sleb128 157
 1527 0574 11        		.uleb128 0x11
 1528 0575 0000 0000 		.long	.LASF174
 1529 0579 9E01      		.sleb128 158
 1530 057b 11        		.uleb128 0x11
 1531 057c 0000 0000 		.long	.LASF175
 1532 0580 9F01      		.sleb128 159
 1533 0582 11        		.uleb128 0x11
 1534 0583 0000 0000 		.long	.LASF176
 1535 0587 A001      		.sleb128 160
 1536 0589 11        		.uleb128 0x11
 1537 058a 0000 0000 		.long	.LASF177
 1538 058e A101      		.sleb128 161
 1539 0590 11        		.uleb128 0x11
 1540 0591 0000 0000 		.long	.LASF178
 1541 0595 A201      		.sleb128 162
 1542 0597 11        		.uleb128 0x11
 1543 0598 0000 0000 		.long	.LASF179
 1544 059c A301      		.sleb128 163
 1545 059e 11        		.uleb128 0x11
 1546 059f 0000 0000 		.long	.LASF180
 1547 05a3 A401      		.sleb128 164
 1548 05a5 11        		.uleb128 0x11
 1549 05a6 0000 0000 		.long	.LASF181
 1550 05aa A501      		.sleb128 165
 1551 05ac 11        		.uleb128 0x11
 1552 05ad 0000 0000 		.long	.LASF182
 1553 05b1 A601      		.sleb128 166
 1554 05b3 11        		.uleb128 0x11
 1555 05b4 0000 0000 		.long	.LASF183
 1556 05b8 A701      		.sleb128 167
 1557 05ba 11        		.uleb128 0x11
 1558 05bb 0000 0000 		.long	.LASF184
 1559 05bf A801      		.sleb128 168
 1560 05c1 11        		.uleb128 0x11
 1561 05c2 0000 0000 		.long	.LASF185
 1562 05c6 A901      		.sleb128 169
 1563 05c8 11        		.uleb128 0x11
 1564 05c9 0000 0000 		.long	.LASF186
 1565 05cd AA01      		.sleb128 170
 1566 05cf 11        		.uleb128 0x11
 1567 05d0 0000 0000 		.long	.LASF187
 1568 05d4 AB01      		.sleb128 171
 1569 05d6 11        		.uleb128 0x11
 1570 05d7 0000 0000 		.long	.LASF188
 1571 05db AC01      		.sleb128 172
 1572 05dd 11        		.uleb128 0x11
 1573 05de 0000 0000 		.long	.LASF189
 1574 05e2 AD01      		.sleb128 173
 1575 05e4 11        		.uleb128 0x11
 1576 05e5 0000 0000 		.long	.LASF190
 1577 05e9 AE01      		.sleb128 174
 1578 05eb 11        		.uleb128 0x11
 1579 05ec 0000 0000 		.long	.LASF191
 1580 05f0 AF01      		.sleb128 175
 1581 05f2 00        		.byte	0x0
 1582 05f3 12        		.uleb128 0x12
GAS LISTING C:\Users\ADMINI~1\AppData\Local\Temp/ccSxsHok.s 			page 29


 1583 05f4 0000 0000 		.long	.LASF194
 1584 05f8 03        		.byte	0x3
 1585 05f9 68        		.byte	0x68
 1586 05fa 01        		.byte	0x1
 1587 05fb 03        		.byte	0x3
 1588 05fc 0C06 0000 		.long	0x60c
 1589 0600 13        		.uleb128 0x13
 1590 0601 0000 0000 		.long	.LASF196
 1591 0605 03        		.byte	0x3
 1592 0606 67        		.byte	0x67
 1593 0607 8800 0000 		.long	0x88
 1594 060b 00        		.byte	0x0
 1595 060c 14        		.uleb128 0x14
 1596 060d 01        		.byte	0x1
 1597 060e 0000 0000 		.long	.LASF192
 1598 0612 02        		.byte	0x2
 1599 0613 2D        		.byte	0x2d
 1600 0614 01        		.byte	0x1
 1601 0615 01        		.byte	0x1
 1602 0616 14        		.uleb128 0x14
 1603 0617 01        		.byte	0x1
 1604 0618 0000 0000 		.long	.LASF193
 1605 061c 02        		.byte	0x2
 1606 061d 33        		.byte	0x33
 1607 061e 01        		.byte	0x1
 1608 061f 01        		.byte	0x1
 1609 0620 15        		.uleb128 0x15
 1610 0621 0000 0000 		.long	.LASF219
 1611 0625 01        		.byte	0x1
 1612 0626 27        		.byte	0x27
 1613 0627 01        		.byte	0x1
 1614 0628 01        		.byte	0x1
 1615 0629 12        		.uleb128 0x12
 1616 062a 0000 0000 		.long	.LASF195
 1617 062e 04        		.byte	0x4
 1618 062f 6F        		.byte	0x6f
 1619 0630 01        		.byte	0x1
 1620 0631 03        		.byte	0x3
 1621 0632 5A06 0000 		.long	0x65a
 1622 0636 13        		.uleb128 0x13
 1623 0637 0000 0000 		.long	.LASF197
 1624 063b 04        		.byte	0x4
 1625 063c 6E        		.byte	0x6e
 1626 063d 5A06 0000 		.long	0x65a
 1627 0641 16        		.uleb128 0x16
 1628 0642 0000 0000 		.long	.LASF198
 1629 0646 04        		.byte	0x4
 1630 0647 70        		.byte	0x70
 1631 0648 8800 0000 		.long	0x88
 1632 064c 16        		.uleb128 0x16
 1633 064d 0000 0000 		.long	.LASF199
 1634 0651 04        		.byte	0x4
 1635 0652 71        		.byte	0x71
 1636 0653 5A06 0000 		.long	0x65a
 1637 0657 17        		.uleb128 0x17
 1638 0658 17        		.uleb128 0x17
 1639 0659 00        		.byte	0x0
GAS LISTING C:\Users\ADMINI~1\AppData\Local\Temp/ccSxsHok.s 			page 30


 1640 065a 03        		.uleb128 0x3
 1641 065b 04        		.byte	0x4
 1642 065c 04        		.byte	0x4
 1643 065d 0000 0000 		.long	.LASF200
 1644 0661 18        		.uleb128 0x18
 1645 0662 0000 0000 		.long	.LASF220
 1646 0666 01        		.byte	0x1
 1647 0667 17        		.byte	0x17
 1648 0668 01        		.byte	0x1
 1649 0669 7600 0000 		.long	0x76
 1650 066d 0000 0000 		.long	.LFB3
 1651 0671 0000 0000 		.long	.LFE3
 1652 0675 02        		.byte	0x2
 1653 0676 90        		.byte	0x90
 1654 0677 20        		.uleb128 0x20
 1655 0678 9906 0000 		.long	0x699
 1656 067c 19        		.uleb128 0x19
 1657 067d 6300      		.string	"c"
 1658 067f 01        		.byte	0x1
 1659 0680 16        		.byte	0x16
 1660 0681 6F00 0000 		.long	0x6f
 1661 0685 0000 0000 		.long	.LLST1
 1662 0689 1A        		.uleb128 0x1a
 1663 068a 0000 0000 		.long	.LASF201
 1664 068e 01        		.byte	0x1
 1665 068f 16        		.byte	0x16
 1666 0690 3001 0000 		.long	0x130
 1667 0694 0000 0000 		.long	.LLST2
 1668 0698 00        		.byte	0x0
 1669 0699 1B        		.uleb128 0x1b
 1670 069a 0C06 0000 		.long	0x60c
 1671 069e 0000 0000 		.long	.LFB9
 1672 06a2 0000 0000 		.long	.LFE9
 1673 06a6 02        		.byte	0x2
 1674 06a7 90        		.byte	0x90
 1675 06a8 20        		.uleb128 0x20
 1676 06a9 1B        		.uleb128 0x1b
 1677 06aa 1606 0000 		.long	0x616
 1678 06ae 0000 0000 		.long	.LFB10
 1679 06b2 0000 0000 		.long	.LFE10
 1680 06b6 02        		.byte	0x2
 1681 06b7 90        		.byte	0x90
 1682 06b8 20        		.uleb128 0x20
 1683 06b9 1C        		.uleb128 0x1c
 1684 06ba 01        		.byte	0x1
 1685 06bb 0000 0000 		.long	.LASF221
 1686 06bf 02        		.byte	0x2
 1687 06c0 41        		.byte	0x41
 1688 06c1 01        		.byte	0x1
 1689 06c2 0000 0000 		.long	.LFB12
 1690 06c6 0000 0000 		.long	.LFE12
 1691 06ca 02        		.byte	0x2
 1692 06cb 90        		.byte	0x90
 1693 06cc 20        		.uleb128 0x20
 1694 06cd E106 0000 		.long	0x6e1
 1695 06d1 1D        		.uleb128 0x1d
 1696 06d2 0000 0000 		.long	.LASF203
GAS LISTING C:\Users\ADMINI~1\AppData\Local\Temp/ccSxsHok.s 			page 31


 1697 06d6 02        		.byte	0x2
 1698 06d7 44        		.byte	0x44
 1699 06d8 2500 0000 		.long	0x25
 1700 06dc 0000 0000 		.long	.LLST6
 1701 06e0 00        		.byte	0x0
 1702 06e1 1E        		.uleb128 0x1e
 1703 06e2 0000 0000 		.long	.LASF222
 1704 06e6 02        		.byte	0x2
 1705 06e7 58        		.byte	0x58
 1706 06e8 01        		.byte	0x1
 1707 06e9 0000 0000 		.long	.LFB13
 1708 06ed 0000 0000 		.long	.LFE13
 1709 06f1 02        		.byte	0x2
 1710 06f2 90        		.byte	0x90
 1711 06f3 20        		.uleb128 0x20
 1712 06f4 2607 0000 		.long	0x726
 1713 06f8 1A        		.uleb128 0x1a
 1714 06f9 0000 0000 		.long	.LASF202
 1715 06fd 02        		.byte	0x2
 1716 06fe 58        		.byte	0x58
 1717 06ff 7D00 0000 		.long	0x7d
 1718 0703 0000 0000 		.long	.LLST8
 1719 0707 1F        		.uleb128 0x1f
 1720 0708 0C06 0000 		.long	0x60c
 1721 070c 0000 0000 		.long	.LBB18
 1722 0710 0000 0000 		.long	.LBE18
 1723 0714 02        		.byte	0x2
 1724 0715 8A        		.byte	0x8a
 1725 0716 1F        		.uleb128 0x1f
 1726 0717 1606 0000 		.long	0x616
 1727 071b 0000 0000 		.long	.LBB20
 1728 071f 0000 0000 		.long	.LBE20
 1729 0723 02        		.byte	0x2
 1730 0724 8C        		.byte	0x8c
 1731 0725 00        		.byte	0x0
 1732 0726 20        		.uleb128 0x20
 1733 0727 01        		.byte	0x1
 1734 0728 0000 0000 		.long	.LASF223
 1735 072c 02        		.byte	0x2
 1736 072d 3A        		.byte	0x3a
 1737 072e 01        		.byte	0x1
 1738 072f 0000 0000 		.long	.LFB11
 1739 0733 0000 0000 		.long	.LFE11
 1740 0737 02        		.byte	0x2
 1741 0738 90        		.byte	0x90
 1742 0739 20        		.uleb128 0x20
 1743 073a 21        		.uleb128 0x21
 1744 073b 01        		.byte	0x1
 1745 073c 0000 0000 		.long	.LASF224
 1746 0740 02        		.byte	0x2
 1747 0741 90        		.byte	0x90
 1748 0742 01        		.byte	0x1
 1749 0743 7600 0000 		.long	0x76
 1750 0747 0000 0000 		.long	.LFB14
 1751 074b 0000 0000 		.long	.LFE14
 1752 074f 02        		.byte	0x2
 1753 0750 90        		.byte	0x90
GAS LISTING C:\Users\ADMINI~1\AppData\Local\Temp/ccSxsHok.s 			page 32


 1754 0751 20        		.uleb128 0x20
 1755 0752 2108 0000 		.long	0x821
 1756 0756 22        		.uleb128 0x22
 1757 0757 0000 0000 		.long	.LASF204
 1758 075b 02        		.byte	0x2
 1759 075c 95        		.byte	0x95
 1760 075d 7D00 0000 		.long	0x7d
 1761 0761 01        		.byte	0x1
 1762 0762 5F        		.byte	0x5f
 1763 0763 22        		.uleb128 0x22
 1764 0764 0000 0000 		.long	.LASF205
 1765 0768 02        		.byte	0x2
 1766 0769 A5        		.byte	0xa5
 1767 076a 7D00 0000 		.long	0x7d
 1768 076e 01        		.byte	0x1
 1769 076f 61        		.byte	0x61
 1770 0770 23        		.uleb128 0x23
 1771 0771 726F 7700 		.string	"row"
 1772 0775 02        		.byte	0x2
 1773 0776 AE        		.byte	0xae
 1774 0777 7D00 0000 		.long	0x7d
 1775 077b 0000 0000 		.long	.LLST11
 1776 077f 24        		.uleb128 0x24
 1777 0780 636F 6C00 		.string	"col"
 1778 0784 02        		.byte	0x2
 1779 0785 AE        		.byte	0xae
 1780 0786 7D00 0000 		.long	0x7d
 1781 078a 01        		.byte	0x1
 1782 078b 5E        		.byte	0x5e
 1783 078c 25        		.uleb128 0x25
 1784 078d 6375 7200 		.string	"cur"
 1785 0791 02        		.byte	0x2
 1786 0792 AE        		.byte	0xae
 1787 0793 7D00 0000 		.long	0x7d
 1788 0797 1D        		.uleb128 0x1d
 1789 0798 0000 0000 		.long	.LASF206
 1790 079c 02        		.byte	0x2
 1791 079d AE        		.byte	0xae
 1792 079e 7D00 0000 		.long	0x7d
 1793 07a2 0000 0000 		.long	.LLST12
 1794 07a6 22        		.uleb128 0x22
 1795 07a7 0000 0000 		.long	.LASF207
 1796 07ab 02        		.byte	0x2
 1797 07ac B0        		.byte	0xb0
 1798 07ad 2108 0000 		.long	0x821
 1799 07b1 06        		.byte	0x6
 1800 07b2 5C        		.byte	0x5c
 1801 07b3 93        		.byte	0x93
 1802 07b4 01        		.uleb128 0x1
 1803 07b5 5D        		.byte	0x5d
 1804 07b6 93        		.byte	0x93
 1805 07b7 01        		.uleb128 0x1
 1806 07b8 1D        		.uleb128 0x1d
 1807 07b9 0000 0000 		.long	.LASF208
 1808 07bd 02        		.byte	0x2
 1809 07be E6        		.byte	0xe6
 1810 07bf 7D00 0000 		.long	0x7d
GAS LISTING C:\Users\ADMINI~1\AppData\Local\Temp/ccSxsHok.s 			page 33


 1811 07c3 0000 0000 		.long	.LLST13
 1812 07c7 1D        		.uleb128 0x1d
 1813 07c8 0000 0000 		.long	.LASF209
 1814 07cc 02        		.byte	0x2
 1815 07cd E7        		.byte	0xe7
 1816 07ce 7D00 0000 		.long	0x7d
 1817 07d2 0000 0000 		.long	.LLST14
 1818 07d6 1F        		.uleb128 0x1f
 1819 07d7 2006 0000 		.long	0x620
 1820 07db 0000 0000 		.long	.LBB22
 1821 07df 0000 0000 		.long	.LBE22
 1822 07e3 02        		.byte	0x2
 1823 07e4 92        		.byte	0x92
 1824 07e5 26        		.uleb128 0x26
 1825 07e6 2906 0000 		.long	0x629
 1826 07ea 0000 0000 		.long	.Ldebug_ranges0+0x0
 1827 07ee 02        		.byte	0x2
 1828 07ef 1E01      		.word	0x11e
 1829 07f1 27        		.uleb128 0x27
 1830 07f2 3606 0000 		.long	0x636
 1831 07f6 28        		.uleb128 0x28
 1832 07f7 0000 0000 		.long	.Ldebug_ranges0+0x18
 1833 07fb 29        		.uleb128 0x29
 1834 07fc 4106 0000 		.long	0x641
 1835 0800 0000 0000 		.long	.LLST15
 1836 0804 2A        		.uleb128 0x2a
 1837 0805 4C06 0000 		.long	0x64c
 1838 0809 2B        		.uleb128 0x2b
 1839 080a F305 0000 		.long	0x5f3
 1840 080e 0000 0000 		.long	.Ldebug_ranges0+0x30
 1841 0812 04        		.byte	0x4
 1842 0813 7B        		.byte	0x7b
 1843 0814 2C        		.uleb128 0x2c
 1844 0815 0006 0000 		.long	0x600
 1845 0819 0000 0000 		.long	.LLST16
 1846 081d 00        		.byte	0x0
 1847 081e 00        		.byte	0x0
 1848 081f 00        		.byte	0x0
 1849 0820 00        		.byte	0x0
 1850 0821 0B        		.uleb128 0xb
 1851 0822 02        		.byte	0x2
 1852 0823 7D00 0000 		.long	0x7d
 1853 0827 22        		.uleb128 0x22
 1854 0828 0000 0000 		.long	.LASF210
 1855 082c 01        		.byte	0x1
 1856 082d 1F        		.byte	0x1f
 1857 082e 9300 0000 		.long	0x93
 1858 0832 05        		.byte	0x5
 1859 0833 03        		.byte	0x3
 1860 0834 0000 0000 		.long	mystdout
 1861 0838 2D        		.uleb128 0x2d
 1862 0839 3001 0000 		.long	0x130
 1863 083d 4308 0000 		.long	0x843
 1864 0841 2E        		.uleb128 0x2e
 1865 0842 00        		.byte	0x0
 1866 0843 2F        		.uleb128 0x2f
 1867 0844 0000 0000 		.long	.LASF211
GAS LISTING C:\Users\ADMINI~1\AppData\Local\Temp/ccSxsHok.s 			page 34


 1868 0848 06        		.byte	0x6
 1869 0849 9501      		.word	0x195
 1870 084b 3808 0000 		.long	0x838
 1871 084f 01        		.byte	0x1
 1872 0850 01        		.byte	0x1
 1873 0851 30        		.uleb128 0x30
 1874 0852 0000 0000 		.long	.LASF212
 1875 0856 02        		.byte	0x2
 1876 0857 28        		.byte	0x28
 1877 0858 7600 0000 		.long	0x76
 1878 085c 01        		.byte	0x1
 1879 085d 05        		.byte	0x5
 1880 085e 03        		.byte	0x3
 1881 085f 0000 0000 		.long	interfaceCount
 1882 0863 30        		.uleb128 0x30
 1883 0864 0000 0000 		.long	.LASF213
 1884 0868 02        		.byte	0x2
 1885 0869 29        		.byte	0x29
 1886 086a 7D00 0000 		.long	0x7d
 1887 086e 01        		.byte	0x1
 1888 086f 05        		.byte	0x5
 1889 0870 03        		.byte	0x3
 1890 0871 0000 0000 		.long	interfaceReady
 1891 0875 30        		.uleb128 0x30
 1892 0876 0000 0000 		.long	.LASF214
 1893 087a 02        		.byte	0x2
 1894 087b 2A        		.byte	0x2a
 1895 087c 7D00 0000 		.long	0x7d
 1896 0880 01        		.byte	0x1
 1897 0881 05        		.byte	0x5
 1898 0882 03        		.byte	0x3
 1899 0883 0000 0000 		.long	INTERFACE
 1900 0887 00        		.byte	0x0
 1901               		.section	.debug_abbrev
 1902 0000 01        		.uleb128 0x1
 1903 0001 11        		.uleb128 0x11
 1904 0002 01        		.byte	0x1
 1905 0003 25        		.uleb128 0x25
 1906 0004 0E        		.uleb128 0xe
 1907 0005 13        		.uleb128 0x13
 1908 0006 0B        		.uleb128 0xb
 1909 0007 03        		.uleb128 0x3
 1910 0008 0E        		.uleb128 0xe
 1911 0009 1B        		.uleb128 0x1b
 1912 000a 0E        		.uleb128 0xe
 1913 000b 11        		.uleb128 0x11
 1914 000c 01        		.uleb128 0x1
 1915 000d 12        		.uleb128 0x12
 1916 000e 01        		.uleb128 0x1
 1917 000f 10        		.uleb128 0x10
 1918 0010 06        		.uleb128 0x6
 1919 0011 00        		.byte	0x0
 1920 0012 00        		.byte	0x0
 1921 0013 02        		.uleb128 0x2
 1922 0014 16        		.uleb128 0x16
 1923 0015 00        		.byte	0x0
 1924 0016 03        		.uleb128 0x3
GAS LISTING C:\Users\ADMINI~1\AppData\Local\Temp/ccSxsHok.s 			page 35


 1925 0017 08        		.uleb128 0x8
 1926 0018 3A        		.uleb128 0x3a
 1927 0019 0B        		.uleb128 0xb
 1928 001a 3B        		.uleb128 0x3b
 1929 001b 0B        		.uleb128 0xb
 1930 001c 49        		.uleb128 0x49
 1931 001d 13        		.uleb128 0x13
 1932 001e 00        		.byte	0x0
 1933 001f 00        		.byte	0x0
 1934 0020 03        		.uleb128 0x3
 1935 0021 24        		.uleb128 0x24
 1936 0022 00        		.byte	0x0
 1937 0023 0B        		.uleb128 0xb
 1938 0024 0B        		.uleb128 0xb
 1939 0025 3E        		.uleb128 0x3e
 1940 0026 0B        		.uleb128 0xb
 1941 0027 03        		.uleb128 0x3
 1942 0028 0E        		.uleb128 0xe
 1943 0029 00        		.byte	0x0
 1944 002a 00        		.byte	0x0
 1945 002b 04        		.uleb128 0x4
 1946 002c 24        		.uleb128 0x24
 1947 002d 00        		.byte	0x0
 1948 002e 0B        		.uleb128 0xb
 1949 002f 0B        		.uleb128 0xb
 1950 0030 3E        		.uleb128 0x3e
 1951 0031 0B        		.uleb128 0xb
 1952 0032 03        		.uleb128 0x3
 1953 0033 08        		.uleb128 0x8
 1954 0034 00        		.byte	0x0
 1955 0035 00        		.byte	0x0
 1956 0036 05        		.uleb128 0x5
 1957 0037 16        		.uleb128 0x16
 1958 0038 00        		.byte	0x0
 1959 0039 03        		.uleb128 0x3
 1960 003a 0E        		.uleb128 0xe
 1961 003b 3A        		.uleb128 0x3a
 1962 003c 0B        		.uleb128 0xb
 1963 003d 3B        		.uleb128 0x3b
 1964 003e 0B        		.uleb128 0xb
 1965 003f 49        		.uleb128 0x49
 1966 0040 13        		.uleb128 0x13
 1967 0041 00        		.byte	0x0
 1968 0042 00        		.byte	0x0
 1969 0043 06        		.uleb128 0x6
 1970 0044 13        		.uleb128 0x13
 1971 0045 01        		.byte	0x1
 1972 0046 03        		.uleb128 0x3
 1973 0047 0E        		.uleb128 0xe
 1974 0048 0B        		.uleb128 0xb
 1975 0049 0B        		.uleb128 0xb
 1976 004a 3A        		.uleb128 0x3a
 1977 004b 0B        		.uleb128 0xb
 1978 004c 3B        		.uleb128 0x3b
 1979 004d 0B        		.uleb128 0xb
 1980 004e 01        		.uleb128 0x1
 1981 004f 13        		.uleb128 0x13
GAS LISTING C:\Users\ADMINI~1\AppData\Local\Temp/ccSxsHok.s 			page 36


 1982 0050 00        		.byte	0x0
 1983 0051 00        		.byte	0x0
 1984 0052 07        		.uleb128 0x7
 1985 0053 0D        		.uleb128 0xd
 1986 0054 00        		.byte	0x0
 1987 0055 03        		.uleb128 0x3
 1988 0056 08        		.uleb128 0x8
 1989 0057 3A        		.uleb128 0x3a
 1990 0058 0B        		.uleb128 0xb
 1991 0059 3B        		.uleb128 0x3b
 1992 005a 0B        		.uleb128 0xb
 1993 005b 49        		.uleb128 0x49
 1994 005c 13        		.uleb128 0x13
 1995 005d 38        		.uleb128 0x38
 1996 005e 0A        		.uleb128 0xa
 1997 005f 00        		.byte	0x0
 1998 0060 00        		.byte	0x0
 1999 0061 08        		.uleb128 0x8
 2000 0062 0D        		.uleb128 0xd
 2001 0063 00        		.byte	0x0
 2002 0064 03        		.uleb128 0x3
 2003 0065 0E        		.uleb128 0xe
 2004 0066 3A        		.uleb128 0x3a
 2005 0067 0B        		.uleb128 0xb
 2006 0068 3B        		.uleb128 0x3b
 2007 0069 0B        		.uleb128 0xb
 2008 006a 49        		.uleb128 0x49
 2009 006b 13        		.uleb128 0x13
 2010 006c 38        		.uleb128 0x38
 2011 006d 0A        		.uleb128 0xa
 2012 006e 00        		.byte	0x0
 2013 006f 00        		.byte	0x0
 2014 0070 09        		.uleb128 0x9
 2015 0071 0D        		.uleb128 0xd
 2016 0072 00        		.byte	0x0
 2017 0073 03        		.uleb128 0x3
 2018 0074 0E        		.uleb128 0xe
 2019 0075 3A        		.uleb128 0x3a
 2020 0076 0B        		.uleb128 0xb
 2021 0077 3B        		.uleb128 0x3b
 2022 0078 05        		.uleb128 0x5
 2023 0079 49        		.uleb128 0x49
 2024 007a 13        		.uleb128 0x13
 2025 007b 38        		.uleb128 0x38
 2026 007c 0A        		.uleb128 0xa
 2027 007d 00        		.byte	0x0
 2028 007e 00        		.byte	0x0
 2029 007f 0A        		.uleb128 0xa
 2030 0080 0D        		.uleb128 0xd
 2031 0081 00        		.byte	0x0
 2032 0082 03        		.uleb128 0x3
 2033 0083 08        		.uleb128 0x8
 2034 0084 3A        		.uleb128 0x3a
 2035 0085 0B        		.uleb128 0xb
 2036 0086 3B        		.uleb128 0x3b
 2037 0087 05        		.uleb128 0x5
 2038 0088 49        		.uleb128 0x49
GAS LISTING C:\Users\ADMINI~1\AppData\Local\Temp/ccSxsHok.s 			page 37


 2039 0089 13        		.uleb128 0x13
 2040 008a 38        		.uleb128 0x38
 2041 008b 0A        		.uleb128 0xa
 2042 008c 00        		.byte	0x0
 2043 008d 00        		.byte	0x0
 2044 008e 0B        		.uleb128 0xb
 2045 008f 0F        		.uleb128 0xf
 2046 0090 00        		.byte	0x0
 2047 0091 0B        		.uleb128 0xb
 2048 0092 0B        		.uleb128 0xb
 2049 0093 49        		.uleb128 0x49
 2050 0094 13        		.uleb128 0x13
 2051 0095 00        		.byte	0x0
 2052 0096 00        		.byte	0x0
 2053 0097 0C        		.uleb128 0xc
 2054 0098 15        		.uleb128 0x15
 2055 0099 01        		.byte	0x1
 2056 009a 27        		.uleb128 0x27
 2057 009b 0C        		.uleb128 0xc
 2058 009c 49        		.uleb128 0x49
 2059 009d 13        		.uleb128 0x13
 2060 009e 01        		.uleb128 0x1
 2061 009f 13        		.uleb128 0x13
 2062 00a0 00        		.byte	0x0
 2063 00a1 00        		.byte	0x0
 2064 00a2 0D        		.uleb128 0xd
 2065 00a3 05        		.uleb128 0x5
 2066 00a4 00        		.byte	0x0
 2067 00a5 49        		.uleb128 0x49
 2068 00a6 13        		.uleb128 0x13
 2069 00a7 00        		.byte	0x0
 2070 00a8 00        		.byte	0x0
 2071 00a9 0E        		.uleb128 0xe
 2072 00aa 0F        		.uleb128 0xf
 2073 00ab 00        		.byte	0x0
 2074 00ac 0B        		.uleb128 0xb
 2075 00ad 0B        		.uleb128 0xb
 2076 00ae 00        		.byte	0x0
 2077 00af 00        		.byte	0x0
 2078 00b0 0F        		.uleb128 0xf
 2079 00b1 24        		.uleb128 0x24
 2080 00b2 00        		.byte	0x0
 2081 00b3 0B        		.uleb128 0xb
 2082 00b4 0B        		.uleb128 0xb
 2083 00b5 3E        		.uleb128 0x3e
 2084 00b6 0B        		.uleb128 0xb
 2085 00b7 00        		.byte	0x0
 2086 00b8 00        		.byte	0x0
 2087 00b9 10        		.uleb128 0x10
 2088 00ba 04        		.uleb128 0x4
 2089 00bb 01        		.byte	0x1
 2090 00bc 0B        		.uleb128 0xb
 2091 00bd 0B        		.uleb128 0xb
 2092 00be 3A        		.uleb128 0x3a
 2093 00bf 0B        		.uleb128 0xb
 2094 00c0 3B        		.uleb128 0x3b
 2095 00c1 0B        		.uleb128 0xb
GAS LISTING C:\Users\ADMINI~1\AppData\Local\Temp/ccSxsHok.s 			page 38


 2096 00c2 01        		.uleb128 0x1
 2097 00c3 13        		.uleb128 0x13
 2098 00c4 00        		.byte	0x0
 2099 00c5 00        		.byte	0x0
 2100 00c6 11        		.uleb128 0x11
 2101 00c7 28        		.uleb128 0x28
 2102 00c8 00        		.byte	0x0
 2103 00c9 03        		.uleb128 0x3
 2104 00ca 0E        		.uleb128 0xe
 2105 00cb 1C        		.uleb128 0x1c
 2106 00cc 0D        		.uleb128 0xd
 2107 00cd 00        		.byte	0x0
 2108 00ce 00        		.byte	0x0
 2109 00cf 12        		.uleb128 0x12
 2110 00d0 2E        		.uleb128 0x2e
 2111 00d1 01        		.byte	0x1
 2112 00d2 03        		.uleb128 0x3
 2113 00d3 0E        		.uleb128 0xe
 2114 00d4 3A        		.uleb128 0x3a
 2115 00d5 0B        		.uleb128 0xb
 2116 00d6 3B        		.uleb128 0x3b
 2117 00d7 0B        		.uleb128 0xb
 2118 00d8 27        		.uleb128 0x27
 2119 00d9 0C        		.uleb128 0xc
 2120 00da 20        		.uleb128 0x20
 2121 00db 0B        		.uleb128 0xb
 2122 00dc 01        		.uleb128 0x1
 2123 00dd 13        		.uleb128 0x13
 2124 00de 00        		.byte	0x0
 2125 00df 00        		.byte	0x0
 2126 00e0 13        		.uleb128 0x13
 2127 00e1 05        		.uleb128 0x5
 2128 00e2 00        		.byte	0x0
 2129 00e3 03        		.uleb128 0x3
 2130 00e4 0E        		.uleb128 0xe
 2131 00e5 3A        		.uleb128 0x3a
 2132 00e6 0B        		.uleb128 0xb
 2133 00e7 3B        		.uleb128 0x3b
 2134 00e8 0B        		.uleb128 0xb
 2135 00e9 49        		.uleb128 0x49
 2136 00ea 13        		.uleb128 0x13
 2137 00eb 00        		.byte	0x0
 2138 00ec 00        		.byte	0x0
 2139 00ed 14        		.uleb128 0x14
 2140 00ee 2E        		.uleb128 0x2e
 2141 00ef 00        		.byte	0x0
 2142 00f0 3F        		.uleb128 0x3f
 2143 00f1 0C        		.uleb128 0xc
 2144 00f2 03        		.uleb128 0x3
 2145 00f3 0E        		.uleb128 0xe
 2146 00f4 3A        		.uleb128 0x3a
 2147 00f5 0B        		.uleb128 0xb
 2148 00f6 3B        		.uleb128 0x3b
 2149 00f7 0B        		.uleb128 0xb
 2150 00f8 27        		.uleb128 0x27
 2151 00f9 0C        		.uleb128 0xc
 2152 00fa 20        		.uleb128 0x20
GAS LISTING C:\Users\ADMINI~1\AppData\Local\Temp/ccSxsHok.s 			page 39


 2153 00fb 0B        		.uleb128 0xb
 2154 00fc 00        		.byte	0x0
 2155 00fd 00        		.byte	0x0
 2156 00fe 15        		.uleb128 0x15
 2157 00ff 2E        		.uleb128 0x2e
 2158 0100 00        		.byte	0x0
 2159 0101 03        		.uleb128 0x3
 2160 0102 0E        		.uleb128 0xe
 2161 0103 3A        		.uleb128 0x3a
 2162 0104 0B        		.uleb128 0xb
 2163 0105 3B        		.uleb128 0x3b
 2164 0106 0B        		.uleb128 0xb
 2165 0107 27        		.uleb128 0x27
 2166 0108 0C        		.uleb128 0xc
 2167 0109 20        		.uleb128 0x20
 2168 010a 0B        		.uleb128 0xb
 2169 010b 00        		.byte	0x0
 2170 010c 00        		.byte	0x0
 2171 010d 16        		.uleb128 0x16
 2172 010e 34        		.uleb128 0x34
 2173 010f 00        		.byte	0x0
 2174 0110 03        		.uleb128 0x3
 2175 0111 0E        		.uleb128 0xe
 2176 0112 3A        		.uleb128 0x3a
 2177 0113 0B        		.uleb128 0xb
 2178 0114 3B        		.uleb128 0x3b
 2179 0115 0B        		.uleb128 0xb
 2180 0116 49        		.uleb128 0x49
 2181 0117 13        		.uleb128 0x13
 2182 0118 00        		.byte	0x0
 2183 0119 00        		.byte	0x0
 2184 011a 17        		.uleb128 0x17
 2185 011b 0B        		.uleb128 0xb
 2186 011c 00        		.byte	0x0
 2187 011d 00        		.byte	0x0
 2188 011e 00        		.byte	0x0
 2189 011f 18        		.uleb128 0x18
 2190 0120 2E        		.uleb128 0x2e
 2191 0121 01        		.byte	0x1
 2192 0122 03        		.uleb128 0x3
 2193 0123 0E        		.uleb128 0xe
 2194 0124 3A        		.uleb128 0x3a
 2195 0125 0B        		.uleb128 0xb
 2196 0126 3B        		.uleb128 0x3b
 2197 0127 0B        		.uleb128 0xb
 2198 0128 27        		.uleb128 0x27
 2199 0129 0C        		.uleb128 0xc
 2200 012a 49        		.uleb128 0x49
 2201 012b 13        		.uleb128 0x13
 2202 012c 11        		.uleb128 0x11
 2203 012d 01        		.uleb128 0x1
 2204 012e 12        		.uleb128 0x12
 2205 012f 01        		.uleb128 0x1
 2206 0130 40        		.uleb128 0x40
 2207 0131 0A        		.uleb128 0xa
 2208 0132 01        		.uleb128 0x1
 2209 0133 13        		.uleb128 0x13
GAS LISTING C:\Users\ADMINI~1\AppData\Local\Temp/ccSxsHok.s 			page 40


 2210 0134 00        		.byte	0x0
 2211 0135 00        		.byte	0x0
 2212 0136 19        		.uleb128 0x19
 2213 0137 05        		.uleb128 0x5
 2214 0138 00        		.byte	0x0
 2215 0139 03        		.uleb128 0x3
 2216 013a 08        		.uleb128 0x8
 2217 013b 3A        		.uleb128 0x3a
 2218 013c 0B        		.uleb128 0xb
 2219 013d 3B        		.uleb128 0x3b
 2220 013e 0B        		.uleb128 0xb
 2221 013f 49        		.uleb128 0x49
 2222 0140 13        		.uleb128 0x13
 2223 0141 02        		.uleb128 0x2
 2224 0142 06        		.uleb128 0x6
 2225 0143 00        		.byte	0x0
 2226 0144 00        		.byte	0x0
 2227 0145 1A        		.uleb128 0x1a
 2228 0146 05        		.uleb128 0x5
 2229 0147 00        		.byte	0x0
 2230 0148 03        		.uleb128 0x3
 2231 0149 0E        		.uleb128 0xe
 2232 014a 3A        		.uleb128 0x3a
 2233 014b 0B        		.uleb128 0xb
 2234 014c 3B        		.uleb128 0x3b
 2235 014d 0B        		.uleb128 0xb
 2236 014e 49        		.uleb128 0x49
 2237 014f 13        		.uleb128 0x13
 2238 0150 02        		.uleb128 0x2
 2239 0151 06        		.uleb128 0x6
 2240 0152 00        		.byte	0x0
 2241 0153 00        		.byte	0x0
 2242 0154 1B        		.uleb128 0x1b
 2243 0155 2E        		.uleb128 0x2e
 2244 0156 00        		.byte	0x0
 2245 0157 31        		.uleb128 0x31
 2246 0158 13        		.uleb128 0x13
 2247 0159 11        		.uleb128 0x11
 2248 015a 01        		.uleb128 0x1
 2249 015b 12        		.uleb128 0x12
 2250 015c 01        		.uleb128 0x1
 2251 015d 40        		.uleb128 0x40
 2252 015e 0A        		.uleb128 0xa
 2253 015f 00        		.byte	0x0
 2254 0160 00        		.byte	0x0
 2255 0161 1C        		.uleb128 0x1c
 2256 0162 2E        		.uleb128 0x2e
 2257 0163 01        		.byte	0x1
 2258 0164 3F        		.uleb128 0x3f
 2259 0165 0C        		.uleb128 0xc
 2260 0166 03        		.uleb128 0x3
 2261 0167 0E        		.uleb128 0xe
 2262 0168 3A        		.uleb128 0x3a
 2263 0169 0B        		.uleb128 0xb
 2264 016a 3B        		.uleb128 0x3b
 2265 016b 0B        		.uleb128 0xb
 2266 016c 27        		.uleb128 0x27
GAS LISTING C:\Users\ADMINI~1\AppData\Local\Temp/ccSxsHok.s 			page 41


 2267 016d 0C        		.uleb128 0xc
 2268 016e 11        		.uleb128 0x11
 2269 016f 01        		.uleb128 0x1
 2270 0170 12        		.uleb128 0x12
 2271 0171 01        		.uleb128 0x1
 2272 0172 40        		.uleb128 0x40
 2273 0173 0A        		.uleb128 0xa
 2274 0174 01        		.uleb128 0x1
 2275 0175 13        		.uleb128 0x13
 2276 0176 00        		.byte	0x0
 2277 0177 00        		.byte	0x0
 2278 0178 1D        		.uleb128 0x1d
 2279 0179 34        		.uleb128 0x34
 2280 017a 00        		.byte	0x0
 2281 017b 03        		.uleb128 0x3
 2282 017c 0E        		.uleb128 0xe
 2283 017d 3A        		.uleb128 0x3a
 2284 017e 0B        		.uleb128 0xb
 2285 017f 3B        		.uleb128 0x3b
 2286 0180 0B        		.uleb128 0xb
 2287 0181 49        		.uleb128 0x49
 2288 0182 13        		.uleb128 0x13
 2289 0183 02        		.uleb128 0x2
 2290 0184 06        		.uleb128 0x6
 2291 0185 00        		.byte	0x0
 2292 0186 00        		.byte	0x0
 2293 0187 1E        		.uleb128 0x1e
 2294 0188 2E        		.uleb128 0x2e
 2295 0189 01        		.byte	0x1
 2296 018a 03        		.uleb128 0x3
 2297 018b 0E        		.uleb128 0xe
 2298 018c 3A        		.uleb128 0x3a
 2299 018d 0B        		.uleb128 0xb
 2300 018e 3B        		.uleb128 0x3b
 2301 018f 0B        		.uleb128 0xb
 2302 0190 27        		.uleb128 0x27
 2303 0191 0C        		.uleb128 0xc
 2304 0192 11        		.uleb128 0x11
 2305 0193 01        		.uleb128 0x1
 2306 0194 12        		.uleb128 0x12
 2307 0195 01        		.uleb128 0x1
 2308 0196 40        		.uleb128 0x40
 2309 0197 0A        		.uleb128 0xa
 2310 0198 01        		.uleb128 0x1
 2311 0199 13        		.uleb128 0x13
 2312 019a 00        		.byte	0x0
 2313 019b 00        		.byte	0x0
 2314 019c 1F        		.uleb128 0x1f
 2315 019d 1D        		.uleb128 0x1d
 2316 019e 00        		.byte	0x0
 2317 019f 31        		.uleb128 0x31
 2318 01a0 13        		.uleb128 0x13
 2319 01a1 11        		.uleb128 0x11
 2320 01a2 01        		.uleb128 0x1
 2321 01a3 12        		.uleb128 0x12
 2322 01a4 01        		.uleb128 0x1
 2323 01a5 58        		.uleb128 0x58
GAS LISTING C:\Users\ADMINI~1\AppData\Local\Temp/ccSxsHok.s 			page 42


 2324 01a6 0B        		.uleb128 0xb
 2325 01a7 59        		.uleb128 0x59
 2326 01a8 0B        		.uleb128 0xb
 2327 01a9 00        		.byte	0x0
 2328 01aa 00        		.byte	0x0
 2329 01ab 20        		.uleb128 0x20
 2330 01ac 2E        		.uleb128 0x2e
 2331 01ad 00        		.byte	0x0
 2332 01ae 3F        		.uleb128 0x3f
 2333 01af 0C        		.uleb128 0xc
 2334 01b0 03        		.uleb128 0x3
 2335 01b1 0E        		.uleb128 0xe
 2336 01b2 3A        		.uleb128 0x3a
 2337 01b3 0B        		.uleb128 0xb
 2338 01b4 3B        		.uleb128 0x3b
 2339 01b5 0B        		.uleb128 0xb
 2340 01b6 27        		.uleb128 0x27
 2341 01b7 0C        		.uleb128 0xc
 2342 01b8 11        		.uleb128 0x11
 2343 01b9 01        		.uleb128 0x1
 2344 01ba 12        		.uleb128 0x12
 2345 01bb 01        		.uleb128 0x1
 2346 01bc 40        		.uleb128 0x40
 2347 01bd 0A        		.uleb128 0xa
 2348 01be 00        		.byte	0x0
 2349 01bf 00        		.byte	0x0
 2350 01c0 21        		.uleb128 0x21
 2351 01c1 2E        		.uleb128 0x2e
 2352 01c2 01        		.byte	0x1
 2353 01c3 3F        		.uleb128 0x3f
 2354 01c4 0C        		.uleb128 0xc
 2355 01c5 03        		.uleb128 0x3
 2356 01c6 0E        		.uleb128 0xe
 2357 01c7 3A        		.uleb128 0x3a
 2358 01c8 0B        		.uleb128 0xb
 2359 01c9 3B        		.uleb128 0x3b
 2360 01ca 0B        		.uleb128 0xb
 2361 01cb 27        		.uleb128 0x27
 2362 01cc 0C        		.uleb128 0xc
 2363 01cd 49        		.uleb128 0x49
 2364 01ce 13        		.uleb128 0x13
 2365 01cf 11        		.uleb128 0x11
 2366 01d0 01        		.uleb128 0x1
 2367 01d1 12        		.uleb128 0x12
 2368 01d2 01        		.uleb128 0x1
 2369 01d3 40        		.uleb128 0x40
 2370 01d4 0A        		.uleb128 0xa
 2371 01d5 01        		.uleb128 0x1
 2372 01d6 13        		.uleb128 0x13
 2373 01d7 00        		.byte	0x0
 2374 01d8 00        		.byte	0x0
 2375 01d9 22        		.uleb128 0x22
 2376 01da 34        		.uleb128 0x34
 2377 01db 00        		.byte	0x0
 2378 01dc 03        		.uleb128 0x3
 2379 01dd 0E        		.uleb128 0xe
 2380 01de 3A        		.uleb128 0x3a
GAS LISTING C:\Users\ADMINI~1\AppData\Local\Temp/ccSxsHok.s 			page 43


 2381 01df 0B        		.uleb128 0xb
 2382 01e0 3B        		.uleb128 0x3b
 2383 01e1 0B        		.uleb128 0xb
 2384 01e2 49        		.uleb128 0x49
 2385 01e3 13        		.uleb128 0x13
 2386 01e4 02        		.uleb128 0x2
 2387 01e5 0A        		.uleb128 0xa
 2388 01e6 00        		.byte	0x0
 2389 01e7 00        		.byte	0x0
 2390 01e8 23        		.uleb128 0x23
 2391 01e9 34        		.uleb128 0x34
 2392 01ea 00        		.byte	0x0
 2393 01eb 03        		.uleb128 0x3
 2394 01ec 08        		.uleb128 0x8
 2395 01ed 3A        		.uleb128 0x3a
 2396 01ee 0B        		.uleb128 0xb
 2397 01ef 3B        		.uleb128 0x3b
 2398 01f0 0B        		.uleb128 0xb
 2399 01f1 49        		.uleb128 0x49
 2400 01f2 13        		.uleb128 0x13
 2401 01f3 02        		.uleb128 0x2
 2402 01f4 06        		.uleb128 0x6
 2403 01f5 00        		.byte	0x0
 2404 01f6 00        		.byte	0x0
 2405 01f7 24        		.uleb128 0x24
 2406 01f8 34        		.uleb128 0x34
 2407 01f9 00        		.byte	0x0
 2408 01fa 03        		.uleb128 0x3
 2409 01fb 08        		.uleb128 0x8
 2410 01fc 3A        		.uleb128 0x3a
 2411 01fd 0B        		.uleb128 0xb
 2412 01fe 3B        		.uleb128 0x3b
 2413 01ff 0B        		.uleb128 0xb
 2414 0200 49        		.uleb128 0x49
 2415 0201 13        		.uleb128 0x13
 2416 0202 02        		.uleb128 0x2
 2417 0203 0A        		.uleb128 0xa
 2418 0204 00        		.byte	0x0
 2419 0205 00        		.byte	0x0
 2420 0206 25        		.uleb128 0x25
 2421 0207 34        		.uleb128 0x34
 2422 0208 00        		.byte	0x0
 2423 0209 03        		.uleb128 0x3
 2424 020a 08        		.uleb128 0x8
 2425 020b 3A        		.uleb128 0x3a
 2426 020c 0B        		.uleb128 0xb
 2427 020d 3B        		.uleb128 0x3b
 2428 020e 0B        		.uleb128 0xb
 2429 020f 49        		.uleb128 0x49
 2430 0210 13        		.uleb128 0x13
 2431 0211 00        		.byte	0x0
 2432 0212 00        		.byte	0x0
 2433 0213 26        		.uleb128 0x26
 2434 0214 1D        		.uleb128 0x1d
 2435 0215 01        		.byte	0x1
 2436 0216 31        		.uleb128 0x31
 2437 0217 13        		.uleb128 0x13
GAS LISTING C:\Users\ADMINI~1\AppData\Local\Temp/ccSxsHok.s 			page 44


 2438 0218 55        		.uleb128 0x55
 2439 0219 06        		.uleb128 0x6
 2440 021a 58        		.uleb128 0x58
 2441 021b 0B        		.uleb128 0xb
 2442 021c 59        		.uleb128 0x59
 2443 021d 05        		.uleb128 0x5
 2444 021e 00        		.byte	0x0
 2445 021f 00        		.byte	0x0
 2446 0220 27        		.uleb128 0x27
 2447 0221 05        		.uleb128 0x5
 2448 0222 00        		.byte	0x0
 2449 0223 31        		.uleb128 0x31
 2450 0224 13        		.uleb128 0x13
 2451 0225 00        		.byte	0x0
 2452 0226 00        		.byte	0x0
 2453 0227 28        		.uleb128 0x28
 2454 0228 0B        		.uleb128 0xb
 2455 0229 01        		.byte	0x1
 2456 022a 55        		.uleb128 0x55
 2457 022b 06        		.uleb128 0x6
 2458 022c 00        		.byte	0x0
 2459 022d 00        		.byte	0x0
 2460 022e 29        		.uleb128 0x29
 2461 022f 34        		.uleb128 0x34
 2462 0230 00        		.byte	0x0
 2463 0231 31        		.uleb128 0x31
 2464 0232 13        		.uleb128 0x13
 2465 0233 02        		.uleb128 0x2
 2466 0234 06        		.uleb128 0x6
 2467 0235 00        		.byte	0x0
 2468 0236 00        		.byte	0x0
 2469 0237 2A        		.uleb128 0x2a
 2470 0238 34        		.uleb128 0x34
 2471 0239 00        		.byte	0x0
 2472 023a 31        		.uleb128 0x31
 2473 023b 13        		.uleb128 0x13
 2474 023c 00        		.byte	0x0
 2475 023d 00        		.byte	0x0
 2476 023e 2B        		.uleb128 0x2b
 2477 023f 1D        		.uleb128 0x1d
 2478 0240 01        		.byte	0x1
 2479 0241 31        		.uleb128 0x31
 2480 0242 13        		.uleb128 0x13
 2481 0243 55        		.uleb128 0x55
 2482 0244 06        		.uleb128 0x6
 2483 0245 58        		.uleb128 0x58
 2484 0246 0B        		.uleb128 0xb
 2485 0247 59        		.uleb128 0x59
 2486 0248 0B        		.uleb128 0xb
 2487 0249 00        		.byte	0x0
 2488 024a 00        		.byte	0x0
 2489 024b 2C        		.uleb128 0x2c
 2490 024c 05        		.uleb128 0x5
 2491 024d 00        		.byte	0x0
 2492 024e 31        		.uleb128 0x31
 2493 024f 13        		.uleb128 0x13
 2494 0250 02        		.uleb128 0x2
GAS LISTING C:\Users\ADMINI~1\AppData\Local\Temp/ccSxsHok.s 			page 45


 2495 0251 06        		.uleb128 0x6
 2496 0252 00        		.byte	0x0
 2497 0253 00        		.byte	0x0
 2498 0254 2D        		.uleb128 0x2d
 2499 0255 01        		.uleb128 0x1
 2500 0256 01        		.byte	0x1
 2501 0257 49        		.uleb128 0x49
 2502 0258 13        		.uleb128 0x13
 2503 0259 01        		.uleb128 0x1
 2504 025a 13        		.uleb128 0x13
 2505 025b 00        		.byte	0x0
 2506 025c 00        		.byte	0x0
 2507 025d 2E        		.uleb128 0x2e
 2508 025e 21        		.uleb128 0x21
 2509 025f 00        		.byte	0x0
 2510 0260 00        		.byte	0x0
 2511 0261 00        		.byte	0x0
 2512 0262 2F        		.uleb128 0x2f
 2513 0263 34        		.uleb128 0x34
 2514 0264 00        		.byte	0x0
 2515 0265 03        		.uleb128 0x3
 2516 0266 0E        		.uleb128 0xe
 2517 0267 3A        		.uleb128 0x3a
 2518 0268 0B        		.uleb128 0xb
 2519 0269 3B        		.uleb128 0x3b
 2520 026a 05        		.uleb128 0x5
 2521 026b 49        		.uleb128 0x49
 2522 026c 13        		.uleb128 0x13
 2523 026d 3F        		.uleb128 0x3f
 2524 026e 0C        		.uleb128 0xc
 2525 026f 3C        		.uleb128 0x3c
 2526 0270 0C        		.uleb128 0xc
 2527 0271 00        		.byte	0x0
 2528 0272 00        		.byte	0x0
 2529 0273 30        		.uleb128 0x30
 2530 0274 34        		.uleb128 0x34
 2531 0275 00        		.byte	0x0
 2532 0276 03        		.uleb128 0x3
 2533 0277 0E        		.uleb128 0xe
 2534 0278 3A        		.uleb128 0x3a
 2535 0279 0B        		.uleb128 0xb
 2536 027a 3B        		.uleb128 0x3b
 2537 027b 0B        		.uleb128 0xb
 2538 027c 49        		.uleb128 0x49
 2539 027d 13        		.uleb128 0x13
 2540 027e 3F        		.uleb128 0x3f
 2541 027f 0C        		.uleb128 0xc
 2542 0280 02        		.uleb128 0x2
 2543 0281 0A        		.uleb128 0xa
 2544 0282 00        		.byte	0x0
 2545 0283 00        		.byte	0x0
 2546 0284 00        		.byte	0x0
 2547               		.section	.debug_pubnames,"",@progbits
 2548 0000 8900 0000 		.long	0x89
 2549 0004 0200      		.word	0x2
 2550 0006 0000 0000 		.long	.Ldebug_info0
 2551 000a 8808 0000 		.long	0x888
GAS LISTING C:\Users\ADMINI~1\AppData\Local\Temp/ccSxsHok.s 			page 46


 2552 000e 9906 0000 		.long	0x699
 2553 0012 7365 7455 		.string	"setUsbOn"
 2553      7362 4F6E 
 2553      00
 2554 001b A906 0000 		.long	0x6a9
 2555 001f 7365 7455 		.string	"setUsbOff"
 2555      7362 4F66 
 2555      6600 
 2556 0029 B906 0000 		.long	0x6b9
 2557 002d 636C 6561 		.string	"clearTimers"
 2557      7254 696D 
 2557      6572 7300 
 2558 0039 2607 0000 		.long	0x726
 2559 003d 636C 6561 		.string	"clearInterface"
 2559      7249 6E74 
 2559      6572 6661 
 2559      6365 00
 2560 004c 3A07 0000 		.long	0x73a
 2561 0050 6D61 696E 		.string	"main"
 2561      00
 2562 0055 5108 0000 		.long	0x851
 2563 0059 696E 7465 		.string	"interfaceCount"
 2563      7266 6163 
 2563      6543 6F75 
 2563      6E74 00
 2564 0068 6308 0000 		.long	0x863
 2565 006c 696E 7465 		.string	"interfaceReady"
 2565      7266 6163 
 2565      6552 6561 
 2565      6479 00
 2566 007b 7508 0000 		.long	0x875
 2567 007f 494E 5445 		.string	"INTERFACE"
 2567      5246 4143 
 2567      4500 
 2568 0089 0000 0000 		.long	0x0
 2569               		.section	.debug_aranges,"",@progbits
 2570 0000 1C00 0000 		.long	0x1c
 2571 0004 0200      		.word	0x2
 2572 0006 0000 0000 		.long	.Ldebug_info0
 2573 000a 04        		.byte	0x4
 2574 000b 00        		.byte	0x0
 2575 000c 0000      		.word	0x0
 2576 000e 0000      		.word	0x0
 2577 0010 0000 0000 		.long	.Ltext0
 2578 0014 D402 0000 		.long	.Letext0-.Ltext0
 2579 0018 0000 0000 		.long	0x0
 2580 001c 0000 0000 		.long	0x0
 2581               		.section	.debug_ranges,"",@progbits
 2582               	.Ldebug_ranges0:
 2583 0000 8202 0000 		.long	.LBB24-.Ltext0
 2584 0004 8602 0000 		.long	.LBE24-.Ltext0
 2585 0008 B402 0000 		.long	.LBB31-.Ltext0
 2586 000c BE02 0000 		.long	.LBE31-.Ltext0
 2587 0010 0000 0000 		.long	0x0
 2588 0014 0000 0000 		.long	0x0
 2589 0018 8202 0000 		.long	.LBB25-.Ltext0
 2590 001c 8602 0000 		.long	.LBE25-.Ltext0
GAS LISTING C:\Users\ADMINI~1\AppData\Local\Temp/ccSxsHok.s 			page 47


 2591 0020 B402 0000 		.long	.LBB30-.Ltext0
 2592 0024 BE02 0000 		.long	.LBE30-.Ltext0
 2593 0028 0000 0000 		.long	0x0
 2594 002c 0000 0000 		.long	0x0
 2595 0030 8202 0000 		.long	.LBB26-.Ltext0
 2596 0034 8602 0000 		.long	.LBE26-.Ltext0
 2597 0038 B402 0000 		.long	.LBB29-.Ltext0
 2598 003c BA02 0000 		.long	.LBE29-.Ltext0
 2599 0040 0000 0000 		.long	0x0
 2600 0044 0000 0000 		.long	0x0
 2601               		.section	.debug_line
 2602 0000 0105 0000 		.long	.LELT0-.LSLT0
 2603               	.LSLT0:
 2604 0004 0200      		.word	0x2
 2605 0006 EB00 0000 		.long	.LELTP0-.LASLTP0
 2606               	.LASLTP0:
 2607 000a 01        		.byte	0x1
 2608 000b 01        		.byte	0x1
 2609 000c F6        		.byte	0xf6
 2610 000d F5        		.byte	0xf5
 2611 000e 0A        		.byte	0xa
 2612 000f 00        		.byte	0x0
 2613 0010 01        		.byte	0x1
 2614 0011 01        		.byte	0x1
 2615 0012 01        		.byte	0x1
 2616 0013 01        		.byte	0x1
 2617 0014 00        		.byte	0x0
 2618 0015 00        		.byte	0x0
 2619 0016 00        		.byte	0x0
 2620 0017 01        		.byte	0x1
 2621 0018 2E2E 2F61 		.ascii	"../avrlib"
 2621      7672 6C69 
 2621      62
 2622 0021 00        		.byte	0
 2623 0022 633A 2F77 		.ascii	"c:/winavr-20100110/lib/gcc/../../avr/include"
 2623      696E 6176 
 2623      722D 3230 
 2623      3130 3031 
 2623      3130 2F6C 
 2624 004e 00        		.byte	0
 2625 004f 633A 2F77 		.ascii	"c:/winavr-20100110/lib/gcc/../../avr/include/util"
 2625      696E 6176 
 2625      722D 3230 
 2625      3130 3031 
 2625      3130 2F6C 
 2626 0080 00        		.byte	0
 2627 0081 00        		.byte	0x0
 2628 0082 7072 696E 		.string	"print.h"
 2628      742E 6800 
 2629 008a 00        		.uleb128 0x0
 2630 008b 00        		.uleb128 0x0
 2631 008c 00        		.uleb128 0x0
 2632 008d 6B65 796D 		.string	"keymain.c"
 2632      6169 6E2E 
 2632      6300 
 2633 0097 00        		.uleb128 0x0
 2634 0098 00        		.uleb128 0x0
GAS LISTING C:\Users\ADMINI~1\AppData\Local\Temp/ccSxsHok.s 			page 48


 2635 0099 00        		.uleb128 0x0
 2636 009a 7574 696C 		.string	"util/delay_basic.h"
 2636      2F64 656C 
 2636      6179 5F62 
 2636      6173 6963 
 2636      2E68 00
 2637 00ad 02        		.uleb128 0x2
 2638 00ae 00        		.uleb128 0x0
 2639 00af 00        		.uleb128 0x0
 2640 00b0 7574 696C 		.string	"util/delay.h"
 2640      2F64 656C 
 2640      6179 2E68 
 2640      00
 2641 00bd 02        		.uleb128 0x2
 2642 00be 00        		.uleb128 0x0
 2643 00bf 00        		.uleb128 0x0
 2644 00c0 7374 6469 		.string	"stdint.h"
 2644      6E74 2E68 
 2644      00
 2645 00c9 02        		.uleb128 0x2
 2646 00ca 00        		.uleb128 0x0
 2647 00cb 00        		.uleb128 0x0
 2648 00cc 7374 6469 		.string	"stdio.h"
 2648      6F2E 6800 
 2649 00d4 02        		.uleb128 0x2
 2650 00d5 00        		.uleb128 0x0
 2651 00d6 00        		.uleb128 0x0
 2652 00d7 6176 726C 		.string	"avrlibtypes.h"
 2652      6962 7479 
 2652      7065 732E 
 2652      6800 
 2653 00e5 01        		.uleb128 0x1
 2654 00e6 00        		.uleb128 0x0
 2655 00e7 00        		.uleb128 0x0
 2656 00e8 6B65 796D 		.string	"keymap.h"
 2656      6170 2E68 
 2656      00
 2657 00f1 00        		.uleb128 0x0
 2658 00f2 00        		.uleb128 0x0
 2659 00f3 00        		.uleb128 0x0
 2660 00f4 00        		.byte	0x0
 2661               	.LELTP0:
 2662 00f5 00        		.byte	0x0
 2663 00f6 05        		.uleb128 0x5
 2664 00f7 02        		.byte	0x2
 2665 00f8 0000 0000 		.long	.LM1
 2666 00fc 2A        		.byte	0x2a
 2667 00fd 00        		.byte	0x0
 2668 00fe 05        		.uleb128 0x5
 2669 00ff 02        		.byte	0x2
 2670 0100 0000 0000 		.long	.LM2
 2671 0104 15        		.byte	0x15
 2672 0105 00        		.byte	0x0
 2673 0106 05        		.uleb128 0x5
 2674 0107 02        		.byte	0x2
 2675 0108 0000 0000 		.long	.LM3
 2676 010c 15        		.byte	0x15
GAS LISTING C:\Users\ADMINI~1\AppData\Local\Temp/ccSxsHok.s 			page 49


 2677 010d 00        		.byte	0x0
 2678 010e 05        		.uleb128 0x5
 2679 010f 02        		.byte	0x2
 2680 0110 0000 0000 		.long	.LM4
 2681 0114 15        		.byte	0x15
 2682 0115 00        		.byte	0x0
 2683 0116 05        		.uleb128 0x5
 2684 0117 02        		.byte	0x2
 2685 0118 0000 0000 		.long	.LM5
 2686 011c 15        		.byte	0x15
 2687 011d 00        		.byte	0x0
 2688 011e 05        		.uleb128 0x5
 2689 011f 02        		.byte	0x2
 2690 0120 0000 0000 		.long	.LM6
 2691 0124 16        		.byte	0x16
 2692 0125 00        		.byte	0x0
 2693 0126 05        		.uleb128 0x5
 2694 0127 02        		.byte	0x2
 2695 0128 0000 0000 		.long	.LM7
 2696 012c 04        		.byte	0x4
 2697 012d 02        		.uleb128 0x2
 2698 012e 24        		.byte	0x24
 2699 012f 00        		.byte	0x0
 2700 0130 05        		.uleb128 0x5
 2701 0131 02        		.byte	0x2
 2702 0132 0000 0000 		.long	.LM8
 2703 0136 17        		.byte	0x17
 2704 0137 00        		.byte	0x0
 2705 0138 05        		.uleb128 0x5
 2706 0139 02        		.byte	0x2
 2707 013a 0000 0000 		.long	.LM9
 2708 013e 15        		.byte	0x15
 2709 013f 00        		.byte	0x0
 2710 0140 05        		.uleb128 0x5
 2711 0141 02        		.byte	0x2
 2712 0142 0000 0000 		.long	.LM10
 2713 0146 15        		.byte	0x15
 2714 0147 00        		.byte	0x0
 2715 0148 05        		.uleb128 0x5
 2716 0149 02        		.byte	0x2
 2717 014a 0000 0000 		.long	.LM11
 2718 014e 15        		.byte	0x15
 2719 014f 00        		.byte	0x0
 2720 0150 05        		.uleb128 0x5
 2721 0151 02        		.byte	0x2
 2722 0152 0000 0000 		.long	.LM12
 2723 0156 17        		.byte	0x17
 2724 0157 00        		.byte	0x0
 2725 0158 05        		.uleb128 0x5
 2726 0159 02        		.byte	0x2
 2727 015a 0000 0000 		.long	.LM13
 2728 015e 15        		.byte	0x15
 2729 015f 00        		.byte	0x0
 2730 0160 05        		.uleb128 0x5
 2731 0161 02        		.byte	0x2
 2732 0162 0000 0000 		.long	.LM14
 2733 0166 15        		.byte	0x15
GAS LISTING C:\Users\ADMINI~1\AppData\Local\Temp/ccSxsHok.s 			page 50


 2734 0167 00        		.byte	0x0
 2735 0168 05        		.uleb128 0x5
 2736 0169 02        		.byte	0x2
 2737 016a 0000 0000 		.long	.LM15
 2738 016e 1D        		.byte	0x1d
 2739 016f 00        		.byte	0x0
 2740 0170 05        		.uleb128 0x5
 2741 0171 02        		.byte	0x2
 2742 0172 0000 0000 		.long	.LM16
 2743 0176 01        		.byte	0x1
 2744 0177 00        		.byte	0x0
 2745 0178 05        		.uleb128 0x5
 2746 0179 02        		.byte	0x2
 2747 017a 0000 0000 		.long	.LM17
 2748 017e 1A        		.byte	0x1a
 2749 017f 00        		.byte	0x0
 2750 0180 05        		.uleb128 0x5
 2751 0181 02        		.byte	0x2
 2752 0182 0000 0000 		.long	.LM18
 2753 0186 13        		.byte	0x13
 2754 0187 00        		.byte	0x0
 2755 0188 05        		.uleb128 0x5
 2756 0189 02        		.byte	0x2
 2757 018a 0000 0000 		.long	.LM19
 2758 018e 18        		.byte	0x18
 2759 018f 00        		.byte	0x0
 2760 0190 05        		.uleb128 0x5
 2761 0191 02        		.byte	0x2
 2762 0192 0000 0000 		.long	.LM20
 2763 0196 16        		.byte	0x16
 2764 0197 00        		.byte	0x0
 2765 0198 05        		.uleb128 0x5
 2766 0199 02        		.byte	0x2
 2767 019a 0000 0000 		.long	.LM21
 2768 019e 18        		.byte	0x18
 2769 019f 00        		.byte	0x0
 2770 01a0 05        		.uleb128 0x5
 2771 01a1 02        		.byte	0x2
 2772 01a2 0000 0000 		.long	.LM22
 2773 01a6 16        		.byte	0x16
 2774 01a7 00        		.byte	0x0
 2775 01a8 05        		.uleb128 0x5
 2776 01a9 02        		.byte	0x2
 2777 01aa 0000 0000 		.long	.LM23
 2778 01ae 1A        		.byte	0x1a
 2779 01af 00        		.byte	0x0
 2780 01b0 05        		.uleb128 0x5
 2781 01b1 02        		.byte	0x2
 2782 01b2 0000 0000 		.long	.LM24
 2783 01b6 26        		.byte	0x26
 2784 01b7 00        		.byte	0x0
 2785 01b8 05        		.uleb128 0x5
 2786 01b9 02        		.byte	0x2
 2787 01ba 0000 0000 		.long	.LM25
 2788 01be 15        		.byte	0x15
 2789 01bf 00        		.byte	0x0
 2790 01c0 05        		.uleb128 0x5
GAS LISTING C:\Users\ADMINI~1\AppData\Local\Temp/ccSxsHok.s 			page 51


 2791 01c1 02        		.byte	0x2
 2792 01c2 0000 0000 		.long	.LM26
 2793 01c6 15        		.byte	0x15
 2794 01c7 00        		.byte	0x0
 2795 01c8 05        		.uleb128 0x5
 2796 01c9 02        		.byte	0x2
 2797 01ca 0000 0000 		.long	.LM27
 2798 01ce 15        		.byte	0x15
 2799 01cf 00        		.byte	0x0
 2800 01d0 05        		.uleb128 0x5
 2801 01d1 02        		.byte	0x2
 2802 01d2 0000 0000 		.long	.LM28
 2803 01d6 15        		.byte	0x15
 2804 01d7 00        		.byte	0x0
 2805 01d8 05        		.uleb128 0x5
 2806 01d9 02        		.byte	0x2
 2807 01da 0000 0000 		.long	.LM29
 2808 01de 15        		.byte	0x15
 2809 01df 00        		.byte	0x0
 2810 01e0 05        		.uleb128 0x5
 2811 01e1 02        		.byte	0x2
 2812 01e2 0000 0000 		.long	.LM30
 2813 01e6 16        		.byte	0x16
 2814 01e7 00        		.byte	0x0
 2815 01e8 05        		.uleb128 0x5
 2816 01e9 02        		.byte	0x2
 2817 01ea 0000 0000 		.long	.LM31
 2818 01ee 15        		.byte	0x15
 2819 01ef 00        		.byte	0x0
 2820 01f0 05        		.uleb128 0x5
 2821 01f1 02        		.byte	0x2
 2822 01f2 0000 0000 		.long	.LM32
 2823 01f6 15        		.byte	0x15
 2824 01f7 00        		.byte	0x0
 2825 01f8 05        		.uleb128 0x5
 2826 01f9 02        		.byte	0x2
 2827 01fa 0000 0000 		.long	.LM33
 2828 01fe 15        		.byte	0x15
 2829 01ff 00        		.byte	0x0
 2830 0200 05        		.uleb128 0x5
 2831 0201 02        		.byte	0x2
 2832 0202 0000 0000 		.long	.LM34
 2833 0206 17        		.byte	0x17
 2834 0207 00        		.byte	0x0
 2835 0208 05        		.uleb128 0x5
 2836 0209 02        		.byte	0x2
 2837 020a 0000 0000 		.long	.LM35
 2838 020e 15        		.byte	0x15
 2839 020f 00        		.byte	0x0
 2840 0210 05        		.uleb128 0x5
 2841 0211 02        		.byte	0x2
 2842 0212 0000 0000 		.long	.LM36
 2843 0216 17        		.byte	0x17
 2844 0217 00        		.byte	0x0
 2845 0218 05        		.uleb128 0x5
 2846 0219 02        		.byte	0x2
 2847 021a 0000 0000 		.long	.LM37
GAS LISTING C:\Users\ADMINI~1\AppData\Local\Temp/ccSxsHok.s 			page 52


 2848 021e 15        		.byte	0x15
 2849 021f 00        		.byte	0x0
 2850 0220 05        		.uleb128 0x5
 2851 0221 02        		.byte	0x2
 2852 0222 0000 0000 		.long	.LM38
 2853 0226 17        		.byte	0x17
 2854 0227 00        		.byte	0x0
 2855 0228 05        		.uleb128 0x5
 2856 0229 02        		.byte	0x2
 2857 022a 0000 0000 		.long	.LM39
 2858 022e 16        		.byte	0x16
 2859 022f 00        		.byte	0x0
 2860 0230 05        		.uleb128 0x5
 2861 0231 02        		.byte	0x2
 2862 0232 0000 0000 		.long	.LM40
 2863 0236 15        		.byte	0x15
 2864 0237 00        		.byte	0x0
 2865 0238 05        		.uleb128 0x5
 2866 0239 02        		.byte	0x2
 2867 023a 0000 0000 		.long	.LM41
 2868 023e 17        		.byte	0x17
 2869 023f 00        		.byte	0x0
 2870 0240 05        		.uleb128 0x5
 2871 0241 02        		.byte	0x2
 2872 0242 0000 0000 		.long	.LM42
 2873 0246 16        		.byte	0x16
 2874 0247 00        		.byte	0x0
 2875 0248 05        		.uleb128 0x5
 2876 0249 02        		.byte	0x2
 2877 024a 0000 0000 		.long	.LM43
 2878 024e 03        		.byte	0x3
 2879 024f A97F      		.sleb128 -87
 2880 0251 01        		.byte	0x1
 2881 0252 00        		.byte	0x0
 2882 0253 05        		.uleb128 0x5
 2883 0254 02        		.byte	0x2
 2884 0255 0000 0000 		.long	.LM44
 2885 0259 15        		.byte	0x15
 2886 025a 00        		.byte	0x0
 2887 025b 05        		.uleb128 0x5
 2888 025c 02        		.byte	0x2
 2889 025d 0000 0000 		.long	.LM45
 2890 0261 19        		.byte	0x19
 2891 0262 00        		.byte	0x0
 2892 0263 05        		.uleb128 0x5
 2893 0264 02        		.byte	0x2
 2894 0265 0000 0000 		.long	.LM46
 2895 0269 15        		.byte	0x15
 2896 026a 00        		.byte	0x0
 2897 026b 05        		.uleb128 0x5
 2898 026c 02        		.byte	0x2
 2899 026d 0000 0000 		.long	.LM47
 2900 0271 17        		.byte	0x17
 2901 0272 00        		.byte	0x0
 2902 0273 05        		.uleb128 0x5
 2903 0274 02        		.byte	0x2
 2904 0275 0000 0000 		.long	.LM48
GAS LISTING C:\Users\ADMINI~1\AppData\Local\Temp/ccSxsHok.s 			page 53


 2905 0279 15        		.byte	0x15
 2906 027a 00        		.byte	0x0
 2907 027b 05        		.uleb128 0x5
 2908 027c 02        		.byte	0x2
 2909 027d 0000 0000 		.long	.LM49
 2910 0281 15        		.byte	0x15
 2911 0282 00        		.byte	0x0
 2912 0283 05        		.uleb128 0x5
 2913 0284 02        		.byte	0x2
 2914 0285 0000 0000 		.long	.LM50
 2915 0289 15        		.byte	0x15
 2916 028a 00        		.byte	0x0
 2917 028b 05        		.uleb128 0x5
 2918 028c 02        		.byte	0x2
 2919 028d 0000 0000 		.long	.LM51
 2920 0291 15        		.byte	0x15
 2921 0292 00        		.byte	0x0
 2922 0293 05        		.uleb128 0x5
 2923 0294 02        		.byte	0x2
 2924 0295 0000 0000 		.long	.LM52
 2925 0299 15        		.byte	0x15
 2926 029a 00        		.byte	0x0
 2927 029b 05        		.uleb128 0x5
 2928 029c 02        		.byte	0x2
 2929 029d 0000 0000 		.long	.LM53
 2930 02a1 65        		.byte	0x65
 2931 02a2 00        		.byte	0x0
 2932 02a3 05        		.uleb128 0x5
 2933 02a4 02        		.byte	0x2
 2934 02a5 0000 0000 		.long	.LM54
 2935 02a9 04        		.byte	0x4
 2936 02aa 01        		.uleb128 0x1
 2937 02ab 03        		.byte	0x3
 2938 02ac 997F      		.sleb128 -103
 2939 02ae 01        		.byte	0x1
 2940 02af 00        		.byte	0x0
 2941 02b0 05        		.uleb128 0x5
 2942 02b1 02        		.byte	0x2
 2943 02b2 0000 0000 		.long	.LM55
 2944 02b6 17        		.byte	0x17
 2945 02b7 00        		.byte	0x0
 2946 02b8 05        		.uleb128 0x5
 2947 02b9 02        		.byte	0x2
 2948 02ba 0000 0000 		.long	.LM56
 2949 02be 15        		.byte	0x15
 2950 02bf 00        		.byte	0x0
 2951 02c0 05        		.uleb128 0x5
 2952 02c1 02        		.byte	0x2
 2953 02c2 0000 0000 		.long	.LM57
 2954 02c6 15        		.byte	0x15
 2955 02c7 00        		.byte	0x0
 2956 02c8 05        		.uleb128 0x5
 2957 02c9 02        		.byte	0x2
 2958 02ca 0000 0000 		.long	.LM58
 2959 02ce 15        		.byte	0x15
 2960 02cf 00        		.byte	0x0
 2961 02d0 05        		.uleb128 0x5
GAS LISTING C:\Users\ADMINI~1\AppData\Local\Temp/ccSxsHok.s 			page 54


 2962 02d1 02        		.byte	0x2
 2963 02d2 0000 0000 		.long	.LM59
 2964 02d6 15        		.byte	0x15
 2965 02d7 00        		.byte	0x0
 2966 02d8 05        		.uleb128 0x5
 2967 02d9 02        		.byte	0x2
 2968 02da 0000 0000 		.long	.LM60
 2969 02de 04        		.byte	0x4
 2970 02df 02        		.uleb128 0x2
 2971 02e0 78        		.byte	0x78
 2972 02e1 00        		.byte	0x0
 2973 02e2 05        		.uleb128 0x5
 2974 02e3 02        		.byte	0x2
 2975 02e4 0000 0000 		.long	.LM61
 2976 02e8 1A        		.byte	0x1a
 2977 02e9 00        		.byte	0x0
 2978 02ea 05        		.uleb128 0x5
 2979 02eb 02        		.byte	0x2
 2980 02ec 0000 0000 		.long	.LM62
 2981 02f0 15        		.byte	0x15
 2982 02f1 00        		.byte	0x0
 2983 02f2 05        		.uleb128 0x5
 2984 02f3 02        		.byte	0x2
 2985 02f4 0000 0000 		.long	.LM63
 2986 02f8 15        		.byte	0x15
 2987 02f9 00        		.byte	0x0
 2988 02fa 05        		.uleb128 0x5
 2989 02fb 02        		.byte	0x2
 2990 02fc 0000 0000 		.long	.LM64
 2991 0300 15        		.byte	0x15
 2992 0301 00        		.byte	0x0
 2993 0302 05        		.uleb128 0x5
 2994 0303 02        		.byte	0x2
 2995 0304 0000 0000 		.long	.LM65
 2996 0308 15        		.byte	0x15
 2997 0309 00        		.byte	0x0
 2998 030a 05        		.uleb128 0x5
 2999 030b 02        		.byte	0x2
 3000 030c 0000 0000 		.long	.LM66
 3001 0310 15        		.byte	0x15
 3002 0311 00        		.byte	0x0
 3003 0312 05        		.uleb128 0x5
 3004 0313 02        		.byte	0x2
 3005 0314 0000 0000 		.long	.LM67
 3006 0318 16        		.byte	0x16
 3007 0319 00        		.byte	0x0
 3008 031a 05        		.uleb128 0x5
 3009 031b 02        		.byte	0x2
 3010 031c 0000 0000 		.long	.LM68
 3011 0320 15        		.byte	0x15
 3012 0321 00        		.byte	0x0
 3013 0322 05        		.uleb128 0x5
 3014 0323 02        		.byte	0x2
 3015 0324 0000 0000 		.long	.LM69
 3016 0328 15        		.byte	0x15
 3017 0329 00        		.byte	0x0
 3018 032a 05        		.uleb128 0x5
GAS LISTING C:\Users\ADMINI~1\AppData\Local\Temp/ccSxsHok.s 			page 55


 3019 032b 02        		.byte	0x2
 3020 032c 0000 0000 		.long	.LM70
 3021 0330 17        		.byte	0x17
 3022 0331 00        		.byte	0x0
 3023 0332 05        		.uleb128 0x5
 3024 0333 02        		.byte	0x2
 3025 0334 0000 0000 		.long	.LM71
 3026 0338 1E        		.byte	0x1e
 3027 0339 00        		.byte	0x0
 3028 033a 05        		.uleb128 0x5
 3029 033b 02        		.byte	0x2
 3030 033c 0000 0000 		.long	.LM72
 3031 0340 1B        		.byte	0x1b
 3032 0341 00        		.byte	0x0
 3033 0342 05        		.uleb128 0x5
 3034 0343 02        		.byte	0x2
 3035 0344 0000 0000 		.long	.LM73
 3036 0348 0D        		.byte	0xd
 3037 0349 00        		.byte	0x0
 3038 034a 05        		.uleb128 0x5
 3039 034b 02        		.byte	0x2
 3040 034c 0000 0000 		.long	.LM74
 3041 0350 1D        		.byte	0x1d
 3042 0351 00        		.byte	0x0
 3043 0352 05        		.uleb128 0x5
 3044 0353 02        		.byte	0x2
 3045 0354 0000 0000 		.long	.LM75
 3046 0358 16        		.byte	0x16
 3047 0359 00        		.byte	0x0
 3048 035a 05        		.uleb128 0x5
 3049 035b 02        		.byte	0x2
 3050 035c 0000 0000 		.long	.LM76
 3051 0360 15        		.byte	0x15
 3052 0361 00        		.byte	0x0
 3053 0362 05        		.uleb128 0x5
 3054 0363 02        		.byte	0x2
 3055 0364 0000 0000 		.long	.LM77
 3056 0368 18        		.byte	0x18
 3057 0369 00        		.byte	0x0
 3058 036a 05        		.uleb128 0x5
 3059 036b 02        		.byte	0x2
 3060 036c 0000 0000 		.long	.LM78
 3061 0370 15        		.byte	0x15
 3062 0371 00        		.byte	0x0
 3063 0372 05        		.uleb128 0x5
 3064 0373 02        		.byte	0x2
 3065 0374 0000 0000 		.long	.LM79
 3066 0378 15        		.byte	0x15
 3067 0379 00        		.byte	0x0
 3068 037a 05        		.uleb128 0x5
 3069 037b 02        		.byte	0x2
 3070 037c 0000 0000 		.long	.LM80
 3071 0380 15        		.byte	0x15
 3072 0381 00        		.byte	0x0
 3073 0382 05        		.uleb128 0x5
 3074 0383 02        		.byte	0x2
 3075 0384 0000 0000 		.long	.LM81
GAS LISTING C:\Users\ADMINI~1\AppData\Local\Temp/ccSxsHok.s 			page 56


 3076 0388 15        		.byte	0x15
 3077 0389 00        		.byte	0x0
 3078 038a 05        		.uleb128 0x5
 3079 038b 02        		.byte	0x2
 3080 038c 0000 0000 		.long	.LM82
 3081 0390 15        		.byte	0x15
 3082 0391 00        		.byte	0x0
 3083 0392 05        		.uleb128 0x5
 3084 0393 02        		.byte	0x2
 3085 0394 0000 0000 		.long	.LM83
 3086 0398 15        		.byte	0x15
 3087 0399 00        		.byte	0x0
 3088 039a 05        		.uleb128 0x5
 3089 039b 02        		.byte	0x2
 3090 039c 0000 0000 		.long	.LM84
 3091 03a0 15        		.byte	0x15
 3092 03a1 00        		.byte	0x0
 3093 03a2 05        		.uleb128 0x5
 3094 03a3 02        		.byte	0x2
 3095 03a4 0000 0000 		.long	.LM85
 3096 03a8 15        		.byte	0x15
 3097 03a9 00        		.byte	0x0
 3098 03aa 05        		.uleb128 0x5
 3099 03ab 02        		.byte	0x2
 3100 03ac 0000 0000 		.long	.LM86
 3101 03b0 15        		.byte	0x15
 3102 03b1 00        		.byte	0x0
 3103 03b2 05        		.uleb128 0x5
 3104 03b3 02        		.byte	0x2
 3105 03b4 0000 0000 		.long	.LM87
 3106 03b8 03        		.byte	0x3
 3107 03b9 6C        		.sleb128 -20
 3108 03ba 01        		.byte	0x1
 3109 03bb 00        		.byte	0x0
 3110 03bc 05        		.uleb128 0x5
 3111 03bd 02        		.byte	0x2
 3112 03be 0000 0000 		.long	.LM88
 3113 03c2 12        		.byte	0x12
 3114 03c3 00        		.byte	0x0
 3115 03c4 05        		.uleb128 0x5
 3116 03c5 02        		.byte	0x2
 3117 03c6 0000 0000 		.long	.LM89
 3118 03ca 18        		.byte	0x18
 3119 03cb 00        		.byte	0x0
 3120 03cc 05        		.uleb128 0x5
 3121 03cd 02        		.byte	0x2
 3122 03ce 0000 0000 		.long	.LM90
 3123 03d2 2F        		.byte	0x2f
 3124 03d3 00        		.byte	0x0
 3125 03d4 05        		.uleb128 0x5
 3126 03d5 02        		.byte	0x2
 3127 03d6 0000 0000 		.long	.LM91
 3128 03da 15        		.byte	0x15
 3129 03db 00        		.byte	0x0
 3130 03dc 05        		.uleb128 0x5
 3131 03dd 02        		.byte	0x2
 3132 03de 0000 0000 		.long	.LM92
GAS LISTING C:\Users\ADMINI~1\AppData\Local\Temp/ccSxsHok.s 			page 57


 3133 03e2 17        		.byte	0x17
 3134 03e3 00        		.byte	0x0
 3135 03e4 05        		.uleb128 0x5
 3136 03e5 02        		.byte	0x2
 3137 03e6 0000 0000 		.long	.LM93
 3138 03ea 16        		.byte	0x16
 3139 03eb 00        		.byte	0x0
 3140 03ec 05        		.uleb128 0x5
 3141 03ed 02        		.byte	0x2
 3142 03ee 0000 0000 		.long	.LM94
 3143 03f2 15        		.byte	0x15
 3144 03f3 00        		.byte	0x0
 3145 03f4 05        		.uleb128 0x5
 3146 03f5 02        		.byte	0x2
 3147 03f6 0000 0000 		.long	.LM95
 3148 03fa 16        		.byte	0x16
 3149 03fb 00        		.byte	0x0
 3150 03fc 05        		.uleb128 0x5
 3151 03fd 02        		.byte	0x2
 3152 03fe 0000 0000 		.long	.LM96
 3153 0402 15        		.byte	0x15
 3154 0403 00        		.byte	0x0
 3155 0404 05        		.uleb128 0x5
 3156 0405 02        		.byte	0x2
 3157 0406 0000 0000 		.long	.LM97
 3158 040a 17        		.byte	0x17
 3159 040b 00        		.byte	0x0
 3160 040c 05        		.uleb128 0x5
 3161 040d 02        		.byte	0x2
 3162 040e 0000 0000 		.long	.LM98
 3163 0412 19        		.byte	0x19
 3164 0413 00        		.byte	0x0
 3165 0414 05        		.uleb128 0x5
 3166 0415 02        		.byte	0x2
 3167 0416 0000 0000 		.long	.LM99
 3168 041a 15        		.byte	0x15
 3169 041b 00        		.byte	0x0
 3170 041c 05        		.uleb128 0x5
 3171 041d 02        		.byte	0x2
 3172 041e 0000 0000 		.long	.LM100
 3173 0422 19        		.byte	0x19
 3174 0423 00        		.byte	0x0
 3175 0424 05        		.uleb128 0x5
 3176 0425 02        		.byte	0x2
 3177 0426 0000 0000 		.long	.LM101
 3178 042a 1F        		.byte	0x1f
 3179 042b 00        		.byte	0x0
 3180 042c 05        		.uleb128 0x5
 3181 042d 02        		.byte	0x2
 3182 042e 0000 0000 		.long	.LM102
 3183 0432 15        		.byte	0x15
 3184 0433 00        		.byte	0x0
 3185 0434 05        		.uleb128 0x5
 3186 0435 02        		.byte	0x2
 3187 0436 0000 0000 		.long	.LM103
 3188 043a 15        		.byte	0x15
 3189 043b 00        		.byte	0x0
GAS LISTING C:\Users\ADMINI~1\AppData\Local\Temp/ccSxsHok.s 			page 58


 3190 043c 05        		.uleb128 0x5
 3191 043d 02        		.byte	0x2
 3192 043e 0000 0000 		.long	.LM104
 3193 0442 15        		.byte	0x15
 3194 0443 00        		.byte	0x0
 3195 0444 05        		.uleb128 0x5
 3196 0445 02        		.byte	0x2
 3197 0446 0000 0000 		.long	.LM105
 3198 044a 1C        		.byte	0x1c
 3199 044b 00        		.byte	0x0
 3200 044c 05        		.uleb128 0x5
 3201 044d 02        		.byte	0x2
 3202 044e 0000 0000 		.long	.LM106
 3203 0452 15        		.byte	0x15
 3204 0453 00        		.byte	0x0
 3205 0454 05        		.uleb128 0x5
 3206 0455 02        		.byte	0x2
 3207 0456 0000 0000 		.long	.LM107
 3208 045a 15        		.byte	0x15
 3209 045b 00        		.byte	0x0
 3210 045c 05        		.uleb128 0x5
 3211 045d 02        		.byte	0x2
 3212 045e 0000 0000 		.long	.LM108
 3213 0462 15        		.byte	0x15
 3214 0463 00        		.byte	0x0
 3215 0464 05        		.uleb128 0x5
 3216 0465 02        		.byte	0x2
 3217 0466 0000 0000 		.long	.LM109
 3218 046a 1B        		.byte	0x1b
 3219 046b 00        		.byte	0x0
 3220 046c 05        		.uleb128 0x5
 3221 046d 02        		.byte	0x2
 3222 046e 0000 0000 		.long	.LM110
 3223 0472 17        		.byte	0x17
 3224 0473 00        		.byte	0x0
 3225 0474 05        		.uleb128 0x5
 3226 0475 02        		.byte	0x2
 3227 0476 0000 0000 		.long	.LM111
 3228 047a 19        		.byte	0x19
 3229 047b 00        		.byte	0x0
 3230 047c 05        		.uleb128 0x5
 3231 047d 02        		.byte	0x2
 3232 047e 0000 0000 		.long	.LM112
 3233 0482 04        		.byte	0x4
 3234 0483 03        		.uleb128 0x3
 3235 0484 03        		.byte	0x3
 3236 0485 D77E      		.sleb128 -169
 3237 0487 01        		.byte	0x1
 3238 0488 00        		.byte	0x0
 3239 0489 05        		.uleb128 0x5
 3240 048a 02        		.byte	0x2
 3241 048b 0000 0000 		.long	.LM113
 3242 048f 04        		.byte	0x4
 3243 0490 02        		.uleb128 0x2
 3244 0491 C0        		.byte	0xc0
 3245 0492 00        		.byte	0x0
 3246 0493 05        		.uleb128 0x5
GAS LISTING C:\Users\ADMINI~1\AppData\Local\Temp/ccSxsHok.s 			page 59


 3247 0494 02        		.byte	0x2
 3248 0495 0000 0000 		.long	.LM114
 3249 0499 15        		.byte	0x15
 3250 049a 00        		.byte	0x0
 3251 049b 05        		.uleb128 0x5
 3252 049c 02        		.byte	0x2
 3253 049d 0000 0000 		.long	.LM115
 3254 04a1 15        		.byte	0x15
 3255 04a2 00        		.byte	0x0
 3256 04a3 05        		.uleb128 0x5
 3257 04a4 02        		.byte	0x2
 3258 04a5 0000 0000 		.long	.LM116
 3259 04a9 16        		.byte	0x16
 3260 04aa 00        		.byte	0x0
 3261 04ab 05        		.uleb128 0x5
 3262 04ac 02        		.byte	0x2
 3263 04ad 0000 0000 		.long	.LM117
 3264 04b1 17        		.byte	0x17
 3265 04b2 00        		.byte	0x0
 3266 04b3 05        		.uleb128 0x5
 3267 04b4 02        		.byte	0x2
 3268 04b5 0000 0000 		.long	.LM118
 3269 04b9 15        		.byte	0x15
 3270 04ba 00        		.byte	0x0
 3271 04bb 05        		.uleb128 0x5
 3272 04bc 02        		.byte	0x2
 3273 04bd 0000 0000 		.long	.LM119
 3274 04c1 04        		.byte	0x4
 3275 04c2 03        		.uleb128 0x3
 3276 04c3 03        		.byte	0x3
 3277 04c4 CC7E      		.sleb128 -180
 3278 04c6 01        		.byte	0x1
 3279 04c7 00        		.byte	0x0
 3280 04c8 05        		.uleb128 0x5
 3281 04c9 02        		.byte	0x2
 3282 04ca 0000 0000 		.long	.LM120
 3283 04ce 04        		.byte	0x4
 3284 04cf 04        		.uleb128 0x4
 3285 04d0 27        		.byte	0x27
 3286 04d1 00        		.byte	0x0
 3287 04d2 05        		.uleb128 0x5
 3288 04d3 02        		.byte	0x2
 3289 04d4 0000 0000 		.long	.LM121
 3290 04d8 10        		.byte	0x10
 3291 04d9 00        		.byte	0x0
 3292 04da 05        		.uleb128 0x5
 3293 04db 02        		.byte	0x2
 3294 04dc 0000 0000 		.long	.LM122
 3295 04e0 04        		.byte	0x4
 3296 04e1 02        		.uleb128 0x2
 3297 04e2 BB        		.byte	0xbb
 3298 04e3 00        		.byte	0x0
 3299 04e4 05        		.uleb128 0x5
 3300 04e5 02        		.byte	0x2
 3301 04e6 0000 0000 		.long	.LM123
 3302 04ea 16        		.byte	0x16
 3303 04eb 00        		.byte	0x0
GAS LISTING C:\Users\ADMINI~1\AppData\Local\Temp/ccSxsHok.s 			page 60


 3304 04ec 05        		.uleb128 0x5
 3305 04ed 02        		.byte	0x2
 3306 04ee 0000 0000 		.long	.LM124
 3307 04f2 15        		.byte	0x15
 3308 04f3 00        		.byte	0x0
 3309 04f4 05        		.uleb128 0x5
 3310 04f5 02        		.byte	0x2
 3311 04f6 0000 0000 		.long	.LM125
 3312 04fa 16        		.byte	0x16
 3313 04fb 00        		.byte	0x0
 3314 04fc 05        		.uleb128 0x5
 3315 04fd 02        		.byte	0x2
 3316 04fe 0000 0000 		.long	.Letext0
 3317 0502 00        		.byte	0x0
 3318 0503 01        		.uleb128 0x1
 3319 0504 01        		.byte	0x1
 3320               	.LELT0:
 3321 0505 1600 0000 		.section	.debug_str,"MS",@progbits,1
 3321      0200 1000 
 3321      0000 0101 
 3321      FB0E 0A00 
 3321      0101 0101 
 3322               	.LASF120:
 3323 0000 4B45 595F 		.string	"KEY_LSHIFT"
 3323      4C53 4849 
 3323      4654 00
 3324               	.LASF143:
 3325 000b 4B45 595F 		.string	"KEY_PLAY"
 3325      504C 4159 
 3325      00
 3326               	.LASF99:
 3327 0014 4B45 595F 		.string	"KEY_NUMLOCK"
 3327      4E55 4D4C 
 3327      4F43 4B00 
 3328               	.LASF151:
 3329 0020 4B45 595F 		.string	"KEY_REC"
 3329      5245 4300 
 3330               	.LASF119:
 3331 0028 4B45 595F 		.string	"KEY_LCTRL"
 3331      4C43 5452 
 3331      4C00 
 3332               	.LASF83:
 3333 0032 4B45 595F 		.string	"KEY_F10"
 3333      4631 3000 
 3334               	.LASF84:
 3335 003a 4B45 595F 		.string	"KEY_F11"
 3335      4631 3100 
 3336               	.LASF85:
 3337 0042 4B45 595F 		.string	"KEY_F12"
 3337      4631 3200 
 3338               	.LASF161:
 3339 004a 4B45 595F 		.string	"KEY_F13"
 3339      4631 3300 
 3340               	.LASF162:
 3341 0052 4B45 595F 		.string	"KEY_F14"
 3341      4631 3400 
 3342               	.LASF163:
GAS LISTING C:\Users\ADMINI~1\AppData\Local\Temp/ccSxsHok.s 			page 61


 3343 005a 4B45 595F 		.string	"KEY_F15"
 3343      4631 3500 
 3344               	.LASF164:
 3345 0062 4B45 595F 		.string	"KEY_F16"
 3345      4631 3600 
 3346               	.LASF165:
 3347 006a 4B45 595F 		.string	"KEY_F17"
 3347      4631 3700 
 3348               	.LASF166:
 3349 0072 4B45 595F 		.string	"KEY_F18"
 3349      4631 3800 
 3350               	.LASF115:
 3351 007a 4B45 595F 		.string	"KEY_KP_DOT"
 3351      4B50 5F44 
 3351      4F54 00
 3352               	.LASF142:
 3353 0085 4B45 595F 		.string	"KEY_STOP"
 3353      5354 4F50 
 3353      00
 3354               	.LASF201:
 3355 008e 7374 7265 		.string	"stream"
 3355      616D 00
 3356               	.LASF12:
 3357 0095 756E 6765 		.string	"unget"
 3357      7400 
 3358               	.LASF93:
 3359 009b 4B45 595F 		.string	"KEY_END"
 3359      454E 4400 
 3360               	.LASF6:
 3361 00a3 6C6F 6E67 		.string	"long long unsigned int"
 3361      206C 6F6E 
 3361      6720 756E 
 3361      7369 676E 
 3361      6564 2069 
 3362               	.LASF222:
 3363 00ba 696E 6974 		.string	"initHardware"
 3363      4861 7264 
 3363      7761 7265 
 3363      00
 3364               	.LASF58:
 3365 00c7 4B45 595F 		.string	"KEY_BKSP"
 3365      424B 5350 
 3365      00
 3366               	.LASF92:
 3367 00d0 4B45 595F 		.string	"KEY_DEL"
 3367      4445 4C00 
 3368               	.LASF202:
 3369 00d8 7849 7355 		.string	"xIsUSB"
 3369      5342 00
 3370               	.LASF141:
 3371 00df 4B45 595F 		.string	"KEY_PREV_TRK"
 3371      5052 4556 
 3371      5F54 524B 
 3371      00
 3372               	.LASF67:
 3373 00ec 4B45 595F 		.string	"KEY_COLON"
 3373      434F 4C4F 
GAS LISTING C:\Users\ADMINI~1\AppData\Local\Temp/ccSxsHok.s 			page 62


 3373      4E00 
 3374               	.LASF129:
 3375 00f6 4B45 595F 		.string	"KEY_POWER"
 3375      504F 5745 
 3375      5200 
 3376               	.LASF17:
 3377 0100 4B45 595F 		.string	"KEY_ErrorRollOver"
 3377      4572 726F 
 3377      7252 6F6C 
 3377      6C4F 7665 
 3377      7200 
 3378               	.LASF147:
 3379 0112 4B45 595F 		.string	"KEY_MEDIA"
 3379      4D45 4449 
 3379      4100 
 3380               	.LASF7:
 3381 011c 6C6F 6E67 		.string	"long long int"
 3381      206C 6F6E 
 3381      6720 696E 
 3381      7400 
 3382               	.LASF1:
 3383 012a 7369 676E 		.string	"signed char"
 3383      6564 2063 
 3383      6861 7200 
 3384               	.LASF102:
 3385 0136 4B45 595F 		.string	"KEY_KP_MINUS"
 3385      4B50 5F4D 
 3385      494E 5553 
 3385      00
 3386               	.LASF145:
 3387 0143 4B45 595F 		.string	"KEY_VOL_UP"
 3387      564F 4C5F 
 3387      5550 00
 3388               	.LASF220:
 3389 014e 7561 7274 		.string	"uart_putchar"
 3389      5F70 7574 
 3389      6368 6172 
 3389      00
 3390               	.LASF168:
 3391 015b 4B45 595F 		.string	"KEY_F20"
 3391      4632 3000 
 3392               	.LASF169:
 3393 0163 4B45 595F 		.string	"KEY_F21"
 3393      4632 3100 
 3394               	.LASF64:
 3395 016b 4B45 595F 		.string	"KEY_RBR"
 3395      5242 5200 
 3396               	.LASF171:
 3397 0173 4B45 595F 		.string	"KEY_F23"
 3397      4632 3300 
 3398               	.LASF139:
 3399 017b 4B45 595F 		.string	"KEY_WWW_FAVORITE"
 3399      5757 575F 
 3399      4641 564F 
 3399      5249 5445 
 3399      00
 3400               	.LASF5:
GAS LISTING C:\Users\ADMINI~1\AppData\Local\Temp/ccSxsHok.s 			page 63


 3401 018c 6C6F 6E67 		.string	"long int"
 3401      2069 6E74 
 3401      00
 3402               	.LASF135:
 3403 0195 4B45 595F 		.string	"KEY_WWW_BACK"
 3403      5757 575F 
 3403      4241 434B 
 3403      00
 3404               	.LASF15:
 3405 01a2 7564 6174 		.string	"udata"
 3405      6100 
 3406               	.LASF116:
 3407 01a8 4B45 595F 		.string	"KEY_Europe2"
 3407      4575 726F 
 3407      7065 3200 
 3408               	.LASF100:
 3409 01b4 4B45 595F 		.string	"KEY_KP_SLASH"
 3409      4B50 5F53 
 3409      4C41 5348 
 3409      00
 3410               	.LASF95:
 3411 01c1 4B45 595F 		.string	"KEY_RIGHT"
 3411      5249 4748 
 3411      5400 
 3412               	.LASF184:
 3413 01cb 4B45 595F 		.string	"KEY_LANG3"
 3413      4C41 4E47 
 3413      3300 
 3414               	.LASF185:
 3415 01d5 4B45 595F 		.string	"KEY_LANG4"
 3415      4C41 4E47 
 3415      3400 
 3416               	.LASF214:
 3417 01df 494E 5445 		.string	"INTERFACE"
 3417      5246 4143 
 3417      4500 
 3418               	.LASF186:
 3419 01e9 4B45 595F 		.string	"KEY_LANG5"
 3419      4C41 4E47 
 3419      3500 
 3420               	.LASF187:
 3421 01f3 4B45 595F 		.string	"KEY_LANG6"
 3421      4C41 4E47 
 3421      3600 
 3422               	.LASF196:
 3423 01fd 5F5F 636F 		.string	"__count"
 3423      756E 7400 
 3424               	.LASF188:
 3425 0205 4B45 595F 		.string	"KEY_LANG7"
 3425      4C41 4E47 
 3425      3700 
 3426               	.LASF69:
 3427 020f 4B45 595F 		.string	"KEY_HASH"
 3427      4841 5348 
 3427      00
 3428               	.LASF125:
 3429 0218 4B45 595F 		.string	"KEY_RALT"
GAS LISTING C:\Users\ADMINI~1\AppData\Local\Temp/ccSxsHok.s 			page 64


 3429      5241 4C54 
 3429      00
 3430               	.LASF11:
 3431 0221 7569 6E74 		.string	"uint16_t"
 3431      3136 5F74 
 3431      00
 3432               	.LASF190:
 3433 022a 4B45 595F 		.string	"KEY_LANG9"
 3433      4C41 4E47 
 3433      3900 
 3434               	.LASF200:
 3435 0234 646F 7562 		.string	"double"
 3435      6C65 00
 3436               	.LASF138:
 3437 023b 4B45 595F 		.string	"KEY_WWW_REFRESH"
 3437      5757 575F 
 3437      5245 4652 
 3437      4553 4800 
 3438               	.LASF156:
 3439 024b 4B45 595F 		.string	"KEY_extend"
 3439      6578 7465 
 3439      6E64 00
 3440               	.LASF63:
 3441 0256 4B45 595F 		.string	"KEY_LBR"
 3441      4C42 5200 
 3442               	.LASF89:
 3443 025e 4B45 595F 		.string	"KEY_INSERT"
 3443      494E 5345 
 3443      5254 00
 3444               	.LASF199:
 3445 0269 5F5F 746D 		.string	"__tmp"
 3445      7000 
 3446               	.LASF215:
 3447 026f 474E 5520 		.string	"GNU C 4.3.3"
 3447      4320 342E 
 3447      332E 3300 
 3448               	.LASF86:
 3449 027b 4B45 595F 		.string	"KEY_PRNSCR"
 3449      5052 4E53 
 3449      4352 00
 3450               	.LASF94:
 3451 0286 4B45 595F 		.string	"KEY_PGDN"
 3451      5047 444E 
 3451      00
 3452               	.LASF126:
 3453 028f 4B45 595F 		.string	"KEY_RGUI"
 3453      5247 5549 
 3453      00
 3454               	.LASF134:
 3455 0298 4B45 595F 		.string	"KEY_WWW_HOME"
 3455      5757 575F 
 3455      484F 4D45 
 3455      00
 3456               	.LASF193:
 3457 02a5 7365 7455 		.string	"setUsbOff"
 3457      7362 4F66 
 3457      6600 
GAS LISTING C:\Users\ADMINI~1\AppData\Local\Temp/ccSxsHok.s 			page 65


 3458               	.LASF219:
 3459 02af 656E 6162 		.string	"enable_printf"
 3459      6C65 5F70 
 3459      7269 6E74 
 3459      6600 
 3460               	.LASF8:
 3461 02bd 756E 7369 		.string	"unsigned int"
 3461      676E 6564 
 3461      2069 6E74 
 3461      00
 3462               	.LASF124:
 3463 02ca 4B45 595F 		.string	"KEY_RSHIFT"
 3463      5253 4849 
 3463      4654 00
 3464               	.LASF87:
 3465 02d5 4B45 595F 		.string	"KEY_SCRLCK"
 3465      5343 524C 
 3465      434B 00
 3466               	.LASF4:
 3467 02e0 6C6F 6E67 		.string	"long unsigned int"
 3467      2075 6E73 
 3467      6967 6E65 
 3467      6420 696E 
 3467      7400 
 3468               	.LASF158:
 3469 02f2 4B45 595F 		.string	"KEY_HANGLE"
 3469      4841 4E47 
 3469      4C45 00
 3470               	.LASF68:
 3471 02fd 4B45 595F 		.string	"KEY_QUOTE"
 3471      5155 4F54 
 3471      4500 
 3472               	.LASF195:
 3473 0307 5F64 656C 		.string	"_delay_ms"
 3473      6179 5F6D 
 3473      7300 
 3474               	.LASF16:
 3475 0311 4B45 595F 		.string	"KEY_NONE"
 3475      4E4F 4E45 
 3475      00
 3476               	.LASF104:
 3477 031a 4B45 595F 		.string	"KEY_KP_ENTER"
 3477      4B50 5F45 
 3477      4E54 4552 
 3477      00
 3478               	.LASF96:
 3479 0327 4B45 595F 		.string	"KEY_LEFT"
 3479      4C45 4654 
 3479      00
 3480               	.LASF103:
 3481 0330 4B45 595F 		.string	"KEY_KP_PLUS"
 3481      4B50 5F50 
 3481      4C55 5300 
 3482               	.LASF14:
 3483 033c 7369 7A65 		.string	"size"
 3483      00
 3484               	.LASF2:
GAS LISTING C:\Users\ADMINI~1\AppData\Local\Temp/ccSxsHok.s 			page 66


 3485 0341 7368 6F72 		.string	"short unsigned int"
 3485      7420 756E 
 3485      7369 676E 
 3485      6564 2069 
 3485      6E74 00
 3486               	.LASF66:
 3487 0354 4B45 595F 		.string	"KEY_Europe1"
 3487      4575 726F 
 3487      7065 3100 
 3488               	.LASF73:
 3489 0360 4B45 595F 		.string	"KEY_CAPS"
 3489      4341 5053 
 3489      00
 3490               	.LASF197:
 3491 0369 5F5F 6D73 		.string	"__ms"
 3491      00
 3492               	.LASF223:
 3493 036e 636C 6561 		.string	"clearInterface"
 3493      7249 6E74 
 3493      6572 6661 
 3493      6365 00
 3494               	.LASF71:
 3495 037d 4B45 595F 		.string	"KEY_DOT"
 3495      444F 5400 
 3496               	.LASF213:
 3497 0385 696E 7465 		.string	"interfaceReady"
 3497      7266 6163 
 3497      6552 6561 
 3497      6479 00
 3498               	.LASF153:
 3499 0394 4B45 595F 		.string	"KEY_MINIMIZE"
 3499      4D49 4E49 
 3499      4D49 5A45 
 3499      00
 3500               	.LASF209:
 3501 03a1 7072 6576 		.string	"prevPIND"
 3501      5049 4E44 
 3501      00
 3502               	.LASF60:
 3503 03aa 4B45 595F 		.string	"KEY_SPACE"
 3503      5350 4143 
 3503      4500 
 3504               	.LASF130:
 3505 03b4 4B45 595F 		.string	"KEY_SLEEP"
 3505      534C 4545 
 3505      5000 
 3506               	.LASF221:
 3507 03be 636C 6561 		.string	"clearTimers"
 3507      7254 696D 
 3507      6572 7300 
 3508               	.LASF206:
 3509 03ca 6B65 7969 		.string	"keyidx"
 3509      6478 00
 3510               	.LASF155:
 3511 03d1 4B45 595F 		.string	"KEY_Multimedia_end"
 3511      4D75 6C74 
 3511      696D 6564 
GAS LISTING C:\Users\ADMINI~1\AppData\Local\Temp/ccSxsHok.s 			page 67


 3511      6961 5F65 
 3511      6E64 00
 3512               	.LASF19:
 3513 03e4 4B45 595F 		.string	"KEY_ErrorUndefined"
 3513      4572 726F 
 3513      7255 6E64 
 3513      6566 696E 
 3513      6564 00
 3514               	.LASF137:
 3515 03f7 4B45 595F 		.string	"KEY_WWW_STOP"
 3515      5757 575F 
 3515      5354 4F50 
 3515      00
 3516               	.LASF160:
 3517 0404 4B45 595F 		.string	"KEY_KP_EQUAL"
 3517      4B50 5F45 
 3517      5155 414C 
 3517      00
 3518               	.LASF208:
 3519 0411 6465 626F 		.string	"debounce"
 3519      756E 6365 
 3519      00
 3520               	.LASF55:
 3521 041a 4B45 595F 		.string	"KEY_0"
 3521      3000 
 3522               	.LASF46:
 3523 0420 4B45 595F 		.string	"KEY_1"
 3523      3100 
 3524               	.LASF47:
 3525 0426 4B45 595F 		.string	"KEY_2"
 3525      3200 
 3526               	.LASF48:
 3527 042c 4B45 595F 		.string	"KEY_3"
 3527      3300 
 3528               	.LASF49:
 3529 0432 4B45 595F 		.string	"KEY_4"
 3529      3400 
 3530               	.LASF50:
 3531 0438 4B45 595F 		.string	"KEY_5"
 3531      3500 
 3532               	.LASF51:
 3533 043e 4B45 595F 		.string	"KEY_6"
 3533      3600 
 3534               	.LASF52:
 3535 0444 4B45 595F 		.string	"KEY_7"
 3535      3700 
 3536               	.LASF53:
 3537 044a 4B45 595F 		.string	"KEY_8"
 3537      3800 
 3538               	.LASF54:
 3539 0450 4B45 595F 		.string	"KEY_9"
 3539      3900 
 3540               	.LASF61:
 3541 0456 4B45 595F 		.string	"KEY_MINUS"
 3541      4D49 4E55 
 3541      5300 
 3542               	.LASF144:
GAS LISTING C:\Users\ADMINI~1\AppData\Local\Temp/ccSxsHok.s 			page 68


 3543 0460 4B45 595F 		.string	"KEY_MUTE"
 3543      4D55 5445 
 3543      00
 3544               	.LASF211:
 3545 0469 5F5F 696F 		.string	"__iob"
 3545      6200 
 3546               	.LASF131:
 3547 046f 4B45 595F 		.string	"KEY_WAKE"
 3547      5741 4B45 
 3547      00
 3548               	.LASF20:
 3549 0478 4B45 595F 		.string	"KEY_A"
 3549      4100 
 3550               	.LASF21:
 3551 047e 4B45 595F 		.string	"KEY_B"
 3551      4200 
 3552               	.LASF22:
 3553 0484 4B45 595F 		.string	"KEY_C"
 3553      4300 
 3554               	.LASF23:
 3555 048a 4B45 595F 		.string	"KEY_D"
 3555      4400 
 3556               	.LASF24:
 3557 0490 4B45 595F 		.string	"KEY_E"
 3557      4500 
 3558               	.LASF25:
 3559 0496 4B45 595F 		.string	"KEY_F"
 3559      4600 
 3560               	.LASF26:
 3561 049c 4B45 595F 		.string	"KEY_G"
 3561      4700 
 3562               	.LASF27:
 3563 04a2 4B45 595F 		.string	"KEY_H"
 3563      4800 
 3564               	.LASF28:
 3565 04a8 4B45 595F 		.string	"KEY_I"
 3565      4900 
 3566               	.LASF29:
 3567 04ae 4B45 595F 		.string	"KEY_J"
 3567      4A00 
 3568               	.LASF30:
 3569 04b4 4B45 595F 		.string	"KEY_K"
 3569      4B00 
 3570               	.LASF31:
 3571 04ba 4B45 595F 		.string	"KEY_L"
 3571      4C00 
 3572               	.LASF32:
 3573 04c0 4B45 595F 		.string	"KEY_M"
 3573      4D00 
 3574               	.LASF33:
 3575 04c6 4B45 595F 		.string	"KEY_N"
 3575      4E00 
 3576               	.LASF34:
 3577 04cc 4B45 595F 		.string	"KEY_O"
 3577      4F00 
 3578               	.LASF35:
 3579 04d2 4B45 595F 		.string	"KEY_P"
GAS LISTING C:\Users\ADMINI~1\AppData\Local\Temp/ccSxsHok.s 			page 69


 3579      5000 
 3580               	.LASF36:
 3581 04d8 4B45 595F 		.string	"KEY_Q"
 3581      5100 
 3582               	.LASF37:
 3583 04de 4B45 595F 		.string	"KEY_R"
 3583      5200 
 3584               	.LASF38:
 3585 04e4 4B45 595F 		.string	"KEY_S"
 3585      5300 
 3586               	.LASF39:
 3587 04ea 4B45 595F 		.string	"KEY_T"
 3587      5400 
 3588               	.LASF40:
 3589 04f0 4B45 595F 		.string	"KEY_U"
 3589      5500 
 3590               	.LASF41:
 3591 04f6 4B45 595F 		.string	"KEY_V"
 3591      5600 
 3592               	.LASF42:
 3593 04fc 4B45 595F 		.string	"KEY_W"
 3593      5700 
 3594               	.LASF43:
 3595 0502 4B45 595F 		.string	"KEY_X"
 3595      5800 
 3596               	.LASF44:
 3597 0508 4B45 595F 		.string	"KEY_Y"
 3597      5900 
 3598               	.LASF45:
 3599 050e 4B45 595F 		.string	"KEY_Z"
 3599      5A00 
 3600               	.LASF170:
 3601 0514 4B45 595F 		.string	"KEY_F22"
 3601      4632 3200 
 3602               	.LASF189:
 3603 051c 4B45 595F 		.string	"KEY_LANG8"
 3603      4C41 4E47 
 3603      3800 
 3604               	.LASF212:
 3605 0526 696E 7465 		.string	"interfaceCount"
 3605      7266 6163 
 3605      6543 6F75 
 3605      6E74 00
 3606               	.LASF172:
 3607 0535 4B45 595F 		.string	"KEY_F24"
 3607      4632 3400 
 3608               	.LASF140:
 3609 053d 4B45 595F 		.string	"KEY_NEXT_TRK"
 3609      4E45 5854 
 3609      5F54 524B 
 3609      00
 3610               	.LASF101:
 3611 054a 4B45 595F 		.string	"KEY_KP_AST"
 3611      4B50 5F41 
 3611      5354 00
 3612               	.LASF146:
 3613 0555 4B45 595F 		.string	"KEY_VOL_DOWN"
GAS LISTING C:\Users\ADMINI~1\AppData\Local\Temp/ccSxsHok.s 			page 70


 3613      564F 4C5F 
 3613      444F 574E 
 3613      00
 3614               	.LASF154:
 3615 0562 4B45 595F 		.string	"KEY_EJECT"
 3615      454A 4543 
 3615      5400 
 3616               	.LASF127:
 3617 056c 4B45 595F 		.string	"KEY_Modifiers_end"
 3617      4D6F 6469 
 3617      6669 6572 
 3617      735F 656E 
 3617      6400 
 3618               	.LASF194:
 3619 057e 5F64 656C 		.string	"_delay_loop_2"
 3619      6179 5F6C 
 3619      6F6F 705F 
 3619      3200 
 3620               	.LASF0:
 3621 058c 756E 7369 		.string	"unsigned char"
 3621      676E 6564 
 3621      2063 6861 
 3621      7200 
 3622               	.LASF150:
 3623 059a 4B45 595F 		.string	"KEY_SCREENSAVE"
 3623      5343 5245 
 3623      454E 5341 
 3623      5645 00
 3624               	.LASF218:
 3625 05a9 5F5F 6669 		.string	"__file"
 3625      6C65 00
 3626               	.LASF167:
 3627 05b0 4B45 595F 		.string	"KEY_F19"
 3627      4631 3900 
 3628               	.LASF70:
 3629 05b8 4B45 595F 		.string	"KEY_COMMA"
 3629      434F 4D4D 
 3629      4100 
 3630               	.LASF59:
 3631 05c2 4B45 595F 		.string	"KEY_TAB"
 3631      5441 4200 
 3632               	.LASF3:
 3633 05ca 7368 6F72 		.string	"short int"
 3633      7420 696E 
 3633      7400 
 3634               	.LASF97:
 3635 05d4 4B45 595F 		.string	"KEY_DOWN"
 3635      444F 574E 
 3635      00
 3636               	.LASF62:
 3637 05dd 4B45 595F 		.string	"KEY_EQUAL"
 3637      4551 5541 
 3637      4C00 
 3638               	.LASF88:
 3639 05e7 4B45 595F 		.string	"KEY_PAUSE"
 3639      5041 5553 
 3639      4500 
GAS LISTING C:\Users\ADMINI~1\AppData\Local\Temp/ccSxsHok.s 			page 71


 3640               	.LASF105:
 3641 05f1 4B45 595F 		.string	"KEY_KP_1"
 3641      4B50 5F31 
 3641      00
 3642               	.LASF106:
 3643 05fa 4B45 595F 		.string	"KEY_KP_2"
 3643      4B50 5F32 
 3643      00
 3644               	.LASF107:
 3645 0603 4B45 595F 		.string	"KEY_KP_3"
 3645      4B50 5F33 
 3645      00
 3646               	.LASF91:
 3647 060c 4B45 595F 		.string	"KEY_PGUP"
 3647      5047 5550 
 3647      00
 3648               	.LASF18:
 3649 0615 4B45 595F 		.string	"KEY_POSTFail"
 3649      504F 5354 
 3649      4661 696C 
 3649      00
 3650               	.LASF110:
 3651 0622 4B45 595F 		.string	"KEY_KP_6"
 3651      4B50 5F36 
 3651      00
 3652               	.LASF111:
 3653 062b 4B45 595F 		.string	"KEY_KP_7"
 3653      4B50 5F37 
 3653      00
 3654               	.LASF112:
 3655 0634 4B45 595F 		.string	"KEY_KP_8"
 3655      4B50 5F38 
 3655      00
 3656               	.LASF56:
 3657 063d 4B45 595F 		.string	"KEY_ENTER"
 3657      454E 5445 
 3657      5200 
 3658               	.LASF57:
 3659 0647 4B45 595F 		.string	"KEY_ESC"
 3659      4553 4300 
 3660               	.LASF114:
 3661 064f 4B45 595F 		.string	"KEY_KP_0"
 3661      4B50 5F30 
 3661      00
 3662               	.LASF203:
 3663 0658 696E 744E 		.string	"intNum"
 3663      756D 00
 3664               	.LASF9:
 3665 065f 6368 6172 		.string	"char"
 3665      00
 3666               	.LASF157:
 3667 0664 4B45 595F 		.string	"KEY_HANJA"
 3667      4841 4E4A 
 3667      4100 
 3668               	.LASF109:
 3669 066e 4B45 595F 		.string	"KEY_KP_5"
 3669      4B50 5F35 
GAS LISTING C:\Users\ADMINI~1\AppData\Local\Temp/ccSxsHok.s 			page 72


 3669      00
 3670               	.LASF136:
 3671 0677 4B45 595F 		.string	"KEY_WWW_FORWARD"
 3671      5757 575F 
 3671      464F 5257 
 3671      4152 4400 
 3672               	.LASF113:
 3673 0687 4B45 595F 		.string	"KEY_KP_9"
 3673      4B50 5F39 
 3673      00
 3674               	.LASF210:
 3675 0690 6D79 7374 		.string	"mystdout"
 3675      646F 7574 
 3675      00
 3676               	.LASF108:
 3677 0699 4B45 595F 		.string	"KEY_KP_4"
 3677      4B50 5F34 
 3677      00
 3678               	.LASF132:
 3679 06a2 4B45 595F 		.string	"KEY_EMAIL"
 3679      454D 4149 
 3679      4C00 
 3680               	.LASF159:
 3681 06ac 4B45 595F 		.string	"KEY_KBD_POWER"
 3681      4B42 445F 
 3681      504F 5745 
 3681      5200 
 3682               	.LASF117:
 3683 06ba 4B45 595F 		.string	"KEY_APPS"
 3683      4150 5053 
 3683      00
 3684               	.LASF123:
 3685 06c3 4B45 595F 		.string	"KEY_RCTRL"
 3685      5243 5452 
 3685      4C00 
 3686               	.LASF191:
 3687 06cd 4B45 595F 		.string	"KEY_extend_end"
 3687      6578 7465 
 3687      6E64 5F65 
 3687      6E64 00
 3688               	.LASF65:
 3689 06dc 4B45 595F 		.string	"KEY_BKSLASH"
 3689      424B 534C 
 3689      4153 4800 
 3690               	.LASF205:
 3691 06e8 5F63 6F75 		.string	"_countDie"
 3691      6E74 4469 
 3691      6500 
 3692               	.LASF148:
 3693 06f2 4B45 595F 		.string	"KEY_CALC"
 3693      4341 4C43 
 3693      00
 3694               	.LASF175:
 3695 06fb 4B45 595F 		.string	"KEY_INT1"
 3695      494E 5431 
 3695      00
 3696               	.LASF176:
GAS LISTING C:\Users\ADMINI~1\AppData\Local\Temp/ccSxsHok.s 			page 73


 3697 0704 4B45 595F 		.string	"KEY_INT2"
 3697      494E 5432 
 3697      00
 3698               	.LASF177:
 3699 070d 4B45 595F 		.string	"KEY_INT3"
 3699      494E 5433 
 3699      00
 3700               	.LASF178:
 3701 0716 4B45 595F 		.string	"KEY_INT4"
 3701      494E 5434 
 3701      00
 3702               	.LASF179:
 3703 071f 4B45 595F 		.string	"KEY_INT5"
 3703      494E 5435 
 3703      00
 3704               	.LASF180:
 3705 0728 4B45 595F 		.string	"KEY_INT6"
 3705      494E 5436 
 3705      00
 3706               	.LASF181:
 3707 0731 4B45 595F 		.string	"KEY_INT7"
 3707      494E 5437 
 3707      00
 3708               	.LASF182:
 3709 073a 4B45 595F 		.string	"KEY_INT8"
 3709      494E 5438 
 3709      00
 3710               	.LASF183:
 3711 0743 4B45 595F 		.string	"KEY_INT9"
 3711      494E 5439 
 3711      00
 3712               	.LASF121:
 3713 074c 4B45 595F 		.string	"KEY_LALT"
 3713      4C41 4C54 
 3713      00
 3714               	.LASF74:
 3715 0755 4B45 595F 		.string	"KEY_F1"
 3715      4631 00
 3716               	.LASF75:
 3717 075c 4B45 595F 		.string	"KEY_F2"
 3717      4632 00
 3718               	.LASF76:
 3719 0763 4B45 595F 		.string	"KEY_F3"
 3719      4633 00
 3720               	.LASF77:
 3721 076a 4B45 595F 		.string	"KEY_F4"
 3721      4634 00
 3722               	.LASF78:
 3723 0771 4B45 595F 		.string	"KEY_F5"
 3723      4635 00
 3724               	.LASF79:
 3725 0778 4B45 595F 		.string	"KEY_F6"
 3725      4636 00
 3726               	.LASF80:
 3727 077f 4B45 595F 		.string	"KEY_F7"
 3727      4637 00
 3728               	.LASF81:
GAS LISTING C:\Users\ADMINI~1\AppData\Local\Temp/ccSxsHok.s 			page 74


 3729 0786 4B45 595F 		.string	"KEY_F8"
 3729      4638 00
 3730               	.LASF10:
 3731 078d 7569 6E74 		.string	"uint8_t"
 3731      385F 7400 
 3732               	.LASF90:
 3733 0795 4B45 595F 		.string	"KEY_HOME"
 3733      484F 4D45 
 3733      00
 3734               	.LASF152:
 3735 079e 4B45 595F 		.string	"KEY_REWIND"
 3735      5245 5749 
 3735      4E44 00
 3736               	.LASF217:
 3737 07a9 443A 5C67 		.string	"D:\\git\\ps2avrU\\source"
 3737      6974 5C70 
 3737      7332 6176 
 3737      7255 5C73 
 3737      6F75 7263 
 3738               	.LASF13:
 3739 07bf 666C 6167 		.string	"flags"
 3739      7300 
 3740               	.LASF133:
 3741 07c5 4B45 595F 		.string	"KEY_WWW_SEARCH"
 3741      5757 575F 
 3741      5345 4152 
 3741      4348 00
 3742               	.LASF98:
 3743 07d4 4B45 595F 		.string	"KEY_UP"
 3743      5550 00
 3744               	.LASF207:
 3745 07db 674D 6174 		.string	"gMatrix"
 3745      7269 7800 
 3746               	.LASF72:
 3747 07e3 4B45 595F 		.string	"KEY_SLASH"
 3747      534C 4153 
 3747      4800 
 3748               	.LASF149:
 3749 07ed 4B45 595F 		.string	"KEY_MYCOM"
 3749      4D59 434F 
 3749      4D00 
 3750               	.LASF174:
 3751 07f7 4B45 595F 		.string	"KEY_EQUAL_SIGN"
 3751      4551 5541 
 3751      4C5F 5349 
 3751      474E 00
 3752               	.LASF82:
 3753 0806 4B45 595F 		.string	"KEY_F9"
 3753      4639 00
 3754               	.LASF122:
 3755 080d 4B45 595F 		.string	"KEY_LGUI"
 3755      4C47 5549 
 3755      00
 3756               	.LASF224:
 3757 0816 6D61 696E 		.string	"main"
 3757      00
 3758               	.LASF216:
GAS LISTING C:\Users\ADMINI~1\AppData\Local\Temp/ccSxsHok.s 			page 75


 3759 081b 6B65 796D 		.string	"keymain.c"
 3759      6169 6E2E 
 3759      6300 
 3760               	.LASF204:
 3761 0825 636B 6563 		.string	"ckeckNeedInterface"
 3761      6B4E 6565 
 3761      6449 6E74 
 3761      6572 6661 
 3761      6365 00
 3762               	.LASF173:
 3763 0838 4B45 595F 		.string	"KEY_KP_COMMA"
 3763      4B50 5F43 
 3763      4F4D 4D41 
 3763      00
 3764               	.LASF128:
 3765 0845 4B45 595F 		.string	"KEY_Multimedia"
 3765      4D75 6C74 
 3765      696D 6564 
 3765      6961 00
 3766               	.LASF118:
 3767 0854 4B45 595F 		.string	"KEY_Modifiers"
 3767      4D6F 6469 
 3767      6669 6572 
 3767      7300 
 3768               	.LASF192:
 3769 0862 7365 7455 		.string	"setUsbOn"
 3769      7362 4F6E 
 3769      00
 3770               	.LASF198:
 3771 086b 5F5F 7469 		.string	"__ticks"
 3771      636B 7300 
 3772               	.global __do_copy_data
 3773               	.global __do_clear_bss
GAS LISTING C:\Users\ADMINI~1\AppData\Local\Temp/ccSxsHok.s 			page 76


DEFINED SYMBOLS
                            *ABS*:00000000 keymain.c
C:\Users\ADMINI~1\AppData\Local\Temp/ccSxsHok.s:2      *ABS*:0000003f __SREG__
C:\Users\ADMINI~1\AppData\Local\Temp/ccSxsHok.s:3      *ABS*:0000003e __SP_H__
C:\Users\ADMINI~1\AppData\Local\Temp/ccSxsHok.s:4      *ABS*:0000003d __SP_L__
C:\Users\ADMINI~1\AppData\Local\Temp/ccSxsHok.s:5      *ABS*:00000034 __CCP__
C:\Users\ADMINI~1\AppData\Local\Temp/ccSxsHok.s:6      *ABS*:00000000 __tmp_reg__
C:\Users\ADMINI~1\AppData\Local\Temp/ccSxsHok.s:7      *ABS*:00000001 __zero_reg__
C:\Users\ADMINI~1\AppData\Local\Temp/ccSxsHok.s:17     .text:00000000 uart_putchar
C:\Users\ADMINI~1\AppData\Local\Temp/ccSxsHok.s:50     .text:0000001c setUsbOn
C:\Users\ADMINI~1\AppData\Local\Temp/ccSxsHok.s:66     .text:00000022 setUsbOff
C:\Users\ADMINI~1\AppData\Local\Temp/ccSxsHok.s:82     .text:00000028 clearTimers
C:\Users\ADMINI~1\AppData\Local\Temp/ccSxsHok.s:119    .text:0000004e initHardware
C:\Users\ADMINI~1\AppData\Local\Temp/ccSxsHok.s:204    .text:000000a4 clearInterface
C:\Users\ADMINI~1\AppData\Local\Temp/ccSxsHok.s:641    .bss:00000000 interfaceCount
C:\Users\ADMINI~1\AppData\Local\Temp/ccSxsHok.s:647    .bss:00000002 interfaceReady
C:\Users\ADMINI~1\AppData\Local\Temp/ccSxsHok.s:241    .text:000000b8 main
C:\Users\ADMINI~1\AppData\Local\Temp/ccSxsHok.s:657    .data:00000061 mystdout
C:\Users\ADMINI~1\AppData\Local\Temp/ccSxsHok.s:653    .data:00000060 INTERFACE

UNDEFINED SYMBOLS
timerDetach
_delay_us_m
clearLEDInited
__iob
getLiveMatrix
getCurrentMatrix
setToBootMapper
getKeyCode
puts
readyKeyMappingOnBoot
printf
__eewr_byte_m32
__eerd_byte_m32
usb_main
ps2_main
__do_copy_data
__do_clear_bss
