GAS LISTING C:\Users\ADMINI~1\AppData\Local\Temp/ccEBF6mf.s 			page 1


   1               		.file	"keymapper.c"
   2               	__SREG__ = 0x3f
   3               	__SP_H__ = 0x3e
   4               	__SP_L__ = 0x3d
   5               	__CCP__  = 0x34
   6               	__tmp_reg__ = 0
   7               	__zero_reg__ = 1
   8               		.section	.debug_abbrev,"",@progbits
   9               	.Ldebug_abbrev0:
  10               		.section	.debug_info,"",@progbits
  11               	.Ldebug_info0:
  12               		.section	.debug_line,"",@progbits
  13               	.Ldebug_line0:
  14               		.text
  15               	.Ltext0:
  16               	.global	setWillStartKeyMapping
  17               		.type	setWillStartKeyMapping, @function
  18               	setWillStartKeyMapping:
  19               	.LFB8:
  20               	.LM1:
  21               	/* prologue: function */
  22               	/* frame size = 0 */
  23               	.LM2:
  24 0000 8091 0000 		lds r24,_isKeyMapping
  25 0004 8160      		ori r24,lo8(1)
  26 0006 8093 0000 		sts _isKeyMapping,r24
  27               	/* epilogue start */
  28               	.LM3:
  29 000a 0895      		ret
  30               	.LFE8:
  31               		.size	setWillStartKeyMapping, .-setWillStartKeyMapping
  32               	.global	isKeyMapping
  33               		.type	isKeyMapping, @function
  34               	isKeyMapping:
  35               	.LFB9:
  36               	.LM4:
  37               	/* prologue: function */
  38               	/* frame size = 0 */
  39               	.LM5:
  40 000c 8091 0000 		lds r24,_isKeyMapping
  41               	.LM6:
  42 0010 8170      		andi r24,lo8(1)
  43               	/* epilogue start */
  44 0012 0895      		ret
  45               	.LFE9:
  46               		.size	isKeyMapping, .-isKeyMapping
  47               	.global	isDeepKeyMapping
  48               		.type	isDeepKeyMapping, @function
  49               	isDeepKeyMapping:
  50               	.LFB10:
  51               	.LM7:
  52               	/* prologue: function */
  53               	/* frame size = 0 */
  54               	.LM8:
  55 0014 8091 0000 		lds r24,_isKeyMapping
  56               	.LM9:
  57 0018 8270      		andi r24,lo8(2)
GAS LISTING C:\Users\ADMINI~1\AppData\Local\Temp/ccEBF6mf.s 			page 2


  58               	/* epilogue start */
  59 001a 0895      		ret
  60               	.LFE10:
  61               		.size	isDeepKeyMapping, .-isDeepKeyMapping
  62               	.global	applyKeyMapping
  63               		.type	applyKeyMapping, @function
  64               	applyKeyMapping:
  65               	.LFB11:
  66               	.LM10:
  67               	.LVL0:
  68               	/* prologue: function */
  69               	/* frame size = 0 */
  70 001c 982F      		mov r25,r24
  71               	.LM11:
  72 001e 8091 0000 		lds r24,_isKeyMapping
  73               	.LVL1:
  74 0022 80FD      		sbrc r24,0
  75 0024 00C0      		rjmp .L11
  76               	.LM12:
  77 0026 9730      		cpi r25,lo8(7)
  78 0028 01F4      		brne .L9
  79               	.LM13:
  80 002a 1092 0000 		sts (keyMappingCount)+1,__zero_reg__
  81 002e 1092 0000 		sts keyMappingCount,__zero_reg__
  82               	.LM14:
  83 0032 81E0      		ldi r24,lo8(1)
  84 0034 8093 0000 		sts enabledKeyMappingCount,r24
  85               	.LM15:
  86 0038 8091 0000 		lds r24,INTERFACE
  87 003c 8823      		tst r24
  88 003e 01F0      		breq .L10
  89 0040 8330      		cpi r24,lo8(3)
  90 0042 01F4      		brne .L11
  91               	.L10:
  92               	.LM16:
  93 0044 84EC      		ldi r24,lo8(2500)
  94 0046 99E0      		ldi r25,hi8(2500)
  95 0048 9093 0000 		sts (keyMappingCountMax)+1,r25
  96 004c 8093 0000 		sts keyMappingCountMax,r24
  97 0050 0895      		ret
  98               	.L9:
  99               	.LM17:
 100 0052 1092 0000 		sts _isKeyMapping,__zero_reg__
 101               	.LM18:
 102 0056 1092 0000 		sts enabledKeyMappingCount,__zero_reg__
 103               	.L11:
 104 005a 0895      		ret
 105               	.LFE11:
 106               		.size	applyKeyMapping, .-applyKeyMapping
 107               	.global	isReadyKeyMappingOnBoot
 108               		.type	isReadyKeyMappingOnBoot, @function
 109               	isReadyKeyMappingOnBoot:
 110               	.LFB14:
 111               	.LM19:
 112               	/* prologue: function */
 113               	/* frame size = 0 */
 114               	.LM20:
GAS LISTING C:\Users\ADMINI~1\AppData\Local\Temp/ccEBF6mf.s 			page 3


 115 005c 8091 0000 		lds r24,_keyMappingOnBoot
 116               	/* epilogue start */
 117 0060 0895      		ret
 118               	.LFE14:
 119               		.size	isReadyKeyMappingOnBoot, .-isReadyKeyMappingOnBoot
 120               	.global	readyKeyMappingOnBoot
 121               		.type	readyKeyMappingOnBoot, @function
 122               	readyKeyMappingOnBoot:
 123               	.LFB15:
 124               	.LM21:
 125               	/* prologue: function */
 126               	/* frame size = 0 */
 127               	.LM22:
 128 0062 81E0      		ldi r24,lo8(1)
 129 0064 8093 0000 		sts _keyMappingOnBoot,r24
 130               	/* epilogue start */
 131               	.LM23:
 132 0068 0895      		ret
 133               	.LFE15:
 134               		.size	readyKeyMappingOnBoot, .-readyKeyMappingOnBoot
 135               	.global	setToBootMapper
 136               		.type	setToBootMapper, @function
 137               	setToBootMapper:
 138               	.LFB17:
 139               	.LM24:
 140               	/* prologue: function */
 141               	/* frame size = 0 */
 142               	.LM25:
 143 006a 81E0      		ldi r24,lo8(1)
 144 006c 8093 0000 		sts _isBootMapper,r24
 145               	/* epilogue start */
 146               	.LM26:
 147 0070 0895      		ret
 148               	.LFE17:
 149               		.size	setToBootMapper, .-setToBootMapper
 150               	.global	isBootMapper
 151               		.type	isBootMapper, @function
 152               	isBootMapper:
 153               	.LFB18:
 154               	.LM27:
 155               	/* prologue: function */
 156               	/* frame size = 0 */
 157               	.LM28:
 158 0072 8091 0000 		lds r24,_isBootMapper
 159               	/* epilogue start */
 160 0076 0895      		ret
 161               	.LFE18:
 162               		.size	isBootMapper, .-isBootMapper
 163               	.global	stopKeyMapping
 164               		.type	stopKeyMapping, @function
 165               	stopKeyMapping:
 166               	.LFB21:
 167               	.LM29:
 168               	/* prologue: function */
 169               	/* frame size = 0 */
 170               	.LM30:
 171 0078 1092 0000 		sts _isKeyMapping,__zero_reg__
GAS LISTING C:\Users\ADMINI~1\AppData\Local\Temp/ccEBF6mf.s 			page 4


 172               	.LM31:
 173 007c 1092 0000 		sts _wait,__zero_reg__
 174               	/* epilogue start */
 175               	.LM32:
 176 0080 0895      		ret
 177               	.LFE21:
 178               		.size	stopKeyMapping, .-stopKeyMapping
 179               	.global	isMacroKey
 180               		.type	isMacroKey, @function
 181               	isMacroKey:
 182               	.LFB26:
 183               	.LM33:
 184               	.LVL2:
 185               	/* prologue: function */
 186               	/* frame size = 0 */
 187               	.LM34:
 188 0082 90E0      		ldi r25,lo8(0)
 189 0084 895C      		subi r24,lo8(-(55))
 190               	.LVL3:
 191 0086 8C30      		cpi r24,lo8(12)
 192 0088 00F4      		brsh .L23
 193 008a 91E0      		ldi r25,lo8(1)
 194               	.L23:
 195               	.LM35:
 196 008c 892F      		mov r24,r25
 197               	/* epilogue start */
 198 008e 0895      		ret
 199               	.LFE26:
 200               		.size	isMacroKey, .-isMacroKey
 201               	.global	escapeMacroKeycode
 202               		.type	escapeMacroKeycode, @function
 203               	escapeMacroKeycode:
 204               	.LFB27:
 205               	.LM36:
 206               	.LVL4:
 207               	/* prologue: function */
 208               	/* frame size = 0 */
 209 0090 982F      		mov r25,r24
 210               	.LBB71:
 211               	.LBB72:
 212               	.LM37:
 213 0092 895C      		subi r24,lo8(-(55))
 214               	.LVL5:
 215 0094 8C30      		cpi r24,lo8(12)
 216 0096 00F4      		brsh .L26
 217 0098 90E0      		ldi r25,lo8(0)
 218               	.L26:
 219               	.LBE72:
 220               	.LBE71:
 221               	.LM38:
 222 009a 892F      		mov r24,r25
 223               	/* epilogue start */
 224 009c 0895      		ret
 225               	.LFE27:
 226               		.size	escapeMacroKeycode, .-escapeMacroKeycode
 227               		.type	printEnter, @function
 228               	printEnter:
GAS LISTING C:\Users\ADMINI~1\AppData\Local\Temp/ccEBF6mf.s 			page 5


 229               	.LFB30:
 230               	.LM39:
 231               	/* prologue: function */
 232               	/* frame size = 0 */
 233               	.LM40:
 234 009e 88E2      		ldi r24,lo8(40)
 235 00a0 0E94 0000 		call pushM
 236               	.LM41:
 237 00a4 88E2      		ldi r24,lo8(40)
 238 00a6 0E94 0000 		call pushM
 239               	/* epilogue start */
 240               	.LM42:
 241 00aa 0895      		ret
 242               	.LFE30:
 243               		.size	printEnter, .-printEnter
 244               	.global	resetMacroInput
 245               		.type	resetMacroInput, @function
 246               	resetMacroInput:
 247               	.LFB49:
 248               	.LM43:
 249               	/* prologue: function */
 250               	/* frame size = 0 */
 251               	.LM44:
 252 00ac 80E3      		ldi r24,lo8(48)
 253 00ae E0E0      		ldi r30,lo8(_macroInputBuffer)
 254 00b0 F0E0      		ldi r31,hi8(_macroInputBuffer)
 255 00b2 DF01      		movw r26,r30
 256 00b4 982F      		mov r25,r24
 257 00b6 1D92      		st X+,__zero_reg__
 258 00b8 9A95      	        dec r25
 259 00ba 01F4      		brne .-6
 260               	.LM45:
 261 00bc 1092 0000 		sts _macroBufferIndex,__zero_reg__
 262               	.LM46:
 263 00c0 E0E0      		ldi r30,lo8(_macroPressedBuffer)
 264 00c2 F0E0      		ldi r31,hi8(_macroPressedBuffer)
 265 00c4 DF01      		movw r26,r30
 266 00c6 1D92      		st X+,__zero_reg__
 267 00c8 8A95      	        dec r24
 268 00ca 01F4      		brne .-6
 269               	.LM47:
 270 00cc 1092 0000 		sts _macroDownCount,__zero_reg__
 271               	/* epilogue start */
 272               	.LM48:
 273 00d0 0895      		ret
 274               	.LFE49:
 275               		.size	resetMacroInput, .-resetMacroInput
 276               		.type	pushCharacter, @function
 277               	pushCharacter:
 278               	.LFB29:
 279               	.LM49:
 280               	.LVL6:
 281 00d2 0F93      		push r16
 282 00d4 1F93      		push r17
 283               	/* prologue: function */
 284               	/* frame size = 0 */
 285 00d6 FC01      		movw r30,r24
GAS LISTING C:\Users\ADMINI~1\AppData\Local\Temp/ccEBF6mf.s 			page 6


 286               	.LM50:
 287 00d8 8081      		ld r24,Z
 288               	.LVL7:
 289 00da 0E94 0000 		call charToKey
 290               	.LVL8:
 291 00de 8C01      		movw r16,r24
 292               	.LM51:
 293 00e0 8823      		tst r24
 294               	.LVL9:
 295 00e2 01F0      		breq .L33
 296               	.LM52:
 297 00e4 88E6      		ldi r24,lo8(104)
 298               	.LVL10:
 299 00e6 0E94 0000 		call pushM
 300               	.LVL11:
 301               	.L33:
 302               	.LM53:
 303 00ea 812F      		mov r24,r17
 304               	.LVL12:
 305 00ec 0E94 0000 		call pushM
 306               	.LM54:
 307 00f0 812F      		mov r24,r17
 308 00f2 0E94 0000 		call pushM
 309               	.LM55:
 310 00f6 0023      		tst r16
 311               	.LVL13:
 312 00f8 01F0      		breq .L35
 313               	.LM56:
 314 00fa 88E6      		ldi r24,lo8(104)
 315 00fc 0E94 0000 		call pushM
 316               	.L35:
 317               	/* epilogue start */
 318               	.LM57:
 319 0100 1F91      		pop r17
 320 0102 0F91      		pop r16
 321               	.LVL14:
 322 0104 0895      		ret
 323               	.LFE29:
 324               		.size	pushCharacter, .-pushCharacter
 325               		.data
 326               	.LC0:
 327 0000 2563 00   		.string	"%c"
 328               		.text
 329               		.type	printString, @function
 330               	printString:
 331               	.LFB31:
 332               	.LM58:
 333               	.LVL15:
 334 0106 AF92      		push r10
 335 0108 BF92      		push r11
 336 010a CF92      		push r12
 337 010c DF92      		push r13
 338 010e FF92      		push r15
 339 0110 0F93      		push r16
 340 0112 1F93      		push r17
 341 0114 DF93      		push r29
 342 0116 CF93      		push r28
GAS LISTING C:\Users\ADMINI~1\AppData\Local\Temp/ccEBF6mf.s 			page 7


 343 0118 0F92      		push __tmp_reg__
 344 011a CDB7      		in r28,__SP_L__
 345 011c DEB7      		in r29,__SP_H__
 346               	/* prologue: function */
 347               	/* frame size = 1 */
 348 011e 8C01      		movw r16,r24
 349               	.LM59:
 350 0120 FF24      		clr r15
 351               	.LVL16:
 352               	.LM60:
 353 0122 6E01      		movw r12,r28
 354 0124 0894      		sec
 355 0126 C11C      		adc r12,__zero_reg__
 356 0128 D11C      		adc r13,__zero_reg__
 357 012a 80E0      		ldi r24,lo8(.LC0)
 358 012c A82E      		mov r10,r24
 359 012e 80E0      		ldi r24,hi8(.LC0)
 360 0130 B82E      		mov r11,r24
 361               	.LVL17:
 362 0132 00C0      		rjmp .L37
 363               	.L38:
 364 0134 00D0      		rcall .
 365 0136 00D0      		rcall .
 366 0138 00D0      		rcall .
 367 013a EDB7      		in r30,__SP_L__
 368 013c FEB7      		in r31,__SP_H__
 369 013e 3196      		adiw r30,1
 370 0140 ADB7      		in r26,__SP_L__
 371 0142 BEB7      		in r27,__SP_H__
 372 0144 1296      		adiw r26,1+1
 373 0146 DC92      		st X,r13
 374 0148 CE92      		st -X,r12
 375 014a 1197      		sbiw r26,1
 376 014c B382      		std Z+3,r11
 377 014e A282      		std Z+2,r10
 378 0150 800F      		add r24,r16
 379 0152 911F      		adc r25,r17
 380 0154 DC01      		movw r26,r24
 381 0156 8C91      		ld r24,X
 382 0158 9927      		clr r25
 383 015a 87FD      		sbrc r24,7
 384 015c 9095      		com r25
 385 015e 9583      		std Z+5,r25
 386 0160 8483      		std Z+4,r24
 387 0162 0E94 0000 		call sprintf
 388               	.LM61:
 389 0166 8DB7      		in r24,__SP_L__
 390 0168 9EB7      		in r25,__SP_H__
 391 016a 0696      		adiw r24,6
 392 016c 0FB6      		in __tmp_reg__,__SREG__
 393 016e F894      		cli
 394 0170 9EBF      		out __SP_H__,r25
 395 0172 0FBE      		out __SREG__,__tmp_reg__
 396 0174 8DBF      		out __SP_L__,r24
 397 0176 C601      		movw r24,r12
 398 0178 0E94 0000 		call pushCharacter
 399               	.LM62:
GAS LISTING C:\Users\ADMINI~1\AppData\Local\Temp/ccEBF6mf.s 			page 8


 400 017c F394      		inc r15
 401               	.L37:
 402 017e 8F2D      		mov r24,r15
 403 0180 90E0      		ldi r25,lo8(0)
 404 0182 F801      		movw r30,r16
 405 0184 0190      		ld __tmp_reg__,Z+
 406 0186 0020      		tst __tmp_reg__
 407 0188 01F4      		brne .-6
 408 018a 3197      		sbiw r30,1
 409 018c E01B      		sub r30,r16
 410 018e F10B      		sbc r31,r17
 411 0190 8E17      		cp r24,r30
 412 0192 9F07      		cpc r25,r31
 413 0194 00F0      		brlo .L38
 414               	/* epilogue start */
 415               	.LM63:
 416 0196 0F90      		pop __tmp_reg__
 417 0198 CF91      		pop r28
 418 019a DF91      		pop r29
 419 019c 1F91      		pop r17
 420 019e 0F91      		pop r16
 421               	.LVL18:
 422 01a0 FF90      		pop r15
 423               	.LVL19:
 424 01a2 DF90      		pop r13
 425 01a4 CF90      		pop r12
 426 01a6 BF90      		pop r11
 427 01a8 AF90      		pop r10
 428 01aa 0895      		ret
 429               	.LFE31:
 430               		.size	printString, .-printString
 431               		.data
 432               	.LC1:
 433 0003 2D00      		.string	"-"
 434               	.LC2:
 435 0005 2C00      		.string	","
 436               	.LC3:
 437 0007 3D00      		.string	"="
 438               		.text
 439               	.global	trace
 440               		.type	trace, @function
 441               	trace:
 442               	.LFB19:
 443               	.LM64:
 444               	.LVL20:
 445 01ac 0F93      		push r16
 446 01ae 1F93      		push r17
 447               	/* prologue: function */
 448               	/* frame size = 0 */
 449 01b0 082F      		mov r16,r24
 450 01b2 162F      		mov r17,r22
 451               	.LM65:
 452 01b4 80E0      		ldi r24,lo8(.LC1)
 453 01b6 90E0      		ldi r25,hi8(.LC1)
 454               	.LVL21:
 455 01b8 0E94 0000 		call printString
 456               	.LVL22:
GAS LISTING C:\Users\ADMINI~1\AppData\Local\Temp/ccEBF6mf.s 			page 9


 457               	.LM66:
 458 01bc 812F      		mov r24,r17
 459 01be 0E94 0000 		call toString
 460 01c2 0E94 0000 		call printString
 461               	.LM67:
 462 01c6 80E0      		ldi r24,lo8(.LC2)
 463 01c8 90E0      		ldi r25,hi8(.LC2)
 464 01ca 0E94 0000 		call printString
 465               	.LM68:
 466 01ce 802F      		mov r24,r16
 467 01d0 0E94 0000 		call toString
 468 01d4 0E94 0000 		call printString
 469               	.LM69:
 470 01d8 80E0      		ldi r24,lo8(.LC3)
 471 01da 90E0      		ldi r25,hi8(.LC3)
 472 01dc 0E94 0000 		call printString
 473               	/* epilogue start */
 474               	.LM70:
 475 01e0 1F91      		pop r17
 476               	.LVL23:
 477 01e2 0F91      		pop r16
 478               	.LVL24:
 479 01e4 0895      		ret
 480               	.LFE19:
 481               		.size	trace, .-trace
 482               		.type	printStringFromFlash, @function
 483               	printStringFromFlash:
 484               	.LFB32:
 485               	.LM71:
 486               	.LVL25:
 487 01e6 CF92      		push r12
 488 01e8 DF92      		push r13
 489 01ea EF92      		push r14
 490 01ec FF92      		push r15
 491 01ee 0F93      		push r16
 492 01f0 1F93      		push r17
 493 01f2 DF93      		push r29
 494 01f4 CF93      		push r28
 495 01f6 0F92      		push __tmp_reg__
 496 01f8 CDB7      		in r28,__SP_L__
 497 01fa DEB7      		in r29,__SP_H__
 498               	/* prologue: function */
 499               	/* frame size = 1 */
 500 01fc 8C01      		movw r16,r24
 501               	.LM72:
 502 01fe 0097      		sbiw r24,0
 503 0200 01F4      		brne .L47
 504 0202 00C0      		rjmp .L46
 505               	.LVL26:
 506               	.L45:
 507               	.LM73:
 508 0204 00D0      		rcall .
 509 0206 00D0      		rcall .
 510 0208 00D0      		rcall .
 511 020a EDB7      		in r30,__SP_L__
 512 020c FEB7      		in r31,__SP_H__
 513               	.LVL27:
GAS LISTING C:\Users\ADMINI~1\AppData\Local\Temp/ccEBF6mf.s 			page 10


 514 020e 3196      		adiw r30,1
 515 0210 ADB7      		in r26,__SP_L__
 516 0212 BEB7      		in r27,__SP_H__
 517 0214 1296      		adiw r26,1+1
 518 0216 FC92      		st X,r15
 519 0218 EE92      		st -X,r14
 520 021a 1197      		sbiw r26,1
 521 021c D382      		std Z+3,r13
 522 021e C282      		std Z+2,r12
 523 0220 9927      		clr r25
 524 0222 87FD      		sbrc r24,7
 525 0224 9095      		com r25
 526               	.LVL28:
 527 0226 9583      		std Z+5,r25
 528 0228 8483      		std Z+4,r24
 529 022a 0E94 0000 		call sprintf
 530               	.LVL29:
 531               	.LM74:
 532 022e 8DB7      		in r24,__SP_L__
 533 0230 9EB7      		in r25,__SP_H__
 534 0232 0696      		adiw r24,6
 535 0234 0FB6      		in __tmp_reg__,__SREG__
 536 0236 F894      		cli
 537 0238 9EBF      		out __SP_H__,r25
 538 023a 0FBE      		out __SREG__,__tmp_reg__
 539 023c 8DBF      		out __SP_L__,r24
 540 023e C701      		movw r24,r14
 541 0240 0E94 0000 		call pushCharacter
 542 0244 00C0      		rjmp .L48
 543               	.LVL30:
 544               	.L47:
 545               	.LM75:
 546 0246 7E01      		movw r14,r28
 547 0248 0894      		sec
 548 024a E11C      		adc r14,__zero_reg__
 549 024c F11C      		adc r15,__zero_reg__
 550 024e 90E0      		ldi r25,lo8(.LC0)
 551 0250 C92E      		mov r12,r25
 552 0252 90E0      		ldi r25,hi8(.LC0)
 553 0254 D92E      		mov r13,r25
 554               	.LVL31:
 555               	.L48:
 556               	.LM76:
 557 0256 F801      		movw r30,r16
 558               	.LVL32:
 559               	.LBB73:
 560               	.LM77:
 561 0258 0F5F      		subi r16,lo8(-(1))
 562 025a 1F4F      		sbci r17,hi8(-(1))
 563               	/* #APP */
 564               	 ;  374 "keymapper.c" 1
 565 025c 8491      		lpm r24, Z
 566               		
 567               	 ;  0 "" 2
 568               	.LVL33:
 569               	/* #NOAPP */
 570               	.LBE73:
GAS LISTING C:\Users\ADMINI~1\AppData\Local\Temp/ccEBF6mf.s 			page 11


 571 025e 8823      		tst r24
 572 0260 01F4      		brne .L45
 573               	.LVL34:
 574               	.L46:
 575               	/* epilogue start */
 576               	.LM78:
 577 0262 0F90      		pop __tmp_reg__
 578 0264 CF91      		pop r28
 579 0266 DF91      		pop r29
 580 0268 1F91      		pop r17
 581 026a 0F91      		pop r16
 582               	.LVL35:
 583 026c FF90      		pop r15
 584 026e EF90      		pop r14
 585 0270 DF90      		pop r13
 586 0272 CF90      		pop r12
 587 0274 0895      		ret
 588               	.LFE32:
 589               		.size	printStringFromFlash, .-printStringFromFlash
 590               	.global	resetCurrentLayer
 591               		.type	resetCurrentLayer, @function
 592               	resetCurrentLayer:
 593               	.LFB48:
 594               	.LM79:
 595               	/* prologue: function */
 596               	/* frame size = 0 */
 597               	.LM80:
 598 0276 80E0      		ldi r24,lo8(str_reset_mapping)
 599 0278 90E0      		ldi r25,hi8(str_reset_mapping)
 600 027a 0E94 0000 		call printStringFromFlash
 601               	.LM81:
 602 027e 0E94 0000 		call printEnter
 603 0282 20E0      		ldi r18,lo8(_newKeyMap+8)
 604 0284 30E0      		ldi r19,hi8(_newKeyMap+8)
 605 0286 80E0      		ldi r24,lo8(0)
 606 0288 90E0      		ldi r25,hi8(0)
 607 028a 00C0      		rjmp .L50
 608               	.L51:
 609               	.LM82:
 610 028c 1192      		st Z+,__zero_reg__
 611               	.LM83:
 612 028e E217      		cp r30,r18
 613 0290 F307      		cpc r31,r19
 614 0292 01F4      		brne .L51
 615 0294 0196      		adiw r24,1
 616 0296 9F01      		movw r18,r30
 617 0298 285F      		subi r18,lo8(-(8))
 618 029a 3F4F      		sbci r19,hi8(-(8))
 619               	.LM84:
 620 029c 8131      		cpi r24,17
 621 029e 9105      		cpc r25,__zero_reg__
 622 02a0 01F0      		breq .L52
 623               	.L50:
 624 02a2 FC01      		movw r30,r24
 625 02a4 43E0      		ldi r20,3
 626 02a6 EE0F      	1:	lsl r30
 627 02a8 FF1F      		rol r31
GAS LISTING C:\Users\ADMINI~1\AppData\Local\Temp/ccEBF6mf.s 			page 12


 628 02aa 4A95      		dec r20
 629 02ac 01F4      		brne 1b
 630 02ae E050      		subi r30,lo8(-(_newKeyMap))
 631 02b0 F040      		sbci r31,hi8(-(_newKeyMap))
 632 02b2 00C0      		rjmp .L51
 633               	.L52:
 634               	.LM85:
 635 02b4 81E0      		ldi r24,lo8(1)
 636 02b6 90E0      		ldi r25,hi8(1)
 637 02b8 9093 0000 		sts (_editCount)+1,r25
 638 02bc 8093 0000 		sts _editCount,r24
 639               	/* epilogue start */
 640               	.LM86:
 641 02c0 0895      		ret
 642               	.LFE48:
 643               		.size	resetCurrentLayer, .-resetCurrentLayer
 644               	.global	clearMacro
 645               		.type	clearMacro, @function
 646               	clearMacro:
 647               	.LFB47:
 648               	.LM87:
 649               	/* prologue: function */
 650               	/* frame size = 0 */
 651               	.LM88:
 652 02c2 80E0      		ldi r24,lo8(str_clear_all_macro)
 653 02c4 90E0      		ldi r25,hi8(str_clear_all_macro)
 654 02c6 0E94 0000 		call printStringFromFlash
 655               	.LM89:
 656 02ca 0E94 0000 		call printEnter
 657               	.LM90:
 658 02ce 81E0      		ldi r24,lo8(1)
 659 02d0 8093 0000 		sts _isWorkingForEmpty,r24
 660               	.LM91:
 661 02d4 8CE0      		ldi r24,lo8(12)
 662 02d6 8093 0000 		sts _wait,r24
 663               	.LM92:
 664 02da 1092 0000 		sts _step,__zero_reg__
 665               	/* epilogue start */
 666               	.LM93:
 667 02de 0895      		ret
 668               	.LFE47:
 669               		.size	clearMacro, .-clearMacro
 670               	.global	saveCurrentLayer
 671               		.type	saveCurrentLayer, @function
 672               	saveCurrentLayer:
 673               	.LFB42:
 674               	.LM94:
 675               	/* prologue: function */
 676               	/* frame size = 0 */
 677               	.LM95:
 678 02e0 8091 0000 		lds r24,_editCount
 679 02e4 9091 0000 		lds r25,(_editCount)+1
 680 02e8 892B      		or r24,r25
 681 02ea 01F4      		brne .L58
 682               	.LBB74:
 683               	.LBB75:
 684               	.LM96:
GAS LISTING C:\Users\ADMINI~1\AppData\Local\Temp/ccEBF6mf.s 			page 13


 685 02ec 1092 0000 		sts _isKeyMapping,__zero_reg__
 686               	.LM97:
 687 02f0 1092 0000 		sts _wait,__zero_reg__
 688 02f4 0895      		ret
 689               	.L58:
 690               	.LBE75:
 691               	.LBE74:
 692               	.LM98:
 693 02f6 80E0      		ldi r24,lo8(str_saving)
 694 02f8 90E0      		ldi r25,hi8(str_saving)
 695 02fa 0E94 0000 		call printStringFromFlash
 696               	.LM99:
 697 02fe 0E94 0000 		call printEnter
 698               	.LM100:
 699 0302 81E0      		ldi r24,lo8(1)
 700 0304 8093 0000 		sts _isWorkingForEmpty,r24
 701               	.LM101:
 702 0308 8BE0      		ldi r24,lo8(11)
 703 030a 8093 0000 		sts _wait,r24
 704               	.LM102:
 705 030e 8091 0000 		lds r24,_step
 706 0312 8093 0000 		sts _stepAfterSave,r24
 707               	.LM103:
 708 0316 1092 0000 		sts _step,__zero_reg__
 709 031a 0895      		ret
 710               	.LFE42:
 711               		.size	saveCurrentLayer, .-saveCurrentLayer
 712               	.global	printPrepareString
 713               		.type	printPrepareString, @function
 714               	printPrepareString:
 715               	.LFB38:
 716               	.LM104:
 717               	/* prologue: function */
 718               	/* frame size = 0 */
 719               	.LM105:
 720 031c 80E0      		ldi r24,lo8(str_prepare_message)
 721 031e 90E0      		ldi r25,hi8(str_prepare_message)
 722 0320 0E94 0000 		call printStringFromFlash
 723               	.LM106:
 724 0324 0E94 0000 		call printEnter
 725               	/* epilogue start */
 726               	.LM107:
 727 0328 0895      		ret
 728               	.LFE38:
 729               		.size	printPrepareString, .-printPrepareString
 730               	.global	printMacroMessage
 731               		.type	printMacroMessage, @function
 732               	printMacroMessage:
 733               	.LFB37:
 734               	.LM108:
 735               	/* prologue: function */
 736               	/* frame size = 0 */
 737               	.LM109:
 738 032a 0E94 0000 		call printEnter
 739               	.LM110:
 740 032e 80E0      		ldi r24,lo8(str_macro_message)
 741 0330 90E0      		ldi r25,hi8(str_macro_message)
GAS LISTING C:\Users\ADMINI~1\AppData\Local\Temp/ccEBF6mf.s 			page 14


 742 0332 0E94 0000 		call printStringFromFlash
 743               	.LM111:
 744 0336 0E94 0000 		call printEnter
 745               	.LM112:
 746 033a 80E0      		ldi r24,lo8(str_macro_1)
 747 033c 90E0      		ldi r25,hi8(str_macro_1)
 748 033e 0E94 0000 		call printStringFromFlash
 749               	.LM113:
 750 0342 0E94 0000 		call printEnter
 751               	.LM114:
 752 0346 80E0      		ldi r24,lo8(str_macro_2)
 753 0348 90E0      		ldi r25,hi8(str_macro_2)
 754 034a 0E94 0000 		call printStringFromFlash
 755               	.LM115:
 756 034e 0E94 0000 		call printEnter
 757               	.LM116:
 758 0352 80E0      		ldi r24,lo8(str_back_6)
 759 0354 90E0      		ldi r25,hi8(str_back_6)
 760 0356 0E94 0000 		call printStringFromFlash
 761               	.LM117:
 762 035a 0E94 0000 		call printEnter
 763               	.LM118:
 764 035e 80E0      		ldi r24,lo8(str_macro_9)
 765 0360 90E0      		ldi r25,hi8(str_macro_9)
 766 0362 0E94 0000 		call printStringFromFlash
 767               	.LM119:
 768 0366 0E94 0000 		call printEnter
 769               	.LM120:
 770 036a 87E0      		ldi r24,lo8(7)
 771 036c 8093 0000 		sts _step,r24
 772               	/* epilogue start */
 773               	.LM121:
 774 0370 0895      		ret
 775               	.LFE37:
 776               		.size	printMacroMessage, .-printMacroMessage
 777               		.type	printPrompt, @function
 778               	printPrompt:
 779               	.LFB33:
 780               	.LM122:
 781               	/* prologue: function */
 782               	/* frame size = 0 */
 783               	.LM123:
 784 0372 81E0      		ldi r24,lo8(1)
 785 0374 8093 0000 		sts _isWorkingForEmpty,r24
 786               	.LM124:
 787 0378 8091 0000 		lds r24,_step
 788 037c 8930      		cpi r24,lo8(9)
 789 037e 00F4      		brsh .L79
 790 0380 8730      		cpi r24,lo8(7)
 791 0382 00F4      		brsh .L73
 792 0384 8330      		cpi r24,lo8(3)
 793 0386 01F0      		breq .L69
 794 0388 8430      		cpi r24,lo8(4)
 795 038a 00F4      		brsh .L80
 796 038c 8130      		cpi r24,lo8(1)
 797 038e 01F0      		breq .L67
 798 0390 8230      		cpi r24,lo8(2)
GAS LISTING C:\Users\ADMINI~1\AppData\Local\Temp/ccEBF6mf.s 			page 15


 799 0392 01F0      		breq .+2
 800 0394 00C0      		rjmp .L87
 801 0396 00C0      		rjmp .L92
 802               	.L80:
 803 0398 8530      		cpi r24,lo8(5)
 804 039a 01F0      		breq .L71
 805 039c 8630      		cpi r24,lo8(6)
 806 039e 00F4      		brsh .L72
 807 03a0 00C0      		rjmp .L93
 808               	.L79:
 809 03a2 8B30      		cpi r24,lo8(11)
 810 03a4 01F0      		breq .L76
 811 03a6 8C30      		cpi r24,lo8(12)
 812 03a8 00F4      		brsh .L81
 813 03aa 8930      		cpi r24,lo8(9)
 814 03ac 01F0      		breq .L74
 815 03ae 8A30      		cpi r24,lo8(10)
 816 03b0 01F4      		brne .L87
 817 03b2 00C0      		rjmp .L94
 818               	.L81:
 819 03b4 8436      		cpi r24,lo8(100)
 820 03b6 01F0      		breq .L77
 821 03b8 8E36      		cpi r24,lo8(110)
 822 03ba 01F4      		brne .L87
 823 03bc 00C0      		rjmp .L78
 824               	.L67:
 825               	.LM125:
 826 03be 80E0      		ldi r24,lo8(str_choose_layer)
 827 03c0 90E0      		ldi r25,hi8(str_choose_layer)
 828 03c2 0E94 0000 		call printStringFromFlash
 829               	.LM126:
 830 03c6 8091 0000 		lds r24,_currentLayer
 831 03ca 8F5F      		subi r24,lo8(-(1))
 832 03cc 0E94 0000 		call toString
 833 03d0 0E94 0000 		call printString
 834 03d4 00C0      		rjmp .L90
 835               	.L92:
 836               	.LM127:
 837 03d6 80E0      		ldi r24,lo8(str_choose_key)
 838 03d8 90E0      		ldi r25,hi8(str_choose_key)
 839 03da 00C0      		rjmp .L91
 840               	.L69:
 841               	.LM128:
 842 03dc 80E0      		ldi r24,lo8(str_input_keycode)
 843 03de 90E0      		ldi r25,hi8(str_input_keycode)
 844 03e0 00C0      		rjmp .L88
 845               	.L93:
 846               	.LM129:
 847 03e2 80E0      		ldi r24,lo8(str_save_end_mapping)
 848 03e4 90E0      		ldi r25,hi8(str_save_end_mapping)
 849 03e6 00C0      		rjmp .L89
 850               	.L71:
 851               	.LM130:
 852 03e8 80E0      		ldi r24,lo8(str_cancel_mapping)
 853 03ea 90E0      		ldi r25,hi8(str_cancel_mapping)
 854 03ec 00C0      		rjmp .L89
 855               	.L72:
GAS LISTING C:\Users\ADMINI~1\AppData\Local\Temp/ccEBF6mf.s 			page 16


 856               	.LM131:
 857 03ee 1092 0000 		sts _isWorkingForEmpty,__zero_reg__
 858 03f2 00C0      		rjmp .L87
 859               	.L73:
 860               	.LM132:
 861 03f4 80E0      		ldi r24,lo8(str_input_command)
 862 03f6 90E0      		ldi r25,hi8(str_input_command)
 863               	.L88:
 864 03f8 0E94 0000 		call printStringFromFlash
 865 03fc 00C0      		rjmp .L87
 866               	.L74:
 867               	.LM133:
 868 03fe 80E0      		ldi r24,lo8(str_select_number)
 869 0400 90E0      		ldi r25,hi8(str_select_number)
 870 0402 00C0      		rjmp .L88
 871               	.L94:
 872               	.LM134:
 873 0404 80E0      		ldi r24,lo8(str_exit_macro)
 874 0406 90E0      		ldi r25,hi8(str_exit_macro)
 875 0408 00C0      		rjmp .L89
 876               	.L76:
 877               	.LM135:
 878 040a 80E0      		ldi r24,lo8(str_input_macro)
 879 040c 90E0      		ldi r25,hi8(str_input_macro)
 880               	.L91:
 881 040e 0E94 0000 		call printStringFromFlash
 882               	.L90:
 883               	.LM136:
 884 0412 0E94 0000 		call printEnter
 885 0416 00C0      		rjmp .L87
 886               	.L77:
 887               	.LM137:
 888 0418 80E0      		ldi r24,lo8(str_exit)
 889 041a 90E0      		ldi r25,hi8(str_exit)
 890               	.L89:
 891 041c 0E94 0000 		call printStringFromFlash
 892               	.LM138:
 893 0420 0E94 0000 		call printEnter
 894               	.LM139:
 895 0424 1092 0000 		sts _step,__zero_reg__
 896 0428 00C0      		rjmp .L87
 897               	.L78:
 898               	.LM140:
 899 042a 0E94 0000 		call printSelectMode
 900               	.L87:
 901 042e 88EE      		ldi r24,lo8(1000)
 902 0430 93E0      		ldi r25,hi8(1000)
 903               	.LVL36:
 904               	.LBB76:
 905               	.LBB77:
 906               	.LBB78:
 907               	.LBB79:
 908               	.LM141:
 909 0432 2CE2      		ldi r18,lo8(300)
 910 0434 31E0      		ldi r19,hi8(300)
 911               	.L84:
 912 0436 F901      		movw r30,r18
GAS LISTING C:\Users\ADMINI~1\AppData\Local\Temp/ccEBF6mf.s 			page 17


 913               	.LVL37:
 914               	/* #APP */
 915               	 ;  105 "c:/winavr-20100110/lib/gcc/../../avr/include/util/delay_basic.h" 1
 916 0438 3197      		1: sbiw r30,1
 917 043a 01F4      		brne 1b
 918               	 ;  0 "" 2
 919               	/* #NOAPP */
 920               	.LBE79:
 921               	.LBE78:
 922               	.LM142:
 923 043c 0197      		sbiw r24,1
 924               	.LM143:
 925 043e 01F4      		brne .L84
 926               	/* epilogue start */
 927               	.LBE77:
 928               	.LBE76:
 929               	.LM144:
 930 0440 0895      		ret
 931               	.LFE33:
 932               		.size	printPrompt, .-printPrompt
 933               	.global	printSelectMode
 934               		.type	printSelectMode, @function
 935               	printSelectMode:
 936               	.LFB34:
 937               	.LM145:
 938               	/* prologue: function */
 939               	/* frame size = 0 */
 940               	.LM146:
 941 0442 0E94 0000 		call printEnter
 942               	.LM147:
 943 0446 80E0      		ldi r24,lo8(str_select_mode)
 944 0448 90E0      		ldi r25,hi8(str_select_mode)
 945 044a 0E94 0000 		call printStringFromFlash
 946               	.LM148:
 947 044e 0E94 0000 		call printEnter
 948               	.LM149:
 949 0452 80E0      		ldi r24,lo8(str_select_mode1)
 950 0454 90E0      		ldi r25,hi8(str_select_mode1)
 951 0456 0E94 0000 		call printStringFromFlash
 952               	.LM150:
 953 045a 0E94 0000 		call printEnter
 954               	.LM151:
 955 045e 80E0      		ldi r24,lo8(str_select_mode2)
 956 0460 90E0      		ldi r25,hi8(str_select_mode2)
 957 0462 0E94 0000 		call printStringFromFlash
 958               	.LM152:
 959 0466 0E94 0000 		call printEnter
 960               	.LM153:
 961 046a 80E0      		ldi r24,lo8(str_select_mode3)
 962 046c 90E0      		ldi r25,hi8(str_select_mode3)
 963 046e 0E94 0000 		call printStringFromFlash
 964               	.LM154:
 965 0472 0E94 0000 		call printEnter
 966               	.LM155:
 967 0476 88E0      		ldi r24,lo8(8)
 968 0478 8093 0000 		sts _step,r24
 969               	.LM156:
GAS LISTING C:\Users\ADMINI~1\AppData\Local\Temp/ccEBF6mf.s 			page 18


 970 047c 0E94 0000 		call printPrompt
 971               	/* epilogue start */
 972               	.LM157:
 973 0480 0895      		ret
 974               	.LFE34:
 975               		.size	printSelectMode, .-printSelectMode
 976               	.global	printMapperMessageAfter
 977               		.type	printMapperMessageAfter, @function
 978               	printMapperMessageAfter:
 979               	.LFB35:
 980               	.LM158:
 981               	/* prologue: function */
 982               	/* frame size = 0 */
 983               	.LM159:
 984 0482 0E94 0000 		call printEnter
 985               	.LM160:
 986 0486 80E0      		ldi r24,lo8(str_mapper_3)
 987 0488 90E0      		ldi r25,hi8(str_mapper_3)
 988 048a 0E94 0000 		call printStringFromFlash
 989               	.LM161:
 990 048e 0E94 0000 		call printEnter
 991               	.LM162:
 992 0492 80E0      		ldi r24,lo8(str_mapper_4)
 993 0494 90E0      		ldi r25,hi8(str_mapper_4)
 994 0496 0E94 0000 		call printStringFromFlash
 995               	.LM163:
 996 049a 0E94 0000 		call printEnter
 997               	.LM164:
 998 049e 80E0      		ldi r24,lo8(str_back_6)
 999 04a0 90E0      		ldi r25,hi8(str_back_6)
 1000 04a2 0E94 0000 		call printStringFromFlash
 1001               	.LM165:
 1002 04a6 0E94 0000 		call printEnter
 1003               	.LM166:
 1004 04aa 80E0      		ldi r24,lo8(str_mapper_9)
 1005 04ac 90E0      		ldi r25,hi8(str_mapper_9)
 1006 04ae 0E94 0000 		call printStringFromFlash
 1007               	.LM167:
 1008 04b2 0E94 0000 		call printEnter
 1009               	.LM168:
 1010 04b6 87E0      		ldi r24,lo8(7)
 1011 04b8 8093 0000 		sts _step,r24
 1012               	.LM169:
 1013 04bc 0E94 0000 		call printPrompt
 1014               	/* epilogue start */
 1015               	.LM170:
 1016 04c0 0895      		ret
 1017               	.LFE35:
 1018               		.size	printMapperMessageAfter, .-printMapperMessageAfter
 1019               	.global	clearMacroAfter
 1020               		.type	clearMacroAfter, @function
 1021               	clearMacroAfter:
 1022               	.LFB46:
 1023               	.LM171:
 1024 04c2 CF93      		push r28
 1025 04c4 DF93      		push r29
 1026               	/* prologue: function */
GAS LISTING C:\Users\ADMINI~1\AppData\Local\Temp/ccEBF6mf.s 			page 19


 1027               	/* frame size = 0 */
 1028               	.LM172:
 1029 04c6 C5EA      		ldi r28,lo8(421)
 1030 04c8 D1E0      		ldi r29,hi8(421)
 1031               	.L100:
 1032               	.LM173:
 1033 04ca CE01      		movw r24,r28
 1034 04cc 60E0      		ldi r22,lo8(0)
 1035 04ce 0E94 0000 		call __eewr_byte_m32
 1036 04d2 2196      		adiw r28,1
 1037               	.LM174:
 1038 04d4 83E0      		ldi r24,hi8(997)
 1039 04d6 C53E      		cpi r28,lo8(997)
 1040 04d8 D807      		cpc r29,r24
 1041 04da 01F4      		brne .L100
 1042               	.LM175:
 1043 04dc 87E0      		ldi r24,lo8(7)
 1044 04de 8093 0000 		sts _step,r24
 1045               	.LM176:
 1046 04e2 0E94 0000 		call printPrompt
 1047               	/* epilogue start */
 1048               	.LM177:
 1049 04e6 DF91      		pop r29
 1050 04e8 CF91      		pop r28
 1051 04ea 0895      		ret
 1052               	.LFE46:
 1053               		.size	clearMacroAfter, .-clearMacroAfter
 1054               	.global	saveMacro
 1055               		.type	saveMacro, @function
 1056               	saveMacro:
 1057               	.LFB45:
 1058               	.LM178:
 1059 04ec 1F93      		push r17
 1060 04ee CF93      		push r28
 1061 04f0 DF93      		push r29
 1062               	/* prologue: function */
 1063               	/* frame size = 0 */
 1064               	.LM179:
 1065 04f2 8091 0000 		lds r24,_macroIndex
 1066 04f6 8C30      		cpi r24,lo8(12)
 1067 04f8 00F4      		brsh .L106
 1068 04fa C0E0      		ldi r28,lo8(0)
 1069 04fc D0E0      		ldi r29,hi8(0)
 1070               	.LM180:
 1071 04fe 10E3      		ldi r17,lo8(48)
 1072               	.L105:
 1073 0500 8091 0000 		lds r24,_macroIndex
 1074 0504 819F      		mul r24,r17
 1075 0506 C001      		movw r24,r0
 1076 0508 1124      		clr r1
 1077 050a 8B55      		subi r24,lo8(-(421))
 1078 050c 9E4F      		sbci r25,hi8(-(421))
 1079 050e FE01      		movw r30,r28
 1080 0510 E050      		subi r30,lo8(-(_macroInputBuffer))
 1081 0512 F040      		sbci r31,hi8(-(_macroInputBuffer))
 1082 0514 8C0F      		add r24,r28
 1083 0516 9D1F      		adc r25,r29
GAS LISTING C:\Users\ADMINI~1\AppData\Local\Temp/ccEBF6mf.s 			page 20


 1084 0518 6081      		ld r22,Z
 1085 051a 0E94 0000 		call __eewr_byte_m32
 1086 051e 2196      		adiw r28,1
 1087               	.LM181:
 1088 0520 C033      		cpi r28,48
 1089 0522 D105      		cpc r29,__zero_reg__
 1090 0524 01F4      		brne .L105
 1091               	.LM182:
 1092 0526 8FEF      		ldi r24,lo8(-1)
 1093 0528 8093 0000 		sts _macroIndex,r24
 1094               	.L106:
 1095               	/* epilogue start */
 1096               	.LM183:
 1097 052c DF91      		pop r29
 1098 052e CF91      		pop r28
 1099 0530 1F91      		pop r17
 1100 0532 0895      		ret
 1101               	.LFE45:
 1102               		.size	saveMacro, .-saveMacro
 1103               	.global	readMacro
 1104               		.type	readMacro, @function
 1105               	readMacro:
 1106               	.LFB44:
 1107               	.LM184:
 1108               	.LVL38:
 1109 0534 0F93      		push r16
 1110 0536 1F93      		push r17
 1111 0538 CF93      		push r28
 1112 053a DF93      		push r29
 1113               	/* prologue: function */
 1114               	/* frame size = 0 */
 1115 053c 982F      		mov r25,r24
 1116               	.LM185:
 1117 053e 8C30      		cpi r24,lo8(12)
 1118 0540 00F4      		brsh .L112
 1119               	.LM186:
 1120 0542 80E3      		ldi r24,lo8(48)
 1121               	.LVL39:
 1122 0544 989F      		mul r25,r24
 1123 0546 C001      		movw r24,r0
 1124 0548 1124      		clr r1
 1125 054a EC01      		movw r28,r24
 1126 054c CB55      		subi r28,lo8(-(421))
 1127 054e DE4F      		sbci r29,hi8(-(421))
 1128               	.LM187:
 1129 0550 8C01      		movw r16,r24
 1130 0552 0B52      		subi r16,lo8(-(469))
 1131 0554 1E4F      		sbci r17,hi8(-(469))
 1132               	.LVL40:
 1133               	.L111:
 1134               	.LM188:
 1135 0556 CE01      		movw r24,r28
 1136 0558 0E94 0000 		call __eerd_byte_m32
 1137               	.LVL41:
 1138 055c 982F      		mov r25,r24
 1139               	.LVL42:
 1140               	.LM189:
GAS LISTING C:\Users\ADMINI~1\AppData\Local\Temp/ccEBF6mf.s 			page 21


 1141 055e 8150      		subi r24,lo8(-(-1))
 1142 0560 8E3F      		cpi r24,lo8(-2)
 1143 0562 00F4      		brsh .L110
 1144               	.LM190:
 1145 0564 892F      		mov r24,r25
 1146 0566 0E94 0000 		call pushM
 1147               	.LVL43:
 1148               	.L110:
 1149 056a 2196      		adiw r28,1
 1150               	.LM191:
 1151 056c C017      		cp r28,r16
 1152 056e D107      		cpc r29,r17
 1153 0570 01F4      		brne .L111
 1154               	.LVL44:
 1155               	.L112:
 1156               	/* epilogue start */
 1157               	.LM192:
 1158 0572 DF91      		pop r29
 1159 0574 CF91      		pop r28
 1160 0576 1F91      		pop r17
 1161 0578 0F91      		pop r16
 1162 057a 0895      		ret
 1163               	.LFE44:
 1164               		.size	readMacro, .-readMacro
 1165               	.global	loadCurrentLayer
 1166               		.type	loadCurrentLayer, @function
 1167               	loadCurrentLayer:
 1168               	.LFB39:
 1169               	.LM193:
 1170 057c CF92      		push r12
 1171 057e DF92      		push r13
 1172 0580 EF92      		push r14
 1173 0582 FF92      		push r15
 1174 0584 0F93      		push r16
 1175 0586 1F93      		push r17
 1176 0588 CF93      		push r28
 1177 058a DF93      		push r29
 1178               	/* prologue: function */
 1179               	/* frame size = 0 */
 1180               	.LM194:
 1181 058c 9091 0000 		lds r25,_currentLayer
 1182 0590 88E8      		ldi r24,lo8(-120)
 1183 0592 989F      		mul r25,r24
 1184 0594 7001      		movw r14,r0
 1185 0596 1124      		clr r1
 1186 0598 8DE0      		ldi r24,lo8(13)
 1187 059a 90E0      		ldi r25,hi8(13)
 1188 059c E80E      		add r14,r24
 1189 059e F91E      		adc r15,r25
 1190 05a0 CC24      		clr r12
 1191 05a2 DD24      		clr r13
 1192 05a4 00C0      		rjmp .L115
 1193               	.L116:
 1194               	.LM195:
 1195 05a6 CE01      		movw r24,r28
 1196 05a8 8E0D      		add r24,r14
 1197 05aa 9F1D      		adc r25,r15
GAS LISTING C:\Users\ADMINI~1\AppData\Local\Temp/ccEBF6mf.s 			page 22


 1198 05ac 0E94 0000 		call __eerd_byte_m32
 1199 05b0 F801      		movw r30,r16
 1200 05b2 8193      		st Z+,r24
 1201 05b4 8F01      		movw r16,r30
 1202 05b6 2196      		adiw r28,1
 1203               	.LM196:
 1204 05b8 C830      		cpi r28,8
 1205 05ba D105      		cpc r29,__zero_reg__
 1206 05bc 01F4      		brne .L116
 1207 05be 0894      		sec
 1208 05c0 C11C      		adc r12,__zero_reg__
 1209 05c2 D11C      		adc r13,__zero_reg__
 1210 05c4 88E0      		ldi r24,lo8(8)
 1211 05c6 90E0      		ldi r25,hi8(8)
 1212 05c8 E80E      		add r14,r24
 1213 05ca F91E      		adc r15,r25
 1214               	.LM197:
 1215 05cc 91E1      		ldi r25,lo8(17)
 1216 05ce C916      		cp r12,r25
 1217 05d0 D104      		cpc r13,__zero_reg__
 1218 05d2 01F0      		breq .L117
 1219               	.L115:
 1220 05d4 8601      		movw r16,r12
 1221 05d6 53E0      		ldi r21,3
 1222 05d8 000F      	1:	lsl r16
 1223 05da 111F      		rol r17
 1224 05dc 5A95      		dec r21
 1225 05de 01F4      		brne 1b
 1226 05e0 0050      		subi r16,lo8(-(_newKeyMap))
 1227 05e2 1040      		sbci r17,hi8(-(_newKeyMap))
 1228 05e4 C0E0      		ldi r28,lo8(0)
 1229 05e6 D0E0      		ldi r29,hi8(0)
 1230 05e8 00C0      		rjmp .L116
 1231               	.L117:
 1232               	.LM198:
 1233 05ea 1092 0000 		sts (_editCount)+1,__zero_reg__
 1234 05ee 1092 0000 		sts _editCount,__zero_reg__
 1235               	/* epilogue start */
 1236               	.LM199:
 1237 05f2 DF91      		pop r29
 1238 05f4 CF91      		pop r28
 1239 05f6 1F91      		pop r17
 1240 05f8 0F91      		pop r16
 1241 05fa FF90      		pop r15
 1242 05fc EF90      		pop r14
 1243 05fe DF90      		pop r13
 1244 0600 CF90      		pop r12
 1245 0602 0895      		ret
 1246               	.LFE39:
 1247               		.size	loadCurrentLayer, .-loadCurrentLayer
 1248               		.data
 1249               	.LC4:
 1250 0009 2564 00   		.string	"%d"
 1251               	.LC5:
 1252 000c 2C20 00   		.string	", "
 1253               	.LC6:
 1254 000f 2028 6C61 		.string	" (layer="
GAS LISTING C:\Users\ADMINI~1\AppData\Local\Temp/ccEBF6mf.s 			page 23


 1254      7965 723D 
 1254      00
 1255               	.LC7:
 1256 0018 2064 6566 		.string	" default="
 1256      6175 6C74 
 1256      3D00 
 1257               	.LC8:
 1258 0022 206D 6170 		.string	" mapping="
 1258      7069 6E67 
 1258      3D00 
 1259               	.LC9:
 1260 002c 2900      		.string	")"
 1261               		.text
 1262               	.global	putKeyCode
 1263               		.type	putKeyCode, @function
 1264               	putKeyCode:
 1265               	.LFB50:
 1266               	.LM200:
 1267               	.LVL45:
 1268 0604 AF92      		push r10
 1269 0606 BF92      		push r11
 1270 0608 CF92      		push r12
 1271 060a DF92      		push r13
 1272 060c EF92      		push r14
 1273 060e FF92      		push r15
 1274 0610 0F93      		push r16
 1275 0612 1F93      		push r17
 1276 0614 DF93      		push r29
 1277 0616 CF93      		push r28
 1278 0618 00D0      		rcall .
 1279 061a 0F92      		push __tmp_reg__
 1280 061c CDB7      		in r28,__SP_L__
 1281 061e DEB7      		in r29,__SP_H__
 1282               	/* prologue: function */
 1283               	/* frame size = 3 */
 1284 0620 D82E      		mov r13,r24
 1285 0622 B62E      		mov r11,r22
 1286 0624 A42E      		mov r10,r20
 1287 0626 C22E      		mov r12,r18
 1288               	.LM201:
 1289 0628 8091 0000 		lds r24,_isWorkingForEmpty
 1290               	.LVL46:
 1291 062c 8823      		tst r24
 1292 062e 01F0      		breq .+2
 1293 0630 00C0      		rjmp .L161
 1294               	.LVL47:
 1295               	.LM202:
 1296 0632 8091 0000 		lds r24,_step
 1297 0636 8B30      		cpi r24,lo8(11)
 1298 0638 01F0      		breq .L122
 1299 063a 2223      		tst r18
 1300 063c 01F0      		breq .+2
 1301 063e 00C0      		rjmp .L161
 1302               	.L122:
 1303               	.LM203:
 1304 0640 80E0      		ldi r24,lo8(usingKeys)
 1305 0642 90E0      		ldi r25,hi8(usingKeys)
GAS LISTING C:\Users\ADMINI~1\AppData\Local\Temp/ccEBF6mf.s 			page 24


 1306 0644 6BE0      		ldi r22,lo8(11)
 1307 0646 4D2D      		mov r20,r13
 1308 0648 0E94 0000 		call findIndex
 1309 064c 7C01      		movw r14,r24
 1310               	.LVL48:
 1311               	.LM204:
 1312 064e 9091 0000 		lds r25,_step
 1313 0652 9B30      		cpi r25,lo8(11)
 1314 0654 01F0      		breq .+2
 1315 0656 00C0      		rjmp .L123
 1316               	.LM205:
 1317 0658 8091 0000 		lds r24,_isTiredEscapeKey
 1318 065c 8823      		tst r24
 1319 065e 01F0      		breq .L124
 1320               	.LM206:
 1321 0660 1092 0000 		sts _isPressedEscapeKey,__zero_reg__
 1322               	.LM207:
 1323 0664 1092 0000 		sts _isTiredEscapeKey,__zero_reg__
 1324               	.LM208:
 1325 0668 8D2D      		mov r24,r13
 1326 066a 0E94 0000 		call pushM
 1327               	.LM209:
 1328 066e E091 0000 		lds r30,_macroBufferIndex
 1329 0672 F0E0      		ldi r31,lo8(0)
 1330 0674 E050      		subi r30,lo8(-(_macroInputBuffer-1))
 1331 0676 F040      		sbci r31,hi8(-(_macroInputBuffer-1))
 1332 0678 1082      		st Z,__zero_reg__
 1333               	.LM210:
 1334 067a 0E94 0000 		call saveMacro
 1335               	.LM211:
 1336 067e 87E0      		ldi r24,lo8(7)
 1337 0680 8093 0000 		sts _step,r24
 1338 0684 00C0      		rjmp .L170
 1339               	.L124:
 1340               	.LM212:
 1341 0686 CC20      		tst r12
 1342 0688 01F0      		breq .L125
 1343               	.LM213:
 1344 068a 8091 0000 		lds r24,_macroDownCount
 1345 068e 8831      		cpi r24,lo8(24)
 1346 0690 00F0      		brlo .+2
 1347 0692 00C0      		rjmp .L161
 1348               	.LM214:
 1349 0694 8F5F      		subi r24,lo8(-(1))
 1350 0696 8093 0000 		sts _macroDownCount,r24
 1351               	.LM215:
 1352 069a 80E0      		ldi r24,lo8(_macroPressedBuffer)
 1353 069c 90E0      		ldi r25,hi8(_macroPressedBuffer)
 1354 069e 6D2D      		mov r22,r13
 1355 06a0 0E94 0000 		call append
 1356 06a4 00C0      		rjmp .L126
 1357               	.L125:
 1358               	.LM216:
 1359 06a6 00E0      		ldi r16,lo8(_macroPressedBuffer)
 1360 06a8 10E0      		ldi r17,hi8(_macroPressedBuffer)
 1361 06aa F801      		movw r30,r16
 1362 06ac 0190      		ld __tmp_reg__,Z+
GAS LISTING C:\Users\ADMINI~1\AppData\Local\Temp/ccEBF6mf.s 			page 25


 1363 06ae 0020      		tst __tmp_reg__
 1364 06b0 01F4      		brne .-6
 1365 06b2 3197      		sbiw r30,1
 1366 06b4 E01B      		sub r30,r16
 1367 06b6 F10B      		sbc r31,r17
 1368               	.LM217:
 1369 06b8 C801      		movw r24,r16
 1370 06ba 6E2F      		mov r22,r30
 1371 06bc 4D2D      		mov r20,r13
 1372 06be 0E94 0000 		call findIndex
 1373 06c2 BC01      		movw r22,r24
 1374               	.LVL49:
 1375               	.LM218:
 1376 06c4 8FEF      		ldi r24,hi8(-1)
 1377 06c6 6F3F      		cpi r22,lo8(-1)
 1378 06c8 7807      		cpc r23,r24
 1379 06ca 01F4      		brne .+2
 1380 06cc 00C0      		rjmp .L161
 1381               	.LM219:
 1382 06ce C801      		movw r24,r16
 1383 06d0 0E94 0000 		call delete
 1384               	.LVL50:
 1385               	.L126:
 1386               	.LM220:
 1387 06d4 8091 0000 		lds r24,_macroBufferIndex
 1388 06d8 E82F      		mov r30,r24
 1389 06da F0E0      		ldi r31,lo8(0)
 1390 06dc E050      		subi r30,lo8(-(_macroInputBuffer))
 1391 06de F040      		sbci r31,hi8(-(_macroInputBuffer))
 1392 06e0 D082      		st Z,r13
 1393               	.LM221:
 1394 06e2 8F5F      		subi r24,lo8(-(1))
 1395 06e4 8093 0000 		sts _macroBufferIndex,r24
 1396               	.LM222:
 1397 06e8 8D2D      		mov r24,r13
 1398 06ea 0E94 0000 		call pushM
 1399               	.LM223:
 1400 06ee 8091 0000 		lds r24,_macroBufferIndex
 1401 06f2 8033      		cpi r24,lo8(48)
 1402 06f4 00F0      		brlo .L127
 1403               	.LM224:
 1404 06f6 87E0      		ldi r24,lo8(7)
 1405 06f8 8093 0000 		sts _step,r24
 1406               	.LM225:
 1407 06fc 0E94 0000 		call saveMacro
 1408 0700 00C0      		rjmp .L170
 1409               	.L127:
 1410               	.LM226:
 1411 0702 CC20      		tst r12
 1412 0704 01F0      		breq .L128
 1413 0706 A0E0      		ldi r26,lo8(usingKeys)
 1414 0708 B0E0      		ldi r27,hi8(usingKeys)
 1415 070a EA0E      		add r14,r26
 1416 070c FB1E      		adc r15,r27
 1417 070e F701      		movw r30,r14
 1418 0710 8081      		ld r24,Z
 1419 0712 8932      		cpi r24,lo8(41)
GAS LISTING C:\Users\ADMINI~1\AppData\Local\Temp/ccEBF6mf.s 			page 26


 1420 0714 01F4      		brne .L128
 1421               	.LM227:
 1422 0716 81E0      		ldi r24,lo8(1)
 1423 0718 8093 0000 		sts _isPressedEscapeKey,r24
 1424               	.LM228:
 1425 071c 1092 0000 		sts (_pressedEscapeKeyCount)+1,__zero_reg__
 1426 0720 1092 0000 		sts _pressedEscapeKeyCount,__zero_reg__
 1427 0724 00C0      		rjmp .L161
 1428               	.L128:
 1429               	.LM229:
 1430 0726 1092 0000 		sts _isPressedEscapeKey,__zero_reg__
 1431               	.LM230:
 1432 072a 1092 0000 		sts _isTiredEscapeKey,__zero_reg__
 1433 072e 00C0      		rjmp .L161
 1434               	.L123:
 1435               	.LM231:
 1436 0730 892F      		mov r24,r25
 1437 0732 8750      		subi r24,lo8(-(-7))
 1438 0734 8230      		cpi r24,lo8(2)
 1439 0736 00F0      		brlo .+2
 1440 0738 00C0      		rjmp .L129
 1441               	.LM232:
 1442 073a FAE0      		ldi r31,lo8(10)
 1443 073c EF16      		cp r14,r31
 1444 073e F104      		cpc r15,__zero_reg__
 1445 0740 00F0      		brlo .+2
 1446 0742 00C0      		rjmp .L161
 1447               	.LM233:
 1448 0744 E091 0000 		lds r30,_bufferIndex
 1449 0748 F0E0      		ldi r31,lo8(0)
 1450 074a E050      		subi r30,lo8(-(_buffer))
 1451 074c F040      		sbci r31,hi8(-(_buffer))
 1452 074e E082      		st Z,r14
 1453               	.LM234:
 1454 0750 00D0      		rcall .
 1455 0752 00D0      		rcall .
 1456 0754 00D0      		rcall .
 1457 0756 EDB7      		in r30,__SP_L__
 1458 0758 FEB7      		in r31,__SP_H__
 1459 075a 3196      		adiw r30,1
 1460 075c 8E01      		movw r16,r28
 1461 075e 0F5F      		subi r16,lo8(-(1))
 1462 0760 1F4F      		sbci r17,hi8(-(1))
 1463 0762 ADB7      		in r26,__SP_L__
 1464 0764 BEB7      		in r27,__SP_H__
 1465 0766 1296      		adiw r26,1+1
 1466 0768 1C93      		st X,r17
 1467 076a 0E93      		st -X,r16
 1468 076c 1197      		sbiw r26,1
 1469 076e 80E0      		ldi r24,lo8(.LC4)
 1470 0770 90E0      		ldi r25,hi8(.LC4)
 1471 0772 9383      		std Z+3,r25
 1472 0774 8283      		std Z+2,r24
 1473 0776 F582      		std Z+5,r15
 1474 0778 E482      		std Z+4,r14
 1475 077a 0E94 0000 		call sprintf
 1476               	.LM235:
GAS LISTING C:\Users\ADMINI~1\AppData\Local\Temp/ccEBF6mf.s 			page 27


 1477 077e EDB7      		in r30,__SP_L__
 1478 0780 FEB7      		in r31,__SP_H__
 1479 0782 3696      		adiw r30,6
 1480 0784 0FB6      		in __tmp_reg__,__SREG__
 1481 0786 F894      		cli
 1482 0788 FEBF      		out __SP_H__,r31
 1483 078a 0FBE      		out __SREG__,__tmp_reg__
 1484 078c EDBF      		out __SP_L__,r30
 1485 078e C801      		movw r24,r16
 1486 0790 0E94 0000 		call printString
 1487               	.LM236:
 1488 0794 0E94 0000 		call printEnter
 1489               	.LM237:
 1490 0798 0091 0000 		lds r16,_buffer
 1491               	.LVL51:
 1492               	.LM238:
 1493 079c 8091 0000 		lds r24,_step
 1494 07a0 8830      		cpi r24,lo8(8)
 1495 07a2 01F4      		brne .L130
 1496               	.LM239:
 1497 07a4 0130      		cpi r16,lo8(1)
 1498 07a6 01F4      		brne .L131
 1499               	.LM240:
 1500 07a8 0093 0000 		sts _mode,r16
 1501               	.LBB80:
 1502               	.LBB81:
 1503               	.LM241:
 1504 07ac 0E94 0000 		call printEnter
 1505               	.LM242:
 1506 07b0 80E0      		ldi r24,lo8(str_mapper_message)
 1507 07b2 90E0      		ldi r25,hi8(str_mapper_message)
 1508 07b4 0E94 0000 		call printStringFromFlash
 1509               	.LM243:
 1510 07b8 0E94 0000 		call printEnter
 1511               	.LM244:
 1512 07bc 80E0      		ldi r24,lo8(str_mapper_1)
 1513 07be 90E0      		ldi r25,hi8(str_mapper_1)
 1514 07c0 0E94 0000 		call printStringFromFlash
 1515               	.LM245:
 1516 07c4 0E94 0000 		call printEnter
 1517               	.LM246:
 1518 07c8 80E0      		ldi r24,lo8(str_mapper_2)
 1519 07ca 90E0      		ldi r25,hi8(str_mapper_2)
 1520 07cc 0E94 0000 		call printStringFromFlash
 1521               	.LM247:
 1522 07d0 0093 0000 		sts _isWorkingForEmpty,r16
 1523               	.LM248:
 1524 07d4 8AE0      		ldi r24,lo8(10)
 1525 07d6 8093 0000 		sts _wait,r24
 1526               	.LM249:
 1527 07da 1092 0000 		sts _step,__zero_reg__
 1528 07de 00C0      		rjmp .L167
 1529               	.L131:
 1530               	.LBE81:
 1531               	.LBE80:
 1532               	.LM250:
 1533 07e0 0230      		cpi r16,lo8(2)
GAS LISTING C:\Users\ADMINI~1\AppData\Local\Temp/ccEBF6mf.s 			page 28


 1534 07e2 01F4      		brne .L133
 1535               	.LM251:
 1536 07e4 0093 0000 		sts _mode,r16
 1537               	.LM252:
 1538 07e8 0E94 0000 		call printMacroMessage
 1539 07ec 00C0      		rjmp .L167
 1540               	.L133:
 1541               	.LM253:
 1542 07ee 0330      		cpi r16,lo8(3)
 1543 07f0 01F0      		breq .+2
 1544 07f2 00C0      		rjmp .L167
 1545               	.LM254:
 1546 07f4 0093 0000 		sts _mode,r16
 1547               	.LM255:
 1548 07f8 84E6      		ldi r24,lo8(100)
 1549 07fa 00C0      		rjmp .L166
 1550               	.L130:
 1551               	.LM256:
 1552 07fc 0630      		cpi r16,lo8(6)
 1553 07fe 01F4      		brne .L134
 1554               	.LM257:
 1555 0800 8EE6      		ldi r24,lo8(110)
 1556 0802 8093 0000 		sts _step,r24
 1557               	.L134:
 1558               	.LM258:
 1559 0806 8091 0000 		lds r24,_mode
 1560 080a 8130      		cpi r24,lo8(1)
 1561 080c 01F4      		brne .L135
 1562               	.LM259:
 1563 080e 0130      		cpi r16,lo8(1)
 1564 0810 01F0      		breq .L164
 1565               	.L136:
 1566               	.LM260:
 1567 0812 0230      		cpi r16,lo8(2)
 1568 0814 01F4      		brne .L137
 1569               	.L164:
 1570               	.LM261:
 1571 0816 0093 0000 		sts _step,r16
 1572 081a 00C0      		rjmp .L167
 1573               	.L137:
 1574               	.LM262:
 1575 081c 0330      		cpi r16,lo8(3)
 1576 081e 01F4      		brne .L138
 1577               	.LM263:
 1578 0820 84E0      		ldi r24,lo8(4)
 1579 0822 8093 0000 		sts _step,r24
 1580               	.LM264:
 1581 0826 0E94 0000 		call saveCurrentLayer
 1582 082a 00C0      		rjmp .L167
 1583               	.L138:
 1584               	.LM265:
 1585 082c 0430      		cpi r16,lo8(4)
 1586 082e 01F4      		brne .L139
 1587               	.LM266:
 1588 0830 85E0      		ldi r24,lo8(5)
 1589 0832 00C0      		rjmp .L166
 1590               	.L139:
GAS LISTING C:\Users\ADMINI~1\AppData\Local\Temp/ccEBF6mf.s 			page 29


 1591               	.LM267:
 1592 0834 0930      		cpi r16,lo8(9)
 1593 0836 01F0      		breq .+2
 1594 0838 00C0      		rjmp .L167
 1595               	.LM268:
 1596 083a 0E94 0000 		call resetCurrentLayer
 1597 083e 00C0      		rjmp .L171
 1598               	.L135:
 1599               	.LM269:
 1600 0840 8230      		cpi r24,lo8(2)
 1601 0842 01F0      		breq .+2
 1602 0844 00C0      		rjmp .L167
 1603               	.LM270:
 1604 0846 0130      		cpi r16,lo8(1)
 1605 0848 01F4      		brne .L140
 1606               	.LM271:
 1607 084a 89E0      		ldi r24,lo8(9)
 1608 084c 00C0      		rjmp .L168
 1609               	.L140:
 1610               	.LM272:
 1611 084e 0230      		cpi r16,lo8(2)
 1612 0850 01F4      		brne .L141
 1613               	.LM273:
 1614 0852 8AE0      		ldi r24,lo8(10)
 1615               	.L166:
 1616 0854 8093 0000 		sts _step,r24
 1617               	.LBB82:
 1618               	.LBB83:
 1619               	.LM274:
 1620 0858 1092 0000 		sts _isKeyMapping,__zero_reg__
 1621               	.LM275:
 1622 085c 1092 0000 		sts _wait,__zero_reg__
 1623 0860 00C0      		rjmp .L167
 1624               	.L141:
 1625               	.LBE83:
 1626               	.LBE82:
 1627               	.LM276:
 1628 0862 0930      		cpi r16,lo8(9)
 1629 0864 01F0      		breq .+2
 1630 0866 00C0      		rjmp .L167
 1631               	.LM277:
 1632 0868 8CE0      		ldi r24,lo8(12)
 1633 086a 8093 0000 		sts _step,r24
 1634               	.LM278:
 1635 086e 0E94 0000 		call clearMacro
 1636 0872 00C0      		rjmp .L167
 1637               	.LVL52:
 1638               	.L129:
 1639               	.LM279:
 1640 0874 9230      		cpi r25,lo8(2)
 1641 0876 01F0      		breq .L142
 1642               	.LM280:
 1643 0878 FAE0      		ldi r31,lo8(10)
 1644 087a EF16      		cp r14,r31
 1645 087c F104      		cpc r15,__zero_reg__
 1646 087e 00F0      		brlo .+2
 1647 0880 00C0      		rjmp .L161
GAS LISTING C:\Users\ADMINI~1\AppData\Local\Temp/ccEBF6mf.s 			page 30


 1648               	.LM281:
 1649 0882 8091 0000 		lds r24,_bufferIndex
 1650 0886 E82F      		mov r30,r24
 1651 0888 F0E0      		ldi r31,lo8(0)
 1652 088a E050      		subi r30,lo8(-(_buffer))
 1653 088c F040      		sbci r31,hi8(-(_buffer))
 1654 088e E082      		st Z,r14
 1655               	.LM282:
 1656 0890 8F5F      		subi r24,lo8(-(1))
 1657 0892 8093 0000 		sts _bufferIndex,r24
 1658               	.LM283:
 1659 0896 00D0      		rcall .
 1660 0898 00D0      		rcall .
 1661 089a 00D0      		rcall .
 1662 089c EDB7      		in r30,__SP_L__
 1663 089e FEB7      		in r31,__SP_H__
 1664 08a0 3196      		adiw r30,1
 1665 08a2 8E01      		movw r16,r28
 1666 08a4 0F5F      		subi r16,lo8(-(1))
 1667 08a6 1F4F      		sbci r17,hi8(-(1))
 1668 08a8 ADB7      		in r26,__SP_L__
 1669 08aa BEB7      		in r27,__SP_H__
 1670 08ac 1296      		adiw r26,1+1
 1671 08ae 1C93      		st X,r17
 1672 08b0 0E93      		st -X,r16
 1673 08b2 1197      		sbiw r26,1
 1674 08b4 80E0      		ldi r24,lo8(.LC4)
 1675 08b6 90E0      		ldi r25,hi8(.LC4)
 1676 08b8 9383      		std Z+3,r25
 1677 08ba 8283      		std Z+2,r24
 1678 08bc F582      		std Z+5,r15
 1679 08be E482      		std Z+4,r14
 1680 08c0 0E94 0000 		call sprintf
 1681               	.LM284:
 1682 08c4 EDB7      		in r30,__SP_L__
 1683 08c6 FEB7      		in r31,__SP_H__
 1684 08c8 3696      		adiw r30,6
 1685 08ca 0FB6      		in __tmp_reg__,__SREG__
 1686 08cc F894      		cli
 1687 08ce FEBF      		out __SP_H__,r31
 1688 08d0 0FBE      		out __SREG__,__tmp_reg__
 1689 08d2 EDBF      		out __SP_L__,r30
 1690 08d4 C801      		movw r24,r16
 1691 08d6 0E94 0000 		call printString
 1692               	.L142:
 1693               	.LM285:
 1694 08da FAE0      		ldi r31,lo8(10)
 1695 08dc EF16      		cp r14,r31
 1696 08de F104      		cpc r15,__zero_reg__
 1697 08e0 00F0      		brlo .L143
 1698 08e2 8091 0000 		lds r24,_step
 1699 08e6 8230      		cpi r24,lo8(2)
 1700 08e8 01F0      		breq .+2
 1701 08ea 00C0      		rjmp .L161
 1702               	.L143:
 1703               	.LM286:
 1704 08ec 8091 0000 		lds r24,_step
GAS LISTING C:\Users\ADMINI~1\AppData\Local\Temp/ccEBF6mf.s 			page 31


 1705 08f0 8230      		cpi r24,lo8(2)
 1706 08f2 01F4      		brne .+2
 1707 08f4 00C0      		rjmp .L146
 1708 08f6 8330      		cpi r24,lo8(3)
 1709 08f8 00F4      		brsh .L149
 1710 08fa 8130      		cpi r24,lo8(1)
 1711 08fc 01F0      		breq .+2
 1712 08fe 00C0      		rjmp .L144
 1713 0900 00C0      		rjmp .L172
 1714               	.L149:
 1715 0902 8330      		cpi r24,lo8(3)
 1716 0904 01F4      		brne .+2
 1717 0906 00C0      		rjmp .L147
 1718 0908 8930      		cpi r24,lo8(9)
 1719 090a 01F0      		breq .+2
 1720 090c 00C0      		rjmp .L144
 1721               	.LM287:
 1722 090e 8091 0000 		lds r24,_bufferIndex
 1723 0912 8230      		cpi r24,lo8(2)
 1724 0914 01F4      		brne .L150
 1725               	.LM288:
 1726 0916 9091 0000 		lds r25,_buffer
 1727 091a 8AE0      		ldi r24,lo8(10)
 1728 091c 989F      		mul r25,r24
 1729 091e 9001      		movw r18,r0
 1730 0920 1124      		clr r1
 1731               	.LVL53:
 1732               	.LM289:
 1733 0922 8091 0000 		lds r24,_buffer+1
 1734 0926 280F      		add r18,r24
 1735 0928 311D      		adc r19,__zero_reg__
 1736               	.LM290:
 1737 092a C901      		movw r24,r18
 1738 092c 0197      		sbiw r24,1
 1739 092e 0C97      		sbiw r24,12
 1740 0930 00F4      		brsh .L151
 1741               	.LM291:
 1742 0932 822F      		mov r24,r18
 1743               	.LVL54:
 1744 0934 8150      		subi r24,lo8(-(-1))
 1745 0936 8093 0000 		sts _macroIndex,r24
 1746               	.LM292:
 1747 093a 8BE0      		ldi r24,lo8(11)
 1748 093c 8093 0000 		sts _step,r24
 1749               	.LM293:
 1750 0940 0E94 0000 		call resetMacroInput
 1751 0944 00C0      		rjmp .L159
 1752               	.LVL55:
 1753               	.L151:
 1754               	.LM294:
 1755 0946 0E94 0000 		call printEnter
 1756               	.LVL56:
 1757               	.LM295:
 1758 094a 80E0      		ldi r24,lo8(str_invalid_macro_number)
 1759 094c 90E0      		ldi r25,hi8(str_invalid_macro_number)
 1760 094e 00C0      		rjmp .L169
 1761               	.L150:
GAS LISTING C:\Users\ADMINI~1\AppData\Local\Temp/ccEBF6mf.s 			page 32


 1762               	.LM296:
 1763 0950 88EE      		ldi r24,lo8(1000)
 1764 0952 93E0      		ldi r25,hi8(1000)
 1765               	.LVL57:
 1766               	.LBB84:
 1767               	.LBB85:
 1768               	.LBB86:
 1769               	.LBB87:
 1770               	.LM297:
 1771 0954 2CE2      		ldi r18,lo8(300)
 1772 0956 31E0      		ldi r19,hi8(300)
 1773               	.L153:
 1774 0958 F901      		movw r30,r18
 1775               	.LVL58:
 1776               	/* #APP */
 1777               	 ;  105 "c:/winavr-20100110/lib/gcc/../../avr/include/util/delay_basic.h" 1
 1778 095a 3197      		1: sbiw r30,1
 1779 095c 01F4      		brne 1b
 1780               	 ;  0 "" 2
 1781               	/* #NOAPP */
 1782               	.LBE87:
 1783               	.LBE86:
 1784               	.LM298:
 1785 095e 0197      		sbiw r24,1
 1786               	.LM299:
 1787 0960 01F4      		brne .L153
 1788 0962 00C0      		rjmp .L161
 1789               	.LVL59:
 1790               	.L172:
 1791               	.LBE85:
 1792               	.LBE84:
 1793               	.LM300:
 1794 0964 9091 0000 		lds r25,_buffer
 1795               	.LM301:
 1796 0968 8091 0000 		lds r24,_currentLayer
 1797 096c 8330      		cpi r24,lo8(3)
 1798 096e 00F4      		brsh .L154
 1799               	.LM302:
 1800 0970 192F      		mov r17,r25
 1801               	.LVL60:
 1802 0972 1150      		subi r17,lo8(-(-1))
 1803               	.LM303:
 1804 0974 8117      		cp r24,r17
 1805 0976 01F0      		breq .L154
 1806 0978 1330      		cpi r17,lo8(3)
 1807 097a 00F4      		brsh .L154
 1808               	.LM304:
 1809 097c 8091 0000 		lds r24,_editCount
 1810 0980 9091 0000 		lds r25,(_editCount)+1
 1811 0984 1816      		cp __zero_reg__,r24
 1812 0986 1906      		cpc __zero_reg__,r25
 1813 0988 04F4      		brge .L155
 1814               	.LM305:
 1815 098a 0E94 0000 		call printEnter
 1816               	.LM306:
 1817 098e 80E0      		ldi r24,lo8(str_save_layer)
 1818 0990 90E0      		ldi r25,hi8(str_save_layer)
GAS LISTING C:\Users\ADMINI~1\AppData\Local\Temp/ccEBF6mf.s 			page 33


 1819 0992 0E94 0000 		call printStringFromFlash
 1820               	.LM307:
 1821 0996 0E94 0000 		call printEnter
 1822               	.LM308:
 1823 099a 0E94 0000 		call saveCurrentLayer
 1824               	.LM309:
 1825 099e 1093 0000 		sts _currentLayerAfter,r17
 1826 09a2 00C0      		rjmp .L167
 1827               	.L155:
 1828               	.LM310:
 1829 09a4 0E94 0000 		call printEnter
 1830               	.LM311:
 1831 09a8 80E0      		ldi r24,lo8(str_load_layer)
 1832 09aa 90E0      		ldi r25,hi8(str_load_layer)
 1833 09ac 0E94 0000 		call printStringFromFlash
 1834               	.LM312:
 1835 09b0 0E94 0000 		call printEnter
 1836               	.LM313:
 1837 09b4 87E0      		ldi r24,lo8(7)
 1838 09b6 8093 0000 		sts _step,r24
 1839               	.LM314:
 1840 09ba 1093 0000 		sts _currentLayer,r17
 1841               	.LM315:
 1842 09be 0E94 0000 		call loadCurrentLayer
 1843 09c2 00C0      		rjmp .L167
 1844               	.L154:
 1845               	.LM316:
 1846 09c4 0E94 0000 		call printEnter
 1847               	.LVL61:
 1848               	.L171:
 1849               	.LM317:
 1850 09c8 87E0      		ldi r24,lo8(7)
 1851 09ca 00C0      		rjmp .L168
 1852               	.LVL62:
 1853               	.L146:
 1854               	.LM318:
 1855 09cc B092 0000 		sts _col,r11
 1856               	.LM319:
 1857 09d0 A092 0000 		sts _row,r10
 1858               	.LM320:
 1859 09d4 80E0      		ldi r24,lo8(str_col_row)
 1860 09d6 90E0      		ldi r25,hi8(str_col_row)
 1861 09d8 0E94 0000 		call printStringFromFlash
 1862               	.LM321:
 1863 09dc 8091 0000 		lds r24,_col
 1864 09e0 8F5F      		subi r24,lo8(-(1))
 1865 09e2 0E94 0000 		call toString
 1866 09e6 0E94 0000 		call printString
 1867               	.LM322:
 1868 09ea 80E0      		ldi r24,lo8(.LC5)
 1869 09ec 90E0      		ldi r25,hi8(.LC5)
 1870 09ee 0E94 0000 		call printString
 1871               	.LM323:
 1872 09f2 8091 0000 		lds r24,_row
 1873 09f6 8F5F      		subi r24,lo8(-(1))
 1874 09f8 0E94 0000 		call toString
 1875 09fc 0E94 0000 		call printString
GAS LISTING C:\Users\ADMINI~1\AppData\Local\Temp/ccEBF6mf.s 			page 34


 1876               	.LM324:
 1877 0a00 80E0      		ldi r24,lo8(.LC6)
 1878 0a02 90E0      		ldi r25,hi8(.LC6)
 1879 0a04 0E94 0000 		call printString
 1880               	.LM325:
 1881 0a08 8091 0000 		lds r24,_currentLayer
 1882 0a0c 8F5F      		subi r24,lo8(-(1))
 1883 0a0e 0E94 0000 		call toString
 1884 0a12 0E94 0000 		call printString
 1885               	.LM326:
 1886 0a16 80E0      		ldi r24,lo8(.LC7)
 1887 0a18 90E0      		ldi r25,hi8(.LC7)
 1888 0a1a 0E94 0000 		call printString
 1889               	.LBB88:
 1890               	.LBB89:
 1891               	.LBB90:
 1892               	.LM327:
 1893 0a1e E091 0000 		lds r30,_currentLayer
 1894 0a22 81E1      		ldi r24,lo8(17)
 1895 0a24 E89F      		mul r30,r24
 1896 0a26 F001      		movw r30,r0
 1897 0a28 1124      		clr r1
 1898 0a2a 8091 0000 		lds r24,_row
 1899 0a2e E80F      		add r30,r24
 1900 0a30 F11D      		adc r31,__zero_reg__
 1901 0a32 A3E0      		ldi r26,3
 1902 0a34 EE0F      	1:	lsl r30
 1903 0a36 FF1F      		rol r31
 1904 0a38 AA95      		dec r26
 1905 0a3a 01F4      		brne 1b
 1906 0a3c 8091 0000 		lds r24,_col
 1907 0a40 E80F      		add r30,r24
 1908 0a42 F11D      		adc r31,__zero_reg__
 1909 0a44 E050      		subi r30,lo8(-(keymap_code))
 1910 0a46 F040      		sbci r31,hi8(-(keymap_code))
 1911               	/* #APP */
 1912               	 ;  273 "keymapper.c" 1
 1913 0a48 E491      		lpm r30, Z
 1914               		
 1915               	 ;  0 "" 2
 1916               	.LVL63:
 1917               	/* #NOAPP */
 1918               	.LBE90:
 1919               	.LBE89:
 1920               	.LBE88:
 1921               	.LM328:
 1922 0a4a 8E2F      		mov r24,r30
 1923 0a4c 0E94 0000 		call toString
 1924               	.LVL64:
 1925 0a50 0E94 0000 		call printString
 1926               	.LM329:
 1927 0a54 80E0      		ldi r24,lo8(.LC8)
 1928 0a56 90E0      		ldi r25,hi8(.LC8)
 1929 0a58 0E94 0000 		call printString
 1930               	.LM330:
 1931 0a5c 8091 0000 		lds r24,_col
 1932 0a60 E091 0000 		lds r30,_row
GAS LISTING C:\Users\ADMINI~1\AppData\Local\Temp/ccEBF6mf.s 			page 35


 1933 0a64 F0E0      		ldi r31,lo8(0)
 1934 0a66 73E0      		ldi r23,3
 1935 0a68 EE0F      	1:	lsl r30
 1936 0a6a FF1F      		rol r31
 1937 0a6c 7A95      		dec r23
 1938 0a6e 01F4      		brne 1b
 1939 0a70 E80F      		add r30,r24
 1940 0a72 F11D      		adc r31,__zero_reg__
 1941 0a74 E050      		subi r30,lo8(-(_newKeyMap))
 1942 0a76 F040      		sbci r31,hi8(-(_newKeyMap))
 1943 0a78 8081      		ld r24,Z
 1944 0a7a 0E94 0000 		call toString
 1945 0a7e 0E94 0000 		call printString
 1946               	.LM331:
 1947 0a82 80E0      		ldi r24,lo8(.LC9)
 1948 0a84 90E0      		ldi r25,hi8(.LC9)
 1949 0a86 0E94 0000 		call printString
 1950               	.LM332:
 1951 0a8a 0E94 0000 		call printEnter
 1952               	.LM333:
 1953 0a8e 83E0      		ldi r24,lo8(3)
 1954               	.LVL65:
 1955               	.L168:
 1956 0a90 8093 0000 		sts _step,r24
 1957               	.L167:
 1958               	.LM334:
 1959 0a94 1092 0000 		sts _bufferIndex,__zero_reg__
 1960 0a98 00C0      		rjmp .L144
 1961               	.LVL66:
 1962               	.L147:
 1963               	.LM335:
 1964 0a9a 8091 0000 		lds r24,_bufferIndex
 1965 0a9e 8330      		cpi r24,lo8(3)
 1966 0aa0 01F0      		breq .+2
 1967 0aa2 00C0      		rjmp .L157
 1968               	.LM336:
 1969 0aa4 9091 0000 		lds r25,_buffer
 1970 0aa8 84E6      		ldi r24,lo8(100)
 1971 0aaa 989F      		mul r25,r24
 1972 0aac A001      		movw r20,r0
 1973 0aae 1124      		clr r1
 1974               	.LVL67:
 1975               	.LM337:
 1976 0ab0 8091 0000 		lds r24,_buffer+1
 1977 0ab4 2AE0      		ldi r18,lo8(10)
 1978 0ab6 829F      		mul r24,r18
 1979 0ab8 C001      		movw r24,r0
 1980 0aba 1124      		clr r1
 1981 0abc 480F      		add r20,r24
 1982 0abe 591F      		adc r21,r25
 1983               	.LM338:
 1984 0ac0 8091 0000 		lds r24,_buffer+2
 1985 0ac4 480F      		add r20,r24
 1986 0ac6 511D      		adc r21,__zero_reg__
 1987               	.LM339:
 1988 0ac8 4F3F      		cpi r20,255
 1989 0aca 5105      		cpc r21,__zero_reg__
GAS LISTING C:\Users\ADMINI~1\AppData\Local\Temp/ccEBF6mf.s 			page 36


 1990 0acc 04F4      		brge .L158
 1991               	.LM340:
 1992 0ace 8091 0000 		lds r24,_col
 1993 0ad2 E091 0000 		lds r30,_row
 1994 0ad6 F0E0      		ldi r31,lo8(0)
 1995 0ad8 63E0      		ldi r22,3
 1996 0ada EE0F      	1:	lsl r30
 1997 0adc FF1F      		rol r31
 1998 0ade 6A95      		dec r22
 1999 0ae0 01F4      		brne 1b
 2000 0ae2 E80F      		add r30,r24
 2001 0ae4 F11D      		adc r31,__zero_reg__
 2002 0ae6 E050      		subi r30,lo8(-(_newKeyMap))
 2003 0ae8 F040      		sbci r31,hi8(-(_newKeyMap))
 2004 0aea 4083      		st Z,r20
 2005               	.LM341:
 2006 0aec 87E0      		ldi r24,lo8(7)
 2007 0aee 8093 0000 		sts _step,r24
 2008               	.LM342:
 2009 0af2 8091 0000 		lds r24,_editCount
 2010 0af6 9091 0000 		lds r25,(_editCount)+1
 2011 0afa 0196      		adiw r24,1
 2012 0afc 9093 0000 		sts (_editCount)+1,r25
 2013 0b00 8093 0000 		sts _editCount,r24
 2014 0b04 00C0      		rjmp .L159
 2015               	.L158:
 2016               	.LM343:
 2017 0b06 0E94 0000 		call printEnter
 2018               	.LVL68:
 2019               	.LM344:
 2020 0b0a 80E0      		ldi r24,lo8(str_invalid_keycode)
 2021 0b0c 90E0      		ldi r25,hi8(str_invalid_keycode)
 2022               	.L169:
 2023 0b0e 0E94 0000 		call printStringFromFlash
 2024               	.LVL69:
 2025               	.L159:
 2026               	.LM345:
 2027 0b12 83E0      		ldi r24,lo8(3)
 2028 0b14 E0E0      		ldi r30,lo8(_buffer)
 2029 0b16 F0E0      		ldi r31,hi8(_buffer)
 2030 0b18 DF01      		movw r26,r30
 2031 0b1a 1D92      		st X+,__zero_reg__
 2032 0b1c 8A95      	        dec r24
 2033 0b1e 01F4      		brne .-6
 2034               	.LM346:
 2035 0b20 1092 0000 		sts _bufferIndex,__zero_reg__
 2036               	.L170:
 2037               	.LM347:
 2038 0b24 0E94 0000 		call printEnter
 2039               	.LVL70:
 2040 0b28 00C0      		rjmp .L144
 2041               	.L157:
 2042 0b2a 88EE      		ldi r24,lo8(1000)
 2043 0b2c 93E0      		ldi r25,hi8(1000)
 2044               	.LVL71:
 2045               	.LBB91:
 2046               	.LBB92:
GAS LISTING C:\Users\ADMINI~1\AppData\Local\Temp/ccEBF6mf.s 			page 37


 2047               	.LBB93:
 2048               	.LBB94:
 2049               	.LM348:
 2050 0b2e 2CE2      		ldi r18,lo8(300)
 2051 0b30 31E0      		ldi r19,hi8(300)
 2052               	.L160:
 2053 0b32 F901      		movw r30,r18
 2054               	.LVL72:
 2055               	/* #APP */
 2056               	 ;  105 "c:/winavr-20100110/lib/gcc/../../avr/include/util/delay_basic.h" 1
 2057 0b34 3197      		1: sbiw r30,1
 2058 0b36 01F4      		brne 1b
 2059               	 ;  0 "" 2
 2060               	/* #NOAPP */
 2061               	.LBE94:
 2062               	.LBE93:
 2063               	.LM349:
 2064 0b38 0197      		sbiw r24,1
 2065               	.LM350:
 2066 0b3a 01F4      		brne .L160
 2067 0b3c 00C0      		rjmp .L161
 2068               	.LVL73:
 2069               	.L144:
 2070               	.LBE92:
 2071               	.LBE91:
 2072               	.LM351:
 2073 0b3e 0E94 0000 		call printPrompt
 2074               	.LVL74:
 2075               	.L161:
 2076               	/* epilogue start */
 2077               	.LM352:
 2078 0b42 0F90      		pop __tmp_reg__
 2079 0b44 0F90      		pop __tmp_reg__
 2080 0b46 0F90      		pop __tmp_reg__
 2081 0b48 CF91      		pop r28
 2082 0b4a DF91      		pop r29
 2083 0b4c 1F91      		pop r17
 2084               	.LVL75:
 2085 0b4e 0F91      		pop r16
 2086               	.LVL76:
 2087 0b50 FF90      		pop r15
 2088 0b52 EF90      		pop r14
 2089               	.LVL77:
 2090 0b54 DF90      		pop r13
 2091               	.LVL78:
 2092 0b56 CF90      		pop r12
 2093               	.LVL79:
 2094 0b58 BF90      		pop r11
 2095               	.LVL80:
 2096 0b5a AF90      		pop r10
 2097               	.LVL81:
 2098 0b5c 0895      		ret
 2099               	.LFE50:
 2100               		.size	putKeyCode, .-putKeyCode
 2101               	.global	saveCurrentLayerAfter
 2102               		.type	saveCurrentLayerAfter, @function
 2103               	saveCurrentLayerAfter:
GAS LISTING C:\Users\ADMINI~1\AppData\Local\Temp/ccEBF6mf.s 			page 38


 2104               	.LFB41:
 2105               	.LM353:
 2106 0b5e BF92      		push r11
 2107 0b60 CF92      		push r12
 2108 0b62 DF92      		push r13
 2109 0b64 EF92      		push r14
 2110 0b66 FF92      		push r15
 2111 0b68 0F93      		push r16
 2112 0b6a 1F93      		push r17
 2113 0b6c CF93      		push r28
 2114 0b6e DF93      		push r29
 2115               	/* prologue: function */
 2116               	/* frame size = 0 */
 2117               	.LM354:
 2118 0b70 EE24      		clr r14
 2119 0b72 FF24      		clr r15
 2120 0b74 CC24      		clr r12
 2121 0b76 DD24      		clr r13
 2122               	.LM355:
 2123 0b78 18E8      		ldi r17,lo8(-120)
 2124 0b7a B12E      		mov r11,r17
 2125 0b7c 00C0      		rjmp .L174
 2126               	.L175:
 2127 0b7e 8091 0000 		lds r24,_currentLayer
 2128 0b82 8B9D      		mul r24,r11
 2129 0b84 C001      		movw r24,r0
 2130 0b86 1124      		clr r1
 2131 0b88 0D96      		adiw r24,13
 2132 0b8a 8C0D      		add r24,r12
 2133 0b8c 9D1D      		adc r25,r13
 2134 0b8e 8C0F      		add r24,r28
 2135 0b90 9D1F      		adc r25,r29
 2136 0b92 F801      		movw r30,r16
 2137 0b94 6191      		ld r22,Z+
 2138 0b96 8F01      		movw r16,r30
 2139 0b98 0E94 0000 		call __eewr_byte_m32
 2140 0b9c 2196      		adiw r28,1
 2141               	.LM356:
 2142 0b9e C830      		cpi r28,8
 2143 0ba0 D105      		cpc r29,__zero_reg__
 2144 0ba2 01F4      		brne .L175
 2145 0ba4 0894      		sec
 2146 0ba6 E11C      		adc r14,__zero_reg__
 2147 0ba8 F11C      		adc r15,__zero_reg__
 2148 0baa 88E0      		ldi r24,lo8(8)
 2149 0bac 90E0      		ldi r25,hi8(8)
 2150 0bae C80E      		add r12,r24
 2151 0bb0 D91E      		adc r13,r25
 2152               	.LM357:
 2153 0bb2 91E1      		ldi r25,lo8(17)
 2154 0bb4 E916      		cp r14,r25
 2155 0bb6 F104      		cpc r15,__zero_reg__
 2156 0bb8 01F0      		breq .L176
 2157               	.L174:
 2158 0bba 8701      		movw r16,r14
 2159 0bbc B3E0      		ldi r27,3
 2160 0bbe 000F      	1:	lsl r16
GAS LISTING C:\Users\ADMINI~1\AppData\Local\Temp/ccEBF6mf.s 			page 39


 2161 0bc0 111F      		rol r17
 2162 0bc2 BA95      		dec r27
 2163 0bc4 01F4      		brne 1b
 2164 0bc6 0050      		subi r16,lo8(-(_newKeyMap))
 2165 0bc8 1040      		sbci r17,hi8(-(_newKeyMap))
 2166 0bca C0E0      		ldi r28,lo8(0)
 2167 0bcc D0E0      		ldi r29,hi8(0)
 2168 0bce 00C0      		rjmp .L175
 2169               	.L176:
 2170               	.LM358:
 2171 0bd0 1092 0000 		sts (_editCount)+1,__zero_reg__
 2172 0bd4 1092 0000 		sts _editCount,__zero_reg__
 2173               	.LM359:
 2174 0bd8 8091 0000 		lds r24,_stepAfterSave
 2175 0bdc 8430      		cpi r24,lo8(4)
 2176 0bde 01F4      		brne .L177
 2177               	.LM360:
 2178 0be0 8093 0000 		sts _step,r24
 2179               	.LBB95:
 2180               	.LBB96:
 2181               	.LM361:
 2182 0be4 1092 0000 		sts _isKeyMapping,__zero_reg__
 2183               	.LM362:
 2184 0be8 1092 0000 		sts _wait,__zero_reg__
 2185 0bec 00C0      		rjmp .L178
 2186               	.L177:
 2187               	.LBE96:
 2188               	.LBE95:
 2189               	.LM363:
 2190 0bee 8130      		cpi r24,lo8(1)
 2191 0bf0 01F4      		brne .L178
 2192               	.LM364:
 2193 0bf2 0E94 0000 		call printEnter
 2194               	.LM365:
 2195 0bf6 80E0      		ldi r24,lo8(str_load_layer)
 2196 0bf8 90E0      		ldi r25,hi8(str_load_layer)
 2197 0bfa 0E94 0000 		call printStringFromFlash
 2198               	.LM366:
 2199 0bfe 0E94 0000 		call printEnter
 2200               	.LM367:
 2201 0c02 87E0      		ldi r24,lo8(7)
 2202 0c04 8093 0000 		sts _step,r24
 2203               	.LM368:
 2204 0c08 8091 0000 		lds r24,_currentLayerAfter
 2205 0c0c 8093 0000 		sts _currentLayer,r24
 2206               	.LM369:
 2207 0c10 0E94 0000 		call loadCurrentLayer
 2208               	.L178:
 2209               	.LM370:
 2210 0c14 0E94 0000 		call printPrompt
 2211               	/* epilogue start */
 2212               	.LM371:
 2213 0c18 DF91      		pop r29
 2214 0c1a CF91      		pop r28
 2215 0c1c 1F91      		pop r17
 2216 0c1e 0F91      		pop r16
 2217 0c20 FF90      		pop r15
GAS LISTING C:\Users\ADMINI~1\AppData\Local\Temp/ccEBF6mf.s 			page 40


 2218 0c22 EF90      		pop r14
 2219 0c24 DF90      		pop r13
 2220 0c26 CF90      		pop r12
 2221 0c28 BF90      		pop r11
 2222 0c2a 0895      		ret
 2223               	.LFE41:
 2224               		.size	saveCurrentLayerAfter, .-saveCurrentLayerAfter
 2225               	.global	prepareKeyMapper
 2226               		.type	prepareKeyMapper, @function
 2227               	prepareKeyMapper:
 2228               	.LFB40:
 2229               	.LM372:
 2230               	/* prologue: function */
 2231               	/* frame size = 0 */
 2232               	.LM373:
 2233 0c2c 83E0      		ldi r24,lo8(3)
 2234 0c2e E0E0      		ldi r30,lo8(_buffer)
 2235 0c30 F0E0      		ldi r31,hi8(_buffer)
 2236 0c32 DF01      		movw r26,r30
 2237 0c34 1D92      		st X+,__zero_reg__
 2238 0c36 8A95      	        dec r24
 2239 0c38 01F4      		brne .-6
 2240               	.LM374:
 2241 0c3a 1092 0000 		sts _bufferIndex,__zero_reg__
 2242               	.LM375:
 2243 0c3e 1092 0000 		sts _currentLayer,__zero_reg__
 2244               	.LM376:
 2245 0c42 1092 0000 		sts _mode,__zero_reg__
 2246               	.LM377:
 2247 0c46 0E94 0000 		call loadCurrentLayer
 2248               	.LM378:
 2249 0c4a 0E94 0000 		call printSelectMode
 2250               	/* epilogue start */
 2251               	.LM379:
 2252 0c4e 0895      		ret
 2253               	.LFE40:
 2254               		.size	prepareKeyMapper, .-prepareKeyMapper
 2255               	.global	getCurrentKeycode
 2256               		.type	getCurrentKeycode, @function
 2257               	getCurrentKeycode:
 2258               	.LFB28:
 2259               	.LM380:
 2260               	.LVL82:
 2261 0c50 FF92      		push r15
 2262 0c52 0F93      		push r16
 2263 0c54 1F93      		push r17
 2264 0c56 CF93      		push r28
 2265 0c58 DF93      		push r29
 2266               	/* prologue: function */
 2267               	/* frame size = 0 */
 2268 0c5a F82E      		mov r15,r24
 2269               	.LM381:
 2270 0c5c 8091 0000 		lds r24,_isKeyMapping
 2271               	.LVL83:
 2272 0c60 C62F      		mov r28,r22
 2273 0c62 D0E0      		ldi r29,lo8(0)
 2274               	.LVL84:
GAS LISTING C:\Users\ADMINI~1\AppData\Local\Temp/ccEBF6mf.s 			page 41


 2275 0c64 042F      		mov r16,r20
 2276 0c66 10E0      		ldi r17,lo8(0)
 2277               	.LVL85:
 2278 0c68 8823      		tst r24
 2279 0c6a 01F4      		brne .L187
 2280               	.LVL86:
 2281               	.L184:
 2282               	.LBB97:
 2283               	.LM382:
 2284 0c6c 88E8      		ldi r24,lo8(-120)
 2285 0c6e F89E      		mul r15,r24
 2286 0c70 C001      		movw r24,r0
 2287 0c72 1124      		clr r1
 2288 0c74 0D96      		adiw r24,13
 2289 0c76 9E01      		movw r18,r28
 2290 0c78 43E0      		ldi r20,3
 2291 0c7a 220F      	1:	lsl r18
 2292 0c7c 331F      		rol r19
 2293 0c7e 4A95      		dec r20
 2294 0c80 01F4      		brne 1b
 2295 0c82 820F      		add r24,r18
 2296 0c84 931F      		adc r25,r19
 2297 0c86 800F      		add r24,r16
 2298 0c88 911F      		adc r25,r17
 2299 0c8a 0E94 0000 		call __eerd_byte_m32
 2300 0c8e 982F      		mov r25,r24
 2301               	.LVL87:
 2302               	.LBE97:
 2303               	.LM383:
 2304 0c90 8150      		subi r24,lo8(-(-1))
 2305 0c92 8E3F      		cpi r24,lo8(-2)
 2306 0c94 00F0      		brlo .L185
 2307               	.LVL88:
 2308               	.L187:
 2309               	.LBB98:
 2310               	.LBB99:
 2311               	.LBB100:
 2312               	.LM384:
 2313 0c96 81E1      		ldi r24,lo8(17)
 2314 0c98 F89E      		mul r15,r24
 2315 0c9a C001      		movw r24,r0
 2316 0c9c 1124      		clr r1
 2317 0c9e C80F      		add r28,r24
 2318 0ca0 D91F      		adc r29,r25
 2319               	.LVL89:
 2320 0ca2 83E0      		ldi r24,3
 2321 0ca4 CC0F      	1:	lsl r28
 2322 0ca6 DD1F      		rol r29
 2323 0ca8 8A95      		dec r24
 2324 0caa 01F4      		brne 1b
 2325               	.LVL90:
 2326 0cac C00F      		add r28,r16
 2327 0cae D11F      		adc r29,r17
 2328               	.LVL91:
 2329 0cb0 C050      		subi r28,lo8(-(keymap_code))
 2330 0cb2 D040      		sbci r29,hi8(-(keymap_code))
 2331               	.LVL92:
GAS LISTING C:\Users\ADMINI~1\AppData\Local\Temp/ccEBF6mf.s 			page 42


 2332 0cb4 FE01      		movw r30,r28
 2333               	/* #APP */
 2334               	 ;  273 "keymapper.c" 1
 2335 0cb6 9491      		lpm r25, Z
 2336               		
 2337               	 ;  0 "" 2
 2338               	/* #NOAPP */
 2339               	.L185:
 2340               	.LBE100:
 2341               	.LBE99:
 2342               	.LBE98:
 2343               	.LM385:
 2344 0cb8 892F      		mov r24,r25
 2345               	/* epilogue start */
 2346 0cba DF91      		pop r29
 2347               	.LVL93:
 2348 0cbc CF91      		pop r28
 2349               	.LVL94:
 2350 0cbe 1F91      		pop r17
 2351               	.LVL95:
 2352 0cc0 0F91      		pop r16
 2353               	.LVL96:
 2354 0cc2 FF90      		pop r15
 2355               	.LVL97:
 2356 0cc4 0895      		ret
 2357               	.LFE28:
 2358               		.size	getCurrentKeycode, .-getCurrentKeycode
 2359               	.global	applyMacro
 2360               		.type	applyMacro, @function
 2361               	applyMacro:
 2362               	.LFB43:
 2363               	.LM386:
 2364               	.LVL98:
 2365 0cc6 1F93      		push r17
 2366               	/* prologue: function */
 2367               	/* frame size = 0 */
 2368 0cc8 982F      		mov r25,r24
 2369               	.LM387:
 2370 0cca 8091 0000 		lds r24,_isKeyMapping
 2371               	.LVL99:
 2372 0cce 80FD      		sbrc r24,0
 2373 0cd0 00C0      		rjmp .L189
 2374               	.LBB101:
 2375               	.LBB102:
 2376               	.LM388:
 2377 0cd2 192F      		mov r17,r25
 2378 0cd4 195C      		subi r17,lo8(-(55))
 2379 0cd6 1C30      		cpi r17,lo8(12)
 2380 0cd8 00F4      		brsh .L189
 2381               	.LBE102:
 2382               	.LBE101:
 2383               	.LM389:
 2384 0cda 0E94 0000 		call isEmptyM
 2385               	.LVL100:
 2386 0cde 8823      		tst r24
 2387 0ce0 01F0      		breq .L189
 2388               	.LM390:
GAS LISTING C:\Users\ADMINI~1\AppData\Local\Temp/ccEBF6mf.s 			page 43


 2389 0ce2 0E94 0000 		call clearMacroPressedBuffer
 2390               	.LM391:
 2391 0ce6 812F      		mov r24,r17
 2392 0ce8 0E94 0000 		call readMacro
 2393 0cec 81E0      		ldi r24,lo8(1)
 2394 0cee 00C0      		rjmp .L190
 2395               	.LVL101:
 2396               	.L189:
 2397               	.LM392:
 2398 0cf0 80E0      		ldi r24,lo8(0)
 2399               	.L190:
 2400               	/* epilogue start */
 2401               	.LM393:
 2402 0cf2 1F91      		pop r17
 2403 0cf4 0895      		ret
 2404               	.LFE43:
 2405               		.size	applyMacro, .-applyMacro
 2406               	.global	startKeyMapping
 2407               		.type	startKeyMapping, @function
 2408               	startKeyMapping:
 2409               	.LFB20:
 2410               	.LM394:
 2411               	/* prologue: function */
 2412               	/* frame size = 0 */
 2413               	.LBB103:
 2414               	.LBB104:
 2415               	.LM395:
 2416 0cf6 8091 0000 		lds r24,_isKeyMapping
 2417               	.LBE104:
 2418               	.LBE103:
 2419               	.LM396:
 2420 0cfa 80FF      		sbrs r24,0
 2421 0cfc 00C0      		rjmp .L194
 2422 0cfe 81FD      		sbrc r24,1
 2423 0d00 00C0      		rjmp .L194
 2424 0d02 0E94 0000 		call isAllKeyRelease
 2425 0d06 8823      		tst r24
 2426 0d08 01F0      		breq .L194
 2427               	.LBB105:
 2428               	.LBB106:
 2429               	.LM397:
 2430 0d0a 8091 0000 		lds r24,_isKeyMapping
 2431 0d0e 8260      		ori r24,lo8(2)
 2432 0d10 8093 0000 		sts _isKeyMapping,r24
 2433               	.LM398:
 2434 0d14 0E94 0000 		call prepareKeyMapper
 2435               	.L194:
 2436 0d18 0895      		ret
 2437               	.LBE106:
 2438               	.LBE105:
 2439               	.LFE20:
 2440               		.size	startKeyMapping, .-startKeyMapping
 2441               	.global	prepareKeyMapping
 2442               		.type	prepareKeyMapping, @function
 2443               	prepareKeyMapping:
 2444               	.LFB12:
 2445               	.LM399:
GAS LISTING C:\Users\ADMINI~1\AppData\Local\Temp/ccEBF6mf.s 			page 44


 2446               	/* prologue: function */
 2447               	/* frame size = 0 */
 2448               	.LBB107:
 2449               	.LBB108:
 2450               	.LM400:
 2451 0d1a 8091 0000 		lds r24,_isKeyMapping
 2452 0d1e 8160      		ori r24,lo8(1)
 2453 0d20 8093 0000 		sts _isKeyMapping,r24
 2454               	.LBE108:
 2455               	.LBE107:
 2456               	.LM401:
 2457 0d24 8091 0000 		lds r24,INTERFACE
 2458 0d28 8150      		subi r24,lo8(-(-1))
 2459 0d2a 8230      		cpi r24,lo8(2)
 2460 0d2c 00F4      		brsh .L196
 2461               	.LM402:
 2462 0d2e 0E94 0000 		call prepareKeyMappingUsb
 2463 0d32 00C0      		rjmp .L197
 2464               	.L196:
 2465               	.LM403:
 2466 0d34 0E94 0000 		call prepareKeyMappingPs2
 2467               	.LM404:
 2468 0d38 84EC      		ldi r24,lo8(2500)
 2469 0d3a 99E0      		ldi r25,hi8(2500)
 2470 0d3c 9093 0000 		sts (keyMappingCountMax)+1,r25
 2471 0d40 8093 0000 		sts keyMappingCountMax,r24
 2472               	.L197:
 2473               	.LM405:
 2474 0d44 0E94 0000 		call printPrepareString
 2475               	/* epilogue start */
 2476               	.LM406:
 2477 0d48 0895      		ret
 2478               	.LFE12:
 2479               		.size	prepareKeyMapping, .-prepareKeyMapping
 2480               	.global	countKeyMappingEnabled
 2481               		.type	countKeyMappingEnabled, @function
 2482               	countKeyMappingEnabled:
 2483               	.LFB22:
 2484               	.LM407:
 2485               	/* prologue: function */
 2486               	/* frame size = 0 */
 2487               	.LM408:
 2488 0d4a 8091 0000 		lds r24,_isKeyMapping
 2489 0d4e 8823      		tst r24
 2490 0d50 01F4      		brne .L201
 2491 0d52 8091 0000 		lds r24,enabledKeyMappingCount
 2492 0d56 8823      		tst r24
 2493 0d58 01F0      		breq .L201
 2494 0d5a 8091 0000 		lds r24,keyMappingCount
 2495 0d5e 9091 0000 		lds r25,(keyMappingCount)+1
 2496 0d62 0196      		adiw r24,1
 2497 0d64 9093 0000 		sts (keyMappingCount)+1,r25
 2498 0d68 8093 0000 		sts keyMappingCount,r24
 2499 0d6c 2091 0000 		lds r18,keyMappingCountMax
 2500 0d70 3091 0000 		lds r19,(keyMappingCountMax)+1
 2501 0d74 2817      		cp r18,r24
 2502 0d76 3907      		cpc r19,r25
GAS LISTING C:\Users\ADMINI~1\AppData\Local\Temp/ccEBF6mf.s 			page 45


 2503 0d78 04F4      		brge .L201
 2504               	.LM409:
 2505 0d7a 1092 0000 		sts enabledKeyMappingCount,__zero_reg__
 2506               	.LM410:
 2507 0d7e 0E94 0000 		call prepareKeyMapping
 2508               	.L201:
 2509 0d82 0895      		ret
 2510               	.LFE22:
 2511               		.size	countKeyMappingEnabled, .-countKeyMappingEnabled
 2512               	.global	enterFrameForMapper
 2513               		.type	enterFrameForMapper, @function
 2514               	enterFrameForMapper:
 2515               	.LFB23:
 2516               	.LM411:
 2517               	/* prologue: function */
 2518               	/* frame size = 0 */
 2519               	.LM412:
 2520 0d84 0E94 0000 		call countKeyMappingEnabled
 2521               	.LM413:
 2522 0d88 8091 0000 		lds r24,_isKeyMapping
 2523 0d8c 81FF      		sbrs r24,1
 2524 0d8e 00C0      		rjmp .L209
 2525               	.LM414:
 2526 0d90 8091 0000 		lds r24,_isWorkingForEmpty
 2527 0d94 8823      		tst r24
 2528 0d96 01F0      		breq .L204
 2529 0d98 0E94 0000 		call isMacroProcessEnd
 2530 0d9c 8823      		tst r24
 2531 0d9e 01F0      		breq .L204
 2532               	.LM415:
 2533 0da0 8091 0000 		lds r24,_wait
 2534 0da4 8B30      		cpi r24,lo8(11)
 2535 0da6 01F4      		brne .L205
 2536               	.LM416:
 2537 0da8 0E94 0000 		call saveCurrentLayerAfter
 2538 0dac 00C0      		rjmp .L206
 2539               	.L205:
 2540               	.LM417:
 2541 0dae 8A30      		cpi r24,lo8(10)
 2542 0db0 01F4      		brne .L207
 2543               	.LM418:
 2544 0db2 0E94 0000 		call printMapperMessageAfter
 2545 0db6 00C0      		rjmp .L206
 2546               	.L207:
 2547               	.LM419:
 2548 0db8 8C30      		cpi r24,lo8(12)
 2549 0dba 01F4      		brne .L208
 2550               	.LM420:
 2551 0dbc 0E94 0000 		call clearMacroAfter
 2552 0dc0 00C0      		rjmp .L206
 2553               	.L208:
 2554               	.LM421:
 2555 0dc2 1092 0000 		sts _isWorkingForEmpty,__zero_reg__
 2556               	.L206:
 2557               	.LM422:
 2558 0dc6 1092 0000 		sts _wait,__zero_reg__
 2559               	.L204:
GAS LISTING C:\Users\ADMINI~1\AppData\Local\Temp/ccEBF6mf.s 			page 46


 2560               	.LM423:
 2561 0dca 8091 0000 		lds r24,_isPressedEscapeKey
 2562 0dce 8823      		tst r24
 2563 0dd0 01F0      		breq .L209
 2564 0dd2 8091 0000 		lds r24,_pressedEscapeKeyCount
 2565 0dd6 9091 0000 		lds r25,(_pressedEscapeKeyCount)+1
 2566 0dda 0196      		adiw r24,1
 2567 0ddc 9093 0000 		sts (_pressedEscapeKeyCount)+1,r25
 2568 0de0 8093 0000 		sts _pressedEscapeKeyCount,r24
 2569 0de4 895E      		subi r24,lo8(1001)
 2570 0de6 9340      		sbci r25,hi8(1001)
 2571 0de8 04F0      		brlt .L209
 2572               	.LM424:
 2573 0dea 81E0      		ldi r24,lo8(1)
 2574 0dec 8093 0000 		sts _isTiredEscapeKey,r24
 2575               	.LM425:
 2576 0df0 89E2      		ldi r24,lo8(41)
 2577 0df2 6FEF      		ldi r22,lo8(-1)
 2578 0df4 4FEF      		ldi r20,lo8(-1)
 2579 0df6 20E0      		ldi r18,lo8(0)
 2580 0df8 0E94 0000 		call putKeyCode
 2581               	.L209:
 2582 0dfc 0895      		ret
 2583               	.LFE23:
 2584               		.size	enterFrameForMapper, .-enterFrameForMapper
 2585               	.global	startKeyMappingOnBoot
 2586               		.type	startKeyMappingOnBoot, @function
 2587               	startKeyMappingOnBoot:
 2588               	.LFB16:
 2589               	.LM426:
 2590               	/* prologue: function */
 2591               	/* frame size = 0 */
 2592               	.LM427:
 2593 0dfe 8091 0000 		lds r24,_isBootMapper
 2594 0e02 8823      		tst r24
 2595 0e04 01F0      		breq .L211
 2596               	.LM428:
 2597 0e06 1092 0000 		sts _keyMappingOnBoot,__zero_reg__
 2598 0e0a 0895      		ret
 2599               	.L211:
 2600               	.LM429:
 2601 0e0c 8091 0000 		lds r24,_keyMappingOnBoot
 2602 0e10 8130      		cpi r24,lo8(1)
 2603 0e12 01F4      		brne .L213
 2604               	.LM430:
 2605 0e14 0E94 0000 		call prepareKeyMapping
 2606               	.LM431:
 2607 0e18 1092 0000 		sts _keyMappingOnBoot,__zero_reg__
 2608               	.L213:
 2609 0e1c 0895      		ret
 2610               	.LFE16:
 2611               		.size	startKeyMappingOnBoot, .-startKeyMappingOnBoot
 2612               	.global	str_select_mode
 2613               		.section	.progmem.data,"a",@progbits
 2614               		.type	str_select_mode, @object
 2615               		.size	str_select_mode, 12
 2616               	str_select_mode:
GAS LISTING C:\Users\ADMINI~1\AppData\Local\Temp/ccEBF6mf.s 			page 47


 2617 0000 7365 6C65 		.string	"select mode"
 2617      6374 206D 
 2617      6F64 6500 
 2618               	.global	str_select_mode1
 2619               		.type	str_select_mode1, @object
 2620               		.size	str_select_mode1, 14
 2621               	str_select_mode1:
 2622 000c 313A 4B65 		.string	"1:Key Mapping"
 2622      7920 4D61 
 2622      7070 696E 
 2622      6700 
 2623               	.global	str_select_mode2
 2624               		.type	str_select_mode2, @object
 2625               		.size	str_select_mode2, 8
 2626               	str_select_mode2:
 2627 001a 323A 4D61 		.string	"2:Macro"
 2627      6372 6F00 
 2628               	.global	str_select_mode3
 2629               		.type	str_select_mode3, @object
 2630               		.size	str_select_mode3, 7
 2631               	str_select_mode3:
 2632 0022 333A 4578 		.string	"3:Exit"
 2632      6974 00
 2633               	.global	str_exit
 2634               		.type	str_exit, @object
 2635               		.size	str_exit, 10
 2636               	str_exit:
 2637 0029 676F 6F64 		.string	"good bye~"
 2637      2062 7965 
 2637      7E00 
 2638               	.global	str_macro_message
 2639               		.type	str_macro_message, @object
 2640               		.size	str_macro_message, 6
 2641               	str_macro_message:
 2642 0033 4D61 6372 		.string	"Macro"
 2642      6F00 
 2643               	.global	str_macro_1
 2644               		.type	str_macro_1, @object
 2645               		.size	str_macro_1, 21
 2646               	str_macro_1:
 2647 0039 313A 5365 		.string	"1:Select Macro Index"
 2647      6C65 6374 
 2647      204D 6163 
 2647      726F 2049 
 2647      6E64 6578 
 2648               	.global	str_macro_2
 2649               		.type	str_macro_2, @object
 2650               		.size	str_macro_2, 7
 2651               	str_macro_2:
 2652 004e 323A 4578 		.string	"2:Exit"
 2652      6974 00
 2653               	.global	str_macro_9
 2654               		.type	str_macro_9, @object
 2655               		.size	str_macro_9, 12
 2656               	str_macro_9:
 2657 0055 393A 436C 		.string	"9:Clear All"
 2657      6561 7220 
GAS LISTING C:\Users\ADMINI~1\AppData\Local\Temp/ccEBF6mf.s 			page 48


 2657      416C 6C00 
 2658               	.global	str_back_6
 2659               		.type	str_back_6, @object
 2660               		.size	str_back_6, 7
 2661               	str_back_6:
 2662 0061 363A 4261 		.string	"6:Back"
 2662      636B 00
 2663               	.global	str_mapper_message
 2664               		.type	str_mapper_message, @object
 2665               		.size	str_mapper_message, 11
 2666               	str_mapper_message:
 2667 0068 4B65 7920 		.string	"Key Mapper"
 2667      4D61 7070 
 2667      6572 00
 2668               	.global	str_mapper_1
 2669               		.type	str_mapper_1, @object
 2670               		.size	str_mapper_1, 15
 2671               	str_mapper_1:
 2672 0073 313A 4368 		.string	"1:Change Layer"
 2672      616E 6765 
 2672      204C 6179 
 2672      6572 00
 2673               	.global	str_mapper_2
 2674               		.type	str_mapper_2, @object
 2675               		.size	str_mapper_2, 29
 2676               	str_mapper_2:
 2677 0082 323A 5365 		.string	"2:Select Key - input keycode"
 2677      6C65 6374 
 2677      204B 6579 
 2677      202D 2069 
 2677      6E70 7574 
 2678               	.global	str_mapper_3
 2679               		.type	str_mapper_3, @object
 2680               		.size	str_mapper_3, 16
 2681               	str_mapper_3:
 2682 009f 333A 5361 		.string	"3:Save and Exit"
 2682      7665 2061 
 2682      6E64 2045 
 2682      7869 7400 
 2683               	.global	str_mapper_4
 2684               		.type	str_mapper_4, @object
 2685               		.size	str_mapper_4, 22
 2686               	str_mapper_4:
 2687 00af 343A 4578 		.string	"4:Exit without Saving"
 2687      6974 2077 
 2687      6974 686F 
 2687      7574 2053 
 2687      6176 696E 
 2688               	.global	str_mapper_9
 2689               		.type	str_mapper_9, @object
 2690               		.size	str_mapper_9, 35
 2691               	str_mapper_9:
 2692 00c5 393A 5265 		.string	"9:Reset to Default (Current Layer)"
 2692      7365 7420 
 2692      746F 2044 
 2692      6566 6175 
 2692      6C74 2028 
GAS LISTING C:\Users\ADMINI~1\AppData\Local\Temp/ccEBF6mf.s 			page 49


 2693               	.global	str_prepare_message
 2694               		.type	str_prepare_message, @object
 2695               		.size	str_prepare_message, 8
 2696               	str_prepare_message:
 2697 00e8 7073 3261 		.string	"ps2avrU"
 2697      7672 5500 
 2698               	.global	str_choose_layer
 2699               		.type	str_choose_layer, @object
 2700               		.size	str_choose_layer, 50
 2701               	str_choose_layer:
 2702 00f0 6368 6F6F 		.string	"choose layer (1: normal, 2: FN, 3: FN2) current= "
 2702      7365 206C 
 2702      6179 6572 
 2702      2028 313A 
 2702      206E 6F72 
 2703               	.global	str_choose_key
 2704               		.type	str_choose_key, @object
 2705               		.size	str_choose_key, 31
 2706               	str_choose_key:
 2707 0122 7365 6C65 		.string	"select key (any key you want) "
 2707      6374 206B 
 2707      6579 2028 
 2707      616E 7920 
 2707      6B65 7920 
 2708               	.global	str_input_keycode
 2709               		.type	str_input_keycode, @object
 2710               		.size	str_input_keycode, 34
 2711               	str_input_keycode:
 2712 0141 696E 7075 		.string	"input keycode (must 3 numbers) : "
 2712      7420 6B65 
 2712      7963 6F64 
 2712      6520 286D 
 2712      7573 7420 
 2713               	.global	str_save_end_mapping
 2714               		.type	str_save_end_mapping, @object
 2715               		.size	str_save_end_mapping, 24
 2716               	str_save_end_mapping:
 2717 0163 5361 7665 		.string	"Save & Exit, thank you."
 2717      2026 2045 
 2717      7869 742C 
 2717      2074 6861 
 2717      6E6B 2079 
 2718               	.global	str_cancel_mapping
 2719               		.type	str_cancel_mapping, @object
 2720               		.size	str_cancel_mapping, 36
 2721               	str_cancel_mapping:
 2722 017b 4578 6974 		.string	"Exit without Saving, see you later."
 2722      2077 6974 
 2722      686F 7574 
 2722      2053 6176 
 2722      696E 672C 
 2723               	.global	str_reset_mapping
 2724               		.type	str_reset_mapping, @object
 2725               		.size	str_reset_mapping, 31
 2726               	str_reset_mapping:
 2727 019f 5265 7365 		.string	"Reset to default current layer"
 2727      7420 746F 
GAS LISTING C:\Users\ADMINI~1\AppData\Local\Temp/ccEBF6mf.s 			page 50


 2727      2064 6566 
 2727      6175 6C74 
 2727      2063 7572 
 2728               	.global	str_input_command
 2729               		.type	str_input_command, @object
 2730               		.size	str_input_command, 23
 2731               	str_input_command:
 2732 01be 496E 7075 		.string	"Input Command Number: "
 2732      7420 436F 
 2732      6D6D 616E 
 2732      6420 4E75 
 2732      6D62 6572 
 2733               	.global	str_nothing
 2734               		.type	str_nothing, @object
 2735               		.size	str_nothing, 8
 2736               	str_nothing:
 2737 01d5 6E6F 7468 		.string	"nothing"
 2737      696E 6700 
 2738               	.global	str_save_layer
 2739               		.type	str_save_layer, @object
 2740               		.size	str_save_layer, 19
 2741               	str_save_layer:
 2742 01dd 5361 7665 		.string	"Save current layer"
 2742      2063 7572 
 2742      7265 6E74 
 2742      206C 6179 
 2742      6572 00
 2743               	.global	str_load_layer
 2744               		.type	str_load_layer, @object
 2745               		.size	str_load_layer, 19
 2746               	str_load_layer:
 2747 01f0 4C6F 6164 		.string	"Load current layer"
 2747      2063 7572 
 2747      7265 6E74 
 2747      206C 6179 
 2747      6572 00
 2748               	.global	str_saving
 2749               		.type	str_saving, @object
 2750               		.size	str_saving, 10
 2751               	str_saving:
 2752 0203 7361 7669 		.string	"saving..."
 2752      6E67 2E2E 
 2752      2E00 
 2753               	.global	str_col_row
 2754               		.type	str_col_row, @object
 2755               		.size	str_col_row, 12
 2756               	str_col_row:
 2757 020d 636F 6C2C 		.string	"col, row : "
 2757      2072 6F77 
 2757      203A 2000 
 2758               	.global	str_invalid_keycode
 2759               		.type	str_invalid_keycode, @object
 2760               		.size	str_invalid_keycode, 30
 2761               	str_invalid_keycode:
 2762 0219 696E 7661 		.string	"invalid keycode, input again."
 2762      6C69 6420 
 2762      6B65 7963 
GAS LISTING C:\Users\ADMINI~1\AppData\Local\Temp/ccEBF6mf.s 			page 51


 2762      6F64 652C 
 2762      2069 6E70 
 2763               	.global	str_select_number
 2764               		.type	str_select_number, @object
 2765               		.size	str_select_number, 45
 2766               	str_select_number:
 2767 0237 696E 7075 		.string	"input Macro Index (01~12, must 2 numbers) : "
 2767      7420 4D61 
 2767      6372 6F20 
 2767      496E 6465 
 2767      7820 2830 
 2768               	.global	str_exit_macro
 2769               		.type	str_exit_macro, @object
 2770               		.size	str_exit_macro, 27
 2771               	str_exit_macro:
 2772 0264 4578 6974 		.string	"Exit macro, see you later."
 2772      206D 6163 
 2772      726F 2C20 
 2772      7365 6520 
 2772      796F 7520 
 2773               	.global	str_input_macro
 2774               		.type	str_input_macro, @object
 2775               		.size	str_input_macro, 55
 2776               	str_input_macro:
 2777 027f 696E 7075 		.string	"input key (max 24 keys, stop : press ESC during 1 sec)"
 2777      7420 6B65 
 2777      7920 286D 
 2777      6178 2032 
 2777      3420 6B65 
 2778               	.global	str_invalid_macro_number
 2779               		.type	str_invalid_macro_number, @object
 2780               		.size	str_invalid_macro_number, 28
 2781               	str_invalid_macro_number:
 2782 02b6 696E 7661 		.string	"invalid Index, input again."
 2782      6C69 6420 
 2782      496E 6465 
 2782      782C 2069 
 2782      6E70 7574 
 2783               	.global	str_clear_all_macro
 2784               		.type	str_clear_all_macro, @object
 2785               		.size	str_clear_all_macro, 9
 2786               	str_clear_all_macro:
 2787 02d2 636C 6561 		.string	"clear..."
 2787      722E 2E2E 
 2787      00
 2788               	.global	_pressedEscapeKeyCount
 2789               	.global	_pressedEscapeKeyCount
 2790               		.section .bss
 2791               		.type	_pressedEscapeKeyCount, @object
 2792               		.size	_pressedEscapeKeyCount, 2
 2793               	_pressedEscapeKeyCount:
 2794 0000 0000      		.skip 2,0
 2795               	.global	_isPressedEscapeKey
 2796               	.global	_isPressedEscapeKey
 2797               		.type	_isPressedEscapeKey, @object
 2798               		.size	_isPressedEscapeKey, 1
 2799               	_isPressedEscapeKey:
GAS LISTING C:\Users\ADMINI~1\AppData\Local\Temp/ccEBF6mf.s 			page 52


 2800 0002 00        		.skip 1,0
 2801               	.global	_isTiredEscapeKey
 2802               	.global	_isTiredEscapeKey
 2803               		.type	_isTiredEscapeKey, @object
 2804               		.size	_isTiredEscapeKey, 1
 2805               	_isTiredEscapeKey:
 2806 0003 00        		.skip 1,0
 2807               		.lcomm _isWorkingForEmpty,1
 2808               		.data
 2809               		.type	usingKeys, @object
 2810               		.size	usingKeys, 11
 2811               	usingKeys:
 2812 002e 27        		.byte	39
 2813 002f 1E        		.byte	30
 2814 0030 1F        		.byte	31
 2815 0031 20        		.byte	32
 2816 0032 21        		.byte	33
 2817 0033 22        		.byte	34
 2818 0034 23        		.byte	35
 2819 0035 24        		.byte	36
 2820 0036 25        		.byte	37
 2821 0037 26        		.byte	38
 2822 0038 29        		.byte	41
 2823               		.lcomm _macroDownCount,1
 2824               		.lcomm _isKeyMapping,1
 2825               		.lcomm enabledKeyMappingCount,1
 2826               		.lcomm keyMappingCount,2
 2827               		.type	keyMappingCountMax, @object
 2828               		.size	keyMappingCountMax, 2
 2829               	keyMappingCountMax:
 2830 0039 8813      		.word	5000
 2831               		.lcomm _isBootMapper,1
 2832               		.lcomm _keyMappingOnBoot,1
 2833               		.lcomm _mode,1
 2834               		.lcomm _step,1
 2835               		.lcomm _stepAfterSave,1
 2836               		.lcomm _wait,1
 2837               		.lcomm _col,1
 2838               		.lcomm _row,1
 2839               		.lcomm _buffer,3
 2840               		.lcomm _bufferIndex,1
 2841               		.lcomm _editCount,2
 2842               		.lcomm _currentLayer,1
 2843               		.lcomm _currentLayerAfter,1
 2844               		.comm _macroIndex,1,1
 2845               		.comm _macroBufferIndex,1,1
 2846               		.comm _macroPressedBuffer,24,1
 2847               		.comm _macroInputBuffer,48,1
 2848               		.comm _newKeyMap,136,1
 2849               		.section	.debug_frame,"",@progbits
 2850               	.Lframe0:
 2851 0000 0C00 0000 		.long	.LECIE0-.LSCIE0
 2852               	.LSCIE0:
 2853 0004 FFFF FFFF 		.long	0xffffffff
 2854 0008 01        		.byte	0x1
 2855 0009 00        		.string	""
 2856 000a 01        		.uleb128 0x1
GAS LISTING C:\Users\ADMINI~1\AppData\Local\Temp/ccEBF6mf.s 			page 53


 2857 000b 7F        		.sleb128 -1
 2858 000c 24        		.byte	0x24
 2859 000d 0C        		.byte	0xc
 2860 000e 20        		.uleb128 0x20
 2861 000f 00        		.uleb128 0x0
 2862               		.p2align	2
 2863               	.LECIE0:
 2864               	.LSFDE0:
 2865 0010 0C00 0000 		.long	.LEFDE0-.LASFDE0
 2866               	.LASFDE0:
 2867 0014 0000 0000 		.long	.Lframe0
 2868 0018 0000 0000 		.long	.LFB8
 2869 001c 0C00 0000 		.long	.LFE8-.LFB8
 2870               		.p2align	2
 2871               	.LEFDE0:
 2872               	.LSFDE2:
 2873 0020 0C00 0000 		.long	.LEFDE2-.LASFDE2
 2874               	.LASFDE2:
 2875 0024 0000 0000 		.long	.Lframe0
 2876 0028 0000 0000 		.long	.LFB9
 2877 002c 0800 0000 		.long	.LFE9-.LFB9
 2878               		.p2align	2
 2879               	.LEFDE2:
 2880               	.LSFDE4:
 2881 0030 0C00 0000 		.long	.LEFDE4-.LASFDE4
 2882               	.LASFDE4:
 2883 0034 0000 0000 		.long	.Lframe0
 2884 0038 0000 0000 		.long	.LFB10
 2885 003c 0800 0000 		.long	.LFE10-.LFB10
 2886               		.p2align	2
 2887               	.LEFDE4:
 2888               	.LSFDE6:
 2889 0040 0C00 0000 		.long	.LEFDE6-.LASFDE6
 2890               	.LASFDE6:
 2891 0044 0000 0000 		.long	.Lframe0
 2892 0048 0000 0000 		.long	.LFB11
 2893 004c 4000 0000 		.long	.LFE11-.LFB11
 2894               		.p2align	2
 2895               	.LEFDE6:
 2896               	.LSFDE8:
 2897 0050 0C00 0000 		.long	.LEFDE8-.LASFDE8
 2898               	.LASFDE8:
 2899 0054 0000 0000 		.long	.Lframe0
 2900 0058 0000 0000 		.long	.LFB14
 2901 005c 0600 0000 		.long	.LFE14-.LFB14
 2902               		.p2align	2
 2903               	.LEFDE8:
 2904               	.LSFDE10:
 2905 0060 0C00 0000 		.long	.LEFDE10-.LASFDE10
 2906               	.LASFDE10:
 2907 0064 0000 0000 		.long	.Lframe0
 2908 0068 0000 0000 		.long	.LFB15
 2909 006c 0800 0000 		.long	.LFE15-.LFB15
 2910               		.p2align	2
 2911               	.LEFDE10:
 2912               	.LSFDE12:
 2913 0070 0C00 0000 		.long	.LEFDE12-.LASFDE12
GAS LISTING C:\Users\ADMINI~1\AppData\Local\Temp/ccEBF6mf.s 			page 54


 2914               	.LASFDE12:
 2915 0074 0000 0000 		.long	.Lframe0
 2916 0078 0000 0000 		.long	.LFB17
 2917 007c 0800 0000 		.long	.LFE17-.LFB17
 2918               		.p2align	2
 2919               	.LEFDE12:
 2920               	.LSFDE14:
 2921 0080 0C00 0000 		.long	.LEFDE14-.LASFDE14
 2922               	.LASFDE14:
 2923 0084 0000 0000 		.long	.Lframe0
 2924 0088 0000 0000 		.long	.LFB18
 2925 008c 0600 0000 		.long	.LFE18-.LFB18
 2926               		.p2align	2
 2927               	.LEFDE14:
 2928               	.LSFDE16:
 2929 0090 0C00 0000 		.long	.LEFDE16-.LASFDE16
 2930               	.LASFDE16:
 2931 0094 0000 0000 		.long	.Lframe0
 2932 0098 0000 0000 		.long	.LFB21
 2933 009c 0A00 0000 		.long	.LFE21-.LFB21
 2934               		.p2align	2
 2935               	.LEFDE16:
 2936               	.LSFDE18:
 2937 00a0 0C00 0000 		.long	.LEFDE18-.LASFDE18
 2938               	.LASFDE18:
 2939 00a4 0000 0000 		.long	.Lframe0
 2940 00a8 0000 0000 		.long	.LFB26
 2941 00ac 0E00 0000 		.long	.LFE26-.LFB26
 2942               		.p2align	2
 2943               	.LEFDE18:
 2944               	.LSFDE20:
 2945 00b0 0C00 0000 		.long	.LEFDE20-.LASFDE20
 2946               	.LASFDE20:
 2947 00b4 0000 0000 		.long	.Lframe0
 2948 00b8 0000 0000 		.long	.LFB27
 2949 00bc 0E00 0000 		.long	.LFE27-.LFB27
 2950               		.p2align	2
 2951               	.LEFDE20:
 2952               	.LSFDE22:
 2953 00c0 0C00 0000 		.long	.LEFDE22-.LASFDE22
 2954               	.LASFDE22:
 2955 00c4 0000 0000 		.long	.Lframe0
 2956 00c8 0000 0000 		.long	.LFB30
 2957 00cc 0E00 0000 		.long	.LFE30-.LFB30
 2958               		.p2align	2
 2959               	.LEFDE22:
 2960               	.LSFDE24:
 2961 00d0 0C00 0000 		.long	.LEFDE24-.LASFDE24
 2962               	.LASFDE24:
 2963 00d4 0000 0000 		.long	.Lframe0
 2964 00d8 0000 0000 		.long	.LFB49
 2965 00dc 2600 0000 		.long	.LFE49-.LFB49
 2966               		.p2align	2
 2967               	.LEFDE24:
 2968               	.LSFDE26:
 2969 00e0 0C00 0000 		.long	.LEFDE26-.LASFDE26
 2970               	.LASFDE26:
GAS LISTING C:\Users\ADMINI~1\AppData\Local\Temp/ccEBF6mf.s 			page 55


 2971 00e4 0000 0000 		.long	.Lframe0
 2972 00e8 0000 0000 		.long	.LFB29
 2973 00ec 3400 0000 		.long	.LFE29-.LFB29
 2974               		.p2align	2
 2975               	.LEFDE26:
 2976               	.LSFDE28:
 2977 00f0 0C00 0000 		.long	.LEFDE28-.LASFDE28
 2978               	.LASFDE28:
 2979 00f4 0000 0000 		.long	.Lframe0
 2980 00f8 0000 0000 		.long	.LFB31
 2981 00fc A600 0000 		.long	.LFE31-.LFB31
 2982               		.p2align	2
 2983               	.LEFDE28:
 2984               	.LSFDE30:
 2985 0100 0C00 0000 		.long	.LEFDE30-.LASFDE30
 2986               	.LASFDE30:
 2987 0104 0000 0000 		.long	.Lframe0
 2988 0108 0000 0000 		.long	.LFB19
 2989 010c 3A00 0000 		.long	.LFE19-.LFB19
 2990               		.p2align	2
 2991               	.LEFDE30:
 2992               	.LSFDE32:
 2993 0110 0C00 0000 		.long	.LEFDE32-.LASFDE32
 2994               	.LASFDE32:
 2995 0114 0000 0000 		.long	.Lframe0
 2996 0118 0000 0000 		.long	.LFB32
 2997 011c 9000 0000 		.long	.LFE32-.LFB32
 2998               		.p2align	2
 2999               	.LEFDE32:
 3000               	.LSFDE34:
 3001 0120 0C00 0000 		.long	.LEFDE34-.LASFDE34
 3002               	.LASFDE34:
 3003 0124 0000 0000 		.long	.Lframe0
 3004 0128 0000 0000 		.long	.LFB48
 3005 012c 4C00 0000 		.long	.LFE48-.LFB48
 3006               		.p2align	2
 3007               	.LEFDE34:
 3008               	.LSFDE36:
 3009 0130 0C00 0000 		.long	.LEFDE36-.LASFDE36
 3010               	.LASFDE36:
 3011 0134 0000 0000 		.long	.Lframe0
 3012 0138 0000 0000 		.long	.LFB47
 3013 013c 1E00 0000 		.long	.LFE47-.LFB47
 3014               		.p2align	2
 3015               	.LEFDE36:
 3016               	.LSFDE38:
 3017 0140 0C00 0000 		.long	.LEFDE38-.LASFDE38
 3018               	.LASFDE38:
 3019 0144 0000 0000 		.long	.Lframe0
 3020 0148 0000 0000 		.long	.LFB42
 3021 014c 3C00 0000 		.long	.LFE42-.LFB42
 3022               		.p2align	2
 3023               	.LEFDE38:
 3024               	.LSFDE40:
 3025 0150 0C00 0000 		.long	.LEFDE40-.LASFDE40
 3026               	.LASFDE40:
 3027 0154 0000 0000 		.long	.Lframe0
GAS LISTING C:\Users\ADMINI~1\AppData\Local\Temp/ccEBF6mf.s 			page 56


 3028 0158 0000 0000 		.long	.LFB38
 3029 015c 0E00 0000 		.long	.LFE38-.LFB38
 3030               		.p2align	2
 3031               	.LEFDE40:
 3032               	.LSFDE42:
 3033 0160 0C00 0000 		.long	.LEFDE42-.LASFDE42
 3034               	.LASFDE42:
 3035 0164 0000 0000 		.long	.Lframe0
 3036 0168 0000 0000 		.long	.LFB37
 3037 016c 4800 0000 		.long	.LFE37-.LFB37
 3038               		.p2align	2
 3039               	.LEFDE42:
 3040               	.LSFDE44:
 3041 0170 0C00 0000 		.long	.LEFDE44-.LASFDE44
 3042               	.LASFDE44:
 3043 0174 0000 0000 		.long	.Lframe0
 3044 0178 0000 0000 		.long	.LFB33
 3045 017c D000 0000 		.long	.LFE33-.LFB33
 3046               		.p2align	2
 3047               	.LEFDE44:
 3048               	.LSFDE46:
 3049 0180 0C00 0000 		.long	.LEFDE46-.LASFDE46
 3050               	.LASFDE46:
 3051 0184 0000 0000 		.long	.Lframe0
 3052 0188 0000 0000 		.long	.LFB34
 3053 018c 4000 0000 		.long	.LFE34-.LFB34
 3054               		.p2align	2
 3055               	.LEFDE46:
 3056               	.LSFDE48:
 3057 0190 0C00 0000 		.long	.LEFDE48-.LASFDE48
 3058               	.LASFDE48:
 3059 0194 0000 0000 		.long	.Lframe0
 3060 0198 0000 0000 		.long	.LFB35
 3061 019c 4000 0000 		.long	.LFE35-.LFB35
 3062               		.p2align	2
 3063               	.LEFDE48:
 3064               	.LSFDE50:
 3065 01a0 0C00 0000 		.long	.LEFDE50-.LASFDE50
 3066               	.LASFDE50:
 3067 01a4 0000 0000 		.long	.Lframe0
 3068 01a8 0000 0000 		.long	.LFB46
 3069 01ac 2A00 0000 		.long	.LFE46-.LFB46
 3070               		.p2align	2
 3071               	.LEFDE50:
 3072               	.LSFDE52:
 3073 01b0 0C00 0000 		.long	.LEFDE52-.LASFDE52
 3074               	.LASFDE52:
 3075 01b4 0000 0000 		.long	.Lframe0
 3076 01b8 0000 0000 		.long	.LFB45
 3077 01bc 4800 0000 		.long	.LFE45-.LFB45
 3078               		.p2align	2
 3079               	.LEFDE52:
 3080               	.LSFDE54:
 3081 01c0 0C00 0000 		.long	.LEFDE54-.LASFDE54
 3082               	.LASFDE54:
 3083 01c4 0000 0000 		.long	.Lframe0
 3084 01c8 0000 0000 		.long	.LFB44
GAS LISTING C:\Users\ADMINI~1\AppData\Local\Temp/ccEBF6mf.s 			page 57


 3085 01cc 4800 0000 		.long	.LFE44-.LFB44
 3086               		.p2align	2
 3087               	.LEFDE54:
 3088               	.LSFDE56:
 3089 01d0 0C00 0000 		.long	.LEFDE56-.LASFDE56
 3090               	.LASFDE56:
 3091 01d4 0000 0000 		.long	.Lframe0
 3092 01d8 0000 0000 		.long	.LFB39
 3093 01dc 8800 0000 		.long	.LFE39-.LFB39
 3094               		.p2align	2
 3095               	.LEFDE56:
 3096               	.LSFDE58:
 3097 01e0 0C00 0000 		.long	.LEFDE58-.LASFDE58
 3098               	.LASFDE58:
 3099 01e4 0000 0000 		.long	.Lframe0
 3100 01e8 0000 0000 		.long	.LFB50
 3101 01ec 5A05 0000 		.long	.LFE50-.LFB50
 3102               		.p2align	2
 3103               	.LEFDE58:
 3104               	.LSFDE60:
 3105 01f0 0C00 0000 		.long	.LEFDE60-.LASFDE60
 3106               	.LASFDE60:
 3107 01f4 0000 0000 		.long	.Lframe0
 3108 01f8 0000 0000 		.long	.LFB41
 3109 01fc CE00 0000 		.long	.LFE41-.LFB41
 3110               		.p2align	2
 3111               	.LEFDE60:
 3112               	.LSFDE62:
 3113 0200 0C00 0000 		.long	.LEFDE62-.LASFDE62
 3114               	.LASFDE62:
 3115 0204 0000 0000 		.long	.Lframe0
 3116 0208 0000 0000 		.long	.LFB40
 3117 020c 2400 0000 		.long	.LFE40-.LFB40
 3118               		.p2align	2
 3119               	.LEFDE62:
 3120               	.LSFDE64:
 3121 0210 0C00 0000 		.long	.LEFDE64-.LASFDE64
 3122               	.LASFDE64:
 3123 0214 0000 0000 		.long	.Lframe0
 3124 0218 0000 0000 		.long	.LFB28
 3125 021c 7600 0000 		.long	.LFE28-.LFB28
 3126               		.p2align	2
 3127               	.LEFDE64:
 3128               	.LSFDE66:
 3129 0220 0C00 0000 		.long	.LEFDE66-.LASFDE66
 3130               	.LASFDE66:
 3131 0224 0000 0000 		.long	.Lframe0
 3132 0228 0000 0000 		.long	.LFB43
 3133 022c 3000 0000 		.long	.LFE43-.LFB43
 3134               		.p2align	2
 3135               	.LEFDE66:
 3136               	.LSFDE68:
 3137 0230 0C00 0000 		.long	.LEFDE68-.LASFDE68
 3138               	.LASFDE68:
 3139 0234 0000 0000 		.long	.Lframe0
 3140 0238 0000 0000 		.long	.LFB20
 3141 023c 2400 0000 		.long	.LFE20-.LFB20
GAS LISTING C:\Users\ADMINI~1\AppData\Local\Temp/ccEBF6mf.s 			page 58


 3142               		.p2align	2
 3143               	.LEFDE68:
 3144               	.LSFDE70:
 3145 0240 0C00 0000 		.long	.LEFDE70-.LASFDE70
 3146               	.LASFDE70:
 3147 0244 0000 0000 		.long	.Lframe0
 3148 0248 0000 0000 		.long	.LFB12
 3149 024c 3000 0000 		.long	.LFE12-.LFB12
 3150               		.p2align	2
 3151               	.LEFDE70:
 3152               	.LSFDE72:
 3153 0250 0C00 0000 		.long	.LEFDE72-.LASFDE72
 3154               	.LASFDE72:
 3155 0254 0000 0000 		.long	.Lframe0
 3156 0258 0000 0000 		.long	.LFB22
 3157 025c 3A00 0000 		.long	.LFE22-.LFB22
 3158               		.p2align	2
 3159               	.LEFDE72:
 3160               	.LSFDE74:
 3161 0260 0C00 0000 		.long	.LEFDE74-.LASFDE74
 3162               	.LASFDE74:
 3163 0264 0000 0000 		.long	.Lframe0
 3164 0268 0000 0000 		.long	.LFB23
 3165 026c 7A00 0000 		.long	.LFE23-.LFB23
 3166               		.p2align	2
 3167               	.LEFDE74:
 3168               	.LSFDE76:
 3169 0270 0C00 0000 		.long	.LEFDE76-.LASFDE76
 3170               	.LASFDE76:
 3171 0274 0000 0000 		.long	.Lframe0
 3172 0278 0000 0000 		.long	.LFB16
 3173 027c 2000 0000 		.long	.LFE16-.LFB16
 3174               		.p2align	2
 3175               	.LEFDE76:
 3176               		.text
 3177               	.Letext0:
 3178               		.section	.debug_loc,"",@progbits
 3179               	.Ldebug_loc0:
 3180               	.LLST4:
 3181 0000 1C00 0000 		.long	.LVL0-.Ltext0
 3182 0004 2200 0000 		.long	.LVL1-.Ltext0
 3183 0008 0100      		.word	0x1
 3184 000a 68        		.byte	0x68
 3185 000b 2200 0000 		.long	.LVL1-.Ltext0
 3186 000f 5C00 0000 		.long	.LFE11-.Ltext0
 3187 0013 0100      		.word	0x1
 3188 0015 69        		.byte	0x69
 3189 0016 0000 0000 		.long	0x0
 3190 001a 0000 0000 		.long	0x0
 3191               	.LLST11:
 3192 001e 8200 0000 		.long	.LVL2-.Ltext0
 3193 0022 8600 0000 		.long	.LVL3-.Ltext0
 3194 0026 0100      		.word	0x1
 3195 0028 68        		.byte	0x68
 3196 0029 0000 0000 		.long	0x0
 3197 002d 0000 0000 		.long	0x0
 3198               	.LLST13:
GAS LISTING C:\Users\ADMINI~1\AppData\Local\Temp/ccEBF6mf.s 			page 59


 3199 0031 9000 0000 		.long	.LVL4-.Ltext0
 3200 0035 9400 0000 		.long	.LVL5-.Ltext0
 3201 0039 0100      		.word	0x1
 3202 003b 68        		.byte	0x68
 3203 003c 9400 0000 		.long	.LVL5-.Ltext0
 3204 0040 9E00 0000 		.long	.LFE27-.Ltext0
 3205 0044 0100      		.word	0x1
 3206 0046 69        		.byte	0x69
 3207 0047 0000 0000 		.long	0x0
 3208 004b 0000 0000 		.long	0x0
 3209               	.LLST17:
 3210 004f D200 0000 		.long	.LVL6-.Ltext0
 3211 0053 DA00 0000 		.long	.LVL7-.Ltext0
 3212 0057 0600      		.word	0x6
 3213 0059 68        		.byte	0x68
 3214 005a 93        		.byte	0x93
 3215 005b 01        		.uleb128 0x1
 3216 005c 69        		.byte	0x69
 3217 005d 93        		.byte	0x93
 3218 005e 01        		.uleb128 0x1
 3219 005f DA00 0000 		.long	.LVL7-.Ltext0
 3220 0063 DE00 0000 		.long	.LVL8-.Ltext0
 3221 0067 0600      		.word	0x6
 3222 0069 6E        		.byte	0x6e
 3223 006a 93        		.byte	0x93
 3224 006b 01        		.uleb128 0x1
 3225 006c 6F        		.byte	0x6f
 3226 006d 93        		.byte	0x93
 3227 006e 01        		.uleb128 0x1
 3228 006f 0000 0000 		.long	0x0
 3229 0073 0000 0000 		.long	0x0
 3230               	.LLST19:
 3231 0077 0601 0000 		.long	.LVL15-.Ltext0
 3232 007b 3201 0000 		.long	.LVL17-.Ltext0
 3233 007f 0600      		.word	0x6
 3234 0081 68        		.byte	0x68
 3235 0082 93        		.byte	0x93
 3236 0083 01        		.uleb128 0x1
 3237 0084 69        		.byte	0x69
 3238 0085 93        		.byte	0x93
 3239 0086 01        		.uleb128 0x1
 3240 0087 3201 0000 		.long	.LVL17-.Ltext0
 3241 008b A001 0000 		.long	.LVL18-.Ltext0
 3242 008f 0600      		.word	0x6
 3243 0091 60        		.byte	0x60
 3244 0092 93        		.byte	0x93
 3245 0093 01        		.uleb128 0x1
 3246 0094 61        		.byte	0x61
 3247 0095 93        		.byte	0x93
 3248 0096 01        		.uleb128 0x1
 3249 0097 0000 0000 		.long	0x0
 3250 009b 0000 0000 		.long	0x0
 3251               	.LLST20:
 3252 009f 2201 0000 		.long	.LVL16-.Ltext0
 3253 00a3 A201 0000 		.long	.LVL19-.Ltext0
 3254 00a7 0100      		.word	0x1
 3255 00a9 5F        		.byte	0x5f
GAS LISTING C:\Users\ADMINI~1\AppData\Local\Temp/ccEBF6mf.s 			page 60


 3256 00aa 0000 0000 		.long	0x0
 3257 00ae 0000 0000 		.long	0x0
 3258               	.LLST22:
 3259 00b2 AC01 0000 		.long	.LVL20-.Ltext0
 3260 00b6 B801 0000 		.long	.LVL21-.Ltext0
 3261 00ba 0100      		.word	0x1
 3262 00bc 68        		.byte	0x68
 3263 00bd B801 0000 		.long	.LVL21-.Ltext0
 3264 00c1 E401 0000 		.long	.LVL24-.Ltext0
 3265 00c5 0100      		.word	0x1
 3266 00c7 60        		.byte	0x60
 3267 00c8 0000 0000 		.long	0x0
 3268 00cc 0000 0000 		.long	0x0
 3269               	.LLST23:
 3270 00d0 AC01 0000 		.long	.LVL20-.Ltext0
 3271 00d4 BC01 0000 		.long	.LVL22-.Ltext0
 3272 00d8 0100      		.word	0x1
 3273 00da 66        		.byte	0x66
 3274 00db BC01 0000 		.long	.LVL22-.Ltext0
 3275 00df E201 0000 		.long	.LVL23-.Ltext0
 3276 00e3 0100      		.word	0x1
 3277 00e5 61        		.byte	0x61
 3278 00e6 0000 0000 		.long	0x0
 3279 00ea 0000 0000 		.long	0x0
 3280               	.LLST25:
 3281 00ee E601 0000 		.long	.LVL25-.Ltext0
 3282 00f2 0402 0000 		.long	.LVL26-.Ltext0
 3283 00f6 0600      		.word	0x6
 3284 00f8 68        		.byte	0x68
 3285 00f9 93        		.byte	0x93
 3286 00fa 01        		.uleb128 0x1
 3287 00fb 69        		.byte	0x69
 3288 00fc 93        		.byte	0x93
 3289 00fd 01        		.uleb128 0x1
 3290 00fe 0402 0000 		.long	.LVL26-.Ltext0
 3291 0102 4602 0000 		.long	.LVL30-.Ltext0
 3292 0106 0600      		.word	0x6
 3293 0108 60        		.byte	0x60
 3294 0109 93        		.byte	0x93
 3295 010a 01        		.uleb128 0x1
 3296 010b 61        		.byte	0x61
 3297 010c 93        		.byte	0x93
 3298 010d 01        		.uleb128 0x1
 3299 010e 4602 0000 		.long	.LVL30-.Ltext0
 3300 0112 5602 0000 		.long	.LVL31-.Ltext0
 3301 0116 0600      		.word	0x6
 3302 0118 68        		.byte	0x68
 3303 0119 93        		.byte	0x93
 3304 011a 01        		.uleb128 0x1
 3305 011b 69        		.byte	0x69
 3306 011c 93        		.byte	0x93
 3307 011d 01        		.uleb128 0x1
 3308 011e 5602 0000 		.long	.LVL31-.Ltext0
 3309 0122 6C02 0000 		.long	.LVL35-.Ltext0
 3310 0126 0600      		.word	0x6
 3311 0128 60        		.byte	0x60
 3312 0129 93        		.byte	0x93
GAS LISTING C:\Users\ADMINI~1\AppData\Local\Temp/ccEBF6mf.s 			page 61


 3313 012a 01        		.uleb128 0x1
 3314 012b 61        		.byte	0x61
 3315 012c 93        		.byte	0x93
 3316 012d 01        		.uleb128 0x1
 3317 012e 6C02 0000 		.long	.LVL35-.Ltext0
 3318 0132 7602 0000 		.long	.LFE32-.Ltext0
 3319 0136 0600      		.word	0x6
 3320 0138 68        		.byte	0x68
 3321 0139 93        		.byte	0x93
 3322 013a 01        		.uleb128 0x1
 3323 013b 69        		.byte	0x69
 3324 013c 93        		.byte	0x93
 3325 013d 01        		.uleb128 0x1
 3326 013e 0000 0000 		.long	0x0
 3327 0142 0000 0000 		.long	0x0
 3328               	.LLST26:
 3329 0146 2602 0000 		.long	.LVL28-.Ltext0
 3330 014a 2E02 0000 		.long	.LVL29-.Ltext0
 3331 014e 0100      		.word	0x1
 3332 0150 68        		.byte	0x68
 3333 0151 0000 0000 		.long	0x0
 3334 0155 0000 0000 		.long	0x0
 3335               	.LLST27:
 3336 0159 0402 0000 		.long	.LVL26-.Ltext0
 3337 015d 0E02 0000 		.long	.LVL27-.Ltext0
 3338 0161 0600      		.word	0x6
 3339 0163 6E        		.byte	0x6e
 3340 0164 93        		.byte	0x93
 3341 0165 01        		.uleb128 0x1
 3342 0166 6F        		.byte	0x6f
 3343 0167 93        		.byte	0x93
 3344 0168 01        		.uleb128 0x1
 3345 0169 5802 0000 		.long	.LVL32-.Ltext0
 3346 016d 7602 0000 		.long	.LFE32-.Ltext0
 3347 0171 0600      		.word	0x6
 3348 0173 6E        		.byte	0x6e
 3349 0174 93        		.byte	0x93
 3350 0175 01        		.uleb128 0x1
 3351 0176 6F        		.byte	0x6f
 3352 0177 93        		.byte	0x93
 3353 0178 01        		.uleb128 0x1
 3354 0179 0000 0000 		.long	0x0
 3355 017d 0000 0000 		.long	0x0
 3356               	.LLST28:
 3357 0181 0402 0000 		.long	.LVL26-.Ltext0
 3358 0185 2602 0000 		.long	.LVL28-.Ltext0
 3359 0189 0100      		.word	0x1
 3360 018b 68        		.byte	0x68
 3361 018c 5E02 0000 		.long	.LVL33-.Ltext0
 3362 0190 7602 0000 		.long	.LFE32-.Ltext0
 3363 0194 0100      		.word	0x1
 3364 0196 68        		.byte	0x68
 3365 0197 0000 0000 		.long	0x0
 3366 019b 0000 0000 		.long	0x0
 3367               	.LLST40:
 3368 019f 3405 0000 		.long	.LVL38-.Ltext0
 3369 01a3 4405 0000 		.long	.LVL39-.Ltext0
GAS LISTING C:\Users\ADMINI~1\AppData\Local\Temp/ccEBF6mf.s 			page 62


 3370 01a7 0100      		.word	0x1
 3371 01a9 68        		.byte	0x68
 3372 01aa 4405 0000 		.long	.LVL39-.Ltext0
 3373 01ae 5C05 0000 		.long	.LVL41-.Ltext0
 3374 01b2 0100      		.word	0x1
 3375 01b4 69        		.byte	0x69
 3376 01b5 7205 0000 		.long	.LVL44-.Ltext0
 3377 01b9 7C05 0000 		.long	.LFE44-.Ltext0
 3378 01bd 0100      		.word	0x1
 3379 01bf 68        		.byte	0x68
 3380 01c0 0000 0000 		.long	0x0
 3381 01c4 0000 0000 		.long	0x0
 3382               	.LLST41:
 3383 01c8 5605 0000 		.long	.LVL40-.Ltext0
 3384 01cc 5C05 0000 		.long	.LVL41-.Ltext0
 3385 01d0 0100      		.word	0x1
 3386 01d2 69        		.byte	0x69
 3387 01d3 5E05 0000 		.long	.LVL42-.Ltext0
 3388 01d7 6A05 0000 		.long	.LVL43-.Ltext0
 3389 01db 0100      		.word	0x1
 3390 01dd 69        		.byte	0x69
 3391 01de 6A05 0000 		.long	.LVL43-.Ltext0
 3392 01e2 7C05 0000 		.long	.LFE44-.Ltext0
 3393 01e6 0100      		.word	0x1
 3394 01e8 69        		.byte	0x69
 3395 01e9 0000 0000 		.long	0x0
 3396 01ed 0000 0000 		.long	0x0
 3397               	.LLST44:
 3398 01f1 0406 0000 		.long	.LVL45-.Ltext0
 3399 01f5 2C06 0000 		.long	.LVL46-.Ltext0
 3400 01f9 0100      		.word	0x1
 3401 01fb 68        		.byte	0x68
 3402 01fc 2C06 0000 		.long	.LVL46-.Ltext0
 3403 0200 560B 0000 		.long	.LVL78-.Ltext0
 3404 0204 0100      		.word	0x1
 3405 0206 5D        		.byte	0x5d
 3406 0207 0000 0000 		.long	0x0
 3407 020b 0000 0000 		.long	0x0
 3408               	.LLST45:
 3409 020f 0406 0000 		.long	.LVL45-.Ltext0
 3410 0213 3206 0000 		.long	.LVL47-.Ltext0
 3411 0217 0100      		.word	0x1
 3412 0219 66        		.byte	0x66
 3413 021a 3206 0000 		.long	.LVL47-.Ltext0
 3414 021e 5A0B 0000 		.long	.LVL80-.Ltext0
 3415 0222 0100      		.word	0x1
 3416 0224 5B        		.byte	0x5b
 3417 0225 5A0B 0000 		.long	.LVL80-.Ltext0
 3418 0229 5E0B 0000 		.long	.LFE50-.Ltext0
 3419 022d 0100      		.word	0x1
 3420 022f 66        		.byte	0x66
 3421 0230 0000 0000 		.long	0x0
 3422 0234 0000 0000 		.long	0x0
 3423               	.LLST46:
 3424 0238 0406 0000 		.long	.LVL45-.Ltext0
 3425 023c 3206 0000 		.long	.LVL47-.Ltext0
 3426 0240 0100      		.word	0x1
GAS LISTING C:\Users\ADMINI~1\AppData\Local\Temp/ccEBF6mf.s 			page 63


 3427 0242 64        		.byte	0x64
 3428 0243 3206 0000 		.long	.LVL47-.Ltext0
 3429 0247 5C0B 0000 		.long	.LVL81-.Ltext0
 3430 024b 0100      		.word	0x1
 3431 024d 5A        		.byte	0x5a
 3432 024e 5C0B 0000 		.long	.LVL81-.Ltext0
 3433 0252 5E0B 0000 		.long	.LFE50-.Ltext0
 3434 0256 0100      		.word	0x1
 3435 0258 64        		.byte	0x64
 3436 0259 0000 0000 		.long	0x0
 3437 025d 0000 0000 		.long	0x0
 3438               	.LLST47:
 3439 0261 0406 0000 		.long	.LVL45-.Ltext0
 3440 0265 3206 0000 		.long	.LVL47-.Ltext0
 3441 0269 0100      		.word	0x1
 3442 026b 62        		.byte	0x62
 3443 026c 3206 0000 		.long	.LVL47-.Ltext0
 3444 0270 580B 0000 		.long	.LVL79-.Ltext0
 3445 0274 0100      		.word	0x1
 3446 0276 5C        		.byte	0x5c
 3447 0277 580B 0000 		.long	.LVL79-.Ltext0
 3448 027b 5E0B 0000 		.long	.LFE50-.Ltext0
 3449 027f 0100      		.word	0x1
 3450 0281 62        		.byte	0x62
 3451 0282 0000 0000 		.long	0x0
 3452 0286 0000 0000 		.long	0x0
 3453               	.LLST48:
 3454 028a 9C07 0000 		.long	.LVL51-.Ltext0
 3455 028e 7408 0000 		.long	.LVL52-.Ltext0
 3456 0292 0100      		.word	0x1
 3457 0294 60        		.byte	0x60
 3458 0295 C809 0000 		.long	.LVL61-.Ltext0
 3459 0299 CC09 0000 		.long	.LVL62-.Ltext0
 3460 029d 0100      		.word	0x1
 3461 029f 60        		.byte	0x60
 3462 02a0 900A 0000 		.long	.LVL65-.Ltext0
 3463 02a4 9A0A 0000 		.long	.LVL66-.Ltext0
 3464 02a8 0100      		.word	0x1
 3465 02aa 60        		.byte	0x60
 3466 02ab 3E0B 0000 		.long	.LVL73-.Ltext0
 3467 02af 500B 0000 		.long	.LVL76-.Ltext0
 3468 02b3 0100      		.word	0x1
 3469 02b5 60        		.byte	0x60
 3470 02b6 0000 0000 		.long	0x0
 3471 02ba 0000 0000 		.long	0x0
 3472               	.LLST49:
 3473 02be 7209 0000 		.long	.LVL60-.Ltext0
 3474 02c2 CC09 0000 		.long	.LVL62-.Ltext0
 3475 02c6 0100      		.word	0x1
 3476 02c8 61        		.byte	0x61
 3477 02c9 900A 0000 		.long	.LVL65-.Ltext0
 3478 02cd 9A0A 0000 		.long	.LVL66-.Ltext0
 3479 02d1 0100      		.word	0x1
 3480 02d3 61        		.byte	0x61
 3481 02d4 3E0B 0000 		.long	.LVL73-.Ltext0
 3482 02d8 4E0B 0000 		.long	.LVL75-.Ltext0
 3483 02dc 0100      		.word	0x1
GAS LISTING C:\Users\ADMINI~1\AppData\Local\Temp/ccEBF6mf.s 			page 64


 3484 02de 61        		.byte	0x61
 3485 02df 0000 0000 		.long	0x0
 3486 02e3 0000 0000 		.long	0x0
 3487               	.LLST50:
 3488 02e7 2209 0000 		.long	.LVL53-.Ltext0
 3489 02eb 3409 0000 		.long	.LVL54-.Ltext0
 3490 02ef 0600      		.word	0x6
 3491 02f1 62        		.byte	0x62
 3492 02f2 93        		.byte	0x93
 3493 02f3 01        		.uleb128 0x1
 3494 02f4 63        		.byte	0x63
 3495 02f5 93        		.byte	0x93
 3496 02f6 01        		.uleb128 0x1
 3497 02f7 4609 0000 		.long	.LVL55-.Ltext0
 3498 02fb 4A09 0000 		.long	.LVL56-.Ltext0
 3499 02ff 0600      		.word	0x6
 3500 0301 62        		.byte	0x62
 3501 0302 93        		.byte	0x93
 3502 0303 01        		.uleb128 0x1
 3503 0304 63        		.byte	0x63
 3504 0305 93        		.byte	0x93
 3505 0306 01        		.uleb128 0x1
 3506 0307 B00A 0000 		.long	.LVL67-.Ltext0
 3507 030b 0A0B 0000 		.long	.LVL68-.Ltext0
 3508 030f 0600      		.word	0x6
 3509 0311 64        		.byte	0x64
 3510 0312 93        		.byte	0x93
 3511 0313 01        		.uleb128 0x1
 3512 0314 65        		.byte	0x65
 3513 0315 93        		.byte	0x93
 3514 0316 01        		.uleb128 0x1
 3515 0317 120B 0000 		.long	.LVL69-.Ltext0
 3516 031b 280B 0000 		.long	.LVL70-.Ltext0
 3517 031f 0600      		.word	0x6
 3518 0321 64        		.byte	0x64
 3519 0322 93        		.byte	0x93
 3520 0323 01        		.uleb128 0x1
 3521 0324 65        		.byte	0x65
 3522 0325 93        		.byte	0x93
 3523 0326 01        		.uleb128 0x1
 3524 0327 0000 0000 		.long	0x0
 3525 032b 0000 0000 		.long	0x0
 3526               	.LLST51:
 3527 032f 4E06 0000 		.long	.LVL48-.Ltext0
 3528 0333 540B 0000 		.long	.LVL77-.Ltext0
 3529 0337 0600      		.word	0x6
 3530 0339 5E        		.byte	0x5e
 3531 033a 93        		.byte	0x93
 3532 033b 01        		.uleb128 0x1
 3533 033c 5F        		.byte	0x5f
 3534 033d 93        		.byte	0x93
 3535 033e 01        		.uleb128 0x1
 3536 033f 0000 0000 		.long	0x0
 3537 0343 0000 0000 		.long	0x0
 3538               	.LLST52:
 3539 0347 C406 0000 		.long	.LVL49-.Ltext0
 3540 034b D406 0000 		.long	.LVL50-.Ltext0
GAS LISTING C:\Users\ADMINI~1\AppData\Local\Temp/ccEBF6mf.s 			page 65


 3541 034f 0600      		.word	0x6
 3542 0351 66        		.byte	0x66
 3543 0352 93        		.byte	0x93
 3544 0353 01        		.uleb128 0x1
 3545 0354 67        		.byte	0x67
 3546 0355 93        		.byte	0x93
 3547 0356 01        		.uleb128 0x1
 3548 0357 420B 0000 		.long	.LVL74-.Ltext0
 3549 035b 5E0B 0000 		.long	.LFE50-.Ltext0
 3550 035f 0600      		.word	0x6
 3551 0361 66        		.byte	0x66
 3552 0362 93        		.byte	0x93
 3553 0363 01        		.uleb128 0x1
 3554 0364 67        		.byte	0x67
 3555 0365 93        		.byte	0x93
 3556 0366 01        		.uleb128 0x1
 3557 0367 0000 0000 		.long	0x0
 3558 036b 0000 0000 		.long	0x0
 3559               	.LLST53:
 3560 036f 5409 0000 		.long	.LVL57-.Ltext0
 3561 0373 6409 0000 		.long	.LVL59-.Ltext0
 3562 0377 0600      		.word	0x6
 3563 0379 68        		.byte	0x68
 3564 037a 93        		.byte	0x93
 3565 037b 01        		.uleb128 0x1
 3566 037c 69        		.byte	0x69
 3567 037d 93        		.byte	0x93
 3568 037e 01        		.uleb128 0x1
 3569 037f 420B 0000 		.long	.LVL74-.Ltext0
 3570 0383 5E0B 0000 		.long	.LFE50-.Ltext0
 3571 0387 0600      		.word	0x6
 3572 0389 68        		.byte	0x68
 3573 038a 93        		.byte	0x93
 3574 038b 01        		.uleb128 0x1
 3575 038c 69        		.byte	0x69
 3576 038d 93        		.byte	0x93
 3577 038e 01        		.uleb128 0x1
 3578 038f 0000 0000 		.long	0x0
 3579 0393 0000 0000 		.long	0x0
 3580               	.LLST54:
 3581 0397 5A09 0000 		.long	.LVL58-.Ltext0
 3582 039b 6409 0000 		.long	.LVL59-.Ltext0
 3583 039f 0600      		.word	0x6
 3584 03a1 6E        		.byte	0x6e
 3585 03a2 93        		.byte	0x93
 3586 03a3 01        		.uleb128 0x1
 3587 03a4 6F        		.byte	0x6f
 3588 03a5 93        		.byte	0x93
 3589 03a6 01        		.uleb128 0x1
 3590 03a7 420B 0000 		.long	.LVL74-.Ltext0
 3591 03ab 5E0B 0000 		.long	.LFE50-.Ltext0
 3592 03af 0600      		.word	0x6
 3593 03b1 6E        		.byte	0x6e
 3594 03b2 93        		.byte	0x93
 3595 03b3 01        		.uleb128 0x1
 3596 03b4 6F        		.byte	0x6f
 3597 03b5 93        		.byte	0x93
GAS LISTING C:\Users\ADMINI~1\AppData\Local\Temp/ccEBF6mf.s 			page 66


 3598 03b6 01        		.uleb128 0x1
 3599 03b7 0000 0000 		.long	0x0
 3600 03bb 0000 0000 		.long	0x0
 3601               	.LLST55:
 3602 03bf 4A0A 0000 		.long	.LVL63-.Ltext0
 3603 03c3 500A 0000 		.long	.LVL64-.Ltext0
 3604 03c7 0100      		.word	0x1
 3605 03c9 6E        		.byte	0x6e
 3606 03ca 0000 0000 		.long	0x0
 3607 03ce 0000 0000 		.long	0x0
 3608               	.LLST56:
 3609 03d2 2E0B 0000 		.long	.LVL71-.Ltext0
 3610 03d6 3E0B 0000 		.long	.LVL73-.Ltext0
 3611 03da 0600      		.word	0x6
 3612 03dc 68        		.byte	0x68
 3613 03dd 93        		.byte	0x93
 3614 03de 01        		.uleb128 0x1
 3615 03df 69        		.byte	0x69
 3616 03e0 93        		.byte	0x93
 3617 03e1 01        		.uleb128 0x1
 3618 03e2 420B 0000 		.long	.LVL74-.Ltext0
 3619 03e6 5E0B 0000 		.long	.LFE50-.Ltext0
 3620 03ea 0600      		.word	0x6
 3621 03ec 68        		.byte	0x68
 3622 03ed 93        		.byte	0x93
 3623 03ee 01        		.uleb128 0x1
 3624 03ef 69        		.byte	0x69
 3625 03f0 93        		.byte	0x93
 3626 03f1 01        		.uleb128 0x1
 3627 03f2 0000 0000 		.long	0x0
 3628 03f6 0000 0000 		.long	0x0
 3629               	.LLST57:
 3630 03fa 340B 0000 		.long	.LVL72-.Ltext0
 3631 03fe 3E0B 0000 		.long	.LVL73-.Ltext0
 3632 0402 0600      		.word	0x6
 3633 0404 6E        		.byte	0x6e
 3634 0405 93        		.byte	0x93
 3635 0406 01        		.uleb128 0x1
 3636 0407 6F        		.byte	0x6f
 3637 0408 93        		.byte	0x93
 3638 0409 01        		.uleb128 0x1
 3639 040a 420B 0000 		.long	.LVL74-.Ltext0
 3640 040e 5E0B 0000 		.long	.LFE50-.Ltext0
 3641 0412 0600      		.word	0x6
 3642 0414 6E        		.byte	0x6e
 3643 0415 93        		.byte	0x93
 3644 0416 01        		.uleb128 0x1
 3645 0417 6F        		.byte	0x6f
 3646 0418 93        		.byte	0x93
 3647 0419 01        		.uleb128 0x1
 3648 041a 0000 0000 		.long	0x0
 3649 041e 0000 0000 		.long	0x0
 3650               	.LLST61:
 3651 0422 500C 0000 		.long	.LVL82-.Ltext0
 3652 0426 600C 0000 		.long	.LVL83-.Ltext0
 3653 042a 0100      		.word	0x1
 3654 042c 68        		.byte	0x68
GAS LISTING C:\Users\ADMINI~1\AppData\Local\Temp/ccEBF6mf.s 			page 67


 3655 042d 600C 0000 		.long	.LVL83-.Ltext0
 3656 0431 C40C 0000 		.long	.LVL97-.Ltext0
 3657 0435 0100      		.word	0x1
 3658 0437 5F        		.byte	0x5f
 3659 0438 0000 0000 		.long	0x0
 3660 043c 0000 0000 		.long	0x0
 3661               	.LLST62:
 3662 0440 500C 0000 		.long	.LVL82-.Ltext0
 3663 0444 640C 0000 		.long	.LVL84-.Ltext0
 3664 0448 0100      		.word	0x1
 3665 044a 66        		.byte	0x66
 3666 044b 640C 0000 		.long	.LVL84-.Ltext0
 3667 044f BC0C 0000 		.long	.LVL93-.Ltext0
 3668 0453 0600      		.word	0x6
 3669 0455 6C        		.byte	0x6c
 3670 0456 93        		.byte	0x93
 3671 0457 01        		.uleb128 0x1
 3672 0458 6D        		.byte	0x6d
 3673 0459 93        		.byte	0x93
 3674 045a 01        		.uleb128 0x1
 3675 045b BC0C 0000 		.long	.LVL93-.Ltext0
 3676 045f BE0C 0000 		.long	.LVL94-.Ltext0
 3677 0463 0100      		.word	0x1
 3678 0465 6C        		.byte	0x6c
 3679 0466 0000 0000 		.long	0x0
 3680 046a 0000 0000 		.long	0x0
 3681               	.LLST63:
 3682 046e 500C 0000 		.long	.LVL82-.Ltext0
 3683 0472 680C 0000 		.long	.LVL85-.Ltext0
 3684 0476 0100      		.word	0x1
 3685 0478 64        		.byte	0x64
 3686 0479 680C 0000 		.long	.LVL85-.Ltext0
 3687 047d C00C 0000 		.long	.LVL95-.Ltext0
 3688 0481 0600      		.word	0x6
 3689 0483 60        		.byte	0x60
 3690 0484 93        		.byte	0x93
 3691 0485 01        		.uleb128 0x1
 3692 0486 61        		.byte	0x61
 3693 0487 93        		.byte	0x93
 3694 0488 01        		.uleb128 0x1
 3695 0489 C00C 0000 		.long	.LVL95-.Ltext0
 3696 048d C20C 0000 		.long	.LVL96-.Ltext0
 3697 0491 0100      		.word	0x1
 3698 0493 60        		.byte	0x60
 3699 0494 C20C 0000 		.long	.LVL96-.Ltext0
 3700 0498 C60C 0000 		.long	.LFE28-.Ltext0
 3701 049c 0100      		.word	0x1
 3702 049e 64        		.byte	0x64
 3703 049f 0000 0000 		.long	0x0
 3704 04a3 0000 0000 		.long	0x0
 3705               	.LLST65:
 3706 04a7 C60C 0000 		.long	.LVL98-.Ltext0
 3707 04ab CE0C 0000 		.long	.LVL99-.Ltext0
 3708 04af 0100      		.word	0x1
 3709 04b1 68        		.byte	0x68
 3710 04b2 CE0C 0000 		.long	.LVL99-.Ltext0
 3711 04b6 DE0C 0000 		.long	.LVL100-.Ltext0
GAS LISTING C:\Users\ADMINI~1\AppData\Local\Temp/ccEBF6mf.s 			page 68


 3712 04ba 0100      		.word	0x1
 3713 04bc 69        		.byte	0x69
 3714 04bd F00C 0000 		.long	.LVL101-.Ltext0
 3715 04c1 F60C 0000 		.long	.LFE43-.Ltext0
 3716 04c5 0100      		.word	0x1
 3717 04c7 69        		.byte	0x69
 3718 04c8 0000 0000 		.long	0x0
 3719 04cc 0000 0000 		.long	0x0
 3720               		.section	.debug_info
 3721 0000 1A16 0000 		.long	0x161a
 3722 0004 0200      		.word	0x2
 3723 0006 0000 0000 		.long	.Ldebug_abbrev0
 3724 000a 04        		.byte	0x4
 3725 000b 01        		.uleb128 0x1
 3726 000c 0000 0000 		.long	.LASF305
 3727 0010 01        		.byte	0x1
 3728 0011 0000 0000 		.long	.LASF306
 3729 0015 0000 0000 		.long	.LASF307
 3730 0019 0000 0000 		.long	.Ltext0
 3731 001d 0000 0000 		.long	.Letext0
 3732 0021 0000 0000 		.long	.Ldebug_line0
 3733 0025 02        		.uleb128 0x2
 3734 0026 01        		.byte	0x1
 3735 0027 08        		.byte	0x8
 3736 0028 0000 0000 		.long	.LASF0
 3737 002c 02        		.uleb128 0x2
 3738 002d 01        		.byte	0x1
 3739 002e 06        		.byte	0x6
 3740 002f 0000 0000 		.long	.LASF1
 3741 0033 02        		.uleb128 0x2
 3742 0034 02        		.byte	0x2
 3743 0035 07        		.byte	0x7
 3744 0036 0000 0000 		.long	.LASF2
 3745 003a 02        		.uleb128 0x2
 3746 003b 02        		.byte	0x2
 3747 003c 05        		.byte	0x5
 3748 003d 0000 0000 		.long	.LASF3
 3749 0041 02        		.uleb128 0x2
 3750 0042 04        		.byte	0x4
 3751 0043 07        		.byte	0x7
 3752 0044 0000 0000 		.long	.LASF4
 3753 0048 02        		.uleb128 0x2
 3754 0049 04        		.byte	0x4
 3755 004a 05        		.byte	0x5
 3756 004b 0000 0000 		.long	.LASF5
 3757 004f 02        		.uleb128 0x2
 3758 0050 08        		.byte	0x8
 3759 0051 07        		.byte	0x7
 3760 0052 0000 0000 		.long	.LASF6
 3761 0056 02        		.uleb128 0x2
 3762 0057 08        		.byte	0x8
 3763 0058 05        		.byte	0x5
 3764 0059 0000 0000 		.long	.LASF7
 3765 005d 02        		.uleb128 0x2
 3766 005e 02        		.byte	0x2
 3767 005f 07        		.byte	0x7
 3768 0060 0000 0000 		.long	.LASF8
GAS LISTING C:\Users\ADMINI~1\AppData\Local\Temp/ccEBF6mf.s 			page 69


 3769 0064 02        		.uleb128 0x2
 3770 0065 01        		.byte	0x1
 3771 0066 06        		.byte	0x6
 3772 0067 0000 0000 		.long	.LASF9
 3773 006b 03        		.uleb128 0x3
 3774 006c 02        		.byte	0x2
 3775 006d 05        		.byte	0x5
 3776 006e 696E 7400 		.string	"int"
 3777 0072 04        		.uleb128 0x4
 3778 0073 0000 0000 		.long	.LASF10
 3779 0077 04        		.byte	0x4
 3780 0078 7A        		.byte	0x7a
 3781 0079 2500 0000 		.long	0x25
 3782 007d 04        		.uleb128 0x4
 3783 007e 0000 0000 		.long	.LASF11
 3784 0082 04        		.byte	0x4
 3785 0083 7C        		.byte	0x7c
 3786 0084 5D00 0000 		.long	0x5d
 3787 0088 05        		.uleb128 0x5
 3788 0089 01        		.byte	0x1
 3789 008a 06        		.byte	0x6
 3790 008b 05        		.uleb128 0x5
 3791 008c 01        		.byte	0x1
 3792 008d 08        		.byte	0x8
 3793 008e 06        		.uleb128 0x6
 3794 008f 02        		.byte	0x2
 3795 0090 6400 0000 		.long	0x64
 3796 0094 07        		.uleb128 0x7
 3797 0095 02        		.byte	0x2
 3798 0096 05        		.byte	0x5
 3799 0097 2F        		.byte	0x2f
 3800 0098 F100 0000 		.long	0xf1
 3801 009c 08        		.uleb128 0x8
 3802 009d 0000 0000 		.long	.LASF12
 3803 00a1 C901      		.sleb128 201
 3804 00a3 08        		.uleb128 0x8
 3805 00a4 0000 0000 		.long	.LASF13
 3806 00a8 CA01      		.sleb128 202
 3807 00aa 08        		.uleb128 0x8
 3808 00ab 0000 0000 		.long	.LASF14
 3809 00af CB01      		.sleb128 203
 3810 00b1 08        		.uleb128 0x8
 3811 00b2 0000 0000 		.long	.LASF15
 3812 00b6 CC01      		.sleb128 204
 3813 00b8 08        		.uleb128 0x8
 3814 00b9 0000 0000 		.long	.LASF16
 3815 00bd CD01      		.sleb128 205
 3816 00bf 08        		.uleb128 0x8
 3817 00c0 0000 0000 		.long	.LASF17
 3818 00c4 CE01      		.sleb128 206
 3819 00c6 08        		.uleb128 0x8
 3820 00c7 0000 0000 		.long	.LASF18
 3821 00cb CF01      		.sleb128 207
 3822 00cd 08        		.uleb128 0x8
 3823 00ce 0000 0000 		.long	.LASF19
 3824 00d2 D001      		.sleb128 208
 3825 00d4 08        		.uleb128 0x8
GAS LISTING C:\Users\ADMINI~1\AppData\Local\Temp/ccEBF6mf.s 			page 70


 3826 00d5 0000 0000 		.long	.LASF20
 3827 00d9 D101      		.sleb128 209
 3828 00db 08        		.uleb128 0x8
 3829 00dc 0000 0000 		.long	.LASF21
 3830 00e0 D201      		.sleb128 210
 3831 00e2 08        		.uleb128 0x8
 3832 00e3 0000 0000 		.long	.LASF22
 3833 00e7 D301      		.sleb128 211
 3834 00e9 08        		.uleb128 0x8
 3835 00ea 0000 0000 		.long	.LASF23
 3836 00ee D401      		.sleb128 212
 3837 00f0 00        		.byte	0x0
 3838 00f1 07        		.uleb128 0x7
 3839 00f2 02        		.byte	0x2
 3840 00f3 05        		.byte	0x5
 3841 00f4 3E        		.byte	0x3e
 3842 00f5 AA04 0000 		.long	0x4aa
 3843 00f9 08        		.uleb128 0x8
 3844 00fa 0000 0000 		.long	.LASF24
 3845 00fe 00        		.sleb128 0
 3846 00ff 08        		.uleb128 0x8
 3847 0100 0000 0000 		.long	.LASF25
 3848 0104 01        		.sleb128 1
 3849 0105 08        		.uleb128 0x8
 3850 0106 0000 0000 		.long	.LASF26
 3851 010a 02        		.sleb128 2
 3852 010b 08        		.uleb128 0x8
 3853 010c 0000 0000 		.long	.LASF27
 3854 0110 03        		.sleb128 3
 3855 0111 08        		.uleb128 0x8
 3856 0112 0000 0000 		.long	.LASF28
 3857 0116 04        		.sleb128 4
 3858 0117 08        		.uleb128 0x8
 3859 0118 0000 0000 		.long	.LASF29
 3860 011c 05        		.sleb128 5
 3861 011d 08        		.uleb128 0x8
 3862 011e 0000 0000 		.long	.LASF30
 3863 0122 06        		.sleb128 6
 3864 0123 08        		.uleb128 0x8
 3865 0124 0000 0000 		.long	.LASF31
 3866 0128 07        		.sleb128 7
 3867 0129 08        		.uleb128 0x8
 3868 012a 0000 0000 		.long	.LASF32
 3869 012e 08        		.sleb128 8
 3870 012f 08        		.uleb128 0x8
 3871 0130 0000 0000 		.long	.LASF33
 3872 0134 09        		.sleb128 9
 3873 0135 08        		.uleb128 0x8
 3874 0136 0000 0000 		.long	.LASF34
 3875 013a 0A        		.sleb128 10
 3876 013b 08        		.uleb128 0x8
 3877 013c 0000 0000 		.long	.LASF35
 3878 0140 0B        		.sleb128 11
 3879 0141 08        		.uleb128 0x8
 3880 0142 0000 0000 		.long	.LASF36
 3881 0146 0C        		.sleb128 12
 3882 0147 08        		.uleb128 0x8
GAS LISTING C:\Users\ADMINI~1\AppData\Local\Temp/ccEBF6mf.s 			page 71


 3883 0148 0000 0000 		.long	.LASF37
 3884 014c 0D        		.sleb128 13
 3885 014d 08        		.uleb128 0x8
 3886 014e 0000 0000 		.long	.LASF38
 3887 0152 0E        		.sleb128 14
 3888 0153 08        		.uleb128 0x8
 3889 0154 0000 0000 		.long	.LASF39
 3890 0158 0F        		.sleb128 15
 3891 0159 08        		.uleb128 0x8
 3892 015a 0000 0000 		.long	.LASF40
 3893 015e 10        		.sleb128 16
 3894 015f 08        		.uleb128 0x8
 3895 0160 0000 0000 		.long	.LASF41
 3896 0164 11        		.sleb128 17
 3897 0165 08        		.uleb128 0x8
 3898 0166 0000 0000 		.long	.LASF42
 3899 016a 12        		.sleb128 18
 3900 016b 08        		.uleb128 0x8
 3901 016c 0000 0000 		.long	.LASF43
 3902 0170 13        		.sleb128 19
 3903 0171 08        		.uleb128 0x8
 3904 0172 0000 0000 		.long	.LASF44
 3905 0176 14        		.sleb128 20
 3906 0177 08        		.uleb128 0x8
 3907 0178 0000 0000 		.long	.LASF45
 3908 017c 15        		.sleb128 21
 3909 017d 08        		.uleb128 0x8
 3910 017e 0000 0000 		.long	.LASF46
 3911 0182 16        		.sleb128 22
 3912 0183 08        		.uleb128 0x8
 3913 0184 0000 0000 		.long	.LASF47
 3914 0188 17        		.sleb128 23
 3915 0189 08        		.uleb128 0x8
 3916 018a 0000 0000 		.long	.LASF48
 3917 018e 18        		.sleb128 24
 3918 018f 08        		.uleb128 0x8
 3919 0190 0000 0000 		.long	.LASF49
 3920 0194 19        		.sleb128 25
 3921 0195 08        		.uleb128 0x8
 3922 0196 0000 0000 		.long	.LASF50
 3923 019a 1A        		.sleb128 26
 3924 019b 08        		.uleb128 0x8
 3925 019c 0000 0000 		.long	.LASF51
 3926 01a0 1B        		.sleb128 27
 3927 01a1 08        		.uleb128 0x8
 3928 01a2 0000 0000 		.long	.LASF52
 3929 01a6 1C        		.sleb128 28
 3930 01a7 08        		.uleb128 0x8
 3931 01a8 0000 0000 		.long	.LASF53
 3932 01ac 1D        		.sleb128 29
 3933 01ad 08        		.uleb128 0x8
 3934 01ae 0000 0000 		.long	.LASF54
 3935 01b2 1E        		.sleb128 30
 3936 01b3 08        		.uleb128 0x8
 3937 01b4 0000 0000 		.long	.LASF55
 3938 01b8 1F        		.sleb128 31
 3939 01b9 08        		.uleb128 0x8
GAS LISTING C:\Users\ADMINI~1\AppData\Local\Temp/ccEBF6mf.s 			page 72


 3940 01ba 0000 0000 		.long	.LASF56
 3941 01be 20        		.sleb128 32
 3942 01bf 08        		.uleb128 0x8
 3943 01c0 0000 0000 		.long	.LASF57
 3944 01c4 21        		.sleb128 33
 3945 01c5 08        		.uleb128 0x8
 3946 01c6 0000 0000 		.long	.LASF58
 3947 01ca 22        		.sleb128 34
 3948 01cb 08        		.uleb128 0x8
 3949 01cc 0000 0000 		.long	.LASF59
 3950 01d0 23        		.sleb128 35
 3951 01d1 08        		.uleb128 0x8
 3952 01d2 0000 0000 		.long	.LASF60
 3953 01d6 24        		.sleb128 36
 3954 01d7 08        		.uleb128 0x8
 3955 01d8 0000 0000 		.long	.LASF61
 3956 01dc 25        		.sleb128 37
 3957 01dd 08        		.uleb128 0x8
 3958 01de 0000 0000 		.long	.LASF62
 3959 01e2 26        		.sleb128 38
 3960 01e3 08        		.uleb128 0x8
 3961 01e4 0000 0000 		.long	.LASF63
 3962 01e8 27        		.sleb128 39
 3963 01e9 08        		.uleb128 0x8
 3964 01ea 0000 0000 		.long	.LASF64
 3965 01ee 28        		.sleb128 40
 3966 01ef 08        		.uleb128 0x8
 3967 01f0 0000 0000 		.long	.LASF65
 3968 01f4 29        		.sleb128 41
 3969 01f5 08        		.uleb128 0x8
 3970 01f6 0000 0000 		.long	.LASF66
 3971 01fa 2A        		.sleb128 42
 3972 01fb 08        		.uleb128 0x8
 3973 01fc 0000 0000 		.long	.LASF67
 3974 0200 2B        		.sleb128 43
 3975 0201 08        		.uleb128 0x8
 3976 0202 0000 0000 		.long	.LASF68
 3977 0206 2C        		.sleb128 44
 3978 0207 08        		.uleb128 0x8
 3979 0208 0000 0000 		.long	.LASF69
 3980 020c 2D        		.sleb128 45
 3981 020d 08        		.uleb128 0x8
 3982 020e 0000 0000 		.long	.LASF70
 3983 0212 2E        		.sleb128 46
 3984 0213 08        		.uleb128 0x8
 3985 0214 0000 0000 		.long	.LASF71
 3986 0218 2F        		.sleb128 47
 3987 0219 08        		.uleb128 0x8
 3988 021a 0000 0000 		.long	.LASF72
 3989 021e 30        		.sleb128 48
 3990 021f 08        		.uleb128 0x8
 3991 0220 0000 0000 		.long	.LASF73
 3992 0224 31        		.sleb128 49
 3993 0225 08        		.uleb128 0x8
 3994 0226 0000 0000 		.long	.LASF74
 3995 022a 32        		.sleb128 50
 3996 022b 08        		.uleb128 0x8
GAS LISTING C:\Users\ADMINI~1\AppData\Local\Temp/ccEBF6mf.s 			page 73


 3997 022c 0000 0000 		.long	.LASF75
 3998 0230 33        		.sleb128 51
 3999 0231 08        		.uleb128 0x8
 4000 0232 0000 0000 		.long	.LASF76
 4001 0236 34        		.sleb128 52
 4002 0237 08        		.uleb128 0x8
 4003 0238 0000 0000 		.long	.LASF77
 4004 023c 35        		.sleb128 53
 4005 023d 08        		.uleb128 0x8
 4006 023e 0000 0000 		.long	.LASF78
 4007 0242 36        		.sleb128 54
 4008 0243 08        		.uleb128 0x8
 4009 0244 0000 0000 		.long	.LASF79
 4010 0248 37        		.sleb128 55
 4011 0249 08        		.uleb128 0x8
 4012 024a 0000 0000 		.long	.LASF80
 4013 024e 38        		.sleb128 56
 4014 024f 08        		.uleb128 0x8
 4015 0250 0000 0000 		.long	.LASF81
 4016 0254 39        		.sleb128 57
 4017 0255 08        		.uleb128 0x8
 4018 0256 0000 0000 		.long	.LASF82
 4019 025a 3A        		.sleb128 58
 4020 025b 08        		.uleb128 0x8
 4021 025c 0000 0000 		.long	.LASF83
 4022 0260 3B        		.sleb128 59
 4023 0261 08        		.uleb128 0x8
 4024 0262 0000 0000 		.long	.LASF84
 4025 0266 3C        		.sleb128 60
 4026 0267 08        		.uleb128 0x8
 4027 0268 0000 0000 		.long	.LASF85
 4028 026c 3D        		.sleb128 61
 4029 026d 08        		.uleb128 0x8
 4030 026e 0000 0000 		.long	.LASF86
 4031 0272 3E        		.sleb128 62
 4032 0273 08        		.uleb128 0x8
 4033 0274 0000 0000 		.long	.LASF87
 4034 0278 3F        		.sleb128 63
 4035 0279 08        		.uleb128 0x8
 4036 027a 0000 0000 		.long	.LASF88
 4037 027e C000      		.sleb128 64
 4038 0280 08        		.uleb128 0x8
 4039 0281 0000 0000 		.long	.LASF89
 4040 0285 C100      		.sleb128 65
 4041 0287 08        		.uleb128 0x8
 4042 0288 0000 0000 		.long	.LASF90
 4043 028c C200      		.sleb128 66
 4044 028e 08        		.uleb128 0x8
 4045 028f 0000 0000 		.long	.LASF91
 4046 0293 C300      		.sleb128 67
 4047 0295 08        		.uleb128 0x8
 4048 0296 0000 0000 		.long	.LASF92
 4049 029a C400      		.sleb128 68
 4050 029c 08        		.uleb128 0x8
 4051 029d 0000 0000 		.long	.LASF93
 4052 02a1 C500      		.sleb128 69
 4053 02a3 08        		.uleb128 0x8
GAS LISTING C:\Users\ADMINI~1\AppData\Local\Temp/ccEBF6mf.s 			page 74


 4054 02a4 0000 0000 		.long	.LASF94
 4055 02a8 C600      		.sleb128 70
 4056 02aa 08        		.uleb128 0x8
 4057 02ab 0000 0000 		.long	.LASF95
 4058 02af C700      		.sleb128 71
 4059 02b1 08        		.uleb128 0x8
 4060 02b2 0000 0000 		.long	.LASF96
 4061 02b6 C800      		.sleb128 72
 4062 02b8 08        		.uleb128 0x8
 4063 02b9 0000 0000 		.long	.LASF97
 4064 02bd C900      		.sleb128 73
 4065 02bf 08        		.uleb128 0x8
 4066 02c0 0000 0000 		.long	.LASF98
 4067 02c4 CA00      		.sleb128 74
 4068 02c6 08        		.uleb128 0x8
 4069 02c7 0000 0000 		.long	.LASF99
 4070 02cb CB00      		.sleb128 75
 4071 02cd 08        		.uleb128 0x8
 4072 02ce 0000 0000 		.long	.LASF100
 4073 02d2 CC00      		.sleb128 76
 4074 02d4 08        		.uleb128 0x8
 4075 02d5 0000 0000 		.long	.LASF101
 4076 02d9 CD00      		.sleb128 77
 4077 02db 08        		.uleb128 0x8
 4078 02dc 0000 0000 		.long	.LASF102
 4079 02e0 CE00      		.sleb128 78
 4080 02e2 08        		.uleb128 0x8
 4081 02e3 0000 0000 		.long	.LASF103
 4082 02e7 CF00      		.sleb128 79
 4083 02e9 08        		.uleb128 0x8
 4084 02ea 0000 0000 		.long	.LASF104
 4085 02ee D000      		.sleb128 80
 4086 02f0 08        		.uleb128 0x8
 4087 02f1 0000 0000 		.long	.LASF105
 4088 02f5 D100      		.sleb128 81
 4089 02f7 08        		.uleb128 0x8
 4090 02f8 0000 0000 		.long	.LASF106
 4091 02fc D200      		.sleb128 82
 4092 02fe 08        		.uleb128 0x8
 4093 02ff 0000 0000 		.long	.LASF107
 4094 0303 D300      		.sleb128 83
 4095 0305 08        		.uleb128 0x8
 4096 0306 0000 0000 		.long	.LASF108
 4097 030a D400      		.sleb128 84
 4098 030c 08        		.uleb128 0x8
 4099 030d 0000 0000 		.long	.LASF109
 4100 0311 D500      		.sleb128 85
 4101 0313 08        		.uleb128 0x8
 4102 0314 0000 0000 		.long	.LASF110
 4103 0318 D600      		.sleb128 86
 4104 031a 08        		.uleb128 0x8
 4105 031b 0000 0000 		.long	.LASF111
 4106 031f D700      		.sleb128 87
 4107 0321 08        		.uleb128 0x8
 4108 0322 0000 0000 		.long	.LASF112
 4109 0326 D800      		.sleb128 88
 4110 0328 08        		.uleb128 0x8
GAS LISTING C:\Users\ADMINI~1\AppData\Local\Temp/ccEBF6mf.s 			page 75


 4111 0329 0000 0000 		.long	.LASF113
 4112 032d D900      		.sleb128 89
 4113 032f 08        		.uleb128 0x8
 4114 0330 0000 0000 		.long	.LASF114
 4115 0334 DA00      		.sleb128 90
 4116 0336 08        		.uleb128 0x8
 4117 0337 0000 0000 		.long	.LASF115
 4118 033b DB00      		.sleb128 91
 4119 033d 08        		.uleb128 0x8
 4120 033e 0000 0000 		.long	.LASF116
 4121 0342 DC00      		.sleb128 92
 4122 0344 08        		.uleb128 0x8
 4123 0345 0000 0000 		.long	.LASF117
 4124 0349 DD00      		.sleb128 93
 4125 034b 08        		.uleb128 0x8
 4126 034c 0000 0000 		.long	.LASF118
 4127 0350 DE00      		.sleb128 94
 4128 0352 08        		.uleb128 0x8
 4129 0353 0000 0000 		.long	.LASF119
 4130 0357 DF00      		.sleb128 95
 4131 0359 08        		.uleb128 0x8
 4132 035a 0000 0000 		.long	.LASF120
 4133 035e E000      		.sleb128 96
 4134 0360 08        		.uleb128 0x8
 4135 0361 0000 0000 		.long	.LASF121
 4136 0365 E100      		.sleb128 97
 4137 0367 08        		.uleb128 0x8
 4138 0368 0000 0000 		.long	.LASF122
 4139 036c E200      		.sleb128 98
 4140 036e 08        		.uleb128 0x8
 4141 036f 0000 0000 		.long	.LASF123
 4142 0373 E300      		.sleb128 99
 4143 0375 08        		.uleb128 0x8
 4144 0376 0000 0000 		.long	.LASF124
 4145 037a E400      		.sleb128 100
 4146 037c 08        		.uleb128 0x8
 4147 037d 0000 0000 		.long	.LASF125
 4148 0381 E500      		.sleb128 101
 4149 0383 08        		.uleb128 0x8
 4150 0384 0000 0000 		.long	.LASF126
 4151 0388 E600      		.sleb128 102
 4152 038a 08        		.uleb128 0x8
 4153 038b 0000 0000 		.long	.LASF127
 4154 038f E700      		.sleb128 103
 4155 0391 08        		.uleb128 0x8
 4156 0392 0000 0000 		.long	.LASF128
 4157 0396 E800      		.sleb128 104
 4158 0398 08        		.uleb128 0x8
 4159 0399 0000 0000 		.long	.LASF129
 4160 039d E900      		.sleb128 105
 4161 039f 08        		.uleb128 0x8
 4162 03a0 0000 0000 		.long	.LASF130
 4163 03a4 EA00      		.sleb128 106
 4164 03a6 08        		.uleb128 0x8
 4165 03a7 0000 0000 		.long	.LASF131
 4166 03ab EB00      		.sleb128 107
 4167 03ad 08        		.uleb128 0x8
GAS LISTING C:\Users\ADMINI~1\AppData\Local\Temp/ccEBF6mf.s 			page 76


 4168 03ae 0000 0000 		.long	.LASF132
 4169 03b2 EC00      		.sleb128 108
 4170 03b4 08        		.uleb128 0x8
 4171 03b5 0000 0000 		.long	.LASF133
 4172 03b9 ED00      		.sleb128 109
 4173 03bb 08        		.uleb128 0x8
 4174 03bc 0000 0000 		.long	.LASF134
 4175 03c0 EE00      		.sleb128 110
 4176 03c2 08        		.uleb128 0x8
 4177 03c3 0000 0000 		.long	.LASF135
 4178 03c7 EF00      		.sleb128 111
 4179 03c9 08        		.uleb128 0x8
 4180 03ca 0000 0000 		.long	.LASF136
 4181 03ce F000      		.sleb128 112
 4182 03d0 08        		.uleb128 0x8
 4183 03d1 0000 0000 		.long	.LASF137
 4184 03d5 F100      		.sleb128 113
 4185 03d7 08        		.uleb128 0x8
 4186 03d8 0000 0000 		.long	.LASF138
 4187 03dc F200      		.sleb128 114
 4188 03de 08        		.uleb128 0x8
 4189 03df 0000 0000 		.long	.LASF139
 4190 03e3 F300      		.sleb128 115
 4191 03e5 08        		.uleb128 0x8
 4192 03e6 0000 0000 		.long	.LASF140
 4193 03ea F400      		.sleb128 116
 4194 03ec 08        		.uleb128 0x8
 4195 03ed 0000 0000 		.long	.LASF141
 4196 03f1 F500      		.sleb128 117
 4197 03f3 08        		.uleb128 0x8
 4198 03f4 0000 0000 		.long	.LASF142
 4199 03f8 F600      		.sleb128 118
 4200 03fa 08        		.uleb128 0x8
 4201 03fb 0000 0000 		.long	.LASF143
 4202 03ff F700      		.sleb128 119
 4203 0401 08        		.uleb128 0x8
 4204 0402 0000 0000 		.long	.LASF144
 4205 0406 F800      		.sleb128 120
 4206 0408 08        		.uleb128 0x8
 4207 0409 0000 0000 		.long	.LASF145
 4208 040d F900      		.sleb128 121
 4209 040f 08        		.uleb128 0x8
 4210 0410 0000 0000 		.long	.LASF146
 4211 0414 FA00      		.sleb128 122
 4212 0416 08        		.uleb128 0x8
 4213 0417 0000 0000 		.long	.LASF147
 4214 041b FB00      		.sleb128 123
 4215 041d 08        		.uleb128 0x8
 4216 041e 0000 0000 		.long	.LASF148
 4217 0422 FC00      		.sleb128 124
 4218 0424 08        		.uleb128 0x8
 4219 0425 0000 0000 		.long	.LASF149
 4220 0429 FD00      		.sleb128 125
 4221 042b 08        		.uleb128 0x8
 4222 042c 0000 0000 		.long	.LASF150
 4223 0430 FE00      		.sleb128 126
 4224 0432 08        		.uleb128 0x8
GAS LISTING C:\Users\ADMINI~1\AppData\Local\Temp/ccEBF6mf.s 			page 77


 4225 0433 0000 0000 		.long	.LASF151
 4226 0437 FF00      		.sleb128 127
 4227 0439 08        		.uleb128 0x8
 4228 043a 0000 0000 		.long	.LASF152
 4229 043e 8001      		.sleb128 128
 4230 0440 08        		.uleb128 0x8
 4231 0441 0000 0000 		.long	.LASF153
 4232 0445 8101      		.sleb128 129
 4233 0447 08        		.uleb128 0x8
 4234 0448 0000 0000 		.long	.LASF154
 4235 044c 8201      		.sleb128 130
 4236 044e 08        		.uleb128 0x8
 4237 044f 0000 0000 		.long	.LASF155
 4238 0453 8301      		.sleb128 131
 4239 0455 08        		.uleb128 0x8
 4240 0456 0000 0000 		.long	.LASF156
 4241 045a 8401      		.sleb128 132
 4242 045c 08        		.uleb128 0x8
 4243 045d 0000 0000 		.long	.LASF157
 4244 0461 8501      		.sleb128 133
 4245 0463 08        		.uleb128 0x8
 4246 0464 0000 0000 		.long	.LASF158
 4247 0468 8601      		.sleb128 134
 4248 046a 08        		.uleb128 0x8
 4249 046b 0000 0000 		.long	.LASF159
 4250 046f 8701      		.sleb128 135
 4251 0471 08        		.uleb128 0x8
 4252 0472 0000 0000 		.long	.LASF160
 4253 0476 8801      		.sleb128 136
 4254 0478 08        		.uleb128 0x8
 4255 0479 0000 0000 		.long	.LASF161
 4256 047d 8901      		.sleb128 137
 4257 047f 08        		.uleb128 0x8
 4258 0480 0000 0000 		.long	.LASF162
 4259 0484 8A01      		.sleb128 138
 4260 0486 08        		.uleb128 0x8
 4261 0487 0000 0000 		.long	.LASF163
 4262 048b 8B01      		.sleb128 139
 4263 048d 08        		.uleb128 0x8
 4264 048e 0000 0000 		.long	.LASF164
 4265 0492 8C01      		.sleb128 140
 4266 0494 08        		.uleb128 0x8
 4267 0495 0000 0000 		.long	.LASF165
 4268 0499 8D01      		.sleb128 141
 4269 049b 08        		.uleb128 0x8
 4270 049c 0000 0000 		.long	.LASF166
 4271 04a0 8E01      		.sleb128 142
 4272 04a2 08        		.uleb128 0x8
 4273 04a3 0000 0000 		.long	.LASF167
 4274 04a7 8F01      		.sleb128 143
 4275 04a9 00        		.byte	0x0
 4276 04aa 09        		.uleb128 0x9
 4277 04ab 02        		.byte	0x2
 4278 04ac 06        		.byte	0x6
 4279 04ad 0F        		.byte	0xf
 4280 04ae CF04 0000 		.long	0x4cf
 4281 04b2 0A        		.uleb128 0xa
GAS LISTING C:\Users\ADMINI~1\AppData\Local\Temp/ccEBF6mf.s 			page 78


 4282 04b3 0000 0000 		.long	.LASF168
 4283 04b7 06        		.byte	0x6
 4284 04b8 10        		.byte	0x10
 4285 04b9 7200 0000 		.long	0x72
 4286 04bd 02        		.byte	0x2
 4287 04be 23        		.byte	0x23
 4288 04bf 00        		.uleb128 0x0
 4289 04c0 0A        		.uleb128 0xa
 4290 04c1 0000 0000 		.long	.LASF169
 4291 04c5 06        		.byte	0x6
 4292 04c6 11        		.byte	0x11
 4293 04c7 7200 0000 		.long	0x72
 4294 04cb 02        		.byte	0x2
 4295 04cc 23        		.byte	0x23
 4296 04cd 01        		.uleb128 0x1
 4297 04ce 00        		.byte	0x0
 4298 04cf 0B        		.uleb128 0xb
 4299 04d0 4B65 7900 		.string	"Key"
 4300 04d4 06        		.byte	0x6
 4301 04d5 12        		.byte	0x12
 4302 04d6 AA04 0000 		.long	0x4aa
 4303 04da 0C        		.uleb128 0xc
 4304 04db 0000 0000 		.long	.LASF172
 4305 04df 02        		.byte	0x2
 4306 04e0 68        		.byte	0x68
 4307 04e1 01        		.byte	0x1
 4308 04e2 03        		.byte	0x3
 4309 04e3 F304 0000 		.long	0x4f3
 4310 04e7 0D        		.uleb128 0xd
 4311 04e8 0000 0000 		.long	.LASF170
 4312 04ec 02        		.byte	0x2
 4313 04ed 67        		.byte	0x67
 4314 04ee 7D00 0000 		.long	0x7d
 4315 04f2 00        		.byte	0x0
 4316 04f3 0E        		.uleb128 0xe
 4317 04f4 01        		.byte	0x1
 4318 04f5 0000 0000 		.long	.LASF189
 4319 04f9 01        		.byte	0x1
 4320 04fa 76        		.byte	0x76
 4321 04fb 01        		.byte	0x1
 4322 04fc 7200 0000 		.long	0x72
 4323 0500 01        		.byte	0x1
 4324 0501 0F        		.uleb128 0xf
 4325 0502 01        		.byte	0x1
 4326 0503 0000 0000 		.long	.LASF187
 4327 0507 01        		.byte	0x1
 4328 0508 1D01      		.word	0x11d
 4329 050a 01        		.byte	0x1
 4330 050b 7200 0000 		.long	0x72
 4331 050f 01        		.byte	0x1
 4332 0510 2105 0000 		.long	0x521
 4333 0514 10        		.uleb128 0x10
 4334 0515 0000 0000 		.long	.LASF171
 4335 0519 01        		.byte	0x1
 4336 051a 1D01      		.word	0x11d
 4337 051c 7200 0000 		.long	0x72
 4338 0520 00        		.byte	0x0
GAS LISTING C:\Users\ADMINI~1\AppData\Local\Temp/ccEBF6mf.s 			page 79


 4339 0521 11        		.uleb128 0x11
 4340 0522 01        		.byte	0x1
 4341 0523 0000 0000 		.long	.LASF193
 4342 0527 01        		.byte	0x1
 4343 0528 E2        		.byte	0xe2
 4344 0529 01        		.byte	0x1
 4345 052a 01        		.byte	0x1
 4346 052b 0C        		.uleb128 0xc
 4347 052c 0000 0000 		.long	.LASF173
 4348 0530 03        		.byte	0x3
 4349 0531 6F        		.byte	0x6f
 4350 0532 01        		.byte	0x1
 4351 0533 03        		.byte	0x3
 4352 0534 5C05 0000 		.long	0x55c
 4353 0538 0D        		.uleb128 0xd
 4354 0539 0000 0000 		.long	.LASF174
 4355 053d 03        		.byte	0x3
 4356 053e 6E        		.byte	0x6e
 4357 053f 5C05 0000 		.long	0x55c
 4358 0543 12        		.uleb128 0x12
 4359 0544 0000 0000 		.long	.LASF175
 4360 0548 03        		.byte	0x3
 4361 0549 70        		.byte	0x70
 4362 054a 7D00 0000 		.long	0x7d
 4363 054e 12        		.uleb128 0x12
 4364 054f 0000 0000 		.long	.LASF176
 4365 0553 03        		.byte	0x3
 4366 0554 71        		.byte	0x71
 4367 0555 5C05 0000 		.long	0x55c
 4368 0559 13        		.uleb128 0x13
 4369 055a 13        		.uleb128 0x13
 4370 055b 00        		.byte	0x0
 4371 055c 02        		.uleb128 0x2
 4372 055d 04        		.byte	0x4
 4373 055e 04        		.byte	0x4
 4374 055f 0000 0000 		.long	.LASF177
 4375 0563 14        		.uleb128 0x14
 4376 0564 0000 0000 		.long	.LASF191
 4377 0568 01        		.byte	0x1
 4378 0569 DE01      		.word	0x1de
 4379 056b 01        		.byte	0x1
 4380 056c 01        		.byte	0x1
 4381 056d 15        		.uleb128 0x15
 4382 056e 0000 0000 		.long	.LASF183
 4383 0572 01        		.byte	0x1
 4384 0573 1001      		.word	0x110
 4385 0575 01        		.byte	0x1
 4386 0576 7200 0000 		.long	0x72
 4387 057a 01        		.byte	0x1
 4388 057b BE05 0000 		.long	0x5be
 4389 057f 10        		.uleb128 0x10
 4390 0580 0000 0000 		.long	.LASF178
 4391 0584 01        		.byte	0x1
 4392 0585 0F01      		.word	0x10f
 4393 0587 7200 0000 		.long	0x72
 4394 058b 10        		.uleb128 0x10
 4395 058c 0000 0000 		.long	.LASF179
GAS LISTING C:\Users\ADMINI~1\AppData\Local\Temp/ccEBF6mf.s 			page 80


 4396 0590 01        		.byte	0x1
 4397 0591 0F01      		.word	0x10f
 4398 0593 7200 0000 		.long	0x72
 4399 0597 10        		.uleb128 0x10
 4400 0598 0000 0000 		.long	.LASF180
 4401 059c 01        		.byte	0x1
 4402 059d 0F01      		.word	0x10f
 4403 059f 7200 0000 		.long	0x72
 4404 05a3 16        		.uleb128 0x16
 4405 05a4 17        		.uleb128 0x17
 4406 05a5 0000 0000 		.long	.LASF181
 4407 05a9 01        		.byte	0x1
 4408 05aa 1101      		.word	0x111
 4409 05ac 7D00 0000 		.long	0x7d
 4410 05b0 17        		.uleb128 0x17
 4411 05b1 0000 0000 		.long	.LASF182
 4412 05b5 01        		.byte	0x1
 4413 05b6 1101      		.word	0x111
 4414 05b8 7200 0000 		.long	0x72
 4415 05bc 00        		.byte	0x0
 4416 05bd 00        		.byte	0x0
 4417 05be 15        		.uleb128 0x15
 4418 05bf 0000 0000 		.long	.LASF184
 4419 05c3 01        		.byte	0x1
 4420 05c4 1501      		.word	0x115
 4421 05c6 01        		.byte	0x1
 4422 05c7 7200 0000 		.long	0x72
 4423 05cb 01        		.byte	0x1
 4424 05cc 0D06 0000 		.long	0x60d
 4425 05d0 10        		.uleb128 0x10
 4426 05d1 0000 0000 		.long	.LASF178
 4427 05d5 01        		.byte	0x1
 4428 05d6 1401      		.word	0x114
 4429 05d8 7200 0000 		.long	0x72
 4430 05dc 10        		.uleb128 0x10
 4431 05dd 0000 0000 		.long	.LASF179
 4432 05e1 01        		.byte	0x1
 4433 05e2 1401      		.word	0x114
 4434 05e4 7200 0000 		.long	0x72
 4435 05e8 10        		.uleb128 0x10
 4436 05e9 0000 0000 		.long	.LASF180
 4437 05ed 01        		.byte	0x1
 4438 05ee 1401      		.word	0x114
 4439 05f0 7200 0000 		.long	0x72
 4440 05f4 17        		.uleb128 0x17
 4441 05f5 0000 0000 		.long	.LASF185
 4442 05f9 01        		.byte	0x1
 4443 05fa 1601      		.word	0x116
 4444 05fc 7200 0000 		.long	0x72
 4445 0600 17        		.uleb128 0x17
 4446 0601 0000 0000 		.long	.LASF186
 4447 0605 01        		.byte	0x1
 4448 0606 1701      		.word	0x117
 4449 0608 6B00 0000 		.long	0x6b
 4450 060c 00        		.byte	0x0
 4451 060d 0F        		.uleb128 0xf
 4452 060e 01        		.byte	0x1
GAS LISTING C:\Users\ADMINI~1\AppData\Local\Temp/ccEBF6mf.s 			page 81


 4453 060f 0000 0000 		.long	.LASF188
 4454 0613 01        		.byte	0x1
 4455 0614 2501      		.word	0x125
 4456 0616 01        		.byte	0x1
 4457 0617 7200 0000 		.long	0x72
 4458 061b 01        		.byte	0x1
 4459 061c 3406 0000 		.long	0x634
 4460 0620 10        		.uleb128 0x10
 4461 0621 0000 0000 		.long	.LASF171
 4462 0625 01        		.byte	0x1
 4463 0626 2501      		.word	0x125
 4464 0628 7200 0000 		.long	0x72
 4465 062c 16        		.uleb128 0x16
 4466 062d 18        		.uleb128 0x18
 4467 062e 1405 0000 		.long	0x514
 4468 0632 00        		.byte	0x0
 4469 0633 00        		.byte	0x0
 4470 0634 0E        		.uleb128 0xe
 4471 0635 01        		.byte	0x1
 4472 0636 0000 0000 		.long	.LASF190
 4473 063a 01        		.byte	0x1
 4474 063b 79        		.byte	0x79
 4475 063c 01        		.byte	0x1
 4476 063d 7200 0000 		.long	0x72
 4477 0641 01        		.byte	0x1
 4478 0642 19        		.uleb128 0x19
 4479 0643 0000 0000 		.long	.LASF192
 4480 0647 01        		.byte	0x1
 4481 0648 A2        		.byte	0xa2
 4482 0649 01        		.byte	0x1
 4483 064a 01        		.byte	0x1
 4484 064b 11        		.uleb128 0x11
 4485 064c 01        		.byte	0x1
 4486 064d 0000 0000 		.long	.LASF194
 4487 0651 01        		.byte	0x1
 4488 0652 72        		.byte	0x72
 4489 0653 01        		.byte	0x1
 4490 0654 01        		.byte	0x1
 4491 0655 0E        		.uleb128 0xe
 4492 0656 01        		.byte	0x1
 4493 0657 0000 0000 		.long	.LASF195
 4494 065b 01        		.byte	0x1
 4495 065c C9        		.byte	0xc9
 4496 065d 01        		.byte	0x1
 4497 065e 7200 0000 		.long	0x72
 4498 0662 01        		.byte	0x1
 4499 0663 1A        		.uleb128 0x1a
 4500 0664 4B06 0000 		.long	0x64b
 4501 0668 0000 0000 		.long	.LFB8
 4502 066c 0000 0000 		.long	.LFE8
 4503 0670 02        		.byte	0x2
 4504 0671 90        		.byte	0x90
 4505 0672 20        		.uleb128 0x20
 4506 0673 1A        		.uleb128 0x1a
 4507 0674 F304 0000 		.long	0x4f3
 4508 0678 0000 0000 		.long	.LFB9
 4509 067c 0000 0000 		.long	.LFE9
GAS LISTING C:\Users\ADMINI~1\AppData\Local\Temp/ccEBF6mf.s 			page 82


 4510 0680 02        		.byte	0x2
 4511 0681 90        		.byte	0x90
 4512 0682 20        		.uleb128 0x20
 4513 0683 1A        		.uleb128 0x1a
 4514 0684 3406 0000 		.long	0x634
 4515 0688 0000 0000 		.long	.LFB10
 4516 068c 0000 0000 		.long	.LFE10
 4517 0690 02        		.byte	0x2
 4518 0691 90        		.byte	0x90
 4519 0692 20        		.uleb128 0x20
 4520 0693 1B        		.uleb128 0x1b
 4521 0694 01        		.byte	0x1
 4522 0695 0000 0000 		.long	.LASF205
 4523 0699 01        		.byte	0x1
 4524 069a 7D        		.byte	0x7d
 4525 069b 01        		.byte	0x1
 4526 069c 0000 0000 		.long	.LFB11
 4527 06a0 0000 0000 		.long	.LFE11
 4528 06a4 02        		.byte	0x2
 4529 06a5 90        		.byte	0x90
 4530 06a6 20        		.uleb128 0x20
 4531 06a7 BB06 0000 		.long	0x6bb
 4532 06ab 1C        		.uleb128 0x1c
 4533 06ac 0000 0000 		.long	.LASF199
 4534 06b0 01        		.byte	0x1
 4535 06b1 7D        		.byte	0x7d
 4536 06b2 7200 0000 		.long	0x72
 4537 06b6 0000 0000 		.long	.LLST4
 4538 06ba 00        		.byte	0x0
 4539 06bb 1D        		.uleb128 0x1d
 4540 06bc 01        		.byte	0x1
 4541 06bd 0000 0000 		.long	.LASF308
 4542 06c1 01        		.byte	0x1
 4543 06c2 A8        		.byte	0xa8
 4544 06c3 01        		.byte	0x1
 4545 06c4 7200 0000 		.long	0x72
 4546 06c8 0000 0000 		.long	.LFB14
 4547 06cc 0000 0000 		.long	.LFE14
 4548 06d0 02        		.byte	0x2
 4549 06d1 90        		.byte	0x90
 4550 06d2 20        		.uleb128 0x20
 4551 06d3 1E        		.uleb128 0x1e
 4552 06d4 01        		.byte	0x1
 4553 06d5 0000 0000 		.long	.LASF196
 4554 06d9 01        		.byte	0x1
 4555 06da AE        		.byte	0xae
 4556 06db 01        		.byte	0x1
 4557 06dc 0000 0000 		.long	.LFB15
 4558 06e0 0000 0000 		.long	.LFE15
 4559 06e4 02        		.byte	0x2
 4560 06e5 90        		.byte	0x90
 4561 06e6 20        		.uleb128 0x20
 4562 06e7 1E        		.uleb128 0x1e
 4563 06e8 01        		.byte	0x1
 4564 06e9 0000 0000 		.long	.LASF197
 4565 06ed 01        		.byte	0x1
 4566 06ee C6        		.byte	0xc6
GAS LISTING C:\Users\ADMINI~1\AppData\Local\Temp/ccEBF6mf.s 			page 83


 4567 06ef 01        		.byte	0x1
 4568 06f0 0000 0000 		.long	.LFB17
 4569 06f4 0000 0000 		.long	.LFE17
 4570 06f8 02        		.byte	0x2
 4571 06f9 90        		.byte	0x90
 4572 06fa 20        		.uleb128 0x20
 4573 06fb 1A        		.uleb128 0x1a
 4574 06fc 5506 0000 		.long	0x655
 4575 0700 0000 0000 		.long	.LFB18
 4576 0704 0000 0000 		.long	.LFE18
 4577 0708 02        		.byte	0x2
 4578 0709 90        		.byte	0x90
 4579 070a 20        		.uleb128 0x20
 4580 070b 1A        		.uleb128 0x1a
 4581 070c 2105 0000 		.long	0x521
 4582 0710 0000 0000 		.long	.LFB21
 4583 0714 0000 0000 		.long	.LFE21
 4584 0718 02        		.byte	0x2
 4585 0719 90        		.byte	0x90
 4586 071a 20        		.uleb128 0x20
 4587 071b 1F        		.uleb128 0x1f
 4588 071c 0105 0000 		.long	0x501
 4589 0720 0000 0000 		.long	.LFB26
 4590 0724 0000 0000 		.long	.LFE26
 4591 0728 02        		.byte	0x2
 4592 0729 90        		.byte	0x90
 4593 072a 20        		.uleb128 0x20
 4594 072b 3907 0000 		.long	0x739
 4595 072f 20        		.uleb128 0x20
 4596 0730 1405 0000 		.long	0x514
 4597 0734 0000 0000 		.long	.LLST11
 4598 0738 00        		.byte	0x0
 4599 0739 1F        		.uleb128 0x1f
 4600 073a 0D06 0000 		.long	0x60d
 4601 073e 0000 0000 		.long	.LFB27
 4602 0742 0000 0000 		.long	.LFE27
 4603 0746 02        		.byte	0x2
 4604 0747 90        		.byte	0x90
 4605 0748 20        		.uleb128 0x20
 4606 0749 6D07 0000 		.long	0x76d
 4607 074d 20        		.uleb128 0x20
 4608 074e 2006 0000 		.long	0x620
 4609 0752 0000 0000 		.long	.LLST13
 4610 0756 21        		.uleb128 0x21
 4611 0757 0105 0000 		.long	0x501
 4612 075b 0000 0000 		.long	.LBB71
 4613 075f 0000 0000 		.long	.LBE71
 4614 0763 01        		.byte	0x1
 4615 0764 2601      		.word	0x126
 4616 0766 18        		.uleb128 0x18
 4617 0767 2F07 0000 		.long	0x72f
 4618 076b 00        		.byte	0x0
 4619 076c 00        		.byte	0x0
 4620 076d 22        		.uleb128 0x22
 4621 076e 0000 0000 		.long	.LASF309
 4622 0772 01        		.byte	0x1
 4623 0773 5D01      		.word	0x15d
GAS LISTING C:\Users\ADMINI~1\AppData\Local\Temp/ccEBF6mf.s 			page 84


 4624 0775 01        		.byte	0x1
 4625 0776 0000 0000 		.long	.LFB30
 4626 077a 0000 0000 		.long	.LFE30
 4627 077e 02        		.byte	0x2
 4628 077f 90        		.byte	0x90
 4629 0780 20        		.uleb128 0x20
 4630 0781 23        		.uleb128 0x23
 4631 0782 01        		.byte	0x1
 4632 0783 0000 0000 		.long	.LASF198
 4633 0787 01        		.byte	0x1
 4634 0788 AB02      		.word	0x2ab
 4635 078a 01        		.byte	0x1
 4636 078b 0000 0000 		.long	.LFB49
 4637 078f 0000 0000 		.long	.LFE49
 4638 0793 02        		.byte	0x2
 4639 0794 90        		.byte	0x90
 4640 0795 20        		.uleb128 0x20
 4641 0796 24        		.uleb128 0x24
 4642 0797 0000 0000 		.long	.LASF201
 4643 079b 01        		.byte	0x1
 4644 079c 4A01      		.word	0x14a
 4645 079e 01        		.byte	0x1
 4646 079f 0000 0000 		.long	.LFB29
 4647 07a3 0000 0000 		.long	.LFE29
 4648 07a7 02        		.byte	0x2
 4649 07a8 90        		.byte	0x90
 4650 07a9 20        		.uleb128 0x20
 4651 07aa CB07 0000 		.long	0x7cb
 4652 07ae 25        		.uleb128 0x25
 4653 07af 0000 0000 		.long	.LASF200
 4654 07b3 01        		.byte	0x1
 4655 07b4 4901      		.word	0x149
 4656 07b6 8E00 0000 		.long	0x8e
 4657 07ba 0000 0000 		.long	.LLST17
 4658 07be 26        		.uleb128 0x26
 4659 07bf 6B65 7900 		.string	"key"
 4660 07c3 01        		.byte	0x1
 4661 07c4 4C01      		.word	0x14c
 4662 07c6 CF04 0000 		.long	0x4cf
 4663 07ca 00        		.byte	0x0
 4664 07cb 24        		.uleb128 0x24
 4665 07cc 0000 0000 		.long	.LASF202
 4666 07d0 01        		.byte	0x1
 4667 07d1 6301      		.word	0x163
 4668 07d3 01        		.byte	0x1
 4669 07d4 0000 0000 		.long	.LFB31
 4670 07d8 0000 0000 		.long	.LFE31
 4671 07dc 02        		.byte	0x2
 4672 07dd 90        		.byte	0x90
 4673 07de 20        		.uleb128 0x20
 4674 07df 1B08 0000 		.long	0x81b
 4675 07e3 25        		.uleb128 0x25
 4676 07e4 0000 0000 		.long	.LASF203
 4677 07e8 01        		.byte	0x1
 4678 07e9 6201      		.word	0x162
 4679 07eb 1B08 0000 		.long	0x81b
 4680 07ef 0000 0000 		.long	.LLST19
GAS LISTING C:\Users\ADMINI~1\AppData\Local\Temp/ccEBF6mf.s 			page 85


 4681 07f3 26        		.uleb128 0x26
 4682 07f4 6300      		.string	"c"
 4683 07f6 01        		.byte	0x1
 4684 07f7 6401      		.word	0x164
 4685 07f9 6400 0000 		.long	0x64
 4686 07fd 27        		.uleb128 0x27
 4687 07fe 0000 0000 		.long	.LASF204
 4688 0802 01        		.byte	0x1
 4689 0803 6501      		.word	0x165
 4690 0805 2608 0000 		.long	0x826
 4691 0809 02        		.byte	0x2
 4692 080a 8C        		.byte	0x8c
 4693 080b 01        		.sleb128 1
 4694 080c 28        		.uleb128 0x28
 4695 080d 6900      		.string	"i"
 4696 080f 01        		.byte	0x1
 4697 0810 6601      		.word	0x166
 4698 0812 7200 0000 		.long	0x72
 4699 0816 0000 0000 		.long	.LLST20
 4700 081a 00        		.byte	0x0
 4701 081b 06        		.uleb128 0x6
 4702 081c 02        		.byte	0x2
 4703 081d 2108 0000 		.long	0x821
 4704 0821 29        		.uleb128 0x29
 4705 0822 6400 0000 		.long	0x64
 4706 0826 2A        		.uleb128 0x2a
 4707 0827 6400 0000 		.long	0x64
 4708 082b 3608 0000 		.long	0x836
 4709 082f 2B        		.uleb128 0x2b
 4710 0830 3608 0000 		.long	0x836
 4711 0834 00        		.byte	0x0
 4712 0835 00        		.byte	0x0
 4713 0836 05        		.uleb128 0x5
 4714 0837 02        		.byte	0x2
 4715 0838 07        		.byte	0x7
 4716 0839 1B        		.uleb128 0x1b
 4717 083a 01        		.byte	0x1
 4718 083b 0000 0000 		.long	.LASF206
 4719 083f 01        		.byte	0x1
 4720 0840 CC        		.byte	0xcc
 4721 0841 01        		.byte	0x1
 4722 0842 0000 0000 		.long	.LFB19
 4723 0846 0000 0000 		.long	.LFE19
 4724 084a 02        		.byte	0x2
 4725 084b 90        		.byte	0x90
 4726 084c 20        		.uleb128 0x20
 4727 084d 7008 0000 		.long	0x870
 4728 0851 1C        		.uleb128 0x1c
 4729 0852 0000 0000 		.long	.LASF179
 4730 0856 01        		.byte	0x1
 4731 0857 CC        		.byte	0xcc
 4732 0858 7200 0000 		.long	0x72
 4733 085c 0000 0000 		.long	.LLST22
 4734 0860 1C        		.uleb128 0x1c
 4735 0861 0000 0000 		.long	.LASF180
 4736 0865 01        		.byte	0x1
 4737 0866 CC        		.byte	0xcc
GAS LISTING C:\Users\ADMINI~1\AppData\Local\Temp/ccEBF6mf.s 			page 86


 4738 0867 7200 0000 		.long	0x72
 4739 086b 0000 0000 		.long	.LLST23
 4740 086f 00        		.byte	0x0
 4741 0870 24        		.uleb128 0x24
 4742 0871 0000 0000 		.long	.LASF207
 4743 0875 01        		.byte	0x1
 4744 0876 7101      		.word	0x171
 4745 0878 01        		.byte	0x1
 4746 0879 0000 0000 		.long	.LFB32
 4747 087d 0000 0000 		.long	.LFE32
 4748 0881 02        		.byte	0x2
 4749 0882 90        		.byte	0x90
 4750 0883 20        		.uleb128 0x20
 4751 0884 E008 0000 		.long	0x8e0
 4752 0888 2C        		.uleb128 0x2c
 4753 0889 7374 7200 		.string	"str"
 4754 088d 01        		.byte	0x1
 4755 088e 7001      		.word	0x170
 4756 0890 1B08 0000 		.long	0x81b
 4757 0894 0000 0000 		.long	.LLST25
 4758 0898 28        		.uleb128 0x28
 4759 0899 6300      		.string	"c"
 4760 089b 01        		.byte	0x1
 4761 089c 7201      		.word	0x172
 4762 089e 6400 0000 		.long	0x64
 4763 08a2 0000 0000 		.long	.LLST26
 4764 08a6 27        		.uleb128 0x27
 4765 08a7 0000 0000 		.long	.LASF204
 4766 08ab 01        		.byte	0x1
 4767 08ac 7301      		.word	0x173
 4768 08ae 2608 0000 		.long	0x826
 4769 08b2 02        		.byte	0x2
 4770 08b3 8C        		.byte	0x8c
 4771 08b4 01        		.sleb128 1
 4772 08b5 2D        		.uleb128 0x2d
 4773 08b6 0000 0000 		.long	.LBB73
 4774 08ba 0000 0000 		.long	.LBE73
 4775 08be 2E        		.uleb128 0x2e
 4776 08bf 0000 0000 		.long	.LASF181
 4777 08c3 01        		.byte	0x1
 4778 08c4 7601      		.word	0x176
 4779 08c6 7D00 0000 		.long	0x7d
 4780 08ca 0000 0000 		.long	.LLST27
 4781 08ce 2E        		.uleb128 0x2e
 4782 08cf 0000 0000 		.long	.LASF182
 4783 08d3 01        		.byte	0x1
 4784 08d4 7601      		.word	0x176
 4785 08d6 7200 0000 		.long	0x72
 4786 08da 0000 0000 		.long	.LLST28
 4787 08de 00        		.byte	0x0
 4788 08df 00        		.byte	0x0
 4789 08e0 2F        		.uleb128 0x2f
 4790 08e1 01        		.byte	0x1
 4791 08e2 0000 0000 		.long	.LASF208
 4792 08e6 01        		.byte	0x1
 4793 08e7 9B02      		.word	0x29b
 4794 08e9 01        		.byte	0x1
GAS LISTING C:\Users\ADMINI~1\AppData\Local\Temp/ccEBF6mf.s 			page 87


 4795 08ea 0000 0000 		.long	.LFB48
 4796 08ee 0000 0000 		.long	.LFE48
 4797 08f2 02        		.byte	0x2
 4798 08f3 90        		.byte	0x90
 4799 08f4 20        		.uleb128 0x20
 4800 08f5 0E09 0000 		.long	0x90e
 4801 08f9 26        		.uleb128 0x26
 4802 08fa 6B00      		.string	"k"
 4803 08fc 01        		.byte	0x1
 4804 08fd 9F02      		.word	0x29f
 4805 08ff 7200 0000 		.long	0x72
 4806 0903 26        		.uleb128 0x26
 4807 0904 6A00      		.string	"j"
 4808 0906 01        		.byte	0x1
 4809 0907 9F02      		.word	0x29f
 4810 0909 7200 0000 		.long	0x72
 4811 090d 00        		.byte	0x0
 4812 090e 23        		.uleb128 0x23
 4813 090f 01        		.byte	0x1
 4814 0910 0000 0000 		.long	.LASF209
 4815 0914 01        		.byte	0x1
 4816 0915 9002      		.word	0x290
 4817 0917 01        		.byte	0x1
 4818 0918 0000 0000 		.long	.LFB47
 4819 091c 0000 0000 		.long	.LFE47
 4820 0920 02        		.byte	0x2
 4821 0921 90        		.byte	0x90
 4822 0922 20        		.uleb128 0x20
 4823 0923 2F        		.uleb128 0x2f
 4824 0924 01        		.byte	0x1
 4825 0925 0000 0000 		.long	.LASF210
 4826 0929 01        		.byte	0x1
 4827 092a 3C02      		.word	0x23c
 4828 092c 01        		.byte	0x1
 4829 092d 0000 0000 		.long	.LFB42
 4830 0931 0000 0000 		.long	.LFE42
 4831 0935 02        		.byte	0x2
 4832 0936 90        		.byte	0x90
 4833 0937 20        		.uleb128 0x20
 4834 0938 4D09 0000 		.long	0x94d
 4835 093c 30        		.uleb128 0x30
 4836 093d 2105 0000 		.long	0x521
 4837 0941 0000 0000 		.long	.LBB74
 4838 0945 0000 0000 		.long	.LBE74
 4839 0949 01        		.byte	0x1
 4840 094a 3E02      		.word	0x23e
 4841 094c 00        		.byte	0x0
 4842 094d 23        		.uleb128 0x23
 4843 094e 01        		.byte	0x1
 4844 094f 0000 0000 		.long	.LASF211
 4845 0953 01        		.byte	0x1
 4846 0954 FB01      		.word	0x1fb
 4847 0956 01        		.byte	0x1
 4848 0957 0000 0000 		.long	.LFB38
 4849 095b 0000 0000 		.long	.LFE38
 4850 095f 02        		.byte	0x2
 4851 0960 90        		.byte	0x90
GAS LISTING C:\Users\ADMINI~1\AppData\Local\Temp/ccEBF6mf.s 			page 88


 4852 0961 20        		.uleb128 0x20
 4853 0962 23        		.uleb128 0x23
 4854 0963 01        		.byte	0x1
 4855 0964 0000 0000 		.long	.LASF212
 4856 0968 01        		.byte	0x1
 4857 0969 EB01      		.word	0x1eb
 4858 096b 01        		.byte	0x1
 4859 096c 0000 0000 		.long	.LFB37
 4860 0970 0000 0000 		.long	.LFE37
 4861 0974 02        		.byte	0x2
 4862 0975 90        		.byte	0x90
 4863 0976 20        		.uleb128 0x20
 4864 0977 24        		.uleb128 0x24
 4865 0978 0000 0000 		.long	.LASF213
 4866 097c 01        		.byte	0x1
 4867 097d 7D01      		.word	0x17d
 4868 097f 01        		.byte	0x1
 4869 0980 0000 0000 		.long	.LFB33
 4870 0984 0000 0000 		.long	.LFE33
 4871 0988 02        		.byte	0x2
 4872 0989 90        		.byte	0x90
 4873 098a 20        		.uleb128 0x20
 4874 098b DD09 0000 		.long	0x9dd
 4875 098f 21        		.uleb128 0x21
 4876 0990 2B05 0000 		.long	0x52b
 4877 0994 0000 0000 		.long	.LBB76
 4878 0998 0000 0000 		.long	.LBE76
 4879 099c 01        		.byte	0x1
 4880 099d BB01      		.word	0x1bb
 4881 099f 18        		.uleb128 0x18
 4882 09a0 3805 0000 		.long	0x538
 4883 09a4 2D        		.uleb128 0x2d
 4884 09a5 0000 0000 		.long	.LBB77
 4885 09a9 0000 0000 		.long	.LBE77
 4886 09ad 31        		.uleb128 0x31
 4887 09ae 4305 0000 		.long	0x543
 4888 09b2 06        		.byte	0x6
 4889 09b3 68        		.byte	0x68
 4890 09b4 93        		.byte	0x93
 4891 09b5 01        		.uleb128 0x1
 4892 09b6 69        		.byte	0x69
 4893 09b7 93        		.byte	0x93
 4894 09b8 01        		.uleb128 0x1
 4895 09b9 32        		.uleb128 0x32
 4896 09ba 4E05 0000 		.long	0x54e
 4897 09be 33        		.uleb128 0x33
 4898 09bf DA04 0000 		.long	0x4da
 4899 09c3 0000 0000 		.long	.LBB78
 4900 09c7 0000 0000 		.long	.LBE78
 4901 09cb 03        		.byte	0x3
 4902 09cc 7B        		.byte	0x7b
 4903 09cd 34        		.uleb128 0x34
 4904 09ce E704 0000 		.long	0x4e7
 4905 09d2 06        		.byte	0x6
 4906 09d3 6E        		.byte	0x6e
 4907 09d4 93        		.byte	0x93
 4908 09d5 01        		.uleb128 0x1
GAS LISTING C:\Users\ADMINI~1\AppData\Local\Temp/ccEBF6mf.s 			page 89


 4909 09d6 6F        		.byte	0x6f
 4910 09d7 93        		.byte	0x93
 4911 09d8 01        		.uleb128 0x1
 4912 09d9 00        		.byte	0x0
 4913 09da 00        		.byte	0x0
 4914 09db 00        		.byte	0x0
 4915 09dc 00        		.byte	0x0
 4916 09dd 23        		.uleb128 0x23
 4917 09de 01        		.byte	0x1
 4918 09df 0000 0000 		.long	.LASF214
 4919 09e3 01        		.byte	0x1
 4920 09e4 BE01      		.word	0x1be
 4921 09e6 01        		.byte	0x1
 4922 09e7 0000 0000 		.long	.LFB34
 4923 09eb 0000 0000 		.long	.LFE34
 4924 09ef 02        		.byte	0x2
 4925 09f0 90        		.byte	0x90
 4926 09f1 20        		.uleb128 0x20
 4927 09f2 23        		.uleb128 0x23
 4928 09f3 01        		.byte	0x1
 4929 09f4 0000 0000 		.long	.LASF215
 4930 09f8 01        		.byte	0x1
 4931 09f9 CE01      		.word	0x1ce
 4932 09fb 01        		.byte	0x1
 4933 09fc 0000 0000 		.long	.LFB35
 4934 0a00 0000 0000 		.long	.LFE35
 4935 0a04 02        		.byte	0x2
 4936 0a05 90        		.byte	0x90
 4937 0a06 20        		.uleb128 0x20
 4938 0a07 2F        		.uleb128 0x2f
 4939 0a08 01        		.byte	0x1
 4940 0a09 0000 0000 		.long	.LASF216
 4941 0a0d 01        		.byte	0x1
 4942 0a0e 8202      		.word	0x282
 4943 0a10 01        		.byte	0x1
 4944 0a11 0000 0000 		.long	.LFB46
 4945 0a15 0000 0000 		.long	.LFE46
 4946 0a19 02        		.byte	0x2
 4947 0a1a 90        		.byte	0x90
 4948 0a1b 20        		.uleb128 0x20
 4949 0a1c 370A 0000 		.long	0xa37
 4950 0a20 17        		.uleb128 0x17
 4951 0a21 0000 0000 		.long	.LASF217
 4952 0a25 01        		.byte	0x1
 4953 0a26 8302      		.word	0x283
 4954 0a28 7D00 0000 		.long	0x7d
 4955 0a2c 26        		.uleb128 0x26
 4956 0a2d 6B00      		.string	"k"
 4957 0a2f 01        		.byte	0x1
 4958 0a30 8402      		.word	0x284
 4959 0a32 6B00 0000 		.long	0x6b
 4960 0a36 00        		.byte	0x0
 4961 0a37 2F        		.uleb128 0x2f
 4962 0a38 01        		.byte	0x1
 4963 0a39 0000 0000 		.long	.LASF218
 4964 0a3d 01        		.byte	0x1
 4965 0a3e 6F02      		.word	0x26f
GAS LISTING C:\Users\ADMINI~1\AppData\Local\Temp/ccEBF6mf.s 			page 90


 4966 0a40 01        		.byte	0x1
 4967 0a41 0000 0000 		.long	.LFB45
 4968 0a45 0000 0000 		.long	.LFE45
 4969 0a49 02        		.byte	0x2
 4970 0a4a 90        		.byte	0x90
 4971 0a4b 20        		.uleb128 0x20
 4972 0a4c 7F0A 0000 		.long	0xa7f
 4973 0a50 17        		.uleb128 0x17
 4974 0a51 0000 0000 		.long	.LASF219
 4975 0a55 01        		.byte	0x1
 4976 0a56 7302      		.word	0x273
 4977 0a58 7200 0000 		.long	0x72
 4978 0a5c 17        		.uleb128 0x17
 4979 0a5d 0000 0000 		.long	.LASF217
 4980 0a61 01        		.byte	0x1
 4981 0a62 7402      		.word	0x274
 4982 0a64 7D00 0000 		.long	0x7d
 4983 0a68 17        		.uleb128 0x17
 4984 0a69 0000 0000 		.long	.LASF220
 4985 0a6d 01        		.byte	0x1
 4986 0a6e 7502      		.word	0x275
 4987 0a70 7F0A 0000 		.long	0xa7f
 4988 0a74 26        		.uleb128 0x26
 4989 0a75 6B00      		.string	"k"
 4990 0a77 01        		.byte	0x1
 4991 0a78 7602      		.word	0x276
 4992 0a7a 7200 0000 		.long	0x72
 4993 0a7e 00        		.byte	0x0
 4994 0a7f 2A        		.uleb128 0x2a
 4995 0a80 7200 0000 		.long	0x72
 4996 0a84 8F0A 0000 		.long	0xa8f
 4997 0a88 2B        		.uleb128 0x2b
 4998 0a89 3608 0000 		.long	0x836
 4999 0a8d 2F        		.byte	0x2f
 5000 0a8e 00        		.byte	0x0
 5001 0a8f 2F        		.uleb128 0x2f
 5002 0a90 01        		.byte	0x1
 5003 0a91 0000 0000 		.long	.LASF221
 5004 0a95 01        		.byte	0x1
 5005 0a96 5C02      		.word	0x25c
 5006 0a98 01        		.byte	0x1
 5007 0a99 0000 0000 		.long	.LFB44
 5008 0a9d 0000 0000 		.long	.LFE44
 5009 0aa1 02        		.byte	0x2
 5010 0aa2 90        		.byte	0x90
 5011 0aa3 20        		.uleb128 0x20
 5012 0aa4 EB0A 0000 		.long	0xaeb
 5013 0aa8 25        		.uleb128 0x25
 5014 0aa9 0000 0000 		.long	.LASF222
 5015 0aad 01        		.byte	0x1
 5016 0aae 5C02      		.word	0x25c
 5017 0ab0 7200 0000 		.long	0x72
 5018 0ab4 0000 0000 		.long	.LLST40
 5019 0ab8 17        		.uleb128 0x17
 5020 0ab9 0000 0000 		.long	.LASF217
 5021 0abd 01        		.byte	0x1
 5022 0abe 6002      		.word	0x260
GAS LISTING C:\Users\ADMINI~1\AppData\Local\Temp/ccEBF6mf.s 			page 91


 5023 0ac0 7D00 0000 		.long	0x7d
 5024 0ac4 2E        		.uleb128 0x2e
 5025 0ac5 0000 0000 		.long	.LASF219
 5026 0ac9 01        		.byte	0x1
 5027 0aca 6102      		.word	0x261
 5028 0acc 7200 0000 		.long	0x72
 5029 0ad0 0000 0000 		.long	.LLST41
 5030 0ad4 17        		.uleb128 0x17
 5031 0ad5 0000 0000 		.long	.LASF220
 5032 0ad9 01        		.byte	0x1
 5033 0ada 6202      		.word	0x262
 5034 0adc 7F0A 0000 		.long	0xa7f
 5035 0ae0 26        		.uleb128 0x26
 5036 0ae1 6B00      		.string	"k"
 5037 0ae3 01        		.byte	0x1
 5038 0ae4 6302      		.word	0x263
 5039 0ae6 7200 0000 		.long	0x72
 5040 0aea 00        		.byte	0x0
 5041 0aeb 2F        		.uleb128 0x2f
 5042 0aec 01        		.byte	0x1
 5043 0aed 0000 0000 		.long	.LASF223
 5044 0af1 01        		.byte	0x1
 5045 0af2 0102      		.word	0x201
 5046 0af4 01        		.byte	0x1
 5047 0af5 0000 0000 		.long	.LFB39
 5048 0af9 0000 0000 		.long	.LFE39
 5049 0afd 02        		.byte	0x2
 5050 0afe 90        		.byte	0x90
 5051 0aff 20        		.uleb128 0x20
 5052 0b00 250B 0000 		.long	0xb25
 5053 0b04 17        		.uleb128 0x17
 5054 0b05 0000 0000 		.long	.LASF217
 5055 0b09 01        		.byte	0x1
 5056 0b0a 0202      		.word	0x202
 5057 0b0c 7D00 0000 		.long	0x7d
 5058 0b10 26        		.uleb128 0x26
 5059 0b11 6B00      		.string	"k"
 5060 0b13 01        		.byte	0x1
 5061 0b14 0302      		.word	0x203
 5062 0b16 7200 0000 		.long	0x72
 5063 0b1a 26        		.uleb128 0x26
 5064 0b1b 6A00      		.string	"j"
 5065 0b1d 01        		.byte	0x1
 5066 0b1e 0302      		.word	0x203
 5067 0b20 7200 0000 		.long	0x72
 5068 0b24 00        		.byte	0x0
 5069 0b25 2F        		.uleb128 0x2f
 5070 0b26 01        		.byte	0x1
 5071 0b27 0000 0000 		.long	.LASF224
 5072 0b2b 01        		.byte	0x1
 5073 0b2c B202      		.word	0x2b2
 5074 0b2e 01        		.byte	0x1
 5075 0b2f 0000 0000 		.long	.LFB50
 5076 0b33 0000 0000 		.long	.LFE50
 5077 0b37 02        		.byte	0x2
 5078 0b38 90        		.byte	0x90
 5079 0b39 20        		.uleb128 0x20
GAS LISTING C:\Users\ADMINI~1\AppData\Local\Temp/ccEBF6mf.s 			page 92


 5080 0b3a D80C 0000 		.long	0xcd8
 5081 0b3e 25        		.uleb128 0x25
 5082 0b3f 0000 0000 		.long	.LASF171
 5083 0b43 01        		.byte	0x1
 5084 0b44 B102      		.word	0x2b1
 5085 0b46 7200 0000 		.long	0x72
 5086 0b4a 0000 0000 		.long	.LLST44
 5087 0b4e 25        		.uleb128 0x25
 5088 0b4f 0000 0000 		.long	.LASF180
 5089 0b53 01        		.byte	0x1
 5090 0b54 B102      		.word	0x2b1
 5091 0b56 7200 0000 		.long	0x72
 5092 0b5a 0000 0000 		.long	.LLST45
 5093 0b5e 25        		.uleb128 0x25
 5094 0b5f 0000 0000 		.long	.LASF179
 5095 0b63 01        		.byte	0x1
 5096 0b64 B102      		.word	0x2b1
 5097 0b66 7200 0000 		.long	0x72
 5098 0b6a 0000 0000 		.long	.LLST46
 5099 0b6e 25        		.uleb128 0x25
 5100 0b6f 0000 0000 		.long	.LASF225
 5101 0b73 01        		.byte	0x1
 5102 0b74 B102      		.word	0x2b1
 5103 0b76 7200 0000 		.long	0x72
 5104 0b7a 0000 0000 		.long	.LLST47
 5105 0b7e 28        		.uleb128 0x28
 5106 0b7f 636D 6400 		.string	"cmd"
 5107 0b83 01        		.byte	0x1
 5108 0b84 BA02      		.word	0x2ba
 5109 0b86 7200 0000 		.long	0x72
 5110 0b8a 0000 0000 		.long	.LLST48
 5111 0b8e 2E        		.uleb128 0x2e
 5112 0b8f 0000 0000 		.long	.LASF226
 5113 0b93 01        		.byte	0x1
 5114 0b94 BA02      		.word	0x2ba
 5115 0b96 7200 0000 		.long	0x72
 5116 0b9a 0000 0000 		.long	.LLST49
 5117 0b9e 2E        		.uleb128 0x2e
 5118 0b9f 0000 0000 		.long	.LASF219
 5119 0ba3 01        		.byte	0x1
 5120 0ba4 BB02      		.word	0x2bb
 5121 0ba6 6B00 0000 		.long	0x6b
 5122 0baa 0000 0000 		.long	.LLST50
 5123 0bae 2E        		.uleb128 0x2e
 5124 0baf 0000 0000 		.long	.LASF185
 5125 0bb3 01        		.byte	0x1
 5126 0bb4 BC02      		.word	0x2bc
 5127 0bb6 6B00 0000 		.long	0x6b
 5128 0bba 0000 0000 		.long	.LLST51
 5129 0bbe 27        		.uleb128 0x27
 5130 0bbf 0000 0000 		.long	.LASF227
 5131 0bc3 01        		.byte	0x1
 5132 0bc4 BD02      		.word	0x2bd
 5133 0bc6 D80C 0000 		.long	0xcd8
 5134 0bca 02        		.byte	0x2
 5135 0bcb 8C        		.byte	0x8c
 5136 0bcc 01        		.sleb128 1
GAS LISTING C:\Users\ADMINI~1\AppData\Local\Temp/ccEBF6mf.s 			page 93


 5137 0bcd 2E        		.uleb128 0x2e
 5138 0bce 0000 0000 		.long	.LASF186
 5139 0bd2 01        		.byte	0x1
 5140 0bd3 BE02      		.word	0x2be
 5141 0bd5 6B00 0000 		.long	0x6b
 5142 0bd9 0000 0000 		.long	.LLST52
 5143 0bdd 17        		.uleb128 0x17
 5144 0bde 0000 0000 		.long	.LASF228
 5145 0be2 01        		.byte	0x1
 5146 0be3 BF02      		.word	0x2bf
 5147 0be5 6B00 0000 		.long	0x6b
 5148 0be9 30        		.uleb128 0x30
 5149 0bea 6305 0000 		.long	0x563
 5150 0bee 0000 0000 		.long	.LBB80
 5151 0bf2 0000 0000 		.long	.LBE80
 5152 0bf6 01        		.byte	0x1
 5153 0bf7 1703      		.word	0x317
 5154 0bf9 30        		.uleb128 0x30
 5155 0bfa 2105 0000 		.long	0x521
 5156 0bfe 0000 0000 		.long	.LBB82
 5157 0c02 0000 0000 		.long	.LBE82
 5158 0c06 01        		.byte	0x1
 5159 0c07 3D03      		.word	0x33d
 5160 0c09 35        		.uleb128 0x35
 5161 0c0a 2B05 0000 		.long	0x52b
 5162 0c0e 0000 0000 		.long	.LBB84
 5163 0c12 0000 0000 		.long	.LBE84
 5164 0c16 01        		.byte	0x1
 5165 0c17 7303      		.word	0x373
 5166 0c19 540C 0000 		.long	0xc54
 5167 0c1d 18        		.uleb128 0x18
 5168 0c1e 3805 0000 		.long	0x538
 5169 0c22 2D        		.uleb128 0x2d
 5170 0c23 0000 0000 		.long	.LBB85
 5171 0c27 0000 0000 		.long	.LBE85
 5172 0c2b 36        		.uleb128 0x36
 5173 0c2c 4305 0000 		.long	0x543
 5174 0c30 0000 0000 		.long	.LLST53
 5175 0c34 32        		.uleb128 0x32
 5176 0c35 4E05 0000 		.long	0x54e
 5177 0c39 33        		.uleb128 0x33
 5178 0c3a DA04 0000 		.long	0x4da
 5179 0c3e 0000 0000 		.long	.LBB86
 5180 0c42 0000 0000 		.long	.LBE86
 5181 0c46 03        		.byte	0x3
 5182 0c47 7B        		.byte	0x7b
 5183 0c48 20        		.uleb128 0x20
 5184 0c49 E704 0000 		.long	0x4e7
 5185 0c4d 0000 0000 		.long	.LLST54
 5186 0c51 00        		.byte	0x0
 5187 0c52 00        		.byte	0x0
 5188 0c53 00        		.byte	0x0
 5189 0c54 35        		.uleb128 0x35
 5190 0c55 6D05 0000 		.long	0x56d
 5191 0c59 0000 0000 		.long	.LBB88
 5192 0c5d 0000 0000 		.long	.LBE88
 5193 0c61 01        		.byte	0x1
GAS LISTING C:\Users\ADMINI~1\AppData\Local\Temp/ccEBF6mf.s 			page 94


 5194 0c62 9C03      		.word	0x39c
 5195 0c64 900C 0000 		.long	0xc90
 5196 0c68 18        		.uleb128 0x18
 5197 0c69 9705 0000 		.long	0x597
 5198 0c6d 18        		.uleb128 0x18
 5199 0c6e 8B05 0000 		.long	0x58b
 5200 0c72 18        		.uleb128 0x18
 5201 0c73 7F05 0000 		.long	0x57f
 5202 0c77 2D        		.uleb128 0x2d
 5203 0c78 0000 0000 		.long	.LBB90
 5204 0c7c 0000 0000 		.long	.LBE90
 5205 0c80 32        		.uleb128 0x32
 5206 0c81 A405 0000 		.long	0x5a4
 5207 0c85 36        		.uleb128 0x36
 5208 0c86 B005 0000 		.long	0x5b0
 5209 0c8a 0000 0000 		.long	.LLST55
 5210 0c8e 00        		.byte	0x0
 5211 0c8f 00        		.byte	0x0
 5212 0c90 21        		.uleb128 0x21
 5213 0c91 2B05 0000 		.long	0x52b
 5214 0c95 0000 0000 		.long	.LBB91
 5215 0c99 0000 0000 		.long	.LBE91
 5216 0c9d 01        		.byte	0x1
 5217 0c9e C403      		.word	0x3c4
 5218 0ca0 18        		.uleb128 0x18
 5219 0ca1 3805 0000 		.long	0x538
 5220 0ca5 2D        		.uleb128 0x2d
 5221 0ca6 0000 0000 		.long	.LBB92
 5222 0caa 0000 0000 		.long	.LBE92
 5223 0cae 36        		.uleb128 0x36
 5224 0caf 4305 0000 		.long	0x543
 5225 0cb3 0000 0000 		.long	.LLST56
 5226 0cb7 32        		.uleb128 0x32
 5227 0cb8 4E05 0000 		.long	0x54e
 5228 0cbc 33        		.uleb128 0x33
 5229 0cbd DA04 0000 		.long	0x4da
 5230 0cc1 0000 0000 		.long	.LBB93
 5231 0cc5 0000 0000 		.long	.LBE93
 5232 0cc9 03        		.byte	0x3
 5233 0cca 7B        		.byte	0x7b
 5234 0ccb 20        		.uleb128 0x20
 5235 0ccc E704 0000 		.long	0x4e7
 5236 0cd0 0000 0000 		.long	.LLST57
 5237 0cd4 00        		.byte	0x0
 5238 0cd5 00        		.byte	0x0
 5239 0cd6 00        		.byte	0x0
 5240 0cd7 00        		.byte	0x0
 5241 0cd8 2A        		.uleb128 0x2a
 5242 0cd9 6400 0000 		.long	0x64
 5243 0cdd E80C 0000 		.long	0xce8
 5244 0ce1 2B        		.uleb128 0x2b
 5245 0ce2 3608 0000 		.long	0x836
 5246 0ce6 02        		.byte	0x2
 5247 0ce7 00        		.byte	0x0
 5248 0ce8 2F        		.uleb128 0x2f
 5249 0ce9 01        		.byte	0x1
 5250 0cea 0000 0000 		.long	.LASF229
GAS LISTING C:\Users\ADMINI~1\AppData\Local\Temp/ccEBF6mf.s 			page 95


 5251 0cee 01        		.byte	0x1
 5252 0cef 1B02      		.word	0x21b
 5253 0cf1 01        		.byte	0x1
 5254 0cf2 0000 0000 		.long	.LFB41
 5255 0cf6 0000 0000 		.long	.LFE41
 5256 0cfa 02        		.byte	0x2
 5257 0cfb 90        		.byte	0x90
 5258 0cfc 20        		.uleb128 0x20
 5259 0cfd 3E0D 0000 		.long	0xd3e
 5260 0d01 17        		.uleb128 0x17
 5261 0d02 0000 0000 		.long	.LASF219
 5262 0d06 01        		.byte	0x1
 5263 0d07 1C02      		.word	0x21c
 5264 0d09 7200 0000 		.long	0x72
 5265 0d0d 17        		.uleb128 0x17
 5266 0d0e 0000 0000 		.long	.LASF217
 5267 0d12 01        		.byte	0x1
 5268 0d13 1D02      		.word	0x21d
 5269 0d15 7D00 0000 		.long	0x7d
 5270 0d19 26        		.uleb128 0x26
 5271 0d1a 6B00      		.string	"k"
 5272 0d1c 01        		.byte	0x1
 5273 0d1d 1E02      		.word	0x21e
 5274 0d1f 7200 0000 		.long	0x72
 5275 0d23 26        		.uleb128 0x26
 5276 0d24 6A00      		.string	"j"
 5277 0d26 01        		.byte	0x1
 5278 0d27 1E02      		.word	0x21e
 5279 0d29 7200 0000 		.long	0x72
 5280 0d2d 30        		.uleb128 0x30
 5281 0d2e 2105 0000 		.long	0x521
 5282 0d32 0000 0000 		.long	.LBB95
 5283 0d36 0000 0000 		.long	.LBE95
 5284 0d3a 01        		.byte	0x1
 5285 0d3b 2C02      		.word	0x22c
 5286 0d3d 00        		.byte	0x0
 5287 0d3e 23        		.uleb128 0x23
 5288 0d3f 01        		.byte	0x1
 5289 0d40 0000 0000 		.long	.LASF230
 5290 0d44 01        		.byte	0x1
 5291 0d45 0F02      		.word	0x20f
 5292 0d47 01        		.byte	0x1
 5293 0d48 0000 0000 		.long	.LFB40
 5294 0d4c 0000 0000 		.long	.LFE40
 5295 0d50 02        		.byte	0x2
 5296 0d51 90        		.byte	0x90
 5297 0d52 20        		.uleb128 0x20
 5298 0d53 37        		.uleb128 0x37
 5299 0d54 01        		.byte	0x1
 5300 0d55 0000 0000 		.long	.LASF231
 5301 0d59 01        		.byte	0x1
 5302 0d5a 2D01      		.word	0x12d
 5303 0d5c 01        		.byte	0x1
 5304 0d5d 7200 0000 		.long	0x72
 5305 0d61 0000 0000 		.long	.LFB28
 5306 0d65 0000 0000 		.long	.LFE28
 5307 0d69 02        		.byte	0x2
GAS LISTING C:\Users\ADMINI~1\AppData\Local\Temp/ccEBF6mf.s 			page 96


 5308 0d6a 90        		.byte	0x90
 5309 0d6b 20        		.uleb128 0x20
 5310 0d6c 070E 0000 		.long	0xe07
 5311 0d70 25        		.uleb128 0x25
 5312 0d71 0000 0000 		.long	.LASF178
 5313 0d75 01        		.byte	0x1
 5314 0d76 2C01      		.word	0x12c
 5315 0d78 7200 0000 		.long	0x72
 5316 0d7c 0000 0000 		.long	.LLST61
 5317 0d80 25        		.uleb128 0x25
 5318 0d81 0000 0000 		.long	.LASF179
 5319 0d85 01        		.byte	0x1
 5320 0d86 2C01      		.word	0x12c
 5321 0d88 7200 0000 		.long	0x72
 5322 0d8c 0000 0000 		.long	.LLST62
 5323 0d90 25        		.uleb128 0x25
 5324 0d91 0000 0000 		.long	.LASF180
 5325 0d95 01        		.byte	0x1
 5326 0d96 2C01      		.word	0x12c
 5327 0d98 7200 0000 		.long	0x72
 5328 0d9c 0000 0000 		.long	.LLST63
 5329 0da0 27        		.uleb128 0x27
 5330 0da1 0000 0000 		.long	.LASF185
 5331 0da5 01        		.byte	0x1
 5332 0da6 2E01      		.word	0x12e
 5333 0da8 7200 0000 		.long	0x72
 5334 0dac 01        		.byte	0x1
 5335 0dad 69        		.byte	0x69
 5336 0dae 35        		.uleb128 0x35
 5337 0daf BE05 0000 		.long	0x5be
 5338 0db3 0000 0000 		.long	.LBB97
 5339 0db7 0000 0000 		.long	.LBE97
 5340 0dbb 01        		.byte	0x1
 5341 0dbc 3601      		.word	0x136
 5342 0dbe D20D 0000 		.long	0xdd2
 5343 0dc2 18        		.uleb128 0x18
 5344 0dc3 E805 0000 		.long	0x5e8
 5345 0dc7 18        		.uleb128 0x18
 5346 0dc8 DC05 0000 		.long	0x5dc
 5347 0dcc 18        		.uleb128 0x18
 5348 0dcd D005 0000 		.long	0x5d0
 5349 0dd1 00        		.byte	0x0
 5350 0dd2 21        		.uleb128 0x21
 5351 0dd3 6D05 0000 		.long	0x56d
 5352 0dd7 0000 0000 		.long	.LBB98
 5353 0ddb 0000 0000 		.long	.LBE98
 5354 0ddf 01        		.byte	0x1
 5355 0de0 3E01      		.word	0x13e
 5356 0de2 18        		.uleb128 0x18
 5357 0de3 9705 0000 		.long	0x597
 5358 0de7 18        		.uleb128 0x18
 5359 0de8 8B05 0000 		.long	0x58b
 5360 0dec 18        		.uleb128 0x18
 5361 0ded 7F05 0000 		.long	0x57f
 5362 0df1 2D        		.uleb128 0x2d
 5363 0df2 0000 0000 		.long	.LBB100
 5364 0df6 0000 0000 		.long	.LBE100
GAS LISTING C:\Users\ADMINI~1\AppData\Local\Temp/ccEBF6mf.s 			page 97


 5365 0dfa 32        		.uleb128 0x32
 5366 0dfb A405 0000 		.long	0x5a4
 5367 0dff 32        		.uleb128 0x32
 5368 0e00 B005 0000 		.long	0x5b0
 5369 0e04 00        		.byte	0x0
 5370 0e05 00        		.byte	0x0
 5371 0e06 00        		.byte	0x0
 5372 0e07 37        		.uleb128 0x37
 5373 0e08 01        		.byte	0x1
 5374 0e09 0000 0000 		.long	.LASF232
 5375 0e0d 01        		.byte	0x1
 5376 0e0e 4D02      		.word	0x24d
 5377 0e10 01        		.byte	0x1
 5378 0e11 7200 0000 		.long	0x72
 5379 0e15 0000 0000 		.long	.LFB43
 5380 0e19 0000 0000 		.long	.LFE43
 5381 0e1d 02        		.byte	0x2
 5382 0e1e 90        		.byte	0x90
 5383 0e1f 20        		.uleb128 0x20
 5384 0e20 570E 0000 		.long	0xe57
 5385 0e24 25        		.uleb128 0x25
 5386 0e25 0000 0000 		.long	.LASF233
 5387 0e29 01        		.byte	0x1
 5388 0e2a 4D02      		.word	0x24d
 5389 0e2c 7200 0000 		.long	0x72
 5390 0e30 0000 0000 		.long	.LLST65
 5391 0e34 17        		.uleb128 0x17
 5392 0e35 0000 0000 		.long	.LASF234
 5393 0e39 01        		.byte	0x1
 5394 0e3a 5002      		.word	0x250
 5395 0e3c 7200 0000 		.long	0x72
 5396 0e40 21        		.uleb128 0x21
 5397 0e41 0105 0000 		.long	0x501
 5398 0e45 0000 0000 		.long	.LBB101
 5399 0e49 0000 0000 		.long	.LBE101
 5400 0e4d 01        		.byte	0x1
 5401 0e4e 5202      		.word	0x252
 5402 0e50 18        		.uleb128 0x18
 5403 0e51 2F07 0000 		.long	0x72f
 5404 0e55 00        		.byte	0x0
 5405 0e56 00        		.byte	0x0
 5406 0e57 1B        		.uleb128 0x1b
 5407 0e58 01        		.byte	0x1
 5408 0e59 0000 0000 		.long	.LASF235
 5409 0e5d 01        		.byte	0x1
 5410 0e5e D9        		.byte	0xd9
 5411 0e5f 01        		.byte	0x1
 5412 0e60 0000 0000 		.long	.LFB20
 5413 0e64 0000 0000 		.long	.LFE20
 5414 0e68 02        		.byte	0x2
 5415 0e69 90        		.byte	0x90
 5416 0e6a 20        		.uleb128 0x20
 5417 0e6b 8E0E 0000 		.long	0xe8e
 5418 0e6f 38        		.uleb128 0x38
 5419 0e70 F304 0000 		.long	0x4f3
 5420 0e74 0000 0000 		.long	.LBB103
 5421 0e78 0000 0000 		.long	.LBE103
GAS LISTING C:\Users\ADMINI~1\AppData\Local\Temp/ccEBF6mf.s 			page 98


 5422 0e7c 01        		.byte	0x1
 5423 0e7d DA        		.byte	0xda
 5424 0e7e 38        		.uleb128 0x38
 5425 0e7f 4206 0000 		.long	0x642
 5426 0e83 0000 0000 		.long	.LBB105
 5427 0e87 0000 0000 		.long	.LBE105
 5428 0e8b 01        		.byte	0x1
 5429 0e8c DB        		.byte	0xdb
 5430 0e8d 00        		.byte	0x0
 5431 0e8e 1B        		.uleb128 0x1b
 5432 0e8f 01        		.byte	0x1
 5433 0e90 0000 0000 		.long	.LASF236
 5434 0e94 01        		.byte	0x1
 5435 0e95 92        		.byte	0x92
 5436 0e96 01        		.byte	0x1
 5437 0e97 0000 0000 		.long	.LFB12
 5438 0e9b 0000 0000 		.long	.LFE12
 5439 0e9f 02        		.byte	0x2
 5440 0ea0 90        		.byte	0x90
 5441 0ea1 20        		.uleb128 0x20
 5442 0ea2 B60E 0000 		.long	0xeb6
 5443 0ea6 38        		.uleb128 0x38
 5444 0ea7 4B06 0000 		.long	0x64b
 5445 0eab 0000 0000 		.long	.LBB107
 5446 0eaf 0000 0000 		.long	.LBE107
 5447 0eb3 01        		.byte	0x1
 5448 0eb4 93        		.byte	0x93
 5449 0eb5 00        		.byte	0x0
 5450 0eb6 1E        		.uleb128 0x1e
 5451 0eb7 01        		.byte	0x1
 5452 0eb8 0000 0000 		.long	.LASF237
 5453 0ebc 01        		.byte	0x1
 5454 0ebd E9        		.byte	0xe9
 5455 0ebe 01        		.byte	0x1
 5456 0ebf 0000 0000 		.long	.LFB22
 5457 0ec3 0000 0000 		.long	.LFE22
 5458 0ec7 02        		.byte	0x2
 5459 0ec8 90        		.byte	0x90
 5460 0ec9 20        		.uleb128 0x20
 5461 0eca 1E        		.uleb128 0x1e
 5462 0ecb 01        		.byte	0x1
 5463 0ecc 0000 0000 		.long	.LASF238
 5464 0ed0 01        		.byte	0x1
 5465 0ed1 F1        		.byte	0xf1
 5466 0ed2 01        		.byte	0x1
 5467 0ed3 0000 0000 		.long	.LFB23
 5468 0ed7 0000 0000 		.long	.LFE23
 5469 0edb 02        		.byte	0x2
 5470 0edc 90        		.byte	0x90
 5471 0edd 20        		.uleb128 0x20
 5472 0ede 1E        		.uleb128 0x1e
 5473 0edf 01        		.byte	0x1
 5474 0ee0 0000 0000 		.long	.LASF239
 5475 0ee4 01        		.byte	0x1
 5476 0ee5 B4        		.byte	0xb4
 5477 0ee6 01        		.byte	0x1
 5478 0ee7 0000 0000 		.long	.LFB16
GAS LISTING C:\Users\ADMINI~1\AppData\Local\Temp/ccEBF6mf.s 			page 99


 5479 0eeb 0000 0000 		.long	.LFE16
 5480 0eef 02        		.byte	0x2
 5481 0ef0 90        		.byte	0x90
 5482 0ef1 20        		.uleb128 0x20
 5483 0ef2 39        		.uleb128 0x39
 5484 0ef3 0000 0000 		.long	.LASF240
 5485 0ef7 01        		.byte	0x1
 5486 0ef8 44        		.byte	0x44
 5487 0ef9 7200 0000 		.long	0x72
 5488 0efd 05        		.byte	0x5
 5489 0efe 03        		.byte	0x3
 5490 0eff 0000 0000 		.long	_isKeyMapping
 5491 0f03 39        		.uleb128 0x39
 5492 0f04 0000 0000 		.long	.LASF241
 5493 0f08 01        		.byte	0x1
 5494 0f09 45        		.byte	0x45
 5495 0f0a 7200 0000 		.long	0x72
 5496 0f0e 05        		.byte	0x5
 5497 0f0f 03        		.byte	0x3
 5498 0f10 0000 0000 		.long	enabledKeyMappingCount
 5499 0f14 39        		.uleb128 0x39
 5500 0f15 0000 0000 		.long	.LASF242
 5501 0f19 01        		.byte	0x1
 5502 0f1a 46        		.byte	0x46
 5503 0f1b 6B00 0000 		.long	0x6b
 5504 0f1f 05        		.byte	0x5
 5505 0f20 03        		.byte	0x3
 5506 0f21 0000 0000 		.long	keyMappingCount
 5507 0f25 39        		.uleb128 0x39
 5508 0f26 0000 0000 		.long	.LASF243
 5509 0f2a 01        		.byte	0x1
 5510 0f2b 47        		.byte	0x47
 5511 0f2c 6B00 0000 		.long	0x6b
 5512 0f30 05        		.byte	0x5
 5513 0f31 03        		.byte	0x3
 5514 0f32 0000 0000 		.long	keyMappingCountMax
 5515 0f36 39        		.uleb128 0x39
 5516 0f37 0000 0000 		.long	.LASF244
 5517 0f3b 01        		.byte	0x1
 5518 0f3c 48        		.byte	0x48
 5519 0f3d 7200 0000 		.long	0x72
 5520 0f41 05        		.byte	0x5
 5521 0f42 03        		.byte	0x3
 5522 0f43 0000 0000 		.long	_keyMappingOnBoot
 5523 0f47 39        		.uleb128 0x39
 5524 0f48 0000 0000 		.long	.LASF245
 5525 0f4c 01        		.byte	0x1
 5526 0f4d 52        		.byte	0x52
 5527 0f4e 7200 0000 		.long	0x72
 5528 0f52 05        		.byte	0x5
 5529 0f53 03        		.byte	0x3
 5530 0f54 0000 0000 		.long	_mode
 5531 0f58 39        		.uleb128 0x39
 5532 0f59 0000 0000 		.long	.LASF246
 5533 0f5d 01        		.byte	0x1
 5534 0f5e 53        		.byte	0x53
 5535 0f5f 7200 0000 		.long	0x72
GAS LISTING C:\Users\ADMINI~1\AppData\Local\Temp/ccEBF6mf.s 			page 100


 5536 0f63 05        		.byte	0x5
 5537 0f64 03        		.byte	0x3
 5538 0f65 0000 0000 		.long	_step
 5539 0f69 39        		.uleb128 0x39
 5540 0f6a 0000 0000 		.long	.LASF247
 5541 0f6e 01        		.byte	0x1
 5542 0f6f 54        		.byte	0x54
 5543 0f70 7200 0000 		.long	0x72
 5544 0f74 05        		.byte	0x5
 5545 0f75 03        		.byte	0x3
 5546 0f76 0000 0000 		.long	_stepAfterSave
 5547 0f7a 39        		.uleb128 0x39
 5548 0f7b 0000 0000 		.long	.LASF248
 5549 0f7f 01        		.byte	0x1
 5550 0f80 55        		.byte	0x55
 5551 0f81 7200 0000 		.long	0x72
 5552 0f85 05        		.byte	0x5
 5553 0f86 03        		.byte	0x3
 5554 0f87 0000 0000 		.long	_wait
 5555 0f8b 39        		.uleb128 0x39
 5556 0f8c 0000 0000 		.long	.LASF249
 5557 0f90 01        		.byte	0x1
 5558 0f91 56        		.byte	0x56
 5559 0f92 7200 0000 		.long	0x72
 5560 0f96 05        		.byte	0x5
 5561 0f97 03        		.byte	0x3
 5562 0f98 0000 0000 		.long	_col
 5563 0f9c 39        		.uleb128 0x39
 5564 0f9d 0000 0000 		.long	.LASF250
 5565 0fa1 01        		.byte	0x1
 5566 0fa2 56        		.byte	0x56
 5567 0fa3 7200 0000 		.long	0x72
 5568 0fa7 05        		.byte	0x5
 5569 0fa8 03        		.byte	0x3
 5570 0fa9 0000 0000 		.long	_row
 5571 0fad 2A        		.uleb128 0x2a
 5572 0fae 7200 0000 		.long	0x72
 5573 0fb2 BD0F 0000 		.long	0xfbd
 5574 0fb6 2B        		.uleb128 0x2b
 5575 0fb7 3608 0000 		.long	0x836
 5576 0fbb 02        		.byte	0x2
 5577 0fbc 00        		.byte	0x0
 5578 0fbd 39        		.uleb128 0x39
 5579 0fbe 0000 0000 		.long	.LASF251
 5580 0fc2 01        		.byte	0x1
 5581 0fc3 57        		.byte	0x57
 5582 0fc4 AD0F 0000 		.long	0xfad
 5583 0fc8 05        		.byte	0x5
 5584 0fc9 03        		.byte	0x3
 5585 0fca 0000 0000 		.long	_buffer
 5586 0fce 39        		.uleb128 0x39
 5587 0fcf 0000 0000 		.long	.LASF252
 5588 0fd3 01        		.byte	0x1
 5589 0fd4 58        		.byte	0x58
 5590 0fd5 7200 0000 		.long	0x72
 5591 0fd9 05        		.byte	0x5
 5592 0fda 03        		.byte	0x3
GAS LISTING C:\Users\ADMINI~1\AppData\Local\Temp/ccEBF6mf.s 			page 101


 5593 0fdb 0000 0000 		.long	_bufferIndex
 5594 0fdf 39        		.uleb128 0x39
 5595 0fe0 0000 0000 		.long	.LASF253
 5596 0fe4 01        		.byte	0x1
 5597 0fe5 59        		.byte	0x59
 5598 0fe6 6B00 0000 		.long	0x6b
 5599 0fea 05        		.byte	0x5
 5600 0feb 03        		.byte	0x3
 5601 0fec 0000 0000 		.long	_editCount
 5602 0ff0 39        		.uleb128 0x39
 5603 0ff1 0000 0000 		.long	.LASF254
 5604 0ff5 01        		.byte	0x1
 5605 0ff6 5A        		.byte	0x5a
 5606 0ff7 7200 0000 		.long	0x72
 5607 0ffb 05        		.byte	0x5
 5608 0ffc 03        		.byte	0x3
 5609 0ffd 0000 0000 		.long	_isWorkingForEmpty
 5610 1001 39        		.uleb128 0x39
 5611 1002 0000 0000 		.long	.LASF255
 5612 1006 01        		.byte	0x1
 5613 1007 5E        		.byte	0x5e
 5614 1008 7200 0000 		.long	0x72
 5615 100c 05        		.byte	0x5
 5616 100d 03        		.byte	0x3
 5617 100e 0000 0000 		.long	_currentLayer
 5618 1012 39        		.uleb128 0x39
 5619 1013 0000 0000 		.long	.LASF256
 5620 1017 01        		.byte	0x1
 5621 1018 5F        		.byte	0x5f
 5622 1019 7200 0000 		.long	0x72
 5623 101d 05        		.byte	0x5
 5624 101e 03        		.byte	0x3
 5625 101f 0000 0000 		.long	_currentLayerAfter
 5626 1023 2A        		.uleb128 0x2a
 5627 1024 7200 0000 		.long	0x72
 5628 1028 3310 0000 		.long	0x1033
 5629 102c 2B        		.uleb128 0x2b
 5630 102d 3608 0000 		.long	0x836
 5631 1031 0A        		.byte	0xa
 5632 1032 00        		.byte	0x0
 5633 1033 39        		.uleb128 0x39
 5634 1034 0000 0000 		.long	.LASF257
 5635 1038 01        		.byte	0x1
 5636 1039 62        		.byte	0x62
 5637 103a 2310 0000 		.long	0x1023
 5638 103e 05        		.byte	0x5
 5639 103f 03        		.byte	0x3
 5640 1040 0000 0000 		.long	usingKeys
 5641 1044 39        		.uleb128 0x39
 5642 1045 0000 0000 		.long	.LASF258
 5643 1049 01        		.byte	0x1
 5644 104a C5        		.byte	0xc5
 5645 104b 7200 0000 		.long	0x72
 5646 104f 05        		.byte	0x5
 5647 1050 03        		.byte	0x3
 5648 1051 0000 0000 		.long	_isBootMapper
 5649 1055 27        		.uleb128 0x27
GAS LISTING C:\Users\ADMINI~1\AppData\Local\Temp/ccEBF6mf.s 			page 102


 5650 1056 0000 0000 		.long	.LASF259
 5651 105a 01        		.byte	0x1
 5652 105b AA02      		.word	0x2aa
 5653 105d 7200 0000 		.long	0x72
 5654 1061 05        		.byte	0x5
 5655 1062 03        		.byte	0x3
 5656 1063 0000 0000 		.long	_macroDownCount
 5657 1067 3A        		.uleb128 0x3a
 5658 1068 0000 0000 		.long	.LASF260
 5659 106c 07        		.byte	0x7
 5660 106d 3B        		.byte	0x3b
 5661 106e 7200 0000 		.long	0x72
 5662 1072 01        		.byte	0x1
 5663 1073 01        		.byte	0x1
 5664 1074 2A        		.uleb128 0x2a
 5665 1075 7200 0000 		.long	0x72
 5666 1079 9010 0000 		.long	0x1090
 5667 107d 2B        		.uleb128 0x2b
 5668 107e 3608 0000 		.long	0x836
 5669 1082 02        		.byte	0x2
 5670 1083 2B        		.uleb128 0x2b
 5671 1084 3608 0000 		.long	0x836
 5672 1088 10        		.byte	0x10
 5673 1089 2B        		.uleb128 0x2b
 5674 108a 3608 0000 		.long	0x836
 5675 108e 07        		.byte	0x7
 5676 108f 00        		.byte	0x0
 5677 1090 3A        		.uleb128 0x3a
 5678 1091 0000 0000 		.long	.LASF261
 5679 1095 05        		.byte	0x5
 5680 1096 E1        		.byte	0xe1
 5681 1097 9D10 0000 		.long	0x109d
 5682 109b 01        		.byte	0x1
 5683 109c 01        		.byte	0x1
 5684 109d 29        		.uleb128 0x29
 5685 109e 7410 0000 		.long	0x1074
 5686 10a2 2A        		.uleb128 0x2a
 5687 10a3 6400 0000 		.long	0x64
 5688 10a7 B210 0000 		.long	0x10b2
 5689 10ab 2B        		.uleb128 0x2b
 5690 10ac 3608 0000 		.long	0x836
 5691 10b0 0B        		.byte	0xb
 5692 10b1 00        		.byte	0x0
 5693 10b2 3B        		.uleb128 0x3b
 5694 10b3 0000 0000 		.long	.LASF262
 5695 10b7 01        		.byte	0x1
 5696 10b8 1A        		.byte	0x1a
 5697 10b9 C410 0000 		.long	0x10c4
 5698 10bd 01        		.byte	0x1
 5699 10be 05        		.byte	0x5
 5700 10bf 03        		.byte	0x3
 5701 10c0 0000 0000 		.long	str_select_mode
 5702 10c4 29        		.uleb128 0x29
 5703 10c5 A210 0000 		.long	0x10a2
 5704 10c9 2A        		.uleb128 0x2a
 5705 10ca 6400 0000 		.long	0x64
 5706 10ce D910 0000 		.long	0x10d9
GAS LISTING C:\Users\ADMINI~1\AppData\Local\Temp/ccEBF6mf.s 			page 103


 5707 10d2 2B        		.uleb128 0x2b
 5708 10d3 3608 0000 		.long	0x836
 5709 10d7 0D        		.byte	0xd
 5710 10d8 00        		.byte	0x0
 5711 10d9 3B        		.uleb128 0x3b
 5712 10da 0000 0000 		.long	.LASF263
 5713 10de 01        		.byte	0x1
 5714 10df 1B        		.byte	0x1b
 5715 10e0 EB10 0000 		.long	0x10eb
 5716 10e4 01        		.byte	0x1
 5717 10e5 05        		.byte	0x5
 5718 10e6 03        		.byte	0x3
 5719 10e7 0000 0000 		.long	str_select_mode1
 5720 10eb 29        		.uleb128 0x29
 5721 10ec C910 0000 		.long	0x10c9
 5722 10f0 2A        		.uleb128 0x2a
 5723 10f1 6400 0000 		.long	0x64
 5724 10f5 0011 0000 		.long	0x1100
 5725 10f9 2B        		.uleb128 0x2b
 5726 10fa 3608 0000 		.long	0x836
 5727 10fe 07        		.byte	0x7
 5728 10ff 00        		.byte	0x0
 5729 1100 3B        		.uleb128 0x3b
 5730 1101 0000 0000 		.long	.LASF264
 5731 1105 01        		.byte	0x1
 5732 1106 1C        		.byte	0x1c
 5733 1107 1211 0000 		.long	0x1112
 5734 110b 01        		.byte	0x1
 5735 110c 05        		.byte	0x5
 5736 110d 03        		.byte	0x3
 5737 110e 0000 0000 		.long	str_select_mode2
 5738 1112 29        		.uleb128 0x29
 5739 1113 F010 0000 		.long	0x10f0
 5740 1117 2A        		.uleb128 0x2a
 5741 1118 6400 0000 		.long	0x64
 5742 111c 2711 0000 		.long	0x1127
 5743 1120 2B        		.uleb128 0x2b
 5744 1121 3608 0000 		.long	0x836
 5745 1125 06        		.byte	0x6
 5746 1126 00        		.byte	0x0
 5747 1127 3B        		.uleb128 0x3b
 5748 1128 0000 0000 		.long	.LASF265
 5749 112c 01        		.byte	0x1
 5750 112d 1D        		.byte	0x1d
 5751 112e 3911 0000 		.long	0x1139
 5752 1132 01        		.byte	0x1
 5753 1133 05        		.byte	0x5
 5754 1134 03        		.byte	0x3
 5755 1135 0000 0000 		.long	str_select_mode3
 5756 1139 29        		.uleb128 0x29
 5757 113a 1711 0000 		.long	0x1117
 5758 113e 2A        		.uleb128 0x2a
 5759 113f 6400 0000 		.long	0x64
 5760 1143 4E11 0000 		.long	0x114e
 5761 1147 2B        		.uleb128 0x2b
 5762 1148 3608 0000 		.long	0x836
 5763 114c 09        		.byte	0x9
GAS LISTING C:\Users\ADMINI~1\AppData\Local\Temp/ccEBF6mf.s 			page 104


 5764 114d 00        		.byte	0x0
 5765 114e 3B        		.uleb128 0x3b
 5766 114f 0000 0000 		.long	.LASF266
 5767 1153 01        		.byte	0x1
 5768 1154 1E        		.byte	0x1e
 5769 1155 6011 0000 		.long	0x1160
 5770 1159 01        		.byte	0x1
 5771 115a 05        		.byte	0x5
 5772 115b 03        		.byte	0x3
 5773 115c 0000 0000 		.long	str_exit
 5774 1160 29        		.uleb128 0x29
 5775 1161 3E11 0000 		.long	0x113e
 5776 1165 2A        		.uleb128 0x2a
 5777 1166 6400 0000 		.long	0x64
 5778 116a 7511 0000 		.long	0x1175
 5779 116e 2B        		.uleb128 0x2b
 5780 116f 3608 0000 		.long	0x836
 5781 1173 05        		.byte	0x5
 5782 1174 00        		.byte	0x0
 5783 1175 3B        		.uleb128 0x3b
 5784 1176 0000 0000 		.long	.LASF267
 5785 117a 01        		.byte	0x1
 5786 117b 20        		.byte	0x20
 5787 117c 8711 0000 		.long	0x1187
 5788 1180 01        		.byte	0x1
 5789 1181 05        		.byte	0x5
 5790 1182 03        		.byte	0x3
 5791 1183 0000 0000 		.long	str_macro_message
 5792 1187 29        		.uleb128 0x29
 5793 1188 6511 0000 		.long	0x1165
 5794 118c 2A        		.uleb128 0x2a
 5795 118d 6400 0000 		.long	0x64
 5796 1191 9C11 0000 		.long	0x119c
 5797 1195 2B        		.uleb128 0x2b
 5798 1196 3608 0000 		.long	0x836
 5799 119a 14        		.byte	0x14
 5800 119b 00        		.byte	0x0
 5801 119c 3B        		.uleb128 0x3b
 5802 119d 0000 0000 		.long	.LASF268
 5803 11a1 01        		.byte	0x1
 5804 11a2 21        		.byte	0x21
 5805 11a3 AE11 0000 		.long	0x11ae
 5806 11a7 01        		.byte	0x1
 5807 11a8 05        		.byte	0x5
 5808 11a9 03        		.byte	0x3
 5809 11aa 0000 0000 		.long	str_macro_1
 5810 11ae 29        		.uleb128 0x29
 5811 11af 8C11 0000 		.long	0x118c
 5812 11b3 3B        		.uleb128 0x3b
 5813 11b4 0000 0000 		.long	.LASF269
 5814 11b8 01        		.byte	0x1
 5815 11b9 22        		.byte	0x22
 5816 11ba C511 0000 		.long	0x11c5
 5817 11be 01        		.byte	0x1
 5818 11bf 05        		.byte	0x5
 5819 11c0 03        		.byte	0x3
 5820 11c1 0000 0000 		.long	str_macro_2
GAS LISTING C:\Users\ADMINI~1\AppData\Local\Temp/ccEBF6mf.s 			page 105


 5821 11c5 29        		.uleb128 0x29
 5822 11c6 1711 0000 		.long	0x1117
 5823 11ca 3B        		.uleb128 0x3b
 5824 11cb 0000 0000 		.long	.LASF270
 5825 11cf 01        		.byte	0x1
 5826 11d0 23        		.byte	0x23
 5827 11d1 DC11 0000 		.long	0x11dc
 5828 11d5 01        		.byte	0x1
 5829 11d6 05        		.byte	0x5
 5830 11d7 03        		.byte	0x3
 5831 11d8 0000 0000 		.long	str_macro_9
 5832 11dc 29        		.uleb128 0x29
 5833 11dd A210 0000 		.long	0x10a2
 5834 11e1 3B        		.uleb128 0x3b
 5835 11e2 0000 0000 		.long	.LASF271
 5836 11e6 01        		.byte	0x1
 5837 11e7 25        		.byte	0x25
 5838 11e8 F311 0000 		.long	0x11f3
 5839 11ec 01        		.byte	0x1
 5840 11ed 05        		.byte	0x5
 5841 11ee 03        		.byte	0x3
 5842 11ef 0000 0000 		.long	str_back_6
 5843 11f3 29        		.uleb128 0x29
 5844 11f4 1711 0000 		.long	0x1117
 5845 11f8 2A        		.uleb128 0x2a
 5846 11f9 6400 0000 		.long	0x64
 5847 11fd 0812 0000 		.long	0x1208
 5848 1201 2B        		.uleb128 0x2b
 5849 1202 3608 0000 		.long	0x836
 5850 1206 0A        		.byte	0xa
 5851 1207 00        		.byte	0x0
 5852 1208 3B        		.uleb128 0x3b
 5853 1209 0000 0000 		.long	.LASF272
 5854 120d 01        		.byte	0x1
 5855 120e 27        		.byte	0x27
 5856 120f 1A12 0000 		.long	0x121a
 5857 1213 01        		.byte	0x1
 5858 1214 05        		.byte	0x5
 5859 1215 03        		.byte	0x3
 5860 1216 0000 0000 		.long	str_mapper_message
 5861 121a 29        		.uleb128 0x29
 5862 121b F811 0000 		.long	0x11f8
 5863 121f 2A        		.uleb128 0x2a
 5864 1220 6400 0000 		.long	0x64
 5865 1224 2F12 0000 		.long	0x122f
 5866 1228 2B        		.uleb128 0x2b
 5867 1229 3608 0000 		.long	0x836
 5868 122d 0E        		.byte	0xe
 5869 122e 00        		.byte	0x0
 5870 122f 3B        		.uleb128 0x3b
 5871 1230 0000 0000 		.long	.LASF273
 5872 1234 01        		.byte	0x1
 5873 1235 28        		.byte	0x28
 5874 1236 4112 0000 		.long	0x1241
 5875 123a 01        		.byte	0x1
 5876 123b 05        		.byte	0x5
 5877 123c 03        		.byte	0x3
GAS LISTING C:\Users\ADMINI~1\AppData\Local\Temp/ccEBF6mf.s 			page 106


 5878 123d 0000 0000 		.long	str_mapper_1
 5879 1241 29        		.uleb128 0x29
 5880 1242 1F12 0000 		.long	0x121f
 5881 1246 2A        		.uleb128 0x2a
 5882 1247 6400 0000 		.long	0x64
 5883 124b 5612 0000 		.long	0x1256
 5884 124f 2B        		.uleb128 0x2b
 5885 1250 3608 0000 		.long	0x836
 5886 1254 1C        		.byte	0x1c
 5887 1255 00        		.byte	0x0
 5888 1256 3B        		.uleb128 0x3b
 5889 1257 0000 0000 		.long	.LASF274
 5890 125b 01        		.byte	0x1
 5891 125c 29        		.byte	0x29
 5892 125d 6812 0000 		.long	0x1268
 5893 1261 01        		.byte	0x1
 5894 1262 05        		.byte	0x5
 5895 1263 03        		.byte	0x3
 5896 1264 0000 0000 		.long	str_mapper_2
 5897 1268 29        		.uleb128 0x29
 5898 1269 4612 0000 		.long	0x1246
 5899 126d 2A        		.uleb128 0x2a
 5900 126e 6400 0000 		.long	0x64
 5901 1272 7D12 0000 		.long	0x127d
 5902 1276 2B        		.uleb128 0x2b
 5903 1277 3608 0000 		.long	0x836
 5904 127b 0F        		.byte	0xf
 5905 127c 00        		.byte	0x0
 5906 127d 3B        		.uleb128 0x3b
 5907 127e 0000 0000 		.long	.LASF275
 5908 1282 01        		.byte	0x1
 5909 1283 2A        		.byte	0x2a
 5910 1284 8F12 0000 		.long	0x128f
 5911 1288 01        		.byte	0x1
 5912 1289 05        		.byte	0x5
 5913 128a 03        		.byte	0x3
 5914 128b 0000 0000 		.long	str_mapper_3
 5915 128f 29        		.uleb128 0x29
 5916 1290 6D12 0000 		.long	0x126d
 5917 1294 2A        		.uleb128 0x2a
 5918 1295 6400 0000 		.long	0x64
 5919 1299 A412 0000 		.long	0x12a4
 5920 129d 2B        		.uleb128 0x2b
 5921 129e 3608 0000 		.long	0x836
 5922 12a2 15        		.byte	0x15
 5923 12a3 00        		.byte	0x0
 5924 12a4 3B        		.uleb128 0x3b
 5925 12a5 0000 0000 		.long	.LASF276
 5926 12a9 01        		.byte	0x1
 5927 12aa 2B        		.byte	0x2b
 5928 12ab B612 0000 		.long	0x12b6
 5929 12af 01        		.byte	0x1
 5930 12b0 05        		.byte	0x5
 5931 12b1 03        		.byte	0x3
 5932 12b2 0000 0000 		.long	str_mapper_4
 5933 12b6 29        		.uleb128 0x29
 5934 12b7 9412 0000 		.long	0x1294
GAS LISTING C:\Users\ADMINI~1\AppData\Local\Temp/ccEBF6mf.s 			page 107


 5935 12bb 2A        		.uleb128 0x2a
 5936 12bc 6400 0000 		.long	0x64
 5937 12c0 CB12 0000 		.long	0x12cb
 5938 12c4 2B        		.uleb128 0x2b
 5939 12c5 3608 0000 		.long	0x836
 5940 12c9 22        		.byte	0x22
 5941 12ca 00        		.byte	0x0
 5942 12cb 3B        		.uleb128 0x3b
 5943 12cc 0000 0000 		.long	.LASF277
 5944 12d0 01        		.byte	0x1
 5945 12d1 2C        		.byte	0x2c
 5946 12d2 DD12 0000 		.long	0x12dd
 5947 12d6 01        		.byte	0x1
 5948 12d7 05        		.byte	0x5
 5949 12d8 03        		.byte	0x3
 5950 12d9 0000 0000 		.long	str_mapper_9
 5951 12dd 29        		.uleb128 0x29
 5952 12de BB12 0000 		.long	0x12bb
 5953 12e2 3B        		.uleb128 0x3b
 5954 12e3 0000 0000 		.long	.LASF278
 5955 12e7 01        		.byte	0x1
 5956 12e8 2E        		.byte	0x2e
 5957 12e9 F412 0000 		.long	0x12f4
 5958 12ed 01        		.byte	0x1
 5959 12ee 05        		.byte	0x5
 5960 12ef 03        		.byte	0x3
 5961 12f0 0000 0000 		.long	str_prepare_message
 5962 12f4 29        		.uleb128 0x29
 5963 12f5 F010 0000 		.long	0x10f0
 5964 12f9 2A        		.uleb128 0x2a
 5965 12fa 6400 0000 		.long	0x64
 5966 12fe 0913 0000 		.long	0x1309
 5967 1302 2B        		.uleb128 0x2b
 5968 1303 3608 0000 		.long	0x836
 5969 1307 31        		.byte	0x31
 5970 1308 00        		.byte	0x0
 5971 1309 3B        		.uleb128 0x3b
 5972 130a 0000 0000 		.long	.LASF279
 5973 130e 01        		.byte	0x1
 5974 130f 2F        		.byte	0x2f
 5975 1310 1B13 0000 		.long	0x131b
 5976 1314 01        		.byte	0x1
 5977 1315 05        		.byte	0x5
 5978 1316 03        		.byte	0x3
 5979 1317 0000 0000 		.long	str_choose_layer
 5980 131b 29        		.uleb128 0x29
 5981 131c F912 0000 		.long	0x12f9
 5982 1320 2A        		.uleb128 0x2a
 5983 1321 6400 0000 		.long	0x64
 5984 1325 3013 0000 		.long	0x1330
 5985 1329 2B        		.uleb128 0x2b
 5986 132a 3608 0000 		.long	0x836
 5987 132e 1E        		.byte	0x1e
 5988 132f 00        		.byte	0x0
 5989 1330 3B        		.uleb128 0x3b
 5990 1331 0000 0000 		.long	.LASF280
 5991 1335 01        		.byte	0x1
GAS LISTING C:\Users\ADMINI~1\AppData\Local\Temp/ccEBF6mf.s 			page 108


 5992 1336 30        		.byte	0x30
 5993 1337 4213 0000 		.long	0x1342
 5994 133b 01        		.byte	0x1
 5995 133c 05        		.byte	0x5
 5996 133d 03        		.byte	0x3
 5997 133e 0000 0000 		.long	str_choose_key
 5998 1342 29        		.uleb128 0x29
 5999 1343 2013 0000 		.long	0x1320
 6000 1347 2A        		.uleb128 0x2a
 6001 1348 6400 0000 		.long	0x64
 6002 134c 5713 0000 		.long	0x1357
 6003 1350 2B        		.uleb128 0x2b
 6004 1351 3608 0000 		.long	0x836
 6005 1355 21        		.byte	0x21
 6006 1356 00        		.byte	0x0
 6007 1357 3B        		.uleb128 0x3b
 6008 1358 0000 0000 		.long	.LASF281
 6009 135c 01        		.byte	0x1
 6010 135d 31        		.byte	0x31
 6011 135e 6913 0000 		.long	0x1369
 6012 1362 01        		.byte	0x1
 6013 1363 05        		.byte	0x5
 6014 1364 03        		.byte	0x3
 6015 1365 0000 0000 		.long	str_input_keycode
 6016 1369 29        		.uleb128 0x29
 6017 136a 4713 0000 		.long	0x1347
 6018 136e 2A        		.uleb128 0x2a
 6019 136f 6400 0000 		.long	0x64
 6020 1373 7E13 0000 		.long	0x137e
 6021 1377 2B        		.uleb128 0x2b
 6022 1378 3608 0000 		.long	0x836
 6023 137c 17        		.byte	0x17
 6024 137d 00        		.byte	0x0
 6025 137e 3B        		.uleb128 0x3b
 6026 137f 0000 0000 		.long	.LASF282
 6027 1383 01        		.byte	0x1
 6028 1384 32        		.byte	0x32
 6029 1385 9013 0000 		.long	0x1390
 6030 1389 01        		.byte	0x1
 6031 138a 05        		.byte	0x5
 6032 138b 03        		.byte	0x3
 6033 138c 0000 0000 		.long	str_save_end_mapping
 6034 1390 29        		.uleb128 0x29
 6035 1391 6E13 0000 		.long	0x136e
 6036 1395 2A        		.uleb128 0x2a
 6037 1396 6400 0000 		.long	0x64
 6038 139a A513 0000 		.long	0x13a5
 6039 139e 2B        		.uleb128 0x2b
 6040 139f 3608 0000 		.long	0x836
 6041 13a3 23        		.byte	0x23
 6042 13a4 00        		.byte	0x0
 6043 13a5 3B        		.uleb128 0x3b
 6044 13a6 0000 0000 		.long	.LASF283
 6045 13aa 01        		.byte	0x1
 6046 13ab 33        		.byte	0x33
 6047 13ac B713 0000 		.long	0x13b7
 6048 13b0 01        		.byte	0x1
GAS LISTING C:\Users\ADMINI~1\AppData\Local\Temp/ccEBF6mf.s 			page 109


 6049 13b1 05        		.byte	0x5
 6050 13b2 03        		.byte	0x3
 6051 13b3 0000 0000 		.long	str_cancel_mapping
 6052 13b7 29        		.uleb128 0x29
 6053 13b8 9513 0000 		.long	0x1395
 6054 13bc 3B        		.uleb128 0x3b
 6055 13bd 0000 0000 		.long	.LASF284
 6056 13c1 01        		.byte	0x1
 6057 13c2 34        		.byte	0x34
 6058 13c3 CE13 0000 		.long	0x13ce
 6059 13c7 01        		.byte	0x1
 6060 13c8 05        		.byte	0x5
 6061 13c9 03        		.byte	0x3
 6062 13ca 0000 0000 		.long	str_reset_mapping
 6063 13ce 29        		.uleb128 0x29
 6064 13cf 2013 0000 		.long	0x1320
 6065 13d3 2A        		.uleb128 0x2a
 6066 13d4 6400 0000 		.long	0x64
 6067 13d8 E313 0000 		.long	0x13e3
 6068 13dc 2B        		.uleb128 0x2b
 6069 13dd 3608 0000 		.long	0x836
 6070 13e1 16        		.byte	0x16
 6071 13e2 00        		.byte	0x0
 6072 13e3 3B        		.uleb128 0x3b
 6073 13e4 0000 0000 		.long	.LASF285
 6074 13e8 01        		.byte	0x1
 6075 13e9 35        		.byte	0x35
 6076 13ea F513 0000 		.long	0x13f5
 6077 13ee 01        		.byte	0x1
 6078 13ef 05        		.byte	0x5
 6079 13f0 03        		.byte	0x3
 6080 13f1 0000 0000 		.long	str_input_command
 6081 13f5 29        		.uleb128 0x29
 6082 13f6 D313 0000 		.long	0x13d3
 6083 13fa 3B        		.uleb128 0x3b
 6084 13fb 0000 0000 		.long	.LASF286
 6085 13ff 01        		.byte	0x1
 6086 1400 36        		.byte	0x36
 6087 1401 0C14 0000 		.long	0x140c
 6088 1405 01        		.byte	0x1
 6089 1406 05        		.byte	0x5
 6090 1407 03        		.byte	0x3
 6091 1408 0000 0000 		.long	str_nothing
 6092 140c 29        		.uleb128 0x29
 6093 140d F010 0000 		.long	0x10f0
 6094 1411 2A        		.uleb128 0x2a
 6095 1412 6400 0000 		.long	0x64
 6096 1416 2114 0000 		.long	0x1421
 6097 141a 2B        		.uleb128 0x2b
 6098 141b 3608 0000 		.long	0x836
 6099 141f 12        		.byte	0x12
 6100 1420 00        		.byte	0x0
 6101 1421 3B        		.uleb128 0x3b
 6102 1422 0000 0000 		.long	.LASF287
 6103 1426 01        		.byte	0x1
 6104 1427 37        		.byte	0x37
 6105 1428 3314 0000 		.long	0x1433
GAS LISTING C:\Users\ADMINI~1\AppData\Local\Temp/ccEBF6mf.s 			page 110


 6106 142c 01        		.byte	0x1
 6107 142d 05        		.byte	0x5
 6108 142e 03        		.byte	0x3
 6109 142f 0000 0000 		.long	str_save_layer
 6110 1433 29        		.uleb128 0x29
 6111 1434 1114 0000 		.long	0x1411
 6112 1438 3B        		.uleb128 0x3b
 6113 1439 0000 0000 		.long	.LASF288
 6114 143d 01        		.byte	0x1
 6115 143e 38        		.byte	0x38
 6116 143f 4A14 0000 		.long	0x144a
 6117 1443 01        		.byte	0x1
 6118 1444 05        		.byte	0x5
 6119 1445 03        		.byte	0x3
 6120 1446 0000 0000 		.long	str_load_layer
 6121 144a 29        		.uleb128 0x29
 6122 144b 1114 0000 		.long	0x1411
 6123 144f 3B        		.uleb128 0x3b
 6124 1450 0000 0000 		.long	.LASF289
 6125 1454 01        		.byte	0x1
 6126 1455 39        		.byte	0x39
 6127 1456 6114 0000 		.long	0x1461
 6128 145a 01        		.byte	0x1
 6129 145b 05        		.byte	0x5
 6130 145c 03        		.byte	0x3
 6131 145d 0000 0000 		.long	str_saving
 6132 1461 29        		.uleb128 0x29
 6133 1462 3E11 0000 		.long	0x113e
 6134 1466 3B        		.uleb128 0x3b
 6135 1467 0000 0000 		.long	.LASF290
 6136 146b 01        		.byte	0x1
 6137 146c 3A        		.byte	0x3a
 6138 146d 7814 0000 		.long	0x1478
 6139 1471 01        		.byte	0x1
 6140 1472 05        		.byte	0x5
 6141 1473 03        		.byte	0x3
 6142 1474 0000 0000 		.long	str_col_row
 6143 1478 29        		.uleb128 0x29
 6144 1479 A210 0000 		.long	0x10a2
 6145 147d 2A        		.uleb128 0x2a
 6146 147e 6400 0000 		.long	0x64
 6147 1482 8D14 0000 		.long	0x148d
 6148 1486 2B        		.uleb128 0x2b
 6149 1487 3608 0000 		.long	0x836
 6150 148b 1D        		.byte	0x1d
 6151 148c 00        		.byte	0x0
 6152 148d 3B        		.uleb128 0x3b
 6153 148e 0000 0000 		.long	.LASF291
 6154 1492 01        		.byte	0x1
 6155 1493 3B        		.byte	0x3b
 6156 1494 9F14 0000 		.long	0x149f
 6157 1498 01        		.byte	0x1
 6158 1499 05        		.byte	0x5
 6159 149a 03        		.byte	0x3
 6160 149b 0000 0000 		.long	str_invalid_keycode
 6161 149f 29        		.uleb128 0x29
 6162 14a0 7D14 0000 		.long	0x147d
GAS LISTING C:\Users\ADMINI~1\AppData\Local\Temp/ccEBF6mf.s 			page 111


 6163 14a4 2A        		.uleb128 0x2a
 6164 14a5 6400 0000 		.long	0x64
 6165 14a9 B414 0000 		.long	0x14b4
 6166 14ad 2B        		.uleb128 0x2b
 6167 14ae 3608 0000 		.long	0x836
 6168 14b2 2C        		.byte	0x2c
 6169 14b3 00        		.byte	0x0
 6170 14b4 3B        		.uleb128 0x3b
 6171 14b5 0000 0000 		.long	.LASF292
 6172 14b9 01        		.byte	0x1
 6173 14ba 3D        		.byte	0x3d
 6174 14bb C614 0000 		.long	0x14c6
 6175 14bf 01        		.byte	0x1
 6176 14c0 05        		.byte	0x5
 6177 14c1 03        		.byte	0x3
 6178 14c2 0000 0000 		.long	str_select_number
 6179 14c6 29        		.uleb128 0x29
 6180 14c7 A414 0000 		.long	0x14a4
 6181 14cb 2A        		.uleb128 0x2a
 6182 14cc 6400 0000 		.long	0x64
 6183 14d0 DB14 0000 		.long	0x14db
 6184 14d4 2B        		.uleb128 0x2b
 6185 14d5 3608 0000 		.long	0x836
 6186 14d9 1A        		.byte	0x1a
 6187 14da 00        		.byte	0x0
 6188 14db 3B        		.uleb128 0x3b
 6189 14dc 0000 0000 		.long	.LASF293
 6190 14e0 01        		.byte	0x1
 6191 14e1 3E        		.byte	0x3e
 6192 14e2 ED14 0000 		.long	0x14ed
 6193 14e6 01        		.byte	0x1
 6194 14e7 05        		.byte	0x5
 6195 14e8 03        		.byte	0x3
 6196 14e9 0000 0000 		.long	str_exit_macro
 6197 14ed 29        		.uleb128 0x29
 6198 14ee CB14 0000 		.long	0x14cb
 6199 14f2 2A        		.uleb128 0x2a
 6200 14f3 6400 0000 		.long	0x64
 6201 14f7 0215 0000 		.long	0x1502
 6202 14fb 2B        		.uleb128 0x2b
 6203 14fc 3608 0000 		.long	0x836
 6204 1500 36        		.byte	0x36
 6205 1501 00        		.byte	0x0
 6206 1502 3B        		.uleb128 0x3b
 6207 1503 0000 0000 		.long	.LASF294
 6208 1507 01        		.byte	0x1
 6209 1508 3F        		.byte	0x3f
 6210 1509 1415 0000 		.long	0x1514
 6211 150d 01        		.byte	0x1
 6212 150e 05        		.byte	0x5
 6213 150f 03        		.byte	0x3
 6214 1510 0000 0000 		.long	str_input_macro
 6215 1514 29        		.uleb128 0x29
 6216 1515 F214 0000 		.long	0x14f2
 6217 1519 2A        		.uleb128 0x2a
 6218 151a 6400 0000 		.long	0x64
 6219 151e 2915 0000 		.long	0x1529
GAS LISTING C:\Users\ADMINI~1\AppData\Local\Temp/ccEBF6mf.s 			page 112


 6220 1522 2B        		.uleb128 0x2b
 6221 1523 3608 0000 		.long	0x836
 6222 1527 1B        		.byte	0x1b
 6223 1528 00        		.byte	0x0
 6224 1529 3B        		.uleb128 0x3b
 6225 152a 0000 0000 		.long	.LASF295
 6226 152e 01        		.byte	0x1
 6227 152f 40        		.byte	0x40
 6228 1530 3B15 0000 		.long	0x153b
 6229 1534 01        		.byte	0x1
 6230 1535 05        		.byte	0x5
 6231 1536 03        		.byte	0x3
 6232 1537 0000 0000 		.long	str_invalid_macro_number
 6233 153b 29        		.uleb128 0x29
 6234 153c 1915 0000 		.long	0x1519
 6235 1540 2A        		.uleb128 0x2a
 6236 1541 6400 0000 		.long	0x64
 6237 1545 5015 0000 		.long	0x1550
 6238 1549 2B        		.uleb128 0x2b
 6239 154a 3608 0000 		.long	0x836
 6240 154e 08        		.byte	0x8
 6241 154f 00        		.byte	0x0
 6242 1550 3B        		.uleb128 0x3b
 6243 1551 0000 0000 		.long	.LASF296
 6244 1555 01        		.byte	0x1
 6245 1556 41        		.byte	0x41
 6246 1557 6215 0000 		.long	0x1562
 6247 155b 01        		.byte	0x1
 6248 155c 05        		.byte	0x5
 6249 155d 03        		.byte	0x3
 6250 155e 0000 0000 		.long	str_clear_all_macro
 6251 1562 29        		.uleb128 0x29
 6252 1563 4015 0000 		.long	0x1540
 6253 1567 3B        		.uleb128 0x3b
 6254 1568 0000 0000 		.long	.LASF297
 6255 156c 01        		.byte	0x1
 6256 156d 4A        		.byte	0x4a
 6257 156e 7200 0000 		.long	0x72
 6258 1572 01        		.byte	0x1
 6259 1573 05        		.byte	0x5
 6260 1574 03        		.byte	0x3
 6261 1575 0000 0000 		.long	_macroIndex
 6262 1579 3B        		.uleb128 0x3b
 6263 157a 0000 0000 		.long	.LASF298
 6264 157e 01        		.byte	0x1
 6265 157f 4B        		.byte	0x4b
 6266 1580 7200 0000 		.long	0x72
 6267 1584 01        		.byte	0x1
 6268 1585 05        		.byte	0x5
 6269 1586 03        		.byte	0x3
 6270 1587 0000 0000 		.long	_macroBufferIndex
 6271 158b 2A        		.uleb128 0x2a
 6272 158c 7200 0000 		.long	0x72
 6273 1590 9B15 0000 		.long	0x159b
 6274 1594 2B        		.uleb128 0x2b
 6275 1595 3608 0000 		.long	0x836
 6276 1599 17        		.byte	0x17
GAS LISTING C:\Users\ADMINI~1\AppData\Local\Temp/ccEBF6mf.s 			page 113


 6277 159a 00        		.byte	0x0
 6278 159b 3B        		.uleb128 0x3b
 6279 159c 0000 0000 		.long	.LASF299
 6280 15a0 01        		.byte	0x1
 6281 15a1 4C        		.byte	0x4c
 6282 15a2 8B15 0000 		.long	0x158b
 6283 15a6 01        		.byte	0x1
 6284 15a7 05        		.byte	0x5
 6285 15a8 03        		.byte	0x3
 6286 15a9 0000 0000 		.long	_macroPressedBuffer
 6287 15ad 3B        		.uleb128 0x3b
 6288 15ae 0000 0000 		.long	.LASF300
 6289 15b2 01        		.byte	0x1
 6290 15b3 4D        		.byte	0x4d
 6291 15b4 7F0A 0000 		.long	0xa7f
 6292 15b8 01        		.byte	0x1
 6293 15b9 05        		.byte	0x5
 6294 15ba 03        		.byte	0x3
 6295 15bb 0000 0000 		.long	_macroInputBuffer
 6296 15bf 3B        		.uleb128 0x3b
 6297 15c0 0000 0000 		.long	.LASF301
 6298 15c4 01        		.byte	0x1
 6299 15c5 4E        		.byte	0x4e
 6300 15c6 6B00 0000 		.long	0x6b
 6301 15ca 01        		.byte	0x1
 6302 15cb 05        		.byte	0x5
 6303 15cc 03        		.byte	0x3
 6304 15cd 0000 0000 		.long	_pressedEscapeKeyCount
 6305 15d1 3B        		.uleb128 0x3b
 6306 15d2 0000 0000 		.long	.LASF302
 6307 15d6 01        		.byte	0x1
 6308 15d7 4F        		.byte	0x4f
 6309 15d8 7200 0000 		.long	0x72
 6310 15dc 01        		.byte	0x1
 6311 15dd 05        		.byte	0x5
 6312 15de 03        		.byte	0x3
 6313 15df 0000 0000 		.long	_isPressedEscapeKey
 6314 15e3 3B        		.uleb128 0x3b
 6315 15e4 0000 0000 		.long	.LASF303
 6316 15e8 01        		.byte	0x1
 6317 15e9 50        		.byte	0x50
 6318 15ea 7200 0000 		.long	0x72
 6319 15ee 01        		.byte	0x1
 6320 15ef 05        		.byte	0x5
 6321 15f0 03        		.byte	0x3
 6322 15f1 0000 0000 		.long	_isTiredEscapeKey
 6323 15f5 2A        		.uleb128 0x2a
 6324 15f6 7200 0000 		.long	0x72
 6325 15fa 0B16 0000 		.long	0x160b
 6326 15fe 2B        		.uleb128 0x2b
 6327 15ff 3608 0000 		.long	0x836
 6328 1603 10        		.byte	0x10
 6329 1604 2B        		.uleb128 0x2b
 6330 1605 3608 0000 		.long	0x836
 6331 1609 07        		.byte	0x7
 6332 160a 00        		.byte	0x0
 6333 160b 3B        		.uleb128 0x3b
GAS LISTING C:\Users\ADMINI~1\AppData\Local\Temp/ccEBF6mf.s 			page 114


 6334 160c 0000 0000 		.long	.LASF304
 6335 1610 01        		.byte	0x1
 6336 1611 5C        		.byte	0x5c
 6337 1612 F515 0000 		.long	0x15f5
 6338 1616 01        		.byte	0x1
 6339 1617 05        		.byte	0x5
 6340 1618 03        		.byte	0x3
 6341 1619 0000 0000 		.long	_newKeyMap
 6342 161d 00        		.byte	0x0
 6343               		.section	.debug_abbrev
 6344 0000 01        		.uleb128 0x1
 6345 0001 11        		.uleb128 0x11
 6346 0002 01        		.byte	0x1
 6347 0003 25        		.uleb128 0x25
 6348 0004 0E        		.uleb128 0xe
 6349 0005 13        		.uleb128 0x13
 6350 0006 0B        		.uleb128 0xb
 6351 0007 03        		.uleb128 0x3
 6352 0008 0E        		.uleb128 0xe
 6353 0009 1B        		.uleb128 0x1b
 6354 000a 0E        		.uleb128 0xe
 6355 000b 11        		.uleb128 0x11
 6356 000c 01        		.uleb128 0x1
 6357 000d 12        		.uleb128 0x12
 6358 000e 01        		.uleb128 0x1
 6359 000f 10        		.uleb128 0x10
 6360 0010 06        		.uleb128 0x6
 6361 0011 00        		.byte	0x0
 6362 0012 00        		.byte	0x0
 6363 0013 02        		.uleb128 0x2
 6364 0014 24        		.uleb128 0x24
 6365 0015 00        		.byte	0x0
 6366 0016 0B        		.uleb128 0xb
 6367 0017 0B        		.uleb128 0xb
 6368 0018 3E        		.uleb128 0x3e
 6369 0019 0B        		.uleb128 0xb
 6370 001a 03        		.uleb128 0x3
 6371 001b 0E        		.uleb128 0xe
 6372 001c 00        		.byte	0x0
 6373 001d 00        		.byte	0x0
 6374 001e 03        		.uleb128 0x3
 6375 001f 24        		.uleb128 0x24
 6376 0020 00        		.byte	0x0
 6377 0021 0B        		.uleb128 0xb
 6378 0022 0B        		.uleb128 0xb
 6379 0023 3E        		.uleb128 0x3e
 6380 0024 0B        		.uleb128 0xb
 6381 0025 03        		.uleb128 0x3
 6382 0026 08        		.uleb128 0x8
 6383 0027 00        		.byte	0x0
 6384 0028 00        		.byte	0x0
 6385 0029 04        		.uleb128 0x4
 6386 002a 16        		.uleb128 0x16
 6387 002b 00        		.byte	0x0
 6388 002c 03        		.uleb128 0x3
 6389 002d 0E        		.uleb128 0xe
 6390 002e 3A        		.uleb128 0x3a
GAS LISTING C:\Users\ADMINI~1\AppData\Local\Temp/ccEBF6mf.s 			page 115


 6391 002f 0B        		.uleb128 0xb
 6392 0030 3B        		.uleb128 0x3b
 6393 0031 0B        		.uleb128 0xb
 6394 0032 49        		.uleb128 0x49
 6395 0033 13        		.uleb128 0x13
 6396 0034 00        		.byte	0x0
 6397 0035 00        		.byte	0x0
 6398 0036 05        		.uleb128 0x5
 6399 0037 24        		.uleb128 0x24
 6400 0038 00        		.byte	0x0
 6401 0039 0B        		.uleb128 0xb
 6402 003a 0B        		.uleb128 0xb
 6403 003b 3E        		.uleb128 0x3e
 6404 003c 0B        		.uleb128 0xb
 6405 003d 00        		.byte	0x0
 6406 003e 00        		.byte	0x0
 6407 003f 06        		.uleb128 0x6
 6408 0040 0F        		.uleb128 0xf
 6409 0041 00        		.byte	0x0
 6410 0042 0B        		.uleb128 0xb
 6411 0043 0B        		.uleb128 0xb
 6412 0044 49        		.uleb128 0x49
 6413 0045 13        		.uleb128 0x13
 6414 0046 00        		.byte	0x0
 6415 0047 00        		.byte	0x0
 6416 0048 07        		.uleb128 0x7
 6417 0049 04        		.uleb128 0x4
 6418 004a 01        		.byte	0x1
 6419 004b 0B        		.uleb128 0xb
 6420 004c 0B        		.uleb128 0xb
 6421 004d 3A        		.uleb128 0x3a
 6422 004e 0B        		.uleb128 0xb
 6423 004f 3B        		.uleb128 0x3b
 6424 0050 0B        		.uleb128 0xb
 6425 0051 01        		.uleb128 0x1
 6426 0052 13        		.uleb128 0x13
 6427 0053 00        		.byte	0x0
 6428 0054 00        		.byte	0x0
 6429 0055 08        		.uleb128 0x8
 6430 0056 28        		.uleb128 0x28
 6431 0057 00        		.byte	0x0
 6432 0058 03        		.uleb128 0x3
 6433 0059 0E        		.uleb128 0xe
 6434 005a 1C        		.uleb128 0x1c
 6435 005b 0D        		.uleb128 0xd
 6436 005c 00        		.byte	0x0
 6437 005d 00        		.byte	0x0
 6438 005e 09        		.uleb128 0x9
 6439 005f 13        		.uleb128 0x13
 6440 0060 01        		.byte	0x1
 6441 0061 0B        		.uleb128 0xb
 6442 0062 0B        		.uleb128 0xb
 6443 0063 3A        		.uleb128 0x3a
 6444 0064 0B        		.uleb128 0xb
 6445 0065 3B        		.uleb128 0x3b
 6446 0066 0B        		.uleb128 0xb
 6447 0067 01        		.uleb128 0x1
GAS LISTING C:\Users\ADMINI~1\AppData\Local\Temp/ccEBF6mf.s 			page 116


 6448 0068 13        		.uleb128 0x13
 6449 0069 00        		.byte	0x0
 6450 006a 00        		.byte	0x0
 6451 006b 0A        		.uleb128 0xa
 6452 006c 0D        		.uleb128 0xd
 6453 006d 00        		.byte	0x0
 6454 006e 03        		.uleb128 0x3
 6455 006f 0E        		.uleb128 0xe
 6456 0070 3A        		.uleb128 0x3a
 6457 0071 0B        		.uleb128 0xb
 6458 0072 3B        		.uleb128 0x3b
 6459 0073 0B        		.uleb128 0xb
 6460 0074 49        		.uleb128 0x49
 6461 0075 13        		.uleb128 0x13
 6462 0076 38        		.uleb128 0x38
 6463 0077 0A        		.uleb128 0xa
 6464 0078 00        		.byte	0x0
 6465 0079 00        		.byte	0x0
 6466 007a 0B        		.uleb128 0xb
 6467 007b 16        		.uleb128 0x16
 6468 007c 00        		.byte	0x0
 6469 007d 03        		.uleb128 0x3
 6470 007e 08        		.uleb128 0x8
 6471 007f 3A        		.uleb128 0x3a
 6472 0080 0B        		.uleb128 0xb
 6473 0081 3B        		.uleb128 0x3b
 6474 0082 0B        		.uleb128 0xb
 6475 0083 49        		.uleb128 0x49
 6476 0084 13        		.uleb128 0x13
 6477 0085 00        		.byte	0x0
 6478 0086 00        		.byte	0x0
 6479 0087 0C        		.uleb128 0xc
 6480 0088 2E        		.uleb128 0x2e
 6481 0089 01        		.byte	0x1
 6482 008a 03        		.uleb128 0x3
 6483 008b 0E        		.uleb128 0xe
 6484 008c 3A        		.uleb128 0x3a
 6485 008d 0B        		.uleb128 0xb
 6486 008e 3B        		.uleb128 0x3b
 6487 008f 0B        		.uleb128 0xb
 6488 0090 27        		.uleb128 0x27
 6489 0091 0C        		.uleb128 0xc
 6490 0092 20        		.uleb128 0x20
 6491 0093 0B        		.uleb128 0xb
 6492 0094 01        		.uleb128 0x1
 6493 0095 13        		.uleb128 0x13
 6494 0096 00        		.byte	0x0
 6495 0097 00        		.byte	0x0
 6496 0098 0D        		.uleb128 0xd
 6497 0099 05        		.uleb128 0x5
 6498 009a 00        		.byte	0x0
 6499 009b 03        		.uleb128 0x3
 6500 009c 0E        		.uleb128 0xe
 6501 009d 3A        		.uleb128 0x3a
 6502 009e 0B        		.uleb128 0xb
 6503 009f 3B        		.uleb128 0x3b
 6504 00a0 0B        		.uleb128 0xb
GAS LISTING C:\Users\ADMINI~1\AppData\Local\Temp/ccEBF6mf.s 			page 117


 6505 00a1 49        		.uleb128 0x49
 6506 00a2 13        		.uleb128 0x13
 6507 00a3 00        		.byte	0x0
 6508 00a4 00        		.byte	0x0
 6509 00a5 0E        		.uleb128 0xe
 6510 00a6 2E        		.uleb128 0x2e
 6511 00a7 00        		.byte	0x0
 6512 00a8 3F        		.uleb128 0x3f
 6513 00a9 0C        		.uleb128 0xc
 6514 00aa 03        		.uleb128 0x3
 6515 00ab 0E        		.uleb128 0xe
 6516 00ac 3A        		.uleb128 0x3a
 6517 00ad 0B        		.uleb128 0xb
 6518 00ae 3B        		.uleb128 0x3b
 6519 00af 0B        		.uleb128 0xb
 6520 00b0 27        		.uleb128 0x27
 6521 00b1 0C        		.uleb128 0xc
 6522 00b2 49        		.uleb128 0x49
 6523 00b3 13        		.uleb128 0x13
 6524 00b4 20        		.uleb128 0x20
 6525 00b5 0B        		.uleb128 0xb
 6526 00b6 00        		.byte	0x0
 6527 00b7 00        		.byte	0x0
 6528 00b8 0F        		.uleb128 0xf
 6529 00b9 2E        		.uleb128 0x2e
 6530 00ba 01        		.byte	0x1
 6531 00bb 3F        		.uleb128 0x3f
 6532 00bc 0C        		.uleb128 0xc
 6533 00bd 03        		.uleb128 0x3
 6534 00be 0E        		.uleb128 0xe
 6535 00bf 3A        		.uleb128 0x3a
 6536 00c0 0B        		.uleb128 0xb
 6537 00c1 3B        		.uleb128 0x3b
 6538 00c2 05        		.uleb128 0x5
 6539 00c3 27        		.uleb128 0x27
 6540 00c4 0C        		.uleb128 0xc
 6541 00c5 49        		.uleb128 0x49
 6542 00c6 13        		.uleb128 0x13
 6543 00c7 20        		.uleb128 0x20
 6544 00c8 0B        		.uleb128 0xb
 6545 00c9 01        		.uleb128 0x1
 6546 00ca 13        		.uleb128 0x13
 6547 00cb 00        		.byte	0x0
 6548 00cc 00        		.byte	0x0
 6549 00cd 10        		.uleb128 0x10
 6550 00ce 05        		.uleb128 0x5
 6551 00cf 00        		.byte	0x0
 6552 00d0 03        		.uleb128 0x3
 6553 00d1 0E        		.uleb128 0xe
 6554 00d2 3A        		.uleb128 0x3a
 6555 00d3 0B        		.uleb128 0xb
 6556 00d4 3B        		.uleb128 0x3b
 6557 00d5 05        		.uleb128 0x5
 6558 00d6 49        		.uleb128 0x49
 6559 00d7 13        		.uleb128 0x13
 6560 00d8 00        		.byte	0x0
 6561 00d9 00        		.byte	0x0
GAS LISTING C:\Users\ADMINI~1\AppData\Local\Temp/ccEBF6mf.s 			page 118


 6562 00da 11        		.uleb128 0x11
 6563 00db 2E        		.uleb128 0x2e
 6564 00dc 00        		.byte	0x0
 6565 00dd 3F        		.uleb128 0x3f
 6566 00de 0C        		.uleb128 0xc
 6567 00df 03        		.uleb128 0x3
 6568 00e0 0E        		.uleb128 0xe
 6569 00e1 3A        		.uleb128 0x3a
 6570 00e2 0B        		.uleb128 0xb
 6571 00e3 3B        		.uleb128 0x3b
 6572 00e4 0B        		.uleb128 0xb
 6573 00e5 27        		.uleb128 0x27
 6574 00e6 0C        		.uleb128 0xc
 6575 00e7 20        		.uleb128 0x20
 6576 00e8 0B        		.uleb128 0xb
 6577 00e9 00        		.byte	0x0
 6578 00ea 00        		.byte	0x0
 6579 00eb 12        		.uleb128 0x12
 6580 00ec 34        		.uleb128 0x34
 6581 00ed 00        		.byte	0x0
 6582 00ee 03        		.uleb128 0x3
 6583 00ef 0E        		.uleb128 0xe
 6584 00f0 3A        		.uleb128 0x3a
 6585 00f1 0B        		.uleb128 0xb
 6586 00f2 3B        		.uleb128 0x3b
 6587 00f3 0B        		.uleb128 0xb
 6588 00f4 49        		.uleb128 0x49
 6589 00f5 13        		.uleb128 0x13
 6590 00f6 00        		.byte	0x0
 6591 00f7 00        		.byte	0x0
 6592 00f8 13        		.uleb128 0x13
 6593 00f9 0B        		.uleb128 0xb
 6594 00fa 00        		.byte	0x0
 6595 00fb 00        		.byte	0x0
 6596 00fc 00        		.byte	0x0
 6597 00fd 14        		.uleb128 0x14
 6598 00fe 2E        		.uleb128 0x2e
 6599 00ff 00        		.byte	0x0
 6600 0100 03        		.uleb128 0x3
 6601 0101 0E        		.uleb128 0xe
 6602 0102 3A        		.uleb128 0x3a
 6603 0103 0B        		.uleb128 0xb
 6604 0104 3B        		.uleb128 0x3b
 6605 0105 05        		.uleb128 0x5
 6606 0106 27        		.uleb128 0x27
 6607 0107 0C        		.uleb128 0xc
 6608 0108 20        		.uleb128 0x20
 6609 0109 0B        		.uleb128 0xb
 6610 010a 00        		.byte	0x0
 6611 010b 00        		.byte	0x0
 6612 010c 15        		.uleb128 0x15
 6613 010d 2E        		.uleb128 0x2e
 6614 010e 01        		.byte	0x1
 6615 010f 03        		.uleb128 0x3
 6616 0110 0E        		.uleb128 0xe
 6617 0111 3A        		.uleb128 0x3a
 6618 0112 0B        		.uleb128 0xb
GAS LISTING C:\Users\ADMINI~1\AppData\Local\Temp/ccEBF6mf.s 			page 119


 6619 0113 3B        		.uleb128 0x3b
 6620 0114 05        		.uleb128 0x5
 6621 0115 27        		.uleb128 0x27
 6622 0116 0C        		.uleb128 0xc
 6623 0117 49        		.uleb128 0x49
 6624 0118 13        		.uleb128 0x13
 6625 0119 20        		.uleb128 0x20
 6626 011a 0B        		.uleb128 0xb
 6627 011b 01        		.uleb128 0x1
 6628 011c 13        		.uleb128 0x13
 6629 011d 00        		.byte	0x0
 6630 011e 00        		.byte	0x0
 6631 011f 16        		.uleb128 0x16
 6632 0120 0B        		.uleb128 0xb
 6633 0121 01        		.byte	0x1
 6634 0122 00        		.byte	0x0
 6635 0123 00        		.byte	0x0
 6636 0124 17        		.uleb128 0x17
 6637 0125 34        		.uleb128 0x34
 6638 0126 00        		.byte	0x0
 6639 0127 03        		.uleb128 0x3
 6640 0128 0E        		.uleb128 0xe
 6641 0129 3A        		.uleb128 0x3a
 6642 012a 0B        		.uleb128 0xb
 6643 012b 3B        		.uleb128 0x3b
 6644 012c 05        		.uleb128 0x5
 6645 012d 49        		.uleb128 0x49
 6646 012e 13        		.uleb128 0x13
 6647 012f 00        		.byte	0x0
 6648 0130 00        		.byte	0x0
 6649 0131 18        		.uleb128 0x18
 6650 0132 05        		.uleb128 0x5
 6651 0133 00        		.byte	0x0
 6652 0134 31        		.uleb128 0x31
 6653 0135 13        		.uleb128 0x13
 6654 0136 00        		.byte	0x0
 6655 0137 00        		.byte	0x0
 6656 0138 19        		.uleb128 0x19
 6657 0139 2E        		.uleb128 0x2e
 6658 013a 00        		.byte	0x0
 6659 013b 03        		.uleb128 0x3
 6660 013c 0E        		.uleb128 0xe
 6661 013d 3A        		.uleb128 0x3a
 6662 013e 0B        		.uleb128 0xb
 6663 013f 3B        		.uleb128 0x3b
 6664 0140 0B        		.uleb128 0xb
 6665 0141 27        		.uleb128 0x27
 6666 0142 0C        		.uleb128 0xc
 6667 0143 20        		.uleb128 0x20
 6668 0144 0B        		.uleb128 0xb
 6669 0145 00        		.byte	0x0
 6670 0146 00        		.byte	0x0
 6671 0147 1A        		.uleb128 0x1a
 6672 0148 2E        		.uleb128 0x2e
 6673 0149 00        		.byte	0x0
 6674 014a 31        		.uleb128 0x31
 6675 014b 13        		.uleb128 0x13
GAS LISTING C:\Users\ADMINI~1\AppData\Local\Temp/ccEBF6mf.s 			page 120


 6676 014c 11        		.uleb128 0x11
 6677 014d 01        		.uleb128 0x1
 6678 014e 12        		.uleb128 0x12
 6679 014f 01        		.uleb128 0x1
 6680 0150 40        		.uleb128 0x40
 6681 0151 0A        		.uleb128 0xa
 6682 0152 00        		.byte	0x0
 6683 0153 00        		.byte	0x0
 6684 0154 1B        		.uleb128 0x1b
 6685 0155 2E        		.uleb128 0x2e
 6686 0156 01        		.byte	0x1
 6687 0157 3F        		.uleb128 0x3f
 6688 0158 0C        		.uleb128 0xc
 6689 0159 03        		.uleb128 0x3
 6690 015a 0E        		.uleb128 0xe
 6691 015b 3A        		.uleb128 0x3a
 6692 015c 0B        		.uleb128 0xb
 6693 015d 3B        		.uleb128 0x3b
 6694 015e 0B        		.uleb128 0xb
 6695 015f 27        		.uleb128 0x27
 6696 0160 0C        		.uleb128 0xc
 6697 0161 11        		.uleb128 0x11
 6698 0162 01        		.uleb128 0x1
 6699 0163 12        		.uleb128 0x12
 6700 0164 01        		.uleb128 0x1
 6701 0165 40        		.uleb128 0x40
 6702 0166 0A        		.uleb128 0xa
 6703 0167 01        		.uleb128 0x1
 6704 0168 13        		.uleb128 0x13
 6705 0169 00        		.byte	0x0
 6706 016a 00        		.byte	0x0
 6707 016b 1C        		.uleb128 0x1c
 6708 016c 05        		.uleb128 0x5
 6709 016d 00        		.byte	0x0
 6710 016e 03        		.uleb128 0x3
 6711 016f 0E        		.uleb128 0xe
 6712 0170 3A        		.uleb128 0x3a
 6713 0171 0B        		.uleb128 0xb
 6714 0172 3B        		.uleb128 0x3b
 6715 0173 0B        		.uleb128 0xb
 6716 0174 49        		.uleb128 0x49
 6717 0175 13        		.uleb128 0x13
 6718 0176 02        		.uleb128 0x2
 6719 0177 06        		.uleb128 0x6
 6720 0178 00        		.byte	0x0
 6721 0179 00        		.byte	0x0
 6722 017a 1D        		.uleb128 0x1d
 6723 017b 2E        		.uleb128 0x2e
 6724 017c 00        		.byte	0x0
 6725 017d 3F        		.uleb128 0x3f
 6726 017e 0C        		.uleb128 0xc
 6727 017f 03        		.uleb128 0x3
 6728 0180 0E        		.uleb128 0xe
 6729 0181 3A        		.uleb128 0x3a
 6730 0182 0B        		.uleb128 0xb
 6731 0183 3B        		.uleb128 0x3b
 6732 0184 0B        		.uleb128 0xb
GAS LISTING C:\Users\ADMINI~1\AppData\Local\Temp/ccEBF6mf.s 			page 121


 6733 0185 27        		.uleb128 0x27
 6734 0186 0C        		.uleb128 0xc
 6735 0187 49        		.uleb128 0x49
 6736 0188 13        		.uleb128 0x13
 6737 0189 11        		.uleb128 0x11
 6738 018a 01        		.uleb128 0x1
 6739 018b 12        		.uleb128 0x12
 6740 018c 01        		.uleb128 0x1
 6741 018d 40        		.uleb128 0x40
 6742 018e 0A        		.uleb128 0xa
 6743 018f 00        		.byte	0x0
 6744 0190 00        		.byte	0x0
 6745 0191 1E        		.uleb128 0x1e
 6746 0192 2E        		.uleb128 0x2e
 6747 0193 00        		.byte	0x0
 6748 0194 3F        		.uleb128 0x3f
 6749 0195 0C        		.uleb128 0xc
 6750 0196 03        		.uleb128 0x3
 6751 0197 0E        		.uleb128 0xe
 6752 0198 3A        		.uleb128 0x3a
 6753 0199 0B        		.uleb128 0xb
 6754 019a 3B        		.uleb128 0x3b
 6755 019b 0B        		.uleb128 0xb
 6756 019c 27        		.uleb128 0x27
 6757 019d 0C        		.uleb128 0xc
 6758 019e 11        		.uleb128 0x11
 6759 019f 01        		.uleb128 0x1
 6760 01a0 12        		.uleb128 0x12
 6761 01a1 01        		.uleb128 0x1
 6762 01a2 40        		.uleb128 0x40
 6763 01a3 0A        		.uleb128 0xa
 6764 01a4 00        		.byte	0x0
 6765 01a5 00        		.byte	0x0
 6766 01a6 1F        		.uleb128 0x1f
 6767 01a7 2E        		.uleb128 0x2e
 6768 01a8 01        		.byte	0x1
 6769 01a9 31        		.uleb128 0x31
 6770 01aa 13        		.uleb128 0x13
 6771 01ab 11        		.uleb128 0x11
 6772 01ac 01        		.uleb128 0x1
 6773 01ad 12        		.uleb128 0x12
 6774 01ae 01        		.uleb128 0x1
 6775 01af 40        		.uleb128 0x40
 6776 01b0 0A        		.uleb128 0xa
 6777 01b1 01        		.uleb128 0x1
 6778 01b2 13        		.uleb128 0x13
 6779 01b3 00        		.byte	0x0
 6780 01b4 00        		.byte	0x0
 6781 01b5 20        		.uleb128 0x20
 6782 01b6 05        		.uleb128 0x5
 6783 01b7 00        		.byte	0x0
 6784 01b8 31        		.uleb128 0x31
 6785 01b9 13        		.uleb128 0x13
 6786 01ba 02        		.uleb128 0x2
 6787 01bb 06        		.uleb128 0x6
 6788 01bc 00        		.byte	0x0
 6789 01bd 00        		.byte	0x0
GAS LISTING C:\Users\ADMINI~1\AppData\Local\Temp/ccEBF6mf.s 			page 122


 6790 01be 21        		.uleb128 0x21
 6791 01bf 1D        		.uleb128 0x1d
 6792 01c0 01        		.byte	0x1
 6793 01c1 31        		.uleb128 0x31
 6794 01c2 13        		.uleb128 0x13
 6795 01c3 11        		.uleb128 0x11
 6796 01c4 01        		.uleb128 0x1
 6797 01c5 12        		.uleb128 0x12
 6798 01c6 01        		.uleb128 0x1
 6799 01c7 58        		.uleb128 0x58
 6800 01c8 0B        		.uleb128 0xb
 6801 01c9 59        		.uleb128 0x59
 6802 01ca 05        		.uleb128 0x5
 6803 01cb 00        		.byte	0x0
 6804 01cc 00        		.byte	0x0
 6805 01cd 22        		.uleb128 0x22
 6806 01ce 2E        		.uleb128 0x2e
 6807 01cf 00        		.byte	0x0
 6808 01d0 03        		.uleb128 0x3
 6809 01d1 0E        		.uleb128 0xe
 6810 01d2 3A        		.uleb128 0x3a
 6811 01d3 0B        		.uleb128 0xb
 6812 01d4 3B        		.uleb128 0x3b
 6813 01d5 05        		.uleb128 0x5
 6814 01d6 27        		.uleb128 0x27
 6815 01d7 0C        		.uleb128 0xc
 6816 01d8 11        		.uleb128 0x11
 6817 01d9 01        		.uleb128 0x1
 6818 01da 12        		.uleb128 0x12
 6819 01db 01        		.uleb128 0x1
 6820 01dc 40        		.uleb128 0x40
 6821 01dd 0A        		.uleb128 0xa
 6822 01de 00        		.byte	0x0
 6823 01df 00        		.byte	0x0
 6824 01e0 23        		.uleb128 0x23
 6825 01e1 2E        		.uleb128 0x2e
 6826 01e2 00        		.byte	0x0
 6827 01e3 3F        		.uleb128 0x3f
 6828 01e4 0C        		.uleb128 0xc
 6829 01e5 03        		.uleb128 0x3
 6830 01e6 0E        		.uleb128 0xe
 6831 01e7 3A        		.uleb128 0x3a
 6832 01e8 0B        		.uleb128 0xb
 6833 01e9 3B        		.uleb128 0x3b
 6834 01ea 05        		.uleb128 0x5
 6835 01eb 27        		.uleb128 0x27
 6836 01ec 0C        		.uleb128 0xc
 6837 01ed 11        		.uleb128 0x11
 6838 01ee 01        		.uleb128 0x1
 6839 01ef 12        		.uleb128 0x12
 6840 01f0 01        		.uleb128 0x1
 6841 01f1 40        		.uleb128 0x40
 6842 01f2 0A        		.uleb128 0xa
 6843 01f3 00        		.byte	0x0
 6844 01f4 00        		.byte	0x0
 6845 01f5 24        		.uleb128 0x24
 6846 01f6 2E        		.uleb128 0x2e
GAS LISTING C:\Users\ADMINI~1\AppData\Local\Temp/ccEBF6mf.s 			page 123


 6847 01f7 01        		.byte	0x1
 6848 01f8 03        		.uleb128 0x3
 6849 01f9 0E        		.uleb128 0xe
 6850 01fa 3A        		.uleb128 0x3a
 6851 01fb 0B        		.uleb128 0xb
 6852 01fc 3B        		.uleb128 0x3b
 6853 01fd 05        		.uleb128 0x5
 6854 01fe 27        		.uleb128 0x27
 6855 01ff 0C        		.uleb128 0xc
 6856 0200 11        		.uleb128 0x11
 6857 0201 01        		.uleb128 0x1
 6858 0202 12        		.uleb128 0x12
 6859 0203 01        		.uleb128 0x1
 6860 0204 40        		.uleb128 0x40
 6861 0205 0A        		.uleb128 0xa
 6862 0206 01        		.uleb128 0x1
 6863 0207 13        		.uleb128 0x13
 6864 0208 00        		.byte	0x0
 6865 0209 00        		.byte	0x0
 6866 020a 25        		.uleb128 0x25
 6867 020b 05        		.uleb128 0x5
 6868 020c 00        		.byte	0x0
 6869 020d 03        		.uleb128 0x3
 6870 020e 0E        		.uleb128 0xe
 6871 020f 3A        		.uleb128 0x3a
 6872 0210 0B        		.uleb128 0xb
 6873 0211 3B        		.uleb128 0x3b
 6874 0212 05        		.uleb128 0x5
 6875 0213 49        		.uleb128 0x49
 6876 0214 13        		.uleb128 0x13
 6877 0215 02        		.uleb128 0x2
 6878 0216 06        		.uleb128 0x6
 6879 0217 00        		.byte	0x0
 6880 0218 00        		.byte	0x0
 6881 0219 26        		.uleb128 0x26
 6882 021a 34        		.uleb128 0x34
 6883 021b 00        		.byte	0x0
 6884 021c 03        		.uleb128 0x3
 6885 021d 08        		.uleb128 0x8
 6886 021e 3A        		.uleb128 0x3a
 6887 021f 0B        		.uleb128 0xb
 6888 0220 3B        		.uleb128 0x3b
 6889 0221 05        		.uleb128 0x5
 6890 0222 49        		.uleb128 0x49
 6891 0223 13        		.uleb128 0x13
 6892 0224 00        		.byte	0x0
 6893 0225 00        		.byte	0x0
 6894 0226 27        		.uleb128 0x27
 6895 0227 34        		.uleb128 0x34
 6896 0228 00        		.byte	0x0
 6897 0229 03        		.uleb128 0x3
 6898 022a 0E        		.uleb128 0xe
 6899 022b 3A        		.uleb128 0x3a
 6900 022c 0B        		.uleb128 0xb
 6901 022d 3B        		.uleb128 0x3b
 6902 022e 05        		.uleb128 0x5
 6903 022f 49        		.uleb128 0x49
GAS LISTING C:\Users\ADMINI~1\AppData\Local\Temp/ccEBF6mf.s 			page 124


 6904 0230 13        		.uleb128 0x13
 6905 0231 02        		.uleb128 0x2
 6906 0232 0A        		.uleb128 0xa
 6907 0233 00        		.byte	0x0
 6908 0234 00        		.byte	0x0
 6909 0235 28        		.uleb128 0x28
 6910 0236 34        		.uleb128 0x34
 6911 0237 00        		.byte	0x0
 6912 0238 03        		.uleb128 0x3
 6913 0239 08        		.uleb128 0x8
 6914 023a 3A        		.uleb128 0x3a
 6915 023b 0B        		.uleb128 0xb
 6916 023c 3B        		.uleb128 0x3b
 6917 023d 05        		.uleb128 0x5
 6918 023e 49        		.uleb128 0x49
 6919 023f 13        		.uleb128 0x13
 6920 0240 02        		.uleb128 0x2
 6921 0241 06        		.uleb128 0x6
 6922 0242 00        		.byte	0x0
 6923 0243 00        		.byte	0x0
 6924 0244 29        		.uleb128 0x29
 6925 0245 26        		.uleb128 0x26
 6926 0246 00        		.byte	0x0
 6927 0247 49        		.uleb128 0x49
 6928 0248 13        		.uleb128 0x13
 6929 0249 00        		.byte	0x0
 6930 024a 00        		.byte	0x0
 6931 024b 2A        		.uleb128 0x2a
 6932 024c 01        		.uleb128 0x1
 6933 024d 01        		.byte	0x1
 6934 024e 49        		.uleb128 0x49
 6935 024f 13        		.uleb128 0x13
 6936 0250 01        		.uleb128 0x1
 6937 0251 13        		.uleb128 0x13
 6938 0252 00        		.byte	0x0
 6939 0253 00        		.byte	0x0
 6940 0254 2B        		.uleb128 0x2b
 6941 0255 21        		.uleb128 0x21
 6942 0256 00        		.byte	0x0
 6943 0257 49        		.uleb128 0x49
 6944 0258 13        		.uleb128 0x13
 6945 0259 2F        		.uleb128 0x2f
 6946 025a 0B        		.uleb128 0xb
 6947 025b 00        		.byte	0x0
 6948 025c 00        		.byte	0x0
 6949 025d 2C        		.uleb128 0x2c
 6950 025e 05        		.uleb128 0x5
 6951 025f 00        		.byte	0x0
 6952 0260 03        		.uleb128 0x3
 6953 0261 08        		.uleb128 0x8
 6954 0262 3A        		.uleb128 0x3a
 6955 0263 0B        		.uleb128 0xb
 6956 0264 3B        		.uleb128 0x3b
 6957 0265 05        		.uleb128 0x5
 6958 0266 49        		.uleb128 0x49
 6959 0267 13        		.uleb128 0x13
 6960 0268 02        		.uleb128 0x2
GAS LISTING C:\Users\ADMINI~1\AppData\Local\Temp/ccEBF6mf.s 			page 125


 6961 0269 06        		.uleb128 0x6
 6962 026a 00        		.byte	0x0
 6963 026b 00        		.byte	0x0
 6964 026c 2D        		.uleb128 0x2d
 6965 026d 0B        		.uleb128 0xb
 6966 026e 01        		.byte	0x1
 6967 026f 11        		.uleb128 0x11
 6968 0270 01        		.uleb128 0x1
 6969 0271 12        		.uleb128 0x12
 6970 0272 01        		.uleb128 0x1
 6971 0273 00        		.byte	0x0
 6972 0274 00        		.byte	0x0
 6973 0275 2E        		.uleb128 0x2e
 6974 0276 34        		.uleb128 0x34
 6975 0277 00        		.byte	0x0
 6976 0278 03        		.uleb128 0x3
 6977 0279 0E        		.uleb128 0xe
 6978 027a 3A        		.uleb128 0x3a
 6979 027b 0B        		.uleb128 0xb
 6980 027c 3B        		.uleb128 0x3b
 6981 027d 05        		.uleb128 0x5
 6982 027e 49        		.uleb128 0x49
 6983 027f 13        		.uleb128 0x13
 6984 0280 02        		.uleb128 0x2
 6985 0281 06        		.uleb128 0x6
 6986 0282 00        		.byte	0x0
 6987 0283 00        		.byte	0x0
 6988 0284 2F        		.uleb128 0x2f
 6989 0285 2E        		.uleb128 0x2e
 6990 0286 01        		.byte	0x1
 6991 0287 3F        		.uleb128 0x3f
 6992 0288 0C        		.uleb128 0xc
 6993 0289 03        		.uleb128 0x3
 6994 028a 0E        		.uleb128 0xe
 6995 028b 3A        		.uleb128 0x3a
 6996 028c 0B        		.uleb128 0xb
 6997 028d 3B        		.uleb128 0x3b
 6998 028e 05        		.uleb128 0x5
 6999 028f 27        		.uleb128 0x27
 7000 0290 0C        		.uleb128 0xc
 7001 0291 11        		.uleb128 0x11
 7002 0292 01        		.uleb128 0x1
 7003 0293 12        		.uleb128 0x12
 7004 0294 01        		.uleb128 0x1
 7005 0295 40        		.uleb128 0x40
 7006 0296 0A        		.uleb128 0xa
 7007 0297 01        		.uleb128 0x1
 7008 0298 13        		.uleb128 0x13
 7009 0299 00        		.byte	0x0
 7010 029a 00        		.byte	0x0
 7011 029b 30        		.uleb128 0x30
 7012 029c 1D        		.uleb128 0x1d
 7013 029d 00        		.byte	0x0
 7014 029e 31        		.uleb128 0x31
 7015 029f 13        		.uleb128 0x13
 7016 02a0 11        		.uleb128 0x11
 7017 02a1 01        		.uleb128 0x1
GAS LISTING C:\Users\ADMINI~1\AppData\Local\Temp/ccEBF6mf.s 			page 126


 7018 02a2 12        		.uleb128 0x12
 7019 02a3 01        		.uleb128 0x1
 7020 02a4 58        		.uleb128 0x58
 7021 02a5 0B        		.uleb128 0xb
 7022 02a6 59        		.uleb128 0x59
 7023 02a7 05        		.uleb128 0x5
 7024 02a8 00        		.byte	0x0
 7025 02a9 00        		.byte	0x0
 7026 02aa 31        		.uleb128 0x31
 7027 02ab 34        		.uleb128 0x34
 7028 02ac 00        		.byte	0x0
 7029 02ad 31        		.uleb128 0x31
 7030 02ae 13        		.uleb128 0x13
 7031 02af 02        		.uleb128 0x2
 7032 02b0 0A        		.uleb128 0xa
 7033 02b1 00        		.byte	0x0
 7034 02b2 00        		.byte	0x0
 7035 02b3 32        		.uleb128 0x32
 7036 02b4 34        		.uleb128 0x34
 7037 02b5 00        		.byte	0x0
 7038 02b6 31        		.uleb128 0x31
 7039 02b7 13        		.uleb128 0x13
 7040 02b8 00        		.byte	0x0
 7041 02b9 00        		.byte	0x0
 7042 02ba 33        		.uleb128 0x33
 7043 02bb 1D        		.uleb128 0x1d
 7044 02bc 01        		.byte	0x1
 7045 02bd 31        		.uleb128 0x31
 7046 02be 13        		.uleb128 0x13
 7047 02bf 11        		.uleb128 0x11
 7048 02c0 01        		.uleb128 0x1
 7049 02c1 12        		.uleb128 0x12
 7050 02c2 01        		.uleb128 0x1
 7051 02c3 58        		.uleb128 0x58
 7052 02c4 0B        		.uleb128 0xb
 7053 02c5 59        		.uleb128 0x59
 7054 02c6 0B        		.uleb128 0xb
 7055 02c7 00        		.byte	0x0
 7056 02c8 00        		.byte	0x0
 7057 02c9 34        		.uleb128 0x34
 7058 02ca 05        		.uleb128 0x5
 7059 02cb 00        		.byte	0x0
 7060 02cc 31        		.uleb128 0x31
 7061 02cd 13        		.uleb128 0x13
 7062 02ce 02        		.uleb128 0x2
 7063 02cf 0A        		.uleb128 0xa
 7064 02d0 00        		.byte	0x0
 7065 02d1 00        		.byte	0x0
 7066 02d2 35        		.uleb128 0x35
 7067 02d3 1D        		.uleb128 0x1d
 7068 02d4 01        		.byte	0x1
 7069 02d5 31        		.uleb128 0x31
 7070 02d6 13        		.uleb128 0x13
 7071 02d7 11        		.uleb128 0x11
 7072 02d8 01        		.uleb128 0x1
 7073 02d9 12        		.uleb128 0x12
 7074 02da 01        		.uleb128 0x1
GAS LISTING C:\Users\ADMINI~1\AppData\Local\Temp/ccEBF6mf.s 			page 127


 7075 02db 58        		.uleb128 0x58
 7076 02dc 0B        		.uleb128 0xb
 7077 02dd 59        		.uleb128 0x59
 7078 02de 05        		.uleb128 0x5
 7079 02df 01        		.uleb128 0x1
 7080 02e0 13        		.uleb128 0x13
 7081 02e1 00        		.byte	0x0
 7082 02e2 00        		.byte	0x0
 7083 02e3 36        		.uleb128 0x36
 7084 02e4 34        		.uleb128 0x34
 7085 02e5 00        		.byte	0x0
 7086 02e6 31        		.uleb128 0x31
 7087 02e7 13        		.uleb128 0x13
 7088 02e8 02        		.uleb128 0x2
 7089 02e9 06        		.uleb128 0x6
 7090 02ea 00        		.byte	0x0
 7091 02eb 00        		.byte	0x0
 7092 02ec 37        		.uleb128 0x37
 7093 02ed 2E        		.uleb128 0x2e
 7094 02ee 01        		.byte	0x1
 7095 02ef 3F        		.uleb128 0x3f
 7096 02f0 0C        		.uleb128 0xc
 7097 02f1 03        		.uleb128 0x3
 7098 02f2 0E        		.uleb128 0xe
 7099 02f3 3A        		.uleb128 0x3a
 7100 02f4 0B        		.uleb128 0xb
 7101 02f5 3B        		.uleb128 0x3b
 7102 02f6 05        		.uleb128 0x5
 7103 02f7 27        		.uleb128 0x27
 7104 02f8 0C        		.uleb128 0xc
 7105 02f9 49        		.uleb128 0x49
 7106 02fa 13        		.uleb128 0x13
 7107 02fb 11        		.uleb128 0x11
 7108 02fc 01        		.uleb128 0x1
 7109 02fd 12        		.uleb128 0x12
 7110 02fe 01        		.uleb128 0x1
 7111 02ff 40        		.uleb128 0x40
 7112 0300 0A        		.uleb128 0xa
 7113 0301 01        		.uleb128 0x1
 7114 0302 13        		.uleb128 0x13
 7115 0303 00        		.byte	0x0
 7116 0304 00        		.byte	0x0
 7117 0305 38        		.uleb128 0x38
 7118 0306 1D        		.uleb128 0x1d
 7119 0307 00        		.byte	0x0
 7120 0308 31        		.uleb128 0x31
 7121 0309 13        		.uleb128 0x13
 7122 030a 11        		.uleb128 0x11
 7123 030b 01        		.uleb128 0x1
 7124 030c 12        		.uleb128 0x12
 7125 030d 01        		.uleb128 0x1
 7126 030e 58        		.uleb128 0x58
 7127 030f 0B        		.uleb128 0xb
 7128 0310 59        		.uleb128 0x59
 7129 0311 0B        		.uleb128 0xb
 7130 0312 00        		.byte	0x0
 7131 0313 00        		.byte	0x0
GAS LISTING C:\Users\ADMINI~1\AppData\Local\Temp/ccEBF6mf.s 			page 128


 7132 0314 39        		.uleb128 0x39
 7133 0315 34        		.uleb128 0x34
 7134 0316 00        		.byte	0x0
 7135 0317 03        		.uleb128 0x3
 7136 0318 0E        		.uleb128 0xe
 7137 0319 3A        		.uleb128 0x3a
 7138 031a 0B        		.uleb128 0xb
 7139 031b 3B        		.uleb128 0x3b
 7140 031c 0B        		.uleb128 0xb
 7141 031d 49        		.uleb128 0x49
 7142 031e 13        		.uleb128 0x13
 7143 031f 02        		.uleb128 0x2
 7144 0320 0A        		.uleb128 0xa
 7145 0321 00        		.byte	0x0
 7146 0322 00        		.byte	0x0
 7147 0323 3A        		.uleb128 0x3a
 7148 0324 34        		.uleb128 0x34
 7149 0325 00        		.byte	0x0
 7150 0326 03        		.uleb128 0x3
 7151 0327 0E        		.uleb128 0xe
 7152 0328 3A        		.uleb128 0x3a
 7153 0329 0B        		.uleb128 0xb
 7154 032a 3B        		.uleb128 0x3b
 7155 032b 0B        		.uleb128 0xb
 7156 032c 49        		.uleb128 0x49
 7157 032d 13        		.uleb128 0x13
 7158 032e 3F        		.uleb128 0x3f
 7159 032f 0C        		.uleb128 0xc
 7160 0330 3C        		.uleb128 0x3c
 7161 0331 0C        		.uleb128 0xc
 7162 0332 00        		.byte	0x0
 7163 0333 00        		.byte	0x0
 7164 0334 3B        		.uleb128 0x3b
 7165 0335 34        		.uleb128 0x34
 7166 0336 00        		.byte	0x0
 7167 0337 03        		.uleb128 0x3
 7168 0338 0E        		.uleb128 0xe
 7169 0339 3A        		.uleb128 0x3a
 7170 033a 0B        		.uleb128 0xb
 7171 033b 3B        		.uleb128 0x3b
 7172 033c 0B        		.uleb128 0xb
 7173 033d 49        		.uleb128 0x49
 7174 033e 13        		.uleb128 0x13
 7175 033f 3F        		.uleb128 0x3f
 7176 0340 0C        		.uleb128 0xc
 7177 0341 02        		.uleb128 0x2
 7178 0342 0A        		.uleb128 0xa
 7179 0343 00        		.byte	0x0
 7180 0344 00        		.byte	0x0
 7181 0345 00        		.byte	0x0
 7182               		.section	.debug_pubnames,"",@progbits
 7183 0000 2906 0000 		.long	0x629
 7184 0004 0200      		.word	0x2
 7185 0006 0000 0000 		.long	.Ldebug_info0
 7186 000a 1E16 0000 		.long	0x161e
 7187 000e 6306 0000 		.long	0x663
 7188 0012 7365 7457 		.string	"setWillStartKeyMapping"
GAS LISTING C:\Users\ADMINI~1\AppData\Local\Temp/ccEBF6mf.s 			page 129


 7188      696C 6C53 
 7188      7461 7274 
 7188      4B65 794D 
 7188      6170 7069 
 7189 0029 7306 0000 		.long	0x673
 7190 002d 6973 4B65 		.string	"isKeyMapping"
 7190      794D 6170 
 7190      7069 6E67 
 7190      00
 7191 003a 8306 0000 		.long	0x683
 7192 003e 6973 4465 		.string	"isDeepKeyMapping"
 7192      6570 4B65 
 7192      794D 6170 
 7192      7069 6E67 
 7192      00
 7193 004f 9306 0000 		.long	0x693
 7194 0053 6170 706C 		.string	"applyKeyMapping"
 7194      794B 6579 
 7194      4D61 7070 
 7194      696E 6700 
 7195 0063 BB06 0000 		.long	0x6bb
 7196 0067 6973 5265 		.string	"isReadyKeyMappingOnBoot"
 7196      6164 794B 
 7196      6579 4D61 
 7196      7070 696E 
 7196      674F 6E42 
 7197 007f D306 0000 		.long	0x6d3
 7198 0083 7265 6164 		.string	"readyKeyMappingOnBoot"
 7198      794B 6579 
 7198      4D61 7070 
 7198      696E 674F 
 7198      6E42 6F6F 
 7199 0099 E706 0000 		.long	0x6e7
 7200 009d 7365 7454 		.string	"setToBootMapper"
 7200      6F42 6F6F 
 7200      744D 6170 
 7200      7065 7200 
 7201 00ad FB06 0000 		.long	0x6fb
 7202 00b1 6973 426F 		.string	"isBootMapper"
 7202      6F74 4D61 
 7202      7070 6572 
 7202      00
 7203 00be 0B07 0000 		.long	0x70b
 7204 00c2 7374 6F70 		.string	"stopKeyMapping"
 7204      4B65 794D 
 7204      6170 7069 
 7204      6E67 00
 7205 00d1 1B07 0000 		.long	0x71b
 7206 00d5 6973 4D61 		.string	"isMacroKey"
 7206      6372 6F4B 
 7206      6579 00
 7207 00e0 3907 0000 		.long	0x739
 7208 00e4 6573 6361 		.string	"escapeMacroKeycode"
 7208      7065 4D61 
 7208      6372 6F4B 
 7208      6579 636F 
 7208      6465 00
GAS LISTING C:\Users\ADMINI~1\AppData\Local\Temp/ccEBF6mf.s 			page 130


 7209 00f7 8107 0000 		.long	0x781
 7210 00fb 7265 7365 		.string	"resetMacroInput"
 7210      744D 6163 
 7210      726F 496E 
 7210      7075 7400 
 7211 010b 3908 0000 		.long	0x839
 7212 010f 7472 6163 		.string	"trace"
 7212      6500 
 7213 0115 E008 0000 		.long	0x8e0
 7214 0119 7265 7365 		.string	"resetCurrentLayer"
 7214      7443 7572 
 7214      7265 6E74 
 7214      4C61 7965 
 7214      7200 
 7215 012b 0E09 0000 		.long	0x90e
 7216 012f 636C 6561 		.string	"clearMacro"
 7216      724D 6163 
 7216      726F 00
 7217 013a 2309 0000 		.long	0x923
 7218 013e 7361 7665 		.string	"saveCurrentLayer"
 7218      4375 7272 
 7218      656E 744C 
 7218      6179 6572 
 7218      00
 7219 014f 4D09 0000 		.long	0x94d
 7220 0153 7072 696E 		.string	"printPrepareString"
 7220      7450 7265 
 7220      7061 7265 
 7220      5374 7269 
 7220      6E67 00
 7221 0166 6209 0000 		.long	0x962
 7222 016a 7072 696E 		.string	"printMacroMessage"
 7222      744D 6163 
 7222      726F 4D65 
 7222      7373 6167 
 7222      6500 
 7223 017c DD09 0000 		.long	0x9dd
 7224 0180 7072 696E 		.string	"printSelectMode"
 7224      7453 656C 
 7224      6563 744D 
 7224      6F64 6500 
 7225 0190 F209 0000 		.long	0x9f2
 7226 0194 7072 696E 		.string	"printMapperMessageAfter"
 7226      744D 6170 
 7226      7065 724D 
 7226      6573 7361 
 7226      6765 4166 
 7227 01ac 070A 0000 		.long	0xa07
 7228 01b0 636C 6561 		.string	"clearMacroAfter"
 7228      724D 6163 
 7228      726F 4166 
 7228      7465 7200 
 7229 01c0 370A 0000 		.long	0xa37
 7230 01c4 7361 7665 		.string	"saveMacro"
 7230      4D61 6372 
 7230      6F00 
 7231 01ce 8F0A 0000 		.long	0xa8f
GAS LISTING C:\Users\ADMINI~1\AppData\Local\Temp/ccEBF6mf.s 			page 131


 7232 01d2 7265 6164 		.string	"readMacro"
 7232      4D61 6372 
 7232      6F00 
 7233 01dc EB0A 0000 		.long	0xaeb
 7234 01e0 6C6F 6164 		.string	"loadCurrentLayer"
 7234      4375 7272 
 7234      656E 744C 
 7234      6179 6572 
 7234      00
 7235 01f1 250B 0000 		.long	0xb25
 7236 01f5 7075 744B 		.string	"putKeyCode"
 7236      6579 436F 
 7236      6465 00
 7237 0200 E80C 0000 		.long	0xce8
 7238 0204 7361 7665 		.string	"saveCurrentLayerAfter"
 7238      4375 7272 
 7238      656E 744C 
 7238      6179 6572 
 7238      4166 7465 
 7239 021a 3E0D 0000 		.long	0xd3e
 7240 021e 7072 6570 		.string	"prepareKeyMapper"
 7240      6172 654B 
 7240      6579 4D61 
 7240      7070 6572 
 7240      00
 7241 022f 530D 0000 		.long	0xd53
 7242 0233 6765 7443 		.string	"getCurrentKeycode"
 7242      7572 7265 
 7242      6E74 4B65 
 7242      7963 6F64 
 7242      6500 
 7243 0245 070E 0000 		.long	0xe07
 7244 0249 6170 706C 		.string	"applyMacro"
 7244      794D 6163 
 7244      726F 00
 7245 0254 570E 0000 		.long	0xe57
 7246 0258 7374 6172 		.string	"startKeyMapping"
 7246      744B 6579 
 7246      4D61 7070 
 7246      696E 6700 
 7247 0268 8E0E 0000 		.long	0xe8e
 7248 026c 7072 6570 		.string	"prepareKeyMapping"
 7248      6172 654B 
 7248      6579 4D61 
 7248      7070 696E 
 7248      6700 
 7249 027e B60E 0000 		.long	0xeb6
 7250 0282 636F 756E 		.string	"countKeyMappingEnabled"
 7250      744B 6579 
 7250      4D61 7070 
 7250      696E 6745 
 7250      6E61 626C 
 7251 0299 CA0E 0000 		.long	0xeca
 7252 029d 656E 7465 		.string	"enterFrameForMapper"
 7252      7246 7261 
 7252      6D65 466F 
 7252      724D 6170 
GAS LISTING C:\Users\ADMINI~1\AppData\Local\Temp/ccEBF6mf.s 			page 132


 7252      7065 7200 
 7253 02b1 DE0E 0000 		.long	0xede
 7254 02b5 7374 6172 		.string	"startKeyMappingOnBoot"
 7254      744B 6579 
 7254      4D61 7070 
 7254      696E 674F 
 7254      6E42 6F6F 
 7255 02cb B210 0000 		.long	0x10b2
 7256 02cf 7374 725F 		.string	"str_select_mode"
 7256      7365 6C65 
 7256      6374 5F6D 
 7256      6F64 6500 
 7257 02df D910 0000 		.long	0x10d9
 7258 02e3 7374 725F 		.string	"str_select_mode1"
 7258      7365 6C65 
 7258      6374 5F6D 
 7258      6F64 6531 
 7258      00
 7259 02f4 0011 0000 		.long	0x1100
 7260 02f8 7374 725F 		.string	"str_select_mode2"
 7260      7365 6C65 
 7260      6374 5F6D 
 7260      6F64 6532 
 7260      00
 7261 0309 2711 0000 		.long	0x1127
 7262 030d 7374 725F 		.string	"str_select_mode3"
 7262      7365 6C65 
 7262      6374 5F6D 
 7262      6F64 6533 
 7262      00
 7263 031e 4E11 0000 		.long	0x114e
 7264 0322 7374 725F 		.string	"str_exit"
 7264      6578 6974 
 7264      00
 7265 032b 7511 0000 		.long	0x1175
 7266 032f 7374 725F 		.string	"str_macro_message"
 7266      6D61 6372 
 7266      6F5F 6D65 
 7266      7373 6167 
 7266      6500 
 7267 0341 9C11 0000 		.long	0x119c
 7268 0345 7374 725F 		.string	"str_macro_1"
 7268      6D61 6372 
 7268      6F5F 3100 
 7269 0351 B311 0000 		.long	0x11b3
 7270 0355 7374 725F 		.string	"str_macro_2"
 7270      6D61 6372 
 7270      6F5F 3200 
 7271 0361 CA11 0000 		.long	0x11ca
 7272 0365 7374 725F 		.string	"str_macro_9"
 7272      6D61 6372 
 7272      6F5F 3900 
 7273 0371 E111 0000 		.long	0x11e1
 7274 0375 7374 725F 		.string	"str_back_6"
 7274      6261 636B 
 7274      5F36 00
 7275 0380 0812 0000 		.long	0x1208
GAS LISTING C:\Users\ADMINI~1\AppData\Local\Temp/ccEBF6mf.s 			page 133


 7276 0384 7374 725F 		.string	"str_mapper_message"
 7276      6D61 7070 
 7276      6572 5F6D 
 7276      6573 7361 
 7276      6765 00
 7277 0397 2F12 0000 		.long	0x122f
 7278 039b 7374 725F 		.string	"str_mapper_1"
 7278      6D61 7070 
 7278      6572 5F31 
 7278      00
 7279 03a8 5612 0000 		.long	0x1256
 7280 03ac 7374 725F 		.string	"str_mapper_2"
 7280      6D61 7070 
 7280      6572 5F32 
 7280      00
 7281 03b9 7D12 0000 		.long	0x127d
 7282 03bd 7374 725F 		.string	"str_mapper_3"
 7282      6D61 7070 
 7282      6572 5F33 
 7282      00
 7283 03ca A412 0000 		.long	0x12a4
 7284 03ce 7374 725F 		.string	"str_mapper_4"
 7284      6D61 7070 
 7284      6572 5F34 
 7284      00
 7285 03db CB12 0000 		.long	0x12cb
 7286 03df 7374 725F 		.string	"str_mapper_9"
 7286      6D61 7070 
 7286      6572 5F39 
 7286      00
 7287 03ec E212 0000 		.long	0x12e2
 7288 03f0 7374 725F 		.string	"str_prepare_message"
 7288      7072 6570 
 7288      6172 655F 
 7288      6D65 7373 
 7288      6167 6500 
 7289 0404 0913 0000 		.long	0x1309
 7290 0408 7374 725F 		.string	"str_choose_layer"
 7290      6368 6F6F 
 7290      7365 5F6C 
 7290      6179 6572 
 7290      00
 7291 0419 3013 0000 		.long	0x1330
 7292 041d 7374 725F 		.string	"str_choose_key"
 7292      6368 6F6F 
 7292      7365 5F6B 
 7292      6579 00
 7293 042c 5713 0000 		.long	0x1357
 7294 0430 7374 725F 		.string	"str_input_keycode"
 7294      696E 7075 
 7294      745F 6B65 
 7294      7963 6F64 
 7294      6500 
 7295 0442 7E13 0000 		.long	0x137e
 7296 0446 7374 725F 		.string	"str_save_end_mapping"
 7296      7361 7665 
 7296      5F65 6E64 
GAS LISTING C:\Users\ADMINI~1\AppData\Local\Temp/ccEBF6mf.s 			page 134


 7296      5F6D 6170 
 7296      7069 6E67 
 7297 045b A513 0000 		.long	0x13a5
 7298 045f 7374 725F 		.string	"str_cancel_mapping"
 7298      6361 6E63 
 7298      656C 5F6D 
 7298      6170 7069 
 7298      6E67 00
 7299 0472 BC13 0000 		.long	0x13bc
 7300 0476 7374 725F 		.string	"str_reset_mapping"
 7300      7265 7365 
 7300      745F 6D61 
 7300      7070 696E 
 7300      6700 
 7301 0488 E313 0000 		.long	0x13e3
 7302 048c 7374 725F 		.string	"str_input_command"
 7302      696E 7075 
 7302      745F 636F 
 7302      6D6D 616E 
 7302      6400 
 7303 049e FA13 0000 		.long	0x13fa
 7304 04a2 7374 725F 		.string	"str_nothing"
 7304      6E6F 7468 
 7304      696E 6700 
 7305 04ae 2114 0000 		.long	0x1421
 7306 04b2 7374 725F 		.string	"str_save_layer"
 7306      7361 7665 
 7306      5F6C 6179 
 7306      6572 00
 7307 04c1 3814 0000 		.long	0x1438
 7308 04c5 7374 725F 		.string	"str_load_layer"
 7308      6C6F 6164 
 7308      5F6C 6179 
 7308      6572 00
 7309 04d4 4F14 0000 		.long	0x144f
 7310 04d8 7374 725F 		.string	"str_saving"
 7310      7361 7669 
 7310      6E67 00
 7311 04e3 6614 0000 		.long	0x1466
 7312 04e7 7374 725F 		.string	"str_col_row"
 7312      636F 6C5F 
 7312      726F 7700 
 7313 04f3 8D14 0000 		.long	0x148d
 7314 04f7 7374 725F 		.string	"str_invalid_keycode"
 7314      696E 7661 
 7314      6C69 645F 
 7314      6B65 7963 
 7314      6F64 6500 
 7315 050b B414 0000 		.long	0x14b4
 7316 050f 7374 725F 		.string	"str_select_number"
 7316      7365 6C65 
 7316      6374 5F6E 
 7316      756D 6265 
 7316      7200 
 7317 0521 DB14 0000 		.long	0x14db
 7318 0525 7374 725F 		.string	"str_exit_macro"
 7318      6578 6974 
GAS LISTING C:\Users\ADMINI~1\AppData\Local\Temp/ccEBF6mf.s 			page 135


 7318      5F6D 6163 
 7318      726F 00
 7319 0534 0215 0000 		.long	0x1502
 7320 0538 7374 725F 		.string	"str_input_macro"
 7320      696E 7075 
 7320      745F 6D61 
 7320      6372 6F00 
 7321 0548 2915 0000 		.long	0x1529
 7322 054c 7374 725F 		.string	"str_invalid_macro_number"
 7322      696E 7661 
 7322      6C69 645F 
 7322      6D61 6372 
 7322      6F5F 6E75 
 7323 0565 5015 0000 		.long	0x1550
 7324 0569 7374 725F 		.string	"str_clear_all_macro"
 7324      636C 6561 
 7324      725F 616C 
 7324      6C5F 6D61 
 7324      6372 6F00 
 7325 057d 6715 0000 		.long	0x1567
 7326 0581 5F6D 6163 		.string	"_macroIndex"
 7326      726F 496E 
 7326      6465 7800 
 7327 058d 7915 0000 		.long	0x1579
 7328 0591 5F6D 6163 		.string	"_macroBufferIndex"
 7328      726F 4275 
 7328      6666 6572 
 7328      496E 6465 
 7328      7800 
 7329 05a3 9B15 0000 		.long	0x159b
 7330 05a7 5F6D 6163 		.string	"_macroPressedBuffer"
 7330      726F 5072 
 7330      6573 7365 
 7330      6442 7566 
 7330      6665 7200 
 7331 05bb AD15 0000 		.long	0x15ad
 7332 05bf 5F6D 6163 		.string	"_macroInputBuffer"
 7332      726F 496E 
 7332      7075 7442 
 7332      7566 6665 
 7332      7200 
 7333 05d1 BF15 0000 		.long	0x15bf
 7334 05d5 5F70 7265 		.string	"_pressedEscapeKeyCount"
 7334      7373 6564 
 7334      4573 6361 
 7334      7065 4B65 
 7334      7943 6F75 
 7335 05ec D115 0000 		.long	0x15d1
 7336 05f0 5F69 7350 		.string	"_isPressedEscapeKey"
 7336      7265 7373 
 7336      6564 4573 
 7336      6361 7065 
 7336      4B65 7900 
 7337 0604 E315 0000 		.long	0x15e3
 7338 0608 5F69 7354 		.string	"_isTiredEscapeKey"
 7338      6972 6564 
 7338      4573 6361 
GAS LISTING C:\Users\ADMINI~1\AppData\Local\Temp/ccEBF6mf.s 			page 136


 7338      7065 4B65 
 7338      7900 
 7339 061a 0B16 0000 		.long	0x160b
 7340 061e 5F6E 6577 		.string	"_newKeyMap"
 7340      4B65 794D 
 7340      6170 00
 7341 0629 0000 0000 		.long	0x0
 7342               		.section	.debug_aranges,"",@progbits
 7343 0000 1C00 0000 		.long	0x1c
 7344 0004 0200      		.word	0x2
 7345 0006 0000 0000 		.long	.Ldebug_info0
 7346 000a 04        		.byte	0x4
 7347 000b 00        		.byte	0x0
 7348 000c 0000      		.word	0x0
 7349 000e 0000      		.word	0x0
 7350 0010 0000 0000 		.long	.Ltext0
 7351 0014 1E0E 0000 		.long	.Letext0-.Ltext0
 7352 0018 0000 0000 		.long	0x0
 7353 001c 0000 0000 		.long	0x0
 7354               		.section	.debug_line
 7355 0000 ED0E 0000 		.long	.LELT0-.LSLT0
 7356               	.LSLT0:
 7357 0004 0200      		.word	0x2
 7358 0006 DF00 0000 		.long	.LELTP0-.LASLTP0
 7359               	.LASLTP0:
 7360 000a 01        		.byte	0x1
 7361 000b 01        		.byte	0x1
 7362 000c F6        		.byte	0xf6
 7363 000d F5        		.byte	0xf5
 7364 000e 0A        		.byte	0xa
 7365 000f 00        		.byte	0x0
 7366 0010 01        		.byte	0x1
 7367 0011 01        		.byte	0x1
 7368 0012 01        		.byte	0x1
 7369 0013 01        		.byte	0x1
 7370 0014 00        		.byte	0x0
 7371 0015 00        		.byte	0x0
 7372 0016 00        		.byte	0x0
 7373 0017 01        		.byte	0x1
 7374 0018 633A 2F77 		.ascii	"c:/winavr-20100110/lib/gcc/../../avr/include"
 7374      696E 6176 
 7374      722D 3230 
 7374      3130 3031 
 7374      3130 2F6C 
 7375 0044 00        		.byte	0
 7376 0045 633A 2F77 		.ascii	"c:/winavr-20100110/lib/gcc/../../avr/include/util"
 7376      696E 6176 
 7376      722D 3230 
 7376      3130 3031 
 7376      3130 2F6C 
 7377 0076 00        		.byte	0
 7378 0077 00        		.byte	0x0
 7379 0078 6B65 796D 		.string	"keymapper.c"
 7379      6170 7065 
 7379      722E 6300 
 7380 0084 00        		.uleb128 0x0
 7381 0085 00        		.uleb128 0x0
GAS LISTING C:\Users\ADMINI~1\AppData\Local\Temp/ccEBF6mf.s 			page 137


 7382 0086 00        		.uleb128 0x0
 7383 0087 7574 696C 		.string	"util/delay_basic.h"
 7383      2F64 656C 
 7383      6179 5F62 
 7383      6173 6963 
 7383      2E68 00
 7384 009a 01        		.uleb128 0x1
 7385 009b 00        		.uleb128 0x0
 7386 009c 00        		.uleb128 0x0
 7387 009d 7574 696C 		.string	"util/delay.h"
 7387      2F64 656C 
 7387      6179 2E68 
 7387      00
 7388 00aa 01        		.uleb128 0x1
 7389 00ab 00        		.uleb128 0x0
 7390 00ac 00        		.uleb128 0x0
 7391 00ad 7374 6469 		.string	"stdint.h"
 7391      6E74 2E68 
 7391      00
 7392 00b6 01        		.uleb128 0x1
 7393 00b7 00        		.uleb128 0x0
 7394 00b8 00        		.uleb128 0x0
 7395 00b9 6B65 796D 		.string	"keymap.h"
 7395      6170 2E68 
 7395      00
 7396 00c2 00        		.uleb128 0x0
 7397 00c3 00        		.uleb128 0x0
 7398 00c4 00        		.uleb128 0x0
 7399 00c5 6D61 6372 		.string	"macrobuffer.h"
 7399      6F62 7566 
 7399      6665 722E 
 7399      6800 
 7400 00d3 00        		.uleb128 0x0
 7401 00d4 00        		.uleb128 0x0
 7402 00d5 00        		.uleb128 0x0
 7403 00d6 6861 7264 		.string	"hardwareinfo.h"
 7403      7761 7265 
 7403      696E 666F 
 7403      2E68 00
 7404 00e5 00        		.uleb128 0x0
 7405 00e6 00        		.uleb128 0x0
 7406 00e7 00        		.uleb128 0x0
 7407 00e8 00        		.byte	0x0
 7408               	.LELTP0:
 7409 00e9 00        		.byte	0x0
 7410 00ea 05        		.uleb128 0x5
 7411 00eb 02        		.byte	0x2
 7412 00ec 0000 0000 		.long	.LM1
 7413 00f0 85        		.byte	0x85
 7414 00f1 00        		.byte	0x0
 7415 00f2 05        		.uleb128 0x5
 7416 00f3 02        		.byte	0x2
 7417 00f4 0000 0000 		.long	.LM2
 7418 00f8 15        		.byte	0x15
 7419 00f9 00        		.byte	0x0
 7420 00fa 05        		.uleb128 0x5
 7421 00fb 02        		.byte	0x2
GAS LISTING C:\Users\ADMINI~1\AppData\Local\Temp/ccEBF6mf.s 			page 138


 7422 00fc 0000 0000 		.long	.LM3
 7423 0100 15        		.byte	0x15
 7424 0101 00        		.byte	0x0
 7425 0102 05        		.uleb128 0x5
 7426 0103 02        		.byte	0x2
 7427 0104 0000 0000 		.long	.LM4
 7428 0108 16        		.byte	0x16
 7429 0109 00        		.byte	0x0
 7430 010a 05        		.uleb128 0x5
 7431 010b 02        		.byte	0x2
 7432 010c 0000 0000 		.long	.LM5
 7433 0110 01        		.byte	0x1
 7434 0111 00        		.byte	0x0
 7435 0112 05        		.uleb128 0x5
 7436 0113 02        		.byte	0x2
 7437 0114 0000 0000 		.long	.LM6
 7438 0118 16        		.byte	0x16
 7439 0119 00        		.byte	0x0
 7440 011a 05        		.uleb128 0x5
 7441 011b 02        		.byte	0x2
 7442 011c 0000 0000 		.long	.LM7
 7443 0120 15        		.byte	0x15
 7444 0121 00        		.byte	0x0
 7445 0122 05        		.uleb128 0x5
 7446 0123 02        		.byte	0x2
 7447 0124 0000 0000 		.long	.LM8
 7448 0128 01        		.byte	0x1
 7449 0129 00        		.byte	0x0
 7450 012a 05        		.uleb128 0x5
 7451 012b 02        		.byte	0x2
 7452 012c 0000 0000 		.long	.LM9
 7453 0130 16        		.byte	0x16
 7454 0131 00        		.byte	0x0
 7455 0132 05        		.uleb128 0x5
 7456 0133 02        		.byte	0x2
 7457 0134 0000 0000 		.long	.LM10
 7458 0138 16        		.byte	0x16
 7459 0139 00        		.byte	0x0
 7460 013a 05        		.uleb128 0x5
 7461 013b 02        		.byte	0x2
 7462 013c 0000 0000 		.long	.LM11
 7463 0140 15        		.byte	0x15
 7464 0141 00        		.byte	0x0
 7465 0142 05        		.uleb128 0x5
 7466 0143 02        		.byte	0x2
 7467 0144 0000 0000 		.long	.LM12
 7468 0148 18        		.byte	0x18
 7469 0149 00        		.byte	0x0
 7470 014a 05        		.uleb128 0x5
 7471 014b 02        		.byte	0x2
 7472 014c 0000 0000 		.long	.LM13
 7473 0150 15        		.byte	0x15
 7474 0151 00        		.byte	0x0
 7475 0152 05        		.uleb128 0x5
 7476 0153 02        		.byte	0x2
 7477 0154 0000 0000 		.long	.LM14
 7478 0158 15        		.byte	0x15
GAS LISTING C:\Users\ADMINI~1\AppData\Local\Temp/ccEBF6mf.s 			page 139


 7479 0159 00        		.byte	0x0
 7480 015a 05        		.uleb128 0x5
 7481 015b 02        		.byte	0x2
 7482 015c 0000 0000 		.long	.LM15
 7483 0160 16        		.byte	0x16
 7484 0161 00        		.byte	0x0
 7485 0162 05        		.uleb128 0x5
 7486 0163 02        		.byte	0x2
 7487 0164 0000 0000 		.long	.LM16
 7488 0168 15        		.byte	0x15
 7489 0169 00        		.byte	0x0
 7490 016a 05        		.uleb128 0x5
 7491 016b 02        		.byte	0x2
 7492 016c 0000 0000 		.long	.LM17
 7493 0170 17        		.byte	0x17
 7494 0171 00        		.byte	0x0
 7495 0172 05        		.uleb128 0x5
 7496 0173 02        		.byte	0x2
 7497 0174 0000 0000 		.long	.LM18
 7498 0178 15        		.byte	0x15
 7499 0179 00        		.byte	0x0
 7500 017a 05        		.uleb128 0x5
 7501 017b 02        		.byte	0x2
 7502 017c 0000 0000 		.long	.LM19
 7503 0180 31        		.byte	0x31
 7504 0181 00        		.byte	0x0
 7505 0182 05        		.uleb128 0x5
 7506 0183 02        		.byte	0x2
 7507 0184 0000 0000 		.long	.LM20
 7508 0188 16        		.byte	0x16
 7509 0189 00        		.byte	0x0
 7510 018a 05        		.uleb128 0x5
 7511 018b 02        		.byte	0x2
 7512 018c 0000 0000 		.long	.LM21
 7513 0190 18        		.byte	0x18
 7514 0191 00        		.byte	0x0
 7515 0192 05        		.uleb128 0x5
 7516 0193 02        		.byte	0x2
 7517 0194 0000 0000 		.long	.LM22
 7518 0198 15        		.byte	0x15
 7519 0199 00        		.byte	0x0
 7520 019a 05        		.uleb128 0x5
 7521 019b 02        		.byte	0x2
 7522 019c 0000 0000 		.long	.LM23
 7523 01a0 16        		.byte	0x16
 7524 01a1 00        		.byte	0x0
 7525 01a2 05        		.uleb128 0x5
 7526 01a3 02        		.byte	0x2
 7527 01a4 0000 0000 		.long	.LM24
 7528 01a8 29        		.byte	0x29
 7529 01a9 00        		.byte	0x0
 7530 01aa 05        		.uleb128 0x5
 7531 01ab 02        		.byte	0x2
 7532 01ac 0000 0000 		.long	.LM25
 7533 01b0 15        		.byte	0x15
 7534 01b1 00        		.byte	0x0
 7535 01b2 05        		.uleb128 0x5
GAS LISTING C:\Users\ADMINI~1\AppData\Local\Temp/ccEBF6mf.s 			page 140


 7536 01b3 02        		.byte	0x2
 7537 01b4 0000 0000 		.long	.LM26
 7538 01b8 15        		.byte	0x15
 7539 01b9 00        		.byte	0x0
 7540 01ba 05        		.uleb128 0x5
 7541 01bb 02        		.byte	0x2
 7542 01bc 0000 0000 		.long	.LM27
 7543 01c0 15        		.byte	0x15
 7544 01c1 00        		.byte	0x0
 7545 01c2 05        		.uleb128 0x5
 7546 01c3 02        		.byte	0x2
 7547 01c4 0000 0000 		.long	.LM28
 7548 01c8 16        		.byte	0x16
 7549 01c9 00        		.byte	0x0
 7550 01ca 05        		.uleb128 0x5
 7551 01cb 02        		.byte	0x2
 7552 01cc 0000 0000 		.long	.LM29
 7553 01d0 2B        		.byte	0x2b
 7554 01d1 00        		.byte	0x0
 7555 01d2 05        		.uleb128 0x5
 7556 01d3 02        		.byte	0x2
 7557 01d4 0000 0000 		.long	.LM30
 7558 01d8 15        		.byte	0x15
 7559 01d9 00        		.byte	0x0
 7560 01da 05        		.uleb128 0x5
 7561 01db 02        		.byte	0x2
 7562 01dc 0000 0000 		.long	.LM31
 7563 01e0 15        		.byte	0x15
 7564 01e1 00        		.byte	0x0
 7565 01e2 05        		.uleb128 0x5
 7566 01e3 02        		.byte	0x2
 7567 01e4 0000 0000 		.long	.LM32
 7568 01e8 16        		.byte	0x16
 7569 01e9 00        		.byte	0x0
 7570 01ea 05        		.uleb128 0x5
 7571 01eb 02        		.byte	0x2
 7572 01ec 0000 0000 		.long	.LM33
 7573 01f0 4B        		.byte	0x4b
 7574 01f1 00        		.byte	0x0
 7575 01f2 05        		.uleb128 0x5
 7576 01f3 02        		.byte	0x2
 7577 01f4 0000 0000 		.long	.LM34
 7578 01f8 01        		.byte	0x1
 7579 01f9 00        		.byte	0x0
 7580 01fa 05        		.uleb128 0x5
 7581 01fb 02        		.byte	0x2
 7582 01fc 0000 0000 		.long	.LM35
 7583 0200 1A        		.byte	0x1a
 7584 0201 00        		.byte	0x0
 7585 0202 05        		.uleb128 0x5
 7586 0203 02        		.byte	0x2
 7587 0204 0000 0000 		.long	.LM36
 7588 0208 16        		.byte	0x16
 7589 0209 00        		.byte	0x0
 7590 020a 05        		.uleb128 0x5
 7591 020b 02        		.byte	0x2
 7592 020c 0000 0000 		.long	.LM37
GAS LISTING C:\Users\ADMINI~1\AppData\Local\Temp/ccEBF6mf.s 			page 141


 7593 0210 0D        		.byte	0xd
 7594 0211 00        		.byte	0x0
 7595 0212 05        		.uleb128 0x5
 7596 0213 02        		.byte	0x2
 7597 0214 0000 0000 		.long	.LM38
 7598 0218 20        		.byte	0x20
 7599 0219 00        		.byte	0x0
 7600 021a 05        		.uleb128 0x5
 7601 021b 02        		.byte	0x2
 7602 021c 0000 0000 		.long	.LM39
 7603 0220 47        		.byte	0x47
 7604 0221 00        		.byte	0x0
 7605 0222 05        		.uleb128 0x5
 7606 0223 02        		.byte	0x2
 7607 0224 0000 0000 		.long	.LM40
 7608 0228 15        		.byte	0x15
 7609 0229 00        		.byte	0x0
 7610 022a 05        		.uleb128 0x5
 7611 022b 02        		.byte	0x2
 7612 022c 0000 0000 		.long	.LM41
 7613 0230 15        		.byte	0x15
 7614 0231 00        		.byte	0x0
 7615 0232 05        		.uleb128 0x5
 7616 0233 02        		.byte	0x2
 7617 0234 0000 0000 		.long	.LM42
 7618 0238 15        		.byte	0x15
 7619 0239 00        		.byte	0x0
 7620 023a 05        		.uleb128 0x5
 7621 023b 02        		.byte	0x2
 7622 023c 0000 0000 		.long	.LM43
 7623 0240 03        		.byte	0x3
 7624 0241 CB02      		.sleb128 331
 7625 0243 01        		.byte	0x1
 7626 0244 00        		.byte	0x0
 7627 0245 05        		.uleb128 0x5
 7628 0246 02        		.byte	0x2
 7629 0247 0000 0000 		.long	.LM44
 7630 024b 15        		.byte	0x15
 7631 024c 00        		.byte	0x0
 7632 024d 05        		.uleb128 0x5
 7633 024e 02        		.byte	0x2
 7634 024f 0000 0000 		.long	.LM45
 7635 0253 15        		.byte	0x15
 7636 0254 00        		.byte	0x0
 7637 0255 05        		.uleb128 0x5
 7638 0256 02        		.byte	0x2
 7639 0257 0000 0000 		.long	.LM46
 7640 025b 15        		.byte	0x15
 7641 025c 00        		.byte	0x0
 7642 025d 05        		.uleb128 0x5
 7643 025e 02        		.byte	0x2
 7644 025f 0000 0000 		.long	.LM47
 7645 0263 15        		.byte	0x15
 7646 0264 00        		.byte	0x0
 7647 0265 05        		.uleb128 0x5
 7648 0266 02        		.byte	0x2
 7649 0267 0000 0000 		.long	.LM48
GAS LISTING C:\Users\ADMINI~1\AppData\Local\Temp/ccEBF6mf.s 			page 142


 7650 026b 15        		.byte	0x15
 7651 026c 00        		.byte	0x0
 7652 026d 05        		.uleb128 0x5
 7653 026e 02        		.byte	0x2
 7654 026f 0000 0000 		.long	.LM49
 7655 0273 03        		.byte	0x3
 7656 0274 9A7D      		.sleb128 -358
 7657 0276 01        		.byte	0x1
 7658 0277 00        		.byte	0x0
 7659 0278 05        		.uleb128 0x5
 7660 0279 02        		.byte	0x2
 7661 027a 0000 0000 		.long	.LM50
 7662 027e 18        		.byte	0x18
 7663 027f 00        		.byte	0x0
 7664 0280 05        		.uleb128 0x5
 7665 0281 02        		.byte	0x2
 7666 0282 0000 0000 		.long	.LM51
 7667 0286 15        		.byte	0x15
 7668 0287 00        		.byte	0x0
 7669 0288 05        		.uleb128 0x5
 7670 0289 02        		.byte	0x2
 7671 028a 0000 0000 		.long	.LM52
 7672 028e 15        		.byte	0x15
 7673 028f 00        		.byte	0x0
 7674 0290 05        		.uleb128 0x5
 7675 0291 02        		.byte	0x2
 7676 0292 0000 0000 		.long	.LM53
 7677 0296 16        		.byte	0x16
 7678 0297 00        		.byte	0x0
 7679 0298 05        		.uleb128 0x5
 7680 0299 02        		.byte	0x2
 7681 029a 0000 0000 		.long	.LM54
 7682 029e 15        		.byte	0x15
 7683 029f 00        		.byte	0x0
 7684 02a0 05        		.uleb128 0x5
 7685 02a1 02        		.byte	0x2
 7686 02a2 0000 0000 		.long	.LM55
 7687 02a6 16        		.byte	0x16
 7688 02a7 00        		.byte	0x0
 7689 02a8 05        		.uleb128 0x5
 7690 02a9 02        		.byte	0x2
 7691 02aa 0000 0000 		.long	.LM56
 7692 02ae 15        		.byte	0x15
 7693 02af 00        		.byte	0x0
 7694 02b0 05        		.uleb128 0x5
 7695 02b1 02        		.byte	0x2
 7696 02b2 0000 0000 		.long	.LM57
 7697 02b6 17        		.byte	0x17
 7698 02b7 00        		.byte	0x0
 7699 02b8 05        		.uleb128 0x5
 7700 02b9 02        		.byte	0x2
 7701 02ba 0000 0000 		.long	.LM58
 7702 02be 1E        		.byte	0x1e
 7703 02bf 00        		.byte	0x0
 7704 02c0 05        		.uleb128 0x5
 7705 02c1 02        		.byte	0x2
 7706 02c2 0000 0000 		.long	.LM59
GAS LISTING C:\Users\ADMINI~1\AppData\Local\Temp/ccEBF6mf.s 			page 143


 7707 02c6 01        		.byte	0x1
 7708 02c7 00        		.byte	0x0
 7709 02c8 05        		.uleb128 0x5
 7710 02c9 02        		.byte	0x2
 7711 02ca 0000 0000 		.long	.LM60
 7712 02ce 1C        		.byte	0x1c
 7713 02cf 00        		.byte	0x0
 7714 02d0 05        		.uleb128 0x5
 7715 02d1 02        		.byte	0x2
 7716 02d2 0000 0000 		.long	.LM61
 7717 02d6 15        		.byte	0x15
 7718 02d7 00        		.byte	0x0
 7719 02d8 05        		.uleb128 0x5
 7720 02d9 02        		.byte	0x2
 7721 02da 0000 0000 		.long	.LM62
 7722 02de 10        		.byte	0x10
 7723 02df 00        		.byte	0x0
 7724 02e0 05        		.uleb128 0x5
 7725 02e1 02        		.byte	0x2
 7726 02e2 0000 0000 		.long	.LM63
 7727 02e6 1B        		.byte	0x1b
 7728 02e7 00        		.byte	0x0
 7729 02e8 05        		.uleb128 0x5
 7730 02e9 02        		.byte	0x2
 7731 02ea 0000 0000 		.long	.LM64
 7732 02ee 03        		.byte	0x3
 7733 02ef DD7E      		.sleb128 -163
 7734 02f1 01        		.byte	0x1
 7735 02f2 00        		.byte	0x0
 7736 02f3 05        		.uleb128 0x5
 7737 02f4 02        		.byte	0x2
 7738 02f5 0000 0000 		.long	.LM65
 7739 02f9 16        		.byte	0x16
 7740 02fa 00        		.byte	0x0
 7741 02fb 05        		.uleb128 0x5
 7742 02fc 02        		.byte	0x2
 7743 02fd 0000 0000 		.long	.LM66
 7744 0301 15        		.byte	0x15
 7745 0302 00        		.byte	0x0
 7746 0303 05        		.uleb128 0x5
 7747 0304 02        		.byte	0x2
 7748 0305 0000 0000 		.long	.LM67
 7749 0309 15        		.byte	0x15
 7750 030a 00        		.byte	0x0
 7751 030b 05        		.uleb128 0x5
 7752 030c 02        		.byte	0x2
 7753 030d 0000 0000 		.long	.LM68
 7754 0311 15        		.byte	0x15
 7755 0312 00        		.byte	0x0
 7756 0313 05        		.uleb128 0x5
 7757 0314 02        		.byte	0x2
 7758 0315 0000 0000 		.long	.LM69
 7759 0319 15        		.byte	0x15
 7760 031a 00        		.byte	0x0
 7761 031b 05        		.uleb128 0x5
 7762 031c 02        		.byte	0x2
 7763 031d 0000 0000 		.long	.LM70
GAS LISTING C:\Users\ADMINI~1\AppData\Local\Temp/ccEBF6mf.s 			page 144


 7764 0321 15        		.byte	0x15
 7765 0322 00        		.byte	0x0
 7766 0323 05        		.uleb128 0x5
 7767 0324 02        		.byte	0x2
 7768 0325 0000 0000 		.long	.LM71
 7769 0329 B2        		.byte	0xb2
 7770 032a 00        		.byte	0x0
 7771 032b 05        		.uleb128 0x5
 7772 032c 02        		.byte	0x2
 7773 032d 0000 0000 		.long	.LM72
 7774 0331 18        		.byte	0x18
 7775 0332 00        		.byte	0x0
 7776 0333 05        		.uleb128 0x5
 7777 0334 02        		.byte	0x2
 7778 0335 0000 0000 		.long	.LM73
 7779 0339 16        		.byte	0x16
 7780 033a 00        		.byte	0x0
 7781 033b 05        		.uleb128 0x5
 7782 033c 02        		.byte	0x2
 7783 033d 0000 0000 		.long	.LM74
 7784 0341 15        		.byte	0x15
 7785 0342 00        		.byte	0x0
 7786 0343 05        		.uleb128 0x5
 7787 0344 02        		.byte	0x2
 7788 0345 0000 0000 		.long	.LM75
 7789 0349 13        		.byte	0x13
 7790 034a 00        		.byte	0x0
 7791 034b 05        		.uleb128 0x5
 7792 034c 02        		.byte	0x2
 7793 034d 0000 0000 		.long	.LM76
 7794 0351 15        		.byte	0x15
 7795 0352 00        		.byte	0x0
 7796 0353 05        		.uleb128 0x5
 7797 0354 02        		.byte	0x2
 7798 0355 0000 0000 		.long	.LM77
 7799 0359 12        		.byte	0x12
 7800 035a 00        		.byte	0x0
 7801 035b 05        		.uleb128 0x5
 7802 035c 02        		.byte	0x2
 7803 035d 0000 0000 		.long	.LM78
 7804 0361 18        		.byte	0x18
 7805 0362 00        		.byte	0x0
 7806 0363 05        		.uleb128 0x5
 7807 0364 02        		.byte	0x2
 7808 0365 0000 0000 		.long	.LM79
 7809 0369 03        		.byte	0x3
 7810 036a A102      		.sleb128 289
 7811 036c 01        		.byte	0x1
 7812 036d 00        		.byte	0x0
 7813 036e 05        		.uleb128 0x5
 7814 036f 02        		.byte	0x2
 7815 0370 0000 0000 		.long	.LM80
 7816 0374 15        		.byte	0x15
 7817 0375 00        		.byte	0x0
 7818 0376 05        		.uleb128 0x5
 7819 0377 02        		.byte	0x2
 7820 0378 0000 0000 		.long	.LM81
GAS LISTING C:\Users\ADMINI~1\AppData\Local\Temp/ccEBF6mf.s 			page 145


 7821 037c 15        		.byte	0x15
 7822 037d 00        		.byte	0x0
 7823 037e 05        		.uleb128 0x5
 7824 037f 02        		.byte	0x2
 7825 0380 0000 0000 		.long	.LM82
 7826 0384 1A        		.byte	0x1a
 7827 0385 00        		.byte	0x0
 7828 0386 05        		.uleb128 0x5
 7829 0387 02        		.byte	0x2
 7830 0388 0000 0000 		.long	.LM83
 7831 038c 12        		.byte	0x12
 7832 038d 00        		.byte	0x0
 7833 038e 05        		.uleb128 0x5
 7834 038f 02        		.byte	0x2
 7835 0390 0000 0000 		.long	.LM84
 7836 0394 13        		.byte	0x13
 7837 0395 00        		.byte	0x0
 7838 0396 05        		.uleb128 0x5
 7839 0397 02        		.byte	0x2
 7840 0398 0000 0000 		.long	.LM85
 7841 039c 1A        		.byte	0x1a
 7842 039d 00        		.byte	0x0
 7843 039e 05        		.uleb128 0x5
 7844 039f 02        		.byte	0x2
 7845 03a0 0000 0000 		.long	.LM86
 7846 03a4 16        		.byte	0x16
 7847 03a5 00        		.byte	0x0
 7848 03a6 05        		.uleb128 0x5
 7849 03a7 02        		.byte	0x2
 7850 03a8 0000 0000 		.long	.LM87
 7851 03ac 03        		.byte	0x3
 7852 03ad 68        		.sleb128 -24
 7853 03ae 01        		.byte	0x1
 7854 03af 00        		.byte	0x0
 7855 03b0 05        		.uleb128 0x5
 7856 03b1 02        		.byte	0x2
 7857 03b2 0000 0000 		.long	.LM88
 7858 03b6 15        		.byte	0x15
 7859 03b7 00        		.byte	0x0
 7860 03b8 05        		.uleb128 0x5
 7861 03b9 02        		.byte	0x2
 7862 03ba 0000 0000 		.long	.LM89
 7863 03be 15        		.byte	0x15
 7864 03bf 00        		.byte	0x0
 7865 03c0 05        		.uleb128 0x5
 7866 03c1 02        		.byte	0x2
 7867 03c2 0000 0000 		.long	.LM90
 7868 03c6 16        		.byte	0x16
 7869 03c7 00        		.byte	0x0
 7870 03c8 05        		.uleb128 0x5
 7871 03c9 02        		.byte	0x2
 7872 03ca 0000 0000 		.long	.LM91
 7873 03ce 16        		.byte	0x16
 7874 03cf 00        		.byte	0x0
 7875 03d0 05        		.uleb128 0x5
 7876 03d1 02        		.byte	0x2
 7877 03d2 0000 0000 		.long	.LM92
GAS LISTING C:\Users\ADMINI~1\AppData\Local\Temp/ccEBF6mf.s 			page 146


 7878 03d6 15        		.byte	0x15
 7879 03d7 00        		.byte	0x0
 7880 03d8 05        		.uleb128 0x5
 7881 03d9 02        		.byte	0x2
 7882 03da 0000 0000 		.long	.LM93
 7883 03de 15        		.byte	0x15
 7884 03df 00        		.byte	0x0
 7885 03e0 05        		.uleb128 0x5
 7886 03e1 02        		.byte	0x2
 7887 03e2 0000 0000 		.long	.LM94
 7888 03e6 03        		.byte	0x3
 7889 03e7 A47F      		.sleb128 -92
 7890 03e9 01        		.byte	0x1
 7891 03ea 00        		.byte	0x0
 7892 03eb 05        		.uleb128 0x5
 7893 03ec 02        		.byte	0x2
 7894 03ed 0000 0000 		.long	.LM95
 7895 03f1 15        		.byte	0x15
 7896 03f2 00        		.byte	0x0
 7897 03f3 05        		.uleb128 0x5
 7898 03f4 02        		.byte	0x2
 7899 03f5 0000 0000 		.long	.LM96
 7900 03f9 03        		.byte	0x3
 7901 03fa A67D      		.sleb128 -346
 7902 03fc 01        		.byte	0x1
 7903 03fd 00        		.byte	0x0
 7904 03fe 05        		.uleb128 0x5
 7905 03ff 02        		.byte	0x2
 7906 0400 0000 0000 		.long	.LM97
 7907 0404 15        		.byte	0x15
 7908 0405 00        		.byte	0x0
 7909 0406 05        		.uleb128 0x5
 7910 0407 02        		.byte	0x2
 7911 0408 0000 0000 		.long	.LM98
 7912 040c 03        		.byte	0x3
 7913 040d DE02      		.sleb128 350
 7914 040f 01        		.byte	0x1
 7915 0410 00        		.byte	0x0
 7916 0411 05        		.uleb128 0x5
 7917 0412 02        		.byte	0x2
 7918 0413 0000 0000 		.long	.LM99
 7919 0417 15        		.byte	0x15
 7920 0418 00        		.byte	0x0
 7921 0419 05        		.uleb128 0x5
 7922 041a 02        		.byte	0x2
 7923 041b 0000 0000 		.long	.LM100
 7924 041f 16        		.byte	0x16
 7925 0420 00        		.byte	0x0
 7926 0421 05        		.uleb128 0x5
 7927 0422 02        		.byte	0x2
 7928 0423 0000 0000 		.long	.LM101
 7929 0427 16        		.byte	0x16
 7930 0428 00        		.byte	0x0
 7931 0429 05        		.uleb128 0x5
 7932 042a 02        		.byte	0x2
 7933 042b 0000 0000 		.long	.LM102
 7934 042f 15        		.byte	0x15
GAS LISTING C:\Users\ADMINI~1\AppData\Local\Temp/ccEBF6mf.s 			page 147


 7935 0430 00        		.byte	0x0
 7936 0431 05        		.uleb128 0x5
 7937 0432 02        		.byte	0x2
 7938 0433 0000 0000 		.long	.LM103
 7939 0437 15        		.byte	0x15
 7940 0438 00        		.byte	0x0
 7941 0439 05        		.uleb128 0x5
 7942 043a 02        		.byte	0x2
 7943 043b 0000 0000 		.long	.LM104
 7944 043f 03        		.byte	0x3
 7945 0440 B27F      		.sleb128 -78
 7946 0442 01        		.byte	0x1
 7947 0443 00        		.byte	0x0
 7948 0444 05        		.uleb128 0x5
 7949 0445 02        		.byte	0x2
 7950 0446 0000 0000 		.long	.LM105
 7951 044a 15        		.byte	0x15
 7952 044b 00        		.byte	0x0
 7953 044c 05        		.uleb128 0x5
 7954 044d 02        		.byte	0x2
 7955 044e 0000 0000 		.long	.LM106
 7956 0452 15        		.byte	0x15
 7957 0453 00        		.byte	0x0
 7958 0454 05        		.uleb128 0x5
 7959 0455 02        		.byte	0x2
 7960 0456 0000 0000 		.long	.LM107
 7961 045a 15        		.byte	0x15
 7962 045b 00        		.byte	0x0
 7963 045c 05        		.uleb128 0x5
 7964 045d 02        		.byte	0x2
 7965 045e 0000 0000 		.long	.LM108
 7966 0462 03        		.byte	0x3
 7967 0463 6D        		.sleb128 -19
 7968 0464 01        		.byte	0x1
 7969 0465 00        		.byte	0x0
 7970 0466 05        		.uleb128 0x5
 7971 0467 02        		.byte	0x2
 7972 0468 0000 0000 		.long	.LM109
 7973 046c 15        		.byte	0x15
 7974 046d 00        		.byte	0x0
 7975 046e 05        		.uleb128 0x5
 7976 046f 02        		.byte	0x2
 7977 0470 0000 0000 		.long	.LM110
 7978 0474 15        		.byte	0x15
 7979 0475 00        		.byte	0x0
 7980 0476 05        		.uleb128 0x5
 7981 0477 02        		.byte	0x2
 7982 0478 0000 0000 		.long	.LM111
 7983 047c 15        		.byte	0x15
 7984 047d 00        		.byte	0x0
 7985 047e 05        		.uleb128 0x5
 7986 047f 02        		.byte	0x2
 7987 0480 0000 0000 		.long	.LM112
 7988 0484 15        		.byte	0x15
 7989 0485 00        		.byte	0x0
 7990 0486 05        		.uleb128 0x5
 7991 0487 02        		.byte	0x2
GAS LISTING C:\Users\ADMINI~1\AppData\Local\Temp/ccEBF6mf.s 			page 148


 7992 0488 0000 0000 		.long	.LM113
 7993 048c 15        		.byte	0x15
 7994 048d 00        		.byte	0x0
 7995 048e 05        		.uleb128 0x5
 7996 048f 02        		.byte	0x2
 7997 0490 0000 0000 		.long	.LM114
 7998 0494 15        		.byte	0x15
 7999 0495 00        		.byte	0x0
 8000 0496 05        		.uleb128 0x5
 8001 0497 02        		.byte	0x2
 8002 0498 0000 0000 		.long	.LM115
 8003 049c 15        		.byte	0x15
 8004 049d 00        		.byte	0x0
 8005 049e 05        		.uleb128 0x5
 8006 049f 02        		.byte	0x2
 8007 04a0 0000 0000 		.long	.LM116
 8008 04a4 15        		.byte	0x15
 8009 04a5 00        		.byte	0x0
 8010 04a6 05        		.uleb128 0x5
 8011 04a7 02        		.byte	0x2
 8012 04a8 0000 0000 		.long	.LM117
 8013 04ac 15        		.byte	0x15
 8014 04ad 00        		.byte	0x0
 8015 04ae 05        		.uleb128 0x5
 8016 04af 02        		.byte	0x2
 8017 04b0 0000 0000 		.long	.LM118
 8018 04b4 15        		.byte	0x15
 8019 04b5 00        		.byte	0x0
 8020 04b6 05        		.uleb128 0x5
 8021 04b7 02        		.byte	0x2
 8022 04b8 0000 0000 		.long	.LM119
 8023 04bc 15        		.byte	0x15
 8024 04bd 00        		.byte	0x0
 8025 04be 05        		.uleb128 0x5
 8026 04bf 02        		.byte	0x2
 8027 04c0 0000 0000 		.long	.LM120
 8028 04c4 16        		.byte	0x16
 8029 04c5 00        		.byte	0x0
 8030 04c6 05        		.uleb128 0x5
 8031 04c7 02        		.byte	0x2
 8032 04c8 0000 0000 		.long	.LM121
 8033 04cc 15        		.byte	0x15
 8034 04cd 00        		.byte	0x0
 8035 04ce 05        		.uleb128 0x5
 8036 04cf 02        		.byte	0x2
 8037 04d0 0000 0000 		.long	.LM122
 8038 04d4 03        		.byte	0x3
 8039 04d5 847F      		.sleb128 -124
 8040 04d7 01        		.byte	0x1
 8041 04d8 00        		.byte	0x0
 8042 04d9 05        		.uleb128 0x5
 8043 04da 02        		.byte	0x2
 8044 04db 0000 0000 		.long	.LM123
 8045 04df 18        		.byte	0x18
 8046 04e0 00        		.byte	0x0
 8047 04e1 05        		.uleb128 0x5
 8048 04e2 02        		.byte	0x2
GAS LISTING C:\Users\ADMINI~1\AppData\Local\Temp/ccEBF6mf.s 			page 149


 8049 04e3 0000 0000 		.long	.LM124
 8050 04e7 15        		.byte	0x15
 8051 04e8 00        		.byte	0x0
 8052 04e9 05        		.uleb128 0x5
 8053 04ea 02        		.byte	0x2
 8054 04eb 0000 0000 		.long	.LM125
 8055 04ef 17        		.byte	0x17
 8056 04f0 00        		.byte	0x0
 8057 04f1 05        		.uleb128 0x5
 8058 04f2 02        		.byte	0x2
 8059 04f3 0000 0000 		.long	.LM126
 8060 04f7 16        		.byte	0x16
 8061 04f8 00        		.byte	0x0
 8062 04f9 05        		.uleb128 0x5
 8063 04fa 02        		.byte	0x2
 8064 04fb 0000 0000 		.long	.LM127
 8065 04ff 18        		.byte	0x18
 8066 0500 00        		.byte	0x0
 8067 0501 05        		.uleb128 0x5
 8068 0502 02        		.byte	0x2
 8069 0503 0000 0000 		.long	.LM128
 8070 0507 18        		.byte	0x18
 8071 0508 00        		.byte	0x0
 8072 0509 05        		.uleb128 0x5
 8073 050a 02        		.byte	0x2
 8074 050b 0000 0000 		.long	.LM129
 8075 050f 17        		.byte	0x17
 8076 0510 00        		.byte	0x0
 8077 0511 05        		.uleb128 0x5
 8078 0512 02        		.byte	0x2
 8079 0513 0000 0000 		.long	.LM130
 8080 0517 19        		.byte	0x19
 8081 0518 00        		.byte	0x0
 8082 0519 05        		.uleb128 0x5
 8083 051a 02        		.byte	0x2
 8084 051b 0000 0000 		.long	.LM131
 8085 051f 19        		.byte	0x19
 8086 0520 00        		.byte	0x0
 8087 0521 05        		.uleb128 0x5
 8088 0522 02        		.byte	0x2
 8089 0523 0000 0000 		.long	.LM132
 8090 0527 18        		.byte	0x18
 8091 0528 00        		.byte	0x0
 8092 0529 05        		.uleb128 0x5
 8093 052a 02        		.byte	0x2
 8094 052b 0000 0000 		.long	.LM133
 8095 052f 17        		.byte	0x17
 8096 0530 00        		.byte	0x0
 8097 0531 05        		.uleb128 0x5
 8098 0532 02        		.byte	0x2
 8099 0533 0000 0000 		.long	.LM134
 8100 0537 17        		.byte	0x17
 8101 0538 00        		.byte	0x0
 8102 0539 05        		.uleb128 0x5
 8103 053a 02        		.byte	0x2
 8104 053b 0000 0000 		.long	.LM135
 8105 053f 19        		.byte	0x19
GAS LISTING C:\Users\ADMINI~1\AppData\Local\Temp/ccEBF6mf.s 			page 150


 8106 0540 00        		.byte	0x0
 8107 0541 05        		.uleb128 0x5
 8108 0542 02        		.byte	0x2
 8109 0543 0000 0000 		.long	.LM136
 8110 0547 15        		.byte	0x15
 8111 0548 00        		.byte	0x0
 8112 0549 05        		.uleb128 0x5
 8113 054a 02        		.byte	0x2
 8114 054b 0000 0000 		.long	.LM137
 8115 054f 17        		.byte	0x17
 8116 0550 00        		.byte	0x0
 8117 0551 05        		.uleb128 0x5
 8118 0552 02        		.byte	0x2
 8119 0553 0000 0000 		.long	.LM138
 8120 0557 15        		.byte	0x15
 8121 0558 00        		.byte	0x0
 8122 0559 05        		.uleb128 0x5
 8123 055a 02        		.byte	0x2
 8124 055b 0000 0000 		.long	.LM139
 8125 055f 15        		.byte	0x15
 8126 0560 00        		.byte	0x0
 8127 0561 05        		.uleb128 0x5
 8128 0562 02        		.byte	0x2
 8129 0563 0000 0000 		.long	.LM140
 8130 0567 17        		.byte	0x17
 8131 0568 00        		.byte	0x0
 8132 0569 05        		.uleb128 0x5
 8133 056a 02        		.byte	0x2
 8134 056b 0000 0000 		.long	.LM141
 8135 056f 04        		.byte	0x4
 8136 0570 02        		.uleb128 0x2
 8137 0571 03        		.byte	0x3
 8138 0572 B57D      		.sleb128 -331
 8139 0574 01        		.byte	0x1
 8140 0575 00        		.byte	0x0
 8141 0576 05        		.uleb128 0x5
 8142 0577 02        		.byte	0x2
 8143 0578 0000 0000 		.long	.LM142
 8144 057c 04        		.byte	0x4
 8145 057d 03        		.uleb128 0x3
 8146 057e 27        		.byte	0x27
 8147 057f 00        		.byte	0x0
 8148 0580 05        		.uleb128 0x5
 8149 0581 02        		.byte	0x2
 8150 0582 0000 0000 		.long	.LM143
 8151 0586 10        		.byte	0x10
 8152 0587 00        		.byte	0x0
 8153 0588 05        		.uleb128 0x5
 8154 0589 02        		.byte	0x2
 8155 058a 0000 0000 		.long	.LM144
 8156 058e 04        		.byte	0x4
 8157 058f 01        		.uleb128 0x1
 8158 0590 03        		.byte	0x3
 8159 0591 C402      		.sleb128 324
 8160 0593 01        		.byte	0x1
 8161 0594 00        		.byte	0x0
 8162 0595 05        		.uleb128 0x5
GAS LISTING C:\Users\ADMINI~1\AppData\Local\Temp/ccEBF6mf.s 			page 151


 8163 0596 02        		.byte	0x2
 8164 0597 0000 0000 		.long	.LM145
 8165 059b 16        		.byte	0x16
 8166 059c 00        		.byte	0x0
 8167 059d 05        		.uleb128 0x5
 8168 059e 02        		.byte	0x2
 8169 059f 0000 0000 		.long	.LM146
 8170 05a3 15        		.byte	0x15
 8171 05a4 00        		.byte	0x0
 8172 05a5 05        		.uleb128 0x5
 8173 05a6 02        		.byte	0x2
 8174 05a7 0000 0000 		.long	.LM147
 8175 05ab 15        		.byte	0x15
 8176 05ac 00        		.byte	0x0
 8177 05ad 05        		.uleb128 0x5
 8178 05ae 02        		.byte	0x2
 8179 05af 0000 0000 		.long	.LM148
 8180 05b3 15        		.byte	0x15
 8181 05b4 00        		.byte	0x0
 8182 05b5 05        		.uleb128 0x5
 8183 05b6 02        		.byte	0x2
 8184 05b7 0000 0000 		.long	.LM149
 8185 05bb 15        		.byte	0x15
 8186 05bc 00        		.byte	0x0
 8187 05bd 05        		.uleb128 0x5
 8188 05be 02        		.byte	0x2
 8189 05bf 0000 0000 		.long	.LM150
 8190 05c3 15        		.byte	0x15
 8191 05c4 00        		.byte	0x0
 8192 05c5 05        		.uleb128 0x5
 8193 05c6 02        		.byte	0x2
 8194 05c7 0000 0000 		.long	.LM151
 8195 05cb 15        		.byte	0x15
 8196 05cc 00        		.byte	0x0
 8197 05cd 05        		.uleb128 0x5
 8198 05ce 02        		.byte	0x2
 8199 05cf 0000 0000 		.long	.LM152
 8200 05d3 15        		.byte	0x15
 8201 05d4 00        		.byte	0x0
 8202 05d5 05        		.uleb128 0x5
 8203 05d6 02        		.byte	0x2
 8204 05d7 0000 0000 		.long	.LM153
 8205 05db 15        		.byte	0x15
 8206 05dc 00        		.byte	0x0
 8207 05dd 05        		.uleb128 0x5
 8208 05de 02        		.byte	0x2
 8209 05df 0000 0000 		.long	.LM154
 8210 05e3 15        		.byte	0x15
 8211 05e4 00        		.byte	0x0
 8212 05e5 05        		.uleb128 0x5
 8213 05e6 02        		.byte	0x2
 8214 05e7 0000 0000 		.long	.LM155
 8215 05eb 16        		.byte	0x16
 8216 05ec 00        		.byte	0x0
 8217 05ed 05        		.uleb128 0x5
 8218 05ee 02        		.byte	0x2
 8219 05ef 0000 0000 		.long	.LM156
GAS LISTING C:\Users\ADMINI~1\AppData\Local\Temp/ccEBF6mf.s 			page 152


 8220 05f3 15        		.byte	0x15
 8221 05f4 00        		.byte	0x0
 8222 05f5 05        		.uleb128 0x5
 8223 05f6 02        		.byte	0x2
 8224 05f7 0000 0000 		.long	.LM157
 8225 05fb 15        		.byte	0x15
 8226 05fc 00        		.byte	0x0
 8227 05fd 05        		.uleb128 0x5
 8228 05fe 02        		.byte	0x2
 8229 05ff 0000 0000 		.long	.LM158
 8230 0603 17        		.byte	0x17
 8231 0604 00        		.byte	0x0
 8232 0605 05        		.uleb128 0x5
 8233 0606 02        		.byte	0x2
 8234 0607 0000 0000 		.long	.LM159
 8235 060b 15        		.byte	0x15
 8236 060c 00        		.byte	0x0
 8237 060d 05        		.uleb128 0x5
 8238 060e 02        		.byte	0x2
 8239 060f 0000 0000 		.long	.LM160
 8240 0613 15        		.byte	0x15
 8241 0614 00        		.byte	0x0
 8242 0615 05        		.uleb128 0x5
 8243 0616 02        		.byte	0x2
 8244 0617 0000 0000 		.long	.LM161
 8245 061b 15        		.byte	0x15
 8246 061c 00        		.byte	0x0
 8247 061d 05        		.uleb128 0x5
 8248 061e 02        		.byte	0x2
 8249 061f 0000 0000 		.long	.LM162
 8250 0623 15        		.byte	0x15
 8251 0624 00        		.byte	0x0
 8252 0625 05        		.uleb128 0x5
 8253 0626 02        		.byte	0x2
 8254 0627 0000 0000 		.long	.LM163
 8255 062b 15        		.byte	0x15
 8256 062c 00        		.byte	0x0
 8257 062d 05        		.uleb128 0x5
 8258 062e 02        		.byte	0x2
 8259 062f 0000 0000 		.long	.LM164
 8260 0633 15        		.byte	0x15
 8261 0634 00        		.byte	0x0
 8262 0635 05        		.uleb128 0x5
 8263 0636 02        		.byte	0x2
 8264 0637 0000 0000 		.long	.LM165
 8265 063b 15        		.byte	0x15
 8266 063c 00        		.byte	0x0
 8267 063d 05        		.uleb128 0x5
 8268 063e 02        		.byte	0x2
 8269 063f 0000 0000 		.long	.LM166
 8270 0643 15        		.byte	0x15
 8271 0644 00        		.byte	0x0
 8272 0645 05        		.uleb128 0x5
 8273 0646 02        		.byte	0x2
 8274 0647 0000 0000 		.long	.LM167
 8275 064b 15        		.byte	0x15
 8276 064c 00        		.byte	0x0
GAS LISTING C:\Users\ADMINI~1\AppData\Local\Temp/ccEBF6mf.s 			page 153


 8277 064d 05        		.uleb128 0x5
 8278 064e 02        		.byte	0x2
 8279 064f 0000 0000 		.long	.LM168
 8280 0653 16        		.byte	0x16
 8281 0654 00        		.byte	0x0
 8282 0655 05        		.uleb128 0x5
 8283 0656 02        		.byte	0x2
 8284 0657 0000 0000 		.long	.LM169
 8285 065b 15        		.byte	0x15
 8286 065c 00        		.byte	0x0
 8287 065d 05        		.uleb128 0x5
 8288 065e 02        		.byte	0x2
 8289 065f 0000 0000 		.long	.LM170
 8290 0663 16        		.byte	0x16
 8291 0664 00        		.byte	0x0
 8292 0665 05        		.uleb128 0x5
 8293 0666 02        		.byte	0x2
 8294 0667 0000 0000 		.long	.LM171
 8295 066b BA        		.byte	0xba
 8296 066c 00        		.byte	0x0
 8297 066d 05        		.uleb128 0x5
 8298 066e 02        		.byte	0x2
 8299 066f 0000 0000 		.long	.LM172
 8300 0673 01        		.byte	0x1
 8301 0674 00        		.byte	0x0
 8302 0675 05        		.uleb128 0x5
 8303 0676 02        		.byte	0x2
 8304 0677 0000 0000 		.long	.LM173
 8305 067b 19        		.byte	0x19
 8306 067c 00        		.byte	0x0
 8307 067d 05        		.uleb128 0x5
 8308 067e 02        		.byte	0x2
 8309 067f 0000 0000 		.long	.LM174
 8310 0683 12        		.byte	0x12
 8311 0684 00        		.byte	0x0
 8312 0685 05        		.uleb128 0x5
 8313 0686 02        		.byte	0x2
 8314 0687 0000 0000 		.long	.LM175
 8315 068b 1A        		.byte	0x1a
 8316 068c 00        		.byte	0x0
 8317 068d 05        		.uleb128 0x5
 8318 068e 02        		.byte	0x2
 8319 068f 0000 0000 		.long	.LM176
 8320 0693 15        		.byte	0x15
 8321 0694 00        		.byte	0x0
 8322 0695 05        		.uleb128 0x5
 8323 0696 02        		.byte	0x2
 8324 0697 0000 0000 		.long	.LM177
 8325 069b 15        		.byte	0x15
 8326 069c 00        		.byte	0x0
 8327 069d 05        		.uleb128 0x5
 8328 069e 02        		.byte	0x2
 8329 069f 0000 0000 		.long	.LM178
 8330 06a3 03        		.byte	0x3
 8331 06a4 62        		.sleb128 -30
 8332 06a5 01        		.byte	0x1
 8333 06a6 00        		.byte	0x0
GAS LISTING C:\Users\ADMINI~1\AppData\Local\Temp/ccEBF6mf.s 			page 154


 8334 06a7 05        		.uleb128 0x5
 8335 06a8 02        		.byte	0x2
 8336 06a9 0000 0000 		.long	.LM179
 8337 06ad 15        		.byte	0x15
 8338 06ae 00        		.byte	0x0
 8339 06af 05        		.uleb128 0x5
 8340 06b0 02        		.byte	0x2
 8341 06b1 0000 0000 		.long	.LM180
 8342 06b5 1F        		.byte	0x1f
 8343 06b6 00        		.byte	0x0
 8344 06b7 05        		.uleb128 0x5
 8345 06b8 02        		.byte	0x2
 8346 06b9 0000 0000 		.long	.LM181
 8347 06bd 10        		.byte	0x10
 8348 06be 00        		.byte	0x0
 8349 06bf 05        		.uleb128 0x5
 8350 06c0 02        		.byte	0x2
 8351 06c1 0000 0000 		.long	.LM182
 8352 06c5 1C        		.byte	0x1c
 8353 06c6 00        		.byte	0x0
 8354 06c7 05        		.uleb128 0x5
 8355 06c8 02        		.byte	0x2
 8356 06c9 0000 0000 		.long	.LM183
 8357 06cd 15        		.byte	0x15
 8358 06ce 00        		.byte	0x0
 8359 06cf 05        		.uleb128 0x5
 8360 06d0 02        		.byte	0x2
 8361 06d1 0000 0000 		.long	.LM184
 8362 06d5 03        		.byte	0x3
 8363 06d6 5C        		.sleb128 -36
 8364 06d7 01        		.byte	0x1
 8365 06d8 00        		.byte	0x0
 8366 06d9 05        		.uleb128 0x5
 8367 06da 02        		.byte	0x2
 8368 06db 0000 0000 		.long	.LM185
 8369 06df 15        		.byte	0x15
 8370 06e0 00        		.byte	0x0
 8371 06e1 05        		.uleb128 0x5
 8372 06e2 02        		.byte	0x2
 8373 06e3 0000 0000 		.long	.LM186
 8374 06e7 1C        		.byte	0x1c
 8375 06e8 00        		.byte	0x0
 8376 06e9 05        		.uleb128 0x5
 8377 06ea 02        		.byte	0x2
 8378 06eb 0000 0000 		.long	.LM187
 8379 06ef 13        		.byte	0x13
 8380 06f0 00        		.byte	0x0
 8381 06f1 05        		.uleb128 0x5
 8382 06f2 02        		.byte	0x2
 8383 06f3 0000 0000 		.long	.LM188
 8384 06f7 16        		.byte	0x16
 8385 06f8 00        		.byte	0x0
 8386 06f9 05        		.uleb128 0x5
 8387 06fa 02        		.byte	0x2
 8388 06fb 0000 0000 		.long	.LM189
 8389 06ff 16        		.byte	0x16
 8390 0700 00        		.byte	0x0
GAS LISTING C:\Users\ADMINI~1\AppData\Local\Temp/ccEBF6mf.s 			page 155


 8391 0701 05        		.uleb128 0x5
 8392 0702 02        		.byte	0x2
 8393 0703 0000 0000 		.long	.LM190
 8394 0707 15        		.byte	0x15
 8395 0708 00        		.byte	0x0
 8396 0709 05        		.uleb128 0x5
 8397 070a 02        		.byte	0x2
 8398 070b 0000 0000 		.long	.LM191
 8399 070f 0F        		.byte	0xf
 8400 0710 00        		.byte	0x0
 8401 0711 05        		.uleb128 0x5
 8402 0712 02        		.byte	0x2
 8403 0713 0000 0000 		.long	.LM192
 8404 0717 1D        		.byte	0x1d
 8405 0718 00        		.byte	0x0
 8406 0719 05        		.uleb128 0x5
 8407 071a 02        		.byte	0x2
 8408 071b 0000 0000 		.long	.LM193
 8409 071f 03        		.byte	0x3
 8410 0720 947F      		.sleb128 -108
 8411 0722 01        		.byte	0x1
 8412 0723 00        		.byte	0x0
 8413 0724 05        		.uleb128 0x5
 8414 0725 02        		.byte	0x2
 8415 0726 0000 0000 		.long	.LM194
 8416 072a 01        		.byte	0x1
 8417 072b 00        		.byte	0x0
 8418 072c 05        		.uleb128 0x5
 8419 072d 02        		.byte	0x2
 8420 072e 0000 0000 		.long	.LM195
 8421 0732 1B        		.byte	0x1b
 8422 0733 00        		.byte	0x0
 8423 0734 05        		.uleb128 0x5
 8424 0735 02        		.byte	0x2
 8425 0736 0000 0000 		.long	.LM196
 8426 073a 11        		.byte	0x11
 8427 073b 00        		.byte	0x0
 8428 073c 05        		.uleb128 0x5
 8429 073d 02        		.byte	0x2
 8430 073e 0000 0000 		.long	.LM197
 8431 0742 13        		.byte	0x13
 8432 0743 00        		.byte	0x0
 8433 0744 05        		.uleb128 0x5
 8434 0745 02        		.byte	0x2
 8435 0746 0000 0000 		.long	.LM198
 8436 074a 1B        		.byte	0x1b
 8437 074b 00        		.byte	0x0
 8438 074c 05        		.uleb128 0x5
 8439 074d 02        		.byte	0x2
 8440 074e 0000 0000 		.long	.LM199
 8441 0752 15        		.byte	0x15
 8442 0753 00        		.byte	0x0
 8443 0754 05        		.uleb128 0x5
 8444 0755 02        		.byte	0x2
 8445 0756 0000 0000 		.long	.LM200
 8446 075a BA        		.byte	0xba
 8447 075b 00        		.byte	0x0
GAS LISTING C:\Users\ADMINI~1\AppData\Local\Temp/ccEBF6mf.s 			page 156


 8448 075c 05        		.uleb128 0x5
 8449 075d 02        		.byte	0x2
 8450 075e 0000 0000 		.long	.LM201
 8451 0762 16        		.byte	0x16
 8452 0763 00        		.byte	0x0
 8453 0764 05        		.uleb128 0x5
 8454 0765 02        		.byte	0x2
 8455 0766 0000 0000 		.long	.LM202
 8456 076a 18        		.byte	0x18
 8457 076b 00        		.byte	0x0
 8458 076c 05        		.uleb128 0x5
 8459 076d 02        		.byte	0x2
 8460 076e 0000 0000 		.long	.LM203
 8461 0772 1D        		.byte	0x1d
 8462 0773 00        		.byte	0x0
 8463 0774 05        		.uleb128 0x5
 8464 0775 02        		.byte	0x2
 8465 0776 0000 0000 		.long	.LM204
 8466 077a 16        		.byte	0x16
 8467 077b 00        		.byte	0x0
 8468 077c 05        		.uleb128 0x5
 8469 077d 02        		.byte	0x2
 8470 077e 0000 0000 		.long	.LM205
 8471 0782 15        		.byte	0x15
 8472 0783 00        		.byte	0x0
 8473 0784 05        		.uleb128 0x5
 8474 0785 02        		.byte	0x2
 8475 0786 0000 0000 		.long	.LM206
 8476 078a 15        		.byte	0x15
 8477 078b 00        		.byte	0x0
 8478 078c 05        		.uleb128 0x5
 8479 078d 02        		.byte	0x2
 8480 078e 0000 0000 		.long	.LM207
 8481 0792 15        		.byte	0x15
 8482 0793 00        		.byte	0x0
 8483 0794 05        		.uleb128 0x5
 8484 0795 02        		.byte	0x2
 8485 0796 0000 0000 		.long	.LM208
 8486 079a 16        		.byte	0x16
 8487 079b 00        		.byte	0x0
 8488 079c 05        		.uleb128 0x5
 8489 079d 02        		.byte	0x2
 8490 079e 0000 0000 		.long	.LM209
 8491 07a2 16        		.byte	0x16
 8492 07a3 00        		.byte	0x0
 8493 07a4 05        		.uleb128 0x5
 8494 07a5 02        		.byte	0x2
 8495 07a6 0000 0000 		.long	.LM210
 8496 07aa 15        		.byte	0x15
 8497 07ab 00        		.byte	0x0
 8498 07ac 05        		.uleb128 0x5
 8499 07ad 02        		.byte	0x2
 8500 07ae 0000 0000 		.long	.LM211
 8501 07b2 15        		.byte	0x15
 8502 07b3 00        		.byte	0x0
 8503 07b4 05        		.uleb128 0x5
 8504 07b5 02        		.byte	0x2
GAS LISTING C:\Users\ADMINI~1\AppData\Local\Temp/ccEBF6mf.s 			page 157


 8505 07b6 0000 0000 		.long	.LM212
 8506 07ba 1B        		.byte	0x1b
 8507 07bb 00        		.byte	0x0
 8508 07bc 05        		.uleb128 0x5
 8509 07bd 02        		.byte	0x2
 8510 07be 0000 0000 		.long	.LM213
 8511 07c2 15        		.byte	0x15
 8512 07c3 00        		.byte	0x0
 8513 07c4 05        		.uleb128 0x5
 8514 07c5 02        		.byte	0x2
 8515 07c6 0000 0000 		.long	.LM214
 8516 07ca 17        		.byte	0x17
 8517 07cb 00        		.byte	0x0
 8518 07cc 05        		.uleb128 0x5
 8519 07cd 02        		.byte	0x2
 8520 07ce 0000 0000 		.long	.LM215
 8521 07d2 17        		.byte	0x17
 8522 07d3 00        		.byte	0x0
 8523 07d4 05        		.uleb128 0x5
 8524 07d5 02        		.byte	0x2
 8525 07d6 0000 0000 		.long	.LM216
 8526 07da 17        		.byte	0x17
 8527 07db 00        		.byte	0x0
 8528 07dc 05        		.uleb128 0x5
 8529 07dd 02        		.byte	0x2
 8530 07de 0000 0000 		.long	.LM217
 8531 07e2 15        		.byte	0x15
 8532 07e3 00        		.byte	0x0
 8533 07e4 05        		.uleb128 0x5
 8534 07e5 02        		.byte	0x2
 8535 07e6 0000 0000 		.long	.LM218
 8536 07ea 16        		.byte	0x16
 8537 07eb 00        		.byte	0x0
 8538 07ec 05        		.uleb128 0x5
 8539 07ed 02        		.byte	0x2
 8540 07ee 0000 0000 		.long	.LM219
 8541 07f2 17        		.byte	0x17
 8542 07f3 00        		.byte	0x0
 8543 07f4 05        		.uleb128 0x5
 8544 07f5 02        		.byte	0x2
 8545 07f6 0000 0000 		.long	.LM220
 8546 07fa 18        		.byte	0x18
 8547 07fb 00        		.byte	0x0
 8548 07fc 05        		.uleb128 0x5
 8549 07fd 02        		.byte	0x2
 8550 07fe 0000 0000 		.long	.LM221
 8551 0802 15        		.byte	0x15
 8552 0803 00        		.byte	0x0
 8553 0804 05        		.uleb128 0x5
 8554 0805 02        		.byte	0x2
 8555 0806 0000 0000 		.long	.LM222
 8556 080a 16        		.byte	0x16
 8557 080b 00        		.byte	0x0
 8558 080c 05        		.uleb128 0x5
 8559 080d 02        		.byte	0x2
 8560 080e 0000 0000 		.long	.LM223
 8561 0812 19        		.byte	0x19
GAS LISTING C:\Users\ADMINI~1\AppData\Local\Temp/ccEBF6mf.s 			page 158


 8562 0813 00        		.byte	0x0
 8563 0814 05        		.uleb128 0x5
 8564 0815 02        		.byte	0x2
 8565 0816 0000 0000 		.long	.LM224
 8566 081a 15        		.byte	0x15
 8567 081b 00        		.byte	0x0
 8568 081c 05        		.uleb128 0x5
 8569 081d 02        		.byte	0x2
 8570 081e 0000 0000 		.long	.LM225
 8571 0822 17        		.byte	0x17
 8572 0823 00        		.byte	0x0
 8573 0824 05        		.uleb128 0x5
 8574 0825 02        		.byte	0x2
 8575 0826 0000 0000 		.long	.LM226
 8576 082a 1B        		.byte	0x1b
 8577 082b 00        		.byte	0x0
 8578 082c 05        		.uleb128 0x5
 8579 082d 02        		.byte	0x2
 8580 082e 0000 0000 		.long	.LM227
 8581 0832 16        		.byte	0x16
 8582 0833 00        		.byte	0x0
 8583 0834 05        		.uleb128 0x5
 8584 0835 02        		.byte	0x2
 8585 0836 0000 0000 		.long	.LM228
 8586 083a 15        		.byte	0x15
 8587 083b 00        		.byte	0x0
 8588 083c 05        		.uleb128 0x5
 8589 083d 02        		.byte	0x2
 8590 083e 0000 0000 		.long	.LM229
 8591 0842 16        		.byte	0x16
 8592 0843 00        		.byte	0x0
 8593 0844 05        		.uleb128 0x5
 8594 0845 02        		.byte	0x2
 8595 0846 0000 0000 		.long	.LM230
 8596 084a 15        		.byte	0x15
 8597 084b 00        		.byte	0x0
 8598 084c 05        		.uleb128 0x5
 8599 084d 02        		.byte	0x2
 8600 084e 0000 0000 		.long	.LM231
 8601 0852 1D        		.byte	0x1d
 8602 0853 00        		.byte	0x0
 8603 0854 05        		.uleb128 0x5
 8604 0855 02        		.byte	0x2
 8605 0856 0000 0000 		.long	.LM232
 8606 085a 15        		.byte	0x15
 8607 085b 00        		.byte	0x0
 8608 085c 05        		.uleb128 0x5
 8609 085d 02        		.byte	0x2
 8610 085e 0000 0000 		.long	.LM233
 8611 0862 15        		.byte	0x15
 8612 0863 00        		.byte	0x0
 8613 0864 05        		.uleb128 0x5
 8614 0865 02        		.byte	0x2
 8615 0866 0000 0000 		.long	.LM234
 8616 086a 16        		.byte	0x16
 8617 086b 00        		.byte	0x0
 8618 086c 05        		.uleb128 0x5
GAS LISTING C:\Users\ADMINI~1\AppData\Local\Temp/ccEBF6mf.s 			page 159


 8619 086d 02        		.byte	0x2
 8620 086e 0000 0000 		.long	.LM235
 8621 0872 15        		.byte	0x15
 8622 0873 00        		.byte	0x0
 8623 0874 05        		.uleb128 0x5
 8624 0875 02        		.byte	0x2
 8625 0876 0000 0000 		.long	.LM236
 8626 087a 15        		.byte	0x15
 8627 087b 00        		.byte	0x0
 8628 087c 05        		.uleb128 0x5
 8629 087d 02        		.byte	0x2
 8630 087e 0000 0000 		.long	.LM237
 8631 0882 17        		.byte	0x17
 8632 0883 00        		.byte	0x0
 8633 0884 05        		.uleb128 0x5
 8634 0885 02        		.byte	0x2
 8635 0886 0000 0000 		.long	.LM238
 8636 088a 16        		.byte	0x16
 8637 088b 00        		.byte	0x0
 8638 088c 05        		.uleb128 0x5
 8639 088d 02        		.byte	0x2
 8640 088e 0000 0000 		.long	.LM239
 8641 0892 15        		.byte	0x15
 8642 0893 00        		.byte	0x0
 8643 0894 05        		.uleb128 0x5
 8644 0895 02        		.byte	0x2
 8645 0896 0000 0000 		.long	.LM240
 8646 089a 15        		.byte	0x15
 8647 089b 00        		.byte	0x0
 8648 089c 05        		.uleb128 0x5
 8649 089d 02        		.byte	0x2
 8650 089e 0000 0000 		.long	.LM241
 8651 08a2 03        		.byte	0x3
 8652 08a3 C97D      		.sleb128 -311
 8653 08a5 01        		.byte	0x1
 8654 08a6 00        		.byte	0x0
 8655 08a7 05        		.uleb128 0x5
 8656 08a8 02        		.byte	0x2
 8657 08a9 0000 0000 		.long	.LM242
 8658 08ad 15        		.byte	0x15
 8659 08ae 00        		.byte	0x0
 8660 08af 05        		.uleb128 0x5
 8661 08b0 02        		.byte	0x2
 8662 08b1 0000 0000 		.long	.LM243
 8663 08b5 15        		.byte	0x15
 8664 08b6 00        		.byte	0x0
 8665 08b7 05        		.uleb128 0x5
 8666 08b8 02        		.byte	0x2
 8667 08b9 0000 0000 		.long	.LM244
 8668 08bd 15        		.byte	0x15
 8669 08be 00        		.byte	0x0
 8670 08bf 05        		.uleb128 0x5
 8671 08c0 02        		.byte	0x2
 8672 08c1 0000 0000 		.long	.LM245
 8673 08c5 15        		.byte	0x15
 8674 08c6 00        		.byte	0x0
 8675 08c7 05        		.uleb128 0x5
GAS LISTING C:\Users\ADMINI~1\AppData\Local\Temp/ccEBF6mf.s 			page 160


 8676 08c8 02        		.byte	0x2
 8677 08c9 0000 0000 		.long	.LM246
 8678 08cd 15        		.byte	0x15
 8679 08ce 00        		.byte	0x0
 8680 08cf 05        		.uleb128 0x5
 8681 08d0 02        		.byte	0x2
 8682 08d1 0000 0000 		.long	.LM247
 8683 08d5 17        		.byte	0x17
 8684 08d6 00        		.byte	0x0
 8685 08d7 05        		.uleb128 0x5
 8686 08d8 02        		.byte	0x2
 8687 08d9 0000 0000 		.long	.LM248
 8688 08dd 15        		.byte	0x15
 8689 08de 00        		.byte	0x0
 8690 08df 05        		.uleb128 0x5
 8691 08e0 02        		.byte	0x2
 8692 08e1 0000 0000 		.long	.LM249
 8693 08e5 15        		.byte	0x15
 8694 08e6 00        		.byte	0x0
 8695 08e7 05        		.uleb128 0x5
 8696 08e8 02        		.byte	0x2
 8697 08e9 0000 0000 		.long	.LM250
 8698 08ed 03        		.byte	0x3
 8699 08ee AF02      		.sleb128 303
 8700 08f0 01        		.byte	0x1
 8701 08f1 00        		.byte	0x0
 8702 08f2 05        		.uleb128 0x5
 8703 08f3 02        		.byte	0x2
 8704 08f4 0000 0000 		.long	.LM251
 8705 08f8 15        		.byte	0x15
 8706 08f9 00        		.byte	0x0
 8707 08fa 05        		.uleb128 0x5
 8708 08fb 02        		.byte	0x2
 8709 08fc 0000 0000 		.long	.LM252
 8710 0900 15        		.byte	0x15
 8711 0901 00        		.byte	0x0
 8712 0902 05        		.uleb128 0x5
 8713 0903 02        		.byte	0x2
 8714 0904 0000 0000 		.long	.LM253
 8715 0908 15        		.byte	0x15
 8716 0909 00        		.byte	0x0
 8717 090a 05        		.uleb128 0x5
 8718 090b 02        		.byte	0x2
 8719 090c 0000 0000 		.long	.LM254
 8720 0910 15        		.byte	0x15
 8721 0911 00        		.byte	0x0
 8722 0912 05        		.uleb128 0x5
 8723 0913 02        		.byte	0x2
 8724 0914 0000 0000 		.long	.LM255
 8725 0918 15        		.byte	0x15
 8726 0919 00        		.byte	0x0
 8727 091a 05        		.uleb128 0x5
 8728 091b 02        		.byte	0x2
 8729 091c 0000 0000 		.long	.LM256
 8730 0920 18        		.byte	0x18
 8731 0921 00        		.byte	0x0
 8732 0922 05        		.uleb128 0x5
GAS LISTING C:\Users\ADMINI~1\AppData\Local\Temp/ccEBF6mf.s 			page 161


 8733 0923 02        		.byte	0x2
 8734 0924 0000 0000 		.long	.LM257
 8735 0928 15        		.byte	0x15
 8736 0929 00        		.byte	0x0
 8737 092a 05        		.uleb128 0x5
 8738 092b 02        		.byte	0x2
 8739 092c 0000 0000 		.long	.LM258
 8740 0930 17        		.byte	0x17
 8741 0931 00        		.byte	0x0
 8742 0932 05        		.uleb128 0x5
 8743 0933 02        		.byte	0x2
 8744 0934 0000 0000 		.long	.LM259
 8745 0938 15        		.byte	0x15
 8746 0939 00        		.byte	0x0
 8747 093a 05        		.uleb128 0x5
 8748 093b 02        		.byte	0x2
 8749 093c 0000 0000 		.long	.LM260
 8750 0940 16        		.byte	0x16
 8751 0941 00        		.byte	0x0
 8752 0942 05        		.uleb128 0x5
 8753 0943 02        		.byte	0x2
 8754 0944 0000 0000 		.long	.LM261
 8755 0948 15        		.byte	0x15
 8756 0949 00        		.byte	0x0
 8757 094a 05        		.uleb128 0x5
 8758 094b 02        		.byte	0x2
 8759 094c 0000 0000 		.long	.LM262
 8760 0950 15        		.byte	0x15
 8761 0951 00        		.byte	0x0
 8762 0952 05        		.uleb128 0x5
 8763 0953 02        		.byte	0x2
 8764 0954 0000 0000 		.long	.LM263
 8765 0958 15        		.byte	0x15
 8766 0959 00        		.byte	0x0
 8767 095a 05        		.uleb128 0x5
 8768 095b 02        		.byte	0x2
 8769 095c 0000 0000 		.long	.LM264
 8770 0960 17        		.byte	0x17
 8771 0961 00        		.byte	0x0
 8772 0962 05        		.uleb128 0x5
 8773 0963 02        		.byte	0x2
 8774 0964 0000 0000 		.long	.LM265
 8775 0968 15        		.byte	0x15
 8776 0969 00        		.byte	0x0
 8777 096a 05        		.uleb128 0x5
 8778 096b 02        		.byte	0x2
 8779 096c 0000 0000 		.long	.LM266
 8780 0970 15        		.byte	0x15
 8781 0971 00        		.byte	0x0
 8782 0972 05        		.uleb128 0x5
 8783 0973 02        		.byte	0x2
 8784 0974 0000 0000 		.long	.LM267
 8785 0978 17        		.byte	0x17
 8786 0979 00        		.byte	0x0
 8787 097a 05        		.uleb128 0x5
 8788 097b 02        		.byte	0x2
 8789 097c 0000 0000 		.long	.LM268
GAS LISTING C:\Users\ADMINI~1\AppData\Local\Temp/ccEBF6mf.s 			page 162


 8790 0980 16        		.byte	0x16
 8791 0981 00        		.byte	0x0
 8792 0982 05        		.uleb128 0x5
 8793 0983 02        		.byte	0x2
 8794 0984 0000 0000 		.long	.LM269
 8795 0988 17        		.byte	0x17
 8796 0989 00        		.byte	0x0
 8797 098a 05        		.uleb128 0x5
 8798 098b 02        		.byte	0x2
 8799 098c 0000 0000 		.long	.LM270
 8800 0990 15        		.byte	0x15
 8801 0991 00        		.byte	0x0
 8802 0992 05        		.uleb128 0x5
 8803 0993 02        		.byte	0x2
 8804 0994 0000 0000 		.long	.LM271
 8805 0998 15        		.byte	0x15
 8806 0999 00        		.byte	0x0
 8807 099a 05        		.uleb128 0x5
 8808 099b 02        		.byte	0x2
 8809 099c 0000 0000 		.long	.LM272
 8810 09a0 15        		.byte	0x15
 8811 09a1 00        		.byte	0x0
 8812 09a2 05        		.uleb128 0x5
 8813 09a3 02        		.byte	0x2
 8814 09a4 0000 0000 		.long	.LM273
 8815 09a8 15        		.byte	0x15
 8816 09a9 00        		.byte	0x0
 8817 09aa 05        		.uleb128 0x5
 8818 09ab 02        		.byte	0x2
 8819 09ac 0000 0000 		.long	.LM274
 8820 09b0 03        		.byte	0x3
 8821 09b1 A77B      		.sleb128 -601
 8822 09b3 01        		.byte	0x1
 8823 09b4 00        		.byte	0x0
 8824 09b5 05        		.uleb128 0x5
 8825 09b6 02        		.byte	0x2
 8826 09b7 0000 0000 		.long	.LM275
 8827 09bb 15        		.byte	0x15
 8828 09bc 00        		.byte	0x0
 8829 09bd 05        		.uleb128 0x5
 8830 09be 02        		.byte	0x2
 8831 09bf 0000 0000 		.long	.LM276
 8832 09c3 03        		.byte	0x3
 8833 09c4 DA04      		.sleb128 602
 8834 09c6 01        		.byte	0x1
 8835 09c7 00        		.byte	0x0
 8836 09c8 05        		.uleb128 0x5
 8837 09c9 02        		.byte	0x2
 8838 09ca 0000 0000 		.long	.LM277
 8839 09ce 15        		.byte	0x15
 8840 09cf 00        		.byte	0x0
 8841 09d0 05        		.uleb128 0x5
 8842 09d1 02        		.byte	0x2
 8843 09d2 0000 0000 		.long	.LM278
 8844 09d6 15        		.byte	0x15
 8845 09d7 00        		.byte	0x0
 8846 09d8 05        		.uleb128 0x5
GAS LISTING C:\Users\ADMINI~1\AppData\Local\Temp/ccEBF6mf.s 			page 163


 8847 09d9 02        		.byte	0x2
 8848 09da 0000 0000 		.long	.LM279
 8849 09de 1E        		.byte	0x1e
 8850 09df 00        		.byte	0x0
 8851 09e0 05        		.uleb128 0x5
 8852 09e1 02        		.byte	0x2
 8853 09e2 0000 0000 		.long	.LM280
 8854 09e6 16        		.byte	0x16
 8855 09e7 00        		.byte	0x0
 8856 09e8 05        		.uleb128 0x5
 8857 09e9 02        		.byte	0x2
 8858 09ea 0000 0000 		.long	.LM281
 8859 09ee 16        		.byte	0x16
 8860 09ef 00        		.byte	0x0
 8861 09f0 05        		.uleb128 0x5
 8862 09f1 02        		.byte	0x2
 8863 09f2 0000 0000 		.long	.LM282
 8864 09f6 15        		.byte	0x15
 8865 09f7 00        		.byte	0x0
 8866 09f8 05        		.uleb128 0x5
 8867 09f9 02        		.byte	0x2
 8868 09fa 0000 0000 		.long	.LM283
 8869 09fe 16        		.byte	0x16
 8870 09ff 00        		.byte	0x0
 8871 0a00 05        		.uleb128 0x5
 8872 0a01 02        		.byte	0x2
 8873 0a02 0000 0000 		.long	.LM284
 8874 0a06 15        		.byte	0x15
 8875 0a07 00        		.byte	0x0
 8876 0a08 05        		.uleb128 0x5
 8877 0a09 02        		.byte	0x2
 8878 0a0a 0000 0000 		.long	.LM285
 8879 0a0e 1D        		.byte	0x1d
 8880 0a0f 00        		.byte	0x0
 8881 0a10 05        		.uleb128 0x5
 8882 0a11 02        		.byte	0x2
 8883 0a12 0000 0000 		.long	.LM286
 8884 0a16 16        		.byte	0x16
 8885 0a17 00        		.byte	0x0
 8886 0a18 05        		.uleb128 0x5
 8887 0a19 02        		.byte	0x2
 8888 0a1a 0000 0000 		.long	.LM287
 8889 0a1e 16        		.byte	0x16
 8890 0a1f 00        		.byte	0x0
 8891 0a20 05        		.uleb128 0x5
 8892 0a21 02        		.byte	0x2
 8893 0a22 0000 0000 		.long	.LM288
 8894 0a26 16        		.byte	0x16
 8895 0a27 00        		.byte	0x0
 8896 0a28 05        		.uleb128 0x5
 8897 0a29 02        		.byte	0x2
 8898 0a2a 0000 0000 		.long	.LM289
 8899 0a2e 16        		.byte	0x16
 8900 0a2f 00        		.byte	0x0
 8901 0a30 05        		.uleb128 0x5
 8902 0a31 02        		.byte	0x2
 8903 0a32 0000 0000 		.long	.LM290
GAS LISTING C:\Users\ADMINI~1\AppData\Local\Temp/ccEBF6mf.s 			page 164


 8904 0a36 17        		.byte	0x17
 8905 0a37 00        		.byte	0x0
 8906 0a38 05        		.uleb128 0x5
 8907 0a39 02        		.byte	0x2
 8908 0a3a 0000 0000 		.long	.LM291
 8909 0a3e 15        		.byte	0x15
 8910 0a3f 00        		.byte	0x0
 8911 0a40 05        		.uleb128 0x5
 8912 0a41 02        		.byte	0x2
 8913 0a42 0000 0000 		.long	.LM292
 8914 0a46 15        		.byte	0x15
 8915 0a47 00        		.byte	0x0
 8916 0a48 05        		.uleb128 0x5
 8917 0a49 02        		.byte	0x2
 8918 0a4a 0000 0000 		.long	.LM293
 8919 0a4e 15        		.byte	0x15
 8920 0a4f 00        		.byte	0x0
 8921 0a50 05        		.uleb128 0x5
 8922 0a51 02        		.byte	0x2
 8923 0a52 0000 0000 		.long	.LM294
 8924 0a56 16        		.byte	0x16
 8925 0a57 00        		.byte	0x0
 8926 0a58 05        		.uleb128 0x5
 8927 0a59 02        		.byte	0x2
 8928 0a5a 0000 0000 		.long	.LM295
 8929 0a5e 15        		.byte	0x15
 8930 0a5f 00        		.byte	0x0
 8931 0a60 05        		.uleb128 0x5
 8932 0a61 02        		.byte	0x2
 8933 0a62 0000 0000 		.long	.LM296
 8934 0a66 1E        		.byte	0x1e
 8935 0a67 00        		.byte	0x0
 8936 0a68 05        		.uleb128 0x5
 8937 0a69 02        		.byte	0x2
 8938 0a6a 0000 0000 		.long	.LM297
 8939 0a6e 04        		.byte	0x4
 8940 0a6f 02        		.uleb128 0x2
 8941 0a70 03        		.byte	0x3
 8942 0a71 F379      		.sleb128 -781
 8943 0a73 01        		.byte	0x1
 8944 0a74 00        		.byte	0x0
 8945 0a75 05        		.uleb128 0x5
 8946 0a76 02        		.byte	0x2
 8947 0a77 0000 0000 		.long	.LM298
 8948 0a7b 04        		.byte	0x4
 8949 0a7c 03        		.uleb128 0x3
 8950 0a7d 27        		.byte	0x27
 8951 0a7e 00        		.byte	0x0
 8952 0a7f 05        		.uleb128 0x5
 8953 0a80 02        		.byte	0x2
 8954 0a81 0000 0000 		.long	.LM299
 8955 0a85 10        		.byte	0x10
 8956 0a86 00        		.byte	0x0
 8957 0a87 05        		.uleb128 0x5
 8958 0a88 02        		.byte	0x2
 8959 0a89 0000 0000 		.long	.LM300
 8960 0a8d 04        		.byte	0x4
GAS LISTING C:\Users\ADMINI~1\AppData\Local\Temp/ccEBF6mf.s 			page 165


 8961 0a8e 01        		.uleb128 0x1
 8962 0a8f 03        		.byte	0x3
 8963 0a90 8106      		.sleb128 769
 8964 0a92 01        		.byte	0x1
 8965 0a93 00        		.byte	0x0
 8966 0a94 05        		.uleb128 0x5
 8967 0a95 02        		.byte	0x2
 8968 0a96 0000 0000 		.long	.LM301
 8969 0a9a 16        		.byte	0x16
 8970 0a9b 00        		.byte	0x0
 8971 0a9c 05        		.uleb128 0x5
 8972 0a9d 02        		.byte	0x2
 8973 0a9e 0000 0000 		.long	.LM302
 8974 0aa2 12        		.byte	0x12
 8975 0aa3 00        		.byte	0x0
 8976 0aa4 05        		.uleb128 0x5
 8977 0aa5 02        		.byte	0x2
 8978 0aa6 0000 0000 		.long	.LM303
 8979 0aaa 16        		.byte	0x16
 8980 0aab 00        		.byte	0x0
 8981 0aac 05        		.uleb128 0x5
 8982 0aad 02        		.byte	0x2
 8983 0aae 0000 0000 		.long	.LM304
 8984 0ab2 15        		.byte	0x15
 8985 0ab3 00        		.byte	0x0
 8986 0ab4 05        		.uleb128 0x5
 8987 0ab5 02        		.byte	0x2
 8988 0ab6 0000 0000 		.long	.LM305
 8989 0aba 15        		.byte	0x15
 8990 0abb 00        		.byte	0x0
 8991 0abc 05        		.uleb128 0x5
 8992 0abd 02        		.byte	0x2
 8993 0abe 0000 0000 		.long	.LM306
 8994 0ac2 15        		.byte	0x15
 8995 0ac3 00        		.byte	0x0
 8996 0ac4 05        		.uleb128 0x5
 8997 0ac5 02        		.byte	0x2
 8998 0ac6 0000 0000 		.long	.LM307
 8999 0aca 15        		.byte	0x15
 9000 0acb 00        		.byte	0x0
 9001 0acc 05        		.uleb128 0x5
 9002 0acd 02        		.byte	0x2
 9003 0ace 0000 0000 		.long	.LM308
 9004 0ad2 15        		.byte	0x15
 9005 0ad3 00        		.byte	0x0
 9006 0ad4 05        		.uleb128 0x5
 9007 0ad5 02        		.byte	0x2
 9008 0ad6 0000 0000 		.long	.LM309
 9009 0ada 15        		.byte	0x15
 9010 0adb 00        		.byte	0x0
 9011 0adc 05        		.uleb128 0x5
 9012 0add 02        		.byte	0x2
 9013 0ade 0000 0000 		.long	.LM310
 9014 0ae2 16        		.byte	0x16
 9015 0ae3 00        		.byte	0x0
 9016 0ae4 05        		.uleb128 0x5
 9017 0ae5 02        		.byte	0x2
GAS LISTING C:\Users\ADMINI~1\AppData\Local\Temp/ccEBF6mf.s 			page 166


 9018 0ae6 0000 0000 		.long	.LM311
 9019 0aea 15        		.byte	0x15
 9020 0aeb 00        		.byte	0x0
 9021 0aec 05        		.uleb128 0x5
 9022 0aed 02        		.byte	0x2
 9023 0aee 0000 0000 		.long	.LM312
 9024 0af2 15        		.byte	0x15
 9025 0af3 00        		.byte	0x0
 9026 0af4 05        		.uleb128 0x5
 9027 0af5 02        		.byte	0x2
 9028 0af6 0000 0000 		.long	.LM313
 9029 0afa 15        		.byte	0x15
 9030 0afb 00        		.byte	0x0
 9031 0afc 05        		.uleb128 0x5
 9032 0afd 02        		.byte	0x2
 9033 0afe 0000 0000 		.long	.LM314
 9034 0b02 15        		.byte	0x15
 9035 0b03 00        		.byte	0x0
 9036 0b04 05        		.uleb128 0x5
 9037 0b05 02        		.byte	0x2
 9038 0b06 0000 0000 		.long	.LM315
 9039 0b0a 15        		.byte	0x15
 9040 0b0b 00        		.byte	0x0
 9041 0b0c 05        		.uleb128 0x5
 9042 0b0d 02        		.byte	0x2
 9043 0b0e 0000 0000 		.long	.LM316
 9044 0b12 17        		.byte	0x17
 9045 0b13 00        		.byte	0x0
 9046 0b14 05        		.uleb128 0x5
 9047 0b15 02        		.byte	0x2
 9048 0b16 0000 0000 		.long	.LM317
 9049 0b1a 15        		.byte	0x15
 9050 0b1b 00        		.byte	0x0
 9051 0b1c 05        		.uleb128 0x5
 9052 0b1d 02        		.byte	0x2
 9053 0b1e 0000 0000 		.long	.LM318
 9054 0b22 1B        		.byte	0x1b
 9055 0b23 00        		.byte	0x0
 9056 0b24 05        		.uleb128 0x5
 9057 0b25 02        		.byte	0x2
 9058 0b26 0000 0000 		.long	.LM319
 9059 0b2a 15        		.byte	0x15
 9060 0b2b 00        		.byte	0x0
 9061 0b2c 05        		.uleb128 0x5
 9062 0b2d 02        		.byte	0x2
 9063 0b2e 0000 0000 		.long	.LM320
 9064 0b32 15        		.byte	0x15
 9065 0b33 00        		.byte	0x0
 9066 0b34 05        		.uleb128 0x5
 9067 0b35 02        		.byte	0x2
 9068 0b36 0000 0000 		.long	.LM321
 9069 0b3a 15        		.byte	0x15
 9070 0b3b 00        		.byte	0x0
 9071 0b3c 05        		.uleb128 0x5
 9072 0b3d 02        		.byte	0x2
 9073 0b3e 0000 0000 		.long	.LM322
 9074 0b42 15        		.byte	0x15
GAS LISTING C:\Users\ADMINI~1\AppData\Local\Temp/ccEBF6mf.s 			page 167


 9075 0b43 00        		.byte	0x0
 9076 0b44 05        		.uleb128 0x5
 9077 0b45 02        		.byte	0x2
 9078 0b46 0000 0000 		.long	.LM323
 9079 0b4a 15        		.byte	0x15
 9080 0b4b 00        		.byte	0x0
 9081 0b4c 05        		.uleb128 0x5
 9082 0b4d 02        		.byte	0x2
 9083 0b4e 0000 0000 		.long	.LM324
 9084 0b52 15        		.byte	0x15
 9085 0b53 00        		.byte	0x0
 9086 0b54 05        		.uleb128 0x5
 9087 0b55 02        		.byte	0x2
 9088 0b56 0000 0000 		.long	.LM325
 9089 0b5a 15        		.byte	0x15
 9090 0b5b 00        		.byte	0x0
 9091 0b5c 05        		.uleb128 0x5
 9092 0b5d 02        		.byte	0x2
 9093 0b5e 0000 0000 		.long	.LM326
 9094 0b62 15        		.byte	0x15
 9095 0b63 00        		.byte	0x0
 9096 0b64 05        		.uleb128 0x5
 9097 0b65 02        		.byte	0x2
 9098 0b66 0000 0000 		.long	.LM327
 9099 0b6a 03        		.byte	0x3
 9100 0b6b F67A      		.sleb128 -650
 9101 0b6d 01        		.byte	0x1
 9102 0b6e 00        		.byte	0x0
 9103 0b6f 05        		.uleb128 0x5
 9104 0b70 02        		.byte	0x2
 9105 0b71 0000 0000 		.long	.LM328
 9106 0b75 03        		.byte	0x3
 9107 0b76 8C05      		.sleb128 652
 9108 0b78 01        		.byte	0x1
 9109 0b79 00        		.byte	0x0
 9110 0b7a 05        		.uleb128 0x5
 9111 0b7b 02        		.byte	0x2
 9112 0b7c 0000 0000 		.long	.LM329
 9113 0b80 15        		.byte	0x15
 9114 0b81 00        		.byte	0x0
 9115 0b82 05        		.uleb128 0x5
 9116 0b83 02        		.byte	0x2
 9117 0b84 0000 0000 		.long	.LM330
 9118 0b88 16        		.byte	0x16
 9119 0b89 00        		.byte	0x0
 9120 0b8a 05        		.uleb128 0x5
 9121 0b8b 02        		.byte	0x2
 9122 0b8c 0000 0000 		.long	.LM331
 9123 0b90 15        		.byte	0x15
 9124 0b91 00        		.byte	0x0
 9125 0b92 05        		.uleb128 0x5
 9126 0b93 02        		.byte	0x2
 9127 0b94 0000 0000 		.long	.LM332
 9128 0b98 15        		.byte	0x15
 9129 0b99 00        		.byte	0x0
 9130 0b9a 05        		.uleb128 0x5
 9131 0b9b 02        		.byte	0x2
GAS LISTING C:\Users\ADMINI~1\AppData\Local\Temp/ccEBF6mf.s 			page 168


 9132 0b9c 0000 0000 		.long	.LM333
 9133 0ba0 16        		.byte	0x16
 9134 0ba1 00        		.byte	0x0
 9135 0ba2 05        		.uleb128 0x5
 9136 0ba3 02        		.byte	0x2
 9137 0ba4 0000 0000 		.long	.LM334
 9138 0ba8 16        		.byte	0x16
 9139 0ba9 00        		.byte	0x0
 9140 0baa 05        		.uleb128 0x5
 9141 0bab 02        		.byte	0x2
 9142 0bac 0000 0000 		.long	.LM335
 9143 0bb0 18        		.byte	0x18
 9144 0bb1 00        		.byte	0x0
 9145 0bb2 05        		.uleb128 0x5
 9146 0bb3 02        		.byte	0x2
 9147 0bb4 0000 0000 		.long	.LM336
 9148 0bb8 16        		.byte	0x16
 9149 0bb9 00        		.byte	0x0
 9150 0bba 05        		.uleb128 0x5
 9151 0bbb 02        		.byte	0x2
 9152 0bbc 0000 0000 		.long	.LM337
 9153 0bc0 16        		.byte	0x16
 9154 0bc1 00        		.byte	0x0
 9155 0bc2 05        		.uleb128 0x5
 9156 0bc3 02        		.byte	0x2
 9157 0bc4 0000 0000 		.long	.LM338
 9158 0bc8 17        		.byte	0x17
 9159 0bc9 00        		.byte	0x0
 9160 0bca 05        		.uleb128 0x5
 9161 0bcb 02        		.byte	0x2
 9162 0bcc 0000 0000 		.long	.LM339
 9163 0bd0 19        		.byte	0x19
 9164 0bd1 00        		.byte	0x0
 9165 0bd2 05        		.uleb128 0x5
 9166 0bd3 02        		.byte	0x2
 9167 0bd4 0000 0000 		.long	.LM340
 9168 0bd8 15        		.byte	0x15
 9169 0bd9 00        		.byte	0x0
 9170 0bda 05        		.uleb128 0x5
 9171 0bdb 02        		.byte	0x2
 9172 0bdc 0000 0000 		.long	.LM341
 9173 0be0 15        		.byte	0x15
 9174 0be1 00        		.byte	0x0
 9175 0be2 05        		.uleb128 0x5
 9176 0be3 02        		.byte	0x2
 9177 0be4 0000 0000 		.long	.LM342
 9178 0be8 15        		.byte	0x15
 9179 0be9 00        		.byte	0x0
 9180 0bea 05        		.uleb128 0x5
 9181 0beb 02        		.byte	0x2
 9182 0bec 0000 0000 		.long	.LM343
 9183 0bf0 17        		.byte	0x17
 9184 0bf1 00        		.byte	0x0
 9185 0bf2 05        		.uleb128 0x5
 9186 0bf3 02        		.byte	0x2
 9187 0bf4 0000 0000 		.long	.LM344
 9188 0bf8 15        		.byte	0x15
GAS LISTING C:\Users\ADMINI~1\AppData\Local\Temp/ccEBF6mf.s 			page 169


 9189 0bf9 00        		.byte	0x0
 9190 0bfa 05        		.uleb128 0x5
 9191 0bfb 02        		.byte	0x2
 9192 0bfc 0000 0000 		.long	.LM345
 9193 0c00 17        		.byte	0x17
 9194 0c01 00        		.byte	0x0
 9195 0c02 05        		.uleb128 0x5
 9196 0c03 02        		.byte	0x2
 9197 0c04 0000 0000 		.long	.LM346
 9198 0c08 15        		.byte	0x15
 9199 0c09 00        		.byte	0x0
 9200 0c0a 05        		.uleb128 0x5
 9201 0c0b 02        		.byte	0x2
 9202 0c0c 0000 0000 		.long	.LM347
 9203 0c10 15        		.byte	0x15
 9204 0c11 00        		.byte	0x0
 9205 0c12 05        		.uleb128 0x5
 9206 0c13 02        		.byte	0x2
 9207 0c14 0000 0000 		.long	.LM348
 9208 0c18 04        		.byte	0x4
 9209 0c19 02        		.uleb128 0x2
 9210 0c1a 03        		.byte	0x3
 9211 0c1b A779      		.sleb128 -857
 9212 0c1d 01        		.byte	0x1
 9213 0c1e 00        		.byte	0x0
 9214 0c1f 05        		.uleb128 0x5
 9215 0c20 02        		.byte	0x2
 9216 0c21 0000 0000 		.long	.LM349
 9217 0c25 04        		.byte	0x4
 9218 0c26 03        		.uleb128 0x3
 9219 0c27 27        		.byte	0x27
 9220 0c28 00        		.byte	0x0
 9221 0c29 05        		.uleb128 0x5
 9222 0c2a 02        		.byte	0x2
 9223 0c2b 0000 0000 		.long	.LM350
 9224 0c2f 10        		.byte	0x10
 9225 0c30 00        		.byte	0x0
 9226 0c31 05        		.uleb128 0x5
 9227 0c32 02        		.byte	0x2
 9228 0c33 0000 0000 		.long	.LM351
 9229 0c37 04        		.byte	0x4
 9230 0c38 01        		.uleb128 0x1
 9231 0c39 03        		.byte	0x3
 9232 0c3a D206      		.sleb128 850
 9233 0c3c 01        		.byte	0x1
 9234 0c3d 00        		.byte	0x0
 9235 0c3e 05        		.uleb128 0x5
 9236 0c3f 02        		.byte	0x2
 9237 0c40 0000 0000 		.long	.LM352
 9238 0c44 17        		.byte	0x17
 9239 0c45 00        		.byte	0x0
 9240 0c46 05        		.uleb128 0x5
 9241 0c47 02        		.byte	0x2
 9242 0c48 0000 0000 		.long	.LM353
 9243 0c4c 03        		.byte	0x3
 9244 0c4d CE7C      		.sleb128 -434
 9245 0c4f 01        		.byte	0x1
GAS LISTING C:\Users\ADMINI~1\AppData\Local\Temp/ccEBF6mf.s 			page 170


 9246 0c50 00        		.byte	0x0
 9247 0c51 05        		.uleb128 0x5
 9248 0c52 02        		.byte	0x2
 9249 0c53 0000 0000 		.long	.LM354
 9250 0c57 01        		.byte	0x1
 9251 0c58 00        		.byte	0x0
 9252 0c59 05        		.uleb128 0x5
 9253 0c5a 02        		.byte	0x2
 9254 0c5b 0000 0000 		.long	.LM355
 9255 0c5f 1D        		.byte	0x1d
 9256 0c60 00        		.byte	0x0
 9257 0c61 05        		.uleb128 0x5
 9258 0c62 02        		.byte	0x2
 9259 0c63 0000 0000 		.long	.LM356
 9260 0c67 10        		.byte	0x10
 9261 0c68 00        		.byte	0x0
 9262 0c69 05        		.uleb128 0x5
 9263 0c6a 02        		.byte	0x2
 9264 0c6b 0000 0000 		.long	.LM357
 9265 0c6f 13        		.byte	0x13
 9266 0c70 00        		.byte	0x0
 9267 0c71 05        		.uleb128 0x5
 9268 0c72 02        		.byte	0x2
 9269 0c73 0000 0000 		.long	.LM358
 9270 0c77 1C        		.byte	0x1c
 9271 0c78 00        		.byte	0x0
 9272 0c79 05        		.uleb128 0x5
 9273 0c7a 02        		.byte	0x2
 9274 0c7b 0000 0000 		.long	.LM359
 9275 0c7f 16        		.byte	0x16
 9276 0c80 00        		.byte	0x0
 9277 0c81 05        		.uleb128 0x5
 9278 0c82 02        		.byte	0x2
 9279 0c83 0000 0000 		.long	.LM360
 9280 0c87 16        		.byte	0x16
 9281 0c88 00        		.byte	0x0
 9282 0c89 05        		.uleb128 0x5
 9283 0c8a 02        		.byte	0x2
 9284 0c8b 0000 0000 		.long	.LM361
 9285 0c8f 03        		.byte	0x3
 9286 0c90 B87D      		.sleb128 -328
 9287 0c92 01        		.byte	0x1
 9288 0c93 00        		.byte	0x0
 9289 0c94 05        		.uleb128 0x5
 9290 0c95 02        		.byte	0x2
 9291 0c96 0000 0000 		.long	.LM362
 9292 0c9a 15        		.byte	0x15
 9293 0c9b 00        		.byte	0x0
 9294 0c9c 05        		.uleb128 0x5
 9295 0c9d 02        		.byte	0x2
 9296 0c9e 0000 0000 		.long	.LM363
 9297 0ca2 03        		.byte	0x3
 9298 0ca3 C902      		.sleb128 329
 9299 0ca5 01        		.byte	0x1
 9300 0ca6 00        		.byte	0x0
 9301 0ca7 05        		.uleb128 0x5
 9302 0ca8 02        		.byte	0x2
GAS LISTING C:\Users\ADMINI~1\AppData\Local\Temp/ccEBF6mf.s 			page 171


 9303 0ca9 0000 0000 		.long	.LM364
 9304 0cad 16        		.byte	0x16
 9305 0cae 00        		.byte	0x0
 9306 0caf 05        		.uleb128 0x5
 9307 0cb0 02        		.byte	0x2
 9308 0cb1 0000 0000 		.long	.LM365
 9309 0cb5 15        		.byte	0x15
 9310 0cb6 00        		.byte	0x0
 9311 0cb7 05        		.uleb128 0x5
 9312 0cb8 02        		.byte	0x2
 9313 0cb9 0000 0000 		.long	.LM366
 9314 0cbd 15        		.byte	0x15
 9315 0cbe 00        		.byte	0x0
 9316 0cbf 05        		.uleb128 0x5
 9317 0cc0 02        		.byte	0x2
 9318 0cc1 0000 0000 		.long	.LM367
 9319 0cc5 15        		.byte	0x15
 9320 0cc6 00        		.byte	0x0
 9321 0cc7 05        		.uleb128 0x5
 9322 0cc8 02        		.byte	0x2
 9323 0cc9 0000 0000 		.long	.LM368
 9324 0ccd 15        		.byte	0x15
 9325 0cce 00        		.byte	0x0
 9326 0ccf 05        		.uleb128 0x5
 9327 0cd0 02        		.byte	0x2
 9328 0cd1 0000 0000 		.long	.LM369
 9329 0cd5 15        		.byte	0x15
 9330 0cd6 00        		.byte	0x0
 9331 0cd7 05        		.uleb128 0x5
 9332 0cd8 02        		.byte	0x2
 9333 0cd9 0000 0000 		.long	.LM370
 9334 0cdd 18        		.byte	0x18
 9335 0cde 00        		.byte	0x0
 9336 0cdf 05        		.uleb128 0x5
 9337 0ce0 02        		.byte	0x2
 9338 0ce1 0000 0000 		.long	.LM371
 9339 0ce5 15        		.byte	0x15
 9340 0ce6 00        		.byte	0x0
 9341 0ce7 05        		.uleb128 0x5
 9342 0ce8 02        		.byte	0x2
 9343 0ce9 0000 0000 		.long	.LM372
 9344 0ced 03        		.byte	0x3
 9345 0cee 56        		.sleb128 -42
 9346 0cef 01        		.byte	0x1
 9347 0cf0 00        		.byte	0x0
 9348 0cf1 05        		.uleb128 0x5
 9349 0cf2 02        		.byte	0x2
 9350 0cf3 0000 0000 		.long	.LM373
 9351 0cf7 15        		.byte	0x15
 9352 0cf8 00        		.byte	0x0
 9353 0cf9 05        		.uleb128 0x5
 9354 0cfa 02        		.byte	0x2
 9355 0cfb 0000 0000 		.long	.LM374
 9356 0cff 15        		.byte	0x15
 9357 0d00 00        		.byte	0x0
 9358 0d01 05        		.uleb128 0x5
 9359 0d02 02        		.byte	0x2
GAS LISTING C:\Users\ADMINI~1\AppData\Local\Temp/ccEBF6mf.s 			page 172


 9360 0d03 0000 0000 		.long	.LM375
 9361 0d07 15        		.byte	0x15
 9362 0d08 00        		.byte	0x0
 9363 0d09 05        		.uleb128 0x5
 9364 0d0a 02        		.byte	0x2
 9365 0d0b 0000 0000 		.long	.LM376
 9366 0d0f 15        		.byte	0x15
 9367 0d10 00        		.byte	0x0
 9368 0d11 05        		.uleb128 0x5
 9369 0d12 02        		.byte	0x2
 9370 0d13 0000 0000 		.long	.LM377
 9371 0d17 16        		.byte	0x16
 9372 0d18 00        		.byte	0x0
 9373 0d19 05        		.uleb128 0x5
 9374 0d1a 02        		.byte	0x2
 9375 0d1b 0000 0000 		.long	.LM378
 9376 0d1f 16        		.byte	0x16
 9377 0d20 00        		.byte	0x0
 9378 0d21 05        		.uleb128 0x5
 9379 0d22 02        		.byte	0x2
 9380 0d23 0000 0000 		.long	.LM379
 9381 0d27 15        		.byte	0x15
 9382 0d28 00        		.byte	0x0
 9383 0d29 05        		.uleb128 0x5
 9384 0d2a 02        		.byte	0x2
 9385 0d2b 0000 0000 		.long	.LM380
 9386 0d2f 03        		.byte	0x3
 9387 0d30 957E      		.sleb128 -235
 9388 0d32 01        		.byte	0x1
 9389 0d33 00        		.byte	0x0
 9390 0d34 05        		.uleb128 0x5
 9391 0d35 02        		.byte	0x2
 9392 0d36 0000 0000 		.long	.LM381
 9393 0d3a 16        		.byte	0x16
 9394 0d3b 00        		.byte	0x0
 9395 0d3c 05        		.uleb128 0x5
 9396 0d3d 02        		.byte	0x2
 9397 0d3e 0000 0000 		.long	.LM382
 9398 0d42 03        		.byte	0x3
 9399 0d43 6A        		.sleb128 -22
 9400 0d44 01        		.byte	0x1
 9401 0d45 00        		.byte	0x0
 9402 0d46 05        		.uleb128 0x5
 9403 0d47 02        		.byte	0x2
 9404 0d48 0000 0000 		.long	.LM383
 9405 0d4c 38        		.byte	0x38
 9406 0d4d 00        		.byte	0x0
 9407 0d4e 05        		.uleb128 0x5
 9408 0d4f 02        		.byte	0x2
 9409 0d50 0000 0000 		.long	.LM384
 9410 0d54 03        		.byte	0x3
 9411 0d55 54        		.sleb128 -44
 9412 0d56 01        		.byte	0x1
 9413 0d57 00        		.byte	0x0
 9414 0d58 05        		.uleb128 0x5
 9415 0d59 02        		.byte	0x2
 9416 0d5a 0000 0000 		.long	.LM385
GAS LISTING C:\Users\ADMINI~1\AppData\Local\Temp/ccEBF6mf.s 			page 173


 9417 0d5e 45        		.byte	0x45
 9418 0d5f 00        		.byte	0x0
 9419 0d60 05        		.uleb128 0x5
 9420 0d61 02        		.byte	0x2
 9421 0d62 0000 0000 		.long	.LM386
 9422 0d66 03        		.byte	0x3
 9423 0d67 8B02      		.sleb128 267
 9424 0d69 01        		.byte	0x1
 9425 0d6a 00        		.byte	0x0
 9426 0d6b 05        		.uleb128 0x5
 9427 0d6c 02        		.byte	0x2
 9428 0d6d 0000 0000 		.long	.LM387
 9429 0d71 15        		.byte	0x15
 9430 0d72 00        		.byte	0x0
 9431 0d73 05        		.uleb128 0x5
 9432 0d74 02        		.byte	0x2
 9433 0d75 0000 0000 		.long	.LM388
 9434 0d79 03        		.byte	0x3
 9435 0d7a D07D      		.sleb128 -304
 9436 0d7c 01        		.byte	0x1
 9437 0d7d 00        		.byte	0x0
 9438 0d7e 05        		.uleb128 0x5
 9439 0d7f 02        		.byte	0x2
 9440 0d80 0000 0000 		.long	.LM389
 9441 0d84 03        		.byte	0x3
 9442 0d85 B402      		.sleb128 308
 9443 0d87 01        		.byte	0x1
 9444 0d88 00        		.byte	0x0
 9445 0d89 05        		.uleb128 0x5
 9446 0d8a 02        		.byte	0x2
 9447 0d8b 0000 0000 		.long	.LM390
 9448 0d8f 16        		.byte	0x16
 9449 0d90 00        		.byte	0x0
 9450 0d91 05        		.uleb128 0x5
 9451 0d92 02        		.byte	0x2
 9452 0d93 0000 0000 		.long	.LM391
 9453 0d97 15        		.byte	0x15
 9454 0d98 00        		.byte	0x0
 9455 0d99 05        		.uleb128 0x5
 9456 0d9a 02        		.byte	0x2
 9457 0d9b 0000 0000 		.long	.LM392
 9458 0d9f 16        		.byte	0x16
 9459 0da0 00        		.byte	0x0
 9460 0da1 05        		.uleb128 0x5
 9461 0da2 02        		.byte	0x2
 9462 0da3 0000 0000 		.long	.LM393
 9463 0da7 17        		.byte	0x17
 9464 0da8 00        		.byte	0x0
 9465 0da9 05        		.uleb128 0x5
 9466 0daa 02        		.byte	0x2
 9467 0dab 0000 0000 		.long	.LM394
 9468 0daf 03        		.byte	0x3
 9469 0db0 FF7C      		.sleb128 -385
 9470 0db2 01        		.byte	0x1
 9471 0db3 00        		.byte	0x0
 9472 0db4 05        		.uleb128 0x5
 9473 0db5 02        		.byte	0x2
GAS LISTING C:\Users\ADMINI~1\AppData\Local\Temp/ccEBF6mf.s 			page 174


 9474 0db6 0000 0000 		.long	.LM395
 9475 0dba 03        		.byte	0x3
 9476 0dbb 9E7F      		.sleb128 -98
 9477 0dbd 01        		.byte	0x1
 9478 0dbe 00        		.byte	0x0
 9479 0dbf 05        		.uleb128 0x5
 9480 0dc0 02        		.byte	0x2
 9481 0dc1 0000 0000 		.long	.LM396
 9482 0dc5 77        		.byte	0x77
 9483 0dc6 00        		.byte	0x0
 9484 0dc7 05        		.uleb128 0x5
 9485 0dc8 02        		.byte	0x2
 9486 0dc9 0000 0000 		.long	.LM397
 9487 0dcd 03        		.byte	0x3
 9488 0dce 49        		.sleb128 -55
 9489 0dcf 01        		.byte	0x1
 9490 0dd0 00        		.byte	0x0
 9491 0dd1 05        		.uleb128 0x5
 9492 0dd2 02        		.byte	0x2
 9493 0dd3 0000 0000 		.long	.LM398
 9494 0dd7 16        		.byte	0x16
 9495 0dd8 00        		.byte	0x0
 9496 0dd9 05        		.uleb128 0x5
 9497 0dda 02        		.byte	0x2
 9498 0ddb 0000 0000 		.long	.LM399
 9499 0ddf 03        		.byte	0x3
 9500 0de0 6D        		.sleb128 -19
 9501 0de1 01        		.byte	0x1
 9502 0de2 00        		.byte	0x0
 9503 0de3 05        		.uleb128 0x5
 9504 0de4 02        		.byte	0x2
 9505 0de5 0000 0000 		.long	.LM400
 9506 0de9 03        		.byte	0x3
 9507 0dea 61        		.sleb128 -31
 9508 0deb 01        		.byte	0x1
 9509 0dec 00        		.byte	0x0
 9510 0ded 05        		.uleb128 0x5
 9511 0dee 02        		.byte	0x2
 9512 0def 0000 0000 		.long	.LM401
 9513 0df3 37        		.byte	0x37
 9514 0df4 00        		.byte	0x0
 9515 0df5 05        		.uleb128 0x5
 9516 0df6 02        		.byte	0x2
 9517 0df7 0000 0000 		.long	.LM402
 9518 0dfb 15        		.byte	0x15
 9519 0dfc 00        		.byte	0x0
 9520 0dfd 05        		.uleb128 0x5
 9521 0dfe 02        		.byte	0x2
 9522 0dff 0000 0000 		.long	.LM403
 9523 0e03 16        		.byte	0x16
 9524 0e04 00        		.byte	0x0
 9525 0e05 05        		.uleb128 0x5
 9526 0e06 02        		.byte	0x2
 9527 0e07 0000 0000 		.long	.LM404
 9528 0e0b 15        		.byte	0x15
 9529 0e0c 00        		.byte	0x0
 9530 0e0d 05        		.uleb128 0x5
GAS LISTING C:\Users\ADMINI~1\AppData\Local\Temp/ccEBF6mf.s 			page 175


 9531 0e0e 02        		.byte	0x2
 9532 0e0f 0000 0000 		.long	.LM405
 9533 0e13 18        		.byte	0x18
 9534 0e14 00        		.byte	0x0
 9535 0e15 05        		.uleb128 0x5
 9536 0e16 02        		.byte	0x2
 9537 0e17 0000 0000 		.long	.LM406
 9538 0e1b 16        		.byte	0x16
 9539 0e1c 00        		.byte	0x0
 9540 0e1d 05        		.uleb128 0x5
 9541 0e1e 02        		.byte	0x2
 9542 0e1f 0000 0000 		.long	.LM407
 9543 0e23 5D        		.byte	0x5d
 9544 0e24 00        		.byte	0x0
 9545 0e25 05        		.uleb128 0x5
 9546 0e26 02        		.byte	0x2
 9547 0e27 0000 0000 		.long	.LM408
 9548 0e2b 15        		.byte	0x15
 9549 0e2c 00        		.byte	0x0
 9550 0e2d 05        		.uleb128 0x5
 9551 0e2e 02        		.byte	0x2
 9552 0e2f 0000 0000 		.long	.LM409
 9553 0e33 15        		.byte	0x15
 9554 0e34 00        		.byte	0x0
 9555 0e35 05        		.uleb128 0x5
 9556 0e36 02        		.byte	0x2
 9557 0e37 0000 0000 		.long	.LM410
 9558 0e3b 15        		.byte	0x15
 9559 0e3c 00        		.byte	0x0
 9560 0e3d 05        		.uleb128 0x5
 9561 0e3e 02        		.byte	0x2
 9562 0e3f 0000 0000 		.long	.LM411
 9563 0e43 19        		.byte	0x19
 9564 0e44 00        		.byte	0x0
 9565 0e45 05        		.uleb128 0x5
 9566 0e46 02        		.byte	0x2
 9567 0e47 0000 0000 		.long	.LM412
 9568 0e4b 15        		.byte	0x15
 9569 0e4c 00        		.byte	0x0
 9570 0e4d 05        		.uleb128 0x5
 9571 0e4e 02        		.byte	0x2
 9572 0e4f 0000 0000 		.long	.LM413
 9573 0e53 16        		.byte	0x16
 9574 0e54 00        		.byte	0x0
 9575 0e55 05        		.uleb128 0x5
 9576 0e56 02        		.byte	0x2
 9577 0e57 0000 0000 		.long	.LM414
 9578 0e5b 15        		.byte	0x15
 9579 0e5c 00        		.byte	0x0
 9580 0e5d 05        		.uleb128 0x5
 9581 0e5e 02        		.byte	0x2
 9582 0e5f 0000 0000 		.long	.LM415
 9583 0e63 17        		.byte	0x17
 9584 0e64 00        		.byte	0x0
 9585 0e65 05        		.uleb128 0x5
 9586 0e66 02        		.byte	0x2
 9587 0e67 0000 0000 		.long	.LM416
GAS LISTING C:\Users\ADMINI~1\AppData\Local\Temp/ccEBF6mf.s 			page 176


 9588 0e6b 15        		.byte	0x15
 9589 0e6c 00        		.byte	0x0
 9590 0e6d 05        		.uleb128 0x5
 9591 0e6e 02        		.byte	0x2
 9592 0e6f 0000 0000 		.long	.LM417
 9593 0e73 16        		.byte	0x16
 9594 0e74 00        		.byte	0x0
 9595 0e75 05        		.uleb128 0x5
 9596 0e76 02        		.byte	0x2
 9597 0e77 0000 0000 		.long	.LM418
 9598 0e7b 15        		.byte	0x15
 9599 0e7c 00        		.byte	0x0
 9600 0e7d 05        		.uleb128 0x5
 9601 0e7e 02        		.byte	0x2
 9602 0e7f 0000 0000 		.long	.LM419
 9603 0e83 16        		.byte	0x16
 9604 0e84 00        		.byte	0x0
 9605 0e85 05        		.uleb128 0x5
 9606 0e86 02        		.byte	0x2
 9607 0e87 0000 0000 		.long	.LM420
 9608 0e8b 15        		.byte	0x15
 9609 0e8c 00        		.byte	0x0
 9610 0e8d 05        		.uleb128 0x5
 9611 0e8e 02        		.byte	0x2
 9612 0e8f 0000 0000 		.long	.LM421
 9613 0e93 17        		.byte	0x17
 9614 0e94 00        		.byte	0x0
 9615 0e95 05        		.uleb128 0x5
 9616 0e96 02        		.byte	0x2
 9617 0e97 0000 0000 		.long	.LM422
 9618 0e9b 16        		.byte	0x16
 9619 0e9c 00        		.byte	0x0
 9620 0e9d 05        		.uleb128 0x5
 9621 0e9e 02        		.byte	0x2
 9622 0e9f 0000 0000 		.long	.LM423
 9623 0ea3 17        		.byte	0x17
 9624 0ea4 00        		.byte	0x0
 9625 0ea5 05        		.uleb128 0x5
 9626 0ea6 02        		.byte	0x2
 9627 0ea7 0000 0000 		.long	.LM424
 9628 0eab 15        		.byte	0x15
 9629 0eac 00        		.byte	0x0
 9630 0ead 05        		.uleb128 0x5
 9631 0eae 02        		.byte	0x2
 9632 0eaf 0000 0000 		.long	.LM425
 9633 0eb3 15        		.byte	0x15
 9634 0eb4 00        		.byte	0x0
 9635 0eb5 05        		.uleb128 0x5
 9636 0eb6 02        		.byte	0x2
 9637 0eb7 0000 0000 		.long	.LM426
 9638 0ebb 03        		.byte	0x3
 9639 0ebc AB7F      		.sleb128 -85
 9640 0ebe 01        		.byte	0x1
 9641 0ebf 00        		.byte	0x0
 9642 0ec0 05        		.uleb128 0x5
 9643 0ec1 02        		.byte	0x2
 9644 0ec2 0000 0000 		.long	.LM427
GAS LISTING C:\Users\ADMINI~1\AppData\Local\Temp/ccEBF6mf.s 			page 177


 9645 0ec6 17        		.byte	0x17
 9646 0ec7 00        		.byte	0x0
 9647 0ec8 05        		.uleb128 0x5
 9648 0ec9 02        		.byte	0x2
 9649 0eca 0000 0000 		.long	.LM428
 9650 0ece 15        		.byte	0x15
 9651 0ecf 00        		.byte	0x0
 9652 0ed0 05        		.uleb128 0x5
 9653 0ed1 02        		.byte	0x2
 9654 0ed2 0000 0000 		.long	.LM429
 9655 0ed6 18        		.byte	0x18
 9656 0ed7 00        		.byte	0x0
 9657 0ed8 05        		.uleb128 0x5
 9658 0ed9 02        		.byte	0x2
 9659 0eda 0000 0000 		.long	.LM430
 9660 0ede 16        		.byte	0x16
 9661 0edf 00        		.byte	0x0
 9662 0ee0 05        		.uleb128 0x5
 9663 0ee1 02        		.byte	0x2
 9664 0ee2 0000 0000 		.long	.LM431
 9665 0ee6 15        		.byte	0x15
 9666 0ee7 00        		.byte	0x0
 9667 0ee8 05        		.uleb128 0x5
 9668 0ee9 02        		.byte	0x2
 9669 0eea 0000 0000 		.long	.Letext0
 9670 0eee 00        		.byte	0x0
 9671 0eef 01        		.uleb128 0x1
 9672 0ef0 01        		.byte	0x1
 9673               	.LELT0:
 9674 0ef1 1600 0000 		.section	.debug_str,"MS",@progbits,1
 9674      0200 1000 
 9674      0000 0101 
 9674      FB0E 0A00 
 9674      0101 0101 
 9675               	.LASF181:
 9676 0000 5F5F 6164 		.string	"__addr16"
 9676      6472 3136 
 9676      00
 9677               	.LASF207:
 9678 0009 7072 696E 		.string	"printStringFromFlash"
 9678      7453 7472 
 9678      696E 6746 
 9678      726F 6D46 
 9678      6C61 7368 
 9679               	.LASF255:
 9680 001e 5F63 7572 		.string	"_currentLayer"
 9680      7265 6E74 
 9680      4C61 7965 
 9680      7200 
 9681               	.LASF95:
 9682 002c 4B45 595F 		.string	"KEY_SCRLCK"
 9682      5343 524C 
 9682      434B 00
 9683               	.LASF251:
 9684 0037 5F62 7566 		.string	"_buffer"
 9684      6665 7200 
 9685               	.LASF257:
GAS LISTING C:\Users\ADMINI~1\AppData\Local\Temp/ccEBF6mf.s 			page 178


 9686 003f 7573 696E 		.string	"usingKeys"
 9686      674B 6579 
 9686      7300 
 9687               	.LASF159:
 9688 0049 4B45 595F 		.string	"KEY_REC"
 9688      5245 4300 
 9689               	.LASF283:
 9690 0051 7374 725F 		.string	"str_cancel_mapping"
 9690      6361 6E63 
 9690      656C 5F6D 
 9690      6170 7069 
 9690      6E67 00
 9691               	.LASF215:
 9692 0064 7072 696E 		.string	"printMapperMessageAfter"
 9692      744D 6170 
 9692      7065 724D 
 9692      6573 7361 
 9692      6765 4166 
 9693               	.LASF287:
 9694 007c 7374 725F 		.string	"str_save_layer"
 9694      7361 7665 
 9694      5F6C 6179 
 9694      6572 00
 9695               	.LASF272:
 9696 008b 7374 725F 		.string	"str_mapper_message"
 9696      6D61 7070 
 9696      6572 5F6D 
 9696      6573 7361 
 9696      6765 00
 9697               	.LASF221:
 9698 009e 7265 6164 		.string	"readMacro"
 9698      4D61 6372 
 9698      6F00 
 9699               	.LASF249:
 9700 00a8 5F63 6F6C 		.string	"_col"
 9700      00
 9701               	.LASF263:
 9702 00ad 7374 725F 		.string	"str_select_mode1"
 9702      7365 6C65 
 9702      6374 5F6D 
 9702      6F64 6531 
 9702      00
 9703               	.LASF264:
 9704 00be 7374 725F 		.string	"str_select_mode2"
 9704      7365 6C65 
 9704      6374 5F6D 
 9704      6F64 6532 
 9704      00
 9705               	.LASF132:
 9706 00cf 4B45 595F 		.string	"KEY_RSHIFT"
 9706      5253 4849 
 9706      4654 00
 9707               	.LASF210:
 9708 00da 7361 7665 		.string	"saveCurrentLayer"
 9708      4375 7272 
 9708      656E 744C 
 9708      6179 6572 
GAS LISTING C:\Users\ADMINI~1\AppData\Local\Temp/ccEBF6mf.s 			page 179


 9708      00
 9709               	.LASF165:
 9710 00eb 4B45 595F 		.string	"KEY_HANJA"
 9710      4841 4E4A 
 9710      4100 
 9711               	.LASF230:
 9712 00f5 7072 6570 		.string	"prepareKeyMapper"
 9712      6172 654B 
 9712      6579 4D61 
 9712      7070 6572 
 9712      00
 9713               	.LASF197:
 9714 0106 7365 7454 		.string	"setToBootMapper"
 9714      6F42 6F6F 
 9714      744D 6170 
 9714      7065 7200 
 9715               	.LASF145:
 9716 0116 4B45 595F 		.string	"KEY_WWW_STOP"
 9716      5757 575F 
 9716      5354 4F50 
 9716      00
 9717               	.LASF117:
 9718 0123 4B45 595F 		.string	"KEY_KP_5"
 9718      4B50 5F35 
 9718      00
 9719               	.LASF158:
 9720 012c 4B45 595F 		.string	"KEY_SCREENSAVE"
 9720      5343 5245 
 9720      454E 5341 
 9720      5645 00
 9721               	.LASF151:
 9722 013b 4B45 595F 		.string	"KEY_PLAY"
 9722      504C 4159 
 9722      00
 9723               	.LASF8:
 9724 0144 756E 7369 		.string	"unsigned int"
 9724      676E 6564 
 9724      2069 6E74 
 9724      00
 9725               	.LASF161:
 9726 0151 4B45 595F 		.string	"KEY_MINIMIZE"
 9726      4D49 4E49 
 9726      4D49 5A45 
 9726      00
 9727               	.LASF133:
 9728 015e 4B45 595F 		.string	"KEY_RALT"
 9728      5241 4C54 
 9728      00
 9729               	.LASF280:
 9730 0167 7374 725F 		.string	"str_choose_key"
 9730      6368 6F6F 
 9730      7365 5F6B 
 9730      6579 00
 9731               	.LASF160:
 9732 0176 4B45 595F 		.string	"KEY_REWIND"
 9732      5245 5749 
 9732      4E44 00
GAS LISTING C:\Users\ADMINI~1\AppData\Local\Temp/ccEBF6mf.s 			page 180


 9733               	.LASF107:
 9734 0181 4B45 595F 		.string	"KEY_NUMLOCK"
 9734      4E55 4D4C 
 9734      4F43 4B00 
 9735               	.LASF241:
 9736 018d 656E 6162 		.string	"enabledKeyMappingCount"
 9736      6C65 644B 
 9736      6579 4D61 
 9736      7070 696E 
 9736      6743 6F75 
 9737               	.LASF226:
 9738 01a4 674C 6179 		.string	"gLayer"
 9738      6572 00
 9739               	.LASF193:
 9740 01ab 7374 6F70 		.string	"stopKeyMapping"
 9740      4B65 794D 
 9740      6170 7069 
 9740      6E67 00
 9741               	.LASF284:
 9742 01ba 7374 725F 		.string	"str_reset_mapping"
 9742      7265 7365 
 9742      745F 6D61 
 9742      7070 696E 
 9742      6700 
 9743               	.LASF261:
 9744 01cc 6B65 796D 		.string	"keymap_code"
 9744      6170 5F63 
 9744      6F64 6500 
 9745               	.LASF149:
 9746 01d8 4B45 595F 		.string	"KEY_PREV_TRK"
 9746      5052 4556 
 9746      5F54 524B 
 9746      00
 9747               	.LASF238:
 9748 01e5 656E 7465 		.string	"enterFrameForMapper"
 9748      7246 7261 
 9748      6D65 466F 
 9748      724D 6170 
 9748      7065 7200 
 9749               	.LASF157:
 9750 01f9 4B45 595F 		.string	"KEY_MYCOM"
 9750      4D59 434F 
 9750      4D00 
 9751               	.LASF134:
 9752 0203 4B45 595F 		.string	"KEY_RGUI"
 9752      5247 5549 
 9752      00
 9753               	.LASF79:
 9754 020c 4B45 595F 		.string	"KEY_DOT"
 9754      444F 5400 
 9755               	.LASF168:
 9756 0214 6D6F 6465 		.string	"mode"
 9756      00
 9757               	.LASF136:
 9758 0219 4B45 595F 		.string	"KEY_Multimedia"
 9758      4D75 6C74 
 9758      696D 6564 
GAS LISTING C:\Users\ADMINI~1\AppData\Local\Temp/ccEBF6mf.s 			page 181


 9758      6961 00
 9759               	.LASF279:
 9760 0228 7374 725F 		.string	"str_choose_layer"
 9760      6368 6F6F 
 9760      7365 5F6C 
 9760      6179 6572 
 9760      00
 9761               	.LASF170:
 9762 0239 5F5F 636F 		.string	"__count"
 9762      756E 7400 
 9763               	.LASF247:
 9764 0241 5F73 7465 		.string	"_stepAfterSave"
 9764      7041 6674 
 9764      6572 5361 
 9764      7665 00
 9765               	.LASF254:
 9766 0250 5F69 7357 		.string	"_isWorkingForEmpty"
 9766      6F72 6B69 
 9766      6E67 466F 
 9766      7245 6D70 
 9766      7479 00
 9767               	.LASF184:
 9768 0263 6765 744D 		.string	"getMappingKeyCode"
 9768      6170 7069 
 9768      6E67 4B65 
 9768      7943 6F64 
 9768      6500 
 9769               	.LASF301:
 9770 0275 5F70 7265 		.string	"_pressedEscapeKeyCount"
 9770      7373 6564 
 9770      4573 6361 
 9770      7065 4B65 
 9770      7943 6F75 
 9771               	.LASF171:
 9772 028c 784B 6579 		.string	"xKeyCode"
 9772      436F 6465 
 9772      00
 9773               	.LASF240:
 9774 0295 5F69 734B 		.string	"_isKeyMapping"
 9774      6579 4D61 
 9774      7070 696E 
 9774      6700 
 9775               	.LASF155:
 9776 02a3 4B45 595F 		.string	"KEY_MEDIA"
 9776      4D45 4449 
 9776      4100 
 9777               	.LASF135:
 9778 02ad 4B45 595F 		.string	"KEY_Modifiers_end"
 9778      4D6F 6469 
 9778      6669 6572 
 9778      735F 656E 
 9778      6400 
 9779               	.LASF216:
 9780 02bf 636C 6561 		.string	"clearMacroAfter"
 9780      724D 6163 
 9780      726F 4166 
 9780      7465 7200 
GAS LISTING C:\Users\ADMINI~1\AppData\Local\Temp/ccEBF6mf.s 			page 182


 9781               	.LASF218:
 9782 02cf 7361 7665 		.string	"saveMacro"
 9782      4D61 6372 
 9782      6F00 
 9783               	.LASF297:
 9784 02d9 5F6D 6163 		.string	"_macroIndex"
 9784      726F 496E 
 9784      6465 7800 
 9785               	.LASF122:
 9786 02e5 4B45 595F 		.string	"KEY_KP_0"
 9786      4B50 5F30 
 9786      00
 9787               	.LASF113:
 9788 02ee 4B45 595F 		.string	"KEY_KP_1"
 9788      4B50 5F31 
 9788      00
 9789               	.LASF114:
 9790 02f7 4B45 595F 		.string	"KEY_KP_2"
 9790      4B50 5F32 
 9790      00
 9791               	.LASF48:
 9792 0300 4B45 595F 		.string	"KEY_U"
 9792      5500 
 9793               	.LASF116:
 9794 0306 4B45 595F 		.string	"KEY_KP_4"
 9794      4B50 5F34 
 9794      00
 9795               	.LASF63:
 9796 030f 4B45 595F 		.string	"KEY_0"
 9796      3000 
 9797               	.LASF54:
 9798 0315 4B45 595F 		.string	"KEY_1"
 9798      3100 
 9799               	.LASF55:
 9800 031b 4B45 595F 		.string	"KEY_2"
 9800      3200 
 9801               	.LASF56:
 9802 0321 4B45 595F 		.string	"KEY_3"
 9802      3300 
 9803               	.LASF57:
 9804 0327 4B45 595F 		.string	"KEY_4"
 9804      3400 
 9805               	.LASF58:
 9806 032d 4B45 595F 		.string	"KEY_5"
 9806      3500 
 9807               	.LASF59:
 9808 0333 4B45 595F 		.string	"KEY_6"
 9808      3600 
 9809               	.LASF60:
 9810 0339 4B45 595F 		.string	"KEY_7"
 9810      3700 
 9811               	.LASF61:
 9812 033f 4B45 595F 		.string	"KEY_8"
 9812      3800 
 9813               	.LASF62:
 9814 0345 4B45 595F 		.string	"KEY_9"
 9814      3900 
GAS LISTING C:\Users\ADMINI~1\AppData\Local\Temp/ccEBF6mf.s 			page 183


 9815               	.LASF237:
 9816 034b 636F 756E 		.string	"countKeyMappingEnabled"
 9816      744B 6579 
 9816      4D61 7070 
 9816      696E 6745 
 9816      6E61 626C 
 9817               	.LASF288:
 9818 0362 7374 725F 		.string	"str_load_layer"
 9818      6C6F 6164 
 9818      5F6C 6179 
 9818      6572 00
 9819               	.LASF28:
 9820 0371 4B45 595F 		.string	"KEY_A"
 9820      4100 
 9821               	.LASF29:
 9822 0377 4B45 595F 		.string	"KEY_B"
 9822      4200 
 9823               	.LASF30:
 9824 037d 4B45 595F 		.string	"KEY_C"
 9824      4300 
 9825               	.LASF31:
 9826 0383 4B45 595F 		.string	"KEY_D"
 9826      4400 
 9827               	.LASF32:
 9828 0389 4B45 595F 		.string	"KEY_E"
 9828      4500 
 9829               	.LASF33:
 9830 038f 4B45 595F 		.string	"KEY_F"
 9830      4600 
 9831               	.LASF34:
 9832 0395 4B45 595F 		.string	"KEY_G"
 9832      4700 
 9833               	.LASF35:
 9834 039b 4B45 595F 		.string	"KEY_H"
 9834      4800 
 9835               	.LASF36:
 9836 03a1 4B45 595F 		.string	"KEY_I"
 9836      4900 
 9837               	.LASF37:
 9838 03a7 4B45 595F 		.string	"KEY_J"
 9838      4A00 
 9839               	.LASF38:
 9840 03ad 4B45 595F 		.string	"KEY_K"
 9840      4B00 
 9841               	.LASF39:
 9842 03b3 4B45 595F 		.string	"KEY_L"
 9842      4C00 
 9843               	.LASF40:
 9844 03b9 4B45 595F 		.string	"KEY_M"
 9844      4D00 
 9845               	.LASF41:
 9846 03bf 4B45 595F 		.string	"KEY_N"
 9846      4E00 
 9847               	.LASF42:
 9848 03c5 4B45 595F 		.string	"KEY_O"
 9848      4F00 
 9849               	.LASF43:
GAS LISTING C:\Users\ADMINI~1\AppData\Local\Temp/ccEBF6mf.s 			page 184


 9850 03cb 4B45 595F 		.string	"KEY_P"
 9850      5000 
 9851               	.LASF44:
 9852 03d1 4B45 595F 		.string	"KEY_Q"
 9852      5100 
 9853               	.LASF45:
 9854 03d7 4B45 595F 		.string	"KEY_R"
 9854      5200 
 9855               	.LASF46:
 9856 03dd 4B45 595F 		.string	"KEY_S"
 9856      5300 
 9857               	.LASF47:
 9858 03e3 4B45 595F 		.string	"KEY_T"
 9858      5400 
 9859               	.LASF6:
 9860 03e9 6C6F 6E67 		.string	"long long unsigned int"
 9860      206C 6F6E 
 9860      6720 756E 
 9860      7369 676E 
 9860      6564 2069 
 9861               	.LASF49:
 9862 0400 4B45 595F 		.string	"KEY_V"
 9862      5600 
 9863               	.LASF50:
 9864 0406 4B45 595F 		.string	"KEY_W"
 9864      5700 
 9865               	.LASF51:
 9866 040c 4B45 595F 		.string	"KEY_X"
 9866      5800 
 9867               	.LASF52:
 9868 0412 4B45 595F 		.string	"KEY_Y"
 9868      5900 
 9869               	.LASF53:
 9870 0418 4B45 595F 		.string	"KEY_Z"
 9870      5A00 
 9871               	.LASF68:
 9872 041e 4B45 595F 		.string	"KEY_SPACE"
 9872      5350 4143 
 9872      4500 
 9873               	.LASF206:
 9874 0428 7472 6163 		.string	"trace"
 9874      6500 
 9875               	.LASF282:
 9876 042e 7374 725F 		.string	"str_save_end_mapping"
 9876      7361 7665 
 9876      5F65 6E64 
 9876      5F6D 6170 
 9876      7069 6E67 
 9877               	.LASF273:
 9878 0443 7374 725F 		.string	"str_mapper_1"
 9878      6D61 7070 
 9878      6572 5F31 
 9878      00
 9879               	.LASF276:
 9880 0450 7374 725F 		.string	"str_mapper_4"
 9880      6D61 7070 
 9880      6572 5F34 
GAS LISTING C:\Users\ADMINI~1\AppData\Local\Temp/ccEBF6mf.s 			page 185


 9880      00
 9881               	.LASF126:
 9882 045d 4B45 595F 		.string	"KEY_Modifiers"
 9882      4D6F 6469 
 9882      6669 6572 
 9882      7300 
 9883               	.LASF66:
 9884 046b 4B45 595F 		.string	"KEY_BKSP"
 9884      424B 5350 
 9884      00
 9885               	.LASF105:
 9886 0474 4B45 595F 		.string	"KEY_DOWN"
 9886      444F 574E 
 9886      00
 9887               	.LASF162:
 9888 047d 4B45 595F 		.string	"KEY_EJECT"
 9888      454A 4543 
 9888      5400 
 9889               	.LASF192:
 9890 0487 7374 6172 		.string	"startKeyMappingDeep"
 9890      744B 6579 
 9890      4D61 7070 
 9890      696E 6744 
 9890      6565 7000 
 9891               	.LASF21:
 9892 049b 4B45 595F 		.string	"KEY_MAC10"
 9892      4D41 4331 
 9892      3000 
 9893               	.LASF22:
 9894 04a5 4B45 595F 		.string	"KEY_MAC11"
 9894      4D41 4331 
 9894      3100 
 9895               	.LASF23:
 9896 04af 4B45 595F 		.string	"KEY_MAC12"
 9896      4D41 4331 
 9896      3200 
 9897               	.LASF103:
 9898 04b9 4B45 595F 		.string	"KEY_RIGHT"
 9898      5249 4748 
 9898      5400 
 9899               	.LASF166:
 9900 04c3 4B45 595F 		.string	"KEY_HANGLE"
 9900      4841 4E47 
 9900      4C45 00
 9901               	.LASF217:
 9902 04ce 6741 6464 		.string	"gAddress"
 9902      7265 7373 
 9902      00
 9903               	.LASF178:
 9904 04d7 784C 6179 		.string	"xLayer"
 9904      6572 00
 9905               	.LASF174:
 9906 04de 5F5F 6D73 		.string	"__ms"
 9906      00
 9907               	.LASF27:
 9908 04e3 4B45 595F 		.string	"KEY_ErrorUndefined"
 9908      4572 726F 
GAS LISTING C:\Users\ADMINI~1\AppData\Local\Temp/ccEBF6mf.s 			page 186


 9908      7255 6E64 
 9908      6566 696E 
 9908      6564 00
 9909               	.LASF148:
 9910 04f6 4B45 595F 		.string	"KEY_NEXT_TRK"
 9910      4E45 5854 
 9910      5F54 524B 
 9910      00
 9911               	.LASF258:
 9912 0503 5F69 7342 		.string	"_isBootMapper"
 9912      6F6F 744D 
 9912      6170 7065 
 9912      7200 
 9913               	.LASF200:
 9914 0511 7853 7472 		.string	"xStr"
 9914      00
 9915               	.LASF299:
 9916 0516 5F6D 6163 		.string	"_macroPressedBuffer"
 9916      726F 5072 
 9916      6573 7365 
 9916      6442 7566 
 9916      6665 7200 
 9917               	.LASF111:
 9918 052a 4B45 595F 		.string	"KEY_KP_PLUS"
 9918      4B50 5F50 
 9918      4C55 5300 
 9919               	.LASF223:
 9920 0536 6C6F 6164 		.string	"loadCurrentLayer"
 9920      4375 7272 
 9920      656E 744C 
 9920      6179 6572 
 9920      00
 9921               	.LASF222:
 9922 0547 784D 6163 		.string	"xMacroIndex"
 9922      726F 496E 
 9922      6465 7800 
 9923               	.LASF225:
 9924 0553 7849 7344 		.string	"xIsDown"
 9924      6F77 6E00 
 9925               	.LASF183:
 9926 055b 6765 7444 		.string	"getDefaultKeyCode"
 9926      6566 6175 
 9926      6C74 4B65 
 9926      7943 6F64 
 9926      6500 
 9927               	.LASF224:
 9928 056d 7075 744B 		.string	"putKeyCode"
 9928      6579 436F 
 9928      6465 00
 9929               	.LASF150:
 9930 0578 4B45 595F 		.string	"KEY_STOP"
 9930      5354 4F50 
 9930      00
 9931               	.LASF252:
 9932 0581 5F62 7566 		.string	"_bufferIndex"
 9932      6665 7249 
 9932      6E64 6578 
GAS LISTING C:\Users\ADMINI~1\AppData\Local\Temp/ccEBF6mf.s 			page 187


 9932      00
 9933               	.LASF248:
 9934 058e 5F77 6169 		.string	"_wait"
 9934      7400 
 9935               	.LASF236:
 9936 0594 7072 6570 		.string	"prepareKeyMapping"
 9936      6172 654B 
 9936      6579 4D61 
 9936      7070 696E 
 9936      6700 
 9937               	.LASF309:
 9938 05a6 7072 696E 		.string	"printEnter"
 9938      7445 6E74 
 9938      6572 00
 9939               	.LASF304:
 9940 05b1 5F6E 6577 		.string	"_newKeyMap"
 9940      4B65 794D 
 9940      6170 00
 9941               	.LASF156:
 9942 05bc 4B45 595F 		.string	"KEY_CALC"
 9942      4341 4C43 
 9942      00
 9943               	.LASF9:
 9944 05c5 6368 6172 		.string	"char"
 9944      00
 9945               	.LASF75:
 9946 05ca 4B45 595F 		.string	"KEY_COLON"
 9946      434F 4C4F 
 9946      4E00 
 9947               	.LASF245:
 9948 05d4 5F6D 6F64 		.string	"_mode"
 9948      6500 
 9949               	.LASF128:
 9950 05da 4B45 595F 		.string	"KEY_LSHIFT"
 9950      4C53 4849 
 9950      4654 00
 9951               	.LASF147:
 9952 05e5 4B45 595F 		.string	"KEY_WWW_FAVORITE"
 9952      5757 575F 
 9952      4641 564F 
 9952      5249 5445 
 9952      00
 9953               	.LASF294:
 9954 05f6 7374 725F 		.string	"str_input_macro"
 9954      696E 7075 
 9954      745F 6D61 
 9954      6372 6F00 
 9955               	.LASF262:
 9956 0606 7374 725F 		.string	"str_select_mode"
 9956      7365 6C65 
 9956      6374 5F6D 
 9956      6F64 6500 
 9957               	.LASF142:
 9958 0616 4B45 595F 		.string	"KEY_WWW_HOME"
 9958      5757 575F 
 9958      484F 4D45 
 9958      00
GAS LISTING C:\Users\ADMINI~1\AppData\Local\Temp/ccEBF6mf.s 			page 188


 9959               	.LASF204:
 9960 0623 6743 6861 		.string	"gChar"
 9960      7200 
 9961               	.LASF24:
 9962 0629 4B45 595F 		.string	"KEY_NONE"
 9962      4E4F 4E45 
 9962      00
 9963               	.LASF234:
 9964 0632 674D 6163 		.string	"gMacroIndex"
 9964      726F 496E 
 9964      6465 7800 
 9965               	.LASF94:
 9966 063e 4B45 595F 		.string	"KEY_PRNSCR"
 9966      5052 4E53 
 9966      4352 00
 9967               	.LASF292:
 9968 0649 7374 725F 		.string	"str_select_number"
 9968      7365 6C65 
 9968      6374 5F6E 
 9968      756D 6265 
 9968      7200 
 9969               	.LASF285:
 9970 065b 7374 725F 		.string	"str_input_command"
 9970      696E 7075 
 9970      745F 636F 
 9970      6D6D 616E 
 9970      6400 
 9971               	.LASF101:
 9972 066d 4B45 595F 		.string	"KEY_END"
 9972      454E 4400 
 9973               	.LASF10:
 9974 0675 7569 6E74 		.string	"uint8_t"
 9974      385F 7400 
 9975               	.LASF154:
 9976 067d 4B45 595F 		.string	"KEY_VOL_DOWN"
 9976      564F 4C5F 
 9976      444F 574E 
 9976      00
 9977               	.LASF71:
 9978 068a 4B45 595F 		.string	"KEY_LBR"
 9978      4C42 5200 
 9979               	.LASF205:
 9980 0692 6170 706C 		.string	"applyKeyMapping"
 9980      794B 6579 
 9980      4D61 7070 
 9980      696E 6700 
 9981               	.LASF100:
 9982 06a2 4B45 595F 		.string	"KEY_DEL"
 9982      4445 4C00 
 9983               	.LASF271:
 9984 06aa 7374 725F 		.string	"str_back_6"
 9984      6261 636B 
 9984      5F36 00
 9985               	.LASF208:
 9986 06b5 7265 7365 		.string	"resetCurrentLayer"
 9986      7443 7572 
 9986      7265 6E74 
GAS LISTING C:\Users\ADMINI~1\AppData\Local\Temp/ccEBF6mf.s 			page 189


 9986      4C61 7965 
 9986      7200 
 9987               	.LASF125:
 9988 06c7 4B45 595F 		.string	"KEY_APPS"
 9988      4150 5053 
 9988      00
 9989               	.LASF175:
 9990 06d0 5F5F 7469 		.string	"__ticks"
 9990      636B 7300 
 9991               	.LASF213:
 9992 06d8 7072 696E 		.string	"printPrompt"
 9992      7450 726F 
 9992      6D70 7400 
 9993               	.LASF115:
 9994 06e4 4B45 595F 		.string	"KEY_KP_3"
 9994      4B50 5F33 
 9994      00
 9995               	.LASF267:
 9996 06ed 7374 725F 		.string	"str_macro_message"
 9996      6D61 6372 
 9996      6F5F 6D65 
 9996      7373 6167 
 9996      6500 
 9997               	.LASF7:
 9998 06ff 6C6F 6E67 		.string	"long long int"
 9998      206C 6F6E 
 9998      6720 696E 
 9998      7400 
 9999               	.LASF118:
 10000 070d 4B45 595F 		.string	"KEY_KP_6"
 10000      4B50 5F36 
 10000      00
 10001               	.LASF119:
 10002 0716 4B45 595F 		.string	"KEY_KP_7"
 10002      4B50 5F37 
 10002      00
 10003               	.LASF120:
 10004 071f 4B45 595F 		.string	"KEY_KP_8"
 10004      4B50 5F38 
 10004      00
 10005               	.LASF121:
 10006 0728 4B45 595F 		.string	"KEY_KP_9"
 10006      4B50 5F39 
 10006      00
 10007               	.LASF76:
 10008 0731 4B45 595F 		.string	"KEY_QUOTE"
 10008      5155 4F54 
 10008      4500 
 10009               	.LASF186:
 10010 073b 6749 6478 		.string	"gIdx"
 10010      00
 10011               	.LASF232:
 10012 0740 6170 706C 		.string	"applyMacro"
 10012      794D 6163 
 10012      726F 00
 10013               	.LASF70:
 10014 074b 4B45 595F 		.string	"KEY_EQUAL"
GAS LISTING C:\Users\ADMINI~1\AppData\Local\Temp/ccEBF6mf.s 			page 190


 10014      4551 5541 
 10014      4C00 
 10015               	.LASF243:
 10016 0755 6B65 794D 		.string	"keyMappingCountMax"
 10016      6170 7069 
 10016      6E67 436F 
 10016      756E 744D 
 10016      6178 00
 10017               	.LASF229:
 10018 0768 7361 7665 		.string	"saveCurrentLayerAfter"
 10018      4375 7272 
 10018      656E 744C 
 10018      6179 6572 
 10018      4166 7465 
 10019               	.LASF209:
 10020 077e 636C 6561 		.string	"clearMacro"
 10020      724D 6163 
 10020      726F 00
 10021               	.LASF212:
 10022 0789 7072 696E 		.string	"printMacroMessage"
 10022      744D 6163 
 10022      726F 4D65 
 10022      7373 6167 
 10022      6500 
 10023               	.LASF86:
 10024 079b 4B45 595F 		.string	"KEY_F5"
 10024      4635 00
 10025               	.LASF195:
 10026 07a2 6973 426F 		.string	"isBootMapper"
 10026      6F74 4D61 
 10026      7070 6572 
 10026      00
 10027               	.LASF67:
 10028 07af 4B45 595F 		.string	"KEY_TAB"
 10028      5441 4200 
 10029               	.LASF296:
 10030 07b7 7374 725F 		.string	"str_clear_all_macro"
 10030      636C 6561 
 10030      725F 616C 
 10030      6C5F 6D61 
 10030      6372 6F00 
 10031               	.LASF303:
 10032 07cb 5F69 7354 		.string	"_isTiredEscapeKey"
 10032      6972 6564 
 10032      4573 6361 
 10032      7065 4B65 
 10032      7900 
 10033               	.LASF12:
 10034 07dd 4B45 595F 		.string	"KEY_MAC1"
 10034      4D41 4331 
 10034      00
 10035               	.LASF13:
 10036 07e6 4B45 595F 		.string	"KEY_MAC2"
 10036      4D41 4332 
 10036      00
 10037               	.LASF14:
 10038 07ef 4B45 595F 		.string	"KEY_MAC3"
GAS LISTING C:\Users\ADMINI~1\AppData\Local\Temp/ccEBF6mf.s 			page 191


 10038      4D41 4333 
 10038      00
 10039               	.LASF15:
 10040 07f8 4B45 595F 		.string	"KEY_MAC4"
 10040      4D41 4334 
 10040      00
 10041               	.LASF16:
 10042 0801 4B45 595F 		.string	"KEY_MAC5"
 10042      4D41 4335 
 10042      00
 10043               	.LASF17:
 10044 080a 4B45 595F 		.string	"KEY_MAC6"
 10044      4D41 4336 
 10044      00
 10045               	.LASF18:
 10046 0813 4B45 595F 		.string	"KEY_MAC7"
 10046      4D41 4337 
 10046      00
 10047               	.LASF19:
 10048 081c 4B45 595F 		.string	"KEY_MAC8"
 10048      4D41 4338 
 10048      00
 10049               	.LASF20:
 10050 0825 4B45 595F 		.string	"KEY_MAC9"
 10050      4D41 4339 
 10050      00
 10051               	.LASF108:
 10052 082e 4B45 595F 		.string	"KEY_KP_SLASH"
 10052      4B50 5F53 
 10052      4C41 5348 
 10052      00
 10053               	.LASF82:
 10054 083b 4B45 595F 		.string	"KEY_F1"
 10054      4631 00
 10055               	.LASF83:
 10056 0842 4B45 595F 		.string	"KEY_F2"
 10056      4632 00
 10057               	.LASF84:
 10058 0849 4B45 595F 		.string	"KEY_F3"
 10058      4633 00
 10059               	.LASF85:
 10060 0850 4B45 595F 		.string	"KEY_F4"
 10060      4634 00
 10061               	.LASF307:
 10062 0857 443A 5C67 		.string	"D:\\git2\\ps2avrU\\.git\\source"
 10062      6974 325C 
 10062      7073 3261 
 10062      7672 555C 
 10062      2E67 6974 
 10063               	.LASF87:
 10064 0873 4B45 595F 		.string	"KEY_F6"
 10064      4636 00
 10065               	.LASF88:
 10066 087a 4B45 595F 		.string	"KEY_F7"
 10066      4637 00
 10067               	.LASF89:
 10068 0881 4B45 595F 		.string	"KEY_F8"
GAS LISTING C:\Users\ADMINI~1\AppData\Local\Temp/ccEBF6mf.s 			page 192


 10068      4638 00
 10069               	.LASF90:
 10070 0888 4B45 595F 		.string	"KEY_F9"
 10070      4639 00
 10071               	.LASF137:
 10072 088f 4B45 595F 		.string	"KEY_POWER"
 10072      504F 5745 
 10072      5200 
 10073               	.LASF173:
 10074 0899 5F64 656C 		.string	"_delay_ms"
 10074      6179 5F6D 
 10074      7300 
 10075               	.LASF167:
 10076 08a3 4B45 595F 		.string	"KEY_extend_end"
 10076      6578 7465 
 10076      6E64 5F65 
 10076      6E64 00
 10077               	.LASF106:
 10078 08b2 4B45 595F 		.string	"KEY_UP"
 10078      5550 00
 10079               	.LASF300:
 10080 08b9 5F6D 6163 		.string	"_macroInputBuffer"
 10080      726F 496E 
 10080      7075 7442 
 10080      7566 6665 
 10080      7200 
 10081               	.LASF199:
 10082 08cb 784D 6F64 		.string	"xModi"
 10082      6900 
 10083               	.LASF201:
 10084 08d1 7075 7368 		.string	"pushCharacter"
 10084      4368 6172 
 10084      6163 7465 
 10084      7200 
 10085               	.LASF227:
 10086 08df 6753 7472 		.string	"gStr"
 10086      00
 10087               	.LASF265:
 10088 08e4 7374 725F 		.string	"str_select_mode3"
 10088      7365 6C65 
 10088      6374 5F6D 
 10088      6F64 6533 
 10088      00
 10089               	.LASF179:
 10090 08f5 7852 6F77 		.string	"xRow"
 10090      00
 10091               	.LASF129:
 10092 08fa 4B45 595F 		.string	"KEY_LALT"
 10092      4C41 4C54 
 10092      00
 10093               	.LASF305:
 10094 0903 474E 5520 		.string	"GNU C 4.3.3"
 10094      4320 342E 
 10094      332E 3300 
 10095               	.LASF96:
 10096 090f 4B45 595F 		.string	"KEY_PAUSE"
 10096      5041 5553 
GAS LISTING C:\Users\ADMINI~1\AppData\Local\Temp/ccEBF6mf.s 			page 193


 10096      4500 
 10097               	.LASF11:
 10098 0919 7569 6E74 		.string	"uint16_t"
 10098      3136 5F74 
 10098      00
 10099               	.LASF239:
 10100 0922 7374 6172 		.string	"startKeyMappingOnBoot"
 10100      744B 6579 
 10100      4D61 7070 
 10100      696E 674F 
 10100      6E42 6F6F 
 10101               	.LASF163:
 10102 0938 4B45 595F 		.string	"KEY_Multimedia_end"
 10102      4D75 6C74 
 10102      696D 6564 
 10102      6961 5F65 
 10102      6E64 00
 10103               	.LASF152:
 10104 094b 4B45 595F 		.string	"KEY_MUTE"
 10104      4D55 5445 
 10104      00
 10105               	.LASF214:
 10106 0954 7072 696E 		.string	"printSelectMode"
 10106      7453 656C 
 10106      6563 744D 
 10106      6F64 6500 
 10107               	.LASF110:
 10108 0964 4B45 595F 		.string	"KEY_KP_MINUS"
 10108      4B50 5F4D 
 10108      494E 5553 
 10108      00
 10109               	.LASF182:
 10110 0971 5F5F 7265 		.string	"__result"
 10110      7375 6C74 
 10110      00
 10111               	.LASF211:
 10112 097a 7072 696E 		.string	"printPrepareString"
 10112      7450 7265 
 10112      7061 7265 
 10112      5374 7269 
 10112      6E67 00
 10113               	.LASF180:
 10114 098d 7843 6F6C 		.string	"xCol"
 10114      00
 10115               	.LASF69:
 10116 0992 4B45 595F 		.string	"KEY_MINUS"
 10116      4D49 4E55 
 10116      5300 
 10117               	.LASF172:
 10118 099c 5F64 656C 		.string	"_delay_loop_2"
 10118      6179 5F6C 
 10118      6F6F 705F 
 10118      3200 
 10119               	.LASF64:
 10120 09aa 4B45 595F 		.string	"KEY_ENTER"
 10120      454E 5445 
 10120      5200 
GAS LISTING C:\Users\ADMINI~1\AppData\Local\Temp/ccEBF6mf.s 			page 194


 10121               	.LASF286:
 10122 09b4 7374 725F 		.string	"str_nothing"
 10122      6E6F 7468 
 10122      696E 6700 
 10123               	.LASF78:
 10124 09c0 4B45 595F 		.string	"KEY_COMMA"
 10124      434F 4D4D 
 10124      4100 
 10125               	.LASF244:
 10126 09ca 5F6B 6579 		.string	"_keyMappingOnBoot"
 10126      4D61 7070 
 10126      696E 674F 
 10126      6E42 6F6F 
 10126      7400 
 10127               	.LASF3:
 10128 09dc 7368 6F72 		.string	"short int"
 10128      7420 696E 
 10128      7400 
 10129               	.LASF5:
 10130 09e6 6C6F 6E67 		.string	"long int"
 10130      2069 6E74 
 10130      00
 10131               	.LASF81:
 10132 09ef 4B45 595F 		.string	"KEY_CAPS"
 10132      4341 5053 
 10132      00
 10133               	.LASF253:
 10134 09f8 5F65 6469 		.string	"_editCount"
 10134      7443 6F75 
 10134      6E74 00
 10135               	.LASF266:
 10136 0a03 7374 725F 		.string	"str_exit"
 10136      6578 6974 
 10136      00
 10137               	.LASF202:
 10138 0a0c 7072 696E 		.string	"printString"
 10138      7453 7472 
 10138      696E 6700 
 10139               	.LASF302:
 10140 0a18 5F69 7350 		.string	"_isPressedEscapeKey"
 10140      7265 7373 
 10140      6564 4573 
 10140      6361 7065 
 10140      4B65 7900 
 10141               	.LASF112:
 10142 0a2c 4B45 595F 		.string	"KEY_KP_ENTER"
 10142      4B50 5F45 
 10142      4E54 4552 
 10142      00
 10143               	.LASF293:
 10144 0a39 7374 725F 		.string	"str_exit_macro"
 10144      6578 6974 
 10144      5F6D 6163 
 10144      726F 00
 10145               	.LASF123:
 10146 0a48 4B45 595F 		.string	"KEY_KP_DOT"
 10146      4B50 5F44 
GAS LISTING C:\Users\ADMINI~1\AppData\Local\Temp/ccEBF6mf.s 			page 195


 10146      4F54 00
 10147               	.LASF196:
 10148 0a53 7265 6164 		.string	"readyKeyMappingOnBoot"
 10148      794B 6579 
 10148      4D61 7070 
 10148      696E 674F 
 10148      6E42 6F6F 
 10149               	.LASF127:
 10150 0a69 4B45 595F 		.string	"KEY_LCTRL"
 10150      4C43 5452 
 10150      4C00 
 10151               	.LASF268:
 10152 0a73 7374 725F 		.string	"str_macro_1"
 10152      6D61 6372 
 10152      6F5F 3100 
 10153               	.LASF269:
 10154 0a7f 7374 725F 		.string	"str_macro_2"
 10154      6D61 6372 
 10154      6F5F 3200 
 10155               	.LASF198:
 10156 0a8b 7265 7365 		.string	"resetMacroInput"
 10156      744D 6163 
 10156      726F 496E 
 10156      7075 7400 
 10157               	.LASF233:
 10158 0a9b 784B 6579 		.string	"xKeyidx"
 10158      6964 7800 
 10159               	.LASF130:
 10160 0aa3 4B45 595F 		.string	"KEY_LGUI"
 10160      4C47 5549 
 10160      00
 10161               	.LASF270:
 10162 0aac 7374 725F 		.string	"str_macro_9"
 10162      6D61 6372 
 10162      6F5F 3900 
 10163               	.LASF235:
 10164 0ab8 7374 6172 		.string	"startKeyMapping"
 10164      744B 6579 
 10164      4D61 7070 
 10164      696E 6700 
 10165               	.LASF25:
 10166 0ac8 4B45 595F 		.string	"KEY_ErrorRollOver"
 10166      4572 726F 
 10166      7252 6F6C 
 10166      6C4F 7665 
 10166      7200 
 10167               	.LASF73:
 10168 0ada 4B45 595F 		.string	"KEY_BKSLASH"
 10168      424B 534C 
 10168      4153 4800 
 10169               	.LASF77:
 10170 0ae6 4B45 595F 		.string	"KEY_HASH"
 10170      4841 5348 
 10170      00
 10171               	.LASF164:
 10172 0aef 4B45 595F 		.string	"KEY_extend"
 10172      6578 7465 
GAS LISTING C:\Users\ADMINI~1\AppData\Local\Temp/ccEBF6mf.s 			page 196


 10172      6E64 00
 10173               	.LASF231:
 10174 0afa 6765 7443 		.string	"getCurrentKeycode"
 10174      7572 7265 
 10174      6E74 4B65 
 10174      7963 6F64 
 10174      6500 
 10175               	.LASF102:
 10176 0b0c 4B45 595F 		.string	"KEY_PGDN"
 10176      5047 444E 
 10176      00
 10177               	.LASF65:
 10178 0b15 4B45 595F 		.string	"KEY_ESC"
 10178      4553 4300 
 10179               	.LASF4:
 10180 0b1d 6C6F 6E67 		.string	"long unsigned int"
 10180      2075 6E73 
 10180      6967 6E65 
 10180      6420 696E 
 10180      7400 
 10181               	.LASF140:
 10182 0b2f 4B45 595F 		.string	"KEY_EMAIL"
 10182      454D 4149 
 10182      4C00 
 10183               	.LASF104:
 10184 0b39 4B45 595F 		.string	"KEY_LEFT"
 10184      4C45 4654 
 10184      00
 10185               	.LASF256:
 10186 0b42 5F63 7572 		.string	"_currentLayerAfter"
 10186      7265 6E74 
 10186      4C61 7965 
 10186      7241 6674 
 10186      6572 00
 10187               	.LASF290:
 10188 0b55 7374 725F 		.string	"str_col_row"
 10188      636F 6C5F 
 10188      726F 7700 
 10189               	.LASF298:
 10190 0b61 5F6D 6163 		.string	"_macroBufferIndex"
 10190      726F 4275 
 10190      6666 6572 
 10190      496E 6465 
 10190      7800 
 10191               	.LASF141:
 10192 0b73 4B45 595F 		.string	"KEY_WWW_SEARCH"
 10192      5757 575F 
 10192      5345 4152 
 10192      4348 00
 10193               	.LASF281:
 10194 0b82 7374 725F 		.string	"str_input_keycode"
 10194      696E 7075 
 10194      745F 6B65 
 10194      7963 6F64 
 10194      6500 
 10195               	.LASF0:
 10196 0b94 756E 7369 		.string	"unsigned char"
GAS LISTING C:\Users\ADMINI~1\AppData\Local\Temp/ccEBF6mf.s 			page 197


 10196      676E 6564 
 10196      2063 6861 
 10196      7200 
 10197               	.LASF191:
 10198 0ba2 7072 696E 		.string	"printMapperMessage"
 10198      744D 6170 
 10198      7065 724D 
 10198      6573 7361 
 10198      6765 00
 10199               	.LASF72:
 10200 0bb5 4B45 595F 		.string	"KEY_RBR"
 10200      5242 5200 
 10201               	.LASF190:
 10202 0bbd 6973 4465 		.string	"isDeepKeyMapping"
 10202      6570 4B65 
 10202      794D 6170 
 10202      7069 6E67 
 10202      00
 10203               	.LASF259:
 10204 0bce 5F6D 6163 		.string	"_macroDownCount"
 10204      726F 446F 
 10204      776E 436F 
 10204      756E 7400 
 10205               	.LASF185:
 10206 0bde 674B 6579 		.string	"gKeyIndex"
 10206      496E 6465 
 10206      7800 
 10207               	.LASF219:
 10208 0be8 674B 6579 		.string	"gKeyCode"
 10208      436F 6465 
 10208      00
 10209               	.LASF138:
 10210 0bf1 4B45 595F 		.string	"KEY_SLEEP"
 10210      534C 4545 
 10210      5000 
 10211               	.LASF242:
 10212 0bfb 6B65 794D 		.string	"keyMappingCount"
 10212      6170 7069 
 10212      6E67 436F 
 10212      756E 7400 
 10213               	.LASF308:
 10214 0c0b 6973 5265 		.string	"isReadyKeyMappingOnBoot"
 10214      6164 794B 
 10214      6579 4D61 
 10214      7070 696E 
 10214      674F 6E42 
 10215               	.LASF228:
 10216 0c23 674C 656E 		.string	"gLen"
 10216      00
 10217               	.LASF109:
 10218 0c28 4B45 595F 		.string	"KEY_KP_AST"
 10218      4B50 5F41 
 10218      5354 00
 10219               	.LASF139:
 10220 0c33 4B45 595F 		.string	"KEY_WAKE"
 10220      5741 4B45 
 10220      00
GAS LISTING C:\Users\ADMINI~1\AppData\Local\Temp/ccEBF6mf.s 			page 198


 10221               	.LASF278:
 10222 0c3c 7374 725F 		.string	"str_prepare_message"
 10222      7072 6570 
 10222      6172 655F 
 10222      6D65 7373 
 10222      6167 6500 
 10223               	.LASF220:
 10224 0c50 6275 6666 		.string	"buffers"
 10224      6572 7300 
 10225               	.LASF99:
 10226 0c58 4B45 595F 		.string	"KEY_PGUP"
 10226      5047 5550 
 10226      00
 10227               	.LASF194:
 10228 0c61 7365 7457 		.string	"setWillStartKeyMapping"
 10228      696C 6C53 
 10228      7461 7274 
 10228      4B65 794D 
 10228      6170 7069 
 10229               	.LASF203:
 10230 0c78 7853 7472 		.string	"xString"
 10230      696E 6700 
 10231               	.LASF146:
 10232 0c80 4B45 595F 		.string	"KEY_WWW_REFRESH"
 10232      5757 575F 
 10232      5245 4652 
 10232      4553 4800 
 10233               	.LASF153:
 10234 0c90 4B45 595F 		.string	"KEY_VOL_UP"
 10234      564F 4C5F 
 10234      5550 00
 10235               	.LASF289:
 10236 0c9b 7374 725F 		.string	"str_saving"
 10236      7361 7669 
 10236      6E67 00
 10237               	.LASF97:
 10238 0ca6 4B45 595F 		.string	"KEY_INSERT"
 10238      494E 5345 
 10238      5254 00
 10239               	.LASF26:
 10240 0cb1 4B45 595F 		.string	"KEY_POSTFail"
 10240      504F 5354 
 10240      4661 696C 
 10240      00
 10241               	.LASF1:
 10242 0cbe 7369 676E 		.string	"signed char"
 10242      6564 2063 
 10242      6861 7200 
 10243               	.LASF98:
 10244 0cca 4B45 595F 		.string	"KEY_HOME"
 10244      484F 4D45 
 10244      00
 10245               	.LASF2:
 10246 0cd3 7368 6F72 		.string	"short unsigned int"
 10246      7420 756E 
 10246      7369 676E 
 10246      6564 2069 
GAS LISTING C:\Users\ADMINI~1\AppData\Local\Temp/ccEBF6mf.s 			page 199


 10246      6E74 00
 10247               	.LASF188:
 10248 0ce6 6573 6361 		.string	"escapeMacroKeycode"
 10248      7065 4D61 
 10248      6372 6F4B 
 10248      6579 636F 
 10248      6465 00
 10249               	.LASF143:
 10250 0cf9 4B45 595F 		.string	"KEY_WWW_BACK"
 10250      5757 575F 
 10250      4241 434B 
 10250      00
 10251               	.LASF274:
 10252 0d06 7374 725F 		.string	"str_mapper_2"
 10252      6D61 7070 
 10252      6572 5F32 
 10252      00
 10253               	.LASF275:
 10254 0d13 7374 725F 		.string	"str_mapper_3"
 10254      6D61 7070 
 10254      6572 5F33 
 10254      00
 10255               	.LASF176:
 10256 0d20 5F5F 746D 		.string	"__tmp"
 10256      7000 
 10257               	.LASF91:
 10258 0d26 4B45 595F 		.string	"KEY_F10"
 10258      4631 3000 
 10259               	.LASF92:
 10260 0d2e 4B45 595F 		.string	"KEY_F11"
 10260      4631 3100 
 10261               	.LASF93:
 10262 0d36 4B45 595F 		.string	"KEY_F12"
 10262      4631 3200 
 10263               	.LASF277:
 10264 0d3e 7374 725F 		.string	"str_mapper_9"
 10264      6D61 7070 
 10264      6572 5F39 
 10264      00
 10265               	.LASF246:
 10266 0d4b 5F73 7465 		.string	"_step"
 10266      7000 
 10267               	.LASF177:
 10268 0d51 646F 7562 		.string	"double"
 10268      6C65 00
 10269               	.LASF144:
 10270 0d58 4B45 595F 		.string	"KEY_WWW_FORWARD"
 10270      5757 575F 
 10270      464F 5257 
 10270      4152 4400 
 10271               	.LASF291:
 10272 0d68 7374 725F 		.string	"str_invalid_keycode"
 10272      696E 7661 
 10272      6C69 645F 
 10272      6B65 7963 
 10272      6F64 6500 
 10273               	.LASF260:
GAS LISTING C:\Users\ADMINI~1\AppData\Local\Temp/ccEBF6mf.s 			page 200


 10274 0d7c 494E 5445 		.string	"INTERFACE"
 10274      5246 4143 
 10274      4500 
 10275               	.LASF131:
 10276 0d86 4B45 595F 		.string	"KEY_RCTRL"
 10276      5243 5452 
 10276      4C00 
 10277               	.LASF169:
 10278 0d90 6B65 7963 		.string	"keycode"
 10278      6F64 6500 
 10279               	.LASF295:
 10280 0d98 7374 725F 		.string	"str_invalid_macro_number"
 10280      696E 7661 
 10280      6C69 645F 
 10280      6D61 6372 
 10280      6F5F 6E75 
 10281               	.LASF74:
 10282 0db1 4B45 595F 		.string	"KEY_Europe1"
 10282      4575 726F 
 10282      7065 3100 
 10283               	.LASF124:
 10284 0dbd 4B45 595F 		.string	"KEY_Europe2"
 10284      4575 726F 
 10284      7065 3200 
 10285               	.LASF189:
 10286 0dc9 6973 4B65 		.string	"isKeyMapping"
 10286      794D 6170 
 10286      7069 6E67 
 10286      00
 10287               	.LASF306:
 10288 0dd6 6B65 796D 		.string	"keymapper.c"
 10288      6170 7065 
 10288      722E 6300 
 10289               	.LASF187:
 10290 0de2 6973 4D61 		.string	"isMacroKey"
 10290      6372 6F4B 
 10290      6579 00
 10291               	.LASF250:
 10292 0ded 5F72 6F77 		.string	"_row"
 10292      00
 10293               	.LASF80:
 10294 0df2 4B45 595F 		.string	"KEY_SLASH"
 10294      534C 4153 
 10294      4800 
 10295               	.global __do_copy_data
 10296               	.global __do_clear_bss
GAS LISTING C:\Users\ADMINI~1\AppData\Local\Temp/ccEBF6mf.s 			page 201


DEFINED SYMBOLS
                            *ABS*:00000000 keymapper.c
C:\Users\ADMINI~1\AppData\Local\Temp/ccEBF6mf.s:2      *ABS*:0000003f __SREG__
C:\Users\ADMINI~1\AppData\Local\Temp/ccEBF6mf.s:3      *ABS*:0000003e __SP_H__
C:\Users\ADMINI~1\AppData\Local\Temp/ccEBF6mf.s:4      *ABS*:0000003d __SP_L__
C:\Users\ADMINI~1\AppData\Local\Temp/ccEBF6mf.s:5      *ABS*:00000034 __CCP__
C:\Users\ADMINI~1\AppData\Local\Temp/ccEBF6mf.s:6      *ABS*:00000000 __tmp_reg__
C:\Users\ADMINI~1\AppData\Local\Temp/ccEBF6mf.s:7      *ABS*:00000001 __zero_reg__
C:\Users\ADMINI~1\AppData\Local\Temp/ccEBF6mf.s:18     .text:00000000 setWillStartKeyMapping
C:\Users\ADMINI~1\AppData\Local\Temp/ccEBF6mf.s:2823   .bss:00000006 _isKeyMapping
C:\Users\ADMINI~1\AppData\Local\Temp/ccEBF6mf.s:34     .text:0000000c isKeyMapping
C:\Users\ADMINI~1\AppData\Local\Temp/ccEBF6mf.s:49     .text:00000014 isDeepKeyMapping
C:\Users\ADMINI~1\AppData\Local\Temp/ccEBF6mf.s:64     .text:0000001c applyKeyMapping
C:\Users\ADMINI~1\AppData\Local\Temp/ccEBF6mf.s:2825   .bss:00000008 keyMappingCount
C:\Users\ADMINI~1\AppData\Local\Temp/ccEBF6mf.s:2824   .bss:00000007 enabledKeyMappingCount
C:\Users\ADMINI~1\AppData\Local\Temp/ccEBF6mf.s:2829   .data:00000039 keyMappingCountMax
C:\Users\ADMINI~1\AppData\Local\Temp/ccEBF6mf.s:109    .text:0000005c isReadyKeyMappingOnBoot
C:\Users\ADMINI~1\AppData\Local\Temp/ccEBF6mf.s:2831   .bss:0000000b _keyMappingOnBoot
C:\Users\ADMINI~1\AppData\Local\Temp/ccEBF6mf.s:122    .text:00000062 readyKeyMappingOnBoot
C:\Users\ADMINI~1\AppData\Local\Temp/ccEBF6mf.s:137    .text:0000006a setToBootMapper
C:\Users\ADMINI~1\AppData\Local\Temp/ccEBF6mf.s:2826   .bss:0000000a _isBootMapper
C:\Users\ADMINI~1\AppData\Local\Temp/ccEBF6mf.s:152    .text:00000072 isBootMapper
C:\Users\ADMINI~1\AppData\Local\Temp/ccEBF6mf.s:165    .text:00000078 stopKeyMapping
C:\Users\ADMINI~1\AppData\Local\Temp/ccEBF6mf.s:2835   .bss:0000000f _wait
C:\Users\ADMINI~1\AppData\Local\Temp/ccEBF6mf.s:181    .text:00000082 isMacroKey
C:\Users\ADMINI~1\AppData\Local\Temp/ccEBF6mf.s:203    .text:00000090 escapeMacroKeycode
C:\Users\ADMINI~1\AppData\Local\Temp/ccEBF6mf.s:228    .text:0000009e printEnter
C:\Users\ADMINI~1\AppData\Local\Temp/ccEBF6mf.s:246    .text:000000ac resetMacroInput
                            *COM*:00000030 _macroInputBuffer
                            *COM*:00000001 _macroBufferIndex
                            *COM*:00000018 _macroPressedBuffer
C:\Users\ADMINI~1\AppData\Local\Temp/ccEBF6mf.s:2807   .bss:00000005 _macroDownCount
C:\Users\ADMINI~1\AppData\Local\Temp/ccEBF6mf.s:277    .text:000000d2 pushCharacter
C:\Users\ADMINI~1\AppData\Local\Temp/ccEBF6mf.s:330    .text:00000106 printString
C:\Users\ADMINI~1\AppData\Local\Temp/ccEBF6mf.s:441    .text:000001ac trace
C:\Users\ADMINI~1\AppData\Local\Temp/ccEBF6mf.s:483    .text:000001e6 printStringFromFlash
C:\Users\ADMINI~1\AppData\Local\Temp/ccEBF6mf.s:592    .text:00000276 resetCurrentLayer
C:\Users\ADMINI~1\AppData\Local\Temp/ccEBF6mf.s:2726   .progmem.data:0000019f str_reset_mapping
                            *COM*:00000088 _newKeyMap
C:\Users\ADMINI~1\AppData\Local\Temp/ccEBF6mf.s:2840   .bss:00000016 _editCount
C:\Users\ADMINI~1\AppData\Local\Temp/ccEBF6mf.s:646    .text:000002c2 clearMacro
C:\Users\ADMINI~1\AppData\Local\Temp/ccEBF6mf.s:2786   .progmem.data:000002d2 str_clear_all_macro
                             .bss:00000004 _isWorkingForEmpty
C:\Users\ADMINI~1\AppData\Local\Temp/ccEBF6mf.s:2833   .bss:0000000d _step
C:\Users\ADMINI~1\AppData\Local\Temp/ccEBF6mf.s:672    .text:000002e0 saveCurrentLayer
C:\Users\ADMINI~1\AppData\Local\Temp/ccEBF6mf.s:2751   .progmem.data:00000203 str_saving
C:\Users\ADMINI~1\AppData\Local\Temp/ccEBF6mf.s:2834   .bss:0000000e _stepAfterSave
C:\Users\ADMINI~1\AppData\Local\Temp/ccEBF6mf.s:714    .text:0000031c printPrepareString
C:\Users\ADMINI~1\AppData\Local\Temp/ccEBF6mf.s:2696   .progmem.data:000000e8 str_prepare_message
C:\Users\ADMINI~1\AppData\Local\Temp/ccEBF6mf.s:732    .text:0000032a printMacroMessage
C:\Users\ADMINI~1\AppData\Local\Temp/ccEBF6mf.s:2641   .progmem.data:00000033 str_macro_message
C:\Users\ADMINI~1\AppData\Local\Temp/ccEBF6mf.s:2646   .progmem.data:00000039 str_macro_1
C:\Users\ADMINI~1\AppData\Local\Temp/ccEBF6mf.s:2651   .progmem.data:0000004e str_macro_2
C:\Users\ADMINI~1\AppData\Local\Temp/ccEBF6mf.s:2661   .progmem.data:00000061 str_back_6
C:\Users\ADMINI~1\AppData\Local\Temp/ccEBF6mf.s:2656   .progmem.data:00000055 str_macro_9
C:\Users\ADMINI~1\AppData\Local\Temp/ccEBF6mf.s:778    .text:00000372 printPrompt
C:\Users\ADMINI~1\AppData\Local\Temp/ccEBF6mf.s:2701   .progmem.data:000000f0 str_choose_layer
GAS LISTING C:\Users\ADMINI~1\AppData\Local\Temp/ccEBF6mf.s 			page 202


C:\Users\ADMINI~1\AppData\Local\Temp/ccEBF6mf.s:2841   .bss:00000018 _currentLayer
C:\Users\ADMINI~1\AppData\Local\Temp/ccEBF6mf.s:2706   .progmem.data:00000122 str_choose_key
C:\Users\ADMINI~1\AppData\Local\Temp/ccEBF6mf.s:2711   .progmem.data:00000141 str_input_keycode
C:\Users\ADMINI~1\AppData\Local\Temp/ccEBF6mf.s:2716   .progmem.data:00000163 str_save_end_mapping
C:\Users\ADMINI~1\AppData\Local\Temp/ccEBF6mf.s:2721   .progmem.data:0000017b str_cancel_mapping
C:\Users\ADMINI~1\AppData\Local\Temp/ccEBF6mf.s:2731   .progmem.data:000001be str_input_command
C:\Users\ADMINI~1\AppData\Local\Temp/ccEBF6mf.s:2766   .progmem.data:00000237 str_select_number
C:\Users\ADMINI~1\AppData\Local\Temp/ccEBF6mf.s:2771   .progmem.data:00000264 str_exit_macro
C:\Users\ADMINI~1\AppData\Local\Temp/ccEBF6mf.s:2776   .progmem.data:0000027f str_input_macro
C:\Users\ADMINI~1\AppData\Local\Temp/ccEBF6mf.s:2636   .progmem.data:00000029 str_exit
C:\Users\ADMINI~1\AppData\Local\Temp/ccEBF6mf.s:935    .text:00000442 printSelectMode
C:\Users\ADMINI~1\AppData\Local\Temp/ccEBF6mf.s:2616   .progmem.data:00000000 str_select_mode
C:\Users\ADMINI~1\AppData\Local\Temp/ccEBF6mf.s:2621   .progmem.data:0000000c str_select_mode1
C:\Users\ADMINI~1\AppData\Local\Temp/ccEBF6mf.s:2626   .progmem.data:0000001a str_select_mode2
C:\Users\ADMINI~1\AppData\Local\Temp/ccEBF6mf.s:2631   .progmem.data:00000022 str_select_mode3
C:\Users\ADMINI~1\AppData\Local\Temp/ccEBF6mf.s:978    .text:00000482 printMapperMessageAfter
C:\Users\ADMINI~1\AppData\Local\Temp/ccEBF6mf.s:2681   .progmem.data:0000009f str_mapper_3
C:\Users\ADMINI~1\AppData\Local\Temp/ccEBF6mf.s:2686   .progmem.data:000000af str_mapper_4
C:\Users\ADMINI~1\AppData\Local\Temp/ccEBF6mf.s:2691   .progmem.data:000000c5 str_mapper_9
C:\Users\ADMINI~1\AppData\Local\Temp/ccEBF6mf.s:1021   .text:000004c2 clearMacroAfter
C:\Users\ADMINI~1\AppData\Local\Temp/ccEBF6mf.s:1056   .text:000004ec saveMacro
                            *COM*:00000001 _macroIndex
C:\Users\ADMINI~1\AppData\Local\Temp/ccEBF6mf.s:1105   .text:00000534 readMacro
C:\Users\ADMINI~1\AppData\Local\Temp/ccEBF6mf.s:1167   .text:0000057c loadCurrentLayer
C:\Users\ADMINI~1\AppData\Local\Temp/ccEBF6mf.s:1264   .text:00000604 putKeyCode
C:\Users\ADMINI~1\AppData\Local\Temp/ccEBF6mf.s:2811   .data:0000002e usingKeys
C:\Users\ADMINI~1\AppData\Local\Temp/ccEBF6mf.s:2805   .bss:00000003 _isTiredEscapeKey
C:\Users\ADMINI~1\AppData\Local\Temp/ccEBF6mf.s:2799   .bss:00000002 _isPressedEscapeKey
C:\Users\ADMINI~1\AppData\Local\Temp/ccEBF6mf.s:2793   .bss:00000000 _pressedEscapeKeyCount
C:\Users\ADMINI~1\AppData\Local\Temp/ccEBF6mf.s:2839   .bss:00000015 _bufferIndex
C:\Users\ADMINI~1\AppData\Local\Temp/ccEBF6mf.s:2838   .bss:00000012 _buffer
C:\Users\ADMINI~1\AppData\Local\Temp/ccEBF6mf.s:2832   .bss:0000000c _mode
C:\Users\ADMINI~1\AppData\Local\Temp/ccEBF6mf.s:2666   .progmem.data:00000068 str_mapper_message
C:\Users\ADMINI~1\AppData\Local\Temp/ccEBF6mf.s:2671   .progmem.data:00000073 str_mapper_1
C:\Users\ADMINI~1\AppData\Local\Temp/ccEBF6mf.s:2676   .progmem.data:00000082 str_mapper_2
C:\Users\ADMINI~1\AppData\Local\Temp/ccEBF6mf.s:2781   .progmem.data:000002b6 str_invalid_macro_number
C:\Users\ADMINI~1\AppData\Local\Temp/ccEBF6mf.s:2741   .progmem.data:000001dd str_save_layer
C:\Users\ADMINI~1\AppData\Local\Temp/ccEBF6mf.s:2842   .bss:00000019 _currentLayerAfter
C:\Users\ADMINI~1\AppData\Local\Temp/ccEBF6mf.s:2746   .progmem.data:000001f0 str_load_layer
C:\Users\ADMINI~1\AppData\Local\Temp/ccEBF6mf.s:2836   .bss:00000010 _col
C:\Users\ADMINI~1\AppData\Local\Temp/ccEBF6mf.s:2837   .bss:00000011 _row
C:\Users\ADMINI~1\AppData\Local\Temp/ccEBF6mf.s:2756   .progmem.data:0000020d str_col_row
C:\Users\ADMINI~1\AppData\Local\Temp/ccEBF6mf.s:2761   .progmem.data:00000219 str_invalid_keycode
C:\Users\ADMINI~1\AppData\Local\Temp/ccEBF6mf.s:2103   .text:00000b5e saveCurrentLayerAfter
C:\Users\ADMINI~1\AppData\Local\Temp/ccEBF6mf.s:2227   .text:00000c2c prepareKeyMapper
C:\Users\ADMINI~1\AppData\Local\Temp/ccEBF6mf.s:2257   .text:00000c50 getCurrentKeycode
C:\Users\ADMINI~1\AppData\Local\Temp/ccEBF6mf.s:2361   .text:00000cc6 applyMacro
C:\Users\ADMINI~1\AppData\Local\Temp/ccEBF6mf.s:2408   .text:00000cf6 startKeyMapping
C:\Users\ADMINI~1\AppData\Local\Temp/ccEBF6mf.s:2443   .text:00000d1a prepareKeyMapping
C:\Users\ADMINI~1\AppData\Local\Temp/ccEBF6mf.s:2482   .text:00000d4a countKeyMappingEnabled
C:\Users\ADMINI~1\AppData\Local\Temp/ccEBF6mf.s:2514   .text:00000d84 enterFrameForMapper
C:\Users\ADMINI~1\AppData\Local\Temp/ccEBF6mf.s:2587   .text:00000dfe startKeyMappingOnBoot
C:\Users\ADMINI~1\AppData\Local\Temp/ccEBF6mf.s:2736   .progmem.data:000001d5 str_nothing

UNDEFINED SYMBOLS
INTERFACE
pushM
GAS LISTING C:\Users\ADMINI~1\AppData\Local\Temp/ccEBF6mf.s 			page 203


charToKey
sprintf
toString
__eewr_byte_m32
__eerd_byte_m32
findIndex
append
delete
keymap_code
isEmptyM
clearMacroPressedBuffer
isAllKeyRelease
prepareKeyMappingUsb
prepareKeyMappingPs2
isMacroProcessEnd
__do_copy_data
__do_clear_bss
