GAS LISTING C:\Users\ADMINI~1\AppData\Local\Temp/ccypPrtA.s 			page 1


   1               		.file	"keymapper.c"
   2               	__SREG__ = 0x3f
   3               	__SP_H__ = 0x3e
   4               	__SP_L__ = 0x3d
   5               	__CCP__  = 0x34
   6               	__tmp_reg__ = 0
   7               	__zero_reg__ = 1
   8               		.section	.debug_abbrev,"",@progbits
   9               	.Ldebug_abbrev0:
  10               		.section	.debug_info,"",@progbits
  11               	.Ldebug_info0:
  12               		.section	.debug_line,"",@progbits
  13               	.Ldebug_line0:
  14               		.text
  15               	.Ltext0:
  16               	.global	setWillStartKeyMapping
  17               		.type	setWillStartKeyMapping, @function
  18               	setWillStartKeyMapping:
  19               	.LFB8:
  20               	.LM1:
  21               	/* prologue: function */
  22               	/* frame size = 0 */
  23               	.LM2:
  24 0000 8091 0000 		lds r24,_isKeyMapping
  25 0004 8160      		ori r24,lo8(1)
  26 0006 8093 0000 		sts _isKeyMapping,r24
  27               	/* epilogue start */
  28               	.LM3:
  29 000a 0895      		ret
  30               	.LFE8:
  31               		.size	setWillStartKeyMapping, .-setWillStartKeyMapping
  32               	.global	isKeyMapping
  33               		.type	isKeyMapping, @function
  34               	isKeyMapping:
  35               	.LFB9:
  36               	.LM4:
  37               	/* prologue: function */
  38               	/* frame size = 0 */
  39               	.LM5:
  40 000c 8091 0000 		lds r24,_isKeyMapping
  41               	.LM6:
  42 0010 8170      		andi r24,lo8(1)
  43               	/* epilogue start */
  44 0012 0895      		ret
  45               	.LFE9:
  46               		.size	isKeyMapping, .-isKeyMapping
  47               	.global	isDeepKeyMapping
  48               		.type	isDeepKeyMapping, @function
  49               	isDeepKeyMapping:
  50               	.LFB10:
  51               	.LM7:
  52               	/* prologue: function */
  53               	/* frame size = 0 */
  54               	.LM8:
  55 0014 8091 0000 		lds r24,_isKeyMapping
  56               	.LM9:
  57 0018 8270      		andi r24,lo8(2)
GAS LISTING C:\Users\ADMINI~1\AppData\Local\Temp/ccypPrtA.s 			page 2


  58               	/* epilogue start */
  59 001a 0895      		ret
  60               	.LFE10:
  61               		.size	isDeepKeyMapping, .-isDeepKeyMapping
  62               	.global	applyKeyMapping
  63               		.type	applyKeyMapping, @function
  64               	applyKeyMapping:
  65               	.LFB11:
  66               	.LM10:
  67               	.LVL0:
  68               	/* prologue: function */
  69               	/* frame size = 0 */
  70 001c 982F      		mov r25,r24
  71               	.LM11:
  72 001e 8091 0000 		lds r24,_isKeyMapping
  73               	.LVL1:
  74 0022 80FD      		sbrc r24,0
  75 0024 00C0      		rjmp .L11
  76               	.LM12:
  77 0026 9730      		cpi r25,lo8(7)
  78 0028 01F4      		brne .L9
  79               	.LM13:
  80 002a 1092 0000 		sts (keyMappingCount)+1,__zero_reg__
  81 002e 1092 0000 		sts keyMappingCount,__zero_reg__
  82               	.LM14:
  83 0032 81E0      		ldi r24,lo8(1)
  84 0034 8093 0000 		sts enabledKeyMappingCount,r24
  85               	.LM15:
  86 0038 8091 0000 		lds r24,INTERFACE
  87 003c 8823      		tst r24
  88 003e 01F0      		breq .L10
  89 0040 8330      		cpi r24,lo8(3)
  90 0042 01F4      		brne .L11
  91               	.L10:
  92               	.LM16:
  93 0044 84EC      		ldi r24,lo8(2500)
  94 0046 99E0      		ldi r25,hi8(2500)
  95 0048 9093 0000 		sts (keyMappingCountMax)+1,r25
  96 004c 8093 0000 		sts keyMappingCountMax,r24
  97 0050 0895      		ret
  98               	.L9:
  99               	.LM17:
 100 0052 1092 0000 		sts _isKeyMapping,__zero_reg__
 101               	.LM18:
 102 0056 1092 0000 		sts enabledKeyMappingCount,__zero_reg__
 103               	.L11:
 104 005a 0895      		ret
 105               	.LFE11:
 106               		.size	applyKeyMapping, .-applyKeyMapping
 107               	.global	isReadyKeyMappingOnBoot
 108               		.type	isReadyKeyMappingOnBoot, @function
 109               	isReadyKeyMappingOnBoot:
 110               	.LFB14:
 111               	.LM19:
 112               	/* prologue: function */
 113               	/* frame size = 0 */
 114               	.LM20:
GAS LISTING C:\Users\ADMINI~1\AppData\Local\Temp/ccypPrtA.s 			page 3


 115 005c 8091 0000 		lds r24,_keyMappingOnBoot
 116               	/* epilogue start */
 117 0060 0895      		ret
 118               	.LFE14:
 119               		.size	isReadyKeyMappingOnBoot, .-isReadyKeyMappingOnBoot
 120               	.global	readyKeyMappingOnBoot
 121               		.type	readyKeyMappingOnBoot, @function
 122               	readyKeyMappingOnBoot:
 123               	.LFB15:
 124               	.LM21:
 125               	/* prologue: function */
 126               	/* frame size = 0 */
 127               	.LM22:
 128 0062 81E0      		ldi r24,lo8(1)
 129 0064 8093 0000 		sts _keyMappingOnBoot,r24
 130               	/* epilogue start */
 131               	.LM23:
 132 0068 0895      		ret
 133               	.LFE15:
 134               		.size	readyKeyMappingOnBoot, .-readyKeyMappingOnBoot
 135               	.global	stopKeyMapping
 136               		.type	stopKeyMapping, @function
 137               	stopKeyMapping:
 138               	.LFB18:
 139               	.LM24:
 140               	/* prologue: function */
 141               	/* frame size = 0 */
 142               	.LM25:
 143 006a 1092 0000 		sts _isKeyMapping,__zero_reg__
 144               	.LM26:
 145 006e 1092 0000 		sts _wait,__zero_reg__
 146               	/* epilogue start */
 147               	.LM27:
 148 0072 0895      		ret
 149               	.LFE18:
 150               		.size	stopKeyMapping, .-stopKeyMapping
 151               	.global	isMacroKey
 152               		.type	isMacroKey, @function
 153               	isMacroKey:
 154               	.LFB23:
 155               	.LM28:
 156               	.LVL2:
 157               	/* prologue: function */
 158               	/* frame size = 0 */
 159               	.LM29:
 160 0074 90E0      		ldi r25,lo8(0)
 161 0076 895C      		subi r24,lo8(-(55))
 162               	.LVL3:
 163 0078 8C30      		cpi r24,lo8(12)
 164 007a 00F4      		brsh .L19
 165 007c 91E0      		ldi r25,lo8(1)
 166               	.L19:
 167               	.LM30:
 168 007e 892F      		mov r24,r25
 169               	/* epilogue start */
 170 0080 0895      		ret
 171               	.LFE23:
GAS LISTING C:\Users\ADMINI~1\AppData\Local\Temp/ccypPrtA.s 			page 4


 172               		.size	isMacroKey, .-isMacroKey
 173               	.global	escapeMacroKeycode
 174               		.type	escapeMacroKeycode, @function
 175               	escapeMacroKeycode:
 176               	.LFB24:
 177               	.LM31:
 178               	.LVL4:
 179               	/* prologue: function */
 180               	/* frame size = 0 */
 181 0082 982F      		mov r25,r24
 182               	.LBB68:
 183               	.LBB69:
 184               	.LM32:
 185 0084 895C      		subi r24,lo8(-(55))
 186               	.LVL5:
 187 0086 8C30      		cpi r24,lo8(12)
 188 0088 00F4      		brsh .L22
 189 008a 90E0      		ldi r25,lo8(0)
 190               	.L22:
 191               	.LBE69:
 192               	.LBE68:
 193               	.LM33:
 194 008c 892F      		mov r24,r25
 195               	/* epilogue start */
 196 008e 0895      		ret
 197               	.LFE24:
 198               		.size	escapeMacroKeycode, .-escapeMacroKeycode
 199               	.global	isMacroInput
 200               		.type	isMacroInput, @function
 201               	isMacroInput:
 202               	.LFB46:
 203               	.LM34:
 204               	/* prologue: function */
 205               	/* frame size = 0 */
 206               	.LM35:
 207 0090 90E0      		ldi r25,lo8(0)
 208 0092 8091 0000 		lds r24,_step
 209 0096 8B30      		cpi r24,lo8(11)
 210 0098 01F4      		brne .L25
 211 009a 91E0      		ldi r25,lo8(1)
 212               	.L25:
 213               	.LM36:
 214 009c 892F      		mov r24,r25
 215               	/* epilogue start */
 216 009e 0895      		ret
 217               	.LFE46:
 218               		.size	isMacroInput, .-isMacroInput
 219               		.type	printEnter, @function
 220               	printEnter:
 221               	.LFB27:
 222               	.LM37:
 223               	/* prologue: function */
 224               	/* frame size = 0 */
 225               	.LM38:
 226 00a0 88E2      		ldi r24,lo8(40)
 227 00a2 0E94 0000 		call pushM
 228               	.LM39:
GAS LISTING C:\Users\ADMINI~1\AppData\Local\Temp/ccypPrtA.s 			page 5


 229 00a6 88E2      		ldi r24,lo8(40)
 230 00a8 0E94 0000 		call pushM
 231               	/* epilogue start */
 232               	.LM40:
 233 00ac 0895      		ret
 234               	.LFE27:
 235               		.size	printEnter, .-printEnter
 236               	.global	resetMacroInput
 237               		.type	resetMacroInput, @function
 238               	resetMacroInput:
 239               	.LFB47:
 240               	.LM41:
 241               	/* prologue: function */
 242               	/* frame size = 0 */
 243               	.LM42:
 244 00ae 80E3      		ldi r24,lo8(48)
 245 00b0 E0E0      		ldi r30,lo8(_macroInputBuffer)
 246 00b2 F0E0      		ldi r31,hi8(_macroInputBuffer)
 247 00b4 DF01      		movw r26,r30
 248 00b6 982F      		mov r25,r24
 249 00b8 1D92      		st X+,__zero_reg__
 250 00ba 9A95      	        dec r25
 251 00bc 01F4      		brne .-6
 252               	.LM43:
 253 00be 1092 0000 		sts _macroBufferIndex,__zero_reg__
 254               	.LM44:
 255 00c2 E0E0      		ldi r30,lo8(_macroPressedBuffer)
 256 00c4 F0E0      		ldi r31,hi8(_macroPressedBuffer)
 257 00c6 DF01      		movw r26,r30
 258 00c8 1D92      		st X+,__zero_reg__
 259 00ca 8A95      	        dec r24
 260 00cc 01F4      		brne .-6
 261               	.LM45:
 262 00ce 1092 0000 		sts _macroDownCount,__zero_reg__
 263               	/* epilogue start */
 264               	.LM46:
 265 00d2 0895      		ret
 266               	.LFE47:
 267               		.size	resetMacroInput, .-resetMacroInput
 268               		.type	pushCharacter, @function
 269               	pushCharacter:
 270               	.LFB26:
 271               	.LM47:
 272               	.LVL6:
 273 00d4 0F93      		push r16
 274 00d6 1F93      		push r17
 275               	/* prologue: function */
 276               	/* frame size = 0 */
 277 00d8 FC01      		movw r30,r24
 278               	.LM48:
 279 00da 8081      		ld r24,Z
 280               	.LVL7:
 281 00dc 0E94 0000 		call charToKey
 282               	.LVL8:
 283 00e0 8C01      		movw r16,r24
 284               	.LM49:
 285 00e2 8823      		tst r24
GAS LISTING C:\Users\ADMINI~1\AppData\Local\Temp/ccypPrtA.s 			page 6


 286               	.LVL9:
 287 00e4 01F0      		breq .L32
 288               	.LM50:
 289 00e6 88E6      		ldi r24,lo8(104)
 290               	.LVL10:
 291 00e8 0E94 0000 		call pushM
 292               	.LVL11:
 293               	.L32:
 294               	.LM51:
 295 00ec 812F      		mov r24,r17
 296               	.LVL12:
 297 00ee 0E94 0000 		call pushM
 298               	.LM52:
 299 00f2 812F      		mov r24,r17
 300 00f4 0E94 0000 		call pushM
 301               	.LM53:
 302 00f8 0023      		tst r16
 303               	.LVL13:
 304 00fa 01F0      		breq .L34
 305               	.LM54:
 306 00fc 88E6      		ldi r24,lo8(104)
 307 00fe 0E94 0000 		call pushM
 308               	.L34:
 309               	/* epilogue start */
 310               	.LM55:
 311 0102 1F91      		pop r17
 312 0104 0F91      		pop r16
 313               	.LVL14:
 314 0106 0895      		ret
 315               	.LFE26:
 316               		.size	pushCharacter, .-pushCharacter
 317               		.data
 318               	.LC0:
 319 0000 2563 00   		.string	"%c"
 320               		.text
 321               		.type	printStringFromFlash, @function
 322               	printStringFromFlash:
 323               	.LFB29:
 324               	.LM56:
 325               	.LVL15:
 326 0108 CF92      		push r12
 327 010a DF92      		push r13
 328 010c EF92      		push r14
 329 010e FF92      		push r15
 330 0110 0F93      		push r16
 331 0112 1F93      		push r17
 332 0114 DF93      		push r29
 333 0116 CF93      		push r28
 334 0118 0F92      		push __tmp_reg__
 335 011a CDB7      		in r28,__SP_L__
 336 011c DEB7      		in r29,__SP_H__
 337               	/* prologue: function */
 338               	/* frame size = 1 */
 339 011e 8C01      		movw r16,r24
 340               	.LM57:
 341 0120 0097      		sbiw r24,0
 342 0122 01F4      		brne .L40
GAS LISTING C:\Users\ADMINI~1\AppData\Local\Temp/ccypPrtA.s 			page 7


 343 0124 00C0      		rjmp .L39
 344               	.LVL16:
 345               	.L38:
 346               	.LM58:
 347 0126 00D0      		rcall .
 348 0128 00D0      		rcall .
 349 012a 00D0      		rcall .
 350 012c EDB7      		in r30,__SP_L__
 351 012e FEB7      		in r31,__SP_H__
 352               	.LVL17:
 353 0130 3196      		adiw r30,1
 354 0132 ADB7      		in r26,__SP_L__
 355 0134 BEB7      		in r27,__SP_H__
 356 0136 1296      		adiw r26,1+1
 357 0138 FC92      		st X,r15
 358 013a EE92      		st -X,r14
 359 013c 1197      		sbiw r26,1
 360 013e D382      		std Z+3,r13
 361 0140 C282      		std Z+2,r12
 362 0142 9927      		clr r25
 363 0144 87FD      		sbrc r24,7
 364 0146 9095      		com r25
 365               	.LVL18:
 366 0148 9583      		std Z+5,r25
 367 014a 8483      		std Z+4,r24
 368 014c 0E94 0000 		call sprintf
 369               	.LVL19:
 370               	.LM59:
 371 0150 8DB7      		in r24,__SP_L__
 372 0152 9EB7      		in r25,__SP_H__
 373 0154 0696      		adiw r24,6
 374 0156 0FB6      		in __tmp_reg__,__SREG__
 375 0158 F894      		cli
 376 015a 9EBF      		out __SP_H__,r25
 377 015c 0FBE      		out __SREG__,__tmp_reg__
 378 015e 8DBF      		out __SP_L__,r24
 379 0160 C701      		movw r24,r14
 380 0162 0E94 0000 		call pushCharacter
 381 0166 00C0      		rjmp .L41
 382               	.LVL20:
 383               	.L40:
 384               	.LM60:
 385 0168 7E01      		movw r14,r28
 386 016a 0894      		sec
 387 016c E11C      		adc r14,__zero_reg__
 388 016e F11C      		adc r15,__zero_reg__
 389 0170 80E0      		ldi r24,lo8(.LC0)
 390 0172 C82E      		mov r12,r24
 391 0174 80E0      		ldi r24,hi8(.LC0)
 392 0176 D82E      		mov r13,r24
 393               	.LVL21:
 394               	.L41:
 395               	.LM61:
 396 0178 F801      		movw r30,r16
 397               	.LVL22:
 398               	.LBB70:
 399               	.LM62:
GAS LISTING C:\Users\ADMINI~1\AppData\Local\Temp/ccypPrtA.s 			page 8


 400 017a 0F5F      		subi r16,lo8(-(1))
 401 017c 1F4F      		sbci r17,hi8(-(1))
 402               	/* #APP */
 403               	 ;  357 "keymapper.c" 1
 404 017e 8491      		lpm r24, Z
 405               		
 406               	 ;  0 "" 2
 407               	.LVL23:
 408               	/* #NOAPP */
 409               	.LBE70:
 410 0180 8823      		tst r24
 411 0182 01F4      		brne .L38
 412               	.LVL24:
 413               	.L39:
 414               	/* epilogue start */
 415               	.LM63:
 416 0184 0F90      		pop __tmp_reg__
 417 0186 CF91      		pop r28
 418 0188 DF91      		pop r29
 419 018a 1F91      		pop r17
 420 018c 0F91      		pop r16
 421               	.LVL25:
 422 018e FF90      		pop r15
 423 0190 EF90      		pop r14
 424 0192 DF90      		pop r13
 425 0194 CF90      		pop r12
 426 0196 0895      		ret
 427               	.LFE29:
 428               		.size	printStringFromFlash, .-printStringFromFlash
 429               	.global	resetCurrentLayer
 430               		.type	resetCurrentLayer, @function
 431               	resetCurrentLayer:
 432               	.LFB45:
 433               	.LM64:
 434               	/* prologue: function */
 435               	/* frame size = 0 */
 436               	.LM65:
 437 0198 80E0      		ldi r24,lo8(str_reset_mapping)
 438 019a 90E0      		ldi r25,hi8(str_reset_mapping)
 439 019c 0E94 0000 		call printStringFromFlash
 440               	.LM66:
 441 01a0 0E94 0000 		call printEnter
 442 01a4 20E0      		ldi r18,lo8(_newKeyMap+8)
 443 01a6 30E0      		ldi r19,hi8(_newKeyMap+8)
 444 01a8 80E0      		ldi r24,lo8(0)
 445 01aa 90E0      		ldi r25,hi8(0)
 446 01ac 00C0      		rjmp .L43
 447               	.L44:
 448               	.LM67:
 449 01ae 1192      		st Z+,__zero_reg__
 450               	.LM68:
 451 01b0 E217      		cp r30,r18
 452 01b2 F307      		cpc r31,r19
 453 01b4 01F4      		brne .L44
 454 01b6 0196      		adiw r24,1
 455 01b8 9F01      		movw r18,r30
 456 01ba 285F      		subi r18,lo8(-(8))
GAS LISTING C:\Users\ADMINI~1\AppData\Local\Temp/ccypPrtA.s 			page 9


 457 01bc 3F4F      		sbci r19,hi8(-(8))
 458               	.LM69:
 459 01be 8131      		cpi r24,17
 460 01c0 9105      		cpc r25,__zero_reg__
 461 01c2 01F0      		breq .L45
 462               	.L43:
 463 01c4 FC01      		movw r30,r24
 464 01c6 43E0      		ldi r20,3
 465 01c8 EE0F      	1:	lsl r30
 466 01ca FF1F      		rol r31
 467 01cc 4A95      		dec r20
 468 01ce 01F4      		brne 1b
 469 01d0 E050      		subi r30,lo8(-(_newKeyMap))
 470 01d2 F040      		sbci r31,hi8(-(_newKeyMap))
 471 01d4 00C0      		rjmp .L44
 472               	.L45:
 473               	.LM70:
 474 01d6 81E0      		ldi r24,lo8(1)
 475 01d8 90E0      		ldi r25,hi8(1)
 476 01da 9093 0000 		sts (_editCount)+1,r25
 477 01de 8093 0000 		sts _editCount,r24
 478               	/* epilogue start */
 479               	.LM71:
 480 01e2 0895      		ret
 481               	.LFE45:
 482               		.size	resetCurrentLayer, .-resetCurrentLayer
 483               	.global	clearMacro
 484               		.type	clearMacro, @function
 485               	clearMacro:
 486               	.LFB44:
 487               	.LM72:
 488               	/* prologue: function */
 489               	/* frame size = 0 */
 490               	.LM73:
 491 01e4 80E0      		ldi r24,lo8(str_clear_all_macro)
 492 01e6 90E0      		ldi r25,hi8(str_clear_all_macro)
 493 01e8 0E94 0000 		call printStringFromFlash
 494               	.LM74:
 495 01ec 0E94 0000 		call printEnter
 496               	.LM75:
 497 01f0 81E0      		ldi r24,lo8(1)
 498 01f2 8093 0000 		sts _isWorkingForEmpty,r24
 499               	.LM76:
 500 01f6 8CE0      		ldi r24,lo8(12)
 501 01f8 8093 0000 		sts _wait,r24
 502               	.LM77:
 503 01fc 1092 0000 		sts _step,__zero_reg__
 504               	/* epilogue start */
 505               	.LM78:
 506 0200 0895      		ret
 507               	.LFE44:
 508               		.size	clearMacro, .-clearMacro
 509               	.global	saveCurrentLayer
 510               		.type	saveCurrentLayer, @function
 511               	saveCurrentLayer:
 512               	.LFB39:
 513               	.LM79:
GAS LISTING C:\Users\ADMINI~1\AppData\Local\Temp/ccypPrtA.s 			page 10


 514               	/* prologue: function */
 515               	/* frame size = 0 */
 516               	.LM80:
 517 0202 8091 0000 		lds r24,_editCount
 518 0206 9091 0000 		lds r25,(_editCount)+1
 519 020a 892B      		or r24,r25
 520 020c 01F4      		brne .L51
 521               	.LBB71:
 522               	.LBB72:
 523               	.LM81:
 524 020e 1092 0000 		sts _isKeyMapping,__zero_reg__
 525               	.LM82:
 526 0212 1092 0000 		sts _wait,__zero_reg__
 527 0216 0895      		ret
 528               	.L51:
 529               	.LBE72:
 530               	.LBE71:
 531               	.LM83:
 532 0218 80E0      		ldi r24,lo8(str_saving)
 533 021a 90E0      		ldi r25,hi8(str_saving)
 534 021c 0E94 0000 		call printStringFromFlash
 535               	.LM84:
 536 0220 0E94 0000 		call printEnter
 537               	.LM85:
 538 0224 81E0      		ldi r24,lo8(1)
 539 0226 8093 0000 		sts _isWorkingForEmpty,r24
 540               	.LM86:
 541 022a 8BE0      		ldi r24,lo8(11)
 542 022c 8093 0000 		sts _wait,r24
 543               	.LM87:
 544 0230 8091 0000 		lds r24,_step
 545 0234 8093 0000 		sts _stepAfterLayerSave,r24
 546               	.LM88:
 547 0238 1092 0000 		sts _step,__zero_reg__
 548 023c 0895      		ret
 549               	.LFE39:
 550               		.size	saveCurrentLayer, .-saveCurrentLayer
 551               	.global	printPrepareString
 552               		.type	printPrepareString, @function
 553               	printPrepareString:
 554               	.LFB35:
 555               	.LM89:
 556               	/* prologue: function */
 557               	/* frame size = 0 */
 558               	.LM90:
 559 023e 80E0      		ldi r24,lo8(str_prepare_message)
 560 0240 90E0      		ldi r25,hi8(str_prepare_message)
 561 0242 0E94 0000 		call printStringFromFlash
 562               	.LM91:
 563 0246 0E94 0000 		call printEnter
 564               	/* epilogue start */
 565               	.LM92:
 566 024a 0895      		ret
 567               	.LFE35:
 568               		.size	printPrepareString, .-printPrepareString
 569               	.global	printMacroMessage
 570               		.type	printMacroMessage, @function
GAS LISTING C:\Users\ADMINI~1\AppData\Local\Temp/ccypPrtA.s 			page 11


 571               	printMacroMessage:
 572               	.LFB34:
 573               	.LM93:
 574               	/* prologue: function */
 575               	/* frame size = 0 */
 576               	.LM94:
 577 024c 0E94 0000 		call printEnter
 578               	.LM95:
 579 0250 80E0      		ldi r24,lo8(str_macro_message)
 580 0252 90E0      		ldi r25,hi8(str_macro_message)
 581 0254 0E94 0000 		call printStringFromFlash
 582               	.LM96:
 583 0258 0E94 0000 		call printEnter
 584               	.LM97:
 585 025c 80E0      		ldi r24,lo8(str_macro_1)
 586 025e 90E0      		ldi r25,hi8(str_macro_1)
 587 0260 0E94 0000 		call printStringFromFlash
 588               	.LM98:
 589 0264 0E94 0000 		call printEnter
 590               	.LM99:
 591 0268 80E0      		ldi r24,lo8(str_macro_2)
 592 026a 90E0      		ldi r25,hi8(str_macro_2)
 593 026c 0E94 0000 		call printStringFromFlash
 594               	.LM100:
 595 0270 0E94 0000 		call printEnter
 596               	.LM101:
 597 0274 80E0      		ldi r24,lo8(str_back_6)
 598 0276 90E0      		ldi r25,hi8(str_back_6)
 599 0278 0E94 0000 		call printStringFromFlash
 600               	.LM102:
 601 027c 0E94 0000 		call printEnter
 602               	.LM103:
 603 0280 80E0      		ldi r24,lo8(str_macro_9)
 604 0282 90E0      		ldi r25,hi8(str_macro_9)
 605 0284 0E94 0000 		call printStringFromFlash
 606               	.LM104:
 607 0288 0E94 0000 		call printEnter
 608               	.LM105:
 609 028c 87E0      		ldi r24,lo8(7)
 610 028e 8093 0000 		sts _step,r24
 611               	/* epilogue start */
 612               	.LM106:
 613 0292 0895      		ret
 614               	.LFE34:
 615               		.size	printMacroMessage, .-printMacroMessage
 616               	.global	printString
 617               		.type	printString, @function
 618               	printString:
 619               	.LFB28:
 620               	.LM107:
 621               	.LVL26:
 622 0294 AF92      		push r10
 623 0296 BF92      		push r11
 624 0298 CF92      		push r12
 625 029a DF92      		push r13
 626 029c FF92      		push r15
 627 029e 0F93      		push r16
GAS LISTING C:\Users\ADMINI~1\AppData\Local\Temp/ccypPrtA.s 			page 12


 628 02a0 1F93      		push r17
 629 02a2 DF93      		push r29
 630 02a4 CF93      		push r28
 631 02a6 0F92      		push __tmp_reg__
 632 02a8 CDB7      		in r28,__SP_L__
 633 02aa DEB7      		in r29,__SP_H__
 634               	/* prologue: function */
 635               	/* frame size = 1 */
 636 02ac 8C01      		movw r16,r24
 637               	.LM108:
 638 02ae FF24      		clr r15
 639               	.LVL27:
 640               	.LM109:
 641 02b0 6E01      		movw r12,r28
 642 02b2 0894      		sec
 643 02b4 C11C      		adc r12,__zero_reg__
 644 02b6 D11C      		adc r13,__zero_reg__
 645 02b8 50E0      		ldi r21,lo8(.LC0)
 646 02ba A52E      		mov r10,r21
 647 02bc 50E0      		ldi r21,hi8(.LC0)
 648 02be B52E      		mov r11,r21
 649 02c0 00C0      		rjmp .L59
 650               	.LVL28:
 651               	.L60:
 652 02c2 00D0      		rcall .
 653 02c4 00D0      		rcall .
 654 02c6 00D0      		rcall .
 655 02c8 EDB7      		in r30,__SP_L__
 656 02ca FEB7      		in r31,__SP_H__
 657 02cc 3196      		adiw r30,1
 658 02ce ADB7      		in r26,__SP_L__
 659 02d0 BEB7      		in r27,__SP_H__
 660 02d2 1296      		adiw r26,1+1
 661 02d4 DC92      		st X,r13
 662 02d6 CE92      		st -X,r12
 663 02d8 1197      		sbiw r26,1
 664 02da B382      		std Z+3,r11
 665 02dc A282      		std Z+2,r10
 666 02de 800F      		add r24,r16
 667 02e0 911F      		adc r25,r17
 668 02e2 DC01      		movw r26,r24
 669 02e4 8C91      		ld r24,X
 670 02e6 9927      		clr r25
 671 02e8 87FD      		sbrc r24,7
 672 02ea 9095      		com r25
 673 02ec 9583      		std Z+5,r25
 674 02ee 8483      		std Z+4,r24
 675 02f0 0E94 0000 		call sprintf
 676               	.LM110:
 677 02f4 8DB7      		in r24,__SP_L__
 678 02f6 9EB7      		in r25,__SP_H__
 679 02f8 0696      		adiw r24,6
 680 02fa 0FB6      		in __tmp_reg__,__SREG__
 681 02fc F894      		cli
 682 02fe 9EBF      		out __SP_H__,r25
 683 0300 0FBE      		out __SREG__,__tmp_reg__
 684 0302 8DBF      		out __SP_L__,r24
GAS LISTING C:\Users\ADMINI~1\AppData\Local\Temp/ccypPrtA.s 			page 13


 685 0304 C601      		movw r24,r12
 686 0306 0E94 0000 		call pushCharacter
 687               	.LM111:
 688 030a F394      		inc r15
 689               	.LVL29:
 690               	.L59:
 691 030c 8F2D      		mov r24,r15
 692 030e 90E0      		ldi r25,lo8(0)
 693 0310 F801      		movw r30,r16
 694 0312 0190      		ld __tmp_reg__,Z+
 695 0314 0020      		tst __tmp_reg__
 696 0316 01F4      		brne .-6
 697 0318 3197      		sbiw r30,1
 698 031a E01B      		sub r30,r16
 699 031c F10B      		sbc r31,r17
 700 031e 8E17      		cp r24,r30
 701 0320 9F07      		cpc r25,r31
 702 0322 00F0      		brlo .L60
 703               	/* epilogue start */
 704               	.LM112:
 705 0324 0F90      		pop __tmp_reg__
 706 0326 CF91      		pop r28
 707 0328 DF91      		pop r29
 708 032a 1F91      		pop r17
 709 032c 0F91      		pop r16
 710               	.LVL30:
 711 032e FF90      		pop r15
 712               	.LVL31:
 713 0330 DF90      		pop r13
 714 0332 CF90      		pop r12
 715 0334 BF90      		pop r11
 716 0336 AF90      		pop r10
 717 0338 0895      		ret
 718               	.LFE28:
 719               		.size	printString, .-printString
 720               		.type	printPrompt, @function
 721               	printPrompt:
 722               	.LFB30:
 723               	.LM113:
 724               	/* prologue: function */
 725               	/* frame size = 0 */
 726               	.LM114:
 727 033a 81E0      		ldi r24,lo8(1)
 728 033c 8093 0000 		sts _isWorkingForEmpty,r24
 729               	.LM115:
 730 0340 8091 0000 		lds r24,_step
 731 0344 8930      		cpi r24,lo8(9)
 732 0346 00F4      		brsh .L77
 733 0348 8730      		cpi r24,lo8(7)
 734 034a 00F4      		brsh .L70
 735 034c 8330      		cpi r24,lo8(3)
 736 034e 01F0      		breq .L66
 737 0350 8430      		cpi r24,lo8(4)
 738 0352 00F4      		brsh .L78
 739 0354 8130      		cpi r24,lo8(1)
 740 0356 01F0      		breq .L64
 741 0358 8230      		cpi r24,lo8(2)
GAS LISTING C:\Users\ADMINI~1\AppData\Local\Temp/ccypPrtA.s 			page 14


 742 035a 01F0      		breq .+2
 743 035c 00C0      		rjmp .L85
 744 035e 00C0      		rjmp .L90
 745               	.L78:
 746 0360 8530      		cpi r24,lo8(5)
 747 0362 01F0      		breq .L68
 748 0364 8630      		cpi r24,lo8(6)
 749 0366 00F4      		brsh .L69
 750 0368 00C0      		rjmp .L91
 751               	.L77:
 752 036a 8B30      		cpi r24,lo8(11)
 753 036c 01F0      		breq .L73
 754 036e 8C30      		cpi r24,lo8(12)
 755 0370 00F4      		brsh .L79
 756 0372 8930      		cpi r24,lo8(9)
 757 0374 01F0      		breq .L71
 758 0376 8A30      		cpi r24,lo8(10)
 759 0378 01F0      		breq .+2
 760 037a 00C0      		rjmp .L85
 761 037c 00C0      		rjmp .L92
 762               	.L79:
 763 037e 8E36      		cpi r24,lo8(110)
 764 0380 01F4      		brne .+2
 765 0382 00C0      		rjmp .L75
 766 0384 8837      		cpi r24,lo8(120)
 767 0386 01F0      		breq .L76
 768 0388 8436      		cpi r24,lo8(100)
 769 038a 01F0      		breq .+2
 770 038c 00C0      		rjmp .L85
 771 038e 00C0      		rjmp .L74
 772               	.L64:
 773               	.LM116:
 774 0390 80E0      		ldi r24,lo8(str_choose_layer)
 775 0392 90E0      		ldi r25,hi8(str_choose_layer)
 776 0394 0E94 0000 		call printStringFromFlash
 777               	.LM117:
 778 0398 8091 0000 		lds r24,_currentLayer
 779 039c 8F5F      		subi r24,lo8(-(1))
 780 039e 0E94 0000 		call toString
 781 03a2 0E94 0000 		call printString
 782 03a6 00C0      		rjmp .L88
 783               	.L90:
 784               	.LM118:
 785 03a8 80E0      		ldi r24,lo8(str_choose_key)
 786 03aa 90E0      		ldi r25,hi8(str_choose_key)
 787 03ac 00C0      		rjmp .L89
 788               	.L66:
 789               	.LM119:
 790 03ae 80E0      		ldi r24,lo8(str_input_keycode)
 791 03b0 90E0      		ldi r25,hi8(str_input_keycode)
 792 03b2 00C0      		rjmp .L86
 793               	.L91:
 794               	.LM120:
 795 03b4 80E0      		ldi r24,lo8(str_save_end_mapping)
 796 03b6 90E0      		ldi r25,hi8(str_save_end_mapping)
 797 03b8 00C0      		rjmp .L87
 798               	.L68:
GAS LISTING C:\Users\ADMINI~1\AppData\Local\Temp/ccypPrtA.s 			page 15


 799               	.LM121:
 800 03ba 80E0      		ldi r24,lo8(str_cancel_mapping)
 801 03bc 90E0      		ldi r25,hi8(str_cancel_mapping)
 802 03be 00C0      		rjmp .L87
 803               	.L69:
 804               	.LM122:
 805 03c0 1092 0000 		sts _isWorkingForEmpty,__zero_reg__
 806 03c4 00C0      		rjmp .L85
 807               	.L70:
 808               	.LM123:
 809 03c6 80E0      		ldi r24,lo8(str_input_command)
 810 03c8 90E0      		ldi r25,hi8(str_input_command)
 811               	.L86:
 812 03ca 0E94 0000 		call printStringFromFlash
 813 03ce 00C0      		rjmp .L85
 814               	.L71:
 815               	.LM124:
 816 03d0 80E0      		ldi r24,lo8(str_select_number)
 817 03d2 90E0      		ldi r25,hi8(str_select_number)
 818 03d4 00C0      		rjmp .L86
 819               	.L92:
 820               	.LM125:
 821 03d6 80E0      		ldi r24,lo8(str_exit_macro)
 822 03d8 90E0      		ldi r25,hi8(str_exit_macro)
 823 03da 00C0      		rjmp .L87
 824               	.L73:
 825               	.LM126:
 826 03dc 80E0      		ldi r24,lo8(str_input_macro)
 827 03de 90E0      		ldi r25,hi8(str_input_macro)
 828               	.L89:
 829 03e0 0E94 0000 		call printStringFromFlash
 830               	.L88:
 831               	.LM127:
 832 03e4 0E94 0000 		call printEnter
 833 03e8 00C0      		rjmp .L85
 834               	.L76:
 835               	.LM128:
 836 03ea 80E0      		ldi r24,lo8(str_boot_mapper)
 837 03ec 90E0      		ldi r25,hi8(str_boot_mapper)
 838 03ee 0E94 0000 		call printStringFromFlash
 839               	.LM129:
 840 03f2 0E94 0000 		call printEnter
 841               	.LM130:
 842 03f6 1092 0000 		sts _step,__zero_reg__
 843               	.LM131:
 844 03fa 0E94 0000 		call setToBootMapper
 845 03fe 00C0      		rjmp .L85
 846               	.L74:
 847               	.LM132:
 848 0400 80E0      		ldi r24,lo8(str_exit)
 849 0402 90E0      		ldi r25,hi8(str_exit)
 850               	.L87:
 851 0404 0E94 0000 		call printStringFromFlash
 852               	.LM133:
 853 0408 0E94 0000 		call printEnter
 854               	.LM134:
 855 040c 1092 0000 		sts _step,__zero_reg__
GAS LISTING C:\Users\ADMINI~1\AppData\Local\Temp/ccypPrtA.s 			page 16


 856 0410 00C0      		rjmp .L85
 857               	.L75:
 858               	.LM135:
 859 0412 0E94 0000 		call printSelectMode
 860               	.L85:
 861 0416 88EE      		ldi r24,lo8(1000)
 862 0418 93E0      		ldi r25,hi8(1000)
 863               	.LVL32:
 864               	.LBB73:
 865               	.LBB74:
 866               	.LBB75:
 867               	.LBB76:
 868               	.LM136:
 869 041a 2CE2      		ldi r18,lo8(300)
 870 041c 31E0      		ldi r19,hi8(300)
 871               	.L82:
 872 041e F901      		movw r30,r18
 873               	.LVL33:
 874               	/* #APP */
 875               	 ;  105 "c:/winavr-20100110/lib/gcc/../../avr/include/util/delay_basic.h" 1
 876 0420 3197      		1: sbiw r30,1
 877 0422 01F4      		brne 1b
 878               	 ;  0 "" 2
 879               	/* #NOAPP */
 880               	.LBE76:
 881               	.LBE75:
 882               	.LM137:
 883 0424 0197      		sbiw r24,1
 884               	.LM138:
 885 0426 01F4      		brne .L82
 886               	/* epilogue start */
 887               	.LBE74:
 888               	.LBE73:
 889               	.LM139:
 890 0428 0895      		ret
 891               	.LFE30:
 892               		.size	printPrompt, .-printPrompt
 893               	.global	printMapperMessageAfter
 894               		.type	printMapperMessageAfter, @function
 895               	printMapperMessageAfter:
 896               	.LFB32:
 897               	.LM140:
 898               	/* prologue: function */
 899               	/* frame size = 0 */
 900               	.LM141:
 901 042a 0E94 0000 		call printEnter
 902               	.LM142:
 903 042e 80E0      		ldi r24,lo8(str_mapper_3)
 904 0430 90E0      		ldi r25,hi8(str_mapper_3)
 905 0432 0E94 0000 		call printStringFromFlash
 906               	.LM143:
 907 0436 0E94 0000 		call printEnter
 908               	.LM144:
 909 043a 80E0      		ldi r24,lo8(str_mapper_4)
 910 043c 90E0      		ldi r25,hi8(str_mapper_4)
 911 043e 0E94 0000 		call printStringFromFlash
 912               	.LM145:
GAS LISTING C:\Users\ADMINI~1\AppData\Local\Temp/ccypPrtA.s 			page 17


 913 0442 0E94 0000 		call printEnter
 914               	.LM146:
 915 0446 80E0      		ldi r24,lo8(str_back_6)
 916 0448 90E0      		ldi r25,hi8(str_back_6)
 917 044a 0E94 0000 		call printStringFromFlash
 918               	.LM147:
 919 044e 0E94 0000 		call printEnter
 920               	.LM148:
 921 0452 80E0      		ldi r24,lo8(str_mapper_9)
 922 0454 90E0      		ldi r25,hi8(str_mapper_9)
 923 0456 0E94 0000 		call printStringFromFlash
 924               	.LM149:
 925 045a 0E94 0000 		call printEnter
 926               	.LM150:
 927 045e 87E0      		ldi r24,lo8(7)
 928 0460 8093 0000 		sts _step,r24
 929               	.LM151:
 930 0464 0E94 0000 		call printPrompt
 931               	/* epilogue start */
 932               	.LM152:
 933 0468 0895      		ret
 934               	.LFE32:
 935               		.size	printMapperMessageAfter, .-printMapperMessageAfter
 936               	.global	printSelectMode
 937               		.type	printSelectMode, @function
 938               	printSelectMode:
 939               	.LFB31:
 940               	.LM153:
 941               	/* prologue: function */
 942               	/* frame size = 0 */
 943               	.LM154:
 944 046a 0E94 0000 		call printEnter
 945               	.LM155:
 946 046e 80E0      		ldi r24,lo8(str_select_mode)
 947 0470 90E0      		ldi r25,hi8(str_select_mode)
 948 0472 0E94 0000 		call printStringFromFlash
 949               	.LM156:
 950 0476 0E94 0000 		call printEnter
 951               	.LM157:
 952 047a 80E0      		ldi r24,lo8(str_select_mode1)
 953 047c 90E0      		ldi r25,hi8(str_select_mode1)
 954 047e 0E94 0000 		call printStringFromFlash
 955               	.LM158:
 956 0482 0E94 0000 		call printEnter
 957               	.LM159:
 958 0486 80E0      		ldi r24,lo8(str_select_mode2)
 959 0488 90E0      		ldi r25,hi8(str_select_mode2)
 960 048a 0E94 0000 		call printStringFromFlash
 961               	.LM160:
 962 048e 0E94 0000 		call printEnter
 963               	.LM161:
 964 0492 80E0      		ldi r24,lo8(str_select_mode3)
 965 0494 90E0      		ldi r25,hi8(str_select_mode3)
 966 0496 0E94 0000 		call printStringFromFlash
 967               	.LM162:
 968 049a 0E94 0000 		call printEnter
 969               	.LM163:
GAS LISTING C:\Users\ADMINI~1\AppData\Local\Temp/ccypPrtA.s 			page 18


 970 049e 80E0      		ldi r24,lo8(str_select_mode4)
 971 04a0 90E0      		ldi r25,hi8(str_select_mode4)
 972 04a2 0E94 0000 		call printStringFromFlash
 973               	.LM164:
 974 04a6 0E94 0000 		call printEnter
 975               	.LM165:
 976 04aa 88E0      		ldi r24,lo8(8)
 977 04ac 8093 0000 		sts _step,r24
 978               	.LM166:
 979 04b0 0E94 0000 		call printPrompt
 980               	/* epilogue start */
 981               	.LM167:
 982 04b4 0895      		ret
 983               	.LFE31:
 984               		.size	printSelectMode, .-printSelectMode
 985               	.global	clearMacroAfter
 986               		.type	clearMacroAfter, @function
 987               	clearMacroAfter:
 988               	.LFB43:
 989               	.LM168:
 990 04b6 CF93      		push r28
 991 04b8 DF93      		push r29
 992               	/* prologue: function */
 993               	/* frame size = 0 */
 994               	.LM169:
 995 04ba C5EA      		ldi r28,lo8(421)
 996 04bc D1E0      		ldi r29,hi8(421)
 997               	.L98:
 998               	.LM170:
 999 04be CE01      		movw r24,r28
 1000 04c0 60E0      		ldi r22,lo8(0)
 1001 04c2 0E94 0000 		call __eewr_byte_m32
 1002 04c6 2196      		adiw r28,1
 1003               	.LM171:
 1004 04c8 83E0      		ldi r24,hi8(997)
 1005 04ca C53E      		cpi r28,lo8(997)
 1006 04cc D807      		cpc r29,r24
 1007 04ce 01F4      		brne .L98
 1008               	.LM172:
 1009 04d0 87E0      		ldi r24,lo8(7)
 1010 04d2 8093 0000 		sts _step,r24
 1011               	.LM173:
 1012 04d6 0E94 0000 		call printPrompt
 1013               	/* epilogue start */
 1014               	.LM174:
 1015 04da DF91      		pop r29
 1016 04dc CF91      		pop r28
 1017 04de 0895      		ret
 1018               	.LFE43:
 1019               		.size	clearMacroAfter, .-clearMacroAfter
 1020               	.global	saveMacro
 1021               		.type	saveMacro, @function
 1022               	saveMacro:
 1023               	.LFB42:
 1024               	.LM175:
 1025 04e0 1F93      		push r17
 1026 04e2 CF93      		push r28
GAS LISTING C:\Users\ADMINI~1\AppData\Local\Temp/ccypPrtA.s 			page 19


 1027 04e4 DF93      		push r29
 1028               	/* prologue: function */
 1029               	/* frame size = 0 */
 1030               	.LM176:
 1031 04e6 8091 0000 		lds r24,_macroIndex
 1032 04ea 8C30      		cpi r24,lo8(12)
 1033 04ec 00F4      		brsh .L104
 1034 04ee C0E0      		ldi r28,lo8(0)
 1035 04f0 D0E0      		ldi r29,hi8(0)
 1036               	.LM177:
 1037 04f2 10E3      		ldi r17,lo8(48)
 1038               	.L103:
 1039 04f4 8091 0000 		lds r24,_macroIndex
 1040 04f8 819F      		mul r24,r17
 1041 04fa C001      		movw r24,r0
 1042 04fc 1124      		clr r1
 1043 04fe 8B55      		subi r24,lo8(-(421))
 1044 0500 9E4F      		sbci r25,hi8(-(421))
 1045 0502 FE01      		movw r30,r28
 1046 0504 E050      		subi r30,lo8(-(_macroInputBuffer))
 1047 0506 F040      		sbci r31,hi8(-(_macroInputBuffer))
 1048 0508 8C0F      		add r24,r28
 1049 050a 9D1F      		adc r25,r29
 1050 050c 6081      		ld r22,Z
 1051 050e 0E94 0000 		call __eewr_byte_m32
 1052 0512 2196      		adiw r28,1
 1053               	.LM178:
 1054 0514 C033      		cpi r28,48
 1055 0516 D105      		cpc r29,__zero_reg__
 1056 0518 01F4      		brne .L103
 1057               	.LM179:
 1058 051a 8FEF      		ldi r24,lo8(-1)
 1059 051c 8093 0000 		sts _macroIndex,r24
 1060               	.L104:
 1061               	/* epilogue start */
 1062               	.LM180:
 1063 0520 DF91      		pop r29
 1064 0522 CF91      		pop r28
 1065 0524 1F91      		pop r17
 1066 0526 0895      		ret
 1067               	.LFE42:
 1068               		.size	saveMacro, .-saveMacro
 1069               	.global	readMacro
 1070               		.type	readMacro, @function
 1071               	readMacro:
 1072               	.LFB41:
 1073               	.LM181:
 1074               	.LVL34:
 1075 0528 0F93      		push r16
 1076 052a 1F93      		push r17
 1077 052c CF93      		push r28
 1078 052e DF93      		push r29
 1079               	/* prologue: function */
 1080               	/* frame size = 0 */
 1081 0530 982F      		mov r25,r24
 1082               	.LM182:
 1083 0532 8C30      		cpi r24,lo8(12)
GAS LISTING C:\Users\ADMINI~1\AppData\Local\Temp/ccypPrtA.s 			page 20


 1084 0534 00F4      		brsh .L110
 1085               	.LM183:
 1086 0536 80E3      		ldi r24,lo8(48)
 1087               	.LVL35:
 1088 0538 989F      		mul r25,r24
 1089 053a C001      		movw r24,r0
 1090 053c 1124      		clr r1
 1091 053e EC01      		movw r28,r24
 1092 0540 CB55      		subi r28,lo8(-(421))
 1093 0542 DE4F      		sbci r29,hi8(-(421))
 1094               	.LM184:
 1095 0544 8C01      		movw r16,r24
 1096 0546 0B52      		subi r16,lo8(-(469))
 1097 0548 1E4F      		sbci r17,hi8(-(469))
 1098               	.LVL36:
 1099               	.L109:
 1100               	.LM185:
 1101 054a CE01      		movw r24,r28
 1102 054c 0E94 0000 		call __eerd_byte_m32
 1103               	.LVL37:
 1104 0550 982F      		mov r25,r24
 1105               	.LVL38:
 1106               	.LM186:
 1107 0552 8150      		subi r24,lo8(-(-1))
 1108 0554 8E3F      		cpi r24,lo8(-2)
 1109 0556 00F4      		brsh .L108
 1110               	.LM187:
 1111 0558 892F      		mov r24,r25
 1112 055a 0E94 0000 		call pushM
 1113               	.LVL39:
 1114               	.L108:
 1115 055e 2196      		adiw r28,1
 1116               	.LM188:
 1117 0560 C017      		cp r28,r16
 1118 0562 D107      		cpc r29,r17
 1119 0564 01F4      		brne .L109
 1120               	.LVL40:
 1121               	.L110:
 1122               	/* epilogue start */
 1123               	.LM189:
 1124 0566 DF91      		pop r29
 1125 0568 CF91      		pop r28
 1126 056a 1F91      		pop r17
 1127 056c 0F91      		pop r16
 1128 056e 0895      		ret
 1129               	.LFE41:
 1130               		.size	readMacro, .-readMacro
 1131               	.global	loadCurrentLayer
 1132               		.type	loadCurrentLayer, @function
 1133               	loadCurrentLayer:
 1134               	.LFB36:
 1135               	.LM190:
 1136 0570 CF92      		push r12
 1137 0572 DF92      		push r13
 1138 0574 EF92      		push r14
 1139 0576 FF92      		push r15
 1140 0578 0F93      		push r16
GAS LISTING C:\Users\ADMINI~1\AppData\Local\Temp/ccypPrtA.s 			page 21


 1141 057a 1F93      		push r17
 1142 057c CF93      		push r28
 1143 057e DF93      		push r29
 1144               	/* prologue: function */
 1145               	/* frame size = 0 */
 1146               	.LM191:
 1147 0580 9091 0000 		lds r25,_currentLayer
 1148 0584 88E8      		ldi r24,lo8(-120)
 1149 0586 989F      		mul r25,r24
 1150 0588 7001      		movw r14,r0
 1151 058a 1124      		clr r1
 1152 058c 8DE0      		ldi r24,lo8(13)
 1153 058e 90E0      		ldi r25,hi8(13)
 1154 0590 E80E      		add r14,r24
 1155 0592 F91E      		adc r15,r25
 1156 0594 CC24      		clr r12
 1157 0596 DD24      		clr r13
 1158 0598 00C0      		rjmp .L113
 1159               	.L114:
 1160               	.LM192:
 1161 059a CE01      		movw r24,r28
 1162 059c 8E0D      		add r24,r14
 1163 059e 9F1D      		adc r25,r15
 1164 05a0 0E94 0000 		call __eerd_byte_m32
 1165 05a4 F801      		movw r30,r16
 1166 05a6 8193      		st Z+,r24
 1167 05a8 8F01      		movw r16,r30
 1168 05aa 2196      		adiw r28,1
 1169               	.LM193:
 1170 05ac C830      		cpi r28,8
 1171 05ae D105      		cpc r29,__zero_reg__
 1172 05b0 01F4      		brne .L114
 1173 05b2 0894      		sec
 1174 05b4 C11C      		adc r12,__zero_reg__
 1175 05b6 D11C      		adc r13,__zero_reg__
 1176 05b8 88E0      		ldi r24,lo8(8)
 1177 05ba 90E0      		ldi r25,hi8(8)
 1178 05bc E80E      		add r14,r24
 1179 05be F91E      		adc r15,r25
 1180               	.LM194:
 1181 05c0 91E1      		ldi r25,lo8(17)
 1182 05c2 C916      		cp r12,r25
 1183 05c4 D104      		cpc r13,__zero_reg__
 1184 05c6 01F0      		breq .L115
 1185               	.L113:
 1186 05c8 8601      		movw r16,r12
 1187 05ca 63E0      		ldi r22,3
 1188 05cc 000F      	1:	lsl r16
 1189 05ce 111F      		rol r17
 1190 05d0 6A95      		dec r22
 1191 05d2 01F4      		brne 1b
 1192 05d4 0050      		subi r16,lo8(-(_newKeyMap))
 1193 05d6 1040      		sbci r17,hi8(-(_newKeyMap))
 1194 05d8 C0E0      		ldi r28,lo8(0)
 1195 05da D0E0      		ldi r29,hi8(0)
 1196 05dc 00C0      		rjmp .L114
 1197               	.L115:
GAS LISTING C:\Users\ADMINI~1\AppData\Local\Temp/ccypPrtA.s 			page 22


 1198               	.LM195:
 1199 05de 1092 0000 		sts (_editCount)+1,__zero_reg__
 1200 05e2 1092 0000 		sts _editCount,__zero_reg__
 1201               	/* epilogue start */
 1202               	.LM196:
 1203 05e6 DF91      		pop r29
 1204 05e8 CF91      		pop r28
 1205 05ea 1F91      		pop r17
 1206 05ec 0F91      		pop r16
 1207 05ee FF90      		pop r15
 1208 05f0 EF90      		pop r14
 1209 05f2 DF90      		pop r13
 1210 05f4 CF90      		pop r12
 1211 05f6 0895      		ret
 1212               	.LFE36:
 1213               		.size	loadCurrentLayer, .-loadCurrentLayer
 1214               		.data
 1215               	.LC1:
 1216 0003 2564 00   		.string	"%d"
 1217               	.LC2:
 1218 0006 2C20 00   		.string	", "
 1219               	.LC3:
 1220 0009 2028 6C61 		.string	" (layer="
 1220      7965 723D 
 1220      00
 1221               	.LC4:
 1222 0012 2064 6566 		.string	" default="
 1222      6175 6C74 
 1222      3D00 
 1223               	.LC5:
 1224 001c 206D 6170 		.string	" mapping="
 1224      7069 6E67 
 1224      3D00 
 1225               	.LC6:
 1226 0026 2900      		.string	")"
 1227               		.text
 1228               	.global	putKeyCode
 1229               		.type	putKeyCode, @function
 1230               	putKeyCode:
 1231               	.LFB48:
 1232               	.LM197:
 1233               	.LVL41:
 1234 05f8 AF92      		push r10
 1235 05fa BF92      		push r11
 1236 05fc CF92      		push r12
 1237 05fe DF92      		push r13
 1238 0600 EF92      		push r14
 1239 0602 FF92      		push r15
 1240 0604 0F93      		push r16
 1241 0606 1F93      		push r17
 1242 0608 DF93      		push r29
 1243 060a CF93      		push r28
 1244 060c 00D0      		rcall .
 1245 060e 0F92      		push __tmp_reg__
 1246 0610 CDB7      		in r28,__SP_L__
 1247 0612 DEB7      		in r29,__SP_H__
 1248               	/* prologue: function */
GAS LISTING C:\Users\ADMINI~1\AppData\Local\Temp/ccypPrtA.s 			page 23


 1249               	/* frame size = 3 */
 1250 0614 B62E      		mov r11,r22
 1251 0616 A42E      		mov r10,r20
 1252 0618 C22E      		mov r12,r18
 1253               	.LM198:
 1254 061a 0E94 0000 		call getDualActionDownKeyIdex
 1255               	.LVL42:
 1256 061e D82E      		mov r13,r24
 1257               	.LVL43:
 1258               	.LM199:
 1259 0620 84ED      		ldi r24,lo8(-44)
 1260 0622 8D15      		cp r24,r13
 1261 0624 00F4      		brsh .+2
 1262 0626 00C0      		rjmp .L160
 1263               	.LM200:
 1264 0628 8091 0000 		lds r24,_isWorkingForEmpty
 1265 062c 8823      		tst r24
 1266 062e 01F0      		breq .+2
 1267 0630 00C0      		rjmp .L160
 1268               	.LM201:
 1269 0632 8091 0000 		lds r24,_step
 1270 0636 8B30      		cpi r24,lo8(11)
 1271 0638 01F0      		breq .L120
 1272 063a CC20      		tst r12
 1273 063c 01F0      		breq .+2
 1274 063e 00C0      		rjmp .L160
 1275               	.L120:
 1276               	.LM202:
 1277 0640 80E0      		ldi r24,lo8(usingKeys)
 1278 0642 90E0      		ldi r25,hi8(usingKeys)
 1279 0644 6BE0      		ldi r22,lo8(11)
 1280 0646 4D2D      		mov r20,r13
 1281 0648 0E94 0000 		call findIndex
 1282 064c 7C01      		movw r14,r24
 1283               	.LVL44:
 1284               	.LM203:
 1285 064e 9091 0000 		lds r25,_step
 1286 0652 9B30      		cpi r25,lo8(11)
 1287 0654 01F0      		breq .+2
 1288 0656 00C0      		rjmp .L121
 1289               	.LM204:
 1290 0658 8091 0000 		lds r24,_isTiredEscapeKey
 1291 065c 8823      		tst r24
 1292 065e 01F0      		breq .L122
 1293               	.LM205:
 1294 0660 1092 0000 		sts _isPressedEscapeKey,__zero_reg__
 1295               	.LM206:
 1296 0664 1092 0000 		sts _isTiredEscapeKey,__zero_reg__
 1297               	.LM207:
 1298 0668 8D2D      		mov r24,r13
 1299 066a 0E94 0000 		call pushM
 1300               	.LM208:
 1301 066e E091 0000 		lds r30,_macroBufferIndex
 1302 0672 F0E0      		ldi r31,lo8(0)
 1303 0674 E050      		subi r30,lo8(-(_macroInputBuffer-1))
 1304 0676 F040      		sbci r31,hi8(-(_macroInputBuffer-1))
 1305 0678 1082      		st Z,__zero_reg__
GAS LISTING C:\Users\ADMINI~1\AppData\Local\Temp/ccypPrtA.s 			page 24


 1306               	.LM209:
 1307 067a 0E94 0000 		call saveMacro
 1308               	.LM210:
 1309 067e 87E0      		ldi r24,lo8(7)
 1310 0680 8093 0000 		sts _step,r24
 1311 0684 00C0      		rjmp .L169
 1312               	.L122:
 1313               	.LM211:
 1314 0686 CC20      		tst r12
 1315 0688 01F0      		breq .L123
 1316               	.LM212:
 1317 068a 8091 0000 		lds r24,_macroDownCount
 1318 068e 8831      		cpi r24,lo8(24)
 1319 0690 00F0      		brlo .+2
 1320 0692 00C0      		rjmp .L160
 1321               	.LM213:
 1322 0694 8F5F      		subi r24,lo8(-(1))
 1323 0696 8093 0000 		sts _macroDownCount,r24
 1324               	.LM214:
 1325 069a 80E0      		ldi r24,lo8(_macroPressedBuffer)
 1326 069c 90E0      		ldi r25,hi8(_macroPressedBuffer)
 1327 069e 6D2D      		mov r22,r13
 1328 06a0 0E94 0000 		call append
 1329 06a4 00C0      		rjmp .L124
 1330               	.L123:
 1331               	.LM215:
 1332 06a6 00E0      		ldi r16,lo8(_macroPressedBuffer)
 1333 06a8 10E0      		ldi r17,hi8(_macroPressedBuffer)
 1334 06aa F801      		movw r30,r16
 1335 06ac 0190      		ld __tmp_reg__,Z+
 1336 06ae 0020      		tst __tmp_reg__
 1337 06b0 01F4      		brne .-6
 1338 06b2 3197      		sbiw r30,1
 1339 06b4 E01B      		sub r30,r16
 1340 06b6 F10B      		sbc r31,r17
 1341               	.LM216:
 1342 06b8 C801      		movw r24,r16
 1343 06ba 6E2F      		mov r22,r30
 1344 06bc 4D2D      		mov r20,r13
 1345 06be 0E94 0000 		call findIndex
 1346 06c2 BC01      		movw r22,r24
 1347               	.LVL45:
 1348               	.LM217:
 1349 06c4 9FEF      		ldi r25,hi8(-1)
 1350 06c6 6F3F      		cpi r22,lo8(-1)
 1351 06c8 7907      		cpc r23,r25
 1352 06ca 01F4      		brne .+2
 1353 06cc 00C0      		rjmp .L160
 1354               	.LM218:
 1355 06ce C801      		movw r24,r16
 1356 06d0 0E94 0000 		call delete
 1357               	.LVL46:
 1358               	.L124:
 1359               	.LM219:
 1360 06d4 8091 0000 		lds r24,_macroBufferIndex
 1361 06d8 E82F      		mov r30,r24
 1362 06da F0E0      		ldi r31,lo8(0)
GAS LISTING C:\Users\ADMINI~1\AppData\Local\Temp/ccypPrtA.s 			page 25


 1363 06dc E050      		subi r30,lo8(-(_macroInputBuffer))
 1364 06de F040      		sbci r31,hi8(-(_macroInputBuffer))
 1365 06e0 D082      		st Z,r13
 1366               	.LM220:
 1367 06e2 8F5F      		subi r24,lo8(-(1))
 1368 06e4 8093 0000 		sts _macroBufferIndex,r24
 1369               	.LM221:
 1370 06e8 8D2D      		mov r24,r13
 1371 06ea 0E94 0000 		call pushM
 1372               	.LM222:
 1373 06ee 8091 0000 		lds r24,_macroBufferIndex
 1374 06f2 8033      		cpi r24,lo8(48)
 1375 06f4 00F0      		brlo .L125
 1376               	.LM223:
 1377 06f6 87E0      		ldi r24,lo8(7)
 1378 06f8 8093 0000 		sts _step,r24
 1379               	.LM224:
 1380 06fc 0E94 0000 		call saveMacro
 1381 0700 00C0      		rjmp .L169
 1382               	.L125:
 1383               	.LM225:
 1384 0702 CC20      		tst r12
 1385 0704 01F0      		breq .L126
 1386 0706 A0E0      		ldi r26,lo8(usingKeys)
 1387 0708 B0E0      		ldi r27,hi8(usingKeys)
 1388 070a EA0E      		add r14,r26
 1389 070c FB1E      		adc r15,r27
 1390 070e F701      		movw r30,r14
 1391 0710 8081      		ld r24,Z
 1392 0712 8932      		cpi r24,lo8(41)
 1393 0714 01F4      		brne .L126
 1394               	.LM226:
 1395 0716 81E0      		ldi r24,lo8(1)
 1396 0718 8093 0000 		sts _isPressedEscapeKey,r24
 1397               	.LM227:
 1398 071c 1092 0000 		sts (_pressedEscapeKeyCount)+1,__zero_reg__
 1399 0720 1092 0000 		sts _pressedEscapeKeyCount,__zero_reg__
 1400 0724 00C0      		rjmp .L160
 1401               	.L126:
 1402               	.LM228:
 1403 0726 1092 0000 		sts _isPressedEscapeKey,__zero_reg__
 1404               	.LM229:
 1405 072a 1092 0000 		sts _isTiredEscapeKey,__zero_reg__
 1406 072e 00C0      		rjmp .L160
 1407               	.L121:
 1408               	.LM230:
 1409 0730 892F      		mov r24,r25
 1410 0732 8750      		subi r24,lo8(-(-7))
 1411 0734 8230      		cpi r24,lo8(2)
 1412 0736 00F0      		brlo .+2
 1413 0738 00C0      		rjmp .L127
 1414               	.LM231:
 1415 073a FAE0      		ldi r31,lo8(10)
 1416 073c EF16      		cp r14,r31
 1417 073e F104      		cpc r15,__zero_reg__
 1418 0740 00F0      		brlo .+2
 1419 0742 00C0      		rjmp .L160
GAS LISTING C:\Users\ADMINI~1\AppData\Local\Temp/ccypPrtA.s 			page 26


 1420               	.LM232:
 1421 0744 E091 0000 		lds r30,_bufferIndex
 1422 0748 F0E0      		ldi r31,lo8(0)
 1423 074a E050      		subi r30,lo8(-(_buffer))
 1424 074c F040      		sbci r31,hi8(-(_buffer))
 1425 074e E082      		st Z,r14
 1426               	.LM233:
 1427 0750 00D0      		rcall .
 1428 0752 00D0      		rcall .
 1429 0754 00D0      		rcall .
 1430 0756 EDB7      		in r30,__SP_L__
 1431 0758 FEB7      		in r31,__SP_H__
 1432 075a 3196      		adiw r30,1
 1433 075c 8E01      		movw r16,r28
 1434 075e 0F5F      		subi r16,lo8(-(1))
 1435 0760 1F4F      		sbci r17,hi8(-(1))
 1436 0762 ADB7      		in r26,__SP_L__
 1437 0764 BEB7      		in r27,__SP_H__
 1438 0766 1296      		adiw r26,1+1
 1439 0768 1C93      		st X,r17
 1440 076a 0E93      		st -X,r16
 1441 076c 1197      		sbiw r26,1
 1442 076e 80E0      		ldi r24,lo8(.LC1)
 1443 0770 90E0      		ldi r25,hi8(.LC1)
 1444 0772 9383      		std Z+3,r25
 1445 0774 8283      		std Z+2,r24
 1446 0776 F582      		std Z+5,r15
 1447 0778 E482      		std Z+4,r14
 1448 077a 0E94 0000 		call sprintf
 1449               	.LM234:
 1450 077e EDB7      		in r30,__SP_L__
 1451 0780 FEB7      		in r31,__SP_H__
 1452 0782 3696      		adiw r30,6
 1453 0784 0FB6      		in __tmp_reg__,__SREG__
 1454 0786 F894      		cli
 1455 0788 FEBF      		out __SP_H__,r31
 1456 078a 0FBE      		out __SREG__,__tmp_reg__
 1457 078c EDBF      		out __SP_L__,r30
 1458 078e C801      		movw r24,r16
 1459 0790 0E94 0000 		call printString
 1460               	.LM235:
 1461 0794 0E94 0000 		call printEnter
 1462               	.LM236:
 1463 0798 0091 0000 		lds r16,_buffer
 1464               	.LVL47:
 1465               	.LM237:
 1466 079c 8091 0000 		lds r24,_step
 1467 07a0 8830      		cpi r24,lo8(8)
 1468 07a2 01F4      		brne .L128
 1469               	.LM238:
 1470 07a4 0130      		cpi r16,lo8(1)
 1471 07a6 01F4      		brne .L129
 1472               	.LM239:
 1473 07a8 0093 0000 		sts _mode,r16
 1474               	.LBB77:
 1475               	.LBB78:
 1476               	.LM240:
GAS LISTING C:\Users\ADMINI~1\AppData\Local\Temp/ccypPrtA.s 			page 27


 1477 07ac 0E94 0000 		call printEnter
 1478               	.LM241:
 1479 07b0 80E0      		ldi r24,lo8(str_mapper_message)
 1480 07b2 90E0      		ldi r25,hi8(str_mapper_message)
 1481 07b4 0E94 0000 		call printStringFromFlash
 1482               	.LM242:
 1483 07b8 0E94 0000 		call printEnter
 1484               	.LM243:
 1485 07bc 80E0      		ldi r24,lo8(str_mapper_1)
 1486 07be 90E0      		ldi r25,hi8(str_mapper_1)
 1487 07c0 0E94 0000 		call printStringFromFlash
 1488               	.LM244:
 1489 07c4 0E94 0000 		call printEnter
 1490               	.LM245:
 1491 07c8 80E0      		ldi r24,lo8(str_mapper_2)
 1492 07ca 90E0      		ldi r25,hi8(str_mapper_2)
 1493 07cc 0E94 0000 		call printStringFromFlash
 1494               	.LM246:
 1495 07d0 0093 0000 		sts _isWorkingForEmpty,r16
 1496               	.LM247:
 1497 07d4 8AE0      		ldi r24,lo8(10)
 1498 07d6 8093 0000 		sts _wait,r24
 1499               	.LM248:
 1500 07da 1092 0000 		sts _step,__zero_reg__
 1501 07de 00C0      		rjmp .L166
 1502               	.L129:
 1503               	.LBE78:
 1504               	.LBE77:
 1505               	.LM249:
 1506 07e0 0230      		cpi r16,lo8(2)
 1507 07e2 01F4      		brne .L131
 1508               	.LM250:
 1509 07e4 0093 0000 		sts _mode,r16
 1510               	.LM251:
 1511 07e8 0E94 0000 		call printMacroMessage
 1512 07ec 00C0      		rjmp .L166
 1513               	.L131:
 1514               	.LM252:
 1515 07ee 0330      		cpi r16,lo8(3)
 1516 07f0 01F4      		brne .L132
 1517               	.LM253:
 1518 07f2 0093 0000 		sts _mode,r16
 1519               	.LM254:
 1520 07f6 84E6      		ldi r24,lo8(100)
 1521 07f8 00C0      		rjmp .L165
 1522               	.L132:
 1523               	.LM255:
 1524 07fa 0430      		cpi r16,lo8(4)
 1525 07fc 01F0      		breq .+2
 1526 07fe 00C0      		rjmp .L166
 1527               	.LM256:
 1528 0800 0093 0000 		sts _mode,r16
 1529               	.LM257:
 1530 0804 88E7      		ldi r24,lo8(120)
 1531 0806 00C0      		rjmp .L165
 1532               	.L128:
 1533               	.LM258:
GAS LISTING C:\Users\ADMINI~1\AppData\Local\Temp/ccypPrtA.s 			page 28


 1534 0808 0630      		cpi r16,lo8(6)
 1535 080a 01F4      		brne .L133
 1536               	.LM259:
 1537 080c 8EE6      		ldi r24,lo8(110)
 1538 080e 8093 0000 		sts _step,r24
 1539               	.L133:
 1540               	.LM260:
 1541 0812 8091 0000 		lds r24,_mode
 1542 0816 8130      		cpi r24,lo8(1)
 1543 0818 01F4      		brne .L134
 1544               	.LM261:
 1545 081a 0130      		cpi r16,lo8(1)
 1546 081c 01F0      		breq .L163
 1547               	.L135:
 1548               	.LM262:
 1549 081e 0230      		cpi r16,lo8(2)
 1550 0820 01F4      		brne .L136
 1551               	.L163:
 1552               	.LM263:
 1553 0822 0093 0000 		sts _step,r16
 1554 0826 00C0      		rjmp .L166
 1555               	.L136:
 1556               	.LM264:
 1557 0828 0330      		cpi r16,lo8(3)
 1558 082a 01F4      		brne .L137
 1559               	.LM265:
 1560 082c 84E0      		ldi r24,lo8(4)
 1561 082e 8093 0000 		sts _step,r24
 1562               	.LM266:
 1563 0832 0E94 0000 		call saveCurrentLayer
 1564 0836 00C0      		rjmp .L166
 1565               	.L137:
 1566               	.LM267:
 1567 0838 0430      		cpi r16,lo8(4)
 1568 083a 01F4      		brne .L138
 1569               	.LM268:
 1570 083c 85E0      		ldi r24,lo8(5)
 1571 083e 00C0      		rjmp .L165
 1572               	.L138:
 1573               	.LM269:
 1574 0840 0930      		cpi r16,lo8(9)
 1575 0842 01F0      		breq .+2
 1576 0844 00C0      		rjmp .L166
 1577               	.LM270:
 1578 0846 0E94 0000 		call resetCurrentLayer
 1579 084a 00C0      		rjmp .L170
 1580               	.L134:
 1581               	.LM271:
 1582 084c 8230      		cpi r24,lo8(2)
 1583 084e 01F0      		breq .+2
 1584 0850 00C0      		rjmp .L166
 1585               	.LM272:
 1586 0852 0130      		cpi r16,lo8(1)
 1587 0854 01F4      		brne .L139
 1588               	.LM273:
 1589 0856 89E0      		ldi r24,lo8(9)
 1590 0858 00C0      		rjmp .L167
GAS LISTING C:\Users\ADMINI~1\AppData\Local\Temp/ccypPrtA.s 			page 29


 1591               	.L139:
 1592               	.LM274:
 1593 085a 0230      		cpi r16,lo8(2)
 1594 085c 01F4      		brne .L140
 1595               	.LM275:
 1596 085e 8AE0      		ldi r24,lo8(10)
 1597               	.L165:
 1598 0860 8093 0000 		sts _step,r24
 1599               	.LBB79:
 1600               	.LBB80:
 1601               	.LM276:
 1602 0864 1092 0000 		sts _isKeyMapping,__zero_reg__
 1603               	.LM277:
 1604 0868 1092 0000 		sts _wait,__zero_reg__
 1605 086c 00C0      		rjmp .L166
 1606               	.L140:
 1607               	.LBE80:
 1608               	.LBE79:
 1609               	.LM278:
 1610 086e 0930      		cpi r16,lo8(9)
 1611 0870 01F0      		breq .+2
 1612 0872 00C0      		rjmp .L166
 1613               	.LM279:
 1614 0874 8CE0      		ldi r24,lo8(12)
 1615 0876 8093 0000 		sts _step,r24
 1616               	.LM280:
 1617 087a 0E94 0000 		call clearMacro
 1618 087e 00C0      		rjmp .L166
 1619               	.LVL48:
 1620               	.L127:
 1621               	.LM281:
 1622 0880 9230      		cpi r25,lo8(2)
 1623 0882 01F0      		breq .L141
 1624               	.LM282:
 1625 0884 FAE0      		ldi r31,lo8(10)
 1626 0886 EF16      		cp r14,r31
 1627 0888 F104      		cpc r15,__zero_reg__
 1628 088a 00F0      		brlo .+2
 1629 088c 00C0      		rjmp .L160
 1630               	.LM283:
 1631 088e 8091 0000 		lds r24,_bufferIndex
 1632 0892 E82F      		mov r30,r24
 1633 0894 F0E0      		ldi r31,lo8(0)
 1634 0896 E050      		subi r30,lo8(-(_buffer))
 1635 0898 F040      		sbci r31,hi8(-(_buffer))
 1636 089a E082      		st Z,r14
 1637               	.LM284:
 1638 089c 8F5F      		subi r24,lo8(-(1))
 1639 089e 8093 0000 		sts _bufferIndex,r24
 1640               	.LM285:
 1641 08a2 00D0      		rcall .
 1642 08a4 00D0      		rcall .
 1643 08a6 00D0      		rcall .
 1644 08a8 EDB7      		in r30,__SP_L__
 1645 08aa FEB7      		in r31,__SP_H__
 1646 08ac 3196      		adiw r30,1
 1647 08ae 8E01      		movw r16,r28
GAS LISTING C:\Users\ADMINI~1\AppData\Local\Temp/ccypPrtA.s 			page 30


 1648 08b0 0F5F      		subi r16,lo8(-(1))
 1649 08b2 1F4F      		sbci r17,hi8(-(1))
 1650 08b4 ADB7      		in r26,__SP_L__
 1651 08b6 BEB7      		in r27,__SP_H__
 1652 08b8 1296      		adiw r26,1+1
 1653 08ba 1C93      		st X,r17
 1654 08bc 0E93      		st -X,r16
 1655 08be 1197      		sbiw r26,1
 1656 08c0 80E0      		ldi r24,lo8(.LC1)
 1657 08c2 90E0      		ldi r25,hi8(.LC1)
 1658 08c4 9383      		std Z+3,r25
 1659 08c6 8283      		std Z+2,r24
 1660 08c8 F582      		std Z+5,r15
 1661 08ca E482      		std Z+4,r14
 1662 08cc 0E94 0000 		call sprintf
 1663               	.LM286:
 1664 08d0 EDB7      		in r30,__SP_L__
 1665 08d2 FEB7      		in r31,__SP_H__
 1666 08d4 3696      		adiw r30,6
 1667 08d6 0FB6      		in __tmp_reg__,__SREG__
 1668 08d8 F894      		cli
 1669 08da FEBF      		out __SP_H__,r31
 1670 08dc 0FBE      		out __SREG__,__tmp_reg__
 1671 08de EDBF      		out __SP_L__,r30
 1672 08e0 C801      		movw r24,r16
 1673 08e2 0E94 0000 		call printString
 1674               	.L141:
 1675               	.LM287:
 1676 08e6 FAE0      		ldi r31,lo8(10)
 1677 08e8 EF16      		cp r14,r31
 1678 08ea F104      		cpc r15,__zero_reg__
 1679 08ec 00F0      		brlo .L142
 1680 08ee 8091 0000 		lds r24,_step
 1681 08f2 8230      		cpi r24,lo8(2)
 1682 08f4 01F0      		breq .+2
 1683 08f6 00C0      		rjmp .L160
 1684               	.L142:
 1685               	.LM288:
 1686 08f8 8091 0000 		lds r24,_step
 1687 08fc 8230      		cpi r24,lo8(2)
 1688 08fe 01F4      		brne .+2
 1689 0900 00C0      		rjmp .L145
 1690 0902 8330      		cpi r24,lo8(3)
 1691 0904 00F4      		brsh .L148
 1692 0906 8130      		cpi r24,lo8(1)
 1693 0908 01F0      		breq .+2
 1694 090a 00C0      		rjmp .L143
 1695 090c 00C0      		rjmp .L171
 1696               	.L148:
 1697 090e 8330      		cpi r24,lo8(3)
 1698 0910 01F4      		brne .+2
 1699 0912 00C0      		rjmp .L146
 1700 0914 8930      		cpi r24,lo8(9)
 1701 0916 01F0      		breq .+2
 1702 0918 00C0      		rjmp .L143
 1703               	.LM289:
 1704 091a 8091 0000 		lds r24,_bufferIndex
GAS LISTING C:\Users\ADMINI~1\AppData\Local\Temp/ccypPrtA.s 			page 31


 1705 091e 8230      		cpi r24,lo8(2)
 1706 0920 01F4      		brne .L149
 1707               	.LM290:
 1708 0922 9091 0000 		lds r25,_buffer
 1709 0926 8AE0      		ldi r24,lo8(10)
 1710 0928 989F      		mul r25,r24
 1711 092a 9001      		movw r18,r0
 1712 092c 1124      		clr r1
 1713               	.LVL49:
 1714               	.LM291:
 1715 092e 8091 0000 		lds r24,_buffer+1
 1716 0932 280F      		add r18,r24
 1717 0934 311D      		adc r19,__zero_reg__
 1718               	.LM292:
 1719 0936 C901      		movw r24,r18
 1720 0938 0197      		sbiw r24,1
 1721 093a 0C97      		sbiw r24,12
 1722 093c 00F4      		brsh .L150
 1723               	.LM293:
 1724 093e 822F      		mov r24,r18
 1725               	.LVL50:
 1726 0940 8150      		subi r24,lo8(-(-1))
 1727 0942 8093 0000 		sts _macroIndex,r24
 1728               	.LM294:
 1729 0946 8BE0      		ldi r24,lo8(11)
 1730 0948 8093 0000 		sts _step,r24
 1731               	.LM295:
 1732 094c 0E94 0000 		call resetMacroInput
 1733 0950 00C0      		rjmp .L158
 1734               	.LVL51:
 1735               	.L150:
 1736               	.LM296:
 1737 0952 0E94 0000 		call printEnter
 1738               	.LVL52:
 1739               	.LM297:
 1740 0956 80E0      		ldi r24,lo8(str_invalid_macro_number)
 1741 0958 90E0      		ldi r25,hi8(str_invalid_macro_number)
 1742 095a 00C0      		rjmp .L168
 1743               	.L149:
 1744               	.LM298:
 1745 095c 88EE      		ldi r24,lo8(1000)
 1746 095e 93E0      		ldi r25,hi8(1000)
 1747               	.LVL53:
 1748               	.LBB81:
 1749               	.LBB82:
 1750               	.LBB83:
 1751               	.LBB84:
 1752               	.LM299:
 1753 0960 2CE2      		ldi r18,lo8(300)
 1754 0962 31E0      		ldi r19,hi8(300)
 1755               	.L152:
 1756 0964 F901      		movw r30,r18
 1757               	.LVL54:
 1758               	/* #APP */
 1759               	 ;  105 "c:/winavr-20100110/lib/gcc/../../avr/include/util/delay_basic.h" 1
 1760 0966 3197      		1: sbiw r30,1
 1761 0968 01F4      		brne 1b
GAS LISTING C:\Users\ADMINI~1\AppData\Local\Temp/ccypPrtA.s 			page 32


 1762               	 ;  0 "" 2
 1763               	/* #NOAPP */
 1764               	.LBE84:
 1765               	.LBE83:
 1766               	.LM300:
 1767 096a 0197      		sbiw r24,1
 1768               	.LM301:
 1769 096c 01F4      		brne .L152
 1770 096e 00C0      		rjmp .L160
 1771               	.LVL55:
 1772               	.L171:
 1773               	.LBE82:
 1774               	.LBE81:
 1775               	.LM302:
 1776 0970 9091 0000 		lds r25,_buffer
 1777               	.LM303:
 1778 0974 8091 0000 		lds r24,_currentLayer
 1779 0978 8330      		cpi r24,lo8(3)
 1780 097a 00F4      		brsh .L153
 1781               	.LM304:
 1782 097c 192F      		mov r17,r25
 1783               	.LVL56:
 1784 097e 1150      		subi r17,lo8(-(-1))
 1785               	.LM305:
 1786 0980 8117      		cp r24,r17
 1787 0982 01F0      		breq .L153
 1788 0984 1330      		cpi r17,lo8(3)
 1789 0986 00F4      		brsh .L153
 1790               	.LM306:
 1791 0988 8091 0000 		lds r24,_editCount
 1792 098c 9091 0000 		lds r25,(_editCount)+1
 1793 0990 1816      		cp __zero_reg__,r24
 1794 0992 1906      		cpc __zero_reg__,r25
 1795 0994 04F4      		brge .L154
 1796               	.LM307:
 1797 0996 0E94 0000 		call printEnter
 1798               	.LM308:
 1799 099a 80E0      		ldi r24,lo8(str_save_layer)
 1800 099c 90E0      		ldi r25,hi8(str_save_layer)
 1801 099e 0E94 0000 		call printStringFromFlash
 1802               	.LM309:
 1803 09a2 0E94 0000 		call printEnter
 1804               	.LM310:
 1805 09a6 0E94 0000 		call saveCurrentLayer
 1806               	.LM311:
 1807 09aa 1093 0000 		sts _currentLayerAfter,r17
 1808 09ae 00C0      		rjmp .L166
 1809               	.L154:
 1810               	.LM312:
 1811 09b0 0E94 0000 		call printEnter
 1812               	.LM313:
 1813 09b4 80E0      		ldi r24,lo8(str_load_layer)
 1814 09b6 90E0      		ldi r25,hi8(str_load_layer)
 1815 09b8 0E94 0000 		call printStringFromFlash
 1816               	.LM314:
 1817 09bc 0E94 0000 		call printEnter
 1818               	.LM315:
GAS LISTING C:\Users\ADMINI~1\AppData\Local\Temp/ccypPrtA.s 			page 33


 1819 09c0 87E0      		ldi r24,lo8(7)
 1820 09c2 8093 0000 		sts _step,r24
 1821               	.LM316:
 1822 09c6 1093 0000 		sts _currentLayer,r17
 1823               	.LM317:
 1824 09ca 0E94 0000 		call loadCurrentLayer
 1825 09ce 00C0      		rjmp .L166
 1826               	.L153:
 1827               	.LM318:
 1828 09d0 0E94 0000 		call printEnter
 1829               	.LVL57:
 1830               	.L170:
 1831               	.LM319:
 1832 09d4 87E0      		ldi r24,lo8(7)
 1833 09d6 00C0      		rjmp .L167
 1834               	.LVL58:
 1835               	.L145:
 1836               	.LM320:
 1837 09d8 B092 0000 		sts _col,r11
 1838               	.LM321:
 1839 09dc A092 0000 		sts _row,r10
 1840               	.LM322:
 1841 09e0 80E0      		ldi r24,lo8(str_col_row)
 1842 09e2 90E0      		ldi r25,hi8(str_col_row)
 1843 09e4 0E94 0000 		call printStringFromFlash
 1844               	.LM323:
 1845 09e8 8091 0000 		lds r24,_col
 1846 09ec 8F5F      		subi r24,lo8(-(1))
 1847 09ee 0E94 0000 		call toString
 1848 09f2 0E94 0000 		call printString
 1849               	.LM324:
 1850 09f6 80E0      		ldi r24,lo8(.LC2)
 1851 09f8 90E0      		ldi r25,hi8(.LC2)
 1852 09fa 0E94 0000 		call printString
 1853               	.LM325:
 1854 09fe 8091 0000 		lds r24,_row
 1855 0a02 8F5F      		subi r24,lo8(-(1))
 1856 0a04 0E94 0000 		call toString
 1857 0a08 0E94 0000 		call printString
 1858               	.LM326:
 1859 0a0c 80E0      		ldi r24,lo8(.LC3)
 1860 0a0e 90E0      		ldi r25,hi8(.LC3)
 1861 0a10 0E94 0000 		call printString
 1862               	.LM327:
 1863 0a14 8091 0000 		lds r24,_currentLayer
 1864 0a18 8F5F      		subi r24,lo8(-(1))
 1865 0a1a 0E94 0000 		call toString
 1866 0a1e 0E94 0000 		call printString
 1867               	.LM328:
 1868 0a22 80E0      		ldi r24,lo8(.LC4)
 1869 0a24 90E0      		ldi r25,hi8(.LC4)
 1870 0a26 0E94 0000 		call printString
 1871               	.LBB85:
 1872               	.LM329:
 1873 0a2a 8091 0000 		lds r24,_currentLayer
 1874 0a2e 6091 0000 		lds r22,_row
 1875 0a32 4091 0000 		lds r20,_col
GAS LISTING C:\Users\ADMINI~1\AppData\Local\Temp/ccypPrtA.s 			page 34


 1876 0a36 0E94 0000 		call getKeyCode
 1877               	.LBE85:
 1878               	.LM330:
 1879 0a3a 0E94 0000 		call toString
 1880 0a3e 0E94 0000 		call printString
 1881               	.LM331:
 1882 0a42 80E0      		ldi r24,lo8(.LC5)
 1883 0a44 90E0      		ldi r25,hi8(.LC5)
 1884 0a46 0E94 0000 		call printString
 1885               	.LM332:
 1886 0a4a 8091 0000 		lds r24,_col
 1887 0a4e E091 0000 		lds r30,_row
 1888 0a52 F0E0      		ldi r31,lo8(0)
 1889 0a54 A3E0      		ldi r26,3
 1890 0a56 EE0F      	1:	lsl r30
 1891 0a58 FF1F      		rol r31
 1892 0a5a AA95      		dec r26
 1893 0a5c 01F4      		brne 1b
 1894 0a5e E80F      		add r30,r24
 1895 0a60 F11D      		adc r31,__zero_reg__
 1896 0a62 E050      		subi r30,lo8(-(_newKeyMap))
 1897 0a64 F040      		sbci r31,hi8(-(_newKeyMap))
 1898 0a66 8081      		ld r24,Z
 1899 0a68 0E94 0000 		call toString
 1900 0a6c 0E94 0000 		call printString
 1901               	.LM333:
 1902 0a70 80E0      		ldi r24,lo8(.LC6)
 1903 0a72 90E0      		ldi r25,hi8(.LC6)
 1904 0a74 0E94 0000 		call printString
 1905               	.LM334:
 1906 0a78 0E94 0000 		call printEnter
 1907               	.LM335:
 1908 0a7c 83E0      		ldi r24,lo8(3)
 1909               	.LVL59:
 1910               	.L167:
 1911 0a7e 8093 0000 		sts _step,r24
 1912               	.L166:
 1913               	.LM336:
 1914 0a82 1092 0000 		sts _bufferIndex,__zero_reg__
 1915 0a86 00C0      		rjmp .L143
 1916               	.LVL60:
 1917               	.L146:
 1918               	.LM337:
 1919 0a88 8091 0000 		lds r24,_bufferIndex
 1920 0a8c 8330      		cpi r24,lo8(3)
 1921 0a8e 01F0      		breq .+2
 1922 0a90 00C0      		rjmp .L156
 1923               	.LM338:
 1924 0a92 9091 0000 		lds r25,_buffer
 1925 0a96 84E6      		ldi r24,lo8(100)
 1926 0a98 989F      		mul r25,r24
 1927 0a9a A001      		movw r20,r0
 1928 0a9c 1124      		clr r1
 1929               	.LVL61:
 1930               	.LM339:
 1931 0a9e 8091 0000 		lds r24,_buffer+1
 1932 0aa2 2AE0      		ldi r18,lo8(10)
GAS LISTING C:\Users\ADMINI~1\AppData\Local\Temp/ccypPrtA.s 			page 35


 1933 0aa4 829F      		mul r24,r18
 1934 0aa6 C001      		movw r24,r0
 1935 0aa8 1124      		clr r1
 1936 0aaa 480F      		add r20,r24
 1937 0aac 591F      		adc r21,r25
 1938               	.LM340:
 1939 0aae 8091 0000 		lds r24,_buffer+2
 1940 0ab2 480F      		add r20,r24
 1941 0ab4 511D      		adc r21,__zero_reg__
 1942               	.LM341:
 1943 0ab6 4F3F      		cpi r20,255
 1944 0ab8 5105      		cpc r21,__zero_reg__
 1945 0aba 04F4      		brge .L157
 1946               	.LM342:
 1947 0abc 8091 0000 		lds r24,_col
 1948 0ac0 E091 0000 		lds r30,_row
 1949 0ac4 F0E0      		ldi r31,lo8(0)
 1950 0ac6 73E0      		ldi r23,3
 1951 0ac8 EE0F      	1:	lsl r30
 1952 0aca FF1F      		rol r31
 1953 0acc 7A95      		dec r23
 1954 0ace 01F4      		brne 1b
 1955 0ad0 E80F      		add r30,r24
 1956 0ad2 F11D      		adc r31,__zero_reg__
 1957 0ad4 E050      		subi r30,lo8(-(_newKeyMap))
 1958 0ad6 F040      		sbci r31,hi8(-(_newKeyMap))
 1959 0ad8 4083      		st Z,r20
 1960               	.LM343:
 1961 0ada 87E0      		ldi r24,lo8(7)
 1962 0adc 8093 0000 		sts _step,r24
 1963               	.LM344:
 1964 0ae0 8091 0000 		lds r24,_editCount
 1965 0ae4 9091 0000 		lds r25,(_editCount)+1
 1966 0ae8 0196      		adiw r24,1
 1967 0aea 9093 0000 		sts (_editCount)+1,r25
 1968 0aee 8093 0000 		sts _editCount,r24
 1969 0af2 00C0      		rjmp .L158
 1970               	.L157:
 1971               	.LM345:
 1972 0af4 0E94 0000 		call printEnter
 1973               	.LVL62:
 1974               	.LM346:
 1975 0af8 80E0      		ldi r24,lo8(str_invalid_keycode)
 1976 0afa 90E0      		ldi r25,hi8(str_invalid_keycode)
 1977               	.L168:
 1978 0afc 0E94 0000 		call printStringFromFlash
 1979               	.LVL63:
 1980               	.L158:
 1981               	.LM347:
 1982 0b00 83E0      		ldi r24,lo8(3)
 1983 0b02 E0E0      		ldi r30,lo8(_buffer)
 1984 0b04 F0E0      		ldi r31,hi8(_buffer)
 1985 0b06 DF01      		movw r26,r30
 1986 0b08 1D92      		st X+,__zero_reg__
 1987 0b0a 8A95      	        dec r24
 1988 0b0c 01F4      		brne .-6
 1989               	.LM348:
GAS LISTING C:\Users\ADMINI~1\AppData\Local\Temp/ccypPrtA.s 			page 36


 1990 0b0e 1092 0000 		sts _bufferIndex,__zero_reg__
 1991               	.L169:
 1992               	.LM349:
 1993 0b12 0E94 0000 		call printEnter
 1994               	.LVL64:
 1995 0b16 00C0      		rjmp .L143
 1996               	.L156:
 1997 0b18 88EE      		ldi r24,lo8(1000)
 1998 0b1a 93E0      		ldi r25,hi8(1000)
 1999               	.LVL65:
 2000               	.LBB86:
 2001               	.LBB87:
 2002               	.LBB88:
 2003               	.LBB89:
 2004               	.LM350:
 2005 0b1c 2CE2      		ldi r18,lo8(300)
 2006 0b1e 31E0      		ldi r19,hi8(300)
 2007               	.L159:
 2008 0b20 F901      		movw r30,r18
 2009               	.LVL66:
 2010               	/* #APP */
 2011               	 ;  105 "c:/winavr-20100110/lib/gcc/../../avr/include/util/delay_basic.h" 1
 2012 0b22 3197      		1: sbiw r30,1
 2013 0b24 01F4      		brne 1b
 2014               	 ;  0 "" 2
 2015               	/* #NOAPP */
 2016               	.LBE89:
 2017               	.LBE88:
 2018               	.LM351:
 2019 0b26 0197      		sbiw r24,1
 2020               	.LM352:
 2021 0b28 01F4      		brne .L159
 2022 0b2a 00C0      		rjmp .L160
 2023               	.LVL67:
 2024               	.L143:
 2025               	.LBE87:
 2026               	.LBE86:
 2027               	.LM353:
 2028 0b2c 0E94 0000 		call printPrompt
 2029               	.LVL68:
 2030               	.L160:
 2031               	/* epilogue start */
 2032               	.LM354:
 2033 0b30 0F90      		pop __tmp_reg__
 2034 0b32 0F90      		pop __tmp_reg__
 2035 0b34 0F90      		pop __tmp_reg__
 2036 0b36 CF91      		pop r28
 2037 0b38 DF91      		pop r29
 2038 0b3a 1F91      		pop r17
 2039               	.LVL69:
 2040 0b3c 0F91      		pop r16
 2041               	.LVL70:
 2042 0b3e FF90      		pop r15
 2043 0b40 EF90      		pop r14
 2044               	.LVL71:
 2045 0b42 DF90      		pop r13
 2046               	.LVL72:
GAS LISTING C:\Users\ADMINI~1\AppData\Local\Temp/ccypPrtA.s 			page 37


 2047 0b44 CF90      		pop r12
 2048               	.LVL73:
 2049 0b46 BF90      		pop r11
 2050               	.LVL74:
 2051 0b48 AF90      		pop r10
 2052               	.LVL75:
 2053 0b4a 0895      		ret
 2054               	.LFE48:
 2055               		.size	putKeyCode, .-putKeyCode
 2056               	.global	saveCurrentLayerAfter
 2057               		.type	saveCurrentLayerAfter, @function
 2058               	saveCurrentLayerAfter:
 2059               	.LFB38:
 2060               	.LM355:
 2061 0b4c BF92      		push r11
 2062 0b4e CF92      		push r12
 2063 0b50 DF92      		push r13
 2064 0b52 EF92      		push r14
 2065 0b54 FF92      		push r15
 2066 0b56 0F93      		push r16
 2067 0b58 1F93      		push r17
 2068 0b5a CF93      		push r28
 2069 0b5c DF93      		push r29
 2070               	/* prologue: function */
 2071               	/* frame size = 0 */
 2072               	.LM356:
 2073 0b5e EE24      		clr r14
 2074 0b60 FF24      		clr r15
 2075 0b62 CC24      		clr r12
 2076 0b64 DD24      		clr r13
 2077               	.LM357:
 2078 0b66 18E8      		ldi r17,lo8(-120)
 2079 0b68 B12E      		mov r11,r17
 2080 0b6a 00C0      		rjmp .L173
 2081               	.L174:
 2082 0b6c 8091 0000 		lds r24,_currentLayer
 2083 0b70 8B9D      		mul r24,r11
 2084 0b72 C001      		movw r24,r0
 2085 0b74 1124      		clr r1
 2086 0b76 0D96      		adiw r24,13
 2087 0b78 8C0D      		add r24,r12
 2088 0b7a 9D1D      		adc r25,r13
 2089 0b7c 8C0F      		add r24,r28
 2090 0b7e 9D1F      		adc r25,r29
 2091 0b80 F801      		movw r30,r16
 2092 0b82 6191      		ld r22,Z+
 2093 0b84 8F01      		movw r16,r30
 2094 0b86 0E94 0000 		call __eewr_byte_m32
 2095 0b8a 2196      		adiw r28,1
 2096               	.LM358:
 2097 0b8c C830      		cpi r28,8
 2098 0b8e D105      		cpc r29,__zero_reg__
 2099 0b90 01F4      		brne .L174
 2100 0b92 0894      		sec
 2101 0b94 E11C      		adc r14,__zero_reg__
 2102 0b96 F11C      		adc r15,__zero_reg__
 2103 0b98 88E0      		ldi r24,lo8(8)
GAS LISTING C:\Users\ADMINI~1\AppData\Local\Temp/ccypPrtA.s 			page 38


 2104 0b9a 90E0      		ldi r25,hi8(8)
 2105 0b9c C80E      		add r12,r24
 2106 0b9e D91E      		adc r13,r25
 2107               	.LM359:
 2108 0ba0 91E1      		ldi r25,lo8(17)
 2109 0ba2 E916      		cp r14,r25
 2110 0ba4 F104      		cpc r15,__zero_reg__
 2111 0ba6 01F0      		breq .L175
 2112               	.L173:
 2113 0ba8 8701      		movw r16,r14
 2114 0baa B3E0      		ldi r27,3
 2115 0bac 000F      	1:	lsl r16
 2116 0bae 111F      		rol r17
 2117 0bb0 BA95      		dec r27
 2118 0bb2 01F4      		brne 1b
 2119 0bb4 0050      		subi r16,lo8(-(_newKeyMap))
 2120 0bb6 1040      		sbci r17,hi8(-(_newKeyMap))
 2121 0bb8 C0E0      		ldi r28,lo8(0)
 2122 0bba D0E0      		ldi r29,hi8(0)
 2123 0bbc 00C0      		rjmp .L174
 2124               	.L175:
 2125               	.LM360:
 2126 0bbe 1092 0000 		sts (_editCount)+1,__zero_reg__
 2127 0bc2 1092 0000 		sts _editCount,__zero_reg__
 2128               	.LM361:
 2129 0bc6 8091 0000 		lds r24,_stepAfterLayerSave
 2130 0bca 8430      		cpi r24,lo8(4)
 2131 0bcc 01F4      		brne .L176
 2132               	.LM362:
 2133 0bce 8093 0000 		sts _step,r24
 2134               	.LBB90:
 2135               	.LBB91:
 2136               	.LM363:
 2137 0bd2 1092 0000 		sts _isKeyMapping,__zero_reg__
 2138               	.LM364:
 2139 0bd6 1092 0000 		sts _wait,__zero_reg__
 2140 0bda 00C0      		rjmp .L177
 2141               	.L176:
 2142               	.LBE91:
 2143               	.LBE90:
 2144               	.LM365:
 2145 0bdc 8130      		cpi r24,lo8(1)
 2146 0bde 01F4      		brne .L177
 2147               	.LM366:
 2148 0be0 0E94 0000 		call printEnter
 2149               	.LM367:
 2150 0be4 80E0      		ldi r24,lo8(str_load_layer)
 2151 0be6 90E0      		ldi r25,hi8(str_load_layer)
 2152 0be8 0E94 0000 		call printStringFromFlash
 2153               	.LM368:
 2154 0bec 0E94 0000 		call printEnter
 2155               	.LM369:
 2156 0bf0 87E0      		ldi r24,lo8(7)
 2157 0bf2 8093 0000 		sts _step,r24
 2158               	.LM370:
 2159 0bf6 8091 0000 		lds r24,_currentLayerAfter
 2160 0bfa 8093 0000 		sts _currentLayer,r24
GAS LISTING C:\Users\ADMINI~1\AppData\Local\Temp/ccypPrtA.s 			page 39


 2161               	.LM371:
 2162 0bfe 0E94 0000 		call loadCurrentLayer
 2163               	.L177:
 2164               	.LM372:
 2165 0c02 0E94 0000 		call printPrompt
 2166               	/* epilogue start */
 2167               	.LM373:
 2168 0c06 DF91      		pop r29
 2169 0c08 CF91      		pop r28
 2170 0c0a 1F91      		pop r17
 2171 0c0c 0F91      		pop r16
 2172 0c0e FF90      		pop r15
 2173 0c10 EF90      		pop r14
 2174 0c12 DF90      		pop r13
 2175 0c14 CF90      		pop r12
 2176 0c16 BF90      		pop r11
 2177 0c18 0895      		ret
 2178               	.LFE38:
 2179               		.size	saveCurrentLayerAfter, .-saveCurrentLayerAfter
 2180               	.global	prepareKeyMapper
 2181               		.type	prepareKeyMapper, @function
 2182               	prepareKeyMapper:
 2183               	.LFB37:
 2184               	.LM374:
 2185               	/* prologue: function */
 2186               	/* frame size = 0 */
 2187               	.LM375:
 2188 0c1a 83E0      		ldi r24,lo8(3)
 2189 0c1c E0E0      		ldi r30,lo8(_buffer)
 2190 0c1e F0E0      		ldi r31,hi8(_buffer)
 2191 0c20 DF01      		movw r26,r30
 2192 0c22 1D92      		st X+,__zero_reg__
 2193 0c24 8A95      	        dec r24
 2194 0c26 01F4      		brne .-6
 2195               	.LM376:
 2196 0c28 1092 0000 		sts _bufferIndex,__zero_reg__
 2197               	.LM377:
 2198 0c2c 1092 0000 		sts _currentLayer,__zero_reg__
 2199               	.LM378:
 2200 0c30 1092 0000 		sts _mode,__zero_reg__
 2201               	.LM379:
 2202 0c34 0E94 0000 		call loadCurrentLayer
 2203               	.LM380:
 2204 0c38 0E94 0000 		call printSelectMode
 2205               	/* epilogue start */
 2206               	.LM381:
 2207 0c3c 0895      		ret
 2208               	.LFE37:
 2209               		.size	prepareKeyMapper, .-prepareKeyMapper
 2210               	.global	getCurrentKeycode
 2211               		.type	getCurrentKeycode, @function
 2212               	getCurrentKeycode:
 2213               	.LFB25:
 2214               	.LM382:
 2215               	.LVL76:
 2216 0c3e FF92      		push r15
 2217 0c40 0F93      		push r16
GAS LISTING C:\Users\ADMINI~1\AppData\Local\Temp/ccypPrtA.s 			page 40


 2218 0c42 1F93      		push r17
 2219               	/* prologue: function */
 2220               	/* frame size = 0 */
 2221 0c44 182F      		mov r17,r24
 2222 0c46 062F      		mov r16,r22
 2223 0c48 F42E      		mov r15,r20
 2224               	.LM383:
 2225 0c4a 8091 0000 		lds r24,_isKeyMapping
 2226               	.LVL77:
 2227 0c4e 8823      		tst r24
 2228 0c50 01F4      		brne .L186
 2229               	.LVL78:
 2230               	.L183:
 2231               	.LBB92:
 2232               	.LM384:
 2233 0c52 88E8      		ldi r24,lo8(-120)
 2234 0c54 189F      		mul r17,r24
 2235 0c56 C001      		movw r24,r0
 2236 0c58 1124      		clr r1
 2237 0c5a 0D96      		adiw r24,13
 2238 0c5c 262F      		mov r18,r22
 2239 0c5e 30E0      		ldi r19,lo8(0)
 2240               	.LVL79:
 2241 0c60 43E0      		ldi r20,3
 2242 0c62 220F      	1:	lsl r18
 2243 0c64 331F      		rol r19
 2244 0c66 4A95      		dec r20
 2245 0c68 01F4      		brne 1b
 2246               	.LVL80:
 2247 0c6a 820F      		add r24,r18
 2248 0c6c 931F      		adc r25,r19
 2249 0c6e 8F0D      		add r24,r15
 2250 0c70 911D      		adc r25,__zero_reg__
 2251 0c72 0E94 0000 		call __eerd_byte_m32
 2252               	.LVL81:
 2253 0c76 982F      		mov r25,r24
 2254               	.LVL82:
 2255               	.LBE92:
 2256               	.LM385:
 2257 0c78 8150      		subi r24,lo8(-(-1))
 2258 0c7a 8E3F      		cpi r24,lo8(-2)
 2259 0c7c 00F0      		brlo .L184
 2260               	.LVL83:
 2261               	.L186:
 2262               	.LBB93:
 2263               	.LM386:
 2264 0c7e 812F      		mov r24,r17
 2265 0c80 602F      		mov r22,r16
 2266 0c82 4F2D      		mov r20,r15
 2267 0c84 0E94 0000 		call getKeyCode
 2268               	.LVL84:
 2269 0c88 982F      		mov r25,r24
 2270               	.LVL85:
 2271               	.L184:
 2272               	.LBE93:
 2273               	.LM387:
 2274 0c8a 892F      		mov r24,r25
GAS LISTING C:\Users\ADMINI~1\AppData\Local\Temp/ccypPrtA.s 			page 41


 2275               	/* epilogue start */
 2276 0c8c 1F91      		pop r17
 2277               	.LVL86:
 2278 0c8e 0F91      		pop r16
 2279               	.LVL87:
 2280 0c90 FF90      		pop r15
 2281               	.LVL88:
 2282 0c92 0895      		ret
 2283               	.LFE25:
 2284               		.size	getCurrentKeycode, .-getCurrentKeycode
 2285               	.global	applyMacro
 2286               		.type	applyMacro, @function
 2287               	applyMacro:
 2288               	.LFB40:
 2289               	.LM388:
 2290               	.LVL89:
 2291 0c94 1F93      		push r17
 2292               	/* prologue: function */
 2293               	/* frame size = 0 */
 2294 0c96 982F      		mov r25,r24
 2295               	.LM389:
 2296 0c98 8091 0000 		lds r24,_isKeyMapping
 2297               	.LVL90:
 2298 0c9c 80FD      		sbrc r24,0
 2299 0c9e 00C0      		rjmp .L188
 2300               	.LBB94:
 2301               	.LBB95:
 2302               	.LM390:
 2303 0ca0 192F      		mov r17,r25
 2304 0ca2 195C      		subi r17,lo8(-(55))
 2305 0ca4 1C30      		cpi r17,lo8(12)
 2306 0ca6 00F4      		brsh .L188
 2307               	.LBE95:
 2308               	.LBE94:
 2309               	.LM391:
 2310 0ca8 0E94 0000 		call isEmptyM
 2311               	.LVL91:
 2312 0cac 8823      		tst r24
 2313 0cae 01F0      		breq .L188
 2314               	.LM392:
 2315 0cb0 0E94 0000 		call clearMacroPressedBuffer
 2316               	.LM393:
 2317 0cb4 812F      		mov r24,r17
 2318 0cb6 0E94 0000 		call readMacro
 2319 0cba 81E0      		ldi r24,lo8(1)
 2320 0cbc 00C0      		rjmp .L189
 2321               	.LVL92:
 2322               	.L188:
 2323               	.LM394:
 2324 0cbe 80E0      		ldi r24,lo8(0)
 2325               	.L189:
 2326               	/* epilogue start */
 2327               	.LM395:
 2328 0cc0 1F91      		pop r17
 2329 0cc2 0895      		ret
 2330               	.LFE40:
 2331               		.size	applyMacro, .-applyMacro
GAS LISTING C:\Users\ADMINI~1\AppData\Local\Temp/ccypPrtA.s 			page 42


 2332               	.global	startKeyMapping
 2333               		.type	startKeyMapping, @function
 2334               	startKeyMapping:
 2335               	.LFB17:
 2336               	.LM396:
 2337               	/* prologue: function */
 2338               	/* frame size = 0 */
 2339               	.LBB96:
 2340               	.LBB97:
 2341               	.LM397:
 2342 0cc4 8091 0000 		lds r24,_isKeyMapping
 2343               	.LBE97:
 2344               	.LBE96:
 2345               	.LM398:
 2346 0cc8 80FF      		sbrs r24,0
 2347 0cca 00C0      		rjmp .L193
 2348 0ccc 81FD      		sbrc r24,1
 2349 0cce 00C0      		rjmp .L193
 2350 0cd0 0E94 0000 		call isAllKeyRelease
 2351 0cd4 8823      		tst r24
 2352 0cd6 01F0      		breq .L193
 2353               	.LBB98:
 2354               	.LBB99:
 2355               	.LM399:
 2356 0cd8 8091 0000 		lds r24,_isKeyMapping
 2357 0cdc 8260      		ori r24,lo8(2)
 2358 0cde 8093 0000 		sts _isKeyMapping,r24
 2359               	.LM400:
 2360 0ce2 0E94 0000 		call prepareKeyMapper
 2361               	.L193:
 2362 0ce6 0895      		ret
 2363               	.LBE99:
 2364               	.LBE98:
 2365               	.LFE17:
 2366               		.size	startKeyMapping, .-startKeyMapping
 2367               	.global	prepareKeyMapping
 2368               		.type	prepareKeyMapping, @function
 2369               	prepareKeyMapping:
 2370               	.LFB12:
 2371               	.LM401:
 2372               	/* prologue: function */
 2373               	/* frame size = 0 */
 2374               	.LBB100:
 2375               	.LBB101:
 2376               	.LM402:
 2377 0ce8 8091 0000 		lds r24,_isKeyMapping
 2378 0cec 8160      		ori r24,lo8(1)
 2379 0cee 8093 0000 		sts _isKeyMapping,r24
 2380               	.LBE101:
 2381               	.LBE100:
 2382               	.LM403:
 2383 0cf2 8091 0000 		lds r24,INTERFACE
 2384 0cf6 8150      		subi r24,lo8(-(-1))
 2385 0cf8 8230      		cpi r24,lo8(2)
 2386 0cfa 00F4      		brsh .L195
 2387               	.LM404:
 2388 0cfc 0E94 0000 		call prepareKeyMappingUsb
GAS LISTING C:\Users\ADMINI~1\AppData\Local\Temp/ccypPrtA.s 			page 43


 2389 0d00 00C0      		rjmp .L196
 2390               	.L195:
 2391               	.LM405:
 2392 0d02 0E94 0000 		call prepareKeyMappingPs2
 2393               	.LM406:
 2394 0d06 84EC      		ldi r24,lo8(2500)
 2395 0d08 99E0      		ldi r25,hi8(2500)
 2396 0d0a 9093 0000 		sts (keyMappingCountMax)+1,r25
 2397 0d0e 8093 0000 		sts keyMappingCountMax,r24
 2398               	.L196:
 2399               	.LM407:
 2400 0d12 0E94 0000 		call printPrepareString
 2401               	/* epilogue start */
 2402               	.LM408:
 2403 0d16 0895      		ret
 2404               	.LFE12:
 2405               		.size	prepareKeyMapping, .-prepareKeyMapping
 2406               	.global	countKeyMappingEnabled
 2407               		.type	countKeyMappingEnabled, @function
 2408               	countKeyMappingEnabled:
 2409               	.LFB19:
 2410               	.LM409:
 2411               	/* prologue: function */
 2412               	/* frame size = 0 */
 2413               	.LM410:
 2414 0d18 8091 0000 		lds r24,_isKeyMapping
 2415 0d1c 8823      		tst r24
 2416 0d1e 01F4      		brne .L200
 2417 0d20 8091 0000 		lds r24,enabledKeyMappingCount
 2418 0d24 8823      		tst r24
 2419 0d26 01F0      		breq .L200
 2420 0d28 8091 0000 		lds r24,keyMappingCount
 2421 0d2c 9091 0000 		lds r25,(keyMappingCount)+1
 2422 0d30 0196      		adiw r24,1
 2423 0d32 9093 0000 		sts (keyMappingCount)+1,r25
 2424 0d36 8093 0000 		sts keyMappingCount,r24
 2425 0d3a 2091 0000 		lds r18,keyMappingCountMax
 2426 0d3e 3091 0000 		lds r19,(keyMappingCountMax)+1
 2427 0d42 2817      		cp r18,r24
 2428 0d44 3907      		cpc r19,r25
 2429 0d46 04F4      		brge .L200
 2430               	.LM411:
 2431 0d48 1092 0000 		sts enabledKeyMappingCount,__zero_reg__
 2432               	.LM412:
 2433 0d4c 0E94 0000 		call prepareKeyMapping
 2434               	.L200:
 2435 0d50 0895      		ret
 2436               	.LFE19:
 2437               		.size	countKeyMappingEnabled, .-countKeyMappingEnabled
 2438               	.global	enterFrameForMapper
 2439               		.type	enterFrameForMapper, @function
 2440               	enterFrameForMapper:
 2441               	.LFB20:
 2442               	.LM413:
 2443               	/* prologue: function */
 2444               	/* frame size = 0 */
 2445               	.LM414:
GAS LISTING C:\Users\ADMINI~1\AppData\Local\Temp/ccypPrtA.s 			page 44


 2446 0d52 0E94 0000 		call countKeyMappingEnabled
 2447               	.LM415:
 2448 0d56 8091 0000 		lds r24,_isKeyMapping
 2449 0d5a 81FF      		sbrs r24,1
 2450 0d5c 00C0      		rjmp .L208
 2451               	.LM416:
 2452 0d5e 8091 0000 		lds r24,_isWorkingForEmpty
 2453 0d62 8823      		tst r24
 2454 0d64 01F0      		breq .L203
 2455 0d66 0E94 0000 		call isMacroProcessEnd
 2456 0d6a 8823      		tst r24
 2457 0d6c 01F0      		breq .L203
 2458               	.LM417:
 2459 0d6e 8091 0000 		lds r24,_wait
 2460 0d72 8B30      		cpi r24,lo8(11)
 2461 0d74 01F4      		brne .L204
 2462               	.LM418:
 2463 0d76 0E94 0000 		call saveCurrentLayerAfter
 2464 0d7a 00C0      		rjmp .L205
 2465               	.L204:
 2466               	.LM419:
 2467 0d7c 8A30      		cpi r24,lo8(10)
 2468 0d7e 01F4      		brne .L206
 2469               	.LM420:
 2470 0d80 0E94 0000 		call printMapperMessageAfter
 2471 0d84 00C0      		rjmp .L205
 2472               	.L206:
 2473               	.LM421:
 2474 0d86 8C30      		cpi r24,lo8(12)
 2475 0d88 01F4      		brne .L207
 2476               	.LM422:
 2477 0d8a 0E94 0000 		call clearMacroAfter
 2478 0d8e 00C0      		rjmp .L205
 2479               	.L207:
 2480               	.LM423:
 2481 0d90 1092 0000 		sts _isWorkingForEmpty,__zero_reg__
 2482               	.L205:
 2483               	.LM424:
 2484 0d94 1092 0000 		sts _wait,__zero_reg__
 2485               	.L203:
 2486               	.LM425:
 2487 0d98 8091 0000 		lds r24,_isPressedEscapeKey
 2488 0d9c 8823      		tst r24
 2489 0d9e 01F0      		breq .L208
 2490 0da0 8091 0000 		lds r24,_pressedEscapeKeyCount
 2491 0da4 9091 0000 		lds r25,(_pressedEscapeKeyCount)+1
 2492 0da8 0196      		adiw r24,1
 2493 0daa 9093 0000 		sts (_pressedEscapeKeyCount)+1,r25
 2494 0dae 8093 0000 		sts _pressedEscapeKeyCount,r24
 2495 0db2 895E      		subi r24,lo8(1001)
 2496 0db4 9340      		sbci r25,hi8(1001)
 2497 0db6 04F0      		brlt .L208
 2498               	.LM426:
 2499 0db8 81E0      		ldi r24,lo8(1)
 2500 0dba 8093 0000 		sts _isTiredEscapeKey,r24
 2501               	.LM427:
 2502 0dbe 89E2      		ldi r24,lo8(41)
GAS LISTING C:\Users\ADMINI~1\AppData\Local\Temp/ccypPrtA.s 			page 45


 2503 0dc0 6FEF      		ldi r22,lo8(-1)
 2504 0dc2 4FEF      		ldi r20,lo8(-1)
 2505 0dc4 20E0      		ldi r18,lo8(0)
 2506 0dc6 0E94 0000 		call putKeyCode
 2507               	.L208:
 2508 0dca 0895      		ret
 2509               	.LFE20:
 2510               		.size	enterFrameForMapper, .-enterFrameForMapper
 2511               	.global	startKeyMappingOnBoot
 2512               		.type	startKeyMappingOnBoot, @function
 2513               	startKeyMappingOnBoot:
 2514               	.LFB16:
 2515               	.LM428:
 2516               	/* prologue: function */
 2517               	/* frame size = 0 */
 2518               	.LM429:
 2519 0dcc 0E94 0000 		call isBootMapper
 2520 0dd0 8823      		tst r24
 2521 0dd2 01F0      		breq .L210
 2522               	.LM430:
 2523 0dd4 1092 0000 		sts _keyMappingOnBoot,__zero_reg__
 2524 0dd8 0895      		ret
 2525               	.L210:
 2526               	.LM431:
 2527 0dda 8091 0000 		lds r24,_keyMappingOnBoot
 2528 0dde 8130      		cpi r24,lo8(1)
 2529 0de0 01F4      		brne .L212
 2530               	.LM432:
 2531 0de2 0E94 0000 		call prepareKeyMapping
 2532               	.LM433:
 2533 0de6 1092 0000 		sts _keyMappingOnBoot,__zero_reg__
 2534               	.L212:
 2535 0dea 0895      		ret
 2536               	.LFE16:
 2537               		.size	startKeyMappingOnBoot, .-startKeyMappingOnBoot
 2538               	.global	str_select_mode
 2539               		.section	.progmem.data,"a",@progbits
 2540               		.type	str_select_mode, @object
 2541               		.size	str_select_mode, 12
 2542               	str_select_mode:
 2543 0000 7365 6C65 		.string	"select mode"
 2543      6374 206D 
 2543      6F64 6500 
 2544               	.global	str_select_mode1
 2545               		.type	str_select_mode1, @object
 2546               		.size	str_select_mode1, 14
 2547               	str_select_mode1:
 2548 000c 313A 4B65 		.string	"1:Key Mapping"
 2548      7920 4D61 
 2548      7070 696E 
 2548      6700 
 2549               	.global	str_select_mode2
 2550               		.type	str_select_mode2, @object
 2551               		.size	str_select_mode2, 8
 2552               	str_select_mode2:
 2553 001a 323A 4D61 		.string	"2:Macro"
 2553      6372 6F00 
GAS LISTING C:\Users\ADMINI~1\AppData\Local\Temp/ccypPrtA.s 			page 46


 2554               	.global	str_select_mode3
 2555               		.type	str_select_mode3, @object
 2556               		.size	str_select_mode3, 7
 2557               	str_select_mode3:
 2558 0022 333A 4578 		.string	"3:Exit"
 2558      6974 00
 2559               	.global	str_select_mode4
 2560               		.type	str_select_mode4, @object
 2561               		.size	str_select_mode4, 14
 2562               	str_select_mode4:
 2563 0029 343A 626F 		.string	"4:boot mapper"
 2563      6F74 206D 
 2563      6170 7065 
 2563      7200 
 2564               	.global	str_exit
 2565               		.type	str_exit, @object
 2566               		.size	str_exit, 10
 2567               	str_exit:
 2568 0037 676F 6F64 		.string	"good bye~"
 2568      2062 7965 
 2568      7E00 
 2569               	.global	str_boot_mapper
 2570               		.type	str_boot_mapper, @object
 2571               		.size	str_boot_mapper, 19
 2572               	str_boot_mapper:
 2573 0041 626F 6F74 		.string	"boot mapper start!"
 2573      206D 6170 
 2573      7065 7220 
 2573      7374 6172 
 2573      7421 00
 2574               	.global	str_macro_message
 2575               		.type	str_macro_message, @object
 2576               		.size	str_macro_message, 6
 2577               	str_macro_message:
 2578 0054 4D61 6372 		.string	"Macro"
 2578      6F00 
 2579               	.global	str_macro_1
 2580               		.type	str_macro_1, @object
 2581               		.size	str_macro_1, 21
 2582               	str_macro_1:
 2583 005a 313A 5365 		.string	"1:Select Macro Index"
 2583      6C65 6374 
 2583      204D 6163 
 2583      726F 2049 
 2583      6E64 6578 
 2584               	.global	str_macro_2
 2585               		.type	str_macro_2, @object
 2586               		.size	str_macro_2, 7
 2587               	str_macro_2:
 2588 006f 323A 4578 		.string	"2:Exit"
 2588      6974 00
 2589               	.global	str_macro_9
 2590               		.type	str_macro_9, @object
 2591               		.size	str_macro_9, 12
 2592               	str_macro_9:
 2593 0076 393A 436C 		.string	"9:Clear All"
 2593      6561 7220 
GAS LISTING C:\Users\ADMINI~1\AppData\Local\Temp/ccypPrtA.s 			page 47


 2593      416C 6C00 
 2594               	.global	str_back_6
 2595               		.type	str_back_6, @object
 2596               		.size	str_back_6, 7
 2597               	str_back_6:
 2598 0082 363A 4261 		.string	"6:Back"
 2598      636B 00
 2599               	.global	str_mapper_message
 2600               		.type	str_mapper_message, @object
 2601               		.size	str_mapper_message, 11
 2602               	str_mapper_message:
 2603 0089 4B65 7920 		.string	"Key Mapper"
 2603      4D61 7070 
 2603      6572 00
 2604               	.global	str_mapper_1
 2605               		.type	str_mapper_1, @object
 2606               		.size	str_mapper_1, 15
 2607               	str_mapper_1:
 2608 0094 313A 4368 		.string	"1:Change Layer"
 2608      616E 6765 
 2608      204C 6179 
 2608      6572 00
 2609               	.global	str_mapper_2
 2610               		.type	str_mapper_2, @object
 2611               		.size	str_mapper_2, 29
 2612               	str_mapper_2:
 2613 00a3 323A 5365 		.string	"2:Select Key - input keycode"
 2613      6C65 6374 
 2613      204B 6579 
 2613      202D 2069 
 2613      6E70 7574 
 2614               	.global	str_mapper_3
 2615               		.type	str_mapper_3, @object
 2616               		.size	str_mapper_3, 16
 2617               	str_mapper_3:
 2618 00c0 333A 5361 		.string	"3:Save and Exit"
 2618      7665 2061 
 2618      6E64 2045 
 2618      7869 7400 
 2619               	.global	str_mapper_4
 2620               		.type	str_mapper_4, @object
 2621               		.size	str_mapper_4, 22
 2622               	str_mapper_4:
 2623 00d0 343A 4578 		.string	"4:Exit without Saving"
 2623      6974 2077 
 2623      6974 686F 
 2623      7574 2053 
 2623      6176 696E 
 2624               	.global	str_mapper_9
 2625               		.type	str_mapper_9, @object
 2626               		.size	str_mapper_9, 35
 2627               	str_mapper_9:
 2628 00e6 393A 5265 		.string	"9:Reset to Default (Current Layer)"
 2628      7365 7420 
 2628      746F 2044 
 2628      6566 6175 
 2628      6C74 2028 
GAS LISTING C:\Users\ADMINI~1\AppData\Local\Temp/ccypPrtA.s 			page 48


 2629               	.global	str_prepare_message
 2630               		.type	str_prepare_message, @object
 2631               		.size	str_prepare_message, 8
 2632               	str_prepare_message:
 2633 0109 7073 3261 		.string	"ps2avrU"
 2633      7672 5500 
 2634               	.global	str_choose_layer
 2635               		.type	str_choose_layer, @object
 2636               		.size	str_choose_layer, 50
 2637               	str_choose_layer:
 2638 0111 6368 6F6F 		.string	"choose layer (1: normal, 2: FN, 3: FN2) current= "
 2638      7365 206C 
 2638      6179 6572 
 2638      2028 313A 
 2638      206E 6F72 
 2639               	.global	str_choose_key
 2640               		.type	str_choose_key, @object
 2641               		.size	str_choose_key, 31
 2642               	str_choose_key:
 2643 0143 7365 6C65 		.string	"select key (any key you want) "
 2643      6374 206B 
 2643      6579 2028 
 2643      616E 7920 
 2643      6B65 7920 
 2644               	.global	str_input_keycode
 2645               		.type	str_input_keycode, @object
 2646               		.size	str_input_keycode, 34
 2647               	str_input_keycode:
 2648 0162 696E 7075 		.string	"input keycode (must 3 numbers) : "
 2648      7420 6B65 
 2648      7963 6F64 
 2648      6520 286D 
 2648      7573 7420 
 2649               	.global	str_save_end_mapping
 2650               		.type	str_save_end_mapping, @object
 2651               		.size	str_save_end_mapping, 24
 2652               	str_save_end_mapping:
 2653 0184 5361 7665 		.string	"Save & Exit, thank you."
 2653      2026 2045 
 2653      7869 742C 
 2653      2074 6861 
 2653      6E6B 2079 
 2654               	.global	str_cancel_mapping
 2655               		.type	str_cancel_mapping, @object
 2656               		.size	str_cancel_mapping, 36
 2657               	str_cancel_mapping:
 2658 019c 4578 6974 		.string	"Exit without Saving, see you later."
 2658      2077 6974 
 2658      686F 7574 
 2658      2053 6176 
 2658      696E 672C 
 2659               	.global	str_reset_mapping
 2660               		.type	str_reset_mapping, @object
 2661               		.size	str_reset_mapping, 31
 2662               	str_reset_mapping:
 2663 01c0 5265 7365 		.string	"Reset to default current layer"
 2663      7420 746F 
GAS LISTING C:\Users\ADMINI~1\AppData\Local\Temp/ccypPrtA.s 			page 49


 2663      2064 6566 
 2663      6175 6C74 
 2663      2063 7572 
 2664               	.global	str_input_command
 2665               		.type	str_input_command, @object
 2666               		.size	str_input_command, 23
 2667               	str_input_command:
 2668 01df 496E 7075 		.string	"Input Command Number: "
 2668      7420 436F 
 2668      6D6D 616E 
 2668      6420 4E75 
 2668      6D62 6572 
 2669               	.global	str_nothing
 2670               		.type	str_nothing, @object
 2671               		.size	str_nothing, 8
 2672               	str_nothing:
 2673 01f6 6E6F 7468 		.string	"nothing"
 2673      696E 6700 
 2674               	.global	str_save_layer
 2675               		.type	str_save_layer, @object
 2676               		.size	str_save_layer, 19
 2677               	str_save_layer:
 2678 01fe 5361 7665 		.string	"Save current layer"
 2678      2063 7572 
 2678      7265 6E74 
 2678      206C 6179 
 2678      6572 00
 2679               	.global	str_load_layer
 2680               		.type	str_load_layer, @object
 2681               		.size	str_load_layer, 19
 2682               	str_load_layer:
 2683 0211 4C6F 6164 		.string	"Load current layer"
 2683      2063 7572 
 2683      7265 6E74 
 2683      206C 6179 
 2683      6572 00
 2684               	.global	str_saving
 2685               		.type	str_saving, @object
 2686               		.size	str_saving, 10
 2687               	str_saving:
 2688 0224 7361 7669 		.string	"saving..."
 2688      6E67 2E2E 
 2688      2E00 
 2689               	.global	str_col_row
 2690               		.type	str_col_row, @object
 2691               		.size	str_col_row, 12
 2692               	str_col_row:
 2693 022e 636F 6C2C 		.string	"col, row : "
 2693      2072 6F77 
 2693      203A 2000 
 2694               	.global	str_invalid_keycode
 2695               		.type	str_invalid_keycode, @object
 2696               		.size	str_invalid_keycode, 30
 2697               	str_invalid_keycode:
 2698 023a 696E 7661 		.string	"invalid keycode, input again."
 2698      6C69 6420 
 2698      6B65 7963 
GAS LISTING C:\Users\ADMINI~1\AppData\Local\Temp/ccypPrtA.s 			page 50


 2698      6F64 652C 
 2698      2069 6E70 
 2699               	.global	str_select_number
 2700               		.type	str_select_number, @object
 2701               		.size	str_select_number, 45
 2702               	str_select_number:
 2703 0258 696E 7075 		.string	"input Macro Index (01~12, must 2 numbers) : "
 2703      7420 4D61 
 2703      6372 6F20 
 2703      496E 6465 
 2703      7820 2830 
 2704               	.global	str_exit_macro
 2705               		.type	str_exit_macro, @object
 2706               		.size	str_exit_macro, 27
 2707               	str_exit_macro:
 2708 0285 4578 6974 		.string	"Exit macro, see you later."
 2708      206D 6163 
 2708      726F 2C20 
 2708      7365 6520 
 2708      796F 7520 
 2709               	.global	str_input_macro
 2710               		.type	str_input_macro, @object
 2711               		.size	str_input_macro, 55
 2712               	str_input_macro:
 2713 02a0 696E 7075 		.string	"input key (max 24 keys, stop : press ESC during 1 sec)"
 2713      7420 6B65 
 2713      7920 286D 
 2713      6178 2032 
 2713      3420 6B65 
 2714               	.global	str_invalid_macro_number
 2715               		.type	str_invalid_macro_number, @object
 2716               		.size	str_invalid_macro_number, 28
 2717               	str_invalid_macro_number:
 2718 02d7 696E 7661 		.string	"invalid Index, input again."
 2718      6C69 6420 
 2718      496E 6465 
 2718      782C 2069 
 2718      6E70 7574 
 2719               	.global	str_clear_all_macro
 2720               		.type	str_clear_all_macro, @object
 2721               		.size	str_clear_all_macro, 9
 2722               	str_clear_all_macro:
 2723 02f3 636C 6561 		.string	"clear..."
 2723      722E 2E2E 
 2723      00
 2724               	.global	_pressedEscapeKeyCount
 2725               	.global	_pressedEscapeKeyCount
 2726               		.section .bss
 2727               		.type	_pressedEscapeKeyCount, @object
 2728               		.size	_pressedEscapeKeyCount, 2
 2729               	_pressedEscapeKeyCount:
 2730 0000 0000      		.skip 2,0
 2731               	.global	_isPressedEscapeKey
 2732               	.global	_isPressedEscapeKey
 2733               		.type	_isPressedEscapeKey, @object
 2734               		.size	_isPressedEscapeKey, 1
 2735               	_isPressedEscapeKey:
GAS LISTING C:\Users\ADMINI~1\AppData\Local\Temp/ccypPrtA.s 			page 51


 2736 0002 00        		.skip 1,0
 2737               	.global	_isTiredEscapeKey
 2738               	.global	_isTiredEscapeKey
 2739               		.type	_isTiredEscapeKey, @object
 2740               		.size	_isTiredEscapeKey, 1
 2741               	_isTiredEscapeKey:
 2742 0003 00        		.skip 1,0
 2743               		.lcomm _isWorkingForEmpty,1
 2744               		.data
 2745               		.type	usingKeys, @object
 2746               		.size	usingKeys, 11
 2747               	usingKeys:
 2748 0028 27        		.byte	39
 2749 0029 1E        		.byte	30
 2750 002a 1F        		.byte	31
 2751 002b 20        		.byte	32
 2752 002c 21        		.byte	33
 2753 002d 22        		.byte	34
 2754 002e 23        		.byte	35
 2755 002f 24        		.byte	36
 2756 0030 25        		.byte	37
 2757 0031 26        		.byte	38
 2758 0032 29        		.byte	41
 2759               		.lcomm _macroDownCount,1
 2760               		.lcomm _isKeyMapping,1
 2761               		.lcomm enabledKeyMappingCount,1
 2762               		.lcomm keyMappingCount,2
 2763               		.type	keyMappingCountMax, @object
 2764               		.size	keyMappingCountMax, 2
 2765               	keyMappingCountMax:
 2766 0033 8813      		.word	5000
 2767               		.lcomm _keyMappingOnBoot,1
 2768               		.lcomm _mode,1
 2769               		.lcomm _step,1
 2770               		.lcomm _stepAfterLayerSave,1
 2771               		.lcomm _wait,1
 2772               		.lcomm _col,1
 2773               		.lcomm _row,1
 2774               		.lcomm _buffer,3
 2775               		.lcomm _bufferIndex,1
 2776               		.lcomm _editCount,2
 2777               		.lcomm _currentLayer,1
 2778               		.lcomm _currentLayerAfter,1
 2779               		.comm _macroIndex,1,1
 2780               		.comm _macroBufferIndex,1,1
 2781               		.comm _macroPressedBuffer,24,1
 2782               		.comm _macroInputBuffer,48,1
 2783               		.comm _newKeyMap,136,1
 2784               		.section	.debug_frame,"",@progbits
 2785               	.Lframe0:
 2786 0000 0C00 0000 		.long	.LECIE0-.LSCIE0
 2787               	.LSCIE0:
 2788 0004 FFFF FFFF 		.long	0xffffffff
 2789 0008 01        		.byte	0x1
 2790 0009 00        		.string	""
 2791 000a 01        		.uleb128 0x1
 2792 000b 7F        		.sleb128 -1
GAS LISTING C:\Users\ADMINI~1\AppData\Local\Temp/ccypPrtA.s 			page 52


 2793 000c 24        		.byte	0x24
 2794 000d 0C        		.byte	0xc
 2795 000e 20        		.uleb128 0x20
 2796 000f 00        		.uleb128 0x0
 2797               		.p2align	2
 2798               	.LECIE0:
 2799               	.LSFDE0:
 2800 0010 0C00 0000 		.long	.LEFDE0-.LASFDE0
 2801               	.LASFDE0:
 2802 0014 0000 0000 		.long	.Lframe0
 2803 0018 0000 0000 		.long	.LFB8
 2804 001c 0C00 0000 		.long	.LFE8-.LFB8
 2805               		.p2align	2
 2806               	.LEFDE0:
 2807               	.LSFDE2:
 2808 0020 0C00 0000 		.long	.LEFDE2-.LASFDE2
 2809               	.LASFDE2:
 2810 0024 0000 0000 		.long	.Lframe0
 2811 0028 0000 0000 		.long	.LFB9
 2812 002c 0800 0000 		.long	.LFE9-.LFB9
 2813               		.p2align	2
 2814               	.LEFDE2:
 2815               	.LSFDE4:
 2816 0030 0C00 0000 		.long	.LEFDE4-.LASFDE4
 2817               	.LASFDE4:
 2818 0034 0000 0000 		.long	.Lframe0
 2819 0038 0000 0000 		.long	.LFB10
 2820 003c 0800 0000 		.long	.LFE10-.LFB10
 2821               		.p2align	2
 2822               	.LEFDE4:
 2823               	.LSFDE6:
 2824 0040 0C00 0000 		.long	.LEFDE6-.LASFDE6
 2825               	.LASFDE6:
 2826 0044 0000 0000 		.long	.Lframe0
 2827 0048 0000 0000 		.long	.LFB11
 2828 004c 4000 0000 		.long	.LFE11-.LFB11
 2829               		.p2align	2
 2830               	.LEFDE6:
 2831               	.LSFDE8:
 2832 0050 0C00 0000 		.long	.LEFDE8-.LASFDE8
 2833               	.LASFDE8:
 2834 0054 0000 0000 		.long	.Lframe0
 2835 0058 0000 0000 		.long	.LFB14
 2836 005c 0600 0000 		.long	.LFE14-.LFB14
 2837               		.p2align	2
 2838               	.LEFDE8:
 2839               	.LSFDE10:
 2840 0060 0C00 0000 		.long	.LEFDE10-.LASFDE10
 2841               	.LASFDE10:
 2842 0064 0000 0000 		.long	.Lframe0
 2843 0068 0000 0000 		.long	.LFB15
 2844 006c 0800 0000 		.long	.LFE15-.LFB15
 2845               		.p2align	2
 2846               	.LEFDE10:
 2847               	.LSFDE12:
 2848 0070 0C00 0000 		.long	.LEFDE12-.LASFDE12
 2849               	.LASFDE12:
GAS LISTING C:\Users\ADMINI~1\AppData\Local\Temp/ccypPrtA.s 			page 53


 2850 0074 0000 0000 		.long	.Lframe0
 2851 0078 0000 0000 		.long	.LFB18
 2852 007c 0A00 0000 		.long	.LFE18-.LFB18
 2853               		.p2align	2
 2854               	.LEFDE12:
 2855               	.LSFDE14:
 2856 0080 0C00 0000 		.long	.LEFDE14-.LASFDE14
 2857               	.LASFDE14:
 2858 0084 0000 0000 		.long	.Lframe0
 2859 0088 0000 0000 		.long	.LFB23
 2860 008c 0E00 0000 		.long	.LFE23-.LFB23
 2861               		.p2align	2
 2862               	.LEFDE14:
 2863               	.LSFDE16:
 2864 0090 0C00 0000 		.long	.LEFDE16-.LASFDE16
 2865               	.LASFDE16:
 2866 0094 0000 0000 		.long	.Lframe0
 2867 0098 0000 0000 		.long	.LFB24
 2868 009c 0E00 0000 		.long	.LFE24-.LFB24
 2869               		.p2align	2
 2870               	.LEFDE16:
 2871               	.LSFDE18:
 2872 00a0 0C00 0000 		.long	.LEFDE18-.LASFDE18
 2873               	.LASFDE18:
 2874 00a4 0000 0000 		.long	.Lframe0
 2875 00a8 0000 0000 		.long	.LFB46
 2876 00ac 1000 0000 		.long	.LFE46-.LFB46
 2877               		.p2align	2
 2878               	.LEFDE18:
 2879               	.LSFDE20:
 2880 00b0 0C00 0000 		.long	.LEFDE20-.LASFDE20
 2881               	.LASFDE20:
 2882 00b4 0000 0000 		.long	.Lframe0
 2883 00b8 0000 0000 		.long	.LFB27
 2884 00bc 0E00 0000 		.long	.LFE27-.LFB27
 2885               		.p2align	2
 2886               	.LEFDE20:
 2887               	.LSFDE22:
 2888 00c0 0C00 0000 		.long	.LEFDE22-.LASFDE22
 2889               	.LASFDE22:
 2890 00c4 0000 0000 		.long	.Lframe0
 2891 00c8 0000 0000 		.long	.LFB47
 2892 00cc 2600 0000 		.long	.LFE47-.LFB47
 2893               		.p2align	2
 2894               	.LEFDE22:
 2895               	.LSFDE24:
 2896 00d0 0C00 0000 		.long	.LEFDE24-.LASFDE24
 2897               	.LASFDE24:
 2898 00d4 0000 0000 		.long	.Lframe0
 2899 00d8 0000 0000 		.long	.LFB26
 2900 00dc 3400 0000 		.long	.LFE26-.LFB26
 2901               		.p2align	2
 2902               	.LEFDE24:
 2903               	.LSFDE26:
 2904 00e0 0C00 0000 		.long	.LEFDE26-.LASFDE26
 2905               	.LASFDE26:
 2906 00e4 0000 0000 		.long	.Lframe0
GAS LISTING C:\Users\ADMINI~1\AppData\Local\Temp/ccypPrtA.s 			page 54


 2907 00e8 0000 0000 		.long	.LFB29
 2908 00ec 9000 0000 		.long	.LFE29-.LFB29
 2909               		.p2align	2
 2910               	.LEFDE26:
 2911               	.LSFDE28:
 2912 00f0 0C00 0000 		.long	.LEFDE28-.LASFDE28
 2913               	.LASFDE28:
 2914 00f4 0000 0000 		.long	.Lframe0
 2915 00f8 0000 0000 		.long	.LFB45
 2916 00fc 4C00 0000 		.long	.LFE45-.LFB45
 2917               		.p2align	2
 2918               	.LEFDE28:
 2919               	.LSFDE30:
 2920 0100 0C00 0000 		.long	.LEFDE30-.LASFDE30
 2921               	.LASFDE30:
 2922 0104 0000 0000 		.long	.Lframe0
 2923 0108 0000 0000 		.long	.LFB44
 2924 010c 1E00 0000 		.long	.LFE44-.LFB44
 2925               		.p2align	2
 2926               	.LEFDE30:
 2927               	.LSFDE32:
 2928 0110 0C00 0000 		.long	.LEFDE32-.LASFDE32
 2929               	.LASFDE32:
 2930 0114 0000 0000 		.long	.Lframe0
 2931 0118 0000 0000 		.long	.LFB39
 2932 011c 3C00 0000 		.long	.LFE39-.LFB39
 2933               		.p2align	2
 2934               	.LEFDE32:
 2935               	.LSFDE34:
 2936 0120 0C00 0000 		.long	.LEFDE34-.LASFDE34
 2937               	.LASFDE34:
 2938 0124 0000 0000 		.long	.Lframe0
 2939 0128 0000 0000 		.long	.LFB35
 2940 012c 0E00 0000 		.long	.LFE35-.LFB35
 2941               		.p2align	2
 2942               	.LEFDE34:
 2943               	.LSFDE36:
 2944 0130 0C00 0000 		.long	.LEFDE36-.LASFDE36
 2945               	.LASFDE36:
 2946 0134 0000 0000 		.long	.Lframe0
 2947 0138 0000 0000 		.long	.LFB34
 2948 013c 4800 0000 		.long	.LFE34-.LFB34
 2949               		.p2align	2
 2950               	.LEFDE36:
 2951               	.LSFDE38:
 2952 0140 0C00 0000 		.long	.LEFDE38-.LASFDE38
 2953               	.LASFDE38:
 2954 0144 0000 0000 		.long	.Lframe0
 2955 0148 0000 0000 		.long	.LFB28
 2956 014c A600 0000 		.long	.LFE28-.LFB28
 2957               		.p2align	2
 2958               	.LEFDE38:
 2959               	.LSFDE40:
 2960 0150 0C00 0000 		.long	.LEFDE40-.LASFDE40
 2961               	.LASFDE40:
 2962 0154 0000 0000 		.long	.Lframe0
 2963 0158 0000 0000 		.long	.LFB30
GAS LISTING C:\Users\ADMINI~1\AppData\Local\Temp/ccypPrtA.s 			page 55


 2964 015c F000 0000 		.long	.LFE30-.LFB30
 2965               		.p2align	2
 2966               	.LEFDE40:
 2967               	.LSFDE42:
 2968 0160 0C00 0000 		.long	.LEFDE42-.LASFDE42
 2969               	.LASFDE42:
 2970 0164 0000 0000 		.long	.Lframe0
 2971 0168 0000 0000 		.long	.LFB32
 2972 016c 4000 0000 		.long	.LFE32-.LFB32
 2973               		.p2align	2
 2974               	.LEFDE42:
 2975               	.LSFDE44:
 2976 0170 0C00 0000 		.long	.LEFDE44-.LASFDE44
 2977               	.LASFDE44:
 2978 0174 0000 0000 		.long	.Lframe0
 2979 0178 0000 0000 		.long	.LFB31
 2980 017c 4C00 0000 		.long	.LFE31-.LFB31
 2981               		.p2align	2
 2982               	.LEFDE44:
 2983               	.LSFDE46:
 2984 0180 0C00 0000 		.long	.LEFDE46-.LASFDE46
 2985               	.LASFDE46:
 2986 0184 0000 0000 		.long	.Lframe0
 2987 0188 0000 0000 		.long	.LFB43
 2988 018c 2A00 0000 		.long	.LFE43-.LFB43
 2989               		.p2align	2
 2990               	.LEFDE46:
 2991               	.LSFDE48:
 2992 0190 0C00 0000 		.long	.LEFDE48-.LASFDE48
 2993               	.LASFDE48:
 2994 0194 0000 0000 		.long	.Lframe0
 2995 0198 0000 0000 		.long	.LFB42
 2996 019c 4800 0000 		.long	.LFE42-.LFB42
 2997               		.p2align	2
 2998               	.LEFDE48:
 2999               	.LSFDE50:
 3000 01a0 0C00 0000 		.long	.LEFDE50-.LASFDE50
 3001               	.LASFDE50:
 3002 01a4 0000 0000 		.long	.Lframe0
 3003 01a8 0000 0000 		.long	.LFB41
 3004 01ac 4800 0000 		.long	.LFE41-.LFB41
 3005               		.p2align	2
 3006               	.LEFDE50:
 3007               	.LSFDE52:
 3008 01b0 0C00 0000 		.long	.LEFDE52-.LASFDE52
 3009               	.LASFDE52:
 3010 01b4 0000 0000 		.long	.Lframe0
 3011 01b8 0000 0000 		.long	.LFB36
 3012 01bc 8800 0000 		.long	.LFE36-.LFB36
 3013               		.p2align	2
 3014               	.LEFDE52:
 3015               	.LSFDE54:
 3016 01c0 0C00 0000 		.long	.LEFDE54-.LASFDE54
 3017               	.LASFDE54:
 3018 01c4 0000 0000 		.long	.Lframe0
 3019 01c8 0000 0000 		.long	.LFB48
 3020 01cc 5405 0000 		.long	.LFE48-.LFB48
GAS LISTING C:\Users\ADMINI~1\AppData\Local\Temp/ccypPrtA.s 			page 56


 3021               		.p2align	2
 3022               	.LEFDE54:
 3023               	.LSFDE56:
 3024 01d0 0C00 0000 		.long	.LEFDE56-.LASFDE56
 3025               	.LASFDE56:
 3026 01d4 0000 0000 		.long	.Lframe0
 3027 01d8 0000 0000 		.long	.LFB38
 3028 01dc CE00 0000 		.long	.LFE38-.LFB38
 3029               		.p2align	2
 3030               	.LEFDE56:
 3031               	.LSFDE58:
 3032 01e0 0C00 0000 		.long	.LEFDE58-.LASFDE58
 3033               	.LASFDE58:
 3034 01e4 0000 0000 		.long	.Lframe0
 3035 01e8 0000 0000 		.long	.LFB37
 3036 01ec 2400 0000 		.long	.LFE37-.LFB37
 3037               		.p2align	2
 3038               	.LEFDE58:
 3039               	.LSFDE60:
 3040 01f0 0C00 0000 		.long	.LEFDE60-.LASFDE60
 3041               	.LASFDE60:
 3042 01f4 0000 0000 		.long	.Lframe0
 3043 01f8 0000 0000 		.long	.LFB25
 3044 01fc 5600 0000 		.long	.LFE25-.LFB25
 3045               		.p2align	2
 3046               	.LEFDE60:
 3047               	.LSFDE62:
 3048 0200 0C00 0000 		.long	.LEFDE62-.LASFDE62
 3049               	.LASFDE62:
 3050 0204 0000 0000 		.long	.Lframe0
 3051 0208 0000 0000 		.long	.LFB40
 3052 020c 3000 0000 		.long	.LFE40-.LFB40
 3053               		.p2align	2
 3054               	.LEFDE62:
 3055               	.LSFDE64:
 3056 0210 0C00 0000 		.long	.LEFDE64-.LASFDE64
 3057               	.LASFDE64:
 3058 0214 0000 0000 		.long	.Lframe0
 3059 0218 0000 0000 		.long	.LFB17
 3060 021c 2400 0000 		.long	.LFE17-.LFB17
 3061               		.p2align	2
 3062               	.LEFDE64:
 3063               	.LSFDE66:
 3064 0220 0C00 0000 		.long	.LEFDE66-.LASFDE66
 3065               	.LASFDE66:
 3066 0224 0000 0000 		.long	.Lframe0
 3067 0228 0000 0000 		.long	.LFB12
 3068 022c 3000 0000 		.long	.LFE12-.LFB12
 3069               		.p2align	2
 3070               	.LEFDE66:
 3071               	.LSFDE68:
 3072 0230 0C00 0000 		.long	.LEFDE68-.LASFDE68
 3073               	.LASFDE68:
 3074 0234 0000 0000 		.long	.Lframe0
 3075 0238 0000 0000 		.long	.LFB19
 3076 023c 3A00 0000 		.long	.LFE19-.LFB19
 3077               		.p2align	2
GAS LISTING C:\Users\ADMINI~1\AppData\Local\Temp/ccypPrtA.s 			page 57


 3078               	.LEFDE68:
 3079               	.LSFDE70:
 3080 0240 0C00 0000 		.long	.LEFDE70-.LASFDE70
 3081               	.LASFDE70:
 3082 0244 0000 0000 		.long	.Lframe0
 3083 0248 0000 0000 		.long	.LFB20
 3084 024c 7A00 0000 		.long	.LFE20-.LFB20
 3085               		.p2align	2
 3086               	.LEFDE70:
 3087               	.LSFDE72:
 3088 0250 0C00 0000 		.long	.LEFDE72-.LASFDE72
 3089               	.LASFDE72:
 3090 0254 0000 0000 		.long	.Lframe0
 3091 0258 0000 0000 		.long	.LFB16
 3092 025c 2000 0000 		.long	.LFE16-.LFB16
 3093               		.p2align	2
 3094               	.LEFDE72:
 3095               		.text
 3096               	.Letext0:
 3097               		.section	.debug_loc,"",@progbits
 3098               	.Ldebug_loc0:
 3099               	.LLST4:
 3100 0000 1C00 0000 		.long	.LVL0-.Ltext0
 3101 0004 2200 0000 		.long	.LVL1-.Ltext0
 3102 0008 0100      		.word	0x1
 3103 000a 68        		.byte	0x68
 3104 000b 2200 0000 		.long	.LVL1-.Ltext0
 3105 000f 5C00 0000 		.long	.LFE11-.Ltext0
 3106 0013 0100      		.word	0x1
 3107 0015 69        		.byte	0x69
 3108 0016 0000 0000 		.long	0x0
 3109 001a 0000 0000 		.long	0x0
 3110               	.LLST9:
 3111 001e 7400 0000 		.long	.LVL2-.Ltext0
 3112 0022 7800 0000 		.long	.LVL3-.Ltext0
 3113 0026 0100      		.word	0x1
 3114 0028 68        		.byte	0x68
 3115 0029 0000 0000 		.long	0x0
 3116 002d 0000 0000 		.long	0x0
 3117               	.LLST11:
 3118 0031 8200 0000 		.long	.LVL4-.Ltext0
 3119 0035 8600 0000 		.long	.LVL5-.Ltext0
 3120 0039 0100      		.word	0x1
 3121 003b 68        		.byte	0x68
 3122 003c 8600 0000 		.long	.LVL5-.Ltext0
 3123 0040 9000 0000 		.long	.LFE24-.Ltext0
 3124 0044 0100      		.word	0x1
 3125 0046 69        		.byte	0x69
 3126 0047 0000 0000 		.long	0x0
 3127 004b 0000 0000 		.long	0x0
 3128               	.LLST16:
 3129 004f D400 0000 		.long	.LVL6-.Ltext0
 3130 0053 DC00 0000 		.long	.LVL7-.Ltext0
 3131 0057 0600      		.word	0x6
 3132 0059 68        		.byte	0x68
 3133 005a 93        		.byte	0x93
 3134 005b 01        		.uleb128 0x1
GAS LISTING C:\Users\ADMINI~1\AppData\Local\Temp/ccypPrtA.s 			page 58


 3135 005c 69        		.byte	0x69
 3136 005d 93        		.byte	0x93
 3137 005e 01        		.uleb128 0x1
 3138 005f DC00 0000 		.long	.LVL7-.Ltext0
 3139 0063 E000 0000 		.long	.LVL8-.Ltext0
 3140 0067 0600      		.word	0x6
 3141 0069 6E        		.byte	0x6e
 3142 006a 93        		.byte	0x93
 3143 006b 01        		.uleb128 0x1
 3144 006c 6F        		.byte	0x6f
 3145 006d 93        		.byte	0x93
 3146 006e 01        		.uleb128 0x1
 3147 006f 0000 0000 		.long	0x0
 3148 0073 0000 0000 		.long	0x0
 3149               	.LLST18:
 3150 0077 0801 0000 		.long	.LVL15-.Ltext0
 3151 007b 2601 0000 		.long	.LVL16-.Ltext0
 3152 007f 0600      		.word	0x6
 3153 0081 68        		.byte	0x68
 3154 0082 93        		.byte	0x93
 3155 0083 01        		.uleb128 0x1
 3156 0084 69        		.byte	0x69
 3157 0085 93        		.byte	0x93
 3158 0086 01        		.uleb128 0x1
 3159 0087 2601 0000 		.long	.LVL16-.Ltext0
 3160 008b 6801 0000 		.long	.LVL20-.Ltext0
 3161 008f 0600      		.word	0x6
 3162 0091 60        		.byte	0x60
 3163 0092 93        		.byte	0x93
 3164 0093 01        		.uleb128 0x1
 3165 0094 61        		.byte	0x61
 3166 0095 93        		.byte	0x93
 3167 0096 01        		.uleb128 0x1
 3168 0097 6801 0000 		.long	.LVL20-.Ltext0
 3169 009b 7801 0000 		.long	.LVL21-.Ltext0
 3170 009f 0600      		.word	0x6
 3171 00a1 68        		.byte	0x68
 3172 00a2 93        		.byte	0x93
 3173 00a3 01        		.uleb128 0x1
 3174 00a4 69        		.byte	0x69
 3175 00a5 93        		.byte	0x93
 3176 00a6 01        		.uleb128 0x1
 3177 00a7 7801 0000 		.long	.LVL21-.Ltext0
 3178 00ab 8E01 0000 		.long	.LVL25-.Ltext0
 3179 00af 0600      		.word	0x6
 3180 00b1 60        		.byte	0x60
 3181 00b2 93        		.byte	0x93
 3182 00b3 01        		.uleb128 0x1
 3183 00b4 61        		.byte	0x61
 3184 00b5 93        		.byte	0x93
 3185 00b6 01        		.uleb128 0x1
 3186 00b7 8E01 0000 		.long	.LVL25-.Ltext0
 3187 00bb 9801 0000 		.long	.LFE29-.Ltext0
 3188 00bf 0600      		.word	0x6
 3189 00c1 68        		.byte	0x68
 3190 00c2 93        		.byte	0x93
 3191 00c3 01        		.uleb128 0x1
GAS LISTING C:\Users\ADMINI~1\AppData\Local\Temp/ccypPrtA.s 			page 59


 3192 00c4 69        		.byte	0x69
 3193 00c5 93        		.byte	0x93
 3194 00c6 01        		.uleb128 0x1
 3195 00c7 0000 0000 		.long	0x0
 3196 00cb 0000 0000 		.long	0x0
 3197               	.LLST19:
 3198 00cf 4801 0000 		.long	.LVL18-.Ltext0
 3199 00d3 5001 0000 		.long	.LVL19-.Ltext0
 3200 00d7 0100      		.word	0x1
 3201 00d9 68        		.byte	0x68
 3202 00da 0000 0000 		.long	0x0
 3203 00de 0000 0000 		.long	0x0
 3204               	.LLST20:
 3205 00e2 2601 0000 		.long	.LVL16-.Ltext0
 3206 00e6 3001 0000 		.long	.LVL17-.Ltext0
 3207 00ea 0600      		.word	0x6
 3208 00ec 6E        		.byte	0x6e
 3209 00ed 93        		.byte	0x93
 3210 00ee 01        		.uleb128 0x1
 3211 00ef 6F        		.byte	0x6f
 3212 00f0 93        		.byte	0x93
 3213 00f1 01        		.uleb128 0x1
 3214 00f2 7A01 0000 		.long	.LVL22-.Ltext0
 3215 00f6 9801 0000 		.long	.LFE29-.Ltext0
 3216 00fa 0600      		.word	0x6
 3217 00fc 6E        		.byte	0x6e
 3218 00fd 93        		.byte	0x93
 3219 00fe 01        		.uleb128 0x1
 3220 00ff 6F        		.byte	0x6f
 3221 0100 93        		.byte	0x93
 3222 0101 01        		.uleb128 0x1
 3223 0102 0000 0000 		.long	0x0
 3224 0106 0000 0000 		.long	0x0
 3225               	.LLST21:
 3226 010a 2601 0000 		.long	.LVL16-.Ltext0
 3227 010e 4801 0000 		.long	.LVL18-.Ltext0
 3228 0112 0100      		.word	0x1
 3229 0114 68        		.byte	0x68
 3230 0115 8001 0000 		.long	.LVL23-.Ltext0
 3231 0119 9801 0000 		.long	.LFE29-.Ltext0
 3232 011d 0100      		.word	0x1
 3233 011f 68        		.byte	0x68
 3234 0120 0000 0000 		.long	0x0
 3235 0124 0000 0000 		.long	0x0
 3236               	.LLST28:
 3237 0128 9402 0000 		.long	.LVL26-.Ltext0
 3238 012c C202 0000 		.long	.LVL28-.Ltext0
 3239 0130 0600      		.word	0x6
 3240 0132 68        		.byte	0x68
 3241 0133 93        		.byte	0x93
 3242 0134 01        		.uleb128 0x1
 3243 0135 69        		.byte	0x69
 3244 0136 93        		.byte	0x93
 3245 0137 01        		.uleb128 0x1
 3246 0138 C202 0000 		.long	.LVL28-.Ltext0
 3247 013c 2E03 0000 		.long	.LVL30-.Ltext0
 3248 0140 0600      		.word	0x6
GAS LISTING C:\Users\ADMINI~1\AppData\Local\Temp/ccypPrtA.s 			page 60


 3249 0142 60        		.byte	0x60
 3250 0143 93        		.byte	0x93
 3251 0144 01        		.uleb128 0x1
 3252 0145 61        		.byte	0x61
 3253 0146 93        		.byte	0x93
 3254 0147 01        		.uleb128 0x1
 3255 0148 0000 0000 		.long	0x0
 3256 014c 0000 0000 		.long	0x0
 3257               	.LLST29:
 3258 0150 B002 0000 		.long	.LVL27-.Ltext0
 3259 0154 3003 0000 		.long	.LVL31-.Ltext0
 3260 0158 0100      		.word	0x1
 3261 015a 5F        		.byte	0x5f
 3262 015b 0000 0000 		.long	0x0
 3263 015f 0000 0000 		.long	0x0
 3264               	.LLST36:
 3265 0163 2805 0000 		.long	.LVL34-.Ltext0
 3266 0167 3805 0000 		.long	.LVL35-.Ltext0
 3267 016b 0100      		.word	0x1
 3268 016d 68        		.byte	0x68
 3269 016e 3805 0000 		.long	.LVL35-.Ltext0
 3270 0172 5005 0000 		.long	.LVL37-.Ltext0
 3271 0176 0100      		.word	0x1
 3272 0178 69        		.byte	0x69
 3273 0179 6605 0000 		.long	.LVL40-.Ltext0
 3274 017d 7005 0000 		.long	.LFE41-.Ltext0
 3275 0181 0100      		.word	0x1
 3276 0183 68        		.byte	0x68
 3277 0184 0000 0000 		.long	0x0
 3278 0188 0000 0000 		.long	0x0
 3279               	.LLST37:
 3280 018c 4A05 0000 		.long	.LVL36-.Ltext0
 3281 0190 5005 0000 		.long	.LVL37-.Ltext0
 3282 0194 0100      		.word	0x1
 3283 0196 69        		.byte	0x69
 3284 0197 5205 0000 		.long	.LVL38-.Ltext0
 3285 019b 5E05 0000 		.long	.LVL39-.Ltext0
 3286 019f 0100      		.word	0x1
 3287 01a1 69        		.byte	0x69
 3288 01a2 5E05 0000 		.long	.LVL39-.Ltext0
 3289 01a6 7005 0000 		.long	.LFE41-.Ltext0
 3290 01aa 0100      		.word	0x1
 3291 01ac 69        		.byte	0x69
 3292 01ad 0000 0000 		.long	0x0
 3293 01b1 0000 0000 		.long	0x0
 3294               	.LLST40:
 3295 01b5 F805 0000 		.long	.LVL41-.Ltext0
 3296 01b9 1E06 0000 		.long	.LVL42-.Ltext0
 3297 01bd 0100      		.word	0x1
 3298 01bf 68        		.byte	0x68
 3299 01c0 2006 0000 		.long	.LVL43-.Ltext0
 3300 01c4 440B 0000 		.long	.LVL72-.Ltext0
 3301 01c8 0100      		.word	0x1
 3302 01ca 5D        		.byte	0x5d
 3303 01cb 0000 0000 		.long	0x0
 3304 01cf 0000 0000 		.long	0x0
 3305               	.LLST41:
GAS LISTING C:\Users\ADMINI~1\AppData\Local\Temp/ccypPrtA.s 			page 61


 3306 01d3 F805 0000 		.long	.LVL41-.Ltext0
 3307 01d7 1E06 0000 		.long	.LVL42-.Ltext0
 3308 01db 0100      		.word	0x1
 3309 01dd 66        		.byte	0x66
 3310 01de 1E06 0000 		.long	.LVL42-.Ltext0
 3311 01e2 480B 0000 		.long	.LVL74-.Ltext0
 3312 01e6 0100      		.word	0x1
 3313 01e8 5B        		.byte	0x5b
 3314 01e9 0000 0000 		.long	0x0
 3315 01ed 0000 0000 		.long	0x0
 3316               	.LLST42:
 3317 01f1 F805 0000 		.long	.LVL41-.Ltext0
 3318 01f5 1E06 0000 		.long	.LVL42-.Ltext0
 3319 01f9 0100      		.word	0x1
 3320 01fb 64        		.byte	0x64
 3321 01fc 1E06 0000 		.long	.LVL42-.Ltext0
 3322 0200 4A0B 0000 		.long	.LVL75-.Ltext0
 3323 0204 0100      		.word	0x1
 3324 0206 5A        		.byte	0x5a
 3325 0207 0000 0000 		.long	0x0
 3326 020b 0000 0000 		.long	0x0
 3327               	.LLST43:
 3328 020f F805 0000 		.long	.LVL41-.Ltext0
 3329 0213 1E06 0000 		.long	.LVL42-.Ltext0
 3330 0217 0100      		.word	0x1
 3331 0219 62        		.byte	0x62
 3332 021a 1E06 0000 		.long	.LVL42-.Ltext0
 3333 021e 460B 0000 		.long	.LVL73-.Ltext0
 3334 0222 0100      		.word	0x1
 3335 0224 5C        		.byte	0x5c
 3336 0225 0000 0000 		.long	0x0
 3337 0229 0000 0000 		.long	0x0
 3338               	.LLST44:
 3339 022d 9C07 0000 		.long	.LVL47-.Ltext0
 3340 0231 8008 0000 		.long	.LVL48-.Ltext0
 3341 0235 0100      		.word	0x1
 3342 0237 60        		.byte	0x60
 3343 0238 D409 0000 		.long	.LVL57-.Ltext0
 3344 023c D809 0000 		.long	.LVL58-.Ltext0
 3345 0240 0100      		.word	0x1
 3346 0242 60        		.byte	0x60
 3347 0243 7E0A 0000 		.long	.LVL59-.Ltext0
 3348 0247 880A 0000 		.long	.LVL60-.Ltext0
 3349 024b 0100      		.word	0x1
 3350 024d 60        		.byte	0x60
 3351 024e 2C0B 0000 		.long	.LVL67-.Ltext0
 3352 0252 3E0B 0000 		.long	.LVL70-.Ltext0
 3353 0256 0100      		.word	0x1
 3354 0258 60        		.byte	0x60
 3355 0259 0000 0000 		.long	0x0
 3356 025d 0000 0000 		.long	0x0
 3357               	.LLST45:
 3358 0261 7E09 0000 		.long	.LVL56-.Ltext0
 3359 0265 D809 0000 		.long	.LVL58-.Ltext0
 3360 0269 0100      		.word	0x1
 3361 026b 61        		.byte	0x61
 3362 026c 7E0A 0000 		.long	.LVL59-.Ltext0
GAS LISTING C:\Users\ADMINI~1\AppData\Local\Temp/ccypPrtA.s 			page 62


 3363 0270 880A 0000 		.long	.LVL60-.Ltext0
 3364 0274 0100      		.word	0x1
 3365 0276 61        		.byte	0x61
 3366 0277 2C0B 0000 		.long	.LVL67-.Ltext0
 3367 027b 3C0B 0000 		.long	.LVL69-.Ltext0
 3368 027f 0100      		.word	0x1
 3369 0281 61        		.byte	0x61
 3370 0282 0000 0000 		.long	0x0
 3371 0286 0000 0000 		.long	0x0
 3372               	.LLST46:
 3373 028a 2E09 0000 		.long	.LVL49-.Ltext0
 3374 028e 4009 0000 		.long	.LVL50-.Ltext0
 3375 0292 0600      		.word	0x6
 3376 0294 62        		.byte	0x62
 3377 0295 93        		.byte	0x93
 3378 0296 01        		.uleb128 0x1
 3379 0297 63        		.byte	0x63
 3380 0298 93        		.byte	0x93
 3381 0299 01        		.uleb128 0x1
 3382 029a 5209 0000 		.long	.LVL51-.Ltext0
 3383 029e 5609 0000 		.long	.LVL52-.Ltext0
 3384 02a2 0600      		.word	0x6
 3385 02a4 62        		.byte	0x62
 3386 02a5 93        		.byte	0x93
 3387 02a6 01        		.uleb128 0x1
 3388 02a7 63        		.byte	0x63
 3389 02a8 93        		.byte	0x93
 3390 02a9 01        		.uleb128 0x1
 3391 02aa 9E0A 0000 		.long	.LVL61-.Ltext0
 3392 02ae F80A 0000 		.long	.LVL62-.Ltext0
 3393 02b2 0600      		.word	0x6
 3394 02b4 64        		.byte	0x64
 3395 02b5 93        		.byte	0x93
 3396 02b6 01        		.uleb128 0x1
 3397 02b7 65        		.byte	0x65
 3398 02b8 93        		.byte	0x93
 3399 02b9 01        		.uleb128 0x1
 3400 02ba 000B 0000 		.long	.LVL63-.Ltext0
 3401 02be 160B 0000 		.long	.LVL64-.Ltext0
 3402 02c2 0600      		.word	0x6
 3403 02c4 64        		.byte	0x64
 3404 02c5 93        		.byte	0x93
 3405 02c6 01        		.uleb128 0x1
 3406 02c7 65        		.byte	0x65
 3407 02c8 93        		.byte	0x93
 3408 02c9 01        		.uleb128 0x1
 3409 02ca 0000 0000 		.long	0x0
 3410 02ce 0000 0000 		.long	0x0
 3411               	.LLST47:
 3412 02d2 4E06 0000 		.long	.LVL44-.Ltext0
 3413 02d6 420B 0000 		.long	.LVL71-.Ltext0
 3414 02da 0600      		.word	0x6
 3415 02dc 5E        		.byte	0x5e
 3416 02dd 93        		.byte	0x93
 3417 02de 01        		.uleb128 0x1
 3418 02df 5F        		.byte	0x5f
 3419 02e0 93        		.byte	0x93
GAS LISTING C:\Users\ADMINI~1\AppData\Local\Temp/ccypPrtA.s 			page 63


 3420 02e1 01        		.uleb128 0x1
 3421 02e2 0000 0000 		.long	0x0
 3422 02e6 0000 0000 		.long	0x0
 3423               	.LLST48:
 3424 02ea C406 0000 		.long	.LVL45-.Ltext0
 3425 02ee D406 0000 		.long	.LVL46-.Ltext0
 3426 02f2 0600      		.word	0x6
 3427 02f4 66        		.byte	0x66
 3428 02f5 93        		.byte	0x93
 3429 02f6 01        		.uleb128 0x1
 3430 02f7 67        		.byte	0x67
 3431 02f8 93        		.byte	0x93
 3432 02f9 01        		.uleb128 0x1
 3433 02fa 300B 0000 		.long	.LVL68-.Ltext0
 3434 02fe 4C0B 0000 		.long	.LFE48-.Ltext0
 3435 0302 0600      		.word	0x6
 3436 0304 66        		.byte	0x66
 3437 0305 93        		.byte	0x93
 3438 0306 01        		.uleb128 0x1
 3439 0307 67        		.byte	0x67
 3440 0308 93        		.byte	0x93
 3441 0309 01        		.uleb128 0x1
 3442 030a 0000 0000 		.long	0x0
 3443 030e 0000 0000 		.long	0x0
 3444               	.LLST49:
 3445 0312 6009 0000 		.long	.LVL53-.Ltext0
 3446 0316 7009 0000 		.long	.LVL55-.Ltext0
 3447 031a 0600      		.word	0x6
 3448 031c 68        		.byte	0x68
 3449 031d 93        		.byte	0x93
 3450 031e 01        		.uleb128 0x1
 3451 031f 69        		.byte	0x69
 3452 0320 93        		.byte	0x93
 3453 0321 01        		.uleb128 0x1
 3454 0322 300B 0000 		.long	.LVL68-.Ltext0
 3455 0326 4C0B 0000 		.long	.LFE48-.Ltext0
 3456 032a 0600      		.word	0x6
 3457 032c 68        		.byte	0x68
 3458 032d 93        		.byte	0x93
 3459 032e 01        		.uleb128 0x1
 3460 032f 69        		.byte	0x69
 3461 0330 93        		.byte	0x93
 3462 0331 01        		.uleb128 0x1
 3463 0332 0000 0000 		.long	0x0
 3464 0336 0000 0000 		.long	0x0
 3465               	.LLST50:
 3466 033a 6609 0000 		.long	.LVL54-.Ltext0
 3467 033e 7009 0000 		.long	.LVL55-.Ltext0
 3468 0342 0600      		.word	0x6
 3469 0344 6E        		.byte	0x6e
 3470 0345 93        		.byte	0x93
 3471 0346 01        		.uleb128 0x1
 3472 0347 6F        		.byte	0x6f
 3473 0348 93        		.byte	0x93
 3474 0349 01        		.uleb128 0x1
 3475 034a 300B 0000 		.long	.LVL68-.Ltext0
 3476 034e 4C0B 0000 		.long	.LFE48-.Ltext0
GAS LISTING C:\Users\ADMINI~1\AppData\Local\Temp/ccypPrtA.s 			page 64


 3477 0352 0600      		.word	0x6
 3478 0354 6E        		.byte	0x6e
 3479 0355 93        		.byte	0x93
 3480 0356 01        		.uleb128 0x1
 3481 0357 6F        		.byte	0x6f
 3482 0358 93        		.byte	0x93
 3483 0359 01        		.uleb128 0x1
 3484 035a 0000 0000 		.long	0x0
 3485 035e 0000 0000 		.long	0x0
 3486               	.LLST51:
 3487 0362 1C0B 0000 		.long	.LVL65-.Ltext0
 3488 0366 2C0B 0000 		.long	.LVL67-.Ltext0
 3489 036a 0600      		.word	0x6
 3490 036c 68        		.byte	0x68
 3491 036d 93        		.byte	0x93
 3492 036e 01        		.uleb128 0x1
 3493 036f 69        		.byte	0x69
 3494 0370 93        		.byte	0x93
 3495 0371 01        		.uleb128 0x1
 3496 0372 300B 0000 		.long	.LVL68-.Ltext0
 3497 0376 4C0B 0000 		.long	.LFE48-.Ltext0
 3498 037a 0600      		.word	0x6
 3499 037c 68        		.byte	0x68
 3500 037d 93        		.byte	0x93
 3501 037e 01        		.uleb128 0x1
 3502 037f 69        		.byte	0x69
 3503 0380 93        		.byte	0x93
 3504 0381 01        		.uleb128 0x1
 3505 0382 0000 0000 		.long	0x0
 3506 0386 0000 0000 		.long	0x0
 3507               	.LLST52:
 3508 038a 220B 0000 		.long	.LVL66-.Ltext0
 3509 038e 2C0B 0000 		.long	.LVL67-.Ltext0
 3510 0392 0600      		.word	0x6
 3511 0394 6E        		.byte	0x6e
 3512 0395 93        		.byte	0x93
 3513 0396 01        		.uleb128 0x1
 3514 0397 6F        		.byte	0x6f
 3515 0398 93        		.byte	0x93
 3516 0399 01        		.uleb128 0x1
 3517 039a 300B 0000 		.long	.LVL68-.Ltext0
 3518 039e 4C0B 0000 		.long	.LFE48-.Ltext0
 3519 03a2 0600      		.word	0x6
 3520 03a4 6E        		.byte	0x6e
 3521 03a5 93        		.byte	0x93
 3522 03a6 01        		.uleb128 0x1
 3523 03a7 6F        		.byte	0x6f
 3524 03a8 93        		.byte	0x93
 3525 03a9 01        		.uleb128 0x1
 3526 03aa 0000 0000 		.long	0x0
 3527 03ae 0000 0000 		.long	0x0
 3528               	.LLST56:
 3529 03b2 3E0C 0000 		.long	.LVL76-.Ltext0
 3530 03b6 4E0C 0000 		.long	.LVL77-.Ltext0
 3531 03ba 0100      		.word	0x1
 3532 03bc 68        		.byte	0x68
 3533 03bd 4E0C 0000 		.long	.LVL77-.Ltext0
GAS LISTING C:\Users\ADMINI~1\AppData\Local\Temp/ccypPrtA.s 			page 65


 3534 03c1 8E0C 0000 		.long	.LVL86-.Ltext0
 3535 03c5 0100      		.word	0x1
 3536 03c7 61        		.byte	0x61
 3537 03c8 0000 0000 		.long	0x0
 3538 03cc 0000 0000 		.long	0x0
 3539               	.LLST57:
 3540 03d0 3E0C 0000 		.long	.LVL76-.Ltext0
 3541 03d4 520C 0000 		.long	.LVL78-.Ltext0
 3542 03d8 0100      		.word	0x1
 3543 03da 66        		.byte	0x66
 3544 03db 520C 0000 		.long	.LVL78-.Ltext0
 3545 03df 600C 0000 		.long	.LVL79-.Ltext0
 3546 03e3 0100      		.word	0x1
 3547 03e5 60        		.byte	0x60
 3548 03e6 600C 0000 		.long	.LVL79-.Ltext0
 3549 03ea 760C 0000 		.long	.LVL81-.Ltext0
 3550 03ee 0600      		.word	0x6
 3551 03f0 62        		.byte	0x62
 3552 03f1 93        		.byte	0x93
 3553 03f2 01        		.uleb128 0x1
 3554 03f3 63        		.byte	0x63
 3555 03f4 93        		.byte	0x93
 3556 03f5 01        		.uleb128 0x1
 3557 03f6 7E0C 0000 		.long	.LVL83-.Ltext0
 3558 03fa 900C 0000 		.long	.LVL87-.Ltext0
 3559 03fe 0100      		.word	0x1
 3560 0400 60        		.byte	0x60
 3561 0401 0000 0000 		.long	0x0
 3562 0405 0000 0000 		.long	0x0
 3563               	.LLST58:
 3564 0409 3E0C 0000 		.long	.LVL76-.Ltext0
 3565 040d 520C 0000 		.long	.LVL78-.Ltext0
 3566 0411 0100      		.word	0x1
 3567 0413 64        		.byte	0x64
 3568 0414 520C 0000 		.long	.LVL78-.Ltext0
 3569 0418 920C 0000 		.long	.LVL88-.Ltext0
 3570 041c 0100      		.word	0x1
 3571 041e 5F        		.byte	0x5f
 3572 041f 0000 0000 		.long	0x0
 3573 0423 0000 0000 		.long	0x0
 3574               	.LLST59:
 3575 0427 780C 0000 		.long	.LVL82-.Ltext0
 3576 042b 880C 0000 		.long	.LVL84-.Ltext0
 3577 042f 0100      		.word	0x1
 3578 0431 69        		.byte	0x69
 3579 0432 8A0C 0000 		.long	.LVL85-.Ltext0
 3580 0436 940C 0000 		.long	.LFE25-.Ltext0
 3581 043a 0100      		.word	0x1
 3582 043c 69        		.byte	0x69
 3583 043d 0000 0000 		.long	0x0
 3584 0441 0000 0000 		.long	0x0
 3585               	.LLST61:
 3586 0445 940C 0000 		.long	.LVL89-.Ltext0
 3587 0449 9C0C 0000 		.long	.LVL90-.Ltext0
 3588 044d 0100      		.word	0x1
 3589 044f 68        		.byte	0x68
 3590 0450 9C0C 0000 		.long	.LVL90-.Ltext0
GAS LISTING C:\Users\ADMINI~1\AppData\Local\Temp/ccypPrtA.s 			page 66


 3591 0454 AC0C 0000 		.long	.LVL91-.Ltext0
 3592 0458 0100      		.word	0x1
 3593 045a 69        		.byte	0x69
 3594 045b BE0C 0000 		.long	.LVL92-.Ltext0
 3595 045f C40C 0000 		.long	.LFE40-.Ltext0
 3596 0463 0100      		.word	0x1
 3597 0465 69        		.byte	0x69
 3598 0466 0000 0000 		.long	0x0
 3599 046a 0000 0000 		.long	0x0
 3600               		.section	.debug_info
 3601 0000 D916 0000 		.long	0x16d9
 3602 0004 0200      		.word	0x2
 3603 0006 0000 0000 		.long	.Ldebug_abbrev0
 3604 000a 04        		.byte	0x4
 3605 000b 01        		.uleb128 0x1
 3606 000c 0000 0000 		.long	.LASF353
 3607 0010 01        		.byte	0x1
 3608 0011 0000 0000 		.long	.LASF354
 3609 0015 0000 0000 		.long	.LASF355
 3610 0019 0000 0000 		.long	.Ltext0
 3611 001d 0000 0000 		.long	.Letext0
 3612 0021 0000 0000 		.long	.Ldebug_line0
 3613 0025 02        		.uleb128 0x2
 3614 0026 01        		.byte	0x1
 3615 0027 08        		.byte	0x8
 3616 0028 0000 0000 		.long	.LASF0
 3617 002c 02        		.uleb128 0x2
 3618 002d 01        		.byte	0x1
 3619 002e 06        		.byte	0x6
 3620 002f 0000 0000 		.long	.LASF1
 3621 0033 02        		.uleb128 0x2
 3622 0034 02        		.byte	0x2
 3623 0035 07        		.byte	0x7
 3624 0036 0000 0000 		.long	.LASF2
 3625 003a 02        		.uleb128 0x2
 3626 003b 02        		.byte	0x2
 3627 003c 05        		.byte	0x5
 3628 003d 0000 0000 		.long	.LASF3
 3629 0041 02        		.uleb128 0x2
 3630 0042 04        		.byte	0x4
 3631 0043 07        		.byte	0x7
 3632 0044 0000 0000 		.long	.LASF4
 3633 0048 02        		.uleb128 0x2
 3634 0049 04        		.byte	0x4
 3635 004a 05        		.byte	0x5
 3636 004b 0000 0000 		.long	.LASF5
 3637 004f 02        		.uleb128 0x2
 3638 0050 08        		.byte	0x8
 3639 0051 07        		.byte	0x7
 3640 0052 0000 0000 		.long	.LASF6
 3641 0056 02        		.uleb128 0x2
 3642 0057 08        		.byte	0x8
 3643 0058 05        		.byte	0x5
 3644 0059 0000 0000 		.long	.LASF7
 3645 005d 02        		.uleb128 0x2
 3646 005e 02        		.byte	0x2
 3647 005f 07        		.byte	0x7
GAS LISTING C:\Users\ADMINI~1\AppData\Local\Temp/ccypPrtA.s 			page 67


 3648 0060 0000 0000 		.long	.LASF8
 3649 0064 02        		.uleb128 0x2
 3650 0065 01        		.byte	0x1
 3651 0066 06        		.byte	0x6
 3652 0067 0000 0000 		.long	.LASF9
 3653 006b 03        		.uleb128 0x3
 3654 006c 02        		.byte	0x2
 3655 006d 05        		.byte	0x5
 3656 006e 696E 7400 		.string	"int"
 3657 0072 04        		.uleb128 0x4
 3658 0073 0000 0000 		.long	.LASF10
 3659 0077 04        		.byte	0x4
 3660 0078 7A        		.byte	0x7a
 3661 0079 2500 0000 		.long	0x25
 3662 007d 04        		.uleb128 0x4
 3663 007e 0000 0000 		.long	.LASF11
 3664 0082 04        		.byte	0x4
 3665 0083 7C        		.byte	0x7c
 3666 0084 5D00 0000 		.long	0x5d
 3667 0088 05        		.uleb128 0x5
 3668 0089 01        		.byte	0x1
 3669 008a 06        		.byte	0x6
 3670 008b 05        		.uleb128 0x5
 3671 008c 01        		.byte	0x1
 3672 008d 08        		.byte	0x8
 3673 008e 06        		.uleb128 0x6
 3674 008f 02        		.byte	0x2
 3675 0090 6400 0000 		.long	0x64
 3676 0094 07        		.uleb128 0x7
 3677 0095 02        		.byte	0x2
 3678 0096 05        		.byte	0x5
 3679 0097 1B        		.byte	0x1b
 3680 0098 1B01 0000 		.long	0x11b
 3681 009c 08        		.uleb128 0x8
 3682 009d 0000 0000 		.long	.LASF12
 3683 00a1 D501      		.sleb128 213
 3684 00a3 08        		.uleb128 0x8
 3685 00a4 0000 0000 		.long	.LASF13
 3686 00a8 D601      		.sleb128 214
 3687 00aa 08        		.uleb128 0x8
 3688 00ab 0000 0000 		.long	.LASF14
 3689 00af D701      		.sleb128 215
 3690 00b1 08        		.uleb128 0x8
 3691 00b2 0000 0000 		.long	.LASF15
 3692 00b6 D801      		.sleb128 216
 3693 00b8 08        		.uleb128 0x8
 3694 00b9 0000 0000 		.long	.LASF16
 3695 00bd D901      		.sleb128 217
 3696 00bf 08        		.uleb128 0x8
 3697 00c0 0000 0000 		.long	.LASF17
 3698 00c4 DA01      		.sleb128 218
 3699 00c6 08        		.uleb128 0x8
 3700 00c7 0000 0000 		.long	.LASF18
 3701 00cb DB01      		.sleb128 219
 3702 00cd 08        		.uleb128 0x8
 3703 00ce 0000 0000 		.long	.LASF19
 3704 00d2 DC01      		.sleb128 220
GAS LISTING C:\Users\ADMINI~1\AppData\Local\Temp/ccypPrtA.s 			page 68


 3705 00d4 08        		.uleb128 0x8
 3706 00d5 0000 0000 		.long	.LASF20
 3707 00d9 DD01      		.sleb128 221
 3708 00db 08        		.uleb128 0x8
 3709 00dc 0000 0000 		.long	.LASF21
 3710 00e0 DE01      		.sleb128 222
 3711 00e2 08        		.uleb128 0x8
 3712 00e3 0000 0000 		.long	.LASF22
 3713 00e7 DF01      		.sleb128 223
 3714 00e9 08        		.uleb128 0x8
 3715 00ea 0000 0000 		.long	.LASF23
 3716 00ee E001      		.sleb128 224
 3717 00f0 08        		.uleb128 0x8
 3718 00f1 0000 0000 		.long	.LASF24
 3719 00f5 E101      		.sleb128 225
 3720 00f7 08        		.uleb128 0x8
 3721 00f8 0000 0000 		.long	.LASF25
 3722 00fc E201      		.sleb128 226
 3723 00fe 08        		.uleb128 0x8
 3724 00ff 0000 0000 		.long	.LASF26
 3725 0103 E301      		.sleb128 227
 3726 0105 08        		.uleb128 0x8
 3727 0106 0000 0000 		.long	.LASF27
 3728 010a E401      		.sleb128 228
 3729 010c 08        		.uleb128 0x8
 3730 010d 0000 0000 		.long	.LASF28
 3731 0111 E501      		.sleb128 229
 3732 0113 08        		.uleb128 0x8
 3733 0114 0000 0000 		.long	.LASF29
 3734 0118 E601      		.sleb128 230
 3735 011a 00        		.byte	0x0
 3736 011b 07        		.uleb128 0x7
 3737 011c 02        		.byte	0x2
 3738 011d 05        		.byte	0x5
 3739 011e 32        		.byte	0x32
 3740 011f 7801 0000 		.long	0x178
 3741 0123 08        		.uleb128 0x8
 3742 0124 0000 0000 		.long	.LASF30
 3743 0128 C901      		.sleb128 201
 3744 012a 08        		.uleb128 0x8
 3745 012b 0000 0000 		.long	.LASF31
 3746 012f CA01      		.sleb128 202
 3747 0131 08        		.uleb128 0x8
 3748 0132 0000 0000 		.long	.LASF32
 3749 0136 CB01      		.sleb128 203
 3750 0138 08        		.uleb128 0x8
 3751 0139 0000 0000 		.long	.LASF33
 3752 013d CC01      		.sleb128 204
 3753 013f 08        		.uleb128 0x8
 3754 0140 0000 0000 		.long	.LASF34
 3755 0144 CD01      		.sleb128 205
 3756 0146 08        		.uleb128 0x8
 3757 0147 0000 0000 		.long	.LASF35
 3758 014b CE01      		.sleb128 206
 3759 014d 08        		.uleb128 0x8
 3760 014e 0000 0000 		.long	.LASF36
 3761 0152 CF01      		.sleb128 207
GAS LISTING C:\Users\ADMINI~1\AppData\Local\Temp/ccypPrtA.s 			page 69


 3762 0154 08        		.uleb128 0x8
 3763 0155 0000 0000 		.long	.LASF37
 3764 0159 D001      		.sleb128 208
 3765 015b 08        		.uleb128 0x8
 3766 015c 0000 0000 		.long	.LASF38
 3767 0160 D101      		.sleb128 209
 3768 0162 08        		.uleb128 0x8
 3769 0163 0000 0000 		.long	.LASF39
 3770 0167 D201      		.sleb128 210
 3771 0169 08        		.uleb128 0x8
 3772 016a 0000 0000 		.long	.LASF40
 3773 016e D301      		.sleb128 211
 3774 0170 08        		.uleb128 0x8
 3775 0171 0000 0000 		.long	.LASF41
 3776 0175 D401      		.sleb128 212
 3777 0177 00        		.byte	0x0
 3778 0178 07        		.uleb128 0x7
 3779 0179 02        		.byte	0x2
 3780 017a 05        		.byte	0x5
 3781 017b 41        		.byte	0x41
 3782 017c 1106 0000 		.long	0x611
 3783 0180 08        		.uleb128 0x8
 3784 0181 0000 0000 		.long	.LASF42
 3785 0185 00        		.sleb128 0
 3786 0186 08        		.uleb128 0x8
 3787 0187 0000 0000 		.long	.LASF43
 3788 018b 01        		.sleb128 1
 3789 018c 08        		.uleb128 0x8
 3790 018d 0000 0000 		.long	.LASF44
 3791 0191 02        		.sleb128 2
 3792 0192 08        		.uleb128 0x8
 3793 0193 0000 0000 		.long	.LASF45
 3794 0197 03        		.sleb128 3
 3795 0198 08        		.uleb128 0x8
 3796 0199 0000 0000 		.long	.LASF46
 3797 019d 04        		.sleb128 4
 3798 019e 08        		.uleb128 0x8
 3799 019f 0000 0000 		.long	.LASF47
 3800 01a3 05        		.sleb128 5
 3801 01a4 08        		.uleb128 0x8
 3802 01a5 0000 0000 		.long	.LASF48
 3803 01a9 06        		.sleb128 6
 3804 01aa 08        		.uleb128 0x8
 3805 01ab 0000 0000 		.long	.LASF49
 3806 01af 07        		.sleb128 7
 3807 01b0 08        		.uleb128 0x8
 3808 01b1 0000 0000 		.long	.LASF50
 3809 01b5 08        		.sleb128 8
 3810 01b6 08        		.uleb128 0x8
 3811 01b7 0000 0000 		.long	.LASF51
 3812 01bb 09        		.sleb128 9
 3813 01bc 08        		.uleb128 0x8
 3814 01bd 0000 0000 		.long	.LASF52
 3815 01c1 0A        		.sleb128 10
 3816 01c2 08        		.uleb128 0x8
 3817 01c3 0000 0000 		.long	.LASF53
 3818 01c7 0B        		.sleb128 11
GAS LISTING C:\Users\ADMINI~1\AppData\Local\Temp/ccypPrtA.s 			page 70


 3819 01c8 08        		.uleb128 0x8
 3820 01c9 0000 0000 		.long	.LASF54
 3821 01cd 0C        		.sleb128 12
 3822 01ce 08        		.uleb128 0x8
 3823 01cf 0000 0000 		.long	.LASF55
 3824 01d3 0D        		.sleb128 13
 3825 01d4 08        		.uleb128 0x8
 3826 01d5 0000 0000 		.long	.LASF56
 3827 01d9 0E        		.sleb128 14
 3828 01da 08        		.uleb128 0x8
 3829 01db 0000 0000 		.long	.LASF57
 3830 01df 0F        		.sleb128 15
 3831 01e0 08        		.uleb128 0x8
 3832 01e1 0000 0000 		.long	.LASF58
 3833 01e5 10        		.sleb128 16
 3834 01e6 08        		.uleb128 0x8
 3835 01e7 0000 0000 		.long	.LASF59
 3836 01eb 11        		.sleb128 17
 3837 01ec 08        		.uleb128 0x8
 3838 01ed 0000 0000 		.long	.LASF60
 3839 01f1 12        		.sleb128 18
 3840 01f2 08        		.uleb128 0x8
 3841 01f3 0000 0000 		.long	.LASF61
 3842 01f7 13        		.sleb128 19
 3843 01f8 08        		.uleb128 0x8
 3844 01f9 0000 0000 		.long	.LASF62
 3845 01fd 14        		.sleb128 20
 3846 01fe 08        		.uleb128 0x8
 3847 01ff 0000 0000 		.long	.LASF63
 3848 0203 15        		.sleb128 21
 3849 0204 08        		.uleb128 0x8
 3850 0205 0000 0000 		.long	.LASF64
 3851 0209 16        		.sleb128 22
 3852 020a 08        		.uleb128 0x8
 3853 020b 0000 0000 		.long	.LASF65
 3854 020f 17        		.sleb128 23
 3855 0210 08        		.uleb128 0x8
 3856 0211 0000 0000 		.long	.LASF66
 3857 0215 18        		.sleb128 24
 3858 0216 08        		.uleb128 0x8
 3859 0217 0000 0000 		.long	.LASF67
 3860 021b 19        		.sleb128 25
 3861 021c 08        		.uleb128 0x8
 3862 021d 0000 0000 		.long	.LASF68
 3863 0221 1A        		.sleb128 26
 3864 0222 08        		.uleb128 0x8
 3865 0223 0000 0000 		.long	.LASF69
 3866 0227 1B        		.sleb128 27
 3867 0228 08        		.uleb128 0x8
 3868 0229 0000 0000 		.long	.LASF70
 3869 022d 1C        		.sleb128 28
 3870 022e 08        		.uleb128 0x8
 3871 022f 0000 0000 		.long	.LASF71
 3872 0233 1D        		.sleb128 29
 3873 0234 08        		.uleb128 0x8
 3874 0235 0000 0000 		.long	.LASF72
 3875 0239 1E        		.sleb128 30
GAS LISTING C:\Users\ADMINI~1\AppData\Local\Temp/ccypPrtA.s 			page 71


 3876 023a 08        		.uleb128 0x8
 3877 023b 0000 0000 		.long	.LASF73
 3878 023f 1F        		.sleb128 31
 3879 0240 08        		.uleb128 0x8
 3880 0241 0000 0000 		.long	.LASF74
 3881 0245 20        		.sleb128 32
 3882 0246 08        		.uleb128 0x8
 3883 0247 0000 0000 		.long	.LASF75
 3884 024b 21        		.sleb128 33
 3885 024c 08        		.uleb128 0x8
 3886 024d 0000 0000 		.long	.LASF76
 3887 0251 22        		.sleb128 34
 3888 0252 08        		.uleb128 0x8
 3889 0253 0000 0000 		.long	.LASF77
 3890 0257 23        		.sleb128 35
 3891 0258 08        		.uleb128 0x8
 3892 0259 0000 0000 		.long	.LASF78
 3893 025d 24        		.sleb128 36
 3894 025e 08        		.uleb128 0x8
 3895 025f 0000 0000 		.long	.LASF79
 3896 0263 25        		.sleb128 37
 3897 0264 08        		.uleb128 0x8
 3898 0265 0000 0000 		.long	.LASF80
 3899 0269 26        		.sleb128 38
 3900 026a 08        		.uleb128 0x8
 3901 026b 0000 0000 		.long	.LASF81
 3902 026f 27        		.sleb128 39
 3903 0270 08        		.uleb128 0x8
 3904 0271 0000 0000 		.long	.LASF82
 3905 0275 28        		.sleb128 40
 3906 0276 08        		.uleb128 0x8
 3907 0277 0000 0000 		.long	.LASF83
 3908 027b 29        		.sleb128 41
 3909 027c 08        		.uleb128 0x8
 3910 027d 0000 0000 		.long	.LASF84
 3911 0281 2A        		.sleb128 42
 3912 0282 08        		.uleb128 0x8
 3913 0283 0000 0000 		.long	.LASF85
 3914 0287 2B        		.sleb128 43
 3915 0288 08        		.uleb128 0x8
 3916 0289 0000 0000 		.long	.LASF86
 3917 028d 2C        		.sleb128 44
 3918 028e 08        		.uleb128 0x8
 3919 028f 0000 0000 		.long	.LASF87
 3920 0293 2D        		.sleb128 45
 3921 0294 08        		.uleb128 0x8
 3922 0295 0000 0000 		.long	.LASF88
 3923 0299 2E        		.sleb128 46
 3924 029a 08        		.uleb128 0x8
 3925 029b 0000 0000 		.long	.LASF89
 3926 029f 2F        		.sleb128 47
 3927 02a0 08        		.uleb128 0x8
 3928 02a1 0000 0000 		.long	.LASF90
 3929 02a5 30        		.sleb128 48
 3930 02a6 08        		.uleb128 0x8
 3931 02a7 0000 0000 		.long	.LASF91
 3932 02ab 31        		.sleb128 49
GAS LISTING C:\Users\ADMINI~1\AppData\Local\Temp/ccypPrtA.s 			page 72


 3933 02ac 08        		.uleb128 0x8
 3934 02ad 0000 0000 		.long	.LASF92
 3935 02b1 32        		.sleb128 50
 3936 02b2 08        		.uleb128 0x8
 3937 02b3 0000 0000 		.long	.LASF93
 3938 02b7 33        		.sleb128 51
 3939 02b8 08        		.uleb128 0x8
 3940 02b9 0000 0000 		.long	.LASF94
 3941 02bd 34        		.sleb128 52
 3942 02be 08        		.uleb128 0x8
 3943 02bf 0000 0000 		.long	.LASF95
 3944 02c3 35        		.sleb128 53
 3945 02c4 08        		.uleb128 0x8
 3946 02c5 0000 0000 		.long	.LASF96
 3947 02c9 36        		.sleb128 54
 3948 02ca 08        		.uleb128 0x8
 3949 02cb 0000 0000 		.long	.LASF97
 3950 02cf 37        		.sleb128 55
 3951 02d0 08        		.uleb128 0x8
 3952 02d1 0000 0000 		.long	.LASF98
 3953 02d5 38        		.sleb128 56
 3954 02d6 08        		.uleb128 0x8
 3955 02d7 0000 0000 		.long	.LASF99
 3956 02db 39        		.sleb128 57
 3957 02dc 08        		.uleb128 0x8
 3958 02dd 0000 0000 		.long	.LASF100
 3959 02e1 3A        		.sleb128 58
 3960 02e2 08        		.uleb128 0x8
 3961 02e3 0000 0000 		.long	.LASF101
 3962 02e7 3B        		.sleb128 59
 3963 02e8 08        		.uleb128 0x8
 3964 02e9 0000 0000 		.long	.LASF102
 3965 02ed 3C        		.sleb128 60
 3966 02ee 08        		.uleb128 0x8
 3967 02ef 0000 0000 		.long	.LASF103
 3968 02f3 3D        		.sleb128 61
 3969 02f4 08        		.uleb128 0x8
 3970 02f5 0000 0000 		.long	.LASF104
 3971 02f9 3E        		.sleb128 62
 3972 02fa 08        		.uleb128 0x8
 3973 02fb 0000 0000 		.long	.LASF105
 3974 02ff 3F        		.sleb128 63
 3975 0300 08        		.uleb128 0x8
 3976 0301 0000 0000 		.long	.LASF106
 3977 0305 C000      		.sleb128 64
 3978 0307 08        		.uleb128 0x8
 3979 0308 0000 0000 		.long	.LASF107
 3980 030c C100      		.sleb128 65
 3981 030e 08        		.uleb128 0x8
 3982 030f 0000 0000 		.long	.LASF108
 3983 0313 C200      		.sleb128 66
 3984 0315 08        		.uleb128 0x8
 3985 0316 0000 0000 		.long	.LASF109
 3986 031a C300      		.sleb128 67
 3987 031c 08        		.uleb128 0x8
 3988 031d 0000 0000 		.long	.LASF110
 3989 0321 C400      		.sleb128 68
GAS LISTING C:\Users\ADMINI~1\AppData\Local\Temp/ccypPrtA.s 			page 73


 3990 0323 08        		.uleb128 0x8
 3991 0324 0000 0000 		.long	.LASF111
 3992 0328 C500      		.sleb128 69
 3993 032a 08        		.uleb128 0x8
 3994 032b 0000 0000 		.long	.LASF112
 3995 032f C600      		.sleb128 70
 3996 0331 08        		.uleb128 0x8
 3997 0332 0000 0000 		.long	.LASF113
 3998 0336 C700      		.sleb128 71
 3999 0338 08        		.uleb128 0x8
 4000 0339 0000 0000 		.long	.LASF114
 4001 033d C800      		.sleb128 72
 4002 033f 08        		.uleb128 0x8
 4003 0340 0000 0000 		.long	.LASF115
 4004 0344 C900      		.sleb128 73
 4005 0346 08        		.uleb128 0x8
 4006 0347 0000 0000 		.long	.LASF116
 4007 034b CA00      		.sleb128 74
 4008 034d 08        		.uleb128 0x8
 4009 034e 0000 0000 		.long	.LASF117
 4010 0352 CB00      		.sleb128 75
 4011 0354 08        		.uleb128 0x8
 4012 0355 0000 0000 		.long	.LASF118
 4013 0359 CC00      		.sleb128 76
 4014 035b 08        		.uleb128 0x8
 4015 035c 0000 0000 		.long	.LASF119
 4016 0360 CD00      		.sleb128 77
 4017 0362 08        		.uleb128 0x8
 4018 0363 0000 0000 		.long	.LASF120
 4019 0367 CE00      		.sleb128 78
 4020 0369 08        		.uleb128 0x8
 4021 036a 0000 0000 		.long	.LASF121
 4022 036e CF00      		.sleb128 79
 4023 0370 08        		.uleb128 0x8
 4024 0371 0000 0000 		.long	.LASF122
 4025 0375 D000      		.sleb128 80
 4026 0377 08        		.uleb128 0x8
 4027 0378 0000 0000 		.long	.LASF123
 4028 037c D100      		.sleb128 81
 4029 037e 08        		.uleb128 0x8
 4030 037f 0000 0000 		.long	.LASF124
 4031 0383 D200      		.sleb128 82
 4032 0385 08        		.uleb128 0x8
 4033 0386 0000 0000 		.long	.LASF125
 4034 038a D300      		.sleb128 83
 4035 038c 08        		.uleb128 0x8
 4036 038d 0000 0000 		.long	.LASF126
 4037 0391 D400      		.sleb128 84
 4038 0393 08        		.uleb128 0x8
 4039 0394 0000 0000 		.long	.LASF127
 4040 0398 D500      		.sleb128 85
 4041 039a 08        		.uleb128 0x8
 4042 039b 0000 0000 		.long	.LASF128
 4043 039f D600      		.sleb128 86
 4044 03a1 08        		.uleb128 0x8
 4045 03a2 0000 0000 		.long	.LASF129
 4046 03a6 D700      		.sleb128 87
GAS LISTING C:\Users\ADMINI~1\AppData\Local\Temp/ccypPrtA.s 			page 74


 4047 03a8 08        		.uleb128 0x8
 4048 03a9 0000 0000 		.long	.LASF130
 4049 03ad D800      		.sleb128 88
 4050 03af 08        		.uleb128 0x8
 4051 03b0 0000 0000 		.long	.LASF131
 4052 03b4 D900      		.sleb128 89
 4053 03b6 08        		.uleb128 0x8
 4054 03b7 0000 0000 		.long	.LASF132
 4055 03bb DA00      		.sleb128 90
 4056 03bd 08        		.uleb128 0x8
 4057 03be 0000 0000 		.long	.LASF133
 4058 03c2 DB00      		.sleb128 91
 4059 03c4 08        		.uleb128 0x8
 4060 03c5 0000 0000 		.long	.LASF134
 4061 03c9 DC00      		.sleb128 92
 4062 03cb 08        		.uleb128 0x8
 4063 03cc 0000 0000 		.long	.LASF135
 4064 03d0 DD00      		.sleb128 93
 4065 03d2 08        		.uleb128 0x8
 4066 03d3 0000 0000 		.long	.LASF136
 4067 03d7 DE00      		.sleb128 94
 4068 03d9 08        		.uleb128 0x8
 4069 03da 0000 0000 		.long	.LASF137
 4070 03de DF00      		.sleb128 95
 4071 03e0 08        		.uleb128 0x8
 4072 03e1 0000 0000 		.long	.LASF138
 4073 03e5 E000      		.sleb128 96
 4074 03e7 08        		.uleb128 0x8
 4075 03e8 0000 0000 		.long	.LASF139
 4076 03ec E100      		.sleb128 97
 4077 03ee 08        		.uleb128 0x8
 4078 03ef 0000 0000 		.long	.LASF140
 4079 03f3 E200      		.sleb128 98
 4080 03f5 08        		.uleb128 0x8
 4081 03f6 0000 0000 		.long	.LASF141
 4082 03fa E300      		.sleb128 99
 4083 03fc 08        		.uleb128 0x8
 4084 03fd 0000 0000 		.long	.LASF142
 4085 0401 E400      		.sleb128 100
 4086 0403 08        		.uleb128 0x8
 4087 0404 0000 0000 		.long	.LASF143
 4088 0408 E500      		.sleb128 101
 4089 040a 08        		.uleb128 0x8
 4090 040b 0000 0000 		.long	.LASF144
 4091 040f E600      		.sleb128 102
 4092 0411 08        		.uleb128 0x8
 4093 0412 0000 0000 		.long	.LASF145
 4094 0416 E700      		.sleb128 103
 4095 0418 08        		.uleb128 0x8
 4096 0419 0000 0000 		.long	.LASF146
 4097 041d E800      		.sleb128 104
 4098 041f 08        		.uleb128 0x8
 4099 0420 0000 0000 		.long	.LASF147
 4100 0424 E900      		.sleb128 105
 4101 0426 08        		.uleb128 0x8
 4102 0427 0000 0000 		.long	.LASF148
 4103 042b EA00      		.sleb128 106
GAS LISTING C:\Users\ADMINI~1\AppData\Local\Temp/ccypPrtA.s 			page 75


 4104 042d 08        		.uleb128 0x8
 4105 042e 0000 0000 		.long	.LASF149
 4106 0432 EB00      		.sleb128 107
 4107 0434 08        		.uleb128 0x8
 4108 0435 0000 0000 		.long	.LASF150
 4109 0439 EC00      		.sleb128 108
 4110 043b 08        		.uleb128 0x8
 4111 043c 0000 0000 		.long	.LASF151
 4112 0440 ED00      		.sleb128 109
 4113 0442 08        		.uleb128 0x8
 4114 0443 0000 0000 		.long	.LASF152
 4115 0447 EE00      		.sleb128 110
 4116 0449 08        		.uleb128 0x8
 4117 044a 0000 0000 		.long	.LASF153
 4118 044e EF00      		.sleb128 111
 4119 0450 08        		.uleb128 0x8
 4120 0451 0000 0000 		.long	.LASF154
 4121 0455 F000      		.sleb128 112
 4122 0457 08        		.uleb128 0x8
 4123 0458 0000 0000 		.long	.LASF155
 4124 045c F100      		.sleb128 113
 4125 045e 08        		.uleb128 0x8
 4126 045f 0000 0000 		.long	.LASF156
 4127 0463 F200      		.sleb128 114
 4128 0465 08        		.uleb128 0x8
 4129 0466 0000 0000 		.long	.LASF157
 4130 046a F300      		.sleb128 115
 4131 046c 08        		.uleb128 0x8
 4132 046d 0000 0000 		.long	.LASF158
 4133 0471 F400      		.sleb128 116
 4134 0473 08        		.uleb128 0x8
 4135 0474 0000 0000 		.long	.LASF159
 4136 0478 F500      		.sleb128 117
 4137 047a 08        		.uleb128 0x8
 4138 047b 0000 0000 		.long	.LASF160
 4139 047f F600      		.sleb128 118
 4140 0481 08        		.uleb128 0x8
 4141 0482 0000 0000 		.long	.LASF161
 4142 0486 F700      		.sleb128 119
 4143 0488 08        		.uleb128 0x8
 4144 0489 0000 0000 		.long	.LASF162
 4145 048d F800      		.sleb128 120
 4146 048f 08        		.uleb128 0x8
 4147 0490 0000 0000 		.long	.LASF163
 4148 0494 F900      		.sleb128 121
 4149 0496 08        		.uleb128 0x8
 4150 0497 0000 0000 		.long	.LASF164
 4151 049b FA00      		.sleb128 122
 4152 049d 08        		.uleb128 0x8
 4153 049e 0000 0000 		.long	.LASF165
 4154 04a2 FB00      		.sleb128 123
 4155 04a4 08        		.uleb128 0x8
 4156 04a5 0000 0000 		.long	.LASF166
 4157 04a9 FC00      		.sleb128 124
 4158 04ab 08        		.uleb128 0x8
 4159 04ac 0000 0000 		.long	.LASF167
 4160 04b0 FD00      		.sleb128 125
GAS LISTING C:\Users\ADMINI~1\AppData\Local\Temp/ccypPrtA.s 			page 76


 4161 04b2 08        		.uleb128 0x8
 4162 04b3 0000 0000 		.long	.LASF168
 4163 04b7 FE00      		.sleb128 126
 4164 04b9 08        		.uleb128 0x8
 4165 04ba 0000 0000 		.long	.LASF169
 4166 04be FF00      		.sleb128 127
 4167 04c0 08        		.uleb128 0x8
 4168 04c1 0000 0000 		.long	.LASF170
 4169 04c5 8001      		.sleb128 128
 4170 04c7 08        		.uleb128 0x8
 4171 04c8 0000 0000 		.long	.LASF171
 4172 04cc 8101      		.sleb128 129
 4173 04ce 08        		.uleb128 0x8
 4174 04cf 0000 0000 		.long	.LASF172
 4175 04d3 8201      		.sleb128 130
 4176 04d5 08        		.uleb128 0x8
 4177 04d6 0000 0000 		.long	.LASF173
 4178 04da 8301      		.sleb128 131
 4179 04dc 08        		.uleb128 0x8
 4180 04dd 0000 0000 		.long	.LASF174
 4181 04e1 8401      		.sleb128 132
 4182 04e3 08        		.uleb128 0x8
 4183 04e4 0000 0000 		.long	.LASF175
 4184 04e8 8501      		.sleb128 133
 4185 04ea 08        		.uleb128 0x8
 4186 04eb 0000 0000 		.long	.LASF176
 4187 04ef 8601      		.sleb128 134
 4188 04f1 08        		.uleb128 0x8
 4189 04f2 0000 0000 		.long	.LASF177
 4190 04f6 8701      		.sleb128 135
 4191 04f8 08        		.uleb128 0x8
 4192 04f9 0000 0000 		.long	.LASF178
 4193 04fd 8801      		.sleb128 136
 4194 04ff 08        		.uleb128 0x8
 4195 0500 0000 0000 		.long	.LASF179
 4196 0504 8901      		.sleb128 137
 4197 0506 08        		.uleb128 0x8
 4198 0507 0000 0000 		.long	.LASF180
 4199 050b 8A01      		.sleb128 138
 4200 050d 08        		.uleb128 0x8
 4201 050e 0000 0000 		.long	.LASF181
 4202 0512 8B01      		.sleb128 139
 4203 0514 08        		.uleb128 0x8
 4204 0515 0000 0000 		.long	.LASF182
 4205 0519 8C01      		.sleb128 140
 4206 051b 08        		.uleb128 0x8
 4207 051c 0000 0000 		.long	.LASF183
 4208 0520 8D01      		.sleb128 141
 4209 0522 08        		.uleb128 0x8
 4210 0523 0000 0000 		.long	.LASF184
 4211 0527 8E01      		.sleb128 142
 4212 0529 08        		.uleb128 0x8
 4213 052a 0000 0000 		.long	.LASF185
 4214 052e 8F01      		.sleb128 143
 4215 0530 08        		.uleb128 0x8
 4216 0531 0000 0000 		.long	.LASF186
 4217 0535 9001      		.sleb128 144
GAS LISTING C:\Users\ADMINI~1\AppData\Local\Temp/ccypPrtA.s 			page 77


 4218 0537 08        		.uleb128 0x8
 4219 0538 0000 0000 		.long	.LASF187
 4220 053c 9101      		.sleb128 145
 4221 053e 08        		.uleb128 0x8
 4222 053f 0000 0000 		.long	.LASF188
 4223 0543 9201      		.sleb128 146
 4224 0545 08        		.uleb128 0x8
 4225 0546 0000 0000 		.long	.LASF189
 4226 054a 9301      		.sleb128 147
 4227 054c 08        		.uleb128 0x8
 4228 054d 0000 0000 		.long	.LASF190
 4229 0551 9401      		.sleb128 148
 4230 0553 08        		.uleb128 0x8
 4231 0554 0000 0000 		.long	.LASF191
 4232 0558 9501      		.sleb128 149
 4233 055a 08        		.uleb128 0x8
 4234 055b 0000 0000 		.long	.LASF192
 4235 055f 9601      		.sleb128 150
 4236 0561 08        		.uleb128 0x8
 4237 0562 0000 0000 		.long	.LASF193
 4238 0566 9701      		.sleb128 151
 4239 0568 08        		.uleb128 0x8
 4240 0569 0000 0000 		.long	.LASF194
 4241 056d 9801      		.sleb128 152
 4242 056f 08        		.uleb128 0x8
 4243 0570 0000 0000 		.long	.LASF195
 4244 0574 9901      		.sleb128 153
 4245 0576 08        		.uleb128 0x8
 4246 0577 0000 0000 		.long	.LASF196
 4247 057b 9A01      		.sleb128 154
 4248 057d 08        		.uleb128 0x8
 4249 057e 0000 0000 		.long	.LASF197
 4250 0582 9B01      		.sleb128 155
 4251 0584 08        		.uleb128 0x8
 4252 0585 0000 0000 		.long	.LASF198
 4253 0589 9C01      		.sleb128 156
 4254 058b 08        		.uleb128 0x8
 4255 058c 0000 0000 		.long	.LASF199
 4256 0590 9D01      		.sleb128 157
 4257 0592 08        		.uleb128 0x8
 4258 0593 0000 0000 		.long	.LASF200
 4259 0597 9E01      		.sleb128 158
 4260 0599 08        		.uleb128 0x8
 4261 059a 0000 0000 		.long	.LASF201
 4262 059e 9F01      		.sleb128 159
 4263 05a0 08        		.uleb128 0x8
 4264 05a1 0000 0000 		.long	.LASF202
 4265 05a5 A001      		.sleb128 160
 4266 05a7 08        		.uleb128 0x8
 4267 05a8 0000 0000 		.long	.LASF203
 4268 05ac A101      		.sleb128 161
 4269 05ae 08        		.uleb128 0x8
 4270 05af 0000 0000 		.long	.LASF204
 4271 05b3 A201      		.sleb128 162
 4272 05b5 08        		.uleb128 0x8
 4273 05b6 0000 0000 		.long	.LASF205
 4274 05ba A301      		.sleb128 163
GAS LISTING C:\Users\ADMINI~1\AppData\Local\Temp/ccypPrtA.s 			page 78


 4275 05bc 08        		.uleb128 0x8
 4276 05bd 0000 0000 		.long	.LASF206
 4277 05c1 A401      		.sleb128 164
 4278 05c3 08        		.uleb128 0x8
 4279 05c4 0000 0000 		.long	.LASF207
 4280 05c8 A501      		.sleb128 165
 4281 05ca 08        		.uleb128 0x8
 4282 05cb 0000 0000 		.long	.LASF208
 4283 05cf A601      		.sleb128 166
 4284 05d1 08        		.uleb128 0x8
 4285 05d2 0000 0000 		.long	.LASF209
 4286 05d6 A701      		.sleb128 167
 4287 05d8 08        		.uleb128 0x8
 4288 05d9 0000 0000 		.long	.LASF210
 4289 05dd A801      		.sleb128 168
 4290 05df 08        		.uleb128 0x8
 4291 05e0 0000 0000 		.long	.LASF211
 4292 05e4 A901      		.sleb128 169
 4293 05e6 08        		.uleb128 0x8
 4294 05e7 0000 0000 		.long	.LASF212
 4295 05eb AA01      		.sleb128 170
 4296 05ed 08        		.uleb128 0x8
 4297 05ee 0000 0000 		.long	.LASF213
 4298 05f2 AB01      		.sleb128 171
 4299 05f4 08        		.uleb128 0x8
 4300 05f5 0000 0000 		.long	.LASF214
 4301 05f9 AC01      		.sleb128 172
 4302 05fb 08        		.uleb128 0x8
 4303 05fc 0000 0000 		.long	.LASF215
 4304 0600 AD01      		.sleb128 173
 4305 0602 08        		.uleb128 0x8
 4306 0603 0000 0000 		.long	.LASF216
 4307 0607 AE01      		.sleb128 174
 4308 0609 08        		.uleb128 0x8
 4309 060a 0000 0000 		.long	.LASF217
 4310 060e AF01      		.sleb128 175
 4311 0610 00        		.byte	0x0
 4312 0611 09        		.uleb128 0x9
 4313 0612 02        		.byte	0x2
 4314 0613 06        		.byte	0x6
 4315 0614 0F        		.byte	0xf
 4316 0615 3606 0000 		.long	0x636
 4317 0619 0A        		.uleb128 0xa
 4318 061a 0000 0000 		.long	.LASF218
 4319 061e 06        		.byte	0x6
 4320 061f 10        		.byte	0x10
 4321 0620 7200 0000 		.long	0x72
 4322 0624 02        		.byte	0x2
 4323 0625 23        		.byte	0x23
 4324 0626 00        		.uleb128 0x0
 4325 0627 0A        		.uleb128 0xa
 4326 0628 0000 0000 		.long	.LASF219
 4327 062c 06        		.byte	0x6
 4328 062d 11        		.byte	0x11
 4329 062e 7200 0000 		.long	0x72
 4330 0632 02        		.byte	0x2
 4331 0633 23        		.byte	0x23
GAS LISTING C:\Users\ADMINI~1\AppData\Local\Temp/ccypPrtA.s 			page 79


 4332 0634 01        		.uleb128 0x1
 4333 0635 00        		.byte	0x0
 4334 0636 0B        		.uleb128 0xb
 4335 0637 4B65 7900 		.string	"Key"
 4336 063b 06        		.byte	0x6
 4337 063c 12        		.byte	0x12
 4338 063d 1106 0000 		.long	0x611
 4339 0641 0C        		.uleb128 0xc
 4340 0642 0000 0000 		.long	.LASF222
 4341 0646 02        		.byte	0x2
 4342 0647 68        		.byte	0x68
 4343 0648 01        		.byte	0x1
 4344 0649 03        		.byte	0x3
 4345 064a 5A06 0000 		.long	0x65a
 4346 064e 0D        		.uleb128 0xd
 4347 064f 0000 0000 		.long	.LASF220
 4348 0653 02        		.byte	0x2
 4349 0654 67        		.byte	0x67
 4350 0655 7D00 0000 		.long	0x7d
 4351 0659 00        		.byte	0x0
 4352 065a 0E        		.uleb128 0xe
 4353 065b 01        		.byte	0x1
 4354 065c 0000 0000 		.long	.LASF237
 4355 0660 01        		.byte	0x1
 4356 0661 77        		.byte	0x77
 4357 0662 01        		.byte	0x1
 4358 0663 7200 0000 		.long	0x72
 4359 0667 01        		.byte	0x1
 4360 0668 0F        		.uleb128 0xf
 4361 0669 01        		.byte	0x1
 4362 066a 0000 0000 		.long	.LASF235
 4363 066e 01        		.byte	0x1
 4364 066f 0C01      		.word	0x10c
 4365 0671 01        		.byte	0x1
 4366 0672 7200 0000 		.long	0x72
 4367 0676 01        		.byte	0x1
 4368 0677 8806 0000 		.long	0x688
 4369 067b 10        		.uleb128 0x10
 4370 067c 0000 0000 		.long	.LASF221
 4371 0680 01        		.byte	0x1
 4372 0681 0C01      		.word	0x10c
 4373 0683 7200 0000 		.long	0x72
 4374 0687 00        		.byte	0x0
 4375 0688 11        		.uleb128 0x11
 4376 0689 01        		.byte	0x1
 4377 068a 0000 0000 		.long	.LASF241
 4378 068e 01        		.byte	0x1
 4379 068f D1        		.byte	0xd1
 4380 0690 01        		.byte	0x1
 4381 0691 01        		.byte	0x1
 4382 0692 0C        		.uleb128 0xc
 4383 0693 0000 0000 		.long	.LASF223
 4384 0697 03        		.byte	0x3
 4385 0698 6F        		.byte	0x6f
 4386 0699 01        		.byte	0x1
 4387 069a 03        		.byte	0x3
 4388 069b C306 0000 		.long	0x6c3
GAS LISTING C:\Users\ADMINI~1\AppData\Local\Temp/ccypPrtA.s 			page 80


 4389 069f 0D        		.uleb128 0xd
 4390 06a0 0000 0000 		.long	.LASF224
 4391 06a4 03        		.byte	0x3
 4392 06a5 6E        		.byte	0x6e
 4393 06a6 C306 0000 		.long	0x6c3
 4394 06aa 12        		.uleb128 0x12
 4395 06ab 0000 0000 		.long	.LASF225
 4396 06af 03        		.byte	0x3
 4397 06b0 70        		.byte	0x70
 4398 06b1 7D00 0000 		.long	0x7d
 4399 06b5 12        		.uleb128 0x12
 4400 06b6 0000 0000 		.long	.LASF226
 4401 06ba 03        		.byte	0x3
 4402 06bb 71        		.byte	0x71
 4403 06bc C306 0000 		.long	0x6c3
 4404 06c0 13        		.uleb128 0x13
 4405 06c1 13        		.uleb128 0x13
 4406 06c2 00        		.byte	0x0
 4407 06c3 02        		.uleb128 0x2
 4408 06c4 04        		.byte	0x4
 4409 06c5 04        		.byte	0x4
 4410 06c6 0000 0000 		.long	.LASF227
 4411 06ca 14        		.uleb128 0x14
 4412 06cb 0000 0000 		.long	.LASF239
 4413 06cf 01        		.byte	0x1
 4414 06d0 D501      		.word	0x1d5
 4415 06d2 01        		.byte	0x1
 4416 06d3 01        		.byte	0x1
 4417 06d4 15        		.uleb128 0x15
 4418 06d5 0000 0000 		.long	.LASF231
 4419 06d9 01        		.byte	0x1
 4420 06da FF        		.byte	0xff
 4421 06db 01        		.byte	0x1
 4422 06dc 7200 0000 		.long	0x72
 4423 06e0 01        		.byte	0x1
 4424 06e1 0707 0000 		.long	0x707
 4425 06e5 0D        		.uleb128 0xd
 4426 06e6 0000 0000 		.long	.LASF228
 4427 06ea 01        		.byte	0x1
 4428 06eb FE        		.byte	0xfe
 4429 06ec 7200 0000 		.long	0x72
 4430 06f0 0D        		.uleb128 0xd
 4431 06f1 0000 0000 		.long	.LASF229
 4432 06f5 01        		.byte	0x1
 4433 06f6 FE        		.byte	0xfe
 4434 06f7 7200 0000 		.long	0x72
 4435 06fb 0D        		.uleb128 0xd
 4436 06fc 0000 0000 		.long	.LASF230
 4437 0700 01        		.byte	0x1
 4438 0701 FE        		.byte	0xfe
 4439 0702 7200 0000 		.long	0x72
 4440 0706 00        		.byte	0x0
 4441 0707 16        		.uleb128 0x16
 4442 0708 0000 0000 		.long	.LASF232
 4443 070c 01        		.byte	0x1
 4444 070d 0401      		.word	0x104
 4445 070f 01        		.byte	0x1
GAS LISTING C:\Users\ADMINI~1\AppData\Local\Temp/ccypPrtA.s 			page 81


 4446 0710 7200 0000 		.long	0x72
 4447 0714 01        		.byte	0x1
 4448 0715 5607 0000 		.long	0x756
 4449 0719 10        		.uleb128 0x10
 4450 071a 0000 0000 		.long	.LASF228
 4451 071e 01        		.byte	0x1
 4452 071f 0301      		.word	0x103
 4453 0721 7200 0000 		.long	0x72
 4454 0725 10        		.uleb128 0x10
 4455 0726 0000 0000 		.long	.LASF229
 4456 072a 01        		.byte	0x1
 4457 072b 0301      		.word	0x103
 4458 072d 7200 0000 		.long	0x72
 4459 0731 10        		.uleb128 0x10
 4460 0732 0000 0000 		.long	.LASF230
 4461 0736 01        		.byte	0x1
 4462 0737 0301      		.word	0x103
 4463 0739 7200 0000 		.long	0x72
 4464 073d 17        		.uleb128 0x17
 4465 073e 0000 0000 		.long	.LASF233
 4466 0742 01        		.byte	0x1
 4467 0743 0501      		.word	0x105
 4468 0745 7200 0000 		.long	0x72
 4469 0749 17        		.uleb128 0x17
 4470 074a 0000 0000 		.long	.LASF234
 4471 074e 01        		.byte	0x1
 4472 074f 0601      		.word	0x106
 4473 0751 6B00 0000 		.long	0x6b
 4474 0755 00        		.byte	0x0
 4475 0756 0F        		.uleb128 0xf
 4476 0757 01        		.byte	0x1
 4477 0758 0000 0000 		.long	.LASF236
 4478 075c 01        		.byte	0x1
 4479 075d 1401      		.word	0x114
 4480 075f 01        		.byte	0x1
 4481 0760 7200 0000 		.long	0x72
 4482 0764 01        		.byte	0x1
 4483 0765 7D07 0000 		.long	0x77d
 4484 0769 10        		.uleb128 0x10
 4485 076a 0000 0000 		.long	.LASF221
 4486 076e 01        		.byte	0x1
 4487 076f 1401      		.word	0x114
 4488 0771 7200 0000 		.long	0x72
 4489 0775 18        		.uleb128 0x18
 4490 0776 19        		.uleb128 0x19
 4491 0777 7B06 0000 		.long	0x67b
 4492 077b 00        		.byte	0x0
 4493 077c 00        		.byte	0x0
 4494 077d 0E        		.uleb128 0xe
 4495 077e 01        		.byte	0x1
 4496 077f 0000 0000 		.long	.LASF238
 4497 0783 01        		.byte	0x1
 4498 0784 7A        		.byte	0x7a
 4499 0785 01        		.byte	0x1
 4500 0786 7200 0000 		.long	0x72
 4501 078a 01        		.byte	0x1
 4502 078b 1A        		.uleb128 0x1a
GAS LISTING C:\Users\ADMINI~1\AppData\Local\Temp/ccypPrtA.s 			page 82


 4503 078c 0000 0000 		.long	.LASF240
 4504 0790 01        		.byte	0x1
 4505 0791 A3        		.byte	0xa3
 4506 0792 01        		.byte	0x1
 4507 0793 01        		.byte	0x1
 4508 0794 11        		.uleb128 0x11
 4509 0795 01        		.byte	0x1
 4510 0796 0000 0000 		.long	.LASF242
 4511 079a 01        		.byte	0x1
 4512 079b 73        		.byte	0x73
 4513 079c 01        		.byte	0x1
 4514 079d 01        		.byte	0x1
 4515 079e 1B        		.uleb128 0x1b
 4516 079f 9407 0000 		.long	0x794
 4517 07a3 0000 0000 		.long	.LFB8
 4518 07a7 0000 0000 		.long	.LFE8
 4519 07ab 02        		.byte	0x2
 4520 07ac 90        		.byte	0x90
 4521 07ad 20        		.uleb128 0x20
 4522 07ae 1B        		.uleb128 0x1b
 4523 07af 5A06 0000 		.long	0x65a
 4524 07b3 0000 0000 		.long	.LFB9
 4525 07b7 0000 0000 		.long	.LFE9
 4526 07bb 02        		.byte	0x2
 4527 07bc 90        		.byte	0x90
 4528 07bd 20        		.uleb128 0x20
 4529 07be 1B        		.uleb128 0x1b
 4530 07bf 7D07 0000 		.long	0x77d
 4531 07c3 0000 0000 		.long	.LFB10
 4532 07c7 0000 0000 		.long	.LFE10
 4533 07cb 02        		.byte	0x2
 4534 07cc 90        		.byte	0x90
 4535 07cd 20        		.uleb128 0x20
 4536 07ce 1C        		.uleb128 0x1c
 4537 07cf 01        		.byte	0x1
 4538 07d0 0000 0000 		.long	.LASF254
 4539 07d4 01        		.byte	0x1
 4540 07d5 7E        		.byte	0x7e
 4541 07d6 01        		.byte	0x1
 4542 07d7 0000 0000 		.long	.LFB11
 4543 07db 0000 0000 		.long	.LFE11
 4544 07df 02        		.byte	0x2
 4545 07e0 90        		.byte	0x90
 4546 07e1 20        		.uleb128 0x20
 4547 07e2 F607 0000 		.long	0x7f6
 4548 07e6 1D        		.uleb128 0x1d
 4549 07e7 0000 0000 		.long	.LASF247
 4550 07eb 01        		.byte	0x1
 4551 07ec 7E        		.byte	0x7e
 4552 07ed 7200 0000 		.long	0x72
 4553 07f1 0000 0000 		.long	.LLST4
 4554 07f5 00        		.byte	0x0
 4555 07f6 1E        		.uleb128 0x1e
 4556 07f7 01        		.byte	0x1
 4557 07f8 0000 0000 		.long	.LASF243
 4558 07fc 01        		.byte	0x1
 4559 07fd A9        		.byte	0xa9
GAS LISTING C:\Users\ADMINI~1\AppData\Local\Temp/ccypPrtA.s 			page 83


 4560 07fe 01        		.byte	0x1
 4561 07ff 7200 0000 		.long	0x72
 4562 0803 0000 0000 		.long	.LFB14
 4563 0807 0000 0000 		.long	.LFE14
 4564 080b 02        		.byte	0x2
 4565 080c 90        		.byte	0x90
 4566 080d 20        		.uleb128 0x20
 4567 080e 1F        		.uleb128 0x1f
 4568 080f 01        		.byte	0x1
 4569 0810 0000 0000 		.long	.LASF245
 4570 0814 01        		.byte	0x1
 4571 0815 AF        		.byte	0xaf
 4572 0816 01        		.byte	0x1
 4573 0817 0000 0000 		.long	.LFB15
 4574 081b 0000 0000 		.long	.LFE15
 4575 081f 02        		.byte	0x2
 4576 0820 90        		.byte	0x90
 4577 0821 20        		.uleb128 0x20
 4578 0822 1B        		.uleb128 0x1b
 4579 0823 8806 0000 		.long	0x688
 4580 0827 0000 0000 		.long	.LFB18
 4581 082b 0000 0000 		.long	.LFE18
 4582 082f 02        		.byte	0x2
 4583 0830 90        		.byte	0x90
 4584 0831 20        		.uleb128 0x20
 4585 0832 20        		.uleb128 0x20
 4586 0833 6806 0000 		.long	0x668
 4587 0837 0000 0000 		.long	.LFB23
 4588 083b 0000 0000 		.long	.LFE23
 4589 083f 02        		.byte	0x2
 4590 0840 90        		.byte	0x90
 4591 0841 20        		.uleb128 0x20
 4592 0842 5008 0000 		.long	0x850
 4593 0846 21        		.uleb128 0x21
 4594 0847 7B06 0000 		.long	0x67b
 4595 084b 0000 0000 		.long	.LLST9
 4596 084f 00        		.byte	0x0
 4597 0850 20        		.uleb128 0x20
 4598 0851 5607 0000 		.long	0x756
 4599 0855 0000 0000 		.long	.LFB24
 4600 0859 0000 0000 		.long	.LFE24
 4601 085d 02        		.byte	0x2
 4602 085e 90        		.byte	0x90
 4603 085f 20        		.uleb128 0x20
 4604 0860 8408 0000 		.long	0x884
 4605 0864 21        		.uleb128 0x21
 4606 0865 6907 0000 		.long	0x769
 4607 0869 0000 0000 		.long	.LLST11
 4608 086d 22        		.uleb128 0x22
 4609 086e 6806 0000 		.long	0x668
 4610 0872 0000 0000 		.long	.LBB68
 4611 0876 0000 0000 		.long	.LBE68
 4612 087a 01        		.byte	0x1
 4613 087b 1501      		.word	0x115
 4614 087d 19        		.uleb128 0x19
 4615 087e 4608 0000 		.long	0x846
 4616 0882 00        		.byte	0x0
GAS LISTING C:\Users\ADMINI~1\AppData\Local\Temp/ccypPrtA.s 			page 84


 4617 0883 00        		.byte	0x0
 4618 0884 23        		.uleb128 0x23
 4619 0885 01        		.byte	0x1
 4620 0886 0000 0000 		.long	.LASF244
 4621 088a 01        		.byte	0x1
 4622 088b A102      		.word	0x2a1
 4623 088d 01        		.byte	0x1
 4624 088e 7200 0000 		.long	0x72
 4625 0892 0000 0000 		.long	.LFB46
 4626 0896 0000 0000 		.long	.LFE46
 4627 089a 02        		.byte	0x2
 4628 089b 90        		.byte	0x90
 4629 089c 20        		.uleb128 0x20
 4630 089d 24        		.uleb128 0x24
 4631 089e 0000 0000 		.long	.LASF356
 4632 08a2 01        		.byte	0x1
 4633 08a3 4C01      		.word	0x14c
 4634 08a5 01        		.byte	0x1
 4635 08a6 0000 0000 		.long	.LFB27
 4636 08aa 0000 0000 		.long	.LFE27
 4637 08ae 02        		.byte	0x2
 4638 08af 90        		.byte	0x90
 4639 08b0 20        		.uleb128 0x20
 4640 08b1 25        		.uleb128 0x25
 4641 08b2 01        		.byte	0x1
 4642 08b3 0000 0000 		.long	.LASF246
 4643 08b7 01        		.byte	0x1
 4644 08b8 AA02      		.word	0x2aa
 4645 08ba 01        		.byte	0x1
 4646 08bb 0000 0000 		.long	.LFB47
 4647 08bf 0000 0000 		.long	.LFE47
 4648 08c3 02        		.byte	0x2
 4649 08c4 90        		.byte	0x90
 4650 08c5 20        		.uleb128 0x20
 4651 08c6 26        		.uleb128 0x26
 4652 08c7 0000 0000 		.long	.LASF249
 4653 08cb 01        		.byte	0x1
 4654 08cc 3901      		.word	0x139
 4655 08ce 01        		.byte	0x1
 4656 08cf 0000 0000 		.long	.LFB26
 4657 08d3 0000 0000 		.long	.LFE26
 4658 08d7 02        		.byte	0x2
 4659 08d8 90        		.byte	0x90
 4660 08d9 20        		.uleb128 0x20
 4661 08da FB08 0000 		.long	0x8fb
 4662 08de 27        		.uleb128 0x27
 4663 08df 0000 0000 		.long	.LASF248
 4664 08e3 01        		.byte	0x1
 4665 08e4 3801      		.word	0x138
 4666 08e6 8E00 0000 		.long	0x8e
 4667 08ea 0000 0000 		.long	.LLST16
 4668 08ee 28        		.uleb128 0x28
 4669 08ef 6B65 7900 		.string	"key"
 4670 08f3 01        		.byte	0x1
 4671 08f4 3B01      		.word	0x13b
 4672 08f6 3606 0000 		.long	0x636
 4673 08fa 00        		.byte	0x0
GAS LISTING C:\Users\ADMINI~1\AppData\Local\Temp/ccypPrtA.s 			page 85


 4674 08fb 26        		.uleb128 0x26
 4675 08fc 0000 0000 		.long	.LASF250
 4676 0900 01        		.byte	0x1
 4677 0901 6001      		.word	0x160
 4678 0903 01        		.byte	0x1
 4679 0904 0000 0000 		.long	.LFB29
 4680 0908 0000 0000 		.long	.LFE29
 4681 090c 02        		.byte	0x2
 4682 090d 90        		.byte	0x90
 4683 090e 20        		.uleb128 0x20
 4684 090f 6B09 0000 		.long	0x96b
 4685 0913 29        		.uleb128 0x29
 4686 0914 7374 7200 		.string	"str"
 4687 0918 01        		.byte	0x1
 4688 0919 5F01      		.word	0x15f
 4689 091b 6B09 0000 		.long	0x96b
 4690 091f 0000 0000 		.long	.LLST18
 4691 0923 2A        		.uleb128 0x2a
 4692 0924 6300      		.string	"c"
 4693 0926 01        		.byte	0x1
 4694 0927 6101      		.word	0x161
 4695 0929 6400 0000 		.long	0x64
 4696 092d 0000 0000 		.long	.LLST19
 4697 0931 2B        		.uleb128 0x2b
 4698 0932 0000 0000 		.long	.LASF251
 4699 0936 01        		.byte	0x1
 4700 0937 6201      		.word	0x162
 4701 0939 7609 0000 		.long	0x976
 4702 093d 02        		.byte	0x2
 4703 093e 8C        		.byte	0x8c
 4704 093f 01        		.sleb128 1
 4705 0940 2C        		.uleb128 0x2c
 4706 0941 0000 0000 		.long	.LBB70
 4707 0945 0000 0000 		.long	.LBE70
 4708 0949 2D        		.uleb128 0x2d
 4709 094a 0000 0000 		.long	.LASF252
 4710 094e 01        		.byte	0x1
 4711 094f 6501      		.word	0x165
 4712 0951 7D00 0000 		.long	0x7d
 4713 0955 0000 0000 		.long	.LLST20
 4714 0959 2D        		.uleb128 0x2d
 4715 095a 0000 0000 		.long	.LASF253
 4716 095e 01        		.byte	0x1
 4717 095f 6501      		.word	0x165
 4718 0961 7200 0000 		.long	0x72
 4719 0965 0000 0000 		.long	.LLST21
 4720 0969 00        		.byte	0x0
 4721 096a 00        		.byte	0x0
 4722 096b 06        		.uleb128 0x6
 4723 096c 02        		.byte	0x2
 4724 096d 7109 0000 		.long	0x971
 4725 0971 2E        		.uleb128 0x2e
 4726 0972 6400 0000 		.long	0x64
 4727 0976 2F        		.uleb128 0x2f
 4728 0977 6400 0000 		.long	0x64
 4729 097b 8609 0000 		.long	0x986
 4730 097f 30        		.uleb128 0x30
GAS LISTING C:\Users\ADMINI~1\AppData\Local\Temp/ccypPrtA.s 			page 86


 4731 0980 8609 0000 		.long	0x986
 4732 0984 00        		.byte	0x0
 4733 0985 00        		.byte	0x0
 4734 0986 05        		.uleb128 0x5
 4735 0987 02        		.byte	0x2
 4736 0988 07        		.byte	0x7
 4737 0989 31        		.uleb128 0x31
 4738 098a 01        		.byte	0x1
 4739 098b 0000 0000 		.long	.LASF255
 4740 098f 01        		.byte	0x1
 4741 0990 9202      		.word	0x292
 4742 0992 01        		.byte	0x1
 4743 0993 0000 0000 		.long	.LFB45
 4744 0997 0000 0000 		.long	.LFE45
 4745 099b 02        		.byte	0x2
 4746 099c 90        		.byte	0x90
 4747 099d 20        		.uleb128 0x20
 4748 099e B709 0000 		.long	0x9b7
 4749 09a2 28        		.uleb128 0x28
 4750 09a3 6B00      		.string	"k"
 4751 09a5 01        		.byte	0x1
 4752 09a6 9602      		.word	0x296
 4753 09a8 7200 0000 		.long	0x72
 4754 09ac 28        		.uleb128 0x28
 4755 09ad 6A00      		.string	"j"
 4756 09af 01        		.byte	0x1
 4757 09b0 9602      		.word	0x296
 4758 09b2 7200 0000 		.long	0x72
 4759 09b6 00        		.byte	0x0
 4760 09b7 25        		.uleb128 0x25
 4761 09b8 01        		.byte	0x1
 4762 09b9 0000 0000 		.long	.LASF256
 4763 09bd 01        		.byte	0x1
 4764 09be 8702      		.word	0x287
 4765 09c0 01        		.byte	0x1
 4766 09c1 0000 0000 		.long	.LFB44
 4767 09c5 0000 0000 		.long	.LFE44
 4768 09c9 02        		.byte	0x2
 4769 09ca 90        		.byte	0x90
 4770 09cb 20        		.uleb128 0x20
 4771 09cc 31        		.uleb128 0x31
 4772 09cd 01        		.byte	0x1
 4773 09ce 0000 0000 		.long	.LASF257
 4774 09d2 01        		.byte	0x1
 4775 09d3 3302      		.word	0x233
 4776 09d5 01        		.byte	0x1
 4777 09d6 0000 0000 		.long	.LFB39
 4778 09da 0000 0000 		.long	.LFE39
 4779 09de 02        		.byte	0x2
 4780 09df 90        		.byte	0x90
 4781 09e0 20        		.uleb128 0x20
 4782 09e1 F609 0000 		.long	0x9f6
 4783 09e5 32        		.uleb128 0x32
 4784 09e6 8806 0000 		.long	0x688
 4785 09ea 0000 0000 		.long	.LBB71
 4786 09ee 0000 0000 		.long	.LBE71
 4787 09f2 01        		.byte	0x1
GAS LISTING C:\Users\ADMINI~1\AppData\Local\Temp/ccypPrtA.s 			page 87


 4788 09f3 3502      		.word	0x235
 4789 09f5 00        		.byte	0x0
 4790 09f6 25        		.uleb128 0x25
 4791 09f7 01        		.byte	0x1
 4792 09f8 0000 0000 		.long	.LASF258
 4793 09fc 01        		.byte	0x1
 4794 09fd F201      		.word	0x1f2
 4795 09ff 01        		.byte	0x1
 4796 0a00 0000 0000 		.long	.LFB35
 4797 0a04 0000 0000 		.long	.LFE35
 4798 0a08 02        		.byte	0x2
 4799 0a09 90        		.byte	0x90
 4800 0a0a 20        		.uleb128 0x20
 4801 0a0b 25        		.uleb128 0x25
 4802 0a0c 01        		.byte	0x1
 4803 0a0d 0000 0000 		.long	.LASF259
 4804 0a11 01        		.byte	0x1
 4805 0a12 E201      		.word	0x1e2
 4806 0a14 01        		.byte	0x1
 4807 0a15 0000 0000 		.long	.LFB34
 4808 0a19 0000 0000 		.long	.LFE34
 4809 0a1d 02        		.byte	0x2
 4810 0a1e 90        		.byte	0x90
 4811 0a1f 20        		.uleb128 0x20
 4812 0a20 31        		.uleb128 0x31
 4813 0a21 01        		.byte	0x1
 4814 0a22 0000 0000 		.long	.LASF260
 4815 0a26 01        		.byte	0x1
 4816 0a27 5201      		.word	0x152
 4817 0a29 01        		.byte	0x1
 4818 0a2a 0000 0000 		.long	.LFB28
 4819 0a2e 0000 0000 		.long	.LFE28
 4820 0a32 02        		.byte	0x2
 4821 0a33 90        		.byte	0x90
 4822 0a34 20        		.uleb128 0x20
 4823 0a35 710A 0000 		.long	0xa71
 4824 0a39 27        		.uleb128 0x27
 4825 0a3a 0000 0000 		.long	.LASF261
 4826 0a3e 01        		.byte	0x1
 4827 0a3f 5101      		.word	0x151
 4828 0a41 6B09 0000 		.long	0x96b
 4829 0a45 0000 0000 		.long	.LLST28
 4830 0a49 28        		.uleb128 0x28
 4831 0a4a 6300      		.string	"c"
 4832 0a4c 01        		.byte	0x1
 4833 0a4d 5301      		.word	0x153
 4834 0a4f 6400 0000 		.long	0x64
 4835 0a53 2B        		.uleb128 0x2b
 4836 0a54 0000 0000 		.long	.LASF251
 4837 0a58 01        		.byte	0x1
 4838 0a59 5401      		.word	0x154
 4839 0a5b 7609 0000 		.long	0x976
 4840 0a5f 02        		.byte	0x2
 4841 0a60 8C        		.byte	0x8c
 4842 0a61 01        		.sleb128 1
 4843 0a62 2A        		.uleb128 0x2a
 4844 0a63 6900      		.string	"i"
GAS LISTING C:\Users\ADMINI~1\AppData\Local\Temp/ccypPrtA.s 			page 88


 4845 0a65 01        		.byte	0x1
 4846 0a66 5501      		.word	0x155
 4847 0a68 7200 0000 		.long	0x72
 4848 0a6c 0000 0000 		.long	.LLST29
 4849 0a70 00        		.byte	0x0
 4850 0a71 26        		.uleb128 0x26
 4851 0a72 0000 0000 		.long	.LASF262
 4852 0a76 01        		.byte	0x1
 4853 0a77 6C01      		.word	0x16c
 4854 0a79 01        		.byte	0x1
 4855 0a7a 0000 0000 		.long	.LFB30
 4856 0a7e 0000 0000 		.long	.LFE30
 4857 0a82 02        		.byte	0x2
 4858 0a83 90        		.byte	0x90
 4859 0a84 20        		.uleb128 0x20
 4860 0a85 D70A 0000 		.long	0xad7
 4861 0a89 22        		.uleb128 0x22
 4862 0a8a 9206 0000 		.long	0x692
 4863 0a8e 0000 0000 		.long	.LBB73
 4864 0a92 0000 0000 		.long	.LBE73
 4865 0a96 01        		.byte	0x1
 4866 0a97 B001      		.word	0x1b0
 4867 0a99 19        		.uleb128 0x19
 4868 0a9a 9F06 0000 		.long	0x69f
 4869 0a9e 2C        		.uleb128 0x2c
 4870 0a9f 0000 0000 		.long	.LBB74
 4871 0aa3 0000 0000 		.long	.LBE74
 4872 0aa7 33        		.uleb128 0x33
 4873 0aa8 AA06 0000 		.long	0x6aa
 4874 0aac 06        		.byte	0x6
 4875 0aad 68        		.byte	0x68
 4876 0aae 93        		.byte	0x93
 4877 0aaf 01        		.uleb128 0x1
 4878 0ab0 69        		.byte	0x69
 4879 0ab1 93        		.byte	0x93
 4880 0ab2 01        		.uleb128 0x1
 4881 0ab3 34        		.uleb128 0x34
 4882 0ab4 B506 0000 		.long	0x6b5
 4883 0ab8 35        		.uleb128 0x35
 4884 0ab9 4106 0000 		.long	0x641
 4885 0abd 0000 0000 		.long	.LBB75
 4886 0ac1 0000 0000 		.long	.LBE75
 4887 0ac5 03        		.byte	0x3
 4888 0ac6 7B        		.byte	0x7b
 4889 0ac7 36        		.uleb128 0x36
 4890 0ac8 4E06 0000 		.long	0x64e
 4891 0acc 06        		.byte	0x6
 4892 0acd 6E        		.byte	0x6e
 4893 0ace 93        		.byte	0x93
 4894 0acf 01        		.uleb128 0x1
 4895 0ad0 6F        		.byte	0x6f
 4896 0ad1 93        		.byte	0x93
 4897 0ad2 01        		.uleb128 0x1
 4898 0ad3 00        		.byte	0x0
 4899 0ad4 00        		.byte	0x0
 4900 0ad5 00        		.byte	0x0
 4901 0ad6 00        		.byte	0x0
GAS LISTING C:\Users\ADMINI~1\AppData\Local\Temp/ccypPrtA.s 			page 89


 4902 0ad7 25        		.uleb128 0x25
 4903 0ad8 01        		.byte	0x1
 4904 0ad9 0000 0000 		.long	.LASF263
 4905 0add 01        		.byte	0x1
 4906 0ade C501      		.word	0x1c5
 4907 0ae0 01        		.byte	0x1
 4908 0ae1 0000 0000 		.long	.LFB32
 4909 0ae5 0000 0000 		.long	.LFE32
 4910 0ae9 02        		.byte	0x2
 4911 0aea 90        		.byte	0x90
 4912 0aeb 20        		.uleb128 0x20
 4913 0aec 25        		.uleb128 0x25
 4914 0aed 01        		.byte	0x1
 4915 0aee 0000 0000 		.long	.LASF264
 4916 0af2 01        		.byte	0x1
 4917 0af3 B301      		.word	0x1b3
 4918 0af5 01        		.byte	0x1
 4919 0af6 0000 0000 		.long	.LFB31
 4920 0afa 0000 0000 		.long	.LFE31
 4921 0afe 02        		.byte	0x2
 4922 0aff 90        		.byte	0x90
 4923 0b00 20        		.uleb128 0x20
 4924 0b01 31        		.uleb128 0x31
 4925 0b02 01        		.byte	0x1
 4926 0b03 0000 0000 		.long	.LASF265
 4927 0b07 01        		.byte	0x1
 4928 0b08 7902      		.word	0x279
 4929 0b0a 01        		.byte	0x1
 4930 0b0b 0000 0000 		.long	.LFB43
 4931 0b0f 0000 0000 		.long	.LFE43
 4932 0b13 02        		.byte	0x2
 4933 0b14 90        		.byte	0x90
 4934 0b15 20        		.uleb128 0x20
 4935 0b16 310B 0000 		.long	0xb31
 4936 0b1a 17        		.uleb128 0x17
 4937 0b1b 0000 0000 		.long	.LASF266
 4938 0b1f 01        		.byte	0x1
 4939 0b20 7A02      		.word	0x27a
 4940 0b22 7D00 0000 		.long	0x7d
 4941 0b26 28        		.uleb128 0x28
 4942 0b27 6B00      		.string	"k"
 4943 0b29 01        		.byte	0x1
 4944 0b2a 7B02      		.word	0x27b
 4945 0b2c 6B00 0000 		.long	0x6b
 4946 0b30 00        		.byte	0x0
 4947 0b31 31        		.uleb128 0x31
 4948 0b32 01        		.byte	0x1
 4949 0b33 0000 0000 		.long	.LASF267
 4950 0b37 01        		.byte	0x1
 4951 0b38 6602      		.word	0x266
 4952 0b3a 01        		.byte	0x1
 4953 0b3b 0000 0000 		.long	.LFB42
 4954 0b3f 0000 0000 		.long	.LFE42
 4955 0b43 02        		.byte	0x2
 4956 0b44 90        		.byte	0x90
 4957 0b45 20        		.uleb128 0x20
 4958 0b46 790B 0000 		.long	0xb79
GAS LISTING C:\Users\ADMINI~1\AppData\Local\Temp/ccypPrtA.s 			page 90


 4959 0b4a 17        		.uleb128 0x17
 4960 0b4b 0000 0000 		.long	.LASF268
 4961 0b4f 01        		.byte	0x1
 4962 0b50 6A02      		.word	0x26a
 4963 0b52 7200 0000 		.long	0x72
 4964 0b56 17        		.uleb128 0x17
 4965 0b57 0000 0000 		.long	.LASF266
 4966 0b5b 01        		.byte	0x1
 4967 0b5c 6B02      		.word	0x26b
 4968 0b5e 7D00 0000 		.long	0x7d
 4969 0b62 17        		.uleb128 0x17
 4970 0b63 0000 0000 		.long	.LASF269
 4971 0b67 01        		.byte	0x1
 4972 0b68 6C02      		.word	0x26c
 4973 0b6a 790B 0000 		.long	0xb79
 4974 0b6e 28        		.uleb128 0x28
 4975 0b6f 6B00      		.string	"k"
 4976 0b71 01        		.byte	0x1
 4977 0b72 6D02      		.word	0x26d
 4978 0b74 7200 0000 		.long	0x72
 4979 0b78 00        		.byte	0x0
 4980 0b79 2F        		.uleb128 0x2f
 4981 0b7a 7200 0000 		.long	0x72
 4982 0b7e 890B 0000 		.long	0xb89
 4983 0b82 30        		.uleb128 0x30
 4984 0b83 8609 0000 		.long	0x986
 4985 0b87 2F        		.byte	0x2f
 4986 0b88 00        		.byte	0x0
 4987 0b89 31        		.uleb128 0x31
 4988 0b8a 01        		.byte	0x1
 4989 0b8b 0000 0000 		.long	.LASF270
 4990 0b8f 01        		.byte	0x1
 4991 0b90 5302      		.word	0x253
 4992 0b92 01        		.byte	0x1
 4993 0b93 0000 0000 		.long	.LFB41
 4994 0b97 0000 0000 		.long	.LFE41
 4995 0b9b 02        		.byte	0x2
 4996 0b9c 90        		.byte	0x90
 4997 0b9d 20        		.uleb128 0x20
 4998 0b9e E50B 0000 		.long	0xbe5
 4999 0ba2 27        		.uleb128 0x27
 5000 0ba3 0000 0000 		.long	.LASF271
 5001 0ba7 01        		.byte	0x1
 5002 0ba8 5302      		.word	0x253
 5003 0baa 7200 0000 		.long	0x72
 5004 0bae 0000 0000 		.long	.LLST36
 5005 0bb2 17        		.uleb128 0x17
 5006 0bb3 0000 0000 		.long	.LASF266
 5007 0bb7 01        		.byte	0x1
 5008 0bb8 5702      		.word	0x257
 5009 0bba 7D00 0000 		.long	0x7d
 5010 0bbe 2D        		.uleb128 0x2d
 5011 0bbf 0000 0000 		.long	.LASF268
 5012 0bc3 01        		.byte	0x1
 5013 0bc4 5802      		.word	0x258
 5014 0bc6 7200 0000 		.long	0x72
 5015 0bca 0000 0000 		.long	.LLST37
GAS LISTING C:\Users\ADMINI~1\AppData\Local\Temp/ccypPrtA.s 			page 91


 5016 0bce 17        		.uleb128 0x17
 5017 0bcf 0000 0000 		.long	.LASF269
 5018 0bd3 01        		.byte	0x1
 5019 0bd4 5902      		.word	0x259
 5020 0bd6 790B 0000 		.long	0xb79
 5021 0bda 28        		.uleb128 0x28
 5022 0bdb 6B00      		.string	"k"
 5023 0bdd 01        		.byte	0x1
 5024 0bde 5A02      		.word	0x25a
 5025 0be0 7200 0000 		.long	0x72
 5026 0be4 00        		.byte	0x0
 5027 0be5 31        		.uleb128 0x31
 5028 0be6 01        		.byte	0x1
 5029 0be7 0000 0000 		.long	.LASF272
 5030 0beb 01        		.byte	0x1
 5031 0bec F801      		.word	0x1f8
 5032 0bee 01        		.byte	0x1
 5033 0bef 0000 0000 		.long	.LFB36
 5034 0bf3 0000 0000 		.long	.LFE36
 5035 0bf7 02        		.byte	0x2
 5036 0bf8 90        		.byte	0x90
 5037 0bf9 20        		.uleb128 0x20
 5038 0bfa 1F0C 0000 		.long	0xc1f
 5039 0bfe 17        		.uleb128 0x17
 5040 0bff 0000 0000 		.long	.LASF266
 5041 0c03 01        		.byte	0x1
 5042 0c04 F901      		.word	0x1f9
 5043 0c06 7D00 0000 		.long	0x7d
 5044 0c0a 28        		.uleb128 0x28
 5045 0c0b 6B00      		.string	"k"
 5046 0c0d 01        		.byte	0x1
 5047 0c0e FA01      		.word	0x1fa
 5048 0c10 7200 0000 		.long	0x72
 5049 0c14 28        		.uleb128 0x28
 5050 0c15 6A00      		.string	"j"
 5051 0c17 01        		.byte	0x1
 5052 0c18 FA01      		.word	0x1fa
 5053 0c1a 7200 0000 		.long	0x72
 5054 0c1e 00        		.byte	0x0
 5055 0c1f 31        		.uleb128 0x31
 5056 0c20 01        		.byte	0x1
 5057 0c21 0000 0000 		.long	.LASF273
 5058 0c25 01        		.byte	0x1
 5059 0c26 B102      		.word	0x2b1
 5060 0c28 01        		.byte	0x1
 5061 0c29 0000 0000 		.long	.LFB48
 5062 0c2d 0000 0000 		.long	.LFE48
 5063 0c31 02        		.byte	0x2
 5064 0c32 90        		.byte	0x90
 5065 0c33 20        		.uleb128 0x20
 5066 0c34 BA0D 0000 		.long	0xdba
 5067 0c38 27        		.uleb128 0x27
 5068 0c39 0000 0000 		.long	.LASF221
 5069 0c3d 01        		.byte	0x1
 5070 0c3e B002      		.word	0x2b0
 5071 0c40 7200 0000 		.long	0x72
 5072 0c44 0000 0000 		.long	.LLST40
GAS LISTING C:\Users\ADMINI~1\AppData\Local\Temp/ccypPrtA.s 			page 92


 5073 0c48 27        		.uleb128 0x27
 5074 0c49 0000 0000 		.long	.LASF230
 5075 0c4d 01        		.byte	0x1
 5076 0c4e B002      		.word	0x2b0
 5077 0c50 7200 0000 		.long	0x72
 5078 0c54 0000 0000 		.long	.LLST41
 5079 0c58 27        		.uleb128 0x27
 5080 0c59 0000 0000 		.long	.LASF229
 5081 0c5d 01        		.byte	0x1
 5082 0c5e B002      		.word	0x2b0
 5083 0c60 7200 0000 		.long	0x72
 5084 0c64 0000 0000 		.long	.LLST42
 5085 0c68 27        		.uleb128 0x27
 5086 0c69 0000 0000 		.long	.LASF274
 5087 0c6d 01        		.byte	0x1
 5088 0c6e B002      		.word	0x2b0
 5089 0c70 7200 0000 		.long	0x72
 5090 0c74 0000 0000 		.long	.LLST43
 5091 0c78 2A        		.uleb128 0x2a
 5092 0c79 636D 6400 		.string	"cmd"
 5093 0c7d 01        		.byte	0x1
 5094 0c7e BC02      		.word	0x2bc
 5095 0c80 7200 0000 		.long	0x72
 5096 0c84 0000 0000 		.long	.LLST44
 5097 0c88 2D        		.uleb128 0x2d
 5098 0c89 0000 0000 		.long	.LASF275
 5099 0c8d 01        		.byte	0x1
 5100 0c8e BC02      		.word	0x2bc
 5101 0c90 7200 0000 		.long	0x72
 5102 0c94 0000 0000 		.long	.LLST45
 5103 0c98 2D        		.uleb128 0x2d
 5104 0c99 0000 0000 		.long	.LASF268
 5105 0c9d 01        		.byte	0x1
 5106 0c9e BD02      		.word	0x2bd
 5107 0ca0 6B00 0000 		.long	0x6b
 5108 0ca4 0000 0000 		.long	.LLST46
 5109 0ca8 2D        		.uleb128 0x2d
 5110 0ca9 0000 0000 		.long	.LASF233
 5111 0cad 01        		.byte	0x1
 5112 0cae BE02      		.word	0x2be
 5113 0cb0 6B00 0000 		.long	0x6b
 5114 0cb4 0000 0000 		.long	.LLST47
 5115 0cb8 2B        		.uleb128 0x2b
 5116 0cb9 0000 0000 		.long	.LASF276
 5117 0cbd 01        		.byte	0x1
 5118 0cbe BF02      		.word	0x2bf
 5119 0cc0 BA0D 0000 		.long	0xdba
 5120 0cc4 02        		.byte	0x2
 5121 0cc5 8C        		.byte	0x8c
 5122 0cc6 01        		.sleb128 1
 5123 0cc7 2D        		.uleb128 0x2d
 5124 0cc8 0000 0000 		.long	.LASF234
 5125 0ccc 01        		.byte	0x1
 5126 0ccd C002      		.word	0x2c0
 5127 0ccf 6B00 0000 		.long	0x6b
 5128 0cd3 0000 0000 		.long	.LLST48
 5129 0cd7 17        		.uleb128 0x17
GAS LISTING C:\Users\ADMINI~1\AppData\Local\Temp/ccypPrtA.s 			page 93


 5130 0cd8 0000 0000 		.long	.LASF277
 5131 0cdc 01        		.byte	0x1
 5132 0cdd C102      		.word	0x2c1
 5133 0cdf 6B00 0000 		.long	0x6b
 5134 0ce3 32        		.uleb128 0x32
 5135 0ce4 CA06 0000 		.long	0x6ca
 5136 0ce8 0000 0000 		.long	.LBB77
 5137 0cec 0000 0000 		.long	.LBE77
 5138 0cf0 01        		.byte	0x1
 5139 0cf1 1903      		.word	0x319
 5140 0cf3 32        		.uleb128 0x32
 5141 0cf4 8806 0000 		.long	0x688
 5142 0cf8 0000 0000 		.long	.LBB79
 5143 0cfc 0000 0000 		.long	.LBE79
 5144 0d00 01        		.byte	0x1
 5145 0d01 4303      		.word	0x343
 5146 0d03 37        		.uleb128 0x37
 5147 0d04 9206 0000 		.long	0x692
 5148 0d08 0000 0000 		.long	.LBB81
 5149 0d0c 0000 0000 		.long	.LBE81
 5150 0d10 01        		.byte	0x1
 5151 0d11 7903      		.word	0x379
 5152 0d13 4E0D 0000 		.long	0xd4e
 5153 0d17 19        		.uleb128 0x19
 5154 0d18 9F06 0000 		.long	0x69f
 5155 0d1c 2C        		.uleb128 0x2c
 5156 0d1d 0000 0000 		.long	.LBB82
 5157 0d21 0000 0000 		.long	.LBE82
 5158 0d25 38        		.uleb128 0x38
 5159 0d26 AA06 0000 		.long	0x6aa
 5160 0d2a 0000 0000 		.long	.LLST49
 5161 0d2e 34        		.uleb128 0x34
 5162 0d2f B506 0000 		.long	0x6b5
 5163 0d33 35        		.uleb128 0x35
 5164 0d34 4106 0000 		.long	0x641
 5165 0d38 0000 0000 		.long	.LBB83
 5166 0d3c 0000 0000 		.long	.LBE83
 5167 0d40 03        		.byte	0x3
 5168 0d41 7B        		.byte	0x7b
 5169 0d42 21        		.uleb128 0x21
 5170 0d43 4E06 0000 		.long	0x64e
 5171 0d47 0000 0000 		.long	.LLST50
 5172 0d4b 00        		.byte	0x0
 5173 0d4c 00        		.byte	0x0
 5174 0d4d 00        		.byte	0x0
 5175 0d4e 37        		.uleb128 0x37
 5176 0d4f D406 0000 		.long	0x6d4
 5177 0d53 0000 0000 		.long	.LBB85
 5178 0d57 0000 0000 		.long	.LBE85
 5179 0d5b 01        		.byte	0x1
 5180 0d5c A203      		.word	0x3a2
 5181 0d5e 720D 0000 		.long	0xd72
 5182 0d62 19        		.uleb128 0x19
 5183 0d63 FB06 0000 		.long	0x6fb
 5184 0d67 19        		.uleb128 0x19
 5185 0d68 F006 0000 		.long	0x6f0
 5186 0d6c 19        		.uleb128 0x19
GAS LISTING C:\Users\ADMINI~1\AppData\Local\Temp/ccypPrtA.s 			page 94


 5187 0d6d E506 0000 		.long	0x6e5
 5188 0d71 00        		.byte	0x0
 5189 0d72 22        		.uleb128 0x22
 5190 0d73 9206 0000 		.long	0x692
 5191 0d77 0000 0000 		.long	.LBB86
 5192 0d7b 0000 0000 		.long	.LBE86
 5193 0d7f 01        		.byte	0x1
 5194 0d80 CA03      		.word	0x3ca
 5195 0d82 19        		.uleb128 0x19
 5196 0d83 9F06 0000 		.long	0x69f
 5197 0d87 2C        		.uleb128 0x2c
 5198 0d88 0000 0000 		.long	.LBB87
 5199 0d8c 0000 0000 		.long	.LBE87
 5200 0d90 38        		.uleb128 0x38
 5201 0d91 AA06 0000 		.long	0x6aa
 5202 0d95 0000 0000 		.long	.LLST51
 5203 0d99 34        		.uleb128 0x34
 5204 0d9a B506 0000 		.long	0x6b5
 5205 0d9e 35        		.uleb128 0x35
 5206 0d9f 4106 0000 		.long	0x641
 5207 0da3 0000 0000 		.long	.LBB88
 5208 0da7 0000 0000 		.long	.LBE88
 5209 0dab 03        		.byte	0x3
 5210 0dac 7B        		.byte	0x7b
 5211 0dad 21        		.uleb128 0x21
 5212 0dae 4E06 0000 		.long	0x64e
 5213 0db2 0000 0000 		.long	.LLST52
 5214 0db6 00        		.byte	0x0
 5215 0db7 00        		.byte	0x0
 5216 0db8 00        		.byte	0x0
 5217 0db9 00        		.byte	0x0
 5218 0dba 2F        		.uleb128 0x2f
 5219 0dbb 6400 0000 		.long	0x64
 5220 0dbf CA0D 0000 		.long	0xdca
 5221 0dc3 30        		.uleb128 0x30
 5222 0dc4 8609 0000 		.long	0x986
 5223 0dc8 02        		.byte	0x2
 5224 0dc9 00        		.byte	0x0
 5225 0dca 31        		.uleb128 0x31
 5226 0dcb 01        		.byte	0x1
 5227 0dcc 0000 0000 		.long	.LASF278
 5228 0dd0 01        		.byte	0x1
 5229 0dd1 1202      		.word	0x212
 5230 0dd3 01        		.byte	0x1
 5231 0dd4 0000 0000 		.long	.LFB38
 5232 0dd8 0000 0000 		.long	.LFE38
 5233 0ddc 02        		.byte	0x2
 5234 0ddd 90        		.byte	0x90
 5235 0dde 20        		.uleb128 0x20
 5236 0ddf 200E 0000 		.long	0xe20
 5237 0de3 17        		.uleb128 0x17
 5238 0de4 0000 0000 		.long	.LASF268
 5239 0de8 01        		.byte	0x1
 5240 0de9 1302      		.word	0x213
 5241 0deb 7200 0000 		.long	0x72
 5242 0def 17        		.uleb128 0x17
 5243 0df0 0000 0000 		.long	.LASF266
GAS LISTING C:\Users\ADMINI~1\AppData\Local\Temp/ccypPrtA.s 			page 95


 5244 0df4 01        		.byte	0x1
 5245 0df5 1402      		.word	0x214
 5246 0df7 7D00 0000 		.long	0x7d
 5247 0dfb 28        		.uleb128 0x28
 5248 0dfc 6B00      		.string	"k"
 5249 0dfe 01        		.byte	0x1
 5250 0dff 1502      		.word	0x215
 5251 0e01 7200 0000 		.long	0x72
 5252 0e05 28        		.uleb128 0x28
 5253 0e06 6A00      		.string	"j"
 5254 0e08 01        		.byte	0x1
 5255 0e09 1502      		.word	0x215
 5256 0e0b 7200 0000 		.long	0x72
 5257 0e0f 32        		.uleb128 0x32
 5258 0e10 8806 0000 		.long	0x688
 5259 0e14 0000 0000 		.long	.LBB90
 5260 0e18 0000 0000 		.long	.LBE90
 5261 0e1c 01        		.byte	0x1
 5262 0e1d 2302      		.word	0x223
 5263 0e1f 00        		.byte	0x0
 5264 0e20 25        		.uleb128 0x25
 5265 0e21 01        		.byte	0x1
 5266 0e22 0000 0000 		.long	.LASF279
 5267 0e26 01        		.byte	0x1
 5268 0e27 0602      		.word	0x206
 5269 0e29 01        		.byte	0x1
 5270 0e2a 0000 0000 		.long	.LFB37
 5271 0e2e 0000 0000 		.long	.LFE37
 5272 0e32 02        		.byte	0x2
 5273 0e33 90        		.byte	0x90
 5274 0e34 20        		.uleb128 0x20
 5275 0e35 39        		.uleb128 0x39
 5276 0e36 01        		.byte	0x1
 5277 0e37 0000 0000 		.long	.LASF280
 5278 0e3b 01        		.byte	0x1
 5279 0e3c 1C01      		.word	0x11c
 5280 0e3e 01        		.byte	0x1
 5281 0e3f 7200 0000 		.long	0x72
 5282 0e43 0000 0000 		.long	.LFB25
 5283 0e47 0000 0000 		.long	.LFE25
 5284 0e4b 02        		.byte	0x2
 5285 0e4c 90        		.byte	0x90
 5286 0e4d 20        		.uleb128 0x20
 5287 0e4e D70E 0000 		.long	0xed7
 5288 0e52 27        		.uleb128 0x27
 5289 0e53 0000 0000 		.long	.LASF228
 5290 0e57 01        		.byte	0x1
 5291 0e58 1B01      		.word	0x11b
 5292 0e5a 7200 0000 		.long	0x72
 5293 0e5e 0000 0000 		.long	.LLST56
 5294 0e62 27        		.uleb128 0x27
 5295 0e63 0000 0000 		.long	.LASF229
 5296 0e67 01        		.byte	0x1
 5297 0e68 1B01      		.word	0x11b
 5298 0e6a 7200 0000 		.long	0x72
 5299 0e6e 0000 0000 		.long	.LLST57
 5300 0e72 27        		.uleb128 0x27
GAS LISTING C:\Users\ADMINI~1\AppData\Local\Temp/ccypPrtA.s 			page 96


 5301 0e73 0000 0000 		.long	.LASF230
 5302 0e77 01        		.byte	0x1
 5303 0e78 1B01      		.word	0x11b
 5304 0e7a 7200 0000 		.long	0x72
 5305 0e7e 0000 0000 		.long	.LLST58
 5306 0e82 2D        		.uleb128 0x2d
 5307 0e83 0000 0000 		.long	.LASF233
 5308 0e87 01        		.byte	0x1
 5309 0e88 1D01      		.word	0x11d
 5310 0e8a 7200 0000 		.long	0x72
 5311 0e8e 0000 0000 		.long	.LLST59
 5312 0e92 37        		.uleb128 0x37
 5313 0e93 0707 0000 		.long	0x707
 5314 0e97 0000 0000 		.long	.LBB92
 5315 0e9b 0000 0000 		.long	.LBE92
 5316 0e9f 01        		.byte	0x1
 5317 0ea0 2501      		.word	0x125
 5318 0ea2 B60E 0000 		.long	0xeb6
 5319 0ea6 19        		.uleb128 0x19
 5320 0ea7 3107 0000 		.long	0x731
 5321 0eab 19        		.uleb128 0x19
 5322 0eac 2507 0000 		.long	0x725
 5323 0eb0 19        		.uleb128 0x19
 5324 0eb1 1907 0000 		.long	0x719
 5325 0eb5 00        		.byte	0x0
 5326 0eb6 22        		.uleb128 0x22
 5327 0eb7 D406 0000 		.long	0x6d4
 5328 0ebb 0000 0000 		.long	.LBB93
 5329 0ebf 0000 0000 		.long	.LBE93
 5330 0ec3 01        		.byte	0x1
 5331 0ec4 2D01      		.word	0x12d
 5332 0ec6 19        		.uleb128 0x19
 5333 0ec7 FB06 0000 		.long	0x6fb
 5334 0ecb 19        		.uleb128 0x19
 5335 0ecc F006 0000 		.long	0x6f0
 5336 0ed0 19        		.uleb128 0x19
 5337 0ed1 E506 0000 		.long	0x6e5
 5338 0ed5 00        		.byte	0x0
 5339 0ed6 00        		.byte	0x0
 5340 0ed7 39        		.uleb128 0x39
 5341 0ed8 01        		.byte	0x1
 5342 0ed9 0000 0000 		.long	.LASF281
 5343 0edd 01        		.byte	0x1
 5344 0ede 4402      		.word	0x244
 5345 0ee0 01        		.byte	0x1
 5346 0ee1 7200 0000 		.long	0x72
 5347 0ee5 0000 0000 		.long	.LFB40
 5348 0ee9 0000 0000 		.long	.LFE40
 5349 0eed 02        		.byte	0x2
 5350 0eee 90        		.byte	0x90
 5351 0eef 20        		.uleb128 0x20
 5352 0ef0 270F 0000 		.long	0xf27
 5353 0ef4 27        		.uleb128 0x27
 5354 0ef5 0000 0000 		.long	.LASF221
 5355 0ef9 01        		.byte	0x1
 5356 0efa 4402      		.word	0x244
 5357 0efc 7200 0000 		.long	0x72
GAS LISTING C:\Users\ADMINI~1\AppData\Local\Temp/ccypPrtA.s 			page 97


 5358 0f00 0000 0000 		.long	.LLST61
 5359 0f04 17        		.uleb128 0x17
 5360 0f05 0000 0000 		.long	.LASF282
 5361 0f09 01        		.byte	0x1
 5362 0f0a 4702      		.word	0x247
 5363 0f0c 7200 0000 		.long	0x72
 5364 0f10 22        		.uleb128 0x22
 5365 0f11 6806 0000 		.long	0x668
 5366 0f15 0000 0000 		.long	.LBB94
 5367 0f19 0000 0000 		.long	.LBE94
 5368 0f1d 01        		.byte	0x1
 5369 0f1e 4902      		.word	0x249
 5370 0f20 19        		.uleb128 0x19
 5371 0f21 4608 0000 		.long	0x846
 5372 0f25 00        		.byte	0x0
 5373 0f26 00        		.byte	0x0
 5374 0f27 1C        		.uleb128 0x1c
 5375 0f28 01        		.byte	0x1
 5376 0f29 0000 0000 		.long	.LASF283
 5377 0f2d 01        		.byte	0x1
 5378 0f2e C8        		.byte	0xc8
 5379 0f2f 01        		.byte	0x1
 5380 0f30 0000 0000 		.long	.LFB17
 5381 0f34 0000 0000 		.long	.LFE17
 5382 0f38 02        		.byte	0x2
 5383 0f39 90        		.byte	0x90
 5384 0f3a 20        		.uleb128 0x20
 5385 0f3b 5E0F 0000 		.long	0xf5e
 5386 0f3f 3A        		.uleb128 0x3a
 5387 0f40 5A06 0000 		.long	0x65a
 5388 0f44 0000 0000 		.long	.LBB96
 5389 0f48 0000 0000 		.long	.LBE96
 5390 0f4c 01        		.byte	0x1
 5391 0f4d C9        		.byte	0xc9
 5392 0f4e 3A        		.uleb128 0x3a
 5393 0f4f 8B07 0000 		.long	0x78b
 5394 0f53 0000 0000 		.long	.LBB98
 5395 0f57 0000 0000 		.long	.LBE98
 5396 0f5b 01        		.byte	0x1
 5397 0f5c CA        		.byte	0xca
 5398 0f5d 00        		.byte	0x0
 5399 0f5e 1C        		.uleb128 0x1c
 5400 0f5f 01        		.byte	0x1
 5401 0f60 0000 0000 		.long	.LASF284
 5402 0f64 01        		.byte	0x1
 5403 0f65 93        		.byte	0x93
 5404 0f66 01        		.byte	0x1
 5405 0f67 0000 0000 		.long	.LFB12
 5406 0f6b 0000 0000 		.long	.LFE12
 5407 0f6f 02        		.byte	0x2
 5408 0f70 90        		.byte	0x90
 5409 0f71 20        		.uleb128 0x20
 5410 0f72 860F 0000 		.long	0xf86
 5411 0f76 3A        		.uleb128 0x3a
 5412 0f77 9407 0000 		.long	0x794
 5413 0f7b 0000 0000 		.long	.LBB100
 5414 0f7f 0000 0000 		.long	.LBE100
GAS LISTING C:\Users\ADMINI~1\AppData\Local\Temp/ccypPrtA.s 			page 98


 5415 0f83 01        		.byte	0x1
 5416 0f84 94        		.byte	0x94
 5417 0f85 00        		.byte	0x0
 5418 0f86 1F        		.uleb128 0x1f
 5419 0f87 01        		.byte	0x1
 5420 0f88 0000 0000 		.long	.LASF285
 5421 0f8c 01        		.byte	0x1
 5422 0f8d D8        		.byte	0xd8
 5423 0f8e 01        		.byte	0x1
 5424 0f8f 0000 0000 		.long	.LFB19
 5425 0f93 0000 0000 		.long	.LFE19
 5426 0f97 02        		.byte	0x2
 5427 0f98 90        		.byte	0x90
 5428 0f99 20        		.uleb128 0x20
 5429 0f9a 1F        		.uleb128 0x1f
 5430 0f9b 01        		.byte	0x1
 5431 0f9c 0000 0000 		.long	.LASF286
 5432 0fa0 01        		.byte	0x1
 5433 0fa1 E0        		.byte	0xe0
 5434 0fa2 01        		.byte	0x1
 5435 0fa3 0000 0000 		.long	.LFB20
 5436 0fa7 0000 0000 		.long	.LFE20
 5437 0fab 02        		.byte	0x2
 5438 0fac 90        		.byte	0x90
 5439 0fad 20        		.uleb128 0x20
 5440 0fae 1F        		.uleb128 0x1f
 5441 0faf 01        		.byte	0x1
 5442 0fb0 0000 0000 		.long	.LASF287
 5443 0fb4 01        		.byte	0x1
 5444 0fb5 B5        		.byte	0xb5
 5445 0fb6 01        		.byte	0x1
 5446 0fb7 0000 0000 		.long	.LFB16
 5447 0fbb 0000 0000 		.long	.LFE16
 5448 0fbf 02        		.byte	0x2
 5449 0fc0 90        		.byte	0x90
 5450 0fc1 20        		.uleb128 0x20
 5451 0fc2 3B        		.uleb128 0x3b
 5452 0fc3 0000 0000 		.long	.LASF288
 5453 0fc7 01        		.byte	0x1
 5454 0fc8 46        		.byte	0x46
 5455 0fc9 7200 0000 		.long	0x72
 5456 0fcd 05        		.byte	0x5
 5457 0fce 03        		.byte	0x3
 5458 0fcf 0000 0000 		.long	_isKeyMapping
 5459 0fd3 3B        		.uleb128 0x3b
 5460 0fd4 0000 0000 		.long	.LASF289
 5461 0fd8 01        		.byte	0x1
 5462 0fd9 47        		.byte	0x47
 5463 0fda 7200 0000 		.long	0x72
 5464 0fde 05        		.byte	0x5
 5465 0fdf 03        		.byte	0x3
 5466 0fe0 0000 0000 		.long	enabledKeyMappingCount
 5467 0fe4 3B        		.uleb128 0x3b
 5468 0fe5 0000 0000 		.long	.LASF290
 5469 0fe9 01        		.byte	0x1
 5470 0fea 48        		.byte	0x48
 5471 0feb 6B00 0000 		.long	0x6b
GAS LISTING C:\Users\ADMINI~1\AppData\Local\Temp/ccypPrtA.s 			page 99


 5472 0fef 05        		.byte	0x5
 5473 0ff0 03        		.byte	0x3
 5474 0ff1 0000 0000 		.long	keyMappingCount
 5475 0ff5 3B        		.uleb128 0x3b
 5476 0ff6 0000 0000 		.long	.LASF291
 5477 0ffa 01        		.byte	0x1
 5478 0ffb 49        		.byte	0x49
 5479 0ffc 6B00 0000 		.long	0x6b
 5480 1000 05        		.byte	0x5
 5481 1001 03        		.byte	0x3
 5482 1002 0000 0000 		.long	keyMappingCountMax
 5483 1006 3B        		.uleb128 0x3b
 5484 1007 0000 0000 		.long	.LASF292
 5485 100b 01        		.byte	0x1
 5486 100c 4A        		.byte	0x4a
 5487 100d 7200 0000 		.long	0x72
 5488 1011 05        		.byte	0x5
 5489 1012 03        		.byte	0x3
 5490 1013 0000 0000 		.long	_keyMappingOnBoot
 5491 1017 3B        		.uleb128 0x3b
 5492 1018 0000 0000 		.long	.LASF293
 5493 101c 01        		.byte	0x1
 5494 101d 54        		.byte	0x54
 5495 101e 7200 0000 		.long	0x72
 5496 1022 05        		.byte	0x5
 5497 1023 03        		.byte	0x3
 5498 1024 0000 0000 		.long	_mode
 5499 1028 3B        		.uleb128 0x3b
 5500 1029 0000 0000 		.long	.LASF294
 5501 102d 01        		.byte	0x1
 5502 102e 55        		.byte	0x55
 5503 102f 7200 0000 		.long	0x72
 5504 1033 05        		.byte	0x5
 5505 1034 03        		.byte	0x3
 5506 1035 0000 0000 		.long	_step
 5507 1039 3B        		.uleb128 0x3b
 5508 103a 0000 0000 		.long	.LASF295
 5509 103e 01        		.byte	0x1
 5510 103f 56        		.byte	0x56
 5511 1040 7200 0000 		.long	0x72
 5512 1044 05        		.byte	0x5
 5513 1045 03        		.byte	0x3
 5514 1046 0000 0000 		.long	_stepAfterLayerSave
 5515 104a 3B        		.uleb128 0x3b
 5516 104b 0000 0000 		.long	.LASF296
 5517 104f 01        		.byte	0x1
 5518 1050 57        		.byte	0x57
 5519 1051 7200 0000 		.long	0x72
 5520 1055 05        		.byte	0x5
 5521 1056 03        		.byte	0x3
 5522 1057 0000 0000 		.long	_wait
 5523 105b 3B        		.uleb128 0x3b
 5524 105c 0000 0000 		.long	.LASF297
 5525 1060 01        		.byte	0x1
 5526 1061 58        		.byte	0x58
 5527 1062 7200 0000 		.long	0x72
 5528 1066 05        		.byte	0x5
GAS LISTING C:\Users\ADMINI~1\AppData\Local\Temp/ccypPrtA.s 			page 100


 5529 1067 03        		.byte	0x3
 5530 1068 0000 0000 		.long	_col
 5531 106c 3B        		.uleb128 0x3b
 5532 106d 0000 0000 		.long	.LASF298
 5533 1071 01        		.byte	0x1
 5534 1072 58        		.byte	0x58
 5535 1073 7200 0000 		.long	0x72
 5536 1077 05        		.byte	0x5
 5537 1078 03        		.byte	0x3
 5538 1079 0000 0000 		.long	_row
 5539 107d 2F        		.uleb128 0x2f
 5540 107e 7200 0000 		.long	0x72
 5541 1082 8D10 0000 		.long	0x108d
 5542 1086 30        		.uleb128 0x30
 5543 1087 8609 0000 		.long	0x986
 5544 108b 02        		.byte	0x2
 5545 108c 00        		.byte	0x0
 5546 108d 3B        		.uleb128 0x3b
 5547 108e 0000 0000 		.long	.LASF299
 5548 1092 01        		.byte	0x1
 5549 1093 59        		.byte	0x59
 5550 1094 7D10 0000 		.long	0x107d
 5551 1098 05        		.byte	0x5
 5552 1099 03        		.byte	0x3
 5553 109a 0000 0000 		.long	_buffer
 5554 109e 3B        		.uleb128 0x3b
 5555 109f 0000 0000 		.long	.LASF300
 5556 10a3 01        		.byte	0x1
 5557 10a4 5A        		.byte	0x5a
 5558 10a5 7200 0000 		.long	0x72
 5559 10a9 05        		.byte	0x5
 5560 10aa 03        		.byte	0x3
 5561 10ab 0000 0000 		.long	_bufferIndex
 5562 10af 3B        		.uleb128 0x3b
 5563 10b0 0000 0000 		.long	.LASF301
 5564 10b4 01        		.byte	0x1
 5565 10b5 5B        		.byte	0x5b
 5566 10b6 6B00 0000 		.long	0x6b
 5567 10ba 05        		.byte	0x5
 5568 10bb 03        		.byte	0x3
 5569 10bc 0000 0000 		.long	_editCount
 5570 10c0 3B        		.uleb128 0x3b
 5571 10c1 0000 0000 		.long	.LASF302
 5572 10c5 01        		.byte	0x1
 5573 10c6 5C        		.byte	0x5c
 5574 10c7 7200 0000 		.long	0x72
 5575 10cb 05        		.byte	0x5
 5576 10cc 03        		.byte	0x3
 5577 10cd 0000 0000 		.long	_isWorkingForEmpty
 5578 10d1 3B        		.uleb128 0x3b
 5579 10d2 0000 0000 		.long	.LASF303
 5580 10d6 01        		.byte	0x1
 5581 10d7 60        		.byte	0x60
 5582 10d8 7200 0000 		.long	0x72
 5583 10dc 05        		.byte	0x5
 5584 10dd 03        		.byte	0x3
 5585 10de 0000 0000 		.long	_currentLayer
GAS LISTING C:\Users\ADMINI~1\AppData\Local\Temp/ccypPrtA.s 			page 101


 5586 10e2 3B        		.uleb128 0x3b
 5587 10e3 0000 0000 		.long	.LASF304
 5588 10e7 01        		.byte	0x1
 5589 10e8 61        		.byte	0x61
 5590 10e9 7200 0000 		.long	0x72
 5591 10ed 05        		.byte	0x5
 5592 10ee 03        		.byte	0x3
 5593 10ef 0000 0000 		.long	_currentLayerAfter
 5594 10f3 2F        		.uleb128 0x2f
 5595 10f4 7200 0000 		.long	0x72
 5596 10f8 0311 0000 		.long	0x1103
 5597 10fc 30        		.uleb128 0x30
 5598 10fd 8609 0000 		.long	0x986
 5599 1101 0A        		.byte	0xa
 5600 1102 00        		.byte	0x0
 5601 1103 3B        		.uleb128 0x3b
 5602 1104 0000 0000 		.long	.LASF305
 5603 1108 01        		.byte	0x1
 5604 1109 64        		.byte	0x64
 5605 110a F310 0000 		.long	0x10f3
 5606 110e 05        		.byte	0x5
 5607 110f 03        		.byte	0x3
 5608 1110 0000 0000 		.long	usingKeys
 5609 1114 2B        		.uleb128 0x2b
 5610 1115 0000 0000 		.long	.LASF306
 5611 1119 01        		.byte	0x1
 5612 111a A902      		.word	0x2a9
 5613 111c 7200 0000 		.long	0x72
 5614 1120 05        		.byte	0x5
 5615 1121 03        		.byte	0x3
 5616 1122 0000 0000 		.long	_macroDownCount
 5617 1126 3C        		.uleb128 0x3c
 5618 1127 0000 0000 		.long	.LASF307
 5619 112b 07        		.byte	0x7
 5620 112c 40        		.byte	0x40
 5621 112d 7200 0000 		.long	0x72
 5622 1131 01        		.byte	0x1
 5623 1132 01        		.byte	0x1
 5624 1133 2F        		.uleb128 0x2f
 5625 1134 6400 0000 		.long	0x64
 5626 1138 4311 0000 		.long	0x1143
 5627 113c 30        		.uleb128 0x30
 5628 113d 8609 0000 		.long	0x986
 5629 1141 0B        		.byte	0xb
 5630 1142 00        		.byte	0x0
 5631 1143 3D        		.uleb128 0x3d
 5632 1144 0000 0000 		.long	.LASF308
 5633 1148 01        		.byte	0x1
 5634 1149 1A        		.byte	0x1a
 5635 114a 5511 0000 		.long	0x1155
 5636 114e 01        		.byte	0x1
 5637 114f 05        		.byte	0x5
 5638 1150 03        		.byte	0x3
 5639 1151 0000 0000 		.long	str_select_mode
 5640 1155 2E        		.uleb128 0x2e
 5641 1156 3311 0000 		.long	0x1133
 5642 115a 2F        		.uleb128 0x2f
GAS LISTING C:\Users\ADMINI~1\AppData\Local\Temp/ccypPrtA.s 			page 102


 5643 115b 6400 0000 		.long	0x64
 5644 115f 6A11 0000 		.long	0x116a
 5645 1163 30        		.uleb128 0x30
 5646 1164 8609 0000 		.long	0x986
 5647 1168 0D        		.byte	0xd
 5648 1169 00        		.byte	0x0
 5649 116a 3D        		.uleb128 0x3d
 5650 116b 0000 0000 		.long	.LASF309
 5651 116f 01        		.byte	0x1
 5652 1170 1B        		.byte	0x1b
 5653 1171 7C11 0000 		.long	0x117c
 5654 1175 01        		.byte	0x1
 5655 1176 05        		.byte	0x5
 5656 1177 03        		.byte	0x3
 5657 1178 0000 0000 		.long	str_select_mode1
 5658 117c 2E        		.uleb128 0x2e
 5659 117d 5A11 0000 		.long	0x115a
 5660 1181 2F        		.uleb128 0x2f
 5661 1182 6400 0000 		.long	0x64
 5662 1186 9111 0000 		.long	0x1191
 5663 118a 30        		.uleb128 0x30
 5664 118b 8609 0000 		.long	0x986
 5665 118f 07        		.byte	0x7
 5666 1190 00        		.byte	0x0
 5667 1191 3D        		.uleb128 0x3d
 5668 1192 0000 0000 		.long	.LASF310
 5669 1196 01        		.byte	0x1
 5670 1197 1C        		.byte	0x1c
 5671 1198 A311 0000 		.long	0x11a3
 5672 119c 01        		.byte	0x1
 5673 119d 05        		.byte	0x5
 5674 119e 03        		.byte	0x3
 5675 119f 0000 0000 		.long	str_select_mode2
 5676 11a3 2E        		.uleb128 0x2e
 5677 11a4 8111 0000 		.long	0x1181
 5678 11a8 2F        		.uleb128 0x2f
 5679 11a9 6400 0000 		.long	0x64
 5680 11ad B811 0000 		.long	0x11b8
 5681 11b1 30        		.uleb128 0x30
 5682 11b2 8609 0000 		.long	0x986
 5683 11b6 06        		.byte	0x6
 5684 11b7 00        		.byte	0x0
 5685 11b8 3D        		.uleb128 0x3d
 5686 11b9 0000 0000 		.long	.LASF311
 5687 11bd 01        		.byte	0x1
 5688 11be 1D        		.byte	0x1d
 5689 11bf CA11 0000 		.long	0x11ca
 5690 11c3 01        		.byte	0x1
 5691 11c4 05        		.byte	0x5
 5692 11c5 03        		.byte	0x3
 5693 11c6 0000 0000 		.long	str_select_mode3
 5694 11ca 2E        		.uleb128 0x2e
 5695 11cb A811 0000 		.long	0x11a8
 5696 11cf 3D        		.uleb128 0x3d
 5697 11d0 0000 0000 		.long	.LASF312
 5698 11d4 01        		.byte	0x1
 5699 11d5 1E        		.byte	0x1e
GAS LISTING C:\Users\ADMINI~1\AppData\Local\Temp/ccypPrtA.s 			page 103


 5700 11d6 E111 0000 		.long	0x11e1
 5701 11da 01        		.byte	0x1
 5702 11db 05        		.byte	0x5
 5703 11dc 03        		.byte	0x3
 5704 11dd 0000 0000 		.long	str_select_mode4
 5705 11e1 2E        		.uleb128 0x2e
 5706 11e2 5A11 0000 		.long	0x115a
 5707 11e6 2F        		.uleb128 0x2f
 5708 11e7 6400 0000 		.long	0x64
 5709 11eb F611 0000 		.long	0x11f6
 5710 11ef 30        		.uleb128 0x30
 5711 11f0 8609 0000 		.long	0x986
 5712 11f4 09        		.byte	0x9
 5713 11f5 00        		.byte	0x0
 5714 11f6 3D        		.uleb128 0x3d
 5715 11f7 0000 0000 		.long	.LASF313
 5716 11fb 01        		.byte	0x1
 5717 11fc 1F        		.byte	0x1f
 5718 11fd 0812 0000 		.long	0x1208
 5719 1201 01        		.byte	0x1
 5720 1202 05        		.byte	0x5
 5721 1203 03        		.byte	0x3
 5722 1204 0000 0000 		.long	str_exit
 5723 1208 2E        		.uleb128 0x2e
 5724 1209 E611 0000 		.long	0x11e6
 5725 120d 2F        		.uleb128 0x2f
 5726 120e 6400 0000 		.long	0x64
 5727 1212 1D12 0000 		.long	0x121d
 5728 1216 30        		.uleb128 0x30
 5729 1217 8609 0000 		.long	0x986
 5730 121b 12        		.byte	0x12
 5731 121c 00        		.byte	0x0
 5732 121d 3D        		.uleb128 0x3d
 5733 121e 0000 0000 		.long	.LASF314
 5734 1222 01        		.byte	0x1
 5735 1223 20        		.byte	0x20
 5736 1224 2F12 0000 		.long	0x122f
 5737 1228 01        		.byte	0x1
 5738 1229 05        		.byte	0x5
 5739 122a 03        		.byte	0x3
 5740 122b 0000 0000 		.long	str_boot_mapper
 5741 122f 2E        		.uleb128 0x2e
 5742 1230 0D12 0000 		.long	0x120d
 5743 1234 2F        		.uleb128 0x2f
 5744 1235 6400 0000 		.long	0x64
 5745 1239 4412 0000 		.long	0x1244
 5746 123d 30        		.uleb128 0x30
 5747 123e 8609 0000 		.long	0x986
 5748 1242 05        		.byte	0x5
 5749 1243 00        		.byte	0x0
 5750 1244 3D        		.uleb128 0x3d
 5751 1245 0000 0000 		.long	.LASF315
 5752 1249 01        		.byte	0x1
 5753 124a 22        		.byte	0x22
 5754 124b 5612 0000 		.long	0x1256
 5755 124f 01        		.byte	0x1
 5756 1250 05        		.byte	0x5
GAS LISTING C:\Users\ADMINI~1\AppData\Local\Temp/ccypPrtA.s 			page 104


 5757 1251 03        		.byte	0x3
 5758 1252 0000 0000 		.long	str_macro_message
 5759 1256 2E        		.uleb128 0x2e
 5760 1257 3412 0000 		.long	0x1234
 5761 125b 2F        		.uleb128 0x2f
 5762 125c 6400 0000 		.long	0x64
 5763 1260 6B12 0000 		.long	0x126b
 5764 1264 30        		.uleb128 0x30
 5765 1265 8609 0000 		.long	0x986
 5766 1269 14        		.byte	0x14
 5767 126a 00        		.byte	0x0
 5768 126b 3D        		.uleb128 0x3d
 5769 126c 0000 0000 		.long	.LASF316
 5770 1270 01        		.byte	0x1
 5771 1271 23        		.byte	0x23
 5772 1272 7D12 0000 		.long	0x127d
 5773 1276 01        		.byte	0x1
 5774 1277 05        		.byte	0x5
 5775 1278 03        		.byte	0x3
 5776 1279 0000 0000 		.long	str_macro_1
 5777 127d 2E        		.uleb128 0x2e
 5778 127e 5B12 0000 		.long	0x125b
 5779 1282 3D        		.uleb128 0x3d
 5780 1283 0000 0000 		.long	.LASF317
 5781 1287 01        		.byte	0x1
 5782 1288 24        		.byte	0x24
 5783 1289 9412 0000 		.long	0x1294
 5784 128d 01        		.byte	0x1
 5785 128e 05        		.byte	0x5
 5786 128f 03        		.byte	0x3
 5787 1290 0000 0000 		.long	str_macro_2
 5788 1294 2E        		.uleb128 0x2e
 5789 1295 A811 0000 		.long	0x11a8
 5790 1299 3D        		.uleb128 0x3d
 5791 129a 0000 0000 		.long	.LASF318
 5792 129e 01        		.byte	0x1
 5793 129f 25        		.byte	0x25
 5794 12a0 AB12 0000 		.long	0x12ab
 5795 12a4 01        		.byte	0x1
 5796 12a5 05        		.byte	0x5
 5797 12a6 03        		.byte	0x3
 5798 12a7 0000 0000 		.long	str_macro_9
 5799 12ab 2E        		.uleb128 0x2e
 5800 12ac 3311 0000 		.long	0x1133
 5801 12b0 3D        		.uleb128 0x3d
 5802 12b1 0000 0000 		.long	.LASF319
 5803 12b5 01        		.byte	0x1
 5804 12b6 27        		.byte	0x27
 5805 12b7 C212 0000 		.long	0x12c2
 5806 12bb 01        		.byte	0x1
 5807 12bc 05        		.byte	0x5
 5808 12bd 03        		.byte	0x3
 5809 12be 0000 0000 		.long	str_back_6
 5810 12c2 2E        		.uleb128 0x2e
 5811 12c3 A811 0000 		.long	0x11a8
 5812 12c7 2F        		.uleb128 0x2f
 5813 12c8 6400 0000 		.long	0x64
GAS LISTING C:\Users\ADMINI~1\AppData\Local\Temp/ccypPrtA.s 			page 105


 5814 12cc D712 0000 		.long	0x12d7
 5815 12d0 30        		.uleb128 0x30
 5816 12d1 8609 0000 		.long	0x986
 5817 12d5 0A        		.byte	0xa
 5818 12d6 00        		.byte	0x0
 5819 12d7 3D        		.uleb128 0x3d
 5820 12d8 0000 0000 		.long	.LASF320
 5821 12dc 01        		.byte	0x1
 5822 12dd 29        		.byte	0x29
 5823 12de E912 0000 		.long	0x12e9
 5824 12e2 01        		.byte	0x1
 5825 12e3 05        		.byte	0x5
 5826 12e4 03        		.byte	0x3
 5827 12e5 0000 0000 		.long	str_mapper_message
 5828 12e9 2E        		.uleb128 0x2e
 5829 12ea C712 0000 		.long	0x12c7
 5830 12ee 2F        		.uleb128 0x2f
 5831 12ef 6400 0000 		.long	0x64
 5832 12f3 FE12 0000 		.long	0x12fe
 5833 12f7 30        		.uleb128 0x30
 5834 12f8 8609 0000 		.long	0x986
 5835 12fc 0E        		.byte	0xe
 5836 12fd 00        		.byte	0x0
 5837 12fe 3D        		.uleb128 0x3d
 5838 12ff 0000 0000 		.long	.LASF321
 5839 1303 01        		.byte	0x1
 5840 1304 2A        		.byte	0x2a
 5841 1305 1013 0000 		.long	0x1310
 5842 1309 01        		.byte	0x1
 5843 130a 05        		.byte	0x5
 5844 130b 03        		.byte	0x3
 5845 130c 0000 0000 		.long	str_mapper_1
 5846 1310 2E        		.uleb128 0x2e
 5847 1311 EE12 0000 		.long	0x12ee
 5848 1315 2F        		.uleb128 0x2f
 5849 1316 6400 0000 		.long	0x64
 5850 131a 2513 0000 		.long	0x1325
 5851 131e 30        		.uleb128 0x30
 5852 131f 8609 0000 		.long	0x986
 5853 1323 1C        		.byte	0x1c
 5854 1324 00        		.byte	0x0
 5855 1325 3D        		.uleb128 0x3d
 5856 1326 0000 0000 		.long	.LASF322
 5857 132a 01        		.byte	0x1
 5858 132b 2B        		.byte	0x2b
 5859 132c 3713 0000 		.long	0x1337
 5860 1330 01        		.byte	0x1
 5861 1331 05        		.byte	0x5
 5862 1332 03        		.byte	0x3
 5863 1333 0000 0000 		.long	str_mapper_2
 5864 1337 2E        		.uleb128 0x2e
 5865 1338 1513 0000 		.long	0x1315
 5866 133c 2F        		.uleb128 0x2f
 5867 133d 6400 0000 		.long	0x64
 5868 1341 4C13 0000 		.long	0x134c
 5869 1345 30        		.uleb128 0x30
 5870 1346 8609 0000 		.long	0x986
GAS LISTING C:\Users\ADMINI~1\AppData\Local\Temp/ccypPrtA.s 			page 106


 5871 134a 0F        		.byte	0xf
 5872 134b 00        		.byte	0x0
 5873 134c 3D        		.uleb128 0x3d
 5874 134d 0000 0000 		.long	.LASF323
 5875 1351 01        		.byte	0x1
 5876 1352 2C        		.byte	0x2c
 5877 1353 5E13 0000 		.long	0x135e
 5878 1357 01        		.byte	0x1
 5879 1358 05        		.byte	0x5
 5880 1359 03        		.byte	0x3
 5881 135a 0000 0000 		.long	str_mapper_3
 5882 135e 2E        		.uleb128 0x2e
 5883 135f 3C13 0000 		.long	0x133c
 5884 1363 2F        		.uleb128 0x2f
 5885 1364 6400 0000 		.long	0x64
 5886 1368 7313 0000 		.long	0x1373
 5887 136c 30        		.uleb128 0x30
 5888 136d 8609 0000 		.long	0x986
 5889 1371 15        		.byte	0x15
 5890 1372 00        		.byte	0x0
 5891 1373 3D        		.uleb128 0x3d
 5892 1374 0000 0000 		.long	.LASF324
 5893 1378 01        		.byte	0x1
 5894 1379 2D        		.byte	0x2d
 5895 137a 8513 0000 		.long	0x1385
 5896 137e 01        		.byte	0x1
 5897 137f 05        		.byte	0x5
 5898 1380 03        		.byte	0x3
 5899 1381 0000 0000 		.long	str_mapper_4
 5900 1385 2E        		.uleb128 0x2e
 5901 1386 6313 0000 		.long	0x1363
 5902 138a 2F        		.uleb128 0x2f
 5903 138b 6400 0000 		.long	0x64
 5904 138f 9A13 0000 		.long	0x139a
 5905 1393 30        		.uleb128 0x30
 5906 1394 8609 0000 		.long	0x986
 5907 1398 22        		.byte	0x22
 5908 1399 00        		.byte	0x0
 5909 139a 3D        		.uleb128 0x3d
 5910 139b 0000 0000 		.long	.LASF325
 5911 139f 01        		.byte	0x1
 5912 13a0 2E        		.byte	0x2e
 5913 13a1 AC13 0000 		.long	0x13ac
 5914 13a5 01        		.byte	0x1
 5915 13a6 05        		.byte	0x5
 5916 13a7 03        		.byte	0x3
 5917 13a8 0000 0000 		.long	str_mapper_9
 5918 13ac 2E        		.uleb128 0x2e
 5919 13ad 8A13 0000 		.long	0x138a
 5920 13b1 3D        		.uleb128 0x3d
 5921 13b2 0000 0000 		.long	.LASF326
 5922 13b6 01        		.byte	0x1
 5923 13b7 30        		.byte	0x30
 5924 13b8 C313 0000 		.long	0x13c3
 5925 13bc 01        		.byte	0x1
 5926 13bd 05        		.byte	0x5
 5927 13be 03        		.byte	0x3
GAS LISTING C:\Users\ADMINI~1\AppData\Local\Temp/ccypPrtA.s 			page 107


 5928 13bf 0000 0000 		.long	str_prepare_message
 5929 13c3 2E        		.uleb128 0x2e
 5930 13c4 8111 0000 		.long	0x1181
 5931 13c8 2F        		.uleb128 0x2f
 5932 13c9 6400 0000 		.long	0x64
 5933 13cd D813 0000 		.long	0x13d8
 5934 13d1 30        		.uleb128 0x30
 5935 13d2 8609 0000 		.long	0x986
 5936 13d6 31        		.byte	0x31
 5937 13d7 00        		.byte	0x0
 5938 13d8 3D        		.uleb128 0x3d
 5939 13d9 0000 0000 		.long	.LASF327
 5940 13dd 01        		.byte	0x1
 5941 13de 31        		.byte	0x31
 5942 13df EA13 0000 		.long	0x13ea
 5943 13e3 01        		.byte	0x1
 5944 13e4 05        		.byte	0x5
 5945 13e5 03        		.byte	0x3
 5946 13e6 0000 0000 		.long	str_choose_layer
 5947 13ea 2E        		.uleb128 0x2e
 5948 13eb C813 0000 		.long	0x13c8
 5949 13ef 2F        		.uleb128 0x2f
 5950 13f0 6400 0000 		.long	0x64
 5951 13f4 FF13 0000 		.long	0x13ff
 5952 13f8 30        		.uleb128 0x30
 5953 13f9 8609 0000 		.long	0x986
 5954 13fd 1E        		.byte	0x1e
 5955 13fe 00        		.byte	0x0
 5956 13ff 3D        		.uleb128 0x3d
 5957 1400 0000 0000 		.long	.LASF328
 5958 1404 01        		.byte	0x1
 5959 1405 32        		.byte	0x32
 5960 1406 1114 0000 		.long	0x1411
 5961 140a 01        		.byte	0x1
 5962 140b 05        		.byte	0x5
 5963 140c 03        		.byte	0x3
 5964 140d 0000 0000 		.long	str_choose_key
 5965 1411 2E        		.uleb128 0x2e
 5966 1412 EF13 0000 		.long	0x13ef
 5967 1416 2F        		.uleb128 0x2f
 5968 1417 6400 0000 		.long	0x64
 5969 141b 2614 0000 		.long	0x1426
 5970 141f 30        		.uleb128 0x30
 5971 1420 8609 0000 		.long	0x986
 5972 1424 21        		.byte	0x21
 5973 1425 00        		.byte	0x0
 5974 1426 3D        		.uleb128 0x3d
 5975 1427 0000 0000 		.long	.LASF329
 5976 142b 01        		.byte	0x1
 5977 142c 33        		.byte	0x33
 5978 142d 3814 0000 		.long	0x1438
 5979 1431 01        		.byte	0x1
 5980 1432 05        		.byte	0x5
 5981 1433 03        		.byte	0x3
 5982 1434 0000 0000 		.long	str_input_keycode
 5983 1438 2E        		.uleb128 0x2e
 5984 1439 1614 0000 		.long	0x1416
GAS LISTING C:\Users\ADMINI~1\AppData\Local\Temp/ccypPrtA.s 			page 108


 5985 143d 2F        		.uleb128 0x2f
 5986 143e 6400 0000 		.long	0x64
 5987 1442 4D14 0000 		.long	0x144d
 5988 1446 30        		.uleb128 0x30
 5989 1447 8609 0000 		.long	0x986
 5990 144b 17        		.byte	0x17
 5991 144c 00        		.byte	0x0
 5992 144d 3D        		.uleb128 0x3d
 5993 144e 0000 0000 		.long	.LASF330
 5994 1452 01        		.byte	0x1
 5995 1453 34        		.byte	0x34
 5996 1454 5F14 0000 		.long	0x145f
 5997 1458 01        		.byte	0x1
 5998 1459 05        		.byte	0x5
 5999 145a 03        		.byte	0x3
 6000 145b 0000 0000 		.long	str_save_end_mapping
 6001 145f 2E        		.uleb128 0x2e
 6002 1460 3D14 0000 		.long	0x143d
 6003 1464 2F        		.uleb128 0x2f
 6004 1465 6400 0000 		.long	0x64
 6005 1469 7414 0000 		.long	0x1474
 6006 146d 30        		.uleb128 0x30
 6007 146e 8609 0000 		.long	0x986
 6008 1472 23        		.byte	0x23
 6009 1473 00        		.byte	0x0
 6010 1474 3D        		.uleb128 0x3d
 6011 1475 0000 0000 		.long	.LASF331
 6012 1479 01        		.byte	0x1
 6013 147a 35        		.byte	0x35
 6014 147b 8614 0000 		.long	0x1486
 6015 147f 01        		.byte	0x1
 6016 1480 05        		.byte	0x5
 6017 1481 03        		.byte	0x3
 6018 1482 0000 0000 		.long	str_cancel_mapping
 6019 1486 2E        		.uleb128 0x2e
 6020 1487 6414 0000 		.long	0x1464
 6021 148b 3D        		.uleb128 0x3d
 6022 148c 0000 0000 		.long	.LASF332
 6023 1490 01        		.byte	0x1
 6024 1491 36        		.byte	0x36
 6025 1492 9D14 0000 		.long	0x149d
 6026 1496 01        		.byte	0x1
 6027 1497 05        		.byte	0x5
 6028 1498 03        		.byte	0x3
 6029 1499 0000 0000 		.long	str_reset_mapping
 6030 149d 2E        		.uleb128 0x2e
 6031 149e EF13 0000 		.long	0x13ef
 6032 14a2 2F        		.uleb128 0x2f
 6033 14a3 6400 0000 		.long	0x64
 6034 14a7 B214 0000 		.long	0x14b2
 6035 14ab 30        		.uleb128 0x30
 6036 14ac 8609 0000 		.long	0x986
 6037 14b0 16        		.byte	0x16
 6038 14b1 00        		.byte	0x0
 6039 14b2 3D        		.uleb128 0x3d
 6040 14b3 0000 0000 		.long	.LASF333
 6041 14b7 01        		.byte	0x1
GAS LISTING C:\Users\ADMINI~1\AppData\Local\Temp/ccypPrtA.s 			page 109


 6042 14b8 37        		.byte	0x37
 6043 14b9 C414 0000 		.long	0x14c4
 6044 14bd 01        		.byte	0x1
 6045 14be 05        		.byte	0x5
 6046 14bf 03        		.byte	0x3
 6047 14c0 0000 0000 		.long	str_input_command
 6048 14c4 2E        		.uleb128 0x2e
 6049 14c5 A214 0000 		.long	0x14a2
 6050 14c9 3D        		.uleb128 0x3d
 6051 14ca 0000 0000 		.long	.LASF334
 6052 14ce 01        		.byte	0x1
 6053 14cf 38        		.byte	0x38
 6054 14d0 DB14 0000 		.long	0x14db
 6055 14d4 01        		.byte	0x1
 6056 14d5 05        		.byte	0x5
 6057 14d6 03        		.byte	0x3
 6058 14d7 0000 0000 		.long	str_nothing
 6059 14db 2E        		.uleb128 0x2e
 6060 14dc 8111 0000 		.long	0x1181
 6061 14e0 3D        		.uleb128 0x3d
 6062 14e1 0000 0000 		.long	.LASF335
 6063 14e5 01        		.byte	0x1
 6064 14e6 39        		.byte	0x39
 6065 14e7 F214 0000 		.long	0x14f2
 6066 14eb 01        		.byte	0x1
 6067 14ec 05        		.byte	0x5
 6068 14ed 03        		.byte	0x3
 6069 14ee 0000 0000 		.long	str_save_layer
 6070 14f2 2E        		.uleb128 0x2e
 6071 14f3 0D12 0000 		.long	0x120d
 6072 14f7 3D        		.uleb128 0x3d
 6073 14f8 0000 0000 		.long	.LASF336
 6074 14fc 01        		.byte	0x1
 6075 14fd 3A        		.byte	0x3a
 6076 14fe 0915 0000 		.long	0x1509
 6077 1502 01        		.byte	0x1
 6078 1503 05        		.byte	0x5
 6079 1504 03        		.byte	0x3
 6080 1505 0000 0000 		.long	str_load_layer
 6081 1509 2E        		.uleb128 0x2e
 6082 150a 0D12 0000 		.long	0x120d
 6083 150e 3D        		.uleb128 0x3d
 6084 150f 0000 0000 		.long	.LASF337
 6085 1513 01        		.byte	0x1
 6086 1514 3B        		.byte	0x3b
 6087 1515 2015 0000 		.long	0x1520
 6088 1519 01        		.byte	0x1
 6089 151a 05        		.byte	0x5
 6090 151b 03        		.byte	0x3
 6091 151c 0000 0000 		.long	str_saving
 6092 1520 2E        		.uleb128 0x2e
 6093 1521 E611 0000 		.long	0x11e6
 6094 1525 3D        		.uleb128 0x3d
 6095 1526 0000 0000 		.long	.LASF338
 6096 152a 01        		.byte	0x1
 6097 152b 3C        		.byte	0x3c
 6098 152c 3715 0000 		.long	0x1537
GAS LISTING C:\Users\ADMINI~1\AppData\Local\Temp/ccypPrtA.s 			page 110


 6099 1530 01        		.byte	0x1
 6100 1531 05        		.byte	0x5
 6101 1532 03        		.byte	0x3
 6102 1533 0000 0000 		.long	str_col_row
 6103 1537 2E        		.uleb128 0x2e
 6104 1538 3311 0000 		.long	0x1133
 6105 153c 2F        		.uleb128 0x2f
 6106 153d 6400 0000 		.long	0x64
 6107 1541 4C15 0000 		.long	0x154c
 6108 1545 30        		.uleb128 0x30
 6109 1546 8609 0000 		.long	0x986
 6110 154a 1D        		.byte	0x1d
 6111 154b 00        		.byte	0x0
 6112 154c 3D        		.uleb128 0x3d
 6113 154d 0000 0000 		.long	.LASF339
 6114 1551 01        		.byte	0x1
 6115 1552 3D        		.byte	0x3d
 6116 1553 5E15 0000 		.long	0x155e
 6117 1557 01        		.byte	0x1
 6118 1558 05        		.byte	0x5
 6119 1559 03        		.byte	0x3
 6120 155a 0000 0000 		.long	str_invalid_keycode
 6121 155e 2E        		.uleb128 0x2e
 6122 155f 3C15 0000 		.long	0x153c
 6123 1563 2F        		.uleb128 0x2f
 6124 1564 6400 0000 		.long	0x64
 6125 1568 7315 0000 		.long	0x1573
 6126 156c 30        		.uleb128 0x30
 6127 156d 8609 0000 		.long	0x986
 6128 1571 2C        		.byte	0x2c
 6129 1572 00        		.byte	0x0
 6130 1573 3D        		.uleb128 0x3d
 6131 1574 0000 0000 		.long	.LASF340
 6132 1578 01        		.byte	0x1
 6133 1579 3F        		.byte	0x3f
 6134 157a 8515 0000 		.long	0x1585
 6135 157e 01        		.byte	0x1
 6136 157f 05        		.byte	0x5
 6137 1580 03        		.byte	0x3
 6138 1581 0000 0000 		.long	str_select_number
 6139 1585 2E        		.uleb128 0x2e
 6140 1586 6315 0000 		.long	0x1563
 6141 158a 2F        		.uleb128 0x2f
 6142 158b 6400 0000 		.long	0x64
 6143 158f 9A15 0000 		.long	0x159a
 6144 1593 30        		.uleb128 0x30
 6145 1594 8609 0000 		.long	0x986
 6146 1598 1A        		.byte	0x1a
 6147 1599 00        		.byte	0x0
 6148 159a 3D        		.uleb128 0x3d
 6149 159b 0000 0000 		.long	.LASF341
 6150 159f 01        		.byte	0x1
 6151 15a0 40        		.byte	0x40
 6152 15a1 AC15 0000 		.long	0x15ac
 6153 15a5 01        		.byte	0x1
 6154 15a6 05        		.byte	0x5
 6155 15a7 03        		.byte	0x3
GAS LISTING C:\Users\ADMINI~1\AppData\Local\Temp/ccypPrtA.s 			page 111


 6156 15a8 0000 0000 		.long	str_exit_macro
 6157 15ac 2E        		.uleb128 0x2e
 6158 15ad 8A15 0000 		.long	0x158a
 6159 15b1 2F        		.uleb128 0x2f
 6160 15b2 6400 0000 		.long	0x64
 6161 15b6 C115 0000 		.long	0x15c1
 6162 15ba 30        		.uleb128 0x30
 6163 15bb 8609 0000 		.long	0x986
 6164 15bf 36        		.byte	0x36
 6165 15c0 00        		.byte	0x0
 6166 15c1 3D        		.uleb128 0x3d
 6167 15c2 0000 0000 		.long	.LASF342
 6168 15c6 01        		.byte	0x1
 6169 15c7 41        		.byte	0x41
 6170 15c8 D315 0000 		.long	0x15d3
 6171 15cc 01        		.byte	0x1
 6172 15cd 05        		.byte	0x5
 6173 15ce 03        		.byte	0x3
 6174 15cf 0000 0000 		.long	str_input_macro
 6175 15d3 2E        		.uleb128 0x2e
 6176 15d4 B115 0000 		.long	0x15b1
 6177 15d8 2F        		.uleb128 0x2f
 6178 15d9 6400 0000 		.long	0x64
 6179 15dd E815 0000 		.long	0x15e8
 6180 15e1 30        		.uleb128 0x30
 6181 15e2 8609 0000 		.long	0x986
 6182 15e6 1B        		.byte	0x1b
 6183 15e7 00        		.byte	0x0
 6184 15e8 3D        		.uleb128 0x3d
 6185 15e9 0000 0000 		.long	.LASF343
 6186 15ed 01        		.byte	0x1
 6187 15ee 42        		.byte	0x42
 6188 15ef FA15 0000 		.long	0x15fa
 6189 15f3 01        		.byte	0x1
 6190 15f4 05        		.byte	0x5
 6191 15f5 03        		.byte	0x3
 6192 15f6 0000 0000 		.long	str_invalid_macro_number
 6193 15fa 2E        		.uleb128 0x2e
 6194 15fb D815 0000 		.long	0x15d8
 6195 15ff 2F        		.uleb128 0x2f
 6196 1600 6400 0000 		.long	0x64
 6197 1604 0F16 0000 		.long	0x160f
 6198 1608 30        		.uleb128 0x30
 6199 1609 8609 0000 		.long	0x986
 6200 160d 08        		.byte	0x8
 6201 160e 00        		.byte	0x0
 6202 160f 3D        		.uleb128 0x3d
 6203 1610 0000 0000 		.long	.LASF344
 6204 1614 01        		.byte	0x1
 6205 1615 43        		.byte	0x43
 6206 1616 2116 0000 		.long	0x1621
 6207 161a 01        		.byte	0x1
 6208 161b 05        		.byte	0x5
 6209 161c 03        		.byte	0x3
 6210 161d 0000 0000 		.long	str_clear_all_macro
 6211 1621 2E        		.uleb128 0x2e
 6212 1622 FF15 0000 		.long	0x15ff
GAS LISTING C:\Users\ADMINI~1\AppData\Local\Temp/ccypPrtA.s 			page 112


 6213 1626 3D        		.uleb128 0x3d
 6214 1627 0000 0000 		.long	.LASF345
 6215 162b 01        		.byte	0x1
 6216 162c 4C        		.byte	0x4c
 6217 162d 7200 0000 		.long	0x72
 6218 1631 01        		.byte	0x1
 6219 1632 05        		.byte	0x5
 6220 1633 03        		.byte	0x3
 6221 1634 0000 0000 		.long	_macroIndex
 6222 1638 3D        		.uleb128 0x3d
 6223 1639 0000 0000 		.long	.LASF346
 6224 163d 01        		.byte	0x1
 6225 163e 4D        		.byte	0x4d
 6226 163f 7200 0000 		.long	0x72
 6227 1643 01        		.byte	0x1
 6228 1644 05        		.byte	0x5
 6229 1645 03        		.byte	0x3
 6230 1646 0000 0000 		.long	_macroBufferIndex
 6231 164a 2F        		.uleb128 0x2f
 6232 164b 7200 0000 		.long	0x72
 6233 164f 5A16 0000 		.long	0x165a
 6234 1653 30        		.uleb128 0x30
 6235 1654 8609 0000 		.long	0x986
 6236 1658 17        		.byte	0x17
 6237 1659 00        		.byte	0x0
 6238 165a 3D        		.uleb128 0x3d
 6239 165b 0000 0000 		.long	.LASF347
 6240 165f 01        		.byte	0x1
 6241 1660 4E        		.byte	0x4e
 6242 1661 4A16 0000 		.long	0x164a
 6243 1665 01        		.byte	0x1
 6244 1666 05        		.byte	0x5
 6245 1667 03        		.byte	0x3
 6246 1668 0000 0000 		.long	_macroPressedBuffer
 6247 166c 3D        		.uleb128 0x3d
 6248 166d 0000 0000 		.long	.LASF348
 6249 1671 01        		.byte	0x1
 6250 1672 4F        		.byte	0x4f
 6251 1673 790B 0000 		.long	0xb79
 6252 1677 01        		.byte	0x1
 6253 1678 05        		.byte	0x5
 6254 1679 03        		.byte	0x3
 6255 167a 0000 0000 		.long	_macroInputBuffer
 6256 167e 3D        		.uleb128 0x3d
 6257 167f 0000 0000 		.long	.LASF349
 6258 1683 01        		.byte	0x1
 6259 1684 50        		.byte	0x50
 6260 1685 6B00 0000 		.long	0x6b
 6261 1689 01        		.byte	0x1
 6262 168a 05        		.byte	0x5
 6263 168b 03        		.byte	0x3
 6264 168c 0000 0000 		.long	_pressedEscapeKeyCount
 6265 1690 3D        		.uleb128 0x3d
 6266 1691 0000 0000 		.long	.LASF350
 6267 1695 01        		.byte	0x1
 6268 1696 51        		.byte	0x51
 6269 1697 7200 0000 		.long	0x72
GAS LISTING C:\Users\ADMINI~1\AppData\Local\Temp/ccypPrtA.s 			page 113


 6270 169b 01        		.byte	0x1
 6271 169c 05        		.byte	0x5
 6272 169d 03        		.byte	0x3
 6273 169e 0000 0000 		.long	_isPressedEscapeKey
 6274 16a2 3D        		.uleb128 0x3d
 6275 16a3 0000 0000 		.long	.LASF351
 6276 16a7 01        		.byte	0x1
 6277 16a8 52        		.byte	0x52
 6278 16a9 7200 0000 		.long	0x72
 6279 16ad 01        		.byte	0x1
 6280 16ae 05        		.byte	0x5
 6281 16af 03        		.byte	0x3
 6282 16b0 0000 0000 		.long	_isTiredEscapeKey
 6283 16b4 2F        		.uleb128 0x2f
 6284 16b5 7200 0000 		.long	0x72
 6285 16b9 CA16 0000 		.long	0x16ca
 6286 16bd 30        		.uleb128 0x30
 6287 16be 8609 0000 		.long	0x986
 6288 16c2 10        		.byte	0x10
 6289 16c3 30        		.uleb128 0x30
 6290 16c4 8609 0000 		.long	0x986
 6291 16c8 07        		.byte	0x7
 6292 16c9 00        		.byte	0x0
 6293 16ca 3D        		.uleb128 0x3d
 6294 16cb 0000 0000 		.long	.LASF352
 6295 16cf 01        		.byte	0x1
 6296 16d0 5E        		.byte	0x5e
 6297 16d1 B416 0000 		.long	0x16b4
 6298 16d5 01        		.byte	0x1
 6299 16d6 05        		.byte	0x5
 6300 16d7 03        		.byte	0x3
 6301 16d8 0000 0000 		.long	_newKeyMap
 6302 16dc 00        		.byte	0x0
 6303               		.section	.debug_abbrev
 6304 0000 01        		.uleb128 0x1
 6305 0001 11        		.uleb128 0x11
 6306 0002 01        		.byte	0x1
 6307 0003 25        		.uleb128 0x25
 6308 0004 0E        		.uleb128 0xe
 6309 0005 13        		.uleb128 0x13
 6310 0006 0B        		.uleb128 0xb
 6311 0007 03        		.uleb128 0x3
 6312 0008 0E        		.uleb128 0xe
 6313 0009 1B        		.uleb128 0x1b
 6314 000a 0E        		.uleb128 0xe
 6315 000b 11        		.uleb128 0x11
 6316 000c 01        		.uleb128 0x1
 6317 000d 12        		.uleb128 0x12
 6318 000e 01        		.uleb128 0x1
 6319 000f 10        		.uleb128 0x10
 6320 0010 06        		.uleb128 0x6
 6321 0011 00        		.byte	0x0
 6322 0012 00        		.byte	0x0
 6323 0013 02        		.uleb128 0x2
 6324 0014 24        		.uleb128 0x24
 6325 0015 00        		.byte	0x0
 6326 0016 0B        		.uleb128 0xb
GAS LISTING C:\Users\ADMINI~1\AppData\Local\Temp/ccypPrtA.s 			page 114


 6327 0017 0B        		.uleb128 0xb
 6328 0018 3E        		.uleb128 0x3e
 6329 0019 0B        		.uleb128 0xb
 6330 001a 03        		.uleb128 0x3
 6331 001b 0E        		.uleb128 0xe
 6332 001c 00        		.byte	0x0
 6333 001d 00        		.byte	0x0
 6334 001e 03        		.uleb128 0x3
 6335 001f 24        		.uleb128 0x24
 6336 0020 00        		.byte	0x0
 6337 0021 0B        		.uleb128 0xb
 6338 0022 0B        		.uleb128 0xb
 6339 0023 3E        		.uleb128 0x3e
 6340 0024 0B        		.uleb128 0xb
 6341 0025 03        		.uleb128 0x3
 6342 0026 08        		.uleb128 0x8
 6343 0027 00        		.byte	0x0
 6344 0028 00        		.byte	0x0
 6345 0029 04        		.uleb128 0x4
 6346 002a 16        		.uleb128 0x16
 6347 002b 00        		.byte	0x0
 6348 002c 03        		.uleb128 0x3
 6349 002d 0E        		.uleb128 0xe
 6350 002e 3A        		.uleb128 0x3a
 6351 002f 0B        		.uleb128 0xb
 6352 0030 3B        		.uleb128 0x3b
 6353 0031 0B        		.uleb128 0xb
 6354 0032 49        		.uleb128 0x49
 6355 0033 13        		.uleb128 0x13
 6356 0034 00        		.byte	0x0
 6357 0035 00        		.byte	0x0
 6358 0036 05        		.uleb128 0x5
 6359 0037 24        		.uleb128 0x24
 6360 0038 00        		.byte	0x0
 6361 0039 0B        		.uleb128 0xb
 6362 003a 0B        		.uleb128 0xb
 6363 003b 3E        		.uleb128 0x3e
 6364 003c 0B        		.uleb128 0xb
 6365 003d 00        		.byte	0x0
 6366 003e 00        		.byte	0x0
 6367 003f 06        		.uleb128 0x6
 6368 0040 0F        		.uleb128 0xf
 6369 0041 00        		.byte	0x0
 6370 0042 0B        		.uleb128 0xb
 6371 0043 0B        		.uleb128 0xb
 6372 0044 49        		.uleb128 0x49
 6373 0045 13        		.uleb128 0x13
 6374 0046 00        		.byte	0x0
 6375 0047 00        		.byte	0x0
 6376 0048 07        		.uleb128 0x7
 6377 0049 04        		.uleb128 0x4
 6378 004a 01        		.byte	0x1
 6379 004b 0B        		.uleb128 0xb
 6380 004c 0B        		.uleb128 0xb
 6381 004d 3A        		.uleb128 0x3a
 6382 004e 0B        		.uleb128 0xb
 6383 004f 3B        		.uleb128 0x3b
GAS LISTING C:\Users\ADMINI~1\AppData\Local\Temp/ccypPrtA.s 			page 115


 6384 0050 0B        		.uleb128 0xb
 6385 0051 01        		.uleb128 0x1
 6386 0052 13        		.uleb128 0x13
 6387 0053 00        		.byte	0x0
 6388 0054 00        		.byte	0x0
 6389 0055 08        		.uleb128 0x8
 6390 0056 28        		.uleb128 0x28
 6391 0057 00        		.byte	0x0
 6392 0058 03        		.uleb128 0x3
 6393 0059 0E        		.uleb128 0xe
 6394 005a 1C        		.uleb128 0x1c
 6395 005b 0D        		.uleb128 0xd
 6396 005c 00        		.byte	0x0
 6397 005d 00        		.byte	0x0
 6398 005e 09        		.uleb128 0x9
 6399 005f 13        		.uleb128 0x13
 6400 0060 01        		.byte	0x1
 6401 0061 0B        		.uleb128 0xb
 6402 0062 0B        		.uleb128 0xb
 6403 0063 3A        		.uleb128 0x3a
 6404 0064 0B        		.uleb128 0xb
 6405 0065 3B        		.uleb128 0x3b
 6406 0066 0B        		.uleb128 0xb
 6407 0067 01        		.uleb128 0x1
 6408 0068 13        		.uleb128 0x13
 6409 0069 00        		.byte	0x0
 6410 006a 00        		.byte	0x0
 6411 006b 0A        		.uleb128 0xa
 6412 006c 0D        		.uleb128 0xd
 6413 006d 00        		.byte	0x0
 6414 006e 03        		.uleb128 0x3
 6415 006f 0E        		.uleb128 0xe
 6416 0070 3A        		.uleb128 0x3a
 6417 0071 0B        		.uleb128 0xb
 6418 0072 3B        		.uleb128 0x3b
 6419 0073 0B        		.uleb128 0xb
 6420 0074 49        		.uleb128 0x49
 6421 0075 13        		.uleb128 0x13
 6422 0076 38        		.uleb128 0x38
 6423 0077 0A        		.uleb128 0xa
 6424 0078 00        		.byte	0x0
 6425 0079 00        		.byte	0x0
 6426 007a 0B        		.uleb128 0xb
 6427 007b 16        		.uleb128 0x16
 6428 007c 00        		.byte	0x0
 6429 007d 03        		.uleb128 0x3
 6430 007e 08        		.uleb128 0x8
 6431 007f 3A        		.uleb128 0x3a
 6432 0080 0B        		.uleb128 0xb
 6433 0081 3B        		.uleb128 0x3b
 6434 0082 0B        		.uleb128 0xb
 6435 0083 49        		.uleb128 0x49
 6436 0084 13        		.uleb128 0x13
 6437 0085 00        		.byte	0x0
 6438 0086 00        		.byte	0x0
 6439 0087 0C        		.uleb128 0xc
 6440 0088 2E        		.uleb128 0x2e
GAS LISTING C:\Users\ADMINI~1\AppData\Local\Temp/ccypPrtA.s 			page 116


 6441 0089 01        		.byte	0x1
 6442 008a 03        		.uleb128 0x3
 6443 008b 0E        		.uleb128 0xe
 6444 008c 3A        		.uleb128 0x3a
 6445 008d 0B        		.uleb128 0xb
 6446 008e 3B        		.uleb128 0x3b
 6447 008f 0B        		.uleb128 0xb
 6448 0090 27        		.uleb128 0x27
 6449 0091 0C        		.uleb128 0xc
 6450 0092 20        		.uleb128 0x20
 6451 0093 0B        		.uleb128 0xb
 6452 0094 01        		.uleb128 0x1
 6453 0095 13        		.uleb128 0x13
 6454 0096 00        		.byte	0x0
 6455 0097 00        		.byte	0x0
 6456 0098 0D        		.uleb128 0xd
 6457 0099 05        		.uleb128 0x5
 6458 009a 00        		.byte	0x0
 6459 009b 03        		.uleb128 0x3
 6460 009c 0E        		.uleb128 0xe
 6461 009d 3A        		.uleb128 0x3a
 6462 009e 0B        		.uleb128 0xb
 6463 009f 3B        		.uleb128 0x3b
 6464 00a0 0B        		.uleb128 0xb
 6465 00a1 49        		.uleb128 0x49
 6466 00a2 13        		.uleb128 0x13
 6467 00a3 00        		.byte	0x0
 6468 00a4 00        		.byte	0x0
 6469 00a5 0E        		.uleb128 0xe
 6470 00a6 2E        		.uleb128 0x2e
 6471 00a7 00        		.byte	0x0
 6472 00a8 3F        		.uleb128 0x3f
 6473 00a9 0C        		.uleb128 0xc
 6474 00aa 03        		.uleb128 0x3
 6475 00ab 0E        		.uleb128 0xe
 6476 00ac 3A        		.uleb128 0x3a
 6477 00ad 0B        		.uleb128 0xb
 6478 00ae 3B        		.uleb128 0x3b
 6479 00af 0B        		.uleb128 0xb
 6480 00b0 27        		.uleb128 0x27
 6481 00b1 0C        		.uleb128 0xc
 6482 00b2 49        		.uleb128 0x49
 6483 00b3 13        		.uleb128 0x13
 6484 00b4 20        		.uleb128 0x20
 6485 00b5 0B        		.uleb128 0xb
 6486 00b6 00        		.byte	0x0
 6487 00b7 00        		.byte	0x0
 6488 00b8 0F        		.uleb128 0xf
 6489 00b9 2E        		.uleb128 0x2e
 6490 00ba 01        		.byte	0x1
 6491 00bb 3F        		.uleb128 0x3f
 6492 00bc 0C        		.uleb128 0xc
 6493 00bd 03        		.uleb128 0x3
 6494 00be 0E        		.uleb128 0xe
 6495 00bf 3A        		.uleb128 0x3a
 6496 00c0 0B        		.uleb128 0xb
 6497 00c1 3B        		.uleb128 0x3b
GAS LISTING C:\Users\ADMINI~1\AppData\Local\Temp/ccypPrtA.s 			page 117


 6498 00c2 05        		.uleb128 0x5
 6499 00c3 27        		.uleb128 0x27
 6500 00c4 0C        		.uleb128 0xc
 6501 00c5 49        		.uleb128 0x49
 6502 00c6 13        		.uleb128 0x13
 6503 00c7 20        		.uleb128 0x20
 6504 00c8 0B        		.uleb128 0xb
 6505 00c9 01        		.uleb128 0x1
 6506 00ca 13        		.uleb128 0x13
 6507 00cb 00        		.byte	0x0
 6508 00cc 00        		.byte	0x0
 6509 00cd 10        		.uleb128 0x10
 6510 00ce 05        		.uleb128 0x5
 6511 00cf 00        		.byte	0x0
 6512 00d0 03        		.uleb128 0x3
 6513 00d1 0E        		.uleb128 0xe
 6514 00d2 3A        		.uleb128 0x3a
 6515 00d3 0B        		.uleb128 0xb
 6516 00d4 3B        		.uleb128 0x3b
 6517 00d5 05        		.uleb128 0x5
 6518 00d6 49        		.uleb128 0x49
 6519 00d7 13        		.uleb128 0x13
 6520 00d8 00        		.byte	0x0
 6521 00d9 00        		.byte	0x0
 6522 00da 11        		.uleb128 0x11
 6523 00db 2E        		.uleb128 0x2e
 6524 00dc 00        		.byte	0x0
 6525 00dd 3F        		.uleb128 0x3f
 6526 00de 0C        		.uleb128 0xc
 6527 00df 03        		.uleb128 0x3
 6528 00e0 0E        		.uleb128 0xe
 6529 00e1 3A        		.uleb128 0x3a
 6530 00e2 0B        		.uleb128 0xb
 6531 00e3 3B        		.uleb128 0x3b
 6532 00e4 0B        		.uleb128 0xb
 6533 00e5 27        		.uleb128 0x27
 6534 00e6 0C        		.uleb128 0xc
 6535 00e7 20        		.uleb128 0x20
 6536 00e8 0B        		.uleb128 0xb
 6537 00e9 00        		.byte	0x0
 6538 00ea 00        		.byte	0x0
 6539 00eb 12        		.uleb128 0x12
 6540 00ec 34        		.uleb128 0x34
 6541 00ed 00        		.byte	0x0
 6542 00ee 03        		.uleb128 0x3
 6543 00ef 0E        		.uleb128 0xe
 6544 00f0 3A        		.uleb128 0x3a
 6545 00f1 0B        		.uleb128 0xb
 6546 00f2 3B        		.uleb128 0x3b
 6547 00f3 0B        		.uleb128 0xb
 6548 00f4 49        		.uleb128 0x49
 6549 00f5 13        		.uleb128 0x13
 6550 00f6 00        		.byte	0x0
 6551 00f7 00        		.byte	0x0
 6552 00f8 13        		.uleb128 0x13
 6553 00f9 0B        		.uleb128 0xb
 6554 00fa 00        		.byte	0x0
GAS LISTING C:\Users\ADMINI~1\AppData\Local\Temp/ccypPrtA.s 			page 118


 6555 00fb 00        		.byte	0x0
 6556 00fc 00        		.byte	0x0
 6557 00fd 14        		.uleb128 0x14
 6558 00fe 2E        		.uleb128 0x2e
 6559 00ff 00        		.byte	0x0
 6560 0100 03        		.uleb128 0x3
 6561 0101 0E        		.uleb128 0xe
 6562 0102 3A        		.uleb128 0x3a
 6563 0103 0B        		.uleb128 0xb
 6564 0104 3B        		.uleb128 0x3b
 6565 0105 05        		.uleb128 0x5
 6566 0106 27        		.uleb128 0x27
 6567 0107 0C        		.uleb128 0xc
 6568 0108 20        		.uleb128 0x20
 6569 0109 0B        		.uleb128 0xb
 6570 010a 00        		.byte	0x0
 6571 010b 00        		.byte	0x0
 6572 010c 15        		.uleb128 0x15
 6573 010d 2E        		.uleb128 0x2e
 6574 010e 01        		.byte	0x1
 6575 010f 03        		.uleb128 0x3
 6576 0110 0E        		.uleb128 0xe
 6577 0111 3A        		.uleb128 0x3a
 6578 0112 0B        		.uleb128 0xb
 6579 0113 3B        		.uleb128 0x3b
 6580 0114 0B        		.uleb128 0xb
 6581 0115 27        		.uleb128 0x27
 6582 0116 0C        		.uleb128 0xc
 6583 0117 49        		.uleb128 0x49
 6584 0118 13        		.uleb128 0x13
 6585 0119 20        		.uleb128 0x20
 6586 011a 0B        		.uleb128 0xb
 6587 011b 01        		.uleb128 0x1
 6588 011c 13        		.uleb128 0x13
 6589 011d 00        		.byte	0x0
 6590 011e 00        		.byte	0x0
 6591 011f 16        		.uleb128 0x16
 6592 0120 2E        		.uleb128 0x2e
 6593 0121 01        		.byte	0x1
 6594 0122 03        		.uleb128 0x3
 6595 0123 0E        		.uleb128 0xe
 6596 0124 3A        		.uleb128 0x3a
 6597 0125 0B        		.uleb128 0xb
 6598 0126 3B        		.uleb128 0x3b
 6599 0127 05        		.uleb128 0x5
 6600 0128 27        		.uleb128 0x27
 6601 0129 0C        		.uleb128 0xc
 6602 012a 49        		.uleb128 0x49
 6603 012b 13        		.uleb128 0x13
 6604 012c 20        		.uleb128 0x20
 6605 012d 0B        		.uleb128 0xb
 6606 012e 01        		.uleb128 0x1
 6607 012f 13        		.uleb128 0x13
 6608 0130 00        		.byte	0x0
 6609 0131 00        		.byte	0x0
 6610 0132 17        		.uleb128 0x17
 6611 0133 34        		.uleb128 0x34
GAS LISTING C:\Users\ADMINI~1\AppData\Local\Temp/ccypPrtA.s 			page 119


 6612 0134 00        		.byte	0x0
 6613 0135 03        		.uleb128 0x3
 6614 0136 0E        		.uleb128 0xe
 6615 0137 3A        		.uleb128 0x3a
 6616 0138 0B        		.uleb128 0xb
 6617 0139 3B        		.uleb128 0x3b
 6618 013a 05        		.uleb128 0x5
 6619 013b 49        		.uleb128 0x49
 6620 013c 13        		.uleb128 0x13
 6621 013d 00        		.byte	0x0
 6622 013e 00        		.byte	0x0
 6623 013f 18        		.uleb128 0x18
 6624 0140 0B        		.uleb128 0xb
 6625 0141 01        		.byte	0x1
 6626 0142 00        		.byte	0x0
 6627 0143 00        		.byte	0x0
 6628 0144 19        		.uleb128 0x19
 6629 0145 05        		.uleb128 0x5
 6630 0146 00        		.byte	0x0
 6631 0147 31        		.uleb128 0x31
 6632 0148 13        		.uleb128 0x13
 6633 0149 00        		.byte	0x0
 6634 014a 00        		.byte	0x0
 6635 014b 1A        		.uleb128 0x1a
 6636 014c 2E        		.uleb128 0x2e
 6637 014d 00        		.byte	0x0
 6638 014e 03        		.uleb128 0x3
 6639 014f 0E        		.uleb128 0xe
 6640 0150 3A        		.uleb128 0x3a
 6641 0151 0B        		.uleb128 0xb
 6642 0152 3B        		.uleb128 0x3b
 6643 0153 0B        		.uleb128 0xb
 6644 0154 27        		.uleb128 0x27
 6645 0155 0C        		.uleb128 0xc
 6646 0156 20        		.uleb128 0x20
 6647 0157 0B        		.uleb128 0xb
 6648 0158 00        		.byte	0x0
 6649 0159 00        		.byte	0x0
 6650 015a 1B        		.uleb128 0x1b
 6651 015b 2E        		.uleb128 0x2e
 6652 015c 00        		.byte	0x0
 6653 015d 31        		.uleb128 0x31
 6654 015e 13        		.uleb128 0x13
 6655 015f 11        		.uleb128 0x11
 6656 0160 01        		.uleb128 0x1
 6657 0161 12        		.uleb128 0x12
 6658 0162 01        		.uleb128 0x1
 6659 0163 40        		.uleb128 0x40
 6660 0164 0A        		.uleb128 0xa
 6661 0165 00        		.byte	0x0
 6662 0166 00        		.byte	0x0
 6663 0167 1C        		.uleb128 0x1c
 6664 0168 2E        		.uleb128 0x2e
 6665 0169 01        		.byte	0x1
 6666 016a 3F        		.uleb128 0x3f
 6667 016b 0C        		.uleb128 0xc
 6668 016c 03        		.uleb128 0x3
GAS LISTING C:\Users\ADMINI~1\AppData\Local\Temp/ccypPrtA.s 			page 120


 6669 016d 0E        		.uleb128 0xe
 6670 016e 3A        		.uleb128 0x3a
 6671 016f 0B        		.uleb128 0xb
 6672 0170 3B        		.uleb128 0x3b
 6673 0171 0B        		.uleb128 0xb
 6674 0172 27        		.uleb128 0x27
 6675 0173 0C        		.uleb128 0xc
 6676 0174 11        		.uleb128 0x11
 6677 0175 01        		.uleb128 0x1
 6678 0176 12        		.uleb128 0x12
 6679 0177 01        		.uleb128 0x1
 6680 0178 40        		.uleb128 0x40
 6681 0179 0A        		.uleb128 0xa
 6682 017a 01        		.uleb128 0x1
 6683 017b 13        		.uleb128 0x13
 6684 017c 00        		.byte	0x0
 6685 017d 00        		.byte	0x0
 6686 017e 1D        		.uleb128 0x1d
 6687 017f 05        		.uleb128 0x5
 6688 0180 00        		.byte	0x0
 6689 0181 03        		.uleb128 0x3
 6690 0182 0E        		.uleb128 0xe
 6691 0183 3A        		.uleb128 0x3a
 6692 0184 0B        		.uleb128 0xb
 6693 0185 3B        		.uleb128 0x3b
 6694 0186 0B        		.uleb128 0xb
 6695 0187 49        		.uleb128 0x49
 6696 0188 13        		.uleb128 0x13
 6697 0189 02        		.uleb128 0x2
 6698 018a 06        		.uleb128 0x6
 6699 018b 00        		.byte	0x0
 6700 018c 00        		.byte	0x0
 6701 018d 1E        		.uleb128 0x1e
 6702 018e 2E        		.uleb128 0x2e
 6703 018f 00        		.byte	0x0
 6704 0190 3F        		.uleb128 0x3f
 6705 0191 0C        		.uleb128 0xc
 6706 0192 03        		.uleb128 0x3
 6707 0193 0E        		.uleb128 0xe
 6708 0194 3A        		.uleb128 0x3a
 6709 0195 0B        		.uleb128 0xb
 6710 0196 3B        		.uleb128 0x3b
 6711 0197 0B        		.uleb128 0xb
 6712 0198 27        		.uleb128 0x27
 6713 0199 0C        		.uleb128 0xc
 6714 019a 49        		.uleb128 0x49
 6715 019b 13        		.uleb128 0x13
 6716 019c 11        		.uleb128 0x11
 6717 019d 01        		.uleb128 0x1
 6718 019e 12        		.uleb128 0x12
 6719 019f 01        		.uleb128 0x1
 6720 01a0 40        		.uleb128 0x40
 6721 01a1 0A        		.uleb128 0xa
 6722 01a2 00        		.byte	0x0
 6723 01a3 00        		.byte	0x0
 6724 01a4 1F        		.uleb128 0x1f
 6725 01a5 2E        		.uleb128 0x2e
GAS LISTING C:\Users\ADMINI~1\AppData\Local\Temp/ccypPrtA.s 			page 121


 6726 01a6 00        		.byte	0x0
 6727 01a7 3F        		.uleb128 0x3f
 6728 01a8 0C        		.uleb128 0xc
 6729 01a9 03        		.uleb128 0x3
 6730 01aa 0E        		.uleb128 0xe
 6731 01ab 3A        		.uleb128 0x3a
 6732 01ac 0B        		.uleb128 0xb
 6733 01ad 3B        		.uleb128 0x3b
 6734 01ae 0B        		.uleb128 0xb
 6735 01af 27        		.uleb128 0x27
 6736 01b0 0C        		.uleb128 0xc
 6737 01b1 11        		.uleb128 0x11
 6738 01b2 01        		.uleb128 0x1
 6739 01b3 12        		.uleb128 0x12
 6740 01b4 01        		.uleb128 0x1
 6741 01b5 40        		.uleb128 0x40
 6742 01b6 0A        		.uleb128 0xa
 6743 01b7 00        		.byte	0x0
 6744 01b8 00        		.byte	0x0
 6745 01b9 20        		.uleb128 0x20
 6746 01ba 2E        		.uleb128 0x2e
 6747 01bb 01        		.byte	0x1
 6748 01bc 31        		.uleb128 0x31
 6749 01bd 13        		.uleb128 0x13
 6750 01be 11        		.uleb128 0x11
 6751 01bf 01        		.uleb128 0x1
 6752 01c0 12        		.uleb128 0x12
 6753 01c1 01        		.uleb128 0x1
 6754 01c2 40        		.uleb128 0x40
 6755 01c3 0A        		.uleb128 0xa
 6756 01c4 01        		.uleb128 0x1
 6757 01c5 13        		.uleb128 0x13
 6758 01c6 00        		.byte	0x0
 6759 01c7 00        		.byte	0x0
 6760 01c8 21        		.uleb128 0x21
 6761 01c9 05        		.uleb128 0x5
 6762 01ca 00        		.byte	0x0
 6763 01cb 31        		.uleb128 0x31
 6764 01cc 13        		.uleb128 0x13
 6765 01cd 02        		.uleb128 0x2
 6766 01ce 06        		.uleb128 0x6
 6767 01cf 00        		.byte	0x0
 6768 01d0 00        		.byte	0x0
 6769 01d1 22        		.uleb128 0x22
 6770 01d2 1D        		.uleb128 0x1d
 6771 01d3 01        		.byte	0x1
 6772 01d4 31        		.uleb128 0x31
 6773 01d5 13        		.uleb128 0x13
 6774 01d6 11        		.uleb128 0x11
 6775 01d7 01        		.uleb128 0x1
 6776 01d8 12        		.uleb128 0x12
 6777 01d9 01        		.uleb128 0x1
 6778 01da 58        		.uleb128 0x58
 6779 01db 0B        		.uleb128 0xb
 6780 01dc 59        		.uleb128 0x59
 6781 01dd 05        		.uleb128 0x5
 6782 01de 00        		.byte	0x0
GAS LISTING C:\Users\ADMINI~1\AppData\Local\Temp/ccypPrtA.s 			page 122


 6783 01df 00        		.byte	0x0
 6784 01e0 23        		.uleb128 0x23
 6785 01e1 2E        		.uleb128 0x2e
 6786 01e2 00        		.byte	0x0
 6787 01e3 3F        		.uleb128 0x3f
 6788 01e4 0C        		.uleb128 0xc
 6789 01e5 03        		.uleb128 0x3
 6790 01e6 0E        		.uleb128 0xe
 6791 01e7 3A        		.uleb128 0x3a
 6792 01e8 0B        		.uleb128 0xb
 6793 01e9 3B        		.uleb128 0x3b
 6794 01ea 05        		.uleb128 0x5
 6795 01eb 27        		.uleb128 0x27
 6796 01ec 0C        		.uleb128 0xc
 6797 01ed 49        		.uleb128 0x49
 6798 01ee 13        		.uleb128 0x13
 6799 01ef 11        		.uleb128 0x11
 6800 01f0 01        		.uleb128 0x1
 6801 01f1 12        		.uleb128 0x12
 6802 01f2 01        		.uleb128 0x1
 6803 01f3 40        		.uleb128 0x40
 6804 01f4 0A        		.uleb128 0xa
 6805 01f5 00        		.byte	0x0
 6806 01f6 00        		.byte	0x0
 6807 01f7 24        		.uleb128 0x24
 6808 01f8 2E        		.uleb128 0x2e
 6809 01f9 00        		.byte	0x0
 6810 01fa 03        		.uleb128 0x3
 6811 01fb 0E        		.uleb128 0xe
 6812 01fc 3A        		.uleb128 0x3a
 6813 01fd 0B        		.uleb128 0xb
 6814 01fe 3B        		.uleb128 0x3b
 6815 01ff 05        		.uleb128 0x5
 6816 0200 27        		.uleb128 0x27
 6817 0201 0C        		.uleb128 0xc
 6818 0202 11        		.uleb128 0x11
 6819 0203 01        		.uleb128 0x1
 6820 0204 12        		.uleb128 0x12
 6821 0205 01        		.uleb128 0x1
 6822 0206 40        		.uleb128 0x40
 6823 0207 0A        		.uleb128 0xa
 6824 0208 00        		.byte	0x0
 6825 0209 00        		.byte	0x0
 6826 020a 25        		.uleb128 0x25
 6827 020b 2E        		.uleb128 0x2e
 6828 020c 00        		.byte	0x0
 6829 020d 3F        		.uleb128 0x3f
 6830 020e 0C        		.uleb128 0xc
 6831 020f 03        		.uleb128 0x3
 6832 0210 0E        		.uleb128 0xe
 6833 0211 3A        		.uleb128 0x3a
 6834 0212 0B        		.uleb128 0xb
 6835 0213 3B        		.uleb128 0x3b
 6836 0214 05        		.uleb128 0x5
 6837 0215 27        		.uleb128 0x27
 6838 0216 0C        		.uleb128 0xc
 6839 0217 11        		.uleb128 0x11
GAS LISTING C:\Users\ADMINI~1\AppData\Local\Temp/ccypPrtA.s 			page 123


 6840 0218 01        		.uleb128 0x1
 6841 0219 12        		.uleb128 0x12
 6842 021a 01        		.uleb128 0x1
 6843 021b 40        		.uleb128 0x40
 6844 021c 0A        		.uleb128 0xa
 6845 021d 00        		.byte	0x0
 6846 021e 00        		.byte	0x0
 6847 021f 26        		.uleb128 0x26
 6848 0220 2E        		.uleb128 0x2e
 6849 0221 01        		.byte	0x1
 6850 0222 03        		.uleb128 0x3
 6851 0223 0E        		.uleb128 0xe
 6852 0224 3A        		.uleb128 0x3a
 6853 0225 0B        		.uleb128 0xb
 6854 0226 3B        		.uleb128 0x3b
 6855 0227 05        		.uleb128 0x5
 6856 0228 27        		.uleb128 0x27
 6857 0229 0C        		.uleb128 0xc
 6858 022a 11        		.uleb128 0x11
 6859 022b 01        		.uleb128 0x1
 6860 022c 12        		.uleb128 0x12
 6861 022d 01        		.uleb128 0x1
 6862 022e 40        		.uleb128 0x40
 6863 022f 0A        		.uleb128 0xa
 6864 0230 01        		.uleb128 0x1
 6865 0231 13        		.uleb128 0x13
 6866 0232 00        		.byte	0x0
 6867 0233 00        		.byte	0x0
 6868 0234 27        		.uleb128 0x27
 6869 0235 05        		.uleb128 0x5
 6870 0236 00        		.byte	0x0
 6871 0237 03        		.uleb128 0x3
 6872 0238 0E        		.uleb128 0xe
 6873 0239 3A        		.uleb128 0x3a
 6874 023a 0B        		.uleb128 0xb
 6875 023b 3B        		.uleb128 0x3b
 6876 023c 05        		.uleb128 0x5
 6877 023d 49        		.uleb128 0x49
 6878 023e 13        		.uleb128 0x13
 6879 023f 02        		.uleb128 0x2
 6880 0240 06        		.uleb128 0x6
 6881 0241 00        		.byte	0x0
 6882 0242 00        		.byte	0x0
 6883 0243 28        		.uleb128 0x28
 6884 0244 34        		.uleb128 0x34
 6885 0245 00        		.byte	0x0
 6886 0246 03        		.uleb128 0x3
 6887 0247 08        		.uleb128 0x8
 6888 0248 3A        		.uleb128 0x3a
 6889 0249 0B        		.uleb128 0xb
 6890 024a 3B        		.uleb128 0x3b
 6891 024b 05        		.uleb128 0x5
 6892 024c 49        		.uleb128 0x49
 6893 024d 13        		.uleb128 0x13
 6894 024e 00        		.byte	0x0
 6895 024f 00        		.byte	0x0
 6896 0250 29        		.uleb128 0x29
GAS LISTING C:\Users\ADMINI~1\AppData\Local\Temp/ccypPrtA.s 			page 124


 6897 0251 05        		.uleb128 0x5
 6898 0252 00        		.byte	0x0
 6899 0253 03        		.uleb128 0x3
 6900 0254 08        		.uleb128 0x8
 6901 0255 3A        		.uleb128 0x3a
 6902 0256 0B        		.uleb128 0xb
 6903 0257 3B        		.uleb128 0x3b
 6904 0258 05        		.uleb128 0x5
 6905 0259 49        		.uleb128 0x49
 6906 025a 13        		.uleb128 0x13
 6907 025b 02        		.uleb128 0x2
 6908 025c 06        		.uleb128 0x6
 6909 025d 00        		.byte	0x0
 6910 025e 00        		.byte	0x0
 6911 025f 2A        		.uleb128 0x2a
 6912 0260 34        		.uleb128 0x34
 6913 0261 00        		.byte	0x0
 6914 0262 03        		.uleb128 0x3
 6915 0263 08        		.uleb128 0x8
 6916 0264 3A        		.uleb128 0x3a
 6917 0265 0B        		.uleb128 0xb
 6918 0266 3B        		.uleb128 0x3b
 6919 0267 05        		.uleb128 0x5
 6920 0268 49        		.uleb128 0x49
 6921 0269 13        		.uleb128 0x13
 6922 026a 02        		.uleb128 0x2
 6923 026b 06        		.uleb128 0x6
 6924 026c 00        		.byte	0x0
 6925 026d 00        		.byte	0x0
 6926 026e 2B        		.uleb128 0x2b
 6927 026f 34        		.uleb128 0x34
 6928 0270 00        		.byte	0x0
 6929 0271 03        		.uleb128 0x3
 6930 0272 0E        		.uleb128 0xe
 6931 0273 3A        		.uleb128 0x3a
 6932 0274 0B        		.uleb128 0xb
 6933 0275 3B        		.uleb128 0x3b
 6934 0276 05        		.uleb128 0x5
 6935 0277 49        		.uleb128 0x49
 6936 0278 13        		.uleb128 0x13
 6937 0279 02        		.uleb128 0x2
 6938 027a 0A        		.uleb128 0xa
 6939 027b 00        		.byte	0x0
 6940 027c 00        		.byte	0x0
 6941 027d 2C        		.uleb128 0x2c
 6942 027e 0B        		.uleb128 0xb
 6943 027f 01        		.byte	0x1
 6944 0280 11        		.uleb128 0x11
 6945 0281 01        		.uleb128 0x1
 6946 0282 12        		.uleb128 0x12
 6947 0283 01        		.uleb128 0x1
 6948 0284 00        		.byte	0x0
 6949 0285 00        		.byte	0x0
 6950 0286 2D        		.uleb128 0x2d
 6951 0287 34        		.uleb128 0x34
 6952 0288 00        		.byte	0x0
 6953 0289 03        		.uleb128 0x3
GAS LISTING C:\Users\ADMINI~1\AppData\Local\Temp/ccypPrtA.s 			page 125


 6954 028a 0E        		.uleb128 0xe
 6955 028b 3A        		.uleb128 0x3a
 6956 028c 0B        		.uleb128 0xb
 6957 028d 3B        		.uleb128 0x3b
 6958 028e 05        		.uleb128 0x5
 6959 028f 49        		.uleb128 0x49
 6960 0290 13        		.uleb128 0x13
 6961 0291 02        		.uleb128 0x2
 6962 0292 06        		.uleb128 0x6
 6963 0293 00        		.byte	0x0
 6964 0294 00        		.byte	0x0
 6965 0295 2E        		.uleb128 0x2e
 6966 0296 26        		.uleb128 0x26
 6967 0297 00        		.byte	0x0
 6968 0298 49        		.uleb128 0x49
 6969 0299 13        		.uleb128 0x13
 6970 029a 00        		.byte	0x0
 6971 029b 00        		.byte	0x0
 6972 029c 2F        		.uleb128 0x2f
 6973 029d 01        		.uleb128 0x1
 6974 029e 01        		.byte	0x1
 6975 029f 49        		.uleb128 0x49
 6976 02a0 13        		.uleb128 0x13
 6977 02a1 01        		.uleb128 0x1
 6978 02a2 13        		.uleb128 0x13
 6979 02a3 00        		.byte	0x0
 6980 02a4 00        		.byte	0x0
 6981 02a5 30        		.uleb128 0x30
 6982 02a6 21        		.uleb128 0x21
 6983 02a7 00        		.byte	0x0
 6984 02a8 49        		.uleb128 0x49
 6985 02a9 13        		.uleb128 0x13
 6986 02aa 2F        		.uleb128 0x2f
 6987 02ab 0B        		.uleb128 0xb
 6988 02ac 00        		.byte	0x0
 6989 02ad 00        		.byte	0x0
 6990 02ae 31        		.uleb128 0x31
 6991 02af 2E        		.uleb128 0x2e
 6992 02b0 01        		.byte	0x1
 6993 02b1 3F        		.uleb128 0x3f
 6994 02b2 0C        		.uleb128 0xc
 6995 02b3 03        		.uleb128 0x3
 6996 02b4 0E        		.uleb128 0xe
 6997 02b5 3A        		.uleb128 0x3a
 6998 02b6 0B        		.uleb128 0xb
 6999 02b7 3B        		.uleb128 0x3b
 7000 02b8 05        		.uleb128 0x5
 7001 02b9 27        		.uleb128 0x27
 7002 02ba 0C        		.uleb128 0xc
 7003 02bb 11        		.uleb128 0x11
 7004 02bc 01        		.uleb128 0x1
 7005 02bd 12        		.uleb128 0x12
 7006 02be 01        		.uleb128 0x1
 7007 02bf 40        		.uleb128 0x40
 7008 02c0 0A        		.uleb128 0xa
 7009 02c1 01        		.uleb128 0x1
 7010 02c2 13        		.uleb128 0x13
GAS LISTING C:\Users\ADMINI~1\AppData\Local\Temp/ccypPrtA.s 			page 126


 7011 02c3 00        		.byte	0x0
 7012 02c4 00        		.byte	0x0
 7013 02c5 32        		.uleb128 0x32
 7014 02c6 1D        		.uleb128 0x1d
 7015 02c7 00        		.byte	0x0
 7016 02c8 31        		.uleb128 0x31
 7017 02c9 13        		.uleb128 0x13
 7018 02ca 11        		.uleb128 0x11
 7019 02cb 01        		.uleb128 0x1
 7020 02cc 12        		.uleb128 0x12
 7021 02cd 01        		.uleb128 0x1
 7022 02ce 58        		.uleb128 0x58
 7023 02cf 0B        		.uleb128 0xb
 7024 02d0 59        		.uleb128 0x59
 7025 02d1 05        		.uleb128 0x5
 7026 02d2 00        		.byte	0x0
 7027 02d3 00        		.byte	0x0
 7028 02d4 33        		.uleb128 0x33
 7029 02d5 34        		.uleb128 0x34
 7030 02d6 00        		.byte	0x0
 7031 02d7 31        		.uleb128 0x31
 7032 02d8 13        		.uleb128 0x13
 7033 02d9 02        		.uleb128 0x2
 7034 02da 0A        		.uleb128 0xa
 7035 02db 00        		.byte	0x0
 7036 02dc 00        		.byte	0x0
 7037 02dd 34        		.uleb128 0x34
 7038 02de 34        		.uleb128 0x34
 7039 02df 00        		.byte	0x0
 7040 02e0 31        		.uleb128 0x31
 7041 02e1 13        		.uleb128 0x13
 7042 02e2 00        		.byte	0x0
 7043 02e3 00        		.byte	0x0
 7044 02e4 35        		.uleb128 0x35
 7045 02e5 1D        		.uleb128 0x1d
 7046 02e6 01        		.byte	0x1
 7047 02e7 31        		.uleb128 0x31
 7048 02e8 13        		.uleb128 0x13
 7049 02e9 11        		.uleb128 0x11
 7050 02ea 01        		.uleb128 0x1
 7051 02eb 12        		.uleb128 0x12
 7052 02ec 01        		.uleb128 0x1
 7053 02ed 58        		.uleb128 0x58
 7054 02ee 0B        		.uleb128 0xb
 7055 02ef 59        		.uleb128 0x59
 7056 02f0 0B        		.uleb128 0xb
 7057 02f1 00        		.byte	0x0
 7058 02f2 00        		.byte	0x0
 7059 02f3 36        		.uleb128 0x36
 7060 02f4 05        		.uleb128 0x5
 7061 02f5 00        		.byte	0x0
 7062 02f6 31        		.uleb128 0x31
 7063 02f7 13        		.uleb128 0x13
 7064 02f8 02        		.uleb128 0x2
 7065 02f9 0A        		.uleb128 0xa
 7066 02fa 00        		.byte	0x0
 7067 02fb 00        		.byte	0x0
GAS LISTING C:\Users\ADMINI~1\AppData\Local\Temp/ccypPrtA.s 			page 127


 7068 02fc 37        		.uleb128 0x37
 7069 02fd 1D        		.uleb128 0x1d
 7070 02fe 01        		.byte	0x1
 7071 02ff 31        		.uleb128 0x31
 7072 0300 13        		.uleb128 0x13
 7073 0301 11        		.uleb128 0x11
 7074 0302 01        		.uleb128 0x1
 7075 0303 12        		.uleb128 0x12
 7076 0304 01        		.uleb128 0x1
 7077 0305 58        		.uleb128 0x58
 7078 0306 0B        		.uleb128 0xb
 7079 0307 59        		.uleb128 0x59
 7080 0308 05        		.uleb128 0x5
 7081 0309 01        		.uleb128 0x1
 7082 030a 13        		.uleb128 0x13
 7083 030b 00        		.byte	0x0
 7084 030c 00        		.byte	0x0
 7085 030d 38        		.uleb128 0x38
 7086 030e 34        		.uleb128 0x34
 7087 030f 00        		.byte	0x0
 7088 0310 31        		.uleb128 0x31
 7089 0311 13        		.uleb128 0x13
 7090 0312 02        		.uleb128 0x2
 7091 0313 06        		.uleb128 0x6
 7092 0314 00        		.byte	0x0
 7093 0315 00        		.byte	0x0
 7094 0316 39        		.uleb128 0x39
 7095 0317 2E        		.uleb128 0x2e
 7096 0318 01        		.byte	0x1
 7097 0319 3F        		.uleb128 0x3f
 7098 031a 0C        		.uleb128 0xc
 7099 031b 03        		.uleb128 0x3
 7100 031c 0E        		.uleb128 0xe
 7101 031d 3A        		.uleb128 0x3a
 7102 031e 0B        		.uleb128 0xb
 7103 031f 3B        		.uleb128 0x3b
 7104 0320 05        		.uleb128 0x5
 7105 0321 27        		.uleb128 0x27
 7106 0322 0C        		.uleb128 0xc
 7107 0323 49        		.uleb128 0x49
 7108 0324 13        		.uleb128 0x13
 7109 0325 11        		.uleb128 0x11
 7110 0326 01        		.uleb128 0x1
 7111 0327 12        		.uleb128 0x12
 7112 0328 01        		.uleb128 0x1
 7113 0329 40        		.uleb128 0x40
 7114 032a 0A        		.uleb128 0xa
 7115 032b 01        		.uleb128 0x1
 7116 032c 13        		.uleb128 0x13
 7117 032d 00        		.byte	0x0
 7118 032e 00        		.byte	0x0
 7119 032f 3A        		.uleb128 0x3a
 7120 0330 1D        		.uleb128 0x1d
 7121 0331 00        		.byte	0x0
 7122 0332 31        		.uleb128 0x31
 7123 0333 13        		.uleb128 0x13
 7124 0334 11        		.uleb128 0x11
GAS LISTING C:\Users\ADMINI~1\AppData\Local\Temp/ccypPrtA.s 			page 128


 7125 0335 01        		.uleb128 0x1
 7126 0336 12        		.uleb128 0x12
 7127 0337 01        		.uleb128 0x1
 7128 0338 58        		.uleb128 0x58
 7129 0339 0B        		.uleb128 0xb
 7130 033a 59        		.uleb128 0x59
 7131 033b 0B        		.uleb128 0xb
 7132 033c 00        		.byte	0x0
 7133 033d 00        		.byte	0x0
 7134 033e 3B        		.uleb128 0x3b
 7135 033f 34        		.uleb128 0x34
 7136 0340 00        		.byte	0x0
 7137 0341 03        		.uleb128 0x3
 7138 0342 0E        		.uleb128 0xe
 7139 0343 3A        		.uleb128 0x3a
 7140 0344 0B        		.uleb128 0xb
 7141 0345 3B        		.uleb128 0x3b
 7142 0346 0B        		.uleb128 0xb
 7143 0347 49        		.uleb128 0x49
 7144 0348 13        		.uleb128 0x13
 7145 0349 02        		.uleb128 0x2
 7146 034a 0A        		.uleb128 0xa
 7147 034b 00        		.byte	0x0
 7148 034c 00        		.byte	0x0
 7149 034d 3C        		.uleb128 0x3c
 7150 034e 34        		.uleb128 0x34
 7151 034f 00        		.byte	0x0
 7152 0350 03        		.uleb128 0x3
 7153 0351 0E        		.uleb128 0xe
 7154 0352 3A        		.uleb128 0x3a
 7155 0353 0B        		.uleb128 0xb
 7156 0354 3B        		.uleb128 0x3b
 7157 0355 0B        		.uleb128 0xb
 7158 0356 49        		.uleb128 0x49
 7159 0357 13        		.uleb128 0x13
 7160 0358 3F        		.uleb128 0x3f
 7161 0359 0C        		.uleb128 0xc
 7162 035a 3C        		.uleb128 0x3c
 7163 035b 0C        		.uleb128 0xc
 7164 035c 00        		.byte	0x0
 7165 035d 00        		.byte	0x0
 7166 035e 3D        		.uleb128 0x3d
 7167 035f 34        		.uleb128 0x34
 7168 0360 00        		.byte	0x0
 7169 0361 03        		.uleb128 0x3
 7170 0362 0E        		.uleb128 0xe
 7171 0363 3A        		.uleb128 0x3a
 7172 0364 0B        		.uleb128 0xb
 7173 0365 3B        		.uleb128 0x3b
 7174 0366 0B        		.uleb128 0xb
 7175 0367 49        		.uleb128 0x49
 7176 0368 13        		.uleb128 0x13
 7177 0369 3F        		.uleb128 0x3f
 7178 036a 0C        		.uleb128 0xc
 7179 036b 02        		.uleb128 0x2
 7180 036c 0A        		.uleb128 0xa
 7181 036d 00        		.byte	0x0
GAS LISTING C:\Users\ADMINI~1\AppData\Local\Temp/ccypPrtA.s 			page 129


 7182 036e 00        		.byte	0x0
 7183 036f 00        		.byte	0x0
 7184               		.section	.debug_pubnames,"",@progbits
 7185 0000 4406 0000 		.long	0x644
 7186 0004 0200      		.word	0x2
 7187 0006 0000 0000 		.long	.Ldebug_info0
 7188 000a DD16 0000 		.long	0x16dd
 7189 000e 9E07 0000 		.long	0x79e
 7190 0012 7365 7457 		.string	"setWillStartKeyMapping"
 7190      696C 6C53 
 7190      7461 7274 
 7190      4B65 794D 
 7190      6170 7069 
 7191 0029 AE07 0000 		.long	0x7ae
 7192 002d 6973 4B65 		.string	"isKeyMapping"
 7192      794D 6170 
 7192      7069 6E67 
 7192      00
 7193 003a BE07 0000 		.long	0x7be
 7194 003e 6973 4465 		.string	"isDeepKeyMapping"
 7194      6570 4B65 
 7194      794D 6170 
 7194      7069 6E67 
 7194      00
 7195 004f CE07 0000 		.long	0x7ce
 7196 0053 6170 706C 		.string	"applyKeyMapping"
 7196      794B 6579 
 7196      4D61 7070 
 7196      696E 6700 
 7197 0063 F607 0000 		.long	0x7f6
 7198 0067 6973 5265 		.string	"isReadyKeyMappingOnBoot"
 7198      6164 794B 
 7198      6579 4D61 
 7198      7070 696E 
 7198      674F 6E42 
 7199 007f 0E08 0000 		.long	0x80e
 7200 0083 7265 6164 		.string	"readyKeyMappingOnBoot"
 7200      794B 6579 
 7200      4D61 7070 
 7200      696E 674F 
 7200      6E42 6F6F 
 7201 0099 2208 0000 		.long	0x822
 7202 009d 7374 6F70 		.string	"stopKeyMapping"
 7202      4B65 794D 
 7202      6170 7069 
 7202      6E67 00
 7203 00ac 3208 0000 		.long	0x832
 7204 00b0 6973 4D61 		.string	"isMacroKey"
 7204      6372 6F4B 
 7204      6579 00
 7205 00bb 5008 0000 		.long	0x850
 7206 00bf 6573 6361 		.string	"escapeMacroKeycode"
 7206      7065 4D61 
 7206      6372 6F4B 
 7206      6579 636F 
 7206      6465 00
 7207 00d2 8408 0000 		.long	0x884
GAS LISTING C:\Users\ADMINI~1\AppData\Local\Temp/ccypPrtA.s 			page 130


 7208 00d6 6973 4D61 		.string	"isMacroInput"
 7208      6372 6F49 
 7208      6E70 7574 
 7208      00
 7209 00e3 B108 0000 		.long	0x8b1
 7210 00e7 7265 7365 		.string	"resetMacroInput"
 7210      744D 6163 
 7210      726F 496E 
 7210      7075 7400 
 7211 00f7 8909 0000 		.long	0x989
 7212 00fb 7265 7365 		.string	"resetCurrentLayer"
 7212      7443 7572 
 7212      7265 6E74 
 7212      4C61 7965 
 7212      7200 
 7213 010d B709 0000 		.long	0x9b7
 7214 0111 636C 6561 		.string	"clearMacro"
 7214      724D 6163 
 7214      726F 00
 7215 011c CC09 0000 		.long	0x9cc
 7216 0120 7361 7665 		.string	"saveCurrentLayer"
 7216      4375 7272 
 7216      656E 744C 
 7216      6179 6572 
 7216      00
 7217 0131 F609 0000 		.long	0x9f6
 7218 0135 7072 696E 		.string	"printPrepareString"
 7218      7450 7265 
 7218      7061 7265 
 7218      5374 7269 
 7218      6E67 00
 7219 0148 0B0A 0000 		.long	0xa0b
 7220 014c 7072 696E 		.string	"printMacroMessage"
 7220      744D 6163 
 7220      726F 4D65 
 7220      7373 6167 
 7220      6500 
 7221 015e 200A 0000 		.long	0xa20
 7222 0162 7072 696E 		.string	"printString"
 7222      7453 7472 
 7222      696E 6700 
 7223 016e D70A 0000 		.long	0xad7
 7224 0172 7072 696E 		.string	"printMapperMessageAfter"
 7224      744D 6170 
 7224      7065 724D 
 7224      6573 7361 
 7224      6765 4166 
 7225 018a EC0A 0000 		.long	0xaec
 7226 018e 7072 696E 		.string	"printSelectMode"
 7226      7453 656C 
 7226      6563 744D 
 7226      6F64 6500 
 7227 019e 010B 0000 		.long	0xb01
 7228 01a2 636C 6561 		.string	"clearMacroAfter"
 7228      724D 6163 
 7228      726F 4166 
 7228      7465 7200 
GAS LISTING C:\Users\ADMINI~1\AppData\Local\Temp/ccypPrtA.s 			page 131


 7229 01b2 310B 0000 		.long	0xb31
 7230 01b6 7361 7665 		.string	"saveMacro"
 7230      4D61 6372 
 7230      6F00 
 7231 01c0 890B 0000 		.long	0xb89
 7232 01c4 7265 6164 		.string	"readMacro"
 7232      4D61 6372 
 7232      6F00 
 7233 01ce E50B 0000 		.long	0xbe5
 7234 01d2 6C6F 6164 		.string	"loadCurrentLayer"
 7234      4375 7272 
 7234      656E 744C 
 7234      6179 6572 
 7234      00
 7235 01e3 1F0C 0000 		.long	0xc1f
 7236 01e7 7075 744B 		.string	"putKeyCode"
 7236      6579 436F 
 7236      6465 00
 7237 01f2 CA0D 0000 		.long	0xdca
 7238 01f6 7361 7665 		.string	"saveCurrentLayerAfter"
 7238      4375 7272 
 7238      656E 744C 
 7238      6179 6572 
 7238      4166 7465 
 7239 020c 200E 0000 		.long	0xe20
 7240 0210 7072 6570 		.string	"prepareKeyMapper"
 7240      6172 654B 
 7240      6579 4D61 
 7240      7070 6572 
 7240      00
 7241 0221 350E 0000 		.long	0xe35
 7242 0225 6765 7443 		.string	"getCurrentKeycode"
 7242      7572 7265 
 7242      6E74 4B65 
 7242      7963 6F64 
 7242      6500 
 7243 0237 D70E 0000 		.long	0xed7
 7244 023b 6170 706C 		.string	"applyMacro"
 7244      794D 6163 
 7244      726F 00
 7245 0246 270F 0000 		.long	0xf27
 7246 024a 7374 6172 		.string	"startKeyMapping"
 7246      744B 6579 
 7246      4D61 7070 
 7246      696E 6700 
 7247 025a 5E0F 0000 		.long	0xf5e
 7248 025e 7072 6570 		.string	"prepareKeyMapping"
 7248      6172 654B 
 7248      6579 4D61 
 7248      7070 696E 
 7248      6700 
 7249 0270 860F 0000 		.long	0xf86
 7250 0274 636F 756E 		.string	"countKeyMappingEnabled"
 7250      744B 6579 
 7250      4D61 7070 
 7250      696E 6745 
 7250      6E61 626C 
GAS LISTING C:\Users\ADMINI~1\AppData\Local\Temp/ccypPrtA.s 			page 132


 7251 028b 9A0F 0000 		.long	0xf9a
 7252 028f 656E 7465 		.string	"enterFrameForMapper"
 7252      7246 7261 
 7252      6D65 466F 
 7252      724D 6170 
 7252      7065 7200 
 7253 02a3 AE0F 0000 		.long	0xfae
 7254 02a7 7374 6172 		.string	"startKeyMappingOnBoot"
 7254      744B 6579 
 7254      4D61 7070 
 7254      696E 674F 
 7254      6E42 6F6F 
 7255 02bd 4311 0000 		.long	0x1143
 7256 02c1 7374 725F 		.string	"str_select_mode"
 7256      7365 6C65 
 7256      6374 5F6D 
 7256      6F64 6500 
 7257 02d1 6A11 0000 		.long	0x116a
 7258 02d5 7374 725F 		.string	"str_select_mode1"
 7258      7365 6C65 
 7258      6374 5F6D 
 7258      6F64 6531 
 7258      00
 7259 02e6 9111 0000 		.long	0x1191
 7260 02ea 7374 725F 		.string	"str_select_mode2"
 7260      7365 6C65 
 7260      6374 5F6D 
 7260      6F64 6532 
 7260      00
 7261 02fb B811 0000 		.long	0x11b8
 7262 02ff 7374 725F 		.string	"str_select_mode3"
 7262      7365 6C65 
 7262      6374 5F6D 
 7262      6F64 6533 
 7262      00
 7263 0310 CF11 0000 		.long	0x11cf
 7264 0314 7374 725F 		.string	"str_select_mode4"
 7264      7365 6C65 
 7264      6374 5F6D 
 7264      6F64 6534 
 7264      00
 7265 0325 F611 0000 		.long	0x11f6
 7266 0329 7374 725F 		.string	"str_exit"
 7266      6578 6974 
 7266      00
 7267 0332 1D12 0000 		.long	0x121d
 7268 0336 7374 725F 		.string	"str_boot_mapper"
 7268      626F 6F74 
 7268      5F6D 6170 
 7268      7065 7200 
 7269 0346 4412 0000 		.long	0x1244
 7270 034a 7374 725F 		.string	"str_macro_message"
 7270      6D61 6372 
 7270      6F5F 6D65 
 7270      7373 6167 
 7270      6500 
 7271 035c 6B12 0000 		.long	0x126b
GAS LISTING C:\Users\ADMINI~1\AppData\Local\Temp/ccypPrtA.s 			page 133


 7272 0360 7374 725F 		.string	"str_macro_1"
 7272      6D61 6372 
 7272      6F5F 3100 
 7273 036c 8212 0000 		.long	0x1282
 7274 0370 7374 725F 		.string	"str_macro_2"
 7274      6D61 6372 
 7274      6F5F 3200 
 7275 037c 9912 0000 		.long	0x1299
 7276 0380 7374 725F 		.string	"str_macro_9"
 7276      6D61 6372 
 7276      6F5F 3900 
 7277 038c B012 0000 		.long	0x12b0
 7278 0390 7374 725F 		.string	"str_back_6"
 7278      6261 636B 
 7278      5F36 00
 7279 039b D712 0000 		.long	0x12d7
 7280 039f 7374 725F 		.string	"str_mapper_message"
 7280      6D61 7070 
 7280      6572 5F6D 
 7280      6573 7361 
 7280      6765 00
 7281 03b2 FE12 0000 		.long	0x12fe
 7282 03b6 7374 725F 		.string	"str_mapper_1"
 7282      6D61 7070 
 7282      6572 5F31 
 7282      00
 7283 03c3 2513 0000 		.long	0x1325
 7284 03c7 7374 725F 		.string	"str_mapper_2"
 7284      6D61 7070 
 7284      6572 5F32 
 7284      00
 7285 03d4 4C13 0000 		.long	0x134c
 7286 03d8 7374 725F 		.string	"str_mapper_3"
 7286      6D61 7070 
 7286      6572 5F33 
 7286      00
 7287 03e5 7313 0000 		.long	0x1373
 7288 03e9 7374 725F 		.string	"str_mapper_4"
 7288      6D61 7070 
 7288      6572 5F34 
 7288      00
 7289 03f6 9A13 0000 		.long	0x139a
 7290 03fa 7374 725F 		.string	"str_mapper_9"
 7290      6D61 7070 
 7290      6572 5F39 
 7290      00
 7291 0407 B113 0000 		.long	0x13b1
 7292 040b 7374 725F 		.string	"str_prepare_message"
 7292      7072 6570 
 7292      6172 655F 
 7292      6D65 7373 
 7292      6167 6500 
 7293 041f D813 0000 		.long	0x13d8
 7294 0423 7374 725F 		.string	"str_choose_layer"
 7294      6368 6F6F 
 7294      7365 5F6C 
 7294      6179 6572 
GAS LISTING C:\Users\ADMINI~1\AppData\Local\Temp/ccypPrtA.s 			page 134


 7294      00
 7295 0434 FF13 0000 		.long	0x13ff
 7296 0438 7374 725F 		.string	"str_choose_key"
 7296      6368 6F6F 
 7296      7365 5F6B 
 7296      6579 00
 7297 0447 2614 0000 		.long	0x1426
 7298 044b 7374 725F 		.string	"str_input_keycode"
 7298      696E 7075 
 7298      745F 6B65 
 7298      7963 6F64 
 7298      6500 
 7299 045d 4D14 0000 		.long	0x144d
 7300 0461 7374 725F 		.string	"str_save_end_mapping"
 7300      7361 7665 
 7300      5F65 6E64 
 7300      5F6D 6170 
 7300      7069 6E67 
 7301 0476 7414 0000 		.long	0x1474
 7302 047a 7374 725F 		.string	"str_cancel_mapping"
 7302      6361 6E63 
 7302      656C 5F6D 
 7302      6170 7069 
 7302      6E67 00
 7303 048d 8B14 0000 		.long	0x148b
 7304 0491 7374 725F 		.string	"str_reset_mapping"
 7304      7265 7365 
 7304      745F 6D61 
 7304      7070 696E 
 7304      6700 
 7305 04a3 B214 0000 		.long	0x14b2
 7306 04a7 7374 725F 		.string	"str_input_command"
 7306      696E 7075 
 7306      745F 636F 
 7306      6D6D 616E 
 7306      6400 
 7307 04b9 C914 0000 		.long	0x14c9
 7308 04bd 7374 725F 		.string	"str_nothing"
 7308      6E6F 7468 
 7308      696E 6700 
 7309 04c9 E014 0000 		.long	0x14e0
 7310 04cd 7374 725F 		.string	"str_save_layer"
 7310      7361 7665 
 7310      5F6C 6179 
 7310      6572 00
 7311 04dc F714 0000 		.long	0x14f7
 7312 04e0 7374 725F 		.string	"str_load_layer"
 7312      6C6F 6164 
 7312      5F6C 6179 
 7312      6572 00
 7313 04ef 0E15 0000 		.long	0x150e
 7314 04f3 7374 725F 		.string	"str_saving"
 7314      7361 7669 
 7314      6E67 00
 7315 04fe 2515 0000 		.long	0x1525
 7316 0502 7374 725F 		.string	"str_col_row"
 7316      636F 6C5F 
GAS LISTING C:\Users\ADMINI~1\AppData\Local\Temp/ccypPrtA.s 			page 135


 7316      726F 7700 
 7317 050e 4C15 0000 		.long	0x154c
 7318 0512 7374 725F 		.string	"str_invalid_keycode"
 7318      696E 7661 
 7318      6C69 645F 
 7318      6B65 7963 
 7318      6F64 6500 
 7319 0526 7315 0000 		.long	0x1573
 7320 052a 7374 725F 		.string	"str_select_number"
 7320      7365 6C65 
 7320      6374 5F6E 
 7320      756D 6265 
 7320      7200 
 7321 053c 9A15 0000 		.long	0x159a
 7322 0540 7374 725F 		.string	"str_exit_macro"
 7322      6578 6974 
 7322      5F6D 6163 
 7322      726F 00
 7323 054f C115 0000 		.long	0x15c1
 7324 0553 7374 725F 		.string	"str_input_macro"
 7324      696E 7075 
 7324      745F 6D61 
 7324      6372 6F00 
 7325 0563 E815 0000 		.long	0x15e8
 7326 0567 7374 725F 		.string	"str_invalid_macro_number"
 7326      696E 7661 
 7326      6C69 645F 
 7326      6D61 6372 
 7326      6F5F 6E75 
 7327 0580 0F16 0000 		.long	0x160f
 7328 0584 7374 725F 		.string	"str_clear_all_macro"
 7328      636C 6561 
 7328      725F 616C 
 7328      6C5F 6D61 
 7328      6372 6F00 
 7329 0598 2616 0000 		.long	0x1626
 7330 059c 5F6D 6163 		.string	"_macroIndex"
 7330      726F 496E 
 7330      6465 7800 
 7331 05a8 3816 0000 		.long	0x1638
 7332 05ac 5F6D 6163 		.string	"_macroBufferIndex"
 7332      726F 4275 
 7332      6666 6572 
 7332      496E 6465 
 7332      7800 
 7333 05be 5A16 0000 		.long	0x165a
 7334 05c2 5F6D 6163 		.string	"_macroPressedBuffer"
 7334      726F 5072 
 7334      6573 7365 
 7334      6442 7566 
 7334      6665 7200 
 7335 05d6 6C16 0000 		.long	0x166c
 7336 05da 5F6D 6163 		.string	"_macroInputBuffer"
 7336      726F 496E 
 7336      7075 7442 
 7336      7566 6665 
 7336      7200 
GAS LISTING C:\Users\ADMINI~1\AppData\Local\Temp/ccypPrtA.s 			page 136


 7337 05ec 7E16 0000 		.long	0x167e
 7338 05f0 5F70 7265 		.string	"_pressedEscapeKeyCount"
 7338      7373 6564 
 7338      4573 6361 
 7338      7065 4B65 
 7338      7943 6F75 
 7339 0607 9016 0000 		.long	0x1690
 7340 060b 5F69 7350 		.string	"_isPressedEscapeKey"
 7340      7265 7373 
 7340      6564 4573 
 7340      6361 7065 
 7340      4B65 7900 
 7341 061f A216 0000 		.long	0x16a2
 7342 0623 5F69 7354 		.string	"_isTiredEscapeKey"
 7342      6972 6564 
 7342      4573 6361 
 7342      7065 4B65 
 7342      7900 
 7343 0635 CA16 0000 		.long	0x16ca
 7344 0639 5F6E 6577 		.string	"_newKeyMap"
 7344      4B65 794D 
 7344      6170 00
 7345 0644 0000 0000 		.long	0x0
 7346               		.section	.debug_aranges,"",@progbits
 7347 0000 1C00 0000 		.long	0x1c
 7348 0004 0200      		.word	0x2
 7349 0006 0000 0000 		.long	.Ldebug_info0
 7350 000a 04        		.byte	0x4
 7351 000b 00        		.byte	0x0
 7352 000c 0000      		.word	0x0
 7353 000e 0000      		.word	0x0
 7354 0010 0000 0000 		.long	.Ltext0
 7355 0014 EC0D 0000 		.long	.Letext0-.Ltext0
 7356 0018 0000 0000 		.long	0x0
 7357 001c 0000 0000 		.long	0x0
 7358               		.section	.debug_line
 7359 0000 020F 0000 		.long	.LELT0-.LSLT0
 7360               	.LSLT0:
 7361 0004 0200      		.word	0x2
 7362 0006 DF00 0000 		.long	.LELTP0-.LASLTP0
 7363               	.LASLTP0:
 7364 000a 01        		.byte	0x1
 7365 000b 01        		.byte	0x1
 7366 000c F6        		.byte	0xf6
 7367 000d F5        		.byte	0xf5
 7368 000e 0A        		.byte	0xa
 7369 000f 00        		.byte	0x0
 7370 0010 01        		.byte	0x1
 7371 0011 01        		.byte	0x1
 7372 0012 01        		.byte	0x1
 7373 0013 01        		.byte	0x1
 7374 0014 00        		.byte	0x0
 7375 0015 00        		.byte	0x0
 7376 0016 00        		.byte	0x0
 7377 0017 01        		.byte	0x1
 7378 0018 633A 2F77 		.ascii	"c:/winavr-20100110/lib/gcc/../../avr/include"
 7378      696E 6176 
GAS LISTING C:\Users\ADMINI~1\AppData\Local\Temp/ccypPrtA.s 			page 137


 7378      722D 3230 
 7378      3130 3031 
 7378      3130 2F6C 
 7379 0044 00        		.byte	0
 7380 0045 633A 2F77 		.ascii	"c:/winavr-20100110/lib/gcc/../../avr/include/util"
 7380      696E 6176 
 7380      722D 3230 
 7380      3130 3031 
 7380      3130 2F6C 
 7381 0076 00        		.byte	0
 7382 0077 00        		.byte	0x0
 7383 0078 6B65 796D 		.string	"keymapper.c"
 7383      6170 7065 
 7383      722E 6300 
 7384 0084 00        		.uleb128 0x0
 7385 0085 00        		.uleb128 0x0
 7386 0086 00        		.uleb128 0x0
 7387 0087 7574 696C 		.string	"util/delay_basic.h"
 7387      2F64 656C 
 7387      6179 5F62 
 7387      6173 6963 
 7387      2E68 00
 7388 009a 01        		.uleb128 0x1
 7389 009b 00        		.uleb128 0x0
 7390 009c 00        		.uleb128 0x0
 7391 009d 7574 696C 		.string	"util/delay.h"
 7391      2F64 656C 
 7391      6179 2E68 
 7391      00
 7392 00aa 01        		.uleb128 0x1
 7393 00ab 00        		.uleb128 0x0
 7394 00ac 00        		.uleb128 0x0
 7395 00ad 7374 6469 		.string	"stdint.h"
 7395      6E74 2E68 
 7395      00
 7396 00b6 01        		.uleb128 0x1
 7397 00b7 00        		.uleb128 0x0
 7398 00b8 00        		.uleb128 0x0
 7399 00b9 6B65 796D 		.string	"keymap.h"
 7399      6170 2E68 
 7399      00
 7400 00c2 00        		.uleb128 0x0
 7401 00c3 00        		.uleb128 0x0
 7402 00c4 00        		.uleb128 0x0
 7403 00c5 6D61 6372 		.string	"macrobuffer.h"
 7403      6F62 7566 
 7403      6665 722E 
 7403      6800 
 7404 00d3 00        		.uleb128 0x0
 7405 00d4 00        		.uleb128 0x0
 7406 00d5 00        		.uleb128 0x0
 7407 00d6 6861 7264 		.string	"hardwareinfo.h"
 7407      7761 7265 
 7407      696E 666F 
 7407      2E68 00
 7408 00e5 00        		.uleb128 0x0
 7409 00e6 00        		.uleb128 0x0
GAS LISTING C:\Users\ADMINI~1\AppData\Local\Temp/ccypPrtA.s 			page 138


 7410 00e7 00        		.uleb128 0x0
 7411 00e8 00        		.byte	0x0
 7412               	.LELTP0:
 7413 00e9 00        		.byte	0x0
 7414 00ea 05        		.uleb128 0x5
 7415 00eb 02        		.byte	0x2
 7416 00ec 0000 0000 		.long	.LM1
 7417 00f0 86        		.byte	0x86
 7418 00f1 00        		.byte	0x0
 7419 00f2 05        		.uleb128 0x5
 7420 00f3 02        		.byte	0x2
 7421 00f4 0000 0000 		.long	.LM2
 7422 00f8 15        		.byte	0x15
 7423 00f9 00        		.byte	0x0
 7424 00fa 05        		.uleb128 0x5
 7425 00fb 02        		.byte	0x2
 7426 00fc 0000 0000 		.long	.LM3
 7427 0100 15        		.byte	0x15
 7428 0101 00        		.byte	0x0
 7429 0102 05        		.uleb128 0x5
 7430 0103 02        		.byte	0x2
 7431 0104 0000 0000 		.long	.LM4
 7432 0108 16        		.byte	0x16
 7433 0109 00        		.byte	0x0
 7434 010a 05        		.uleb128 0x5
 7435 010b 02        		.byte	0x2
 7436 010c 0000 0000 		.long	.LM5
 7437 0110 01        		.byte	0x1
 7438 0111 00        		.byte	0x0
 7439 0112 05        		.uleb128 0x5
 7440 0113 02        		.byte	0x2
 7441 0114 0000 0000 		.long	.LM6
 7442 0118 16        		.byte	0x16
 7443 0119 00        		.byte	0x0
 7444 011a 05        		.uleb128 0x5
 7445 011b 02        		.byte	0x2
 7446 011c 0000 0000 		.long	.LM7
 7447 0120 15        		.byte	0x15
 7448 0121 00        		.byte	0x0
 7449 0122 05        		.uleb128 0x5
 7450 0123 02        		.byte	0x2
 7451 0124 0000 0000 		.long	.LM8
 7452 0128 01        		.byte	0x1
 7453 0129 00        		.byte	0x0
 7454 012a 05        		.uleb128 0x5
 7455 012b 02        		.byte	0x2
 7456 012c 0000 0000 		.long	.LM9
 7457 0130 16        		.byte	0x16
 7458 0131 00        		.byte	0x0
 7459 0132 05        		.uleb128 0x5
 7460 0133 02        		.byte	0x2
 7461 0134 0000 0000 		.long	.LM10
 7462 0138 16        		.byte	0x16
 7463 0139 00        		.byte	0x0
 7464 013a 05        		.uleb128 0x5
 7465 013b 02        		.byte	0x2
 7466 013c 0000 0000 		.long	.LM11
GAS LISTING C:\Users\ADMINI~1\AppData\Local\Temp/ccypPrtA.s 			page 139


 7467 0140 15        		.byte	0x15
 7468 0141 00        		.byte	0x0
 7469 0142 05        		.uleb128 0x5
 7470 0143 02        		.byte	0x2
 7471 0144 0000 0000 		.long	.LM12
 7472 0148 18        		.byte	0x18
 7473 0149 00        		.byte	0x0
 7474 014a 05        		.uleb128 0x5
 7475 014b 02        		.byte	0x2
 7476 014c 0000 0000 		.long	.LM13
 7477 0150 15        		.byte	0x15
 7478 0151 00        		.byte	0x0
 7479 0152 05        		.uleb128 0x5
 7480 0153 02        		.byte	0x2
 7481 0154 0000 0000 		.long	.LM14
 7482 0158 15        		.byte	0x15
 7483 0159 00        		.byte	0x0
 7484 015a 05        		.uleb128 0x5
 7485 015b 02        		.byte	0x2
 7486 015c 0000 0000 		.long	.LM15
 7487 0160 16        		.byte	0x16
 7488 0161 00        		.byte	0x0
 7489 0162 05        		.uleb128 0x5
 7490 0163 02        		.byte	0x2
 7491 0164 0000 0000 		.long	.LM16
 7492 0168 15        		.byte	0x15
 7493 0169 00        		.byte	0x0
 7494 016a 05        		.uleb128 0x5
 7495 016b 02        		.byte	0x2
 7496 016c 0000 0000 		.long	.LM17
 7497 0170 17        		.byte	0x17
 7498 0171 00        		.byte	0x0
 7499 0172 05        		.uleb128 0x5
 7500 0173 02        		.byte	0x2
 7501 0174 0000 0000 		.long	.LM18
 7502 0178 15        		.byte	0x15
 7503 0179 00        		.byte	0x0
 7504 017a 05        		.uleb128 0x5
 7505 017b 02        		.byte	0x2
 7506 017c 0000 0000 		.long	.LM19
 7507 0180 31        		.byte	0x31
 7508 0181 00        		.byte	0x0
 7509 0182 05        		.uleb128 0x5
 7510 0183 02        		.byte	0x2
 7511 0184 0000 0000 		.long	.LM20
 7512 0188 16        		.byte	0x16
 7513 0189 00        		.byte	0x0
 7514 018a 05        		.uleb128 0x5
 7515 018b 02        		.byte	0x2
 7516 018c 0000 0000 		.long	.LM21
 7517 0190 18        		.byte	0x18
 7518 0191 00        		.byte	0x0
 7519 0192 05        		.uleb128 0x5
 7520 0193 02        		.byte	0x2
 7521 0194 0000 0000 		.long	.LM22
 7522 0198 15        		.byte	0x15
 7523 0199 00        		.byte	0x0
GAS LISTING C:\Users\ADMINI~1\AppData\Local\Temp/ccypPrtA.s 			page 140


 7524 019a 05        		.uleb128 0x5
 7525 019b 02        		.byte	0x2
 7526 019c 0000 0000 		.long	.LM23
 7527 01a0 16        		.byte	0x16
 7528 01a1 00        		.byte	0x0
 7529 01a2 05        		.uleb128 0x5
 7530 01a3 02        		.byte	0x2
 7531 01a4 0000 0000 		.long	.LM24
 7532 01a8 33        		.byte	0x33
 7533 01a9 00        		.byte	0x0
 7534 01aa 05        		.uleb128 0x5
 7535 01ab 02        		.byte	0x2
 7536 01ac 0000 0000 		.long	.LM25
 7537 01b0 15        		.byte	0x15
 7538 01b1 00        		.byte	0x0
 7539 01b2 05        		.uleb128 0x5
 7540 01b3 02        		.byte	0x2
 7541 01b4 0000 0000 		.long	.LM26
 7542 01b8 15        		.byte	0x15
 7543 01b9 00        		.byte	0x0
 7544 01ba 05        		.uleb128 0x5
 7545 01bb 02        		.byte	0x2
 7546 01bc 0000 0000 		.long	.LM27
 7547 01c0 16        		.byte	0x16
 7548 01c1 00        		.byte	0x0
 7549 01c2 05        		.uleb128 0x5
 7550 01c3 02        		.byte	0x2
 7551 01c4 0000 0000 		.long	.LM28
 7552 01c8 4B        		.byte	0x4b
 7553 01c9 00        		.byte	0x0
 7554 01ca 05        		.uleb128 0x5
 7555 01cb 02        		.byte	0x2
 7556 01cc 0000 0000 		.long	.LM29
 7557 01d0 01        		.byte	0x1
 7558 01d1 00        		.byte	0x0
 7559 01d2 05        		.uleb128 0x5
 7560 01d3 02        		.byte	0x2
 7561 01d4 0000 0000 		.long	.LM30
 7562 01d8 1A        		.byte	0x1a
 7563 01d9 00        		.byte	0x0
 7564 01da 05        		.uleb128 0x5
 7565 01db 02        		.byte	0x2
 7566 01dc 0000 0000 		.long	.LM31
 7567 01e0 16        		.byte	0x16
 7568 01e1 00        		.byte	0x0
 7569 01e2 05        		.uleb128 0x5
 7570 01e3 02        		.byte	0x2
 7571 01e4 0000 0000 		.long	.LM32
 7572 01e8 0D        		.byte	0xd
 7573 01e9 00        		.byte	0x0
 7574 01ea 05        		.uleb128 0x5
 7575 01eb 02        		.byte	0x2
 7576 01ec 0000 0000 		.long	.LM33
 7577 01f0 20        		.byte	0x20
 7578 01f1 00        		.byte	0x0
 7579 01f2 05        		.uleb128 0x5
 7580 01f3 02        		.byte	0x2
GAS LISTING C:\Users\ADMINI~1\AppData\Local\Temp/ccypPrtA.s 			page 141


 7581 01f4 0000 0000 		.long	.LM34
 7582 01f8 03        		.byte	0x3
 7583 01f9 8803      		.sleb128 392
 7584 01fb 01        		.byte	0x1
 7585 01fc 00        		.byte	0x0
 7586 01fd 05        		.uleb128 0x5
 7587 01fe 02        		.byte	0x2
 7588 01ff 0000 0000 		.long	.LM35
 7589 0203 01        		.byte	0x1
 7590 0204 00        		.byte	0x0
 7591 0205 05        		.uleb128 0x5
 7592 0206 02        		.byte	0x2
 7593 0207 0000 0000 		.long	.LM36
 7594 020b 1A        		.byte	0x1a
 7595 020c 00        		.byte	0x0
 7596 020d 05        		.uleb128 0x5
 7597 020e 02        		.byte	0x2
 7598 020f 0000 0000 		.long	.LM37
 7599 0213 03        		.byte	0x3
 7600 0214 A57D      		.sleb128 -347
 7601 0216 01        		.byte	0x1
 7602 0217 00        		.byte	0x0
 7603 0218 05        		.uleb128 0x5
 7604 0219 02        		.byte	0x2
 7605 021a 0000 0000 		.long	.LM38
 7606 021e 15        		.byte	0x15
 7607 021f 00        		.byte	0x0
 7608 0220 05        		.uleb128 0x5
 7609 0221 02        		.byte	0x2
 7610 0222 0000 0000 		.long	.LM39
 7611 0226 15        		.byte	0x15
 7612 0227 00        		.byte	0x0
 7613 0228 05        		.uleb128 0x5
 7614 0229 02        		.byte	0x2
 7615 022a 0000 0000 		.long	.LM40
 7616 022e 15        		.byte	0x15
 7617 022f 00        		.byte	0x0
 7618 0230 05        		.uleb128 0x5
 7619 0231 02        		.byte	0x2
 7620 0232 0000 0000 		.long	.LM41
 7621 0236 03        		.byte	0x3
 7622 0237 DB02      		.sleb128 347
 7623 0239 01        		.byte	0x1
 7624 023a 00        		.byte	0x0
 7625 023b 05        		.uleb128 0x5
 7626 023c 02        		.byte	0x2
 7627 023d 0000 0000 		.long	.LM42
 7628 0241 15        		.byte	0x15
 7629 0242 00        		.byte	0x0
 7630 0243 05        		.uleb128 0x5
 7631 0244 02        		.byte	0x2
 7632 0245 0000 0000 		.long	.LM43
 7633 0249 15        		.byte	0x15
 7634 024a 00        		.byte	0x0
 7635 024b 05        		.uleb128 0x5
 7636 024c 02        		.byte	0x2
 7637 024d 0000 0000 		.long	.LM44
GAS LISTING C:\Users\ADMINI~1\AppData\Local\Temp/ccypPrtA.s 			page 142


 7638 0251 15        		.byte	0x15
 7639 0252 00        		.byte	0x0
 7640 0253 05        		.uleb128 0x5
 7641 0254 02        		.byte	0x2
 7642 0255 0000 0000 		.long	.LM45
 7643 0259 15        		.byte	0x15
 7644 025a 00        		.byte	0x0
 7645 025b 05        		.uleb128 0x5
 7646 025c 02        		.byte	0x2
 7647 025d 0000 0000 		.long	.LM46
 7648 0261 15        		.byte	0x15
 7649 0262 00        		.byte	0x0
 7650 0263 05        		.uleb128 0x5
 7651 0264 02        		.byte	0x2
 7652 0265 0000 0000 		.long	.LM47
 7653 0269 03        		.byte	0x3
 7654 026a 8A7D      		.sleb128 -374
 7655 026c 01        		.byte	0x1
 7656 026d 00        		.byte	0x0
 7657 026e 05        		.uleb128 0x5
 7658 026f 02        		.byte	0x2
 7659 0270 0000 0000 		.long	.LM48
 7660 0274 18        		.byte	0x18
 7661 0275 00        		.byte	0x0
 7662 0276 05        		.uleb128 0x5
 7663 0277 02        		.byte	0x2
 7664 0278 0000 0000 		.long	.LM49
 7665 027c 15        		.byte	0x15
 7666 027d 00        		.byte	0x0
 7667 027e 05        		.uleb128 0x5
 7668 027f 02        		.byte	0x2
 7669 0280 0000 0000 		.long	.LM50
 7670 0284 15        		.byte	0x15
 7671 0285 00        		.byte	0x0
 7672 0286 05        		.uleb128 0x5
 7673 0287 02        		.byte	0x2
 7674 0288 0000 0000 		.long	.LM51
 7675 028c 16        		.byte	0x16
 7676 028d 00        		.byte	0x0
 7677 028e 05        		.uleb128 0x5
 7678 028f 02        		.byte	0x2
 7679 0290 0000 0000 		.long	.LM52
 7680 0294 15        		.byte	0x15
 7681 0295 00        		.byte	0x0
 7682 0296 05        		.uleb128 0x5
 7683 0297 02        		.byte	0x2
 7684 0298 0000 0000 		.long	.LM53
 7685 029c 16        		.byte	0x16
 7686 029d 00        		.byte	0x0
 7687 029e 05        		.uleb128 0x5
 7688 029f 02        		.byte	0x2
 7689 02a0 0000 0000 		.long	.LM54
 7690 02a4 15        		.byte	0x15
 7691 02a5 00        		.byte	0x0
 7692 02a6 05        		.uleb128 0x5
 7693 02a7 02        		.byte	0x2
 7694 02a8 0000 0000 		.long	.LM55
GAS LISTING C:\Users\ADMINI~1\AppData\Local\Temp/ccypPrtA.s 			page 143


 7695 02ac 17        		.byte	0x17
 7696 02ad 00        		.byte	0x0
 7697 02ae 05        		.uleb128 0x5
 7698 02af 02        		.byte	0x2
 7699 02b0 0000 0000 		.long	.LM56
 7700 02b4 2C        		.byte	0x2c
 7701 02b5 00        		.byte	0x0
 7702 02b6 05        		.uleb128 0x5
 7703 02b7 02        		.byte	0x2
 7704 02b8 0000 0000 		.long	.LM57
 7705 02bc 18        		.byte	0x18
 7706 02bd 00        		.byte	0x0
 7707 02be 05        		.uleb128 0x5
 7708 02bf 02        		.byte	0x2
 7709 02c0 0000 0000 		.long	.LM58
 7710 02c4 16        		.byte	0x16
 7711 02c5 00        		.byte	0x0
 7712 02c6 05        		.uleb128 0x5
 7713 02c7 02        		.byte	0x2
 7714 02c8 0000 0000 		.long	.LM59
 7715 02cc 15        		.byte	0x15
 7716 02cd 00        		.byte	0x0
 7717 02ce 05        		.uleb128 0x5
 7718 02cf 02        		.byte	0x2
 7719 02d0 0000 0000 		.long	.LM60
 7720 02d4 13        		.byte	0x13
 7721 02d5 00        		.byte	0x0
 7722 02d6 05        		.uleb128 0x5
 7723 02d7 02        		.byte	0x2
 7724 02d8 0000 0000 		.long	.LM61
 7725 02dc 15        		.byte	0x15
 7726 02dd 00        		.byte	0x0
 7727 02de 05        		.uleb128 0x5
 7728 02df 02        		.byte	0x2
 7729 02e0 0000 0000 		.long	.LM62
 7730 02e4 12        		.byte	0x12
 7731 02e5 00        		.byte	0x0
 7732 02e6 05        		.uleb128 0x5
 7733 02e7 02        		.byte	0x2
 7734 02e8 0000 0000 		.long	.LM63
 7735 02ec 18        		.byte	0x18
 7736 02ed 00        		.byte	0x0
 7737 02ee 05        		.uleb128 0x5
 7738 02ef 02        		.byte	0x2
 7739 02f0 0000 0000 		.long	.LM64
 7740 02f4 03        		.byte	0x3
 7741 02f5 A902      		.sleb128 297
 7742 02f7 01        		.byte	0x1
 7743 02f8 00        		.byte	0x0
 7744 02f9 05        		.uleb128 0x5
 7745 02fa 02        		.byte	0x2
 7746 02fb 0000 0000 		.long	.LM65
 7747 02ff 15        		.byte	0x15
 7748 0300 00        		.byte	0x0
 7749 0301 05        		.uleb128 0x5
 7750 0302 02        		.byte	0x2
 7751 0303 0000 0000 		.long	.LM66
GAS LISTING C:\Users\ADMINI~1\AppData\Local\Temp/ccypPrtA.s 			page 144


 7752 0307 15        		.byte	0x15
 7753 0308 00        		.byte	0x0
 7754 0309 05        		.uleb128 0x5
 7755 030a 02        		.byte	0x2
 7756 030b 0000 0000 		.long	.LM67
 7757 030f 1A        		.byte	0x1a
 7758 0310 00        		.byte	0x0
 7759 0311 05        		.uleb128 0x5
 7760 0312 02        		.byte	0x2
 7761 0313 0000 0000 		.long	.LM68
 7762 0317 12        		.byte	0x12
 7763 0318 00        		.byte	0x0
 7764 0319 05        		.uleb128 0x5
 7765 031a 02        		.byte	0x2
 7766 031b 0000 0000 		.long	.LM69
 7767 031f 13        		.byte	0x13
 7768 0320 00        		.byte	0x0
 7769 0321 05        		.uleb128 0x5
 7770 0322 02        		.byte	0x2
 7771 0323 0000 0000 		.long	.LM70
 7772 0327 1A        		.byte	0x1a
 7773 0328 00        		.byte	0x0
 7774 0329 05        		.uleb128 0x5
 7775 032a 02        		.byte	0x2
 7776 032b 0000 0000 		.long	.LM71
 7777 032f 16        		.byte	0x16
 7778 0330 00        		.byte	0x0
 7779 0331 05        		.uleb128 0x5
 7780 0332 02        		.byte	0x2
 7781 0333 0000 0000 		.long	.LM72
 7782 0337 03        		.byte	0x3
 7783 0338 68        		.sleb128 -24
 7784 0339 01        		.byte	0x1
 7785 033a 00        		.byte	0x0
 7786 033b 05        		.uleb128 0x5
 7787 033c 02        		.byte	0x2
 7788 033d 0000 0000 		.long	.LM73
 7789 0341 15        		.byte	0x15
 7790 0342 00        		.byte	0x0
 7791 0343 05        		.uleb128 0x5
 7792 0344 02        		.byte	0x2
 7793 0345 0000 0000 		.long	.LM74
 7794 0349 15        		.byte	0x15
 7795 034a 00        		.byte	0x0
 7796 034b 05        		.uleb128 0x5
 7797 034c 02        		.byte	0x2
 7798 034d 0000 0000 		.long	.LM75
 7799 0351 16        		.byte	0x16
 7800 0352 00        		.byte	0x0
 7801 0353 05        		.uleb128 0x5
 7802 0354 02        		.byte	0x2
 7803 0355 0000 0000 		.long	.LM76
 7804 0359 16        		.byte	0x16
 7805 035a 00        		.byte	0x0
 7806 035b 05        		.uleb128 0x5
 7807 035c 02        		.byte	0x2
 7808 035d 0000 0000 		.long	.LM77
GAS LISTING C:\Users\ADMINI~1\AppData\Local\Temp/ccypPrtA.s 			page 145


 7809 0361 15        		.byte	0x15
 7810 0362 00        		.byte	0x0
 7811 0363 05        		.uleb128 0x5
 7812 0364 02        		.byte	0x2
 7813 0365 0000 0000 		.long	.LM78
 7814 0369 15        		.byte	0x15
 7815 036a 00        		.byte	0x0
 7816 036b 05        		.uleb128 0x5
 7817 036c 02        		.byte	0x2
 7818 036d 0000 0000 		.long	.LM79
 7819 0371 03        		.byte	0x3
 7820 0372 A47F      		.sleb128 -92
 7821 0374 01        		.byte	0x1
 7822 0375 00        		.byte	0x0
 7823 0376 05        		.uleb128 0x5
 7824 0377 02        		.byte	0x2
 7825 0378 0000 0000 		.long	.LM80
 7826 037c 15        		.byte	0x15
 7827 037d 00        		.byte	0x0
 7828 037e 05        		.uleb128 0x5
 7829 037f 02        		.byte	0x2
 7830 0380 0000 0000 		.long	.LM81
 7831 0384 03        		.byte	0x3
 7832 0385 9E7D      		.sleb128 -354
 7833 0387 01        		.byte	0x1
 7834 0388 00        		.byte	0x0
 7835 0389 05        		.uleb128 0x5
 7836 038a 02        		.byte	0x2
 7837 038b 0000 0000 		.long	.LM82
 7838 038f 15        		.byte	0x15
 7839 0390 00        		.byte	0x0
 7840 0391 05        		.uleb128 0x5
 7841 0392 02        		.byte	0x2
 7842 0393 0000 0000 		.long	.LM83
 7843 0397 03        		.byte	0x3
 7844 0398 E602      		.sleb128 358
 7845 039a 01        		.byte	0x1
 7846 039b 00        		.byte	0x0
 7847 039c 05        		.uleb128 0x5
 7848 039d 02        		.byte	0x2
 7849 039e 0000 0000 		.long	.LM84
 7850 03a2 15        		.byte	0x15
 7851 03a3 00        		.byte	0x0
 7852 03a4 05        		.uleb128 0x5
 7853 03a5 02        		.byte	0x2
 7854 03a6 0000 0000 		.long	.LM85
 7855 03aa 16        		.byte	0x16
 7856 03ab 00        		.byte	0x0
 7857 03ac 05        		.uleb128 0x5
 7858 03ad 02        		.byte	0x2
 7859 03ae 0000 0000 		.long	.LM86
 7860 03b2 16        		.byte	0x16
 7861 03b3 00        		.byte	0x0
 7862 03b4 05        		.uleb128 0x5
 7863 03b5 02        		.byte	0x2
 7864 03b6 0000 0000 		.long	.LM87
 7865 03ba 15        		.byte	0x15
GAS LISTING C:\Users\ADMINI~1\AppData\Local\Temp/ccypPrtA.s 			page 146


 7866 03bb 00        		.byte	0x0
 7867 03bc 05        		.uleb128 0x5
 7868 03bd 02        		.byte	0x2
 7869 03be 0000 0000 		.long	.LM88
 7870 03c2 15        		.byte	0x15
 7871 03c3 00        		.byte	0x0
 7872 03c4 05        		.uleb128 0x5
 7873 03c5 02        		.byte	0x2
 7874 03c6 0000 0000 		.long	.LM89
 7875 03ca 03        		.byte	0x3
 7876 03cb B27F      		.sleb128 -78
 7877 03cd 01        		.byte	0x1
 7878 03ce 00        		.byte	0x0
 7879 03cf 05        		.uleb128 0x5
 7880 03d0 02        		.byte	0x2
 7881 03d1 0000 0000 		.long	.LM90
 7882 03d5 15        		.byte	0x15
 7883 03d6 00        		.byte	0x0
 7884 03d7 05        		.uleb128 0x5
 7885 03d8 02        		.byte	0x2
 7886 03d9 0000 0000 		.long	.LM91
 7887 03dd 15        		.byte	0x15
 7888 03de 00        		.byte	0x0
 7889 03df 05        		.uleb128 0x5
 7890 03e0 02        		.byte	0x2
 7891 03e1 0000 0000 		.long	.LM92
 7892 03e5 15        		.byte	0x15
 7893 03e6 00        		.byte	0x0
 7894 03e7 05        		.uleb128 0x5
 7895 03e8 02        		.byte	0x2
 7896 03e9 0000 0000 		.long	.LM93
 7897 03ed 03        		.byte	0x3
 7898 03ee 6D        		.sleb128 -19
 7899 03ef 01        		.byte	0x1
 7900 03f0 00        		.byte	0x0
 7901 03f1 05        		.uleb128 0x5
 7902 03f2 02        		.byte	0x2
 7903 03f3 0000 0000 		.long	.LM94
 7904 03f7 15        		.byte	0x15
 7905 03f8 00        		.byte	0x0
 7906 03f9 05        		.uleb128 0x5
 7907 03fa 02        		.byte	0x2
 7908 03fb 0000 0000 		.long	.LM95
 7909 03ff 15        		.byte	0x15
 7910 0400 00        		.byte	0x0
 7911 0401 05        		.uleb128 0x5
 7912 0402 02        		.byte	0x2
 7913 0403 0000 0000 		.long	.LM96
 7914 0407 15        		.byte	0x15
 7915 0408 00        		.byte	0x0
 7916 0409 05        		.uleb128 0x5
 7917 040a 02        		.byte	0x2
 7918 040b 0000 0000 		.long	.LM97
 7919 040f 15        		.byte	0x15
 7920 0410 00        		.byte	0x0
 7921 0411 05        		.uleb128 0x5
 7922 0412 02        		.byte	0x2
GAS LISTING C:\Users\ADMINI~1\AppData\Local\Temp/ccypPrtA.s 			page 147


 7923 0413 0000 0000 		.long	.LM98
 7924 0417 15        		.byte	0x15
 7925 0418 00        		.byte	0x0
 7926 0419 05        		.uleb128 0x5
 7927 041a 02        		.byte	0x2
 7928 041b 0000 0000 		.long	.LM99
 7929 041f 15        		.byte	0x15
 7930 0420 00        		.byte	0x0
 7931 0421 05        		.uleb128 0x5
 7932 0422 02        		.byte	0x2
 7933 0423 0000 0000 		.long	.LM100
 7934 0427 15        		.byte	0x15
 7935 0428 00        		.byte	0x0
 7936 0429 05        		.uleb128 0x5
 7937 042a 02        		.byte	0x2
 7938 042b 0000 0000 		.long	.LM101
 7939 042f 15        		.byte	0x15
 7940 0430 00        		.byte	0x0
 7941 0431 05        		.uleb128 0x5
 7942 0432 02        		.byte	0x2
 7943 0433 0000 0000 		.long	.LM102
 7944 0437 15        		.byte	0x15
 7945 0438 00        		.byte	0x0
 7946 0439 05        		.uleb128 0x5
 7947 043a 02        		.byte	0x2
 7948 043b 0000 0000 		.long	.LM103
 7949 043f 15        		.byte	0x15
 7950 0440 00        		.byte	0x0
 7951 0441 05        		.uleb128 0x5
 7952 0442 02        		.byte	0x2
 7953 0443 0000 0000 		.long	.LM104
 7954 0447 15        		.byte	0x15
 7955 0448 00        		.byte	0x0
 7956 0449 05        		.uleb128 0x5
 7957 044a 02        		.byte	0x2
 7958 044b 0000 0000 		.long	.LM105
 7959 044f 16        		.byte	0x16
 7960 0450 00        		.byte	0x0
 7961 0451 05        		.uleb128 0x5
 7962 0452 02        		.byte	0x2
 7963 0453 0000 0000 		.long	.LM106
 7964 0457 15        		.byte	0x15
 7965 0458 00        		.byte	0x0
 7966 0459 05        		.uleb128 0x5
 7967 045a 02        		.byte	0x2
 7968 045b 0000 0000 		.long	.LM107
 7969 045f 03        		.byte	0x3
 7970 0460 E27E      		.sleb128 -158
 7971 0462 01        		.byte	0x1
 7972 0463 00        		.byte	0x0
 7973 0464 05        		.uleb128 0x5
 7974 0465 02        		.byte	0x2
 7975 0466 0000 0000 		.long	.LM108
 7976 046a 01        		.byte	0x1
 7977 046b 00        		.byte	0x0
 7978 046c 05        		.uleb128 0x5
 7979 046d 02        		.byte	0x2
GAS LISTING C:\Users\ADMINI~1\AppData\Local\Temp/ccypPrtA.s 			page 148


 7980 046e 0000 0000 		.long	.LM109
 7981 0472 1C        		.byte	0x1c
 7982 0473 00        		.byte	0x0
 7983 0474 05        		.uleb128 0x5
 7984 0475 02        		.byte	0x2
 7985 0476 0000 0000 		.long	.LM110
 7986 047a 15        		.byte	0x15
 7987 047b 00        		.byte	0x0
 7988 047c 05        		.uleb128 0x5
 7989 047d 02        		.byte	0x2
 7990 047e 0000 0000 		.long	.LM111
 7991 0482 10        		.byte	0x10
 7992 0483 00        		.byte	0x0
 7993 0484 05        		.uleb128 0x5
 7994 0485 02        		.byte	0x2
 7995 0486 0000 0000 		.long	.LM112
 7996 048a 1B        		.byte	0x1b
 7997 048b 00        		.byte	0x0
 7998 048c 05        		.uleb128 0x5
 7999 048d 02        		.byte	0x2
 8000 048e 0000 0000 		.long	.LM113
 8001 0492 22        		.byte	0x22
 8002 0493 00        		.byte	0x0
 8003 0494 05        		.uleb128 0x5
 8004 0495 02        		.byte	0x2
 8005 0496 0000 0000 		.long	.LM114
 8006 049a 18        		.byte	0x18
 8007 049b 00        		.byte	0x0
 8008 049c 05        		.uleb128 0x5
 8009 049d 02        		.byte	0x2
 8010 049e 0000 0000 		.long	.LM115
 8011 04a2 15        		.byte	0x15
 8012 04a3 00        		.byte	0x0
 8013 04a4 05        		.uleb128 0x5
 8014 04a5 02        		.byte	0x2
 8015 04a6 0000 0000 		.long	.LM116
 8016 04aa 17        		.byte	0x17
 8017 04ab 00        		.byte	0x0
 8018 04ac 05        		.uleb128 0x5
 8019 04ad 02        		.byte	0x2
 8020 04ae 0000 0000 		.long	.LM117
 8021 04b2 16        		.byte	0x16
 8022 04b3 00        		.byte	0x0
 8023 04b4 05        		.uleb128 0x5
 8024 04b5 02        		.byte	0x2
 8025 04b6 0000 0000 		.long	.LM118
 8026 04ba 18        		.byte	0x18
 8027 04bb 00        		.byte	0x0
 8028 04bc 05        		.uleb128 0x5
 8029 04bd 02        		.byte	0x2
 8030 04be 0000 0000 		.long	.LM119
 8031 04c2 18        		.byte	0x18
 8032 04c3 00        		.byte	0x0
 8033 04c4 05        		.uleb128 0x5
 8034 04c5 02        		.byte	0x2
 8035 04c6 0000 0000 		.long	.LM120
 8036 04ca 17        		.byte	0x17
GAS LISTING C:\Users\ADMINI~1\AppData\Local\Temp/ccypPrtA.s 			page 149


 8037 04cb 00        		.byte	0x0
 8038 04cc 05        		.uleb128 0x5
 8039 04cd 02        		.byte	0x2
 8040 04ce 0000 0000 		.long	.LM121
 8041 04d2 19        		.byte	0x19
 8042 04d3 00        		.byte	0x0
 8043 04d4 05        		.uleb128 0x5
 8044 04d5 02        		.byte	0x2
 8045 04d6 0000 0000 		.long	.LM122
 8046 04da 19        		.byte	0x19
 8047 04db 00        		.byte	0x0
 8048 04dc 05        		.uleb128 0x5
 8049 04dd 02        		.byte	0x2
 8050 04de 0000 0000 		.long	.LM123
 8051 04e2 18        		.byte	0x18
 8052 04e3 00        		.byte	0x0
 8053 04e4 05        		.uleb128 0x5
 8054 04e5 02        		.byte	0x2
 8055 04e6 0000 0000 		.long	.LM124
 8056 04ea 17        		.byte	0x17
 8057 04eb 00        		.byte	0x0
 8058 04ec 05        		.uleb128 0x5
 8059 04ed 02        		.byte	0x2
 8060 04ee 0000 0000 		.long	.LM125
 8061 04f2 17        		.byte	0x17
 8062 04f3 00        		.byte	0x0
 8063 04f4 05        		.uleb128 0x5
 8064 04f5 02        		.byte	0x2
 8065 04f6 0000 0000 		.long	.LM126
 8066 04fa 19        		.byte	0x19
 8067 04fb 00        		.byte	0x0
 8068 04fc 05        		.uleb128 0x5
 8069 04fd 02        		.byte	0x2
 8070 04fe 0000 0000 		.long	.LM127
 8071 0502 15        		.byte	0x15
 8072 0503 00        		.byte	0x0
 8073 0504 05        		.uleb128 0x5
 8074 0505 02        		.byte	0x2
 8075 0506 0000 0000 		.long	.LM128
 8076 050a 17        		.byte	0x17
 8077 050b 00        		.byte	0x0
 8078 050c 05        		.uleb128 0x5
 8079 050d 02        		.byte	0x2
 8080 050e 0000 0000 		.long	.LM129
 8081 0512 15        		.byte	0x15
 8082 0513 00        		.byte	0x0
 8083 0514 05        		.uleb128 0x5
 8084 0515 02        		.byte	0x2
 8085 0516 0000 0000 		.long	.LM130
 8086 051a 15        		.byte	0x15
 8087 051b 00        		.byte	0x0
 8088 051c 05        		.uleb128 0x5
 8089 051d 02        		.byte	0x2
 8090 051e 0000 0000 		.long	.LM131
 8091 0522 15        		.byte	0x15
 8092 0523 00        		.byte	0x0
 8093 0524 05        		.uleb128 0x5
GAS LISTING C:\Users\ADMINI~1\AppData\Local\Temp/ccypPrtA.s 			page 150


 8094 0525 02        		.byte	0x2
 8095 0526 0000 0000 		.long	.LM132
 8096 052a 17        		.byte	0x17
 8097 052b 00        		.byte	0x0
 8098 052c 05        		.uleb128 0x5
 8099 052d 02        		.byte	0x2
 8100 052e 0000 0000 		.long	.LM133
 8101 0532 15        		.byte	0x15
 8102 0533 00        		.byte	0x0
 8103 0534 05        		.uleb128 0x5
 8104 0535 02        		.byte	0x2
 8105 0536 0000 0000 		.long	.LM134
 8106 053a 15        		.byte	0x15
 8107 053b 00        		.byte	0x0
 8108 053c 05        		.uleb128 0x5
 8109 053d 02        		.byte	0x2
 8110 053e 0000 0000 		.long	.LM135
 8111 0542 17        		.byte	0x17
 8112 0543 00        		.byte	0x0
 8113 0544 05        		.uleb128 0x5
 8114 0545 02        		.byte	0x2
 8115 0546 0000 0000 		.long	.LM136
 8116 054a 04        		.byte	0x4
 8117 054b 02        		.uleb128 0x2
 8118 054c 03        		.byte	0x3
 8119 054d C07D      		.sleb128 -320
 8120 054f 01        		.byte	0x1
 8121 0550 00        		.byte	0x0
 8122 0551 05        		.uleb128 0x5
 8123 0552 02        		.byte	0x2
 8124 0553 0000 0000 		.long	.LM137
 8125 0557 04        		.byte	0x4
 8126 0558 03        		.uleb128 0x3
 8127 0559 27        		.byte	0x27
 8128 055a 00        		.byte	0x0
 8129 055b 05        		.uleb128 0x5
 8130 055c 02        		.byte	0x2
 8131 055d 0000 0000 		.long	.LM138
 8132 0561 10        		.byte	0x10
 8133 0562 00        		.byte	0x0
 8134 0563 05        		.uleb128 0x5
 8135 0564 02        		.byte	0x2
 8136 0565 0000 0000 		.long	.LM139
 8137 0569 04        		.byte	0x4
 8138 056a 01        		.uleb128 0x1
 8139 056b 03        		.byte	0x3
 8140 056c B902      		.sleb128 313
 8141 056e 01        		.byte	0x1
 8142 056f 00        		.byte	0x0
 8143 0570 05        		.uleb128 0x5
 8144 0571 02        		.byte	0x2
 8145 0572 0000 0000 		.long	.LM140
 8146 0576 28        		.byte	0x28
 8147 0577 00        		.byte	0x0
 8148 0578 05        		.uleb128 0x5
 8149 0579 02        		.byte	0x2
 8150 057a 0000 0000 		.long	.LM141
GAS LISTING C:\Users\ADMINI~1\AppData\Local\Temp/ccypPrtA.s 			page 151


 8151 057e 15        		.byte	0x15
 8152 057f 00        		.byte	0x0
 8153 0580 05        		.uleb128 0x5
 8154 0581 02        		.byte	0x2
 8155 0582 0000 0000 		.long	.LM142
 8156 0586 15        		.byte	0x15
 8157 0587 00        		.byte	0x0
 8158 0588 05        		.uleb128 0x5
 8159 0589 02        		.byte	0x2
 8160 058a 0000 0000 		.long	.LM143
 8161 058e 15        		.byte	0x15
 8162 058f 00        		.byte	0x0
 8163 0590 05        		.uleb128 0x5
 8164 0591 02        		.byte	0x2
 8165 0592 0000 0000 		.long	.LM144
 8166 0596 15        		.byte	0x15
 8167 0597 00        		.byte	0x0
 8168 0598 05        		.uleb128 0x5
 8169 0599 02        		.byte	0x2
 8170 059a 0000 0000 		.long	.LM145
 8171 059e 15        		.byte	0x15
 8172 059f 00        		.byte	0x0
 8173 05a0 05        		.uleb128 0x5
 8174 05a1 02        		.byte	0x2
 8175 05a2 0000 0000 		.long	.LM146
 8176 05a6 15        		.byte	0x15
 8177 05a7 00        		.byte	0x0
 8178 05a8 05        		.uleb128 0x5
 8179 05a9 02        		.byte	0x2
 8180 05aa 0000 0000 		.long	.LM147
 8181 05ae 15        		.byte	0x15
 8182 05af 00        		.byte	0x0
 8183 05b0 05        		.uleb128 0x5
 8184 05b1 02        		.byte	0x2
 8185 05b2 0000 0000 		.long	.LM148
 8186 05b6 15        		.byte	0x15
 8187 05b7 00        		.byte	0x0
 8188 05b8 05        		.uleb128 0x5
 8189 05b9 02        		.byte	0x2
 8190 05ba 0000 0000 		.long	.LM149
 8191 05be 15        		.byte	0x15
 8192 05bf 00        		.byte	0x0
 8193 05c0 05        		.uleb128 0x5
 8194 05c1 02        		.byte	0x2
 8195 05c2 0000 0000 		.long	.LM150
 8196 05c6 16        		.byte	0x16
 8197 05c7 00        		.byte	0x0
 8198 05c8 05        		.uleb128 0x5
 8199 05c9 02        		.byte	0x2
 8200 05ca 0000 0000 		.long	.LM151
 8201 05ce 15        		.byte	0x15
 8202 05cf 00        		.byte	0x0
 8203 05d0 05        		.uleb128 0x5
 8204 05d1 02        		.byte	0x2
 8205 05d2 0000 0000 		.long	.LM152
 8206 05d6 16        		.byte	0x16
 8207 05d7 00        		.byte	0x0
GAS LISTING C:\Users\ADMINI~1\AppData\Local\Temp/ccypPrtA.s 			page 152


 8208 05d8 05        		.uleb128 0x5
 8209 05d9 02        		.byte	0x2
 8210 05da 0000 0000 		.long	.LM153
 8211 05de 03        		.byte	0x3
 8212 05df 60        		.sleb128 -32
 8213 05e0 01        		.byte	0x1
 8214 05e1 00        		.byte	0x0
 8215 05e2 05        		.uleb128 0x5
 8216 05e3 02        		.byte	0x2
 8217 05e4 0000 0000 		.long	.LM154
 8218 05e8 15        		.byte	0x15
 8219 05e9 00        		.byte	0x0
 8220 05ea 05        		.uleb128 0x5
 8221 05eb 02        		.byte	0x2
 8222 05ec 0000 0000 		.long	.LM155
 8223 05f0 15        		.byte	0x15
 8224 05f1 00        		.byte	0x0
 8225 05f2 05        		.uleb128 0x5
 8226 05f3 02        		.byte	0x2
 8227 05f4 0000 0000 		.long	.LM156
 8228 05f8 15        		.byte	0x15
 8229 05f9 00        		.byte	0x0
 8230 05fa 05        		.uleb128 0x5
 8231 05fb 02        		.byte	0x2
 8232 05fc 0000 0000 		.long	.LM157
 8233 0600 15        		.byte	0x15
 8234 0601 00        		.byte	0x0
 8235 0602 05        		.uleb128 0x5
 8236 0603 02        		.byte	0x2
 8237 0604 0000 0000 		.long	.LM158
 8238 0608 15        		.byte	0x15
 8239 0609 00        		.byte	0x0
 8240 060a 05        		.uleb128 0x5
 8241 060b 02        		.byte	0x2
 8242 060c 0000 0000 		.long	.LM159
 8243 0610 15        		.byte	0x15
 8244 0611 00        		.byte	0x0
 8245 0612 05        		.uleb128 0x5
 8246 0613 02        		.byte	0x2
 8247 0614 0000 0000 		.long	.LM160
 8248 0618 15        		.byte	0x15
 8249 0619 00        		.byte	0x0
 8250 061a 05        		.uleb128 0x5
 8251 061b 02        		.byte	0x2
 8252 061c 0000 0000 		.long	.LM161
 8253 0620 15        		.byte	0x15
 8254 0621 00        		.byte	0x0
 8255 0622 05        		.uleb128 0x5
 8256 0623 02        		.byte	0x2
 8257 0624 0000 0000 		.long	.LM162
 8258 0628 15        		.byte	0x15
 8259 0629 00        		.byte	0x0
 8260 062a 05        		.uleb128 0x5
 8261 062b 02        		.byte	0x2
 8262 062c 0000 0000 		.long	.LM163
 8263 0630 15        		.byte	0x15
 8264 0631 00        		.byte	0x0
GAS LISTING C:\Users\ADMINI~1\AppData\Local\Temp/ccypPrtA.s 			page 153


 8265 0632 05        		.uleb128 0x5
 8266 0633 02        		.byte	0x2
 8267 0634 0000 0000 		.long	.LM164
 8268 0638 15        		.byte	0x15
 8269 0639 00        		.byte	0x0
 8270 063a 05        		.uleb128 0x5
 8271 063b 02        		.byte	0x2
 8272 063c 0000 0000 		.long	.LM165
 8273 0640 16        		.byte	0x16
 8274 0641 00        		.byte	0x0
 8275 0642 05        		.uleb128 0x5
 8276 0643 02        		.byte	0x2
 8277 0644 0000 0000 		.long	.LM166
 8278 0648 15        		.byte	0x15
 8279 0649 00        		.byte	0x0
 8280 064a 05        		.uleb128 0x5
 8281 064b 02        		.byte	0x2
 8282 064c 0000 0000 		.long	.LM167
 8283 0650 15        		.byte	0x15
 8284 0651 00        		.byte	0x0
 8285 0652 05        		.uleb128 0x5
 8286 0653 02        		.byte	0x2
 8287 0654 0000 0000 		.long	.LM168
 8288 0658 CB        		.byte	0xcb
 8289 0659 00        		.byte	0x0
 8290 065a 05        		.uleb128 0x5
 8291 065b 02        		.byte	0x2
 8292 065c 0000 0000 		.long	.LM169
 8293 0660 01        		.byte	0x1
 8294 0661 00        		.byte	0x0
 8295 0662 05        		.uleb128 0x5
 8296 0663 02        		.byte	0x2
 8297 0664 0000 0000 		.long	.LM170
 8298 0668 19        		.byte	0x19
 8299 0669 00        		.byte	0x0
 8300 066a 05        		.uleb128 0x5
 8301 066b 02        		.byte	0x2
 8302 066c 0000 0000 		.long	.LM171
 8303 0670 12        		.byte	0x12
 8304 0671 00        		.byte	0x0
 8305 0672 05        		.uleb128 0x5
 8306 0673 02        		.byte	0x2
 8307 0674 0000 0000 		.long	.LM172
 8308 0678 1A        		.byte	0x1a
 8309 0679 00        		.byte	0x0
 8310 067a 05        		.uleb128 0x5
 8311 067b 02        		.byte	0x2
 8312 067c 0000 0000 		.long	.LM173
 8313 0680 15        		.byte	0x15
 8314 0681 00        		.byte	0x0
 8315 0682 05        		.uleb128 0x5
 8316 0683 02        		.byte	0x2
 8317 0684 0000 0000 		.long	.LM174
 8318 0688 15        		.byte	0x15
 8319 0689 00        		.byte	0x0
 8320 068a 05        		.uleb128 0x5
 8321 068b 02        		.byte	0x2
GAS LISTING C:\Users\ADMINI~1\AppData\Local\Temp/ccypPrtA.s 			page 154


 8322 068c 0000 0000 		.long	.LM175
 8323 0690 03        		.byte	0x3
 8324 0691 62        		.sleb128 -30
 8325 0692 01        		.byte	0x1
 8326 0693 00        		.byte	0x0
 8327 0694 05        		.uleb128 0x5
 8328 0695 02        		.byte	0x2
 8329 0696 0000 0000 		.long	.LM176
 8330 069a 15        		.byte	0x15
 8331 069b 00        		.byte	0x0
 8332 069c 05        		.uleb128 0x5
 8333 069d 02        		.byte	0x2
 8334 069e 0000 0000 		.long	.LM177
 8335 06a2 1F        		.byte	0x1f
 8336 06a3 00        		.byte	0x0
 8337 06a4 05        		.uleb128 0x5
 8338 06a5 02        		.byte	0x2
 8339 06a6 0000 0000 		.long	.LM178
 8340 06aa 10        		.byte	0x10
 8341 06ab 00        		.byte	0x0
 8342 06ac 05        		.uleb128 0x5
 8343 06ad 02        		.byte	0x2
 8344 06ae 0000 0000 		.long	.LM179
 8345 06b2 1C        		.byte	0x1c
 8346 06b3 00        		.byte	0x0
 8347 06b4 05        		.uleb128 0x5
 8348 06b5 02        		.byte	0x2
 8349 06b6 0000 0000 		.long	.LM180
 8350 06ba 15        		.byte	0x15
 8351 06bb 00        		.byte	0x0
 8352 06bc 05        		.uleb128 0x5
 8353 06bd 02        		.byte	0x2
 8354 06be 0000 0000 		.long	.LM181
 8355 06c2 03        		.byte	0x3
 8356 06c3 5C        		.sleb128 -36
 8357 06c4 01        		.byte	0x1
 8358 06c5 00        		.byte	0x0
 8359 06c6 05        		.uleb128 0x5
 8360 06c7 02        		.byte	0x2
 8361 06c8 0000 0000 		.long	.LM182
 8362 06cc 15        		.byte	0x15
 8363 06cd 00        		.byte	0x0
 8364 06ce 05        		.uleb128 0x5
 8365 06cf 02        		.byte	0x2
 8366 06d0 0000 0000 		.long	.LM183
 8367 06d4 1C        		.byte	0x1c
 8368 06d5 00        		.byte	0x0
 8369 06d6 05        		.uleb128 0x5
 8370 06d7 02        		.byte	0x2
 8371 06d8 0000 0000 		.long	.LM184
 8372 06dc 13        		.byte	0x13
 8373 06dd 00        		.byte	0x0
 8374 06de 05        		.uleb128 0x5
 8375 06df 02        		.byte	0x2
 8376 06e0 0000 0000 		.long	.LM185
 8377 06e4 16        		.byte	0x16
 8378 06e5 00        		.byte	0x0
GAS LISTING C:\Users\ADMINI~1\AppData\Local\Temp/ccypPrtA.s 			page 155


 8379 06e6 05        		.uleb128 0x5
 8380 06e7 02        		.byte	0x2
 8381 06e8 0000 0000 		.long	.LM186
 8382 06ec 16        		.byte	0x16
 8383 06ed 00        		.byte	0x0
 8384 06ee 05        		.uleb128 0x5
 8385 06ef 02        		.byte	0x2
 8386 06f0 0000 0000 		.long	.LM187
 8387 06f4 15        		.byte	0x15
 8388 06f5 00        		.byte	0x0
 8389 06f6 05        		.uleb128 0x5
 8390 06f7 02        		.byte	0x2
 8391 06f8 0000 0000 		.long	.LM188
 8392 06fc 0F        		.byte	0xf
 8393 06fd 00        		.byte	0x0
 8394 06fe 05        		.uleb128 0x5
 8395 06ff 02        		.byte	0x2
 8396 0700 0000 0000 		.long	.LM189
 8397 0704 1D        		.byte	0x1d
 8398 0705 00        		.byte	0x0
 8399 0706 05        		.uleb128 0x5
 8400 0707 02        		.byte	0x2
 8401 0708 0000 0000 		.long	.LM190
 8402 070c 03        		.byte	0x3
 8403 070d 947F      		.sleb128 -108
 8404 070f 01        		.byte	0x1
 8405 0710 00        		.byte	0x0
 8406 0711 05        		.uleb128 0x5
 8407 0712 02        		.byte	0x2
 8408 0713 0000 0000 		.long	.LM191
 8409 0717 01        		.byte	0x1
 8410 0718 00        		.byte	0x0
 8411 0719 05        		.uleb128 0x5
 8412 071a 02        		.byte	0x2
 8413 071b 0000 0000 		.long	.LM192
 8414 071f 1B        		.byte	0x1b
 8415 0720 00        		.byte	0x0
 8416 0721 05        		.uleb128 0x5
 8417 0722 02        		.byte	0x2
 8418 0723 0000 0000 		.long	.LM193
 8419 0727 11        		.byte	0x11
 8420 0728 00        		.byte	0x0
 8421 0729 05        		.uleb128 0x5
 8422 072a 02        		.byte	0x2
 8423 072b 0000 0000 		.long	.LM194
 8424 072f 13        		.byte	0x13
 8425 0730 00        		.byte	0x0
 8426 0731 05        		.uleb128 0x5
 8427 0732 02        		.byte	0x2
 8428 0733 0000 0000 		.long	.LM195
 8429 0737 1B        		.byte	0x1b
 8430 0738 00        		.byte	0x0
 8431 0739 05        		.uleb128 0x5
 8432 073a 02        		.byte	0x2
 8433 073b 0000 0000 		.long	.LM196
 8434 073f 15        		.byte	0x15
 8435 0740 00        		.byte	0x0
GAS LISTING C:\Users\ADMINI~1\AppData\Local\Temp/ccypPrtA.s 			page 156


 8436 0741 05        		.uleb128 0x5
 8437 0742 02        		.byte	0x2
 8438 0743 0000 0000 		.long	.LM197
 8439 0747 C2        		.byte	0xc2
 8440 0748 00        		.byte	0x0
 8441 0749 05        		.uleb128 0x5
 8442 074a 02        		.byte	0x2
 8443 074b 0000 0000 		.long	.LM198
 8444 074f 15        		.byte	0x15
 8445 0750 00        		.byte	0x0
 8446 0751 05        		.uleb128 0x5
 8447 0752 02        		.byte	0x2
 8448 0753 0000 0000 		.long	.LM199
 8449 0757 16        		.byte	0x16
 8450 0758 00        		.byte	0x0
 8451 0759 05        		.uleb128 0x5
 8452 075a 02        		.byte	0x2
 8453 075b 0000 0000 		.long	.LM200
 8454 075f 16        		.byte	0x16
 8455 0760 00        		.byte	0x0
 8456 0761 05        		.uleb128 0x5
 8457 0762 02        		.byte	0x2
 8458 0763 0000 0000 		.long	.LM201
 8459 0767 18        		.byte	0x18
 8460 0768 00        		.byte	0x0
 8461 0769 05        		.uleb128 0x5
 8462 076a 02        		.byte	0x2
 8463 076b 0000 0000 		.long	.LM202
 8464 076f 1D        		.byte	0x1d
 8465 0770 00        		.byte	0x0
 8466 0771 05        		.uleb128 0x5
 8467 0772 02        		.byte	0x2
 8468 0773 0000 0000 		.long	.LM203
 8469 0777 16        		.byte	0x16
 8470 0778 00        		.byte	0x0
 8471 0779 05        		.uleb128 0x5
 8472 077a 02        		.byte	0x2
 8473 077b 0000 0000 		.long	.LM204
 8474 077f 15        		.byte	0x15
 8475 0780 00        		.byte	0x0
 8476 0781 05        		.uleb128 0x5
 8477 0782 02        		.byte	0x2
 8478 0783 0000 0000 		.long	.LM205
 8479 0787 15        		.byte	0x15
 8480 0788 00        		.byte	0x0
 8481 0789 05        		.uleb128 0x5
 8482 078a 02        		.byte	0x2
 8483 078b 0000 0000 		.long	.LM206
 8484 078f 15        		.byte	0x15
 8485 0790 00        		.byte	0x0
 8486 0791 05        		.uleb128 0x5
 8487 0792 02        		.byte	0x2
 8488 0793 0000 0000 		.long	.LM207
 8489 0797 16        		.byte	0x16
 8490 0798 00        		.byte	0x0
 8491 0799 05        		.uleb128 0x5
 8492 079a 02        		.byte	0x2
GAS LISTING C:\Users\ADMINI~1\AppData\Local\Temp/ccypPrtA.s 			page 157


 8493 079b 0000 0000 		.long	.LM208
 8494 079f 16        		.byte	0x16
 8495 07a0 00        		.byte	0x0
 8496 07a1 05        		.uleb128 0x5
 8497 07a2 02        		.byte	0x2
 8498 07a3 0000 0000 		.long	.LM209
 8499 07a7 15        		.byte	0x15
 8500 07a8 00        		.byte	0x0
 8501 07a9 05        		.uleb128 0x5
 8502 07aa 02        		.byte	0x2
 8503 07ab 0000 0000 		.long	.LM210
 8504 07af 15        		.byte	0x15
 8505 07b0 00        		.byte	0x0
 8506 07b1 05        		.uleb128 0x5
 8507 07b2 02        		.byte	0x2
 8508 07b3 0000 0000 		.long	.LM211
 8509 07b7 1B        		.byte	0x1b
 8510 07b8 00        		.byte	0x0
 8511 07b9 05        		.uleb128 0x5
 8512 07ba 02        		.byte	0x2
 8513 07bb 0000 0000 		.long	.LM212
 8514 07bf 15        		.byte	0x15
 8515 07c0 00        		.byte	0x0
 8516 07c1 05        		.uleb128 0x5
 8517 07c2 02        		.byte	0x2
 8518 07c3 0000 0000 		.long	.LM213
 8519 07c7 17        		.byte	0x17
 8520 07c8 00        		.byte	0x0
 8521 07c9 05        		.uleb128 0x5
 8522 07ca 02        		.byte	0x2
 8523 07cb 0000 0000 		.long	.LM214
 8524 07cf 17        		.byte	0x17
 8525 07d0 00        		.byte	0x0
 8526 07d1 05        		.uleb128 0x5
 8527 07d2 02        		.byte	0x2
 8528 07d3 0000 0000 		.long	.LM215
 8529 07d7 17        		.byte	0x17
 8530 07d8 00        		.byte	0x0
 8531 07d9 05        		.uleb128 0x5
 8532 07da 02        		.byte	0x2
 8533 07db 0000 0000 		.long	.LM216
 8534 07df 15        		.byte	0x15
 8535 07e0 00        		.byte	0x0
 8536 07e1 05        		.uleb128 0x5
 8537 07e2 02        		.byte	0x2
 8538 07e3 0000 0000 		.long	.LM217
 8539 07e7 16        		.byte	0x16
 8540 07e8 00        		.byte	0x0
 8541 07e9 05        		.uleb128 0x5
 8542 07ea 02        		.byte	0x2
 8543 07eb 0000 0000 		.long	.LM218
 8544 07ef 17        		.byte	0x17
 8545 07f0 00        		.byte	0x0
 8546 07f1 05        		.uleb128 0x5
 8547 07f2 02        		.byte	0x2
 8548 07f3 0000 0000 		.long	.LM219
 8549 07f7 18        		.byte	0x18
GAS LISTING C:\Users\ADMINI~1\AppData\Local\Temp/ccypPrtA.s 			page 158


 8550 07f8 00        		.byte	0x0
 8551 07f9 05        		.uleb128 0x5
 8552 07fa 02        		.byte	0x2
 8553 07fb 0000 0000 		.long	.LM220
 8554 07ff 15        		.byte	0x15
 8555 0800 00        		.byte	0x0
 8556 0801 05        		.uleb128 0x5
 8557 0802 02        		.byte	0x2
 8558 0803 0000 0000 		.long	.LM221
 8559 0807 16        		.byte	0x16
 8560 0808 00        		.byte	0x0
 8561 0809 05        		.uleb128 0x5
 8562 080a 02        		.byte	0x2
 8563 080b 0000 0000 		.long	.LM222
 8564 080f 19        		.byte	0x19
 8565 0810 00        		.byte	0x0
 8566 0811 05        		.uleb128 0x5
 8567 0812 02        		.byte	0x2
 8568 0813 0000 0000 		.long	.LM223
 8569 0817 15        		.byte	0x15
 8570 0818 00        		.byte	0x0
 8571 0819 05        		.uleb128 0x5
 8572 081a 02        		.byte	0x2
 8573 081b 0000 0000 		.long	.LM224
 8574 081f 17        		.byte	0x17
 8575 0820 00        		.byte	0x0
 8576 0821 05        		.uleb128 0x5
 8577 0822 02        		.byte	0x2
 8578 0823 0000 0000 		.long	.LM225
 8579 0827 1B        		.byte	0x1b
 8580 0828 00        		.byte	0x0
 8581 0829 05        		.uleb128 0x5
 8582 082a 02        		.byte	0x2
 8583 082b 0000 0000 		.long	.LM226
 8584 082f 16        		.byte	0x16
 8585 0830 00        		.byte	0x0
 8586 0831 05        		.uleb128 0x5
 8587 0832 02        		.byte	0x2
 8588 0833 0000 0000 		.long	.LM227
 8589 0837 15        		.byte	0x15
 8590 0838 00        		.byte	0x0
 8591 0839 05        		.uleb128 0x5
 8592 083a 02        		.byte	0x2
 8593 083b 0000 0000 		.long	.LM228
 8594 083f 16        		.byte	0x16
 8595 0840 00        		.byte	0x0
 8596 0841 05        		.uleb128 0x5
 8597 0842 02        		.byte	0x2
 8598 0843 0000 0000 		.long	.LM229
 8599 0847 15        		.byte	0x15
 8600 0848 00        		.byte	0x0
 8601 0849 05        		.uleb128 0x5
 8602 084a 02        		.byte	0x2
 8603 084b 0000 0000 		.long	.LM230
 8604 084f 1D        		.byte	0x1d
 8605 0850 00        		.byte	0x0
 8606 0851 05        		.uleb128 0x5
GAS LISTING C:\Users\ADMINI~1\AppData\Local\Temp/ccypPrtA.s 			page 159


 8607 0852 02        		.byte	0x2
 8608 0853 0000 0000 		.long	.LM231
 8609 0857 15        		.byte	0x15
 8610 0858 00        		.byte	0x0
 8611 0859 05        		.uleb128 0x5
 8612 085a 02        		.byte	0x2
 8613 085b 0000 0000 		.long	.LM232
 8614 085f 15        		.byte	0x15
 8615 0860 00        		.byte	0x0
 8616 0861 05        		.uleb128 0x5
 8617 0862 02        		.byte	0x2
 8618 0863 0000 0000 		.long	.LM233
 8619 0867 16        		.byte	0x16
 8620 0868 00        		.byte	0x0
 8621 0869 05        		.uleb128 0x5
 8622 086a 02        		.byte	0x2
 8623 086b 0000 0000 		.long	.LM234
 8624 086f 15        		.byte	0x15
 8625 0870 00        		.byte	0x0
 8626 0871 05        		.uleb128 0x5
 8627 0872 02        		.byte	0x2
 8628 0873 0000 0000 		.long	.LM235
 8629 0877 15        		.byte	0x15
 8630 0878 00        		.byte	0x0
 8631 0879 05        		.uleb128 0x5
 8632 087a 02        		.byte	0x2
 8633 087b 0000 0000 		.long	.LM236
 8634 087f 17        		.byte	0x17
 8635 0880 00        		.byte	0x0
 8636 0881 05        		.uleb128 0x5
 8637 0882 02        		.byte	0x2
 8638 0883 0000 0000 		.long	.LM237
 8639 0887 16        		.byte	0x16
 8640 0888 00        		.byte	0x0
 8641 0889 05        		.uleb128 0x5
 8642 088a 02        		.byte	0x2
 8643 088b 0000 0000 		.long	.LM238
 8644 088f 15        		.byte	0x15
 8645 0890 00        		.byte	0x0
 8646 0891 05        		.uleb128 0x5
 8647 0892 02        		.byte	0x2
 8648 0893 0000 0000 		.long	.LM239
 8649 0897 15        		.byte	0x15
 8650 0898 00        		.byte	0x0
 8651 0899 05        		.uleb128 0x5
 8652 089a 02        		.byte	0x2
 8653 089b 0000 0000 		.long	.LM240
 8654 089f 03        		.byte	0x3
 8655 08a0 BE7D      		.sleb128 -322
 8656 08a2 01        		.byte	0x1
 8657 08a3 00        		.byte	0x0
 8658 08a4 05        		.uleb128 0x5
 8659 08a5 02        		.byte	0x2
 8660 08a6 0000 0000 		.long	.LM241
 8661 08aa 15        		.byte	0x15
 8662 08ab 00        		.byte	0x0
 8663 08ac 05        		.uleb128 0x5
GAS LISTING C:\Users\ADMINI~1\AppData\Local\Temp/ccypPrtA.s 			page 160


 8664 08ad 02        		.byte	0x2
 8665 08ae 0000 0000 		.long	.LM242
 8666 08b2 15        		.byte	0x15
 8667 08b3 00        		.byte	0x0
 8668 08b4 05        		.uleb128 0x5
 8669 08b5 02        		.byte	0x2
 8670 08b6 0000 0000 		.long	.LM243
 8671 08ba 15        		.byte	0x15
 8672 08bb 00        		.byte	0x0
 8673 08bc 05        		.uleb128 0x5
 8674 08bd 02        		.byte	0x2
 8675 08be 0000 0000 		.long	.LM244
 8676 08c2 15        		.byte	0x15
 8677 08c3 00        		.byte	0x0
 8678 08c4 05        		.uleb128 0x5
 8679 08c5 02        		.byte	0x2
 8680 08c6 0000 0000 		.long	.LM245
 8681 08ca 15        		.byte	0x15
 8682 08cb 00        		.byte	0x0
 8683 08cc 05        		.uleb128 0x5
 8684 08cd 02        		.byte	0x2
 8685 08ce 0000 0000 		.long	.LM246
 8686 08d2 17        		.byte	0x17
 8687 08d3 00        		.byte	0x0
 8688 08d4 05        		.uleb128 0x5
 8689 08d5 02        		.byte	0x2
 8690 08d6 0000 0000 		.long	.LM247
 8691 08da 15        		.byte	0x15
 8692 08db 00        		.byte	0x0
 8693 08dc 05        		.uleb128 0x5
 8694 08dd 02        		.byte	0x2
 8695 08de 0000 0000 		.long	.LM248
 8696 08e2 15        		.byte	0x15
 8697 08e3 00        		.byte	0x0
 8698 08e4 05        		.uleb128 0x5
 8699 08e5 02        		.byte	0x2
 8700 08e6 0000 0000 		.long	.LM249
 8701 08ea 03        		.byte	0x3
 8702 08eb BA02      		.sleb128 314
 8703 08ed 01        		.byte	0x1
 8704 08ee 00        		.byte	0x0
 8705 08ef 05        		.uleb128 0x5
 8706 08f0 02        		.byte	0x2
 8707 08f1 0000 0000 		.long	.LM250
 8708 08f5 15        		.byte	0x15
 8709 08f6 00        		.byte	0x0
 8710 08f7 05        		.uleb128 0x5
 8711 08f8 02        		.byte	0x2
 8712 08f9 0000 0000 		.long	.LM251
 8713 08fd 15        		.byte	0x15
 8714 08fe 00        		.byte	0x0
 8715 08ff 05        		.uleb128 0x5
 8716 0900 02        		.byte	0x2
 8717 0901 0000 0000 		.long	.LM252
 8718 0905 15        		.byte	0x15
 8719 0906 00        		.byte	0x0
 8720 0907 05        		.uleb128 0x5
GAS LISTING C:\Users\ADMINI~1\AppData\Local\Temp/ccypPrtA.s 			page 161


 8721 0908 02        		.byte	0x2
 8722 0909 0000 0000 		.long	.LM253
 8723 090d 15        		.byte	0x15
 8724 090e 00        		.byte	0x0
 8725 090f 05        		.uleb128 0x5
 8726 0910 02        		.byte	0x2
 8727 0911 0000 0000 		.long	.LM254
 8728 0915 15        		.byte	0x15
 8729 0916 00        		.byte	0x0
 8730 0917 05        		.uleb128 0x5
 8731 0918 02        		.byte	0x2
 8732 0919 0000 0000 		.long	.LM255
 8733 091d 16        		.byte	0x16
 8734 091e 00        		.byte	0x0
 8735 091f 05        		.uleb128 0x5
 8736 0920 02        		.byte	0x2
 8737 0921 0000 0000 		.long	.LM256
 8738 0925 15        		.byte	0x15
 8739 0926 00        		.byte	0x0
 8740 0927 05        		.uleb128 0x5
 8741 0928 02        		.byte	0x2
 8742 0929 0000 0000 		.long	.LM257
 8743 092d 15        		.byte	0x15
 8744 092e 00        		.byte	0x0
 8745 092f 05        		.uleb128 0x5
 8746 0930 02        		.byte	0x2
 8747 0931 0000 0000 		.long	.LM258
 8748 0935 18        		.byte	0x18
 8749 0936 00        		.byte	0x0
 8750 0937 05        		.uleb128 0x5
 8751 0938 02        		.byte	0x2
 8752 0939 0000 0000 		.long	.LM259
 8753 093d 15        		.byte	0x15
 8754 093e 00        		.byte	0x0
 8755 093f 05        		.uleb128 0x5
 8756 0940 02        		.byte	0x2
 8757 0941 0000 0000 		.long	.LM260
 8758 0945 17        		.byte	0x17
 8759 0946 00        		.byte	0x0
 8760 0947 05        		.uleb128 0x5
 8761 0948 02        		.byte	0x2
 8762 0949 0000 0000 		.long	.LM261
 8763 094d 15        		.byte	0x15
 8764 094e 00        		.byte	0x0
 8765 094f 05        		.uleb128 0x5
 8766 0950 02        		.byte	0x2
 8767 0951 0000 0000 		.long	.LM262
 8768 0955 16        		.byte	0x16
 8769 0956 00        		.byte	0x0
 8770 0957 05        		.uleb128 0x5
 8771 0958 02        		.byte	0x2
 8772 0959 0000 0000 		.long	.LM263
 8773 095d 15        		.byte	0x15
 8774 095e 00        		.byte	0x0
 8775 095f 05        		.uleb128 0x5
 8776 0960 02        		.byte	0x2
 8777 0961 0000 0000 		.long	.LM264
GAS LISTING C:\Users\ADMINI~1\AppData\Local\Temp/ccypPrtA.s 			page 162


 8778 0965 15        		.byte	0x15
 8779 0966 00        		.byte	0x0
 8780 0967 05        		.uleb128 0x5
 8781 0968 02        		.byte	0x2
 8782 0969 0000 0000 		.long	.LM265
 8783 096d 15        		.byte	0x15
 8784 096e 00        		.byte	0x0
 8785 096f 05        		.uleb128 0x5
 8786 0970 02        		.byte	0x2
 8787 0971 0000 0000 		.long	.LM266
 8788 0975 17        		.byte	0x17
 8789 0976 00        		.byte	0x0
 8790 0977 05        		.uleb128 0x5
 8791 0978 02        		.byte	0x2
 8792 0979 0000 0000 		.long	.LM267
 8793 097d 15        		.byte	0x15
 8794 097e 00        		.byte	0x0
 8795 097f 05        		.uleb128 0x5
 8796 0980 02        		.byte	0x2
 8797 0981 0000 0000 		.long	.LM268
 8798 0985 15        		.byte	0x15
 8799 0986 00        		.byte	0x0
 8800 0987 05        		.uleb128 0x5
 8801 0988 02        		.byte	0x2
 8802 0989 0000 0000 		.long	.LM269
 8803 098d 17        		.byte	0x17
 8804 098e 00        		.byte	0x0
 8805 098f 05        		.uleb128 0x5
 8806 0990 02        		.byte	0x2
 8807 0991 0000 0000 		.long	.LM270
 8808 0995 16        		.byte	0x16
 8809 0996 00        		.byte	0x0
 8810 0997 05        		.uleb128 0x5
 8811 0998 02        		.byte	0x2
 8812 0999 0000 0000 		.long	.LM271
 8813 099d 17        		.byte	0x17
 8814 099e 00        		.byte	0x0
 8815 099f 05        		.uleb128 0x5
 8816 09a0 02        		.byte	0x2
 8817 09a1 0000 0000 		.long	.LM272
 8818 09a5 15        		.byte	0x15
 8819 09a6 00        		.byte	0x0
 8820 09a7 05        		.uleb128 0x5
 8821 09a8 02        		.byte	0x2
 8822 09a9 0000 0000 		.long	.LM273
 8823 09ad 15        		.byte	0x15
 8824 09ae 00        		.byte	0x0
 8825 09af 05        		.uleb128 0x5
 8826 09b0 02        		.byte	0x2
 8827 09b1 0000 0000 		.long	.LM274
 8828 09b5 15        		.byte	0x15
 8829 09b6 00        		.byte	0x0
 8830 09b7 05        		.uleb128 0x5
 8831 09b8 02        		.byte	0x2
 8832 09b9 0000 0000 		.long	.LM275
 8833 09bd 15        		.byte	0x15
 8834 09be 00        		.byte	0x0
GAS LISTING C:\Users\ADMINI~1\AppData\Local\Temp/ccypPrtA.s 			page 163


 8835 09bf 05        		.uleb128 0x5
 8836 09c0 02        		.byte	0x2
 8837 09c1 0000 0000 		.long	.LM276
 8838 09c5 03        		.byte	0x3
 8839 09c6 907B      		.sleb128 -624
 8840 09c8 01        		.byte	0x1
 8841 09c9 00        		.byte	0x0
 8842 09ca 05        		.uleb128 0x5
 8843 09cb 02        		.byte	0x2
 8844 09cc 0000 0000 		.long	.LM277
 8845 09d0 15        		.byte	0x15
 8846 09d1 00        		.byte	0x0
 8847 09d2 05        		.uleb128 0x5
 8848 09d3 02        		.byte	0x2
 8849 09d4 0000 0000 		.long	.LM278
 8850 09d8 03        		.byte	0x3
 8851 09d9 F104      		.sleb128 625
 8852 09db 01        		.byte	0x1
 8853 09dc 00        		.byte	0x0
 8854 09dd 05        		.uleb128 0x5
 8855 09de 02        		.byte	0x2
 8856 09df 0000 0000 		.long	.LM279
 8857 09e3 15        		.byte	0x15
 8858 09e4 00        		.byte	0x0
 8859 09e5 05        		.uleb128 0x5
 8860 09e6 02        		.byte	0x2
 8861 09e7 0000 0000 		.long	.LM280
 8862 09eb 15        		.byte	0x15
 8863 09ec 00        		.byte	0x0
 8864 09ed 05        		.uleb128 0x5
 8865 09ee 02        		.byte	0x2
 8866 09ef 0000 0000 		.long	.LM281
 8867 09f3 1E        		.byte	0x1e
 8868 09f4 00        		.byte	0x0
 8869 09f5 05        		.uleb128 0x5
 8870 09f6 02        		.byte	0x2
 8871 09f7 0000 0000 		.long	.LM282
 8872 09fb 16        		.byte	0x16
 8873 09fc 00        		.byte	0x0
 8874 09fd 05        		.uleb128 0x5
 8875 09fe 02        		.byte	0x2
 8876 09ff 0000 0000 		.long	.LM283
 8877 0a03 16        		.byte	0x16
 8878 0a04 00        		.byte	0x0
 8879 0a05 05        		.uleb128 0x5
 8880 0a06 02        		.byte	0x2
 8881 0a07 0000 0000 		.long	.LM284
 8882 0a0b 15        		.byte	0x15
 8883 0a0c 00        		.byte	0x0
 8884 0a0d 05        		.uleb128 0x5
 8885 0a0e 02        		.byte	0x2
 8886 0a0f 0000 0000 		.long	.LM285
 8887 0a13 16        		.byte	0x16
 8888 0a14 00        		.byte	0x0
 8889 0a15 05        		.uleb128 0x5
 8890 0a16 02        		.byte	0x2
 8891 0a17 0000 0000 		.long	.LM286
GAS LISTING C:\Users\ADMINI~1\AppData\Local\Temp/ccypPrtA.s 			page 164


 8892 0a1b 15        		.byte	0x15
 8893 0a1c 00        		.byte	0x0
 8894 0a1d 05        		.uleb128 0x5
 8895 0a1e 02        		.byte	0x2
 8896 0a1f 0000 0000 		.long	.LM287
 8897 0a23 1D        		.byte	0x1d
 8898 0a24 00        		.byte	0x0
 8899 0a25 05        		.uleb128 0x5
 8900 0a26 02        		.byte	0x2
 8901 0a27 0000 0000 		.long	.LM288
 8902 0a2b 16        		.byte	0x16
 8903 0a2c 00        		.byte	0x0
 8904 0a2d 05        		.uleb128 0x5
 8905 0a2e 02        		.byte	0x2
 8906 0a2f 0000 0000 		.long	.LM289
 8907 0a33 16        		.byte	0x16
 8908 0a34 00        		.byte	0x0
 8909 0a35 05        		.uleb128 0x5
 8910 0a36 02        		.byte	0x2
 8911 0a37 0000 0000 		.long	.LM290
 8912 0a3b 16        		.byte	0x16
 8913 0a3c 00        		.byte	0x0
 8914 0a3d 05        		.uleb128 0x5
 8915 0a3e 02        		.byte	0x2
 8916 0a3f 0000 0000 		.long	.LM291
 8917 0a43 16        		.byte	0x16
 8918 0a44 00        		.byte	0x0
 8919 0a45 05        		.uleb128 0x5
 8920 0a46 02        		.byte	0x2
 8921 0a47 0000 0000 		.long	.LM292
 8922 0a4b 17        		.byte	0x17
 8923 0a4c 00        		.byte	0x0
 8924 0a4d 05        		.uleb128 0x5
 8925 0a4e 02        		.byte	0x2
 8926 0a4f 0000 0000 		.long	.LM293
 8927 0a53 15        		.byte	0x15
 8928 0a54 00        		.byte	0x0
 8929 0a55 05        		.uleb128 0x5
 8930 0a56 02        		.byte	0x2
 8931 0a57 0000 0000 		.long	.LM294
 8932 0a5b 15        		.byte	0x15
 8933 0a5c 00        		.byte	0x0
 8934 0a5d 05        		.uleb128 0x5
 8935 0a5e 02        		.byte	0x2
 8936 0a5f 0000 0000 		.long	.LM295
 8937 0a63 15        		.byte	0x15
 8938 0a64 00        		.byte	0x0
 8939 0a65 05        		.uleb128 0x5
 8940 0a66 02        		.byte	0x2
 8941 0a67 0000 0000 		.long	.LM296
 8942 0a6b 16        		.byte	0x16
 8943 0a6c 00        		.byte	0x0
 8944 0a6d 05        		.uleb128 0x5
 8945 0a6e 02        		.byte	0x2
 8946 0a6f 0000 0000 		.long	.LM297
 8947 0a73 15        		.byte	0x15
 8948 0a74 00        		.byte	0x0
GAS LISTING C:\Users\ADMINI~1\AppData\Local\Temp/ccypPrtA.s 			page 165


 8949 0a75 05        		.uleb128 0x5
 8950 0a76 02        		.byte	0x2
 8951 0a77 0000 0000 		.long	.LM298
 8952 0a7b 1E        		.byte	0x1e
 8953 0a7c 00        		.byte	0x0
 8954 0a7d 05        		.uleb128 0x5
 8955 0a7e 02        		.byte	0x2
 8956 0a7f 0000 0000 		.long	.LM299
 8957 0a83 04        		.byte	0x4
 8958 0a84 02        		.uleb128 0x2
 8959 0a85 03        		.byte	0x3
 8960 0a86 ED79      		.sleb128 -787
 8961 0a88 01        		.byte	0x1
 8962 0a89 00        		.byte	0x0
 8963 0a8a 05        		.uleb128 0x5
 8964 0a8b 02        		.byte	0x2
 8965 0a8c 0000 0000 		.long	.LM300
 8966 0a90 04        		.byte	0x4
 8967 0a91 03        		.uleb128 0x3
 8968 0a92 27        		.byte	0x27
 8969 0a93 00        		.byte	0x0
 8970 0a94 05        		.uleb128 0x5
 8971 0a95 02        		.byte	0x2
 8972 0a96 0000 0000 		.long	.LM301
 8973 0a9a 10        		.byte	0x10
 8974 0a9b 00        		.byte	0x0
 8975 0a9c 05        		.uleb128 0x5
 8976 0a9d 02        		.byte	0x2
 8977 0a9e 0000 0000 		.long	.LM302
 8978 0aa2 04        		.byte	0x4
 8979 0aa3 01        		.uleb128 0x1
 8980 0aa4 03        		.byte	0x3
 8981 0aa5 8706      		.sleb128 775
 8982 0aa7 01        		.byte	0x1
 8983 0aa8 00        		.byte	0x0
 8984 0aa9 05        		.uleb128 0x5
 8985 0aaa 02        		.byte	0x2
 8986 0aab 0000 0000 		.long	.LM303
 8987 0aaf 16        		.byte	0x16
 8988 0ab0 00        		.byte	0x0
 8989 0ab1 05        		.uleb128 0x5
 8990 0ab2 02        		.byte	0x2
 8991 0ab3 0000 0000 		.long	.LM304
 8992 0ab7 12        		.byte	0x12
 8993 0ab8 00        		.byte	0x0
 8994 0ab9 05        		.uleb128 0x5
 8995 0aba 02        		.byte	0x2
 8996 0abb 0000 0000 		.long	.LM305
 8997 0abf 16        		.byte	0x16
 8998 0ac0 00        		.byte	0x0
 8999 0ac1 05        		.uleb128 0x5
 9000 0ac2 02        		.byte	0x2
 9001 0ac3 0000 0000 		.long	.LM306
 9002 0ac7 15        		.byte	0x15
 9003 0ac8 00        		.byte	0x0
 9004 0ac9 05        		.uleb128 0x5
 9005 0aca 02        		.byte	0x2
GAS LISTING C:\Users\ADMINI~1\AppData\Local\Temp/ccypPrtA.s 			page 166


 9006 0acb 0000 0000 		.long	.LM307
 9007 0acf 15        		.byte	0x15
 9008 0ad0 00        		.byte	0x0
 9009 0ad1 05        		.uleb128 0x5
 9010 0ad2 02        		.byte	0x2
 9011 0ad3 0000 0000 		.long	.LM308
 9012 0ad7 15        		.byte	0x15
 9013 0ad8 00        		.byte	0x0
 9014 0ad9 05        		.uleb128 0x5
 9015 0ada 02        		.byte	0x2
 9016 0adb 0000 0000 		.long	.LM309
 9017 0adf 15        		.byte	0x15
 9018 0ae0 00        		.byte	0x0
 9019 0ae1 05        		.uleb128 0x5
 9020 0ae2 02        		.byte	0x2
 9021 0ae3 0000 0000 		.long	.LM310
 9022 0ae7 15        		.byte	0x15
 9023 0ae8 00        		.byte	0x0
 9024 0ae9 05        		.uleb128 0x5
 9025 0aea 02        		.byte	0x2
 9026 0aeb 0000 0000 		.long	.LM311
 9027 0aef 15        		.byte	0x15
 9028 0af0 00        		.byte	0x0
 9029 0af1 05        		.uleb128 0x5
 9030 0af2 02        		.byte	0x2
 9031 0af3 0000 0000 		.long	.LM312
 9032 0af7 16        		.byte	0x16
 9033 0af8 00        		.byte	0x0
 9034 0af9 05        		.uleb128 0x5
 9035 0afa 02        		.byte	0x2
 9036 0afb 0000 0000 		.long	.LM313
 9037 0aff 15        		.byte	0x15
 9038 0b00 00        		.byte	0x0
 9039 0b01 05        		.uleb128 0x5
 9040 0b02 02        		.byte	0x2
 9041 0b03 0000 0000 		.long	.LM314
 9042 0b07 15        		.byte	0x15
 9043 0b08 00        		.byte	0x0
 9044 0b09 05        		.uleb128 0x5
 9045 0b0a 02        		.byte	0x2
 9046 0b0b 0000 0000 		.long	.LM315
 9047 0b0f 15        		.byte	0x15
 9048 0b10 00        		.byte	0x0
 9049 0b11 05        		.uleb128 0x5
 9050 0b12 02        		.byte	0x2
 9051 0b13 0000 0000 		.long	.LM316
 9052 0b17 15        		.byte	0x15
 9053 0b18 00        		.byte	0x0
 9054 0b19 05        		.uleb128 0x5
 9055 0b1a 02        		.byte	0x2
 9056 0b1b 0000 0000 		.long	.LM317
 9057 0b1f 15        		.byte	0x15
 9058 0b20 00        		.byte	0x0
 9059 0b21 05        		.uleb128 0x5
 9060 0b22 02        		.byte	0x2
 9061 0b23 0000 0000 		.long	.LM318
 9062 0b27 17        		.byte	0x17
GAS LISTING C:\Users\ADMINI~1\AppData\Local\Temp/ccypPrtA.s 			page 167


 9063 0b28 00        		.byte	0x0
 9064 0b29 05        		.uleb128 0x5
 9065 0b2a 02        		.byte	0x2
 9066 0b2b 0000 0000 		.long	.LM319
 9067 0b2f 15        		.byte	0x15
 9068 0b30 00        		.byte	0x0
 9069 0b31 05        		.uleb128 0x5
 9070 0b32 02        		.byte	0x2
 9071 0b33 0000 0000 		.long	.LM320
 9072 0b37 1B        		.byte	0x1b
 9073 0b38 00        		.byte	0x0
 9074 0b39 05        		.uleb128 0x5
 9075 0b3a 02        		.byte	0x2
 9076 0b3b 0000 0000 		.long	.LM321
 9077 0b3f 15        		.byte	0x15
 9078 0b40 00        		.byte	0x0
 9079 0b41 05        		.uleb128 0x5
 9080 0b42 02        		.byte	0x2
 9081 0b43 0000 0000 		.long	.LM322
 9082 0b47 15        		.byte	0x15
 9083 0b48 00        		.byte	0x0
 9084 0b49 05        		.uleb128 0x5
 9085 0b4a 02        		.byte	0x2
 9086 0b4b 0000 0000 		.long	.LM323
 9087 0b4f 15        		.byte	0x15
 9088 0b50 00        		.byte	0x0
 9089 0b51 05        		.uleb128 0x5
 9090 0b52 02        		.byte	0x2
 9091 0b53 0000 0000 		.long	.LM324
 9092 0b57 15        		.byte	0x15
 9093 0b58 00        		.byte	0x0
 9094 0b59 05        		.uleb128 0x5
 9095 0b5a 02        		.byte	0x2
 9096 0b5b 0000 0000 		.long	.LM325
 9097 0b5f 15        		.byte	0x15
 9098 0b60 00        		.byte	0x0
 9099 0b61 05        		.uleb128 0x5
 9100 0b62 02        		.byte	0x2
 9101 0b63 0000 0000 		.long	.LM326
 9102 0b67 15        		.byte	0x15
 9103 0b68 00        		.byte	0x0
 9104 0b69 05        		.uleb128 0x5
 9105 0b6a 02        		.byte	0x2
 9106 0b6b 0000 0000 		.long	.LM327
 9107 0b6f 15        		.byte	0x15
 9108 0b70 00        		.byte	0x0
 9109 0b71 05        		.uleb128 0x5
 9110 0b72 02        		.byte	0x2
 9111 0b73 0000 0000 		.long	.LM328
 9112 0b77 15        		.byte	0x15
 9113 0b78 00        		.byte	0x0
 9114 0b79 05        		.uleb128 0x5
 9115 0b7a 02        		.byte	0x2
 9116 0b7b 0000 0000 		.long	.LM329
 9117 0b7f 03        		.byte	0x3
 9118 0b80 DF7A      		.sleb128 -673
 9119 0b82 01        		.byte	0x1
GAS LISTING C:\Users\ADMINI~1\AppData\Local\Temp/ccypPrtA.s 			page 168


 9120 0b83 00        		.byte	0x0
 9121 0b84 05        		.uleb128 0x5
 9122 0b85 02        		.byte	0x2
 9123 0b86 0000 0000 		.long	.LM330
 9124 0b8a 03        		.byte	0x3
 9125 0b8b A305      		.sleb128 675
 9126 0b8d 01        		.byte	0x1
 9127 0b8e 00        		.byte	0x0
 9128 0b8f 05        		.uleb128 0x5
 9129 0b90 02        		.byte	0x2
 9130 0b91 0000 0000 		.long	.LM331
 9131 0b95 15        		.byte	0x15
 9132 0b96 00        		.byte	0x0
 9133 0b97 05        		.uleb128 0x5
 9134 0b98 02        		.byte	0x2
 9135 0b99 0000 0000 		.long	.LM332
 9136 0b9d 16        		.byte	0x16
 9137 0b9e 00        		.byte	0x0
 9138 0b9f 05        		.uleb128 0x5
 9139 0ba0 02        		.byte	0x2
 9140 0ba1 0000 0000 		.long	.LM333
 9141 0ba5 15        		.byte	0x15
 9142 0ba6 00        		.byte	0x0
 9143 0ba7 05        		.uleb128 0x5
 9144 0ba8 02        		.byte	0x2
 9145 0ba9 0000 0000 		.long	.LM334
 9146 0bad 15        		.byte	0x15
 9147 0bae 00        		.byte	0x0
 9148 0baf 05        		.uleb128 0x5
 9149 0bb0 02        		.byte	0x2
 9150 0bb1 0000 0000 		.long	.LM335
 9151 0bb5 16        		.byte	0x16
 9152 0bb6 00        		.byte	0x0
 9153 0bb7 05        		.uleb128 0x5
 9154 0bb8 02        		.byte	0x2
 9155 0bb9 0000 0000 		.long	.LM336
 9156 0bbd 16        		.byte	0x16
 9157 0bbe 00        		.byte	0x0
 9158 0bbf 05        		.uleb128 0x5
 9159 0bc0 02        		.byte	0x2
 9160 0bc1 0000 0000 		.long	.LM337
 9161 0bc5 18        		.byte	0x18
 9162 0bc6 00        		.byte	0x0
 9163 0bc7 05        		.uleb128 0x5
 9164 0bc8 02        		.byte	0x2
 9165 0bc9 0000 0000 		.long	.LM338
 9166 0bcd 16        		.byte	0x16
 9167 0bce 00        		.byte	0x0
 9168 0bcf 05        		.uleb128 0x5
 9169 0bd0 02        		.byte	0x2
 9170 0bd1 0000 0000 		.long	.LM339
 9171 0bd5 16        		.byte	0x16
 9172 0bd6 00        		.byte	0x0
 9173 0bd7 05        		.uleb128 0x5
 9174 0bd8 02        		.byte	0x2
 9175 0bd9 0000 0000 		.long	.LM340
 9176 0bdd 17        		.byte	0x17
GAS LISTING C:\Users\ADMINI~1\AppData\Local\Temp/ccypPrtA.s 			page 169


 9177 0bde 00        		.byte	0x0
 9178 0bdf 05        		.uleb128 0x5
 9179 0be0 02        		.byte	0x2
 9180 0be1 0000 0000 		.long	.LM341
 9181 0be5 19        		.byte	0x19
 9182 0be6 00        		.byte	0x0
 9183 0be7 05        		.uleb128 0x5
 9184 0be8 02        		.byte	0x2
 9185 0be9 0000 0000 		.long	.LM342
 9186 0bed 15        		.byte	0x15
 9187 0bee 00        		.byte	0x0
 9188 0bef 05        		.uleb128 0x5
 9189 0bf0 02        		.byte	0x2
 9190 0bf1 0000 0000 		.long	.LM343
 9191 0bf5 15        		.byte	0x15
 9192 0bf6 00        		.byte	0x0
 9193 0bf7 05        		.uleb128 0x5
 9194 0bf8 02        		.byte	0x2
 9195 0bf9 0000 0000 		.long	.LM344
 9196 0bfd 15        		.byte	0x15
 9197 0bfe 00        		.byte	0x0
 9198 0bff 05        		.uleb128 0x5
 9199 0c00 02        		.byte	0x2
 9200 0c01 0000 0000 		.long	.LM345
 9201 0c05 17        		.byte	0x17
 9202 0c06 00        		.byte	0x0
 9203 0c07 05        		.uleb128 0x5
 9204 0c08 02        		.byte	0x2
 9205 0c09 0000 0000 		.long	.LM346
 9206 0c0d 15        		.byte	0x15
 9207 0c0e 00        		.byte	0x0
 9208 0c0f 05        		.uleb128 0x5
 9209 0c10 02        		.byte	0x2
 9210 0c11 0000 0000 		.long	.LM347
 9211 0c15 17        		.byte	0x17
 9212 0c16 00        		.byte	0x0
 9213 0c17 05        		.uleb128 0x5
 9214 0c18 02        		.byte	0x2
 9215 0c19 0000 0000 		.long	.LM348
 9216 0c1d 15        		.byte	0x15
 9217 0c1e 00        		.byte	0x0
 9218 0c1f 05        		.uleb128 0x5
 9219 0c20 02        		.byte	0x2
 9220 0c21 0000 0000 		.long	.LM349
 9221 0c25 15        		.byte	0x15
 9222 0c26 00        		.byte	0x0
 9223 0c27 05        		.uleb128 0x5
 9224 0c28 02        		.byte	0x2
 9225 0c29 0000 0000 		.long	.LM350
 9226 0c2d 04        		.byte	0x4
 9227 0c2e 02        		.uleb128 0x2
 9228 0c2f 03        		.byte	0x3
 9229 0c30 A179      		.sleb128 -863
 9230 0c32 01        		.byte	0x1
 9231 0c33 00        		.byte	0x0
 9232 0c34 05        		.uleb128 0x5
 9233 0c35 02        		.byte	0x2
GAS LISTING C:\Users\ADMINI~1\AppData\Local\Temp/ccypPrtA.s 			page 170


 9234 0c36 0000 0000 		.long	.LM351
 9235 0c3a 04        		.byte	0x4
 9236 0c3b 03        		.uleb128 0x3
 9237 0c3c 27        		.byte	0x27
 9238 0c3d 00        		.byte	0x0
 9239 0c3e 05        		.uleb128 0x5
 9240 0c3f 02        		.byte	0x2
 9241 0c40 0000 0000 		.long	.LM352
 9242 0c44 10        		.byte	0x10
 9243 0c45 00        		.byte	0x0
 9244 0c46 05        		.uleb128 0x5
 9245 0c47 02        		.byte	0x2
 9246 0c48 0000 0000 		.long	.LM353
 9247 0c4c 04        		.byte	0x4
 9248 0c4d 01        		.uleb128 0x1
 9249 0c4e 03        		.byte	0x3
 9250 0c4f D806      		.sleb128 856
 9251 0c51 01        		.byte	0x1
 9252 0c52 00        		.byte	0x0
 9253 0c53 05        		.uleb128 0x5
 9254 0c54 02        		.byte	0x2
 9255 0c55 0000 0000 		.long	.LM354
 9256 0c59 17        		.byte	0x17
 9257 0c5a 00        		.byte	0x0
 9258 0c5b 05        		.uleb128 0x5
 9259 0c5c 02        		.byte	0x2
 9260 0c5d 0000 0000 		.long	.LM355
 9261 0c61 03        		.byte	0x3
 9262 0c62 BF7C      		.sleb128 -449
 9263 0c64 01        		.byte	0x1
 9264 0c65 00        		.byte	0x0
 9265 0c66 05        		.uleb128 0x5
 9266 0c67 02        		.byte	0x2
 9267 0c68 0000 0000 		.long	.LM356
 9268 0c6c 01        		.byte	0x1
 9269 0c6d 00        		.byte	0x0
 9270 0c6e 05        		.uleb128 0x5
 9271 0c6f 02        		.byte	0x2
 9272 0c70 0000 0000 		.long	.LM357
 9273 0c74 1D        		.byte	0x1d
 9274 0c75 00        		.byte	0x0
 9275 0c76 05        		.uleb128 0x5
 9276 0c77 02        		.byte	0x2
 9277 0c78 0000 0000 		.long	.LM358
 9278 0c7c 10        		.byte	0x10
 9279 0c7d 00        		.byte	0x0
 9280 0c7e 05        		.uleb128 0x5
 9281 0c7f 02        		.byte	0x2
 9282 0c80 0000 0000 		.long	.LM359
 9283 0c84 13        		.byte	0x13
 9284 0c85 00        		.byte	0x0
 9285 0c86 05        		.uleb128 0x5
 9286 0c87 02        		.byte	0x2
 9287 0c88 0000 0000 		.long	.LM360
 9288 0c8c 1C        		.byte	0x1c
 9289 0c8d 00        		.byte	0x0
 9290 0c8e 05        		.uleb128 0x5
GAS LISTING C:\Users\ADMINI~1\AppData\Local\Temp/ccypPrtA.s 			page 171


 9291 0c8f 02        		.byte	0x2
 9292 0c90 0000 0000 		.long	.LM361
 9293 0c94 16        		.byte	0x16
 9294 0c95 00        		.byte	0x0
 9295 0c96 05        		.uleb128 0x5
 9296 0c97 02        		.byte	0x2
 9297 0c98 0000 0000 		.long	.LM362
 9298 0c9c 16        		.byte	0x16
 9299 0c9d 00        		.byte	0x0
 9300 0c9e 05        		.uleb128 0x5
 9301 0c9f 02        		.byte	0x2
 9302 0ca0 0000 0000 		.long	.LM363
 9303 0ca4 03        		.byte	0x3
 9304 0ca5 B07D      		.sleb128 -336
 9305 0ca7 01        		.byte	0x1
 9306 0ca8 00        		.byte	0x0
 9307 0ca9 05        		.uleb128 0x5
 9308 0caa 02        		.byte	0x2
 9309 0cab 0000 0000 		.long	.LM364
 9310 0caf 15        		.byte	0x15
 9311 0cb0 00        		.byte	0x0
 9312 0cb1 05        		.uleb128 0x5
 9313 0cb2 02        		.byte	0x2
 9314 0cb3 0000 0000 		.long	.LM365
 9315 0cb7 03        		.byte	0x3
 9316 0cb8 D102      		.sleb128 337
 9317 0cba 01        		.byte	0x1
 9318 0cbb 00        		.byte	0x0
 9319 0cbc 05        		.uleb128 0x5
 9320 0cbd 02        		.byte	0x2
 9321 0cbe 0000 0000 		.long	.LM366
 9322 0cc2 16        		.byte	0x16
 9323 0cc3 00        		.byte	0x0
 9324 0cc4 05        		.uleb128 0x5
 9325 0cc5 02        		.byte	0x2
 9326 0cc6 0000 0000 		.long	.LM367
 9327 0cca 15        		.byte	0x15
 9328 0ccb 00        		.byte	0x0
 9329 0ccc 05        		.uleb128 0x5
 9330 0ccd 02        		.byte	0x2
 9331 0cce 0000 0000 		.long	.LM368
 9332 0cd2 15        		.byte	0x15
 9333 0cd3 00        		.byte	0x0
 9334 0cd4 05        		.uleb128 0x5
 9335 0cd5 02        		.byte	0x2
 9336 0cd6 0000 0000 		.long	.LM369
 9337 0cda 15        		.byte	0x15
 9338 0cdb 00        		.byte	0x0
 9339 0cdc 05        		.uleb128 0x5
 9340 0cdd 02        		.byte	0x2
 9341 0cde 0000 0000 		.long	.LM370
 9342 0ce2 15        		.byte	0x15
 9343 0ce3 00        		.byte	0x0
 9344 0ce4 05        		.uleb128 0x5
 9345 0ce5 02        		.byte	0x2
 9346 0ce6 0000 0000 		.long	.LM371
 9347 0cea 15        		.byte	0x15
GAS LISTING C:\Users\ADMINI~1\AppData\Local\Temp/ccypPrtA.s 			page 172


 9348 0ceb 00        		.byte	0x0
 9349 0cec 05        		.uleb128 0x5
 9350 0ced 02        		.byte	0x2
 9351 0cee 0000 0000 		.long	.LM372
 9352 0cf2 18        		.byte	0x18
 9353 0cf3 00        		.byte	0x0
 9354 0cf4 05        		.uleb128 0x5
 9355 0cf5 02        		.byte	0x2
 9356 0cf6 0000 0000 		.long	.LM373
 9357 0cfa 15        		.byte	0x15
 9358 0cfb 00        		.byte	0x0
 9359 0cfc 05        		.uleb128 0x5
 9360 0cfd 02        		.byte	0x2
 9361 0cfe 0000 0000 		.long	.LM374
 9362 0d02 03        		.byte	0x3
 9363 0d03 56        		.sleb128 -42
 9364 0d04 01        		.byte	0x1
 9365 0d05 00        		.byte	0x0
 9366 0d06 05        		.uleb128 0x5
 9367 0d07 02        		.byte	0x2
 9368 0d08 0000 0000 		.long	.LM375
 9369 0d0c 15        		.byte	0x15
 9370 0d0d 00        		.byte	0x0
 9371 0d0e 05        		.uleb128 0x5
 9372 0d0f 02        		.byte	0x2
 9373 0d10 0000 0000 		.long	.LM376
 9374 0d14 15        		.byte	0x15
 9375 0d15 00        		.byte	0x0
 9376 0d16 05        		.uleb128 0x5
 9377 0d17 02        		.byte	0x2
 9378 0d18 0000 0000 		.long	.LM377
 9379 0d1c 15        		.byte	0x15
 9380 0d1d 00        		.byte	0x0
 9381 0d1e 05        		.uleb128 0x5
 9382 0d1f 02        		.byte	0x2
 9383 0d20 0000 0000 		.long	.LM378
 9384 0d24 15        		.byte	0x15
 9385 0d25 00        		.byte	0x0
 9386 0d26 05        		.uleb128 0x5
 9387 0d27 02        		.byte	0x2
 9388 0d28 0000 0000 		.long	.LM379
 9389 0d2c 16        		.byte	0x16
 9390 0d2d 00        		.byte	0x0
 9391 0d2e 05        		.uleb128 0x5
 9392 0d2f 02        		.byte	0x2
 9393 0d30 0000 0000 		.long	.LM380
 9394 0d34 16        		.byte	0x16
 9395 0d35 00        		.byte	0x0
 9396 0d36 05        		.uleb128 0x5
 9397 0d37 02        		.byte	0x2
 9398 0d38 0000 0000 		.long	.LM381
 9399 0d3c 15        		.byte	0x15
 9400 0d3d 00        		.byte	0x0
 9401 0d3e 05        		.uleb128 0x5
 9402 0d3f 02        		.byte	0x2
 9403 0d40 0000 0000 		.long	.LM382
 9404 0d44 03        		.byte	0x3
GAS LISTING C:\Users\ADMINI~1\AppData\Local\Temp/ccypPrtA.s 			page 173


 9405 0d45 8D7E      		.sleb128 -243
 9406 0d47 01        		.byte	0x1
 9407 0d48 00        		.byte	0x0
 9408 0d49 05        		.uleb128 0x5
 9409 0d4a 02        		.byte	0x2
 9410 0d4b 0000 0000 		.long	.LM383
 9411 0d4f 16        		.byte	0x16
 9412 0d50 00        		.byte	0x0
 9413 0d51 05        		.uleb128 0x5
 9414 0d52 02        		.byte	0x2
 9415 0d53 0000 0000 		.long	.LM384
 9416 0d57 03        		.byte	0x3
 9417 0d58 6A        		.sleb128 -22
 9418 0d59 01        		.byte	0x1
 9419 0d5a 00        		.byte	0x0
 9420 0d5b 05        		.uleb128 0x5
 9421 0d5c 02        		.byte	0x2
 9422 0d5d 0000 0000 		.long	.LM385
 9423 0d61 38        		.byte	0x38
 9424 0d62 00        		.byte	0x0
 9425 0d63 05        		.uleb128 0x5
 9426 0d64 02        		.byte	0x2
 9427 0d65 0000 0000 		.long	.LM386
 9428 0d69 03        		.byte	0x3
 9429 0d6a 54        		.sleb128 -44
 9430 0d6b 01        		.byte	0x1
 9431 0d6c 00        		.byte	0x0
 9432 0d6d 05        		.uleb128 0x5
 9433 0d6e 02        		.byte	0x2
 9434 0d6f 0000 0000 		.long	.LM387
 9435 0d73 45        		.byte	0x45
 9436 0d74 00        		.byte	0x0
 9437 0d75 05        		.uleb128 0x5
 9438 0d76 02        		.byte	0x2
 9439 0d77 0000 0000 		.long	.LM388
 9440 0d7b 03        		.byte	0x3
 9441 0d7c 9302      		.sleb128 275
 9442 0d7e 01        		.byte	0x1
 9443 0d7f 00        		.byte	0x0
 9444 0d80 05        		.uleb128 0x5
 9445 0d81 02        		.byte	0x2
 9446 0d82 0000 0000 		.long	.LM389
 9447 0d86 15        		.byte	0x15
 9448 0d87 00        		.byte	0x0
 9449 0d88 05        		.uleb128 0x5
 9450 0d89 02        		.byte	0x2
 9451 0d8a 0000 0000 		.long	.LM390
 9452 0d8e 03        		.byte	0x3
 9453 0d8f C87D      		.sleb128 -312
 9454 0d91 01        		.byte	0x1
 9455 0d92 00        		.byte	0x0
 9456 0d93 05        		.uleb128 0x5
 9457 0d94 02        		.byte	0x2
 9458 0d95 0000 0000 		.long	.LM391
 9459 0d99 03        		.byte	0x3
 9460 0d9a BC02      		.sleb128 316
 9461 0d9c 01        		.byte	0x1
GAS LISTING C:\Users\ADMINI~1\AppData\Local\Temp/ccypPrtA.s 			page 174


 9462 0d9d 00        		.byte	0x0
 9463 0d9e 05        		.uleb128 0x5
 9464 0d9f 02        		.byte	0x2
 9465 0da0 0000 0000 		.long	.LM392
 9466 0da4 16        		.byte	0x16
 9467 0da5 00        		.byte	0x0
 9468 0da6 05        		.uleb128 0x5
 9469 0da7 02        		.byte	0x2
 9470 0da8 0000 0000 		.long	.LM393
 9471 0dac 15        		.byte	0x15
 9472 0dad 00        		.byte	0x0
 9473 0dae 05        		.uleb128 0x5
 9474 0daf 02        		.byte	0x2
 9475 0db0 0000 0000 		.long	.LM394
 9476 0db4 16        		.byte	0x16
 9477 0db5 00        		.byte	0x0
 9478 0db6 05        		.uleb128 0x5
 9479 0db7 02        		.byte	0x2
 9480 0db8 0000 0000 		.long	.LM395
 9481 0dbc 17        		.byte	0x17
 9482 0dbd 00        		.byte	0x0
 9483 0dbe 05        		.uleb128 0x5
 9484 0dbf 02        		.byte	0x2
 9485 0dc0 0000 0000 		.long	.LM396
 9486 0dc4 03        		.byte	0x3
 9487 0dc5 F77C      		.sleb128 -393
 9488 0dc7 01        		.byte	0x1
 9489 0dc8 00        		.byte	0x0
 9490 0dc9 05        		.uleb128 0x5
 9491 0dca 02        		.byte	0x2
 9492 0dcb 0000 0000 		.long	.LM397
 9493 0dcf 03        		.byte	0x3
 9494 0dd0 B07F      		.sleb128 -80
 9495 0dd2 01        		.byte	0x1
 9496 0dd3 00        		.byte	0x0
 9497 0dd4 05        		.uleb128 0x5
 9498 0dd5 02        		.byte	0x2
 9499 0dd6 0000 0000 		.long	.LM398
 9500 0dda 65        		.byte	0x65
 9501 0ddb 00        		.byte	0x0
 9502 0ddc 05        		.uleb128 0x5
 9503 0ddd 02        		.byte	0x2
 9504 0dde 0000 0000 		.long	.LM399
 9505 0de2 03        		.byte	0x3
 9506 0de3 5B        		.sleb128 -37
 9507 0de4 01        		.byte	0x1
 9508 0de5 00        		.byte	0x0
 9509 0de6 05        		.uleb128 0x5
 9510 0de7 02        		.byte	0x2
 9511 0de8 0000 0000 		.long	.LM400
 9512 0dec 16        		.byte	0x16
 9513 0ded 00        		.byte	0x0
 9514 0dee 05        		.uleb128 0x5
 9515 0def 02        		.byte	0x2
 9516 0df0 0000 0000 		.long	.LM401
 9517 0df4 03        		.byte	0x3
 9518 0df5 6D        		.sleb128 -19
GAS LISTING C:\Users\ADMINI~1\AppData\Local\Temp/ccypPrtA.s 			page 175


 9519 0df6 01        		.byte	0x1
 9520 0df7 00        		.byte	0x0
 9521 0df8 05        		.uleb128 0x5
 9522 0df9 02        		.byte	0x2
 9523 0dfa 0000 0000 		.long	.LM402
 9524 0dfe 03        		.byte	0x3
 9525 0dff 61        		.sleb128 -31
 9526 0e00 01        		.byte	0x1
 9527 0e01 00        		.byte	0x0
 9528 0e02 05        		.uleb128 0x5
 9529 0e03 02        		.byte	0x2
 9530 0e04 0000 0000 		.long	.LM403
 9531 0e08 37        		.byte	0x37
 9532 0e09 00        		.byte	0x0
 9533 0e0a 05        		.uleb128 0x5
 9534 0e0b 02        		.byte	0x2
 9535 0e0c 0000 0000 		.long	.LM404
 9536 0e10 15        		.byte	0x15
 9537 0e11 00        		.byte	0x0
 9538 0e12 05        		.uleb128 0x5
 9539 0e13 02        		.byte	0x2
 9540 0e14 0000 0000 		.long	.LM405
 9541 0e18 16        		.byte	0x16
 9542 0e19 00        		.byte	0x0
 9543 0e1a 05        		.uleb128 0x5
 9544 0e1b 02        		.byte	0x2
 9545 0e1c 0000 0000 		.long	.LM406
 9546 0e20 15        		.byte	0x15
 9547 0e21 00        		.byte	0x0
 9548 0e22 05        		.uleb128 0x5
 9549 0e23 02        		.byte	0x2
 9550 0e24 0000 0000 		.long	.LM407
 9551 0e28 18        		.byte	0x18
 9552 0e29 00        		.byte	0x0
 9553 0e2a 05        		.uleb128 0x5
 9554 0e2b 02        		.byte	0x2
 9555 0e2c 0000 0000 		.long	.LM408
 9556 0e30 16        		.byte	0x16
 9557 0e31 00        		.byte	0x0
 9558 0e32 05        		.uleb128 0x5
 9559 0e33 02        		.byte	0x2
 9560 0e34 0000 0000 		.long	.LM409
 9561 0e38 4B        		.byte	0x4b
 9562 0e39 00        		.byte	0x0
 9563 0e3a 05        		.uleb128 0x5
 9564 0e3b 02        		.byte	0x2
 9565 0e3c 0000 0000 		.long	.LM410
 9566 0e40 15        		.byte	0x15
 9567 0e41 00        		.byte	0x0
 9568 0e42 05        		.uleb128 0x5
 9569 0e43 02        		.byte	0x2
 9570 0e44 0000 0000 		.long	.LM411
 9571 0e48 15        		.byte	0x15
 9572 0e49 00        		.byte	0x0
 9573 0e4a 05        		.uleb128 0x5
 9574 0e4b 02        		.byte	0x2
 9575 0e4c 0000 0000 		.long	.LM412
GAS LISTING C:\Users\ADMINI~1\AppData\Local\Temp/ccypPrtA.s 			page 176


 9576 0e50 15        		.byte	0x15
 9577 0e51 00        		.byte	0x0
 9578 0e52 05        		.uleb128 0x5
 9579 0e53 02        		.byte	0x2
 9580 0e54 0000 0000 		.long	.LM413
 9581 0e58 19        		.byte	0x19
 9582 0e59 00        		.byte	0x0
 9583 0e5a 05        		.uleb128 0x5
 9584 0e5b 02        		.byte	0x2
 9585 0e5c 0000 0000 		.long	.LM414
 9586 0e60 15        		.byte	0x15
 9587 0e61 00        		.byte	0x0
 9588 0e62 05        		.uleb128 0x5
 9589 0e63 02        		.byte	0x2
 9590 0e64 0000 0000 		.long	.LM415
 9591 0e68 16        		.byte	0x16
 9592 0e69 00        		.byte	0x0
 9593 0e6a 05        		.uleb128 0x5
 9594 0e6b 02        		.byte	0x2
 9595 0e6c 0000 0000 		.long	.LM416
 9596 0e70 15        		.byte	0x15
 9597 0e71 00        		.byte	0x0
 9598 0e72 05        		.uleb128 0x5
 9599 0e73 02        		.byte	0x2
 9600 0e74 0000 0000 		.long	.LM417
 9601 0e78 17        		.byte	0x17
 9602 0e79 00        		.byte	0x0
 9603 0e7a 05        		.uleb128 0x5
 9604 0e7b 02        		.byte	0x2
 9605 0e7c 0000 0000 		.long	.LM418
 9606 0e80 15        		.byte	0x15
 9607 0e81 00        		.byte	0x0
 9608 0e82 05        		.uleb128 0x5
 9609 0e83 02        		.byte	0x2
 9610 0e84 0000 0000 		.long	.LM419
 9611 0e88 16        		.byte	0x16
 9612 0e89 00        		.byte	0x0
 9613 0e8a 05        		.uleb128 0x5
 9614 0e8b 02        		.byte	0x2
 9615 0e8c 0000 0000 		.long	.LM420
 9616 0e90 15        		.byte	0x15
 9617 0e91 00        		.byte	0x0
 9618 0e92 05        		.uleb128 0x5
 9619 0e93 02        		.byte	0x2
 9620 0e94 0000 0000 		.long	.LM421
 9621 0e98 16        		.byte	0x16
 9622 0e99 00        		.byte	0x0
 9623 0e9a 05        		.uleb128 0x5
 9624 0e9b 02        		.byte	0x2
 9625 0e9c 0000 0000 		.long	.LM422
 9626 0ea0 15        		.byte	0x15
 9627 0ea1 00        		.byte	0x0
 9628 0ea2 05        		.uleb128 0x5
 9629 0ea3 02        		.byte	0x2
 9630 0ea4 0000 0000 		.long	.LM423
 9631 0ea8 17        		.byte	0x17
 9632 0ea9 00        		.byte	0x0
GAS LISTING C:\Users\ADMINI~1\AppData\Local\Temp/ccypPrtA.s 			page 177


 9633 0eaa 05        		.uleb128 0x5
 9634 0eab 02        		.byte	0x2
 9635 0eac 0000 0000 		.long	.LM424
 9636 0eb0 16        		.byte	0x16
 9637 0eb1 00        		.byte	0x0
 9638 0eb2 05        		.uleb128 0x5
 9639 0eb3 02        		.byte	0x2
 9640 0eb4 0000 0000 		.long	.LM425
 9641 0eb8 17        		.byte	0x17
 9642 0eb9 00        		.byte	0x0
 9643 0eba 05        		.uleb128 0x5
 9644 0ebb 02        		.byte	0x2
 9645 0ebc 0000 0000 		.long	.LM426
 9646 0ec0 15        		.byte	0x15
 9647 0ec1 00        		.byte	0x0
 9648 0ec2 05        		.uleb128 0x5
 9649 0ec3 02        		.byte	0x2
 9650 0ec4 0000 0000 		.long	.LM427
 9651 0ec8 15        		.byte	0x15
 9652 0ec9 00        		.byte	0x0
 9653 0eca 05        		.uleb128 0x5
 9654 0ecb 02        		.byte	0x2
 9655 0ecc 0000 0000 		.long	.LM428
 9656 0ed0 03        		.byte	0x3
 9657 0ed1 BD7F      		.sleb128 -67
 9658 0ed3 01        		.byte	0x1
 9659 0ed4 00        		.byte	0x0
 9660 0ed5 05        		.uleb128 0x5
 9661 0ed6 02        		.byte	0x2
 9662 0ed7 0000 0000 		.long	.LM429
 9663 0edb 17        		.byte	0x17
 9664 0edc 00        		.byte	0x0
 9665 0edd 05        		.uleb128 0x5
 9666 0ede 02        		.byte	0x2
 9667 0edf 0000 0000 		.long	.LM430
 9668 0ee3 15        		.byte	0x15
 9669 0ee4 00        		.byte	0x0
 9670 0ee5 05        		.uleb128 0x5
 9671 0ee6 02        		.byte	0x2
 9672 0ee7 0000 0000 		.long	.LM431
 9673 0eeb 19        		.byte	0x19
 9674 0eec 00        		.byte	0x0
 9675 0eed 05        		.uleb128 0x5
 9676 0eee 02        		.byte	0x2
 9677 0eef 0000 0000 		.long	.LM432
 9678 0ef3 16        		.byte	0x16
 9679 0ef4 00        		.byte	0x0
 9680 0ef5 05        		.uleb128 0x5
 9681 0ef6 02        		.byte	0x2
 9682 0ef7 0000 0000 		.long	.LM433
 9683 0efb 15        		.byte	0x15
 9684 0efc 00        		.byte	0x0
 9685 0efd 05        		.uleb128 0x5
 9686 0efe 02        		.byte	0x2
 9687 0eff 0000 0000 		.long	.Letext0
 9688 0f03 00        		.byte	0x0
 9689 0f04 01        		.uleb128 0x1
GAS LISTING C:\Users\ADMINI~1\AppData\Local\Temp/ccypPrtA.s 			page 178


 9690 0f05 01        		.byte	0x1
 9691               	.LELT0:
 9692 0f06 1600 0000 		.section	.debug_str,"MS",@progbits,1
 9692      0200 1000 
 9692      0000 0101 
 9692      FB0E 0A00 
 9692      0101 0101 
 9693               	.LASF252:
 9694 0000 5F5F 6164 		.string	"__addr16"
 9694      6472 3136 
 9694      00
 9695               	.LASF250:
 9696 0009 7072 696E 		.string	"printStringFromFlash"
 9696      7453 7472 
 9696      696E 6746 
 9696      726F 6D46 
 9696      6C61 7368 
 9697               	.LASF303:
 9698 001e 5F63 7572 		.string	"_currentLayer"
 9698      7265 6E74 
 9698      4C61 7965 
 9698      7200 
 9699               	.LASF113:
 9700 002c 4B45 595F 		.string	"KEY_SCRLCK"
 9700      5343 524C 
 9700      434B 00
 9701               	.LASF299:
 9702 0037 5F62 7566 		.string	"_buffer"
 9702      6665 7200 
 9703               	.LASF305:
 9704 003f 7573 696E 		.string	"usingKeys"
 9704      674B 6579 
 9704      7300 
 9705               	.LASF177:
 9706 0049 4B45 595F 		.string	"KEY_REC"
 9706      5245 4300 
 9707               	.LASF331:
 9708 0051 7374 725F 		.string	"str_cancel_mapping"
 9708      6361 6E63 
 9708      656C 5F6D 
 9708      6170 7069 
 9708      6E67 00
 9709               	.LASF263:
 9710 0064 7072 696E 		.string	"printMapperMessageAfter"
 9710      744D 6170 
 9710      7065 724D 
 9710      6573 7361 
 9710      6765 4166 
 9711               	.LASF335:
 9712 007c 7374 725F 		.string	"str_save_layer"
 9712      7361 7665 
 9712      5F6C 6179 
 9712      6572 00
 9713               	.LASF320:
 9714 008b 7374 725F 		.string	"str_mapper_message"
 9714      6D61 7070 
 9714      6572 5F6D 
GAS LISTING C:\Users\ADMINI~1\AppData\Local\Temp/ccypPrtA.s 			page 179


 9714      6573 7361 
 9714      6765 00
 9715               	.LASF270:
 9716 009e 7265 6164 		.string	"readMacro"
 9716      4D61 6372 
 9716      6F00 
 9717               	.LASF297:
 9718 00a8 5F63 6F6C 		.string	"_col"
 9718      00
 9719               	.LASF309:
 9720 00ad 7374 725F 		.string	"str_select_mode1"
 9720      7365 6C65 
 9720      6374 5F6D 
 9720      6F64 6531 
 9720      00
 9721               	.LASF310:
 9722 00be 7374 725F 		.string	"str_select_mode2"
 9722      7365 6C65 
 9722      6374 5F6D 
 9722      6F64 6532 
 9722      00
 9723               	.LASF150:
 9724 00cf 4B45 595F 		.string	"KEY_RSHIFT"
 9724      5253 4849 
 9724      4654 00
 9725               	.LASF257:
 9726 00da 7361 7665 		.string	"saveCurrentLayer"
 9726      4375 7272 
 9726      656E 744C 
 9726      6179 6572 
 9726      00
 9727               	.LASF183:
 9728 00eb 4B45 595F 		.string	"KEY_HANJA"
 9728      4841 4E4A 
 9728      4100 
 9729               	.LASF279:
 9730 00f5 7072 6570 		.string	"prepareKeyMapper"
 9730      6172 654B 
 9730      6579 4D61 
 9730      7070 6572 
 9730      00
 9731               	.LASF163:
 9732 0106 4B45 595F 		.string	"KEY_WWW_STOP"
 9732      5757 575F 
 9732      5354 4F50 
 9732      00
 9733               	.LASF135:
 9734 0113 4B45 595F 		.string	"KEY_KP_5"
 9734      4B50 5F35 
 9734      00
 9735               	.LASF176:
 9736 011c 4B45 595F 		.string	"KEY_SCREENSAVE"
 9736      5343 5245 
 9736      454E 5341 
 9736      5645 00
 9737               	.LASF169:
 9738 012b 4B45 595F 		.string	"KEY_PLAY"
GAS LISTING C:\Users\ADMINI~1\AppData\Local\Temp/ccypPrtA.s 			page 180


 9738      504C 4159 
 9738      00
 9739               	.LASF8:
 9740 0134 756E 7369 		.string	"unsigned int"
 9740      676E 6564 
 9740      2069 6E74 
 9740      00
 9741               	.LASF179:
 9742 0141 4B45 595F 		.string	"KEY_MINIMIZE"
 9742      4D49 4E49 
 9742      4D49 5A45 
 9742      00
 9743               	.LASF151:
 9744 014e 4B45 595F 		.string	"KEY_RALT"
 9744      5241 4C54 
 9744      00
 9745               	.LASF328:
 9746 0157 7374 725F 		.string	"str_choose_key"
 9746      6368 6F6F 
 9746      7365 5F6B 
 9746      6579 00
 9747               	.LASF17:
 9748 0166 4B45 595F 		.string	"KEY_RSHIFT_HANGLE"
 9748      5253 4849 
 9748      4654 5F48 
 9748      414E 474C 
 9748      4500 
 9749               	.LASF178:
 9750 0178 4B45 595F 		.string	"KEY_REWIND"
 9750      5245 5749 
 9750      4E44 00
 9751               	.LASF125:
 9752 0183 4B45 595F 		.string	"KEY_NUMLOCK"
 9752      4E55 4D4C 
 9752      4F43 4B00 
 9753               	.LASF200:
 9754 018f 4B45 595F 		.string	"KEY_EQUAL_SIGN"
 9754      4551 5541 
 9754      4C5F 5349 
 9754      474E 00
 9755               	.LASF275:
 9756 019e 674C 6179 		.string	"gLayer"
 9756      6572 00
 9757               	.LASF186:
 9758 01a5 4B45 595F 		.string	"KEY_KP_EQUAL"
 9758      4B50 5F45 
 9758      5155 414C 
 9758      00
 9759               	.LASF241:
 9760 01b2 7374 6F70 		.string	"stopKeyMapping"
 9760      4B65 794D 
 9760      6170 7069 
 9760      6E67 00
 9761               	.LASF332:
 9762 01c1 7374 725F 		.string	"str_reset_mapping"
 9762      7265 7365 
 9762      745F 6D61 
GAS LISTING C:\Users\ADMINI~1\AppData\Local\Temp/ccypPrtA.s 			page 181


 9762      7070 696E 
 9762      6700 
 9763               	.LASF314:
 9764 01d3 7374 725F 		.string	"str_boot_mapper"
 9764      626F 6F74 
 9764      5F6D 6170 
 9764      7065 7200 
 9765               	.LASF167:
 9766 01e3 4B45 595F 		.string	"KEY_PREV_TRK"
 9766      5052 4556 
 9766      5F54 524B 
 9766      00
 9767               	.LASF19:
 9768 01f0 4B45 595F 		.string	"KEY_LSHIFT_HANGLE"
 9768      4C53 4849 
 9768      4654 5F48 
 9768      414E 474C 
 9768      4500 
 9769               	.LASF286:
 9770 0202 656E 7465 		.string	"enterFrameForMapper"
 9770      7246 7261 
 9770      6D65 466F 
 9770      724D 6170 
 9770      7065 7200 
 9771               	.LASF175:
 9772 0216 4B45 595F 		.string	"KEY_MYCOM"
 9772      4D59 434F 
 9772      4D00 
 9773               	.LASF152:
 9774 0220 4B45 595F 		.string	"KEY_RGUI"
 9774      5247 5549 
 9774      00
 9775               	.LASF97:
 9776 0229 4B45 595F 		.string	"KEY_DOT"
 9776      444F 5400 
 9777               	.LASF218:
 9778 0231 6D6F 6465 		.string	"mode"
 9778      00
 9779               	.LASF154:
 9780 0236 4B45 595F 		.string	"KEY_Multimedia"
 9780      4D75 6C74 
 9780      696D 6564 
 9780      6961 00
 9781               	.LASF327:
 9782 0245 7374 725F 		.string	"str_choose_layer"
 9782      6368 6F6F 
 9782      7365 5F6C 
 9782      6179 6572 
 9782      00
 9783               	.LASF220:
 9784 0256 5F5F 636F 		.string	"__count"
 9784      756E 7400 
 9785               	.LASF302:
 9786 025e 5F69 7357 		.string	"_isWorkingForEmpty"
 9786      6F72 6B69 
 9786      6E67 466F 
 9786      7245 6D70 
GAS LISTING C:\Users\ADMINI~1\AppData\Local\Temp/ccypPrtA.s 			page 182


 9786      7479 00
 9787               	.LASF232:
 9788 0271 6765 744D 		.string	"getMappingKeyCode"
 9788      6170 7069 
 9788      6E67 4B65 
 9788      7943 6F64 
 9788      6500 
 9789               	.LASF349:
 9790 0283 5F70 7265 		.string	"_pressedEscapeKeyCount"
 9790      7373 6564 
 9790      4573 6361 
 9790      7065 4B65 
 9790      7943 6F75 
 9791               	.LASF48:
 9792 029a 4B45 595F 		.string	"KEY_C"
 9792      4300 
 9793               	.LASF51:
 9794 02a0 4B45 595F 		.string	"KEY_F"
 9794      4600 
 9795               	.LASF288:
 9796 02a6 5F69 734B 		.string	"_isKeyMapping"
 9796      6579 4D61 
 9796      7070 696E 
 9796      6700 
 9797               	.LASF54:
 9798 02b4 4B45 595F 		.string	"KEY_I"
 9798      4900 
 9799               	.LASF153:
 9800 02ba 4B45 595F 		.string	"KEY_Modifiers_end"
 9800      4D6F 6469 
 9800      6669 6572 
 9800      735F 656E 
 9800      6400 
 9801               	.LASF265:
 9802 02cc 636C 6561 		.string	"clearMacroAfter"
 9802      724D 6163 
 9802      726F 4166 
 9802      7465 7200 
 9803               	.LASF256:
 9804 02dc 636C 6561 		.string	"clearMacro"
 9804      724D 6163 
 9804      726F 00
 9805               	.LASF267:
 9806 02e7 7361 7665 		.string	"saveMacro"
 9806      4D61 6372 
 9806      6F00 
 9807               	.LASF345:
 9808 02f1 5F6D 6163 		.string	"_macroIndex"
 9808      726F 496E 
 9808      6465 7800 
 9809               	.LASF140:
 9810 02fd 4B45 595F 		.string	"KEY_KP_0"
 9810      4B50 5F30 
 9810      00
 9811               	.LASF131:
 9812 0306 4B45 595F 		.string	"KEY_KP_1"
 9812      4B50 5F31 
GAS LISTING C:\Users\ADMINI~1\AppData\Local\Temp/ccypPrtA.s 			page 183


 9812      00
 9813               	.LASF132:
 9814 030f 4B45 595F 		.string	"KEY_KP_2"
 9814      4B50 5F32 
 9814      00
 9815               	.LASF66:
 9816 0318 4B45 595F 		.string	"KEY_U"
 9816      5500 
 9817               	.LASF22:
 9818 031e 4B45 595F 		.string	"KEY_RALT_HANJA"
 9818      5241 4C54 
 9818      5F48 414E 
 9818      4A41 00
 9819               	.LASF81:
 9820 032d 4B45 595F 		.string	"KEY_0"
 9820      3000 
 9821               	.LASF72:
 9822 0333 4B45 595F 		.string	"KEY_1"
 9822      3100 
 9823               	.LASF73:
 9824 0339 4B45 595F 		.string	"KEY_2"
 9824      3200 
 9825               	.LASF74:
 9826 033f 4B45 595F 		.string	"KEY_3"
 9826      3300 
 9827               	.LASF75:
 9828 0345 4B45 595F 		.string	"KEY_4"
 9828      3400 
 9829               	.LASF76:
 9830 034b 4B45 595F 		.string	"KEY_5"
 9830      3500 
 9831               	.LASF77:
 9832 0351 4B45 595F 		.string	"KEY_6"
 9832      3600 
 9833               	.LASF78:
 9834 0357 4B45 595F 		.string	"KEY_7"
 9834      3700 
 9835               	.LASF79:
 9836 035d 4B45 595F 		.string	"KEY_8"
 9836      3800 
 9837               	.LASF80:
 9838 0363 4B45 595F 		.string	"KEY_9"
 9838      3900 
 9839               	.LASF285:
 9840 0369 636F 756E 		.string	"countKeyMappingEnabled"
 9840      744B 6579 
 9840      4D61 7070 
 9840      696E 6745 
 9840      6E61 626C 
 9841               	.LASF244:
 9842 0380 6973 4D61 		.string	"isMacroInput"
 9842      6372 6F49 
 9842      6E70 7574 
 9842      00
 9843               	.LASF336:
 9844 038d 7374 725F 		.string	"str_load_layer"
 9844      6C6F 6164 
GAS LISTING C:\Users\ADMINI~1\AppData\Local\Temp/ccypPrtA.s 			page 184


 9844      5F6C 6179 
 9844      6572 00
 9845               	.LASF46:
 9846 039c 4B45 595F 		.string	"KEY_A"
 9846      4100 
 9847               	.LASF47:
 9848 03a2 4B45 595F 		.string	"KEY_B"
 9848      4200 
 9849               	.LASF15:
 9850 03a8 4B45 595F 		.string	"KEY_FN2_HANGLE"
 9850      464E 325F 
 9850      4841 4E47 
 9850      4C45 00
 9851               	.LASF49:
 9852 03b7 4B45 595F 		.string	"KEY_D"
 9852      4400 
 9853               	.LASF50:
 9854 03bd 4B45 595F 		.string	"KEY_E"
 9854      4500 
 9855               	.LASF21:
 9856 03c3 4B45 595F 		.string	"KEY_RALT_HANGLE"
 9856      5241 4C54 
 9856      5F48 414E 
 9856      474C 4500 
 9857               	.LASF52:
 9858 03d3 4B45 595F 		.string	"KEY_G"
 9858      4700 
 9859               	.LASF53:
 9860 03d9 4B45 595F 		.string	"KEY_H"
 9860      4800 
 9861               	.LASF27:
 9862 03df 4B45 595F 		.string	"KEY_LCTRL_HANGLE"
 9862      4C43 5452 
 9862      4C5F 4841 
 9862      4E47 4C45 
 9862      00
 9863               	.LASF55:
 9864 03f0 4B45 595F 		.string	"KEY_J"
 9864      4A00 
 9865               	.LASF56:
 9866 03f6 4B45 595F 		.string	"KEY_K"
 9866      4B00 
 9867               	.LASF57:
 9868 03fc 4B45 595F 		.string	"KEY_L"
 9868      4C00 
 9869               	.LASF58:
 9870 0402 4B45 595F 		.string	"KEY_M"
 9870      4D00 
 9871               	.LASF59:
 9872 0408 4B45 595F 		.string	"KEY_N"
 9872      4E00 
 9873               	.LASF60:
 9874 040e 4B45 595F 		.string	"KEY_O"
 9874      4F00 
 9875               	.LASF61:
 9876 0414 4B45 595F 		.string	"KEY_P"
 9876      5000 
GAS LISTING C:\Users\ADMINI~1\AppData\Local\Temp/ccypPrtA.s 			page 185


 9877               	.LASF62:
 9878 041a 4B45 595F 		.string	"KEY_Q"
 9878      5100 
 9879               	.LASF63:
 9880 0420 4B45 595F 		.string	"KEY_R"
 9880      5200 
 9881               	.LASF64:
 9882 0426 4B45 595F 		.string	"KEY_S"
 9882      5300 
 9883               	.LASF65:
 9884 042c 4B45 595F 		.string	"KEY_T"
 9884      5400 
 9885               	.LASF6:
 9886 0432 6C6F 6E67 		.string	"long long unsigned int"
 9886      206C 6F6E 
 9886      6720 756E 
 9886      7369 676E 
 9886      6564 2069 
 9887               	.LASF67:
 9888 0449 4B45 595F 		.string	"KEY_V"
 9888      5600 
 9889               	.LASF68:
 9890 044f 4B45 595F 		.string	"KEY_W"
 9890      5700 
 9891               	.LASF69:
 9892 0455 4B45 595F 		.string	"KEY_X"
 9892      5800 
 9893               	.LASF70:
 9894 045b 4B45 595F 		.string	"KEY_Y"
 9894      5900 
 9895               	.LASF71:
 9896 0461 4B45 595F 		.string	"KEY_Z"
 9896      5A00 
 9897               	.LASF86:
 9898 0467 4B45 595F 		.string	"KEY_SPACE"
 9898      5350 4143 
 9898      4500 
 9899               	.LASF330:
 9900 0471 7374 725F 		.string	"str_save_end_mapping"
 9900      7361 7665 
 9900      5F65 6E64 
 9900      5F6D 6170 
 9900      7069 6E67 
 9901               	.LASF321:
 9902 0486 7374 725F 		.string	"str_mapper_1"
 9902      6D61 7070 
 9902      6572 5F31 
 9902      00
 9903               	.LASF324:
 9904 0493 7374 725F 		.string	"str_mapper_4"
 9904      6D61 7070 
 9904      6572 5F34 
 9904      00
 9905               	.LASF144:
 9906 04a0 4B45 595F 		.string	"KEY_Modifiers"
 9906      4D6F 6469 
 9906      6669 6572 
GAS LISTING C:\Users\ADMINI~1\AppData\Local\Temp/ccypPrtA.s 			page 186


 9906      7300 
 9907               	.LASF84:
 9908 04ae 4B45 595F 		.string	"KEY_BKSP"
 9908      424B 5350 
 9908      00
 9909               	.LASF123:
 9910 04b7 4B45 595F 		.string	"KEY_DOWN"
 9910      444F 574E 
 9910      00
 9911               	.LASF355:
 9912 04c0 443A 5C67 		.string	"D:\\git\\ps2avrU\\source"
 9912      6974 5C70 
 9912      7332 6176 
 9912      7255 5C73 
 9912      6F75 7263 
 9913               	.LASF325:
 9914 04d6 7374 725F 		.string	"str_mapper_9"
 9914      6D61 7070 
 9914      6572 5F39 
 9914      00
 9915               	.LASF240:
 9916 04e3 7374 6172 		.string	"startKeyMappingDeep"
 9916      744B 6579 
 9916      4D61 7070 
 9916      696E 6744 
 9916      6565 7000 
 9917               	.LASF39:
 9918 04f7 4B45 595F 		.string	"KEY_MAC10"
 9918      4D41 4331 
 9918      3000 
 9919               	.LASF40:
 9920 0501 4B45 595F 		.string	"KEY_MAC11"
 9920      4D41 4331 
 9920      3100 
 9921               	.LASF41:
 9922 050b 4B45 595F 		.string	"KEY_MAC12"
 9922      4D41 4331 
 9922      3200 
 9923               	.LASF121:
 9924 0515 4B45 595F 		.string	"KEY_RIGHT"
 9924      5249 4748 
 9924      5400 
 9925               	.LASF23:
 9926 051f 4B45 595F 		.string	"KEY_LALT_HANGLE"
 9926      4C41 4C54 
 9926      5F48 414E 
 9926      474C 4500 
 9927               	.LASF184:
 9928 052f 4B45 595F 		.string	"KEY_HANGLE"
 9928      4841 4E47 
 9928      4C45 00
 9929               	.LASF266:
 9930 053a 6741 6464 		.string	"gAddress"
 9930      7265 7373 
 9930      00
 9931               	.LASF228:
 9932 0543 784C 6179 		.string	"xLayer"
GAS LISTING C:\Users\ADMINI~1\AppData\Local\Temp/ccypPrtA.s 			page 187


 9932      6572 00
 9933               	.LASF224:
 9934 054a 5F5F 6D73 		.string	"__ms"
 9934      00
 9935               	.LASF28:
 9936 054f 4B45 595F 		.string	"KEY_LCTRL_HANJA"
 9936      4C43 5452 
 9936      4C5F 4841 
 9936      4E4A 4100 
 9937               	.LASF45:
 9938 055f 4B45 595F 		.string	"KEY_ErrorUndefined"
 9938      4572 726F 
 9938      7255 6E64 
 9938      6566 696E 
 9938      6564 00
 9939               	.LASF166:
 9940 0572 4B45 595F 		.string	"KEY_NEXT_TRK"
 9940      4E45 5854 
 9940      5F54 524B 
 9940      00
 9941               	.LASF20:
 9942 057f 4B45 595F 		.string	"KEY_LSHIFT_HANJA"
 9942      4C53 4849 
 9942      4654 5F48 
 9942      414E 4A41 
 9942      00
 9943               	.LASF248:
 9944 0590 7853 7472 		.string	"xStr"
 9944      00
 9945               	.LASF347:
 9946 0595 5F6D 6163 		.string	"_macroPressedBuffer"
 9946      726F 5072 
 9946      6573 7365 
 9946      6442 7566 
 9946      6665 7200 
 9947               	.LASF129:
 9948 05a9 4B45 595F 		.string	"KEY_KP_PLUS"
 9948      4B50 5F50 
 9948      4C55 5300 
 9949               	.LASF272:
 9950 05b5 6C6F 6164 		.string	"loadCurrentLayer"
 9950      4375 7272 
 9950      656E 744C 
 9950      6179 6572 
 9950      00
 9951               	.LASF271:
 9952 05c6 784D 6163 		.string	"xMacroIndex"
 9952      726F 496E 
 9952      6465 7800 
 9953               	.LASF274:
 9954 05d2 7849 7344 		.string	"xIsDown"
 9954      6F77 6E00 
 9955               	.LASF13:
 9956 05da 4B45 595F 		.string	"KEY_FN_HANGLE"
 9956      464E 5F48 
 9956      414E 474C 
 9956      4500 
GAS LISTING C:\Users\ADMINI~1\AppData\Local\Temp/ccypPrtA.s 			page 188


 9957               	.LASF231:
 9958 05e8 6765 7444 		.string	"getDefaultKeyCode"
 9958      6566 6175 
 9958      6C74 4B65 
 9958      7943 6F64 
 9958      6500 
 9959               	.LASF273:
 9960 05fa 7075 744B 		.string	"putKeyCode"
 9960      6579 436F 
 9960      6465 00
 9961               	.LASF26:
 9962 0605 4B45 595F 		.string	"KEY_RCTRL_HANJA"
 9962      5243 5452 
 9962      4C5F 4841 
 9962      4E4A 4100 
 9963               	.LASF168:
 9964 0615 4B45 595F 		.string	"KEY_STOP"
 9964      5354 4F50 
 9964      00
 9965               	.LASF300:
 9966 061e 5F62 7566 		.string	"_bufferIndex"
 9966      6665 7249 
 9966      6E64 6578 
 9966      00
 9967               	.LASF296:
 9968 062b 5F77 6169 		.string	"_wait"
 9968      7400 
 9969               	.LASF284:
 9970 0631 7072 6570 		.string	"prepareKeyMapping"
 9970      6172 654B 
 9970      6579 4D61 
 9970      7070 696E 
 9970      6700 
 9971               	.LASF356:
 9972 0643 7072 696E 		.string	"printEnter"
 9972      7445 6E74 
 9972      6572 00
 9973               	.LASF352:
 9974 064e 5F6E 6577 		.string	"_newKeyMap"
 9974      4B65 794D 
 9974      6170 00
 9975               	.LASF12:
 9976 0659 4B45 595F 		.string	"KEY_dualAction"
 9976      6475 616C 
 9976      4163 7469 
 9976      6F6E 00
 9977               	.LASF174:
 9978 0668 4B45 595F 		.string	"KEY_CALC"
 9978      4341 4C43 
 9978      00
 9979               	.LASF9:
 9980 0671 6368 6172 		.string	"char"
 9980      00
 9981               	.LASF93:
 9982 0676 4B45 595F 		.string	"KEY_COLON"
 9982      434F 4C4F 
 9982      4E00 
GAS LISTING C:\Users\ADMINI~1\AppData\Local\Temp/ccypPrtA.s 			page 189


 9983               	.LASF293:
 9984 0680 5F6D 6F64 		.string	"_mode"
 9984      6500 
 9985               	.LASF25:
 9986 0686 4B45 595F 		.string	"KEY_RCTRL_HANGLE"
 9986      5243 5452 
 9986      4C5F 4841 
 9986      4E47 4C45 
 9986      00
 9987               	.LASF146:
 9988 0697 4B45 595F 		.string	"KEY_LSHIFT"
 9988      4C53 4849 
 9988      4654 00
 9989               	.LASF165:
 9990 06a2 4B45 595F 		.string	"KEY_WWW_FAVORITE"
 9990      5757 575F 
 9990      4641 564F 
 9990      5249 5445 
 9990      00
 9991               	.LASF342:
 9992 06b3 7374 725F 		.string	"str_input_macro"
 9992      696E 7075 
 9992      745F 6D61 
 9992      6372 6F00 
 9993               	.LASF308:
 9994 06c3 7374 725F 		.string	"str_select_mode"
 9994      7365 6C65 
 9994      6374 5F6D 
 9994      6F64 6500 
 9995               	.LASF160:
 9996 06d3 4B45 595F 		.string	"KEY_WWW_HOME"
 9996      5757 575F 
 9996      484F 4D45 
 9996      00
 9997               	.LASF251:
 9998 06e0 6743 6861 		.string	"gChar"
 9998      7200 
 9999               	.LASF210:
 10000 06e6 4B45 595F 		.string	"KEY_LANG3"
 10000      4C41 4E47 
 10000      3300 
 10001               	.LASF42:
 10002 06f0 4B45 595F 		.string	"KEY_NONE"
 10002      4E4F 4E45 
 10002      00
 10003               	.LASF212:
 10004 06f9 4B45 595F 		.string	"KEY_LANG5"
 10004      4C41 4E47 
 10004      3500 
 10005               	.LASF213:
 10006 0703 4B45 595F 		.string	"KEY_LANG6"
 10006      4C41 4E47 
 10006      3600 
 10007               	.LASF214:
 10008 070d 4B45 595F 		.string	"KEY_LANG7"
 10008      4C41 4E47 
 10008      3700 
GAS LISTING C:\Users\ADMINI~1\AppData\Local\Temp/ccypPrtA.s 			page 190


 10009               	.LASF112:
 10010 0717 4B45 595F 		.string	"KEY_PRNSCR"
 10010      5052 4E53 
 10010      4352 00
 10011               	.LASF216:
 10012 0722 4B45 595F 		.string	"KEY_LANG9"
 10012      4C41 4E47 
 10012      3900 
 10013               	.LASF340:
 10014 072c 7374 725F 		.string	"str_select_number"
 10014      7365 6C65 
 10014      6374 5F6E 
 10014      756D 6265 
 10014      7200 
 10015               	.LASF333:
 10016 073e 7374 725F 		.string	"str_input_command"
 10016      696E 7075 
 10016      745F 636F 
 10016      6D6D 616E 
 10016      6400 
 10017               	.LASF119:
 10018 0750 4B45 595F 		.string	"KEY_END"
 10018      454E 4400 
 10019               	.LASF10:
 10020 0758 7569 6E74 		.string	"uint8_t"
 10020      385F 7400 
 10021               	.LASF172:
 10022 0760 4B45 595F 		.string	"KEY_VOL_DOWN"
 10022      564F 4C5F 
 10022      444F 574E 
 10022      00
 10023               	.LASF89:
 10024 076d 4B45 595F 		.string	"KEY_LBR"
 10024      4C42 5200 
 10025               	.LASF215:
 10026 0775 4B45 595F 		.string	"KEY_LANG8"
 10026      4C41 4E47 
 10026      3800 
 10027               	.LASF254:
 10028 077f 6170 706C 		.string	"applyKeyMapping"
 10028      794B 6579 
 10028      4D61 7070 
 10028      696E 6700 
 10029               	.LASF118:
 10030 078f 4B45 595F 		.string	"KEY_DEL"
 10030      4445 4C00 
 10031               	.LASF319:
 10032 0797 7374 725F 		.string	"str_back_6"
 10032      6261 636B 
 10032      5F36 00
 10033               	.LASF255:
 10034 07a2 7265 7365 		.string	"resetCurrentLayer"
 10034      7443 7572 
 10034      7265 6E74 
 10034      4C61 7965 
 10034      7200 
 10035               	.LASF143:
GAS LISTING C:\Users\ADMINI~1\AppData\Local\Temp/ccypPrtA.s 			page 191


 10036 07b4 4B45 595F 		.string	"KEY_APPS"
 10036      4150 5053 
 10036      00
 10037               	.LASF225:
 10038 07bd 5F5F 7469 		.string	"__ticks"
 10038      636B 7300 
 10039               	.LASF262:
 10040 07c5 7072 696E 		.string	"printPrompt"
 10040      7450 726F 
 10040      6D70 7400 
 10041               	.LASF133:
 10042 07d1 4B45 595F 		.string	"KEY_KP_3"
 10042      4B50 5F33 
 10042      00
 10043               	.LASF134:
 10044 07da 4B45 595F 		.string	"KEY_KP_4"
 10044      4B50 5F34 
 10044      00
 10045               	.LASF315:
 10046 07e3 7374 725F 		.string	"str_macro_message"
 10046      6D61 6372 
 10046      6F5F 6D65 
 10046      7373 6167 
 10046      6500 
 10047               	.LASF7:
 10048 07f5 6C6F 6E67 		.string	"long long int"
 10048      206C 6F6E 
 10048      6720 696E 
 10048      7400 
 10049               	.LASF136:
 10050 0803 4B45 595F 		.string	"KEY_KP_6"
 10050      4B50 5F36 
 10050      00
 10051               	.LASF137:
 10052 080c 4B45 595F 		.string	"KEY_KP_7"
 10052      4B50 5F37 
 10052      00
 10053               	.LASF138:
 10054 0815 4B45 595F 		.string	"KEY_KP_8"
 10054      4B50 5F38 
 10054      00
 10055               	.LASF139:
 10056 081e 4B45 595F 		.string	"KEY_KP_9"
 10056      4B50 5F39 
 10056      00
 10057               	.LASF94:
 10058 0827 4B45 595F 		.string	"KEY_QUOTE"
 10058      5155 4F54 
 10058      4500 
 10059               	.LASF234:
 10060 0831 6749 6478 		.string	"gIdx"
 10060      00
 10061               	.LASF281:
 10062 0836 6170 706C 		.string	"applyMacro"
 10062      794D 6163 
 10062      726F 00
 10063               	.LASF18:
GAS LISTING C:\Users\ADMINI~1\AppData\Local\Temp/ccypPrtA.s 			page 192


 10064 0841 4B45 595F 		.string	"KEY_RSHIFT_HANJA"
 10064      5253 4849 
 10064      4654 5F48 
 10064      414E 4A41 
 10064      00
 10065               	.LASF88:
 10066 0852 4B45 595F 		.string	"KEY_EQUAL"
 10066      4551 5541 
 10066      4C00 
 10067               	.LASF291:
 10068 085c 6B65 794D 		.string	"keyMappingCountMax"
 10068      6170 7069 
 10068      6E67 436F 
 10068      756E 744D 
 10068      6178 00
 10069               	.LASF201:
 10070 086f 4B45 595F 		.string	"KEY_INT1"
 10070      494E 5431 
 10070      00
 10071               	.LASF202:
 10072 0878 4B45 595F 		.string	"KEY_INT2"
 10072      494E 5432 
 10072      00
 10073               	.LASF203:
 10074 0881 4B45 595F 		.string	"KEY_INT3"
 10074      494E 5433 
 10074      00
 10075               	.LASF204:
 10076 088a 4B45 595F 		.string	"KEY_INT4"
 10076      494E 5434 
 10076      00
 10077               	.LASF205:
 10078 0893 4B45 595F 		.string	"KEY_INT5"
 10078      494E 5435 
 10078      00
 10079               	.LASF206:
 10080 089c 4B45 595F 		.string	"KEY_INT6"
 10080      494E 5436 
 10080      00
 10081               	.LASF207:
 10082 08a5 4B45 595F 		.string	"KEY_INT7"
 10082      494E 5437 
 10082      00
 10083               	.LASF208:
 10084 08ae 4B45 595F 		.string	"KEY_INT8"
 10084      494E 5438 
 10084      00
 10085               	.LASF209:
 10086 08b7 4B45 595F 		.string	"KEY_INT9"
 10086      494E 5439 
 10086      00
 10087               	.LASF85:
 10088 08c0 4B45 595F 		.string	"KEY_TAB"
 10088      5441 4200 
 10089               	.LASF344:
 10090 08c8 7374 725F 		.string	"str_clear_all_macro"
 10090      636C 6561 
GAS LISTING C:\Users\ADMINI~1\AppData\Local\Temp/ccypPrtA.s 			page 193


 10090      725F 616C 
 10090      6C5F 6D61 
 10090      6372 6F00 
 10091               	.LASF351:
 10092 08dc 5F69 7354 		.string	"_isTiredEscapeKey"
 10092      6972 6564 
 10092      4573 6361 
 10092      7065 4B65 
 10092      7900 
 10093               	.LASF185:
 10094 08ee 4B45 595F 		.string	"KEY_KBD_POWER"
 10094      4B42 445F 
 10094      504F 5745 
 10094      5200 
 10095               	.LASF30:
 10096 08fc 4B45 595F 		.string	"KEY_MAC1"
 10096      4D41 4331 
 10096      00
 10097               	.LASF31:
 10098 0905 4B45 595F 		.string	"KEY_MAC2"
 10098      4D41 4332 
 10098      00
 10099               	.LASF32:
 10100 090e 4B45 595F 		.string	"KEY_MAC3"
 10100      4D41 4333 
 10100      00
 10101               	.LASF33:
 10102 0917 4B45 595F 		.string	"KEY_MAC4"
 10102      4D41 4334 
 10102      00
 10103               	.LASF34:
 10104 0920 4B45 595F 		.string	"KEY_MAC5"
 10104      4D41 4335 
 10104      00
 10105               	.LASF35:
 10106 0929 4B45 595F 		.string	"KEY_MAC6"
 10106      4D41 4336 
 10106      00
 10107               	.LASF36:
 10108 0932 4B45 595F 		.string	"KEY_MAC7"
 10108      4D41 4337 
 10108      00
 10109               	.LASF37:
 10110 093b 4B45 595F 		.string	"KEY_MAC8"
 10110      4D41 4338 
 10110      00
 10111               	.LASF38:
 10112 0944 4B45 595F 		.string	"KEY_MAC9"
 10112      4D41 4339 
 10112      00
 10113               	.LASF126:
 10114 094d 4B45 595F 		.string	"KEY_KP_SLASH"
 10114      4B50 5F53 
 10114      4C41 5348 
 10114      00
 10115               	.LASF100:
 10116 095a 4B45 595F 		.string	"KEY_F1"
GAS LISTING C:\Users\ADMINI~1\AppData\Local\Temp/ccypPrtA.s 			page 194


 10116      4631 00
 10117               	.LASF101:
 10118 0961 4B45 595F 		.string	"KEY_F2"
 10118      4632 00
 10119               	.LASF102:
 10120 0968 4B45 595F 		.string	"KEY_F3"
 10120      4633 00
 10121               	.LASF103:
 10122 096f 4B45 595F 		.string	"KEY_F4"
 10122      4634 00
 10123               	.LASF104:
 10124 0976 4B45 595F 		.string	"KEY_F5"
 10124      4635 00
 10125               	.LASF105:
 10126 097d 4B45 595F 		.string	"KEY_F6"
 10126      4636 00
 10127               	.LASF106:
 10128 0984 4B45 595F 		.string	"KEY_F7"
 10128      4637 00
 10129               	.LASF107:
 10130 098b 4B45 595F 		.string	"KEY_F8"
 10130      4638 00
 10131               	.LASF108:
 10132 0992 4B45 595F 		.string	"KEY_F9"
 10132      4639 00
 10133               	.LASF155:
 10134 0999 4B45 595F 		.string	"KEY_POWER"
 10134      504F 5745 
 10134      5200 
 10135               	.LASF223:
 10136 09a3 5F64 656C 		.string	"_delay_ms"
 10136      6179 5F6D 
 10136      7300 
 10137               	.LASF217:
 10138 09ad 4B45 595F 		.string	"KEY_extend_end"
 10138      6578 7465 
 10138      6E64 5F65 
 10138      6E64 00
 10139               	.LASF124:
 10140 09bc 4B45 595F 		.string	"KEY_UP"
 10140      5550 00
 10141               	.LASF348:
 10142 09c3 5F6D 6163 		.string	"_macroInputBuffer"
 10142      726F 496E 
 10142      7075 7442 
 10142      7566 6665 
 10142      7200 
 10143               	.LASF247:
 10144 09d5 784D 6F64 		.string	"xModi"
 10144      6900 
 10145               	.LASF249:
 10146 09db 7075 7368 		.string	"pushCharacter"
 10146      4368 6172 
 10146      6163 7465 
 10146      7200 
 10147               	.LASF276:
 10148 09e9 6753 7472 		.string	"gStr"
GAS LISTING C:\Users\ADMINI~1\AppData\Local\Temp/ccypPrtA.s 			page 195


 10148      00
 10149               	.LASF311:
 10150 09ee 7374 725F 		.string	"str_select_mode3"
 10150      7365 6C65 
 10150      6374 5F6D 
 10150      6F64 6533 
 10150      00
 10151               	.LASF312:
 10152 09ff 7374 725F 		.string	"str_select_mode4"
 10152      7365 6C65 
 10152      6374 5F6D 
 10152      6F64 6534 
 10152      00
 10153               	.LASF229:
 10154 0a10 7852 6F77 		.string	"xRow"
 10154      00
 10155               	.LASF282:
 10156 0a15 674D 6163 		.string	"gMacroIndex"
 10156      726F 496E 
 10156      6465 7800 
 10157               	.LASF147:
 10158 0a21 4B45 595F 		.string	"KEY_LALT"
 10158      4C41 4C54 
 10158      00
 10159               	.LASF353:
 10160 0a2a 474E 5520 		.string	"GNU C 4.3.3"
 10160      4320 342E 
 10160      332E 3300 
 10161               	.LASF14:
 10162 0a36 4B45 595F 		.string	"KEY_FN_HANJA"
 10162      464E 5F48 
 10162      414E 4A41 
 10162      00
 10163               	.LASF114:
 10164 0a43 4B45 595F 		.string	"KEY_PAUSE"
 10164      5041 5553 
 10164      4500 
 10165               	.LASF11:
 10166 0a4d 7569 6E74 		.string	"uint16_t"
 10166      3136 5F74 
 10166      00
 10167               	.LASF287:
 10168 0a56 7374 6172 		.string	"startKeyMappingOnBoot"
 10168      744B 6579 
 10168      4D61 7070 
 10168      696E 674F 
 10168      6E42 6F6F 
 10169               	.LASF181:
 10170 0a6c 4B45 595F 		.string	"KEY_Multimedia_end"
 10170      4D75 6C74 
 10170      696D 6564 
 10170      6961 5F65 
 10170      6E64 00
 10171               	.LASF259:
 10172 0a7f 7072 696E 		.string	"printMacroMessage"
 10172      744D 6163 
 10172      726F 4D65 
GAS LISTING C:\Users\ADMINI~1\AppData\Local\Temp/ccypPrtA.s 			page 196


 10172      7373 6167 
 10172      6500 
 10173               	.LASF289:
 10174 0a91 656E 6162 		.string	"enabledKeyMappingCount"
 10174      6C65 644B 
 10174      6579 4D61 
 10174      7070 696E 
 10174      6743 6F75 
 10175               	.LASF170:
 10176 0aa8 4B45 595F 		.string	"KEY_MUTE"
 10176      4D55 5445 
 10176      00
 10177               	.LASF264:
 10178 0ab1 7072 696E 		.string	"printSelectMode"
 10178      7453 656C 
 10178      6563 744D 
 10178      6F64 6500 
 10179               	.LASF128:
 10180 0ac1 4B45 595F 		.string	"KEY_KP_MINUS"
 10180      4B50 5F4D 
 10180      494E 5553 
 10180      00
 10181               	.LASF253:
 10182 0ace 5F5F 7265 		.string	"__result"
 10182      7375 6C74 
 10182      00
 10183               	.LASF258:
 10184 0ad7 7072 696E 		.string	"printPrepareString"
 10184      7450 7265 
 10184      7061 7265 
 10184      5374 7269 
 10184      6E67 00
 10185               	.LASF230:
 10186 0aea 7843 6F6C 		.string	"xCol"
 10186      00
 10187               	.LASF87:
 10188 0aef 4B45 595F 		.string	"KEY_MINUS"
 10188      4D49 4E55 
 10188      5300 
 10189               	.LASF222:
 10190 0af9 5F64 656C 		.string	"_delay_loop_2"
 10190      6179 5F6C 
 10190      6F6F 705F 
 10190      3200 
 10191               	.LASF82:
 10192 0b07 4B45 595F 		.string	"KEY_ENTER"
 10192      454E 5445 
 10192      5200 
 10193               	.LASF334:
 10194 0b11 7374 725F 		.string	"str_nothing"
 10194      6E6F 7468 
 10194      696E 6700 
 10195               	.LASF96:
 10196 0b1d 4B45 595F 		.string	"KEY_COMMA"
 10196      434F 4D4D 
 10196      4100 
 10197               	.LASF292:
GAS LISTING C:\Users\ADMINI~1\AppData\Local\Temp/ccypPrtA.s 			page 197


 10198 0b27 5F6B 6579 		.string	"_keyMappingOnBoot"
 10198      4D61 7070 
 10198      696E 674F 
 10198      6E42 6F6F 
 10198      7400 
 10199               	.LASF3:
 10200 0b39 7368 6F72 		.string	"short int"
 10200      7420 696E 
 10200      7400 
 10201               	.LASF268:
 10202 0b43 674B 6579 		.string	"gKeyCode"
 10202      436F 6465 
 10202      00
 10203               	.LASF5:
 10204 0b4c 6C6F 6E67 		.string	"long int"
 10204      2069 6E74 
 10204      00
 10205               	.LASF99:
 10206 0b55 4B45 595F 		.string	"KEY_CAPS"
 10206      4341 5053 
 10206      00
 10207               	.LASF301:
 10208 0b5e 5F65 6469 		.string	"_editCount"
 10208      7443 6F75 
 10208      6E74 00
 10209               	.LASF313:
 10210 0b69 7374 725F 		.string	"str_exit"
 10210      6578 6974 
 10210      00
 10211               	.LASF260:
 10212 0b72 7072 696E 		.string	"printString"
 10212      7453 7472 
 10212      696E 6700 
 10213               	.LASF350:
 10214 0b7e 5F69 7350 		.string	"_isPressedEscapeKey"
 10214      7265 7373 
 10214      6564 4573 
 10214      6361 7065 
 10214      4B65 7900 
 10215               	.LASF130:
 10216 0b92 4B45 595F 		.string	"KEY_KP_ENTER"
 10216      4B50 5F45 
 10216      4E54 4552 
 10216      00
 10217               	.LASF341:
 10218 0b9f 7374 725F 		.string	"str_exit_macro"
 10218      6578 6974 
 10218      5F6D 6163 
 10218      726F 00
 10219               	.LASF141:
 10220 0bae 4B45 595F 		.string	"KEY_KP_DOT"
 10220      4B50 5F44 
 10220      4F54 00
 10221               	.LASF245:
 10222 0bb9 7265 6164 		.string	"readyKeyMappingOnBoot"
 10222      794B 6579 
 10222      4D61 7070 
GAS LISTING C:\Users\ADMINI~1\AppData\Local\Temp/ccypPrtA.s 			page 198


 10222      696E 674F 
 10222      6E42 6F6F 
 10223               	.LASF145:
 10224 0bcf 4B45 595F 		.string	"KEY_LCTRL"
 10224      4C43 5452 
 10224      4C00 
 10225               	.LASF316:
 10226 0bd9 7374 725F 		.string	"str_macro_1"
 10226      6D61 6372 
 10226      6F5F 3100 
 10227               	.LASF317:
 10228 0be5 7374 725F 		.string	"str_macro_2"
 10228      6D61 6372 
 10228      6F5F 3200 
 10229               	.LASF246:
 10230 0bf1 7265 7365 		.string	"resetMacroInput"
 10230      744D 6163 
 10230      726F 496E 
 10230      7075 7400 
 10231               	.LASF221:
 10232 0c01 784B 6579 		.string	"xKeyidx"
 10232      6964 7800 
 10233               	.LASF148:
 10234 0c09 4B45 595F 		.string	"KEY_LGUI"
 10234      4C47 5549 
 10234      00
 10235               	.LASF318:
 10236 0c12 7374 725F 		.string	"str_macro_9"
 10236      6D61 6372 
 10236      6F5F 3900 
 10237               	.LASF283:
 10238 0c1e 7374 6172 		.string	"startKeyMapping"
 10238      744B 6579 
 10238      4D61 7070 
 10238      696E 6700 
 10239               	.LASF43:
 10240 0c2e 4B45 595F 		.string	"KEY_ErrorRollOver"
 10240      4572 726F 
 10240      7252 6F6C 
 10240      6C4F 7665 
 10240      7200 
 10241               	.LASF199:
 10242 0c40 4B45 595F 		.string	"KEY_KP_COMMA"
 10242      4B50 5F43 
 10242      4F4D 4D41 
 10242      00
 10243               	.LASF91:
 10244 0c4d 4B45 595F 		.string	"KEY_BKSLASH"
 10244      424B 534C 
 10244      4153 4800 
 10245               	.LASF95:
 10246 0c59 4B45 595F 		.string	"KEY_HASH"
 10246      4841 5348 
 10246      00
 10247               	.LASF182:
 10248 0c62 4B45 595F 		.string	"KEY_extend"
 10248      6578 7465 
GAS LISTING C:\Users\ADMINI~1\AppData\Local\Temp/ccypPrtA.s 			page 199


 10248      6E64 00
 10249               	.LASF280:
 10250 0c6d 6765 7443 		.string	"getCurrentKeycode"
 10250      7572 7265 
 10250      6E74 4B65 
 10250      7963 6F64 
 10250      6500 
 10251               	.LASF120:
 10252 0c7f 4B45 595F 		.string	"KEY_PGDN"
 10252      5047 444E 
 10252      00
 10253               	.LASF83:
 10254 0c88 4B45 595F 		.string	"KEY_ESC"
 10254      4553 4300 
 10255               	.LASF173:
 10256 0c90 4B45 595F 		.string	"KEY_MEDIA"
 10256      4D45 4449 
 10256      4100 
 10257               	.LASF4:
 10258 0c9a 6C6F 6E67 		.string	"long unsigned int"
 10258      2075 6E73 
 10258      6967 6E65 
 10258      6420 696E 
 10258      7400 
 10259               	.LASF158:
 10260 0cac 4B45 595F 		.string	"KEY_EMAIL"
 10260      454D 4149 
 10260      4C00 
 10261               	.LASF122:
 10262 0cb6 4B45 595F 		.string	"KEY_LEFT"
 10262      4C45 4654 
 10262      00
 10263               	.LASF304:
 10264 0cbf 5F63 7572 		.string	"_currentLayerAfter"
 10264      7265 6E74 
 10264      4C61 7965 
 10264      7241 6674 
 10264      6572 00
 10265               	.LASF338:
 10266 0cd2 7374 725F 		.string	"str_col_row"
 10266      636F 6C5F 
 10266      726F 7700 
 10267               	.LASF329:
 10268 0cde 7374 725F 		.string	"str_input_keycode"
 10268      696E 7075 
 10268      745F 6B65 
 10268      7963 6F64 
 10268      6500 
 10269               	.LASF346:
 10270 0cf0 5F6D 6163 		.string	"_macroBufferIndex"
 10270      726F 4275 
 10270      6666 6572 
 10270      496E 6465 
 10270      7800 
 10271               	.LASF159:
 10272 0d02 4B45 595F 		.string	"KEY_WWW_SEARCH"
 10272      5757 575F 
GAS LISTING C:\Users\ADMINI~1\AppData\Local\Temp/ccypPrtA.s 			page 200


 10272      5345 4152 
 10272      4348 00
 10273               	.LASF278:
 10274 0d11 7361 7665 		.string	"saveCurrentLayerAfter"
 10274      4375 7272 
 10274      656E 744C 
 10274      6179 6572 
 10274      4166 7465 
 10275               	.LASF0:
 10276 0d27 756E 7369 		.string	"unsigned char"
 10276      676E 6564 
 10276      2063 6861 
 10276      7200 
 10277               	.LASF239:
 10278 0d35 7072 696E 		.string	"printMapperMessage"
 10278      744D 6170 
 10278      7065 724D 
 10278      6573 7361 
 10278      6765 00
 10279               	.LASF90:
 10280 0d48 4B45 595F 		.string	"KEY_RBR"
 10280      5242 5200 
 10281               	.LASF238:
 10282 0d50 6973 4465 		.string	"isDeepKeyMapping"
 10282      6570 4B65 
 10282      794D 6170 
 10282      7069 6E67 
 10282      00
 10283               	.LASF306:
 10284 0d61 5F6D 6163 		.string	"_macroDownCount"
 10284      726F 446F 
 10284      776E 436F 
 10284      756E 7400 
 10285               	.LASF233:
 10286 0d71 674B 6579 		.string	"gKeyIndex"
 10286      496E 6465 
 10286      7800 
 10287               	.LASF24:
 10288 0d7b 4B45 595F 		.string	"KEY_LALT_HANJA"
 10288      4C41 4C54 
 10288      5F48 414E 
 10288      4A41 00
 10289               	.LASF156:
 10290 0d8a 4B45 595F 		.string	"KEY_SLEEP"
 10290      534C 4545 
 10290      5000 
 10291               	.LASF290:
 10292 0d94 6B65 794D 		.string	"keyMappingCount"
 10292      6170 7069 
 10292      6E67 436F 
 10292      756E 7400 
 10293               	.LASF243:
 10294 0da4 6973 5265 		.string	"isReadyKeyMappingOnBoot"
 10294      6164 794B 
 10294      6579 4D61 
 10294      7070 696E 
 10294      674F 6E42 
GAS LISTING C:\Users\ADMINI~1\AppData\Local\Temp/ccypPrtA.s 			page 201


 10295               	.LASF29:
 10296 0dbc 4B45 595F 		.string	"KEY_dualAction_end"
 10296      6475 616C 
 10296      4163 7469 
 10296      6F6E 5F65 
 10296      6E64 00
 10297               	.LASF277:
 10298 0dcf 674C 656E 		.string	"gLen"
 10298      00
 10299               	.LASF180:
 10300 0dd4 4B45 595F 		.string	"KEY_EJECT"
 10300      454A 4543 
 10300      5400 
 10301               	.LASF127:
 10302 0dde 4B45 595F 		.string	"KEY_KP_AST"
 10302      4B50 5F41 
 10302      5354 00
 10303               	.LASF157:
 10304 0de9 4B45 595F 		.string	"KEY_WAKE"
 10304      5741 4B45 
 10304      00
 10305               	.LASF326:
 10306 0df2 7374 725F 		.string	"str_prepare_message"
 10306      7072 6570 
 10306      6172 655F 
 10306      6D65 7373 
 10306      6167 6500 
 10307               	.LASF269:
 10308 0e06 6275 6666 		.string	"buffers"
 10308      6572 7300 
 10309               	.LASF117:
 10310 0e0e 4B45 595F 		.string	"KEY_PGUP"
 10310      5047 5550 
 10310      00
 10311               	.LASF242:
 10312 0e17 7365 7457 		.string	"setWillStartKeyMapping"
 10312      696C 6C53 
 10312      7461 7274 
 10312      4B65 794D 
 10312      6170 7069 
 10313               	.LASF261:
 10314 0e2e 7853 7472 		.string	"xString"
 10314      696E 6700 
 10315               	.LASF164:
 10316 0e36 4B45 595F 		.string	"KEY_WWW_REFRESH"
 10316      5757 575F 
 10316      5245 4652 
 10316      4553 4800 
 10317               	.LASF171:
 10318 0e46 4B45 595F 		.string	"KEY_VOL_UP"
 10318      564F 4C5F 
 10318      5550 00
 10319               	.LASF337:
 10320 0e51 7374 725F 		.string	"str_saving"
 10320      7361 7669 
 10320      6E67 00
 10321               	.LASF115:
GAS LISTING C:\Users\ADMINI~1\AppData\Local\Temp/ccypPrtA.s 			page 202


 10322 0e5c 4B45 595F 		.string	"KEY_INSERT"
 10322      494E 5345 
 10322      5254 00
 10323               	.LASF44:
 10324 0e67 4B45 595F 		.string	"KEY_POSTFail"
 10324      504F 5354 
 10324      4661 696C 
 10324      00
 10325               	.LASF1:
 10326 0e74 7369 676E 		.string	"signed char"
 10326      6564 2063 
 10326      6861 7200 
 10327               	.LASF116:
 10328 0e80 4B45 595F 		.string	"KEY_HOME"
 10328      484F 4D45 
 10328      00
 10329               	.LASF2:
 10330 0e89 7368 6F72 		.string	"short unsigned int"
 10330      7420 756E 
 10330      7369 676E 
 10330      6564 2069 
 10330      6E74 00
 10331               	.LASF236:
 10332 0e9c 6573 6361 		.string	"escapeMacroKeycode"
 10332      7065 4D61 
 10332      6372 6F4B 
 10332      6579 636F 
 10332      6465 00
 10333               	.LASF161:
 10334 0eaf 4B45 595F 		.string	"KEY_WWW_BACK"
 10334      5757 575F 
 10334      4241 434B 
 10334      00
 10335               	.LASF322:
 10336 0ebc 7374 725F 		.string	"str_mapper_2"
 10336      6D61 7070 
 10336      6572 5F32 
 10336      00
 10337               	.LASF323:
 10338 0ec9 7374 725F 		.string	"str_mapper_3"
 10338      6D61 7070 
 10338      6572 5F33 
 10338      00
 10339               	.LASF226:
 10340 0ed6 5F5F 746D 		.string	"__tmp"
 10340      7000 
 10341               	.LASF109:
 10342 0edc 4B45 595F 		.string	"KEY_F10"
 10342      4631 3000 
 10343               	.LASF110:
 10344 0ee4 4B45 595F 		.string	"KEY_F11"
 10344      4631 3100 
 10345               	.LASF111:
 10346 0eec 4B45 595F 		.string	"KEY_F12"
 10346      4631 3200 
 10347               	.LASF187:
 10348 0ef4 4B45 595F 		.string	"KEY_F13"
GAS LISTING C:\Users\ADMINI~1\AppData\Local\Temp/ccypPrtA.s 			page 203


 10348      4631 3300 
 10349               	.LASF188:
 10350 0efc 4B45 595F 		.string	"KEY_F14"
 10350      4631 3400 
 10351               	.LASF189:
 10352 0f04 4B45 595F 		.string	"KEY_F15"
 10352      4631 3500 
 10353               	.LASF190:
 10354 0f0c 4B45 595F 		.string	"KEY_F16"
 10354      4631 3600 
 10355               	.LASF191:
 10356 0f14 4B45 595F 		.string	"KEY_F17"
 10356      4631 3700 
 10357               	.LASF16:
 10358 0f1c 4B45 595F 		.string	"KEY_FN2_HANJA"
 10358      464E 325F 
 10358      4841 4E4A 
 10358      4100 
 10359               	.LASF193:
 10360 0f2a 4B45 595F 		.string	"KEY_F19"
 10360      4631 3900 
 10361               	.LASF294:
 10362 0f32 5F73 7465 		.string	"_step"
 10362      7000 
 10363               	.LASF227:
 10364 0f38 646F 7562 		.string	"double"
 10364      6C65 00
 10365               	.LASF162:
 10366 0f3f 4B45 595F 		.string	"KEY_WWW_FORWARD"
 10366      5757 575F 
 10366      464F 5257 
 10366      4152 4400 
 10367               	.LASF211:
 10368 0f4f 4B45 595F 		.string	"KEY_LANG4"
 10368      4C41 4E47 
 10368      3400 
 10369               	.LASF339:
 10370 0f59 7374 725F 		.string	"str_invalid_keycode"
 10370      696E 7661 
 10370      6C69 645F 
 10370      6B65 7963 
 10370      6F64 6500 
 10371               	.LASF192:
 10372 0f6d 4B45 595F 		.string	"KEY_F18"
 10372      4631 3800 
 10373               	.LASF307:
 10374 0f75 494E 5445 		.string	"INTERFACE"
 10374      5246 4143 
 10374      4500 
 10375               	.LASF149:
 10376 0f7f 4B45 595F 		.string	"KEY_RCTRL"
 10376      5243 5452 
 10376      4C00 
 10377               	.LASF219:
 10378 0f89 6B65 7963 		.string	"keycode"
 10378      6F64 6500 
 10379               	.LASF343:
GAS LISTING C:\Users\ADMINI~1\AppData\Local\Temp/ccypPrtA.s 			page 204


 10380 0f91 7374 725F 		.string	"str_invalid_macro_number"
 10380      696E 7661 
 10380      6C69 645F 
 10380      6D61 6372 
 10380      6F5F 6E75 
 10381               	.LASF295:
 10382 0faa 5F73 7465 		.string	"_stepAfterLayerSave"
 10382      7041 6674 
 10382      6572 4C61 
 10382      7965 7253 
 10382      6176 6500 
 10383               	.LASF298:
 10384 0fbe 5F72 6F77 		.string	"_row"
 10384      00
 10385               	.LASF92:
 10386 0fc3 4B45 595F 		.string	"KEY_Europe1"
 10386      4575 726F 
 10386      7065 3100 
 10387               	.LASF142:
 10388 0fcf 4B45 595F 		.string	"KEY_Europe2"
 10388      4575 726F 
 10388      7065 3200 
 10389               	.LASF237:
 10390 0fdb 6973 4B65 		.string	"isKeyMapping"
 10390      794D 6170 
 10390      7069 6E67 
 10390      00
 10391               	.LASF354:
 10392 0fe8 6B65 796D 		.string	"keymapper.c"
 10392      6170 7065 
 10392      722E 6300 
 10393               	.LASF235:
 10394 0ff4 6973 4D61 		.string	"isMacroKey"
 10394      6372 6F4B 
 10394      6579 00
 10395               	.LASF194:
 10396 0fff 4B45 595F 		.string	"KEY_F20"
 10396      4632 3000 
 10397               	.LASF195:
 10398 1007 4B45 595F 		.string	"KEY_F21"
 10398      4632 3100 
 10399               	.LASF196:
 10400 100f 4B45 595F 		.string	"KEY_F22"
 10400      4632 3200 
 10401               	.LASF197:
 10402 1017 4B45 595F 		.string	"KEY_F23"
 10402      4632 3300 
 10403               	.LASF198:
 10404 101f 4B45 595F 		.string	"KEY_F24"
 10404      4632 3400 
 10405               	.LASF98:
 10406 1027 4B45 595F 		.string	"KEY_SLASH"
 10406      534C 4153 
 10406      4800 
 10407               	.global __do_copy_data
 10408               	.global __do_clear_bss
GAS LISTING C:\Users\ADMINI~1\AppData\Local\Temp/ccypPrtA.s 			page 205


DEFINED SYMBOLS
                            *ABS*:00000000 keymapper.c
C:\Users\ADMINI~1\AppData\Local\Temp/ccypPrtA.s:2      *ABS*:0000003f __SREG__
C:\Users\ADMINI~1\AppData\Local\Temp/ccypPrtA.s:3      *ABS*:0000003e __SP_H__
C:\Users\ADMINI~1\AppData\Local\Temp/ccypPrtA.s:4      *ABS*:0000003d __SP_L__
C:\Users\ADMINI~1\AppData\Local\Temp/ccypPrtA.s:5      *ABS*:00000034 __CCP__
C:\Users\ADMINI~1\AppData\Local\Temp/ccypPrtA.s:6      *ABS*:00000000 __tmp_reg__
C:\Users\ADMINI~1\AppData\Local\Temp/ccypPrtA.s:7      *ABS*:00000001 __zero_reg__
C:\Users\ADMINI~1\AppData\Local\Temp/ccypPrtA.s:18     .text:00000000 setWillStartKeyMapping
C:\Users\ADMINI~1\AppData\Local\Temp/ccypPrtA.s:2759   .bss:00000006 _isKeyMapping
C:\Users\ADMINI~1\AppData\Local\Temp/ccypPrtA.s:34     .text:0000000c isKeyMapping
C:\Users\ADMINI~1\AppData\Local\Temp/ccypPrtA.s:49     .text:00000014 isDeepKeyMapping
C:\Users\ADMINI~1\AppData\Local\Temp/ccypPrtA.s:64     .text:0000001c applyKeyMapping
C:\Users\ADMINI~1\AppData\Local\Temp/ccypPrtA.s:2761   .bss:00000008 keyMappingCount
C:\Users\ADMINI~1\AppData\Local\Temp/ccypPrtA.s:2760   .bss:00000007 enabledKeyMappingCount
C:\Users\ADMINI~1\AppData\Local\Temp/ccypPrtA.s:2765   .data:00000033 keyMappingCountMax
C:\Users\ADMINI~1\AppData\Local\Temp/ccypPrtA.s:109    .text:0000005c isReadyKeyMappingOnBoot
C:\Users\ADMINI~1\AppData\Local\Temp/ccypPrtA.s:2762   .bss:0000000a _keyMappingOnBoot
C:\Users\ADMINI~1\AppData\Local\Temp/ccypPrtA.s:122    .text:00000062 readyKeyMappingOnBoot
C:\Users\ADMINI~1\AppData\Local\Temp/ccypPrtA.s:137    .text:0000006a stopKeyMapping
C:\Users\ADMINI~1\AppData\Local\Temp/ccypPrtA.s:2770   .bss:0000000e _wait
C:\Users\ADMINI~1\AppData\Local\Temp/ccypPrtA.s:153    .text:00000074 isMacroKey
C:\Users\ADMINI~1\AppData\Local\Temp/ccypPrtA.s:175    .text:00000082 escapeMacroKeycode
C:\Users\ADMINI~1\AppData\Local\Temp/ccypPrtA.s:201    .text:00000090 isMacroInput
C:\Users\ADMINI~1\AppData\Local\Temp/ccypPrtA.s:2768   .bss:0000000c _step
C:\Users\ADMINI~1\AppData\Local\Temp/ccypPrtA.s:220    .text:000000a0 printEnter
C:\Users\ADMINI~1\AppData\Local\Temp/ccypPrtA.s:238    .text:000000ae resetMacroInput
                            *COM*:00000030 _macroInputBuffer
                            *COM*:00000001 _macroBufferIndex
                            *COM*:00000018 _macroPressedBuffer
C:\Users\ADMINI~1\AppData\Local\Temp/ccypPrtA.s:2743   .bss:00000005 _macroDownCount
C:\Users\ADMINI~1\AppData\Local\Temp/ccypPrtA.s:269    .text:000000d4 pushCharacter
C:\Users\ADMINI~1\AppData\Local\Temp/ccypPrtA.s:322    .text:00000108 printStringFromFlash
C:\Users\ADMINI~1\AppData\Local\Temp/ccypPrtA.s:431    .text:00000198 resetCurrentLayer
C:\Users\ADMINI~1\AppData\Local\Temp/ccypPrtA.s:2662   .progmem.data:000001c0 str_reset_mapping
                            *COM*:00000088 _newKeyMap
C:\Users\ADMINI~1\AppData\Local\Temp/ccypPrtA.s:2775   .bss:00000015 _editCount
C:\Users\ADMINI~1\AppData\Local\Temp/ccypPrtA.s:485    .text:000001e4 clearMacro
C:\Users\ADMINI~1\AppData\Local\Temp/ccypPrtA.s:2722   .progmem.data:000002f3 str_clear_all_macro
                             .bss:00000004 _isWorkingForEmpty
C:\Users\ADMINI~1\AppData\Local\Temp/ccypPrtA.s:511    .text:00000202 saveCurrentLayer
C:\Users\ADMINI~1\AppData\Local\Temp/ccypPrtA.s:2687   .progmem.data:00000224 str_saving
C:\Users\ADMINI~1\AppData\Local\Temp/ccypPrtA.s:2769   .bss:0000000d _stepAfterLayerSave
C:\Users\ADMINI~1\AppData\Local\Temp/ccypPrtA.s:553    .text:0000023e printPrepareString
C:\Users\ADMINI~1\AppData\Local\Temp/ccypPrtA.s:2632   .progmem.data:00000109 str_prepare_message
C:\Users\ADMINI~1\AppData\Local\Temp/ccypPrtA.s:571    .text:0000024c printMacroMessage
C:\Users\ADMINI~1\AppData\Local\Temp/ccypPrtA.s:2577   .progmem.data:00000054 str_macro_message
C:\Users\ADMINI~1\AppData\Local\Temp/ccypPrtA.s:2582   .progmem.data:0000005a str_macro_1
C:\Users\ADMINI~1\AppData\Local\Temp/ccypPrtA.s:2587   .progmem.data:0000006f str_macro_2
C:\Users\ADMINI~1\AppData\Local\Temp/ccypPrtA.s:2597   .progmem.data:00000082 str_back_6
C:\Users\ADMINI~1\AppData\Local\Temp/ccypPrtA.s:2592   .progmem.data:00000076 str_macro_9
C:\Users\ADMINI~1\AppData\Local\Temp/ccypPrtA.s:618    .text:00000294 printString
C:\Users\ADMINI~1\AppData\Local\Temp/ccypPrtA.s:721    .text:0000033a printPrompt
C:\Users\ADMINI~1\AppData\Local\Temp/ccypPrtA.s:2637   .progmem.data:00000111 str_choose_layer
C:\Users\ADMINI~1\AppData\Local\Temp/ccypPrtA.s:2776   .bss:00000017 _currentLayer
C:\Users\ADMINI~1\AppData\Local\Temp/ccypPrtA.s:2642   .progmem.data:00000143 str_choose_key
C:\Users\ADMINI~1\AppData\Local\Temp/ccypPrtA.s:2647   .progmem.data:00000162 str_input_keycode
GAS LISTING C:\Users\ADMINI~1\AppData\Local\Temp/ccypPrtA.s 			page 206


C:\Users\ADMINI~1\AppData\Local\Temp/ccypPrtA.s:2652   .progmem.data:00000184 str_save_end_mapping
C:\Users\ADMINI~1\AppData\Local\Temp/ccypPrtA.s:2657   .progmem.data:0000019c str_cancel_mapping
C:\Users\ADMINI~1\AppData\Local\Temp/ccypPrtA.s:2667   .progmem.data:000001df str_input_command
C:\Users\ADMINI~1\AppData\Local\Temp/ccypPrtA.s:2702   .progmem.data:00000258 str_select_number
C:\Users\ADMINI~1\AppData\Local\Temp/ccypPrtA.s:2707   .progmem.data:00000285 str_exit_macro
C:\Users\ADMINI~1\AppData\Local\Temp/ccypPrtA.s:2712   .progmem.data:000002a0 str_input_macro
C:\Users\ADMINI~1\AppData\Local\Temp/ccypPrtA.s:2572   .progmem.data:00000041 str_boot_mapper
C:\Users\ADMINI~1\AppData\Local\Temp/ccypPrtA.s:2567   .progmem.data:00000037 str_exit
C:\Users\ADMINI~1\AppData\Local\Temp/ccypPrtA.s:938    .text:0000046a printSelectMode
C:\Users\ADMINI~1\AppData\Local\Temp/ccypPrtA.s:895    .text:0000042a printMapperMessageAfter
C:\Users\ADMINI~1\AppData\Local\Temp/ccypPrtA.s:2617   .progmem.data:000000c0 str_mapper_3
C:\Users\ADMINI~1\AppData\Local\Temp/ccypPrtA.s:2622   .progmem.data:000000d0 str_mapper_4
C:\Users\ADMINI~1\AppData\Local\Temp/ccypPrtA.s:2627   .progmem.data:000000e6 str_mapper_9
C:\Users\ADMINI~1\AppData\Local\Temp/ccypPrtA.s:2542   .progmem.data:00000000 str_select_mode
C:\Users\ADMINI~1\AppData\Local\Temp/ccypPrtA.s:2547   .progmem.data:0000000c str_select_mode1
C:\Users\ADMINI~1\AppData\Local\Temp/ccypPrtA.s:2552   .progmem.data:0000001a str_select_mode2
C:\Users\ADMINI~1\AppData\Local\Temp/ccypPrtA.s:2557   .progmem.data:00000022 str_select_mode3
C:\Users\ADMINI~1\AppData\Local\Temp/ccypPrtA.s:2562   .progmem.data:00000029 str_select_mode4
C:\Users\ADMINI~1\AppData\Local\Temp/ccypPrtA.s:987    .text:000004b6 clearMacroAfter
C:\Users\ADMINI~1\AppData\Local\Temp/ccypPrtA.s:1022   .text:000004e0 saveMacro
                            *COM*:00000001 _macroIndex
C:\Users\ADMINI~1\AppData\Local\Temp/ccypPrtA.s:1071   .text:00000528 readMacro
C:\Users\ADMINI~1\AppData\Local\Temp/ccypPrtA.s:1133   .text:00000570 loadCurrentLayer
C:\Users\ADMINI~1\AppData\Local\Temp/ccypPrtA.s:1230   .text:000005f8 putKeyCode
C:\Users\ADMINI~1\AppData\Local\Temp/ccypPrtA.s:2747   .data:00000028 usingKeys
C:\Users\ADMINI~1\AppData\Local\Temp/ccypPrtA.s:2741   .bss:00000003 _isTiredEscapeKey
C:\Users\ADMINI~1\AppData\Local\Temp/ccypPrtA.s:2735   .bss:00000002 _isPressedEscapeKey
C:\Users\ADMINI~1\AppData\Local\Temp/ccypPrtA.s:2729   .bss:00000000 _pressedEscapeKeyCount
C:\Users\ADMINI~1\AppData\Local\Temp/ccypPrtA.s:2774   .bss:00000014 _bufferIndex
C:\Users\ADMINI~1\AppData\Local\Temp/ccypPrtA.s:2773   .bss:00000011 _buffer
C:\Users\ADMINI~1\AppData\Local\Temp/ccypPrtA.s:2767   .bss:0000000b _mode
C:\Users\ADMINI~1\AppData\Local\Temp/ccypPrtA.s:2602   .progmem.data:00000089 str_mapper_message
C:\Users\ADMINI~1\AppData\Local\Temp/ccypPrtA.s:2607   .progmem.data:00000094 str_mapper_1
C:\Users\ADMINI~1\AppData\Local\Temp/ccypPrtA.s:2612   .progmem.data:000000a3 str_mapper_2
C:\Users\ADMINI~1\AppData\Local\Temp/ccypPrtA.s:2717   .progmem.data:000002d7 str_invalid_macro_number
C:\Users\ADMINI~1\AppData\Local\Temp/ccypPrtA.s:2677   .progmem.data:000001fe str_save_layer
C:\Users\ADMINI~1\AppData\Local\Temp/ccypPrtA.s:2777   .bss:00000018 _currentLayerAfter
C:\Users\ADMINI~1\AppData\Local\Temp/ccypPrtA.s:2682   .progmem.data:00000211 str_load_layer
C:\Users\ADMINI~1\AppData\Local\Temp/ccypPrtA.s:2771   .bss:0000000f _col
C:\Users\ADMINI~1\AppData\Local\Temp/ccypPrtA.s:2772   .bss:00000010 _row
C:\Users\ADMINI~1\AppData\Local\Temp/ccypPrtA.s:2692   .progmem.data:0000022e str_col_row
C:\Users\ADMINI~1\AppData\Local\Temp/ccypPrtA.s:2697   .progmem.data:0000023a str_invalid_keycode
C:\Users\ADMINI~1\AppData\Local\Temp/ccypPrtA.s:2058   .text:00000b4c saveCurrentLayerAfter
C:\Users\ADMINI~1\AppData\Local\Temp/ccypPrtA.s:2182   .text:00000c1a prepareKeyMapper
C:\Users\ADMINI~1\AppData\Local\Temp/ccypPrtA.s:2212   .text:00000c3e getCurrentKeycode
C:\Users\ADMINI~1\AppData\Local\Temp/ccypPrtA.s:2287   .text:00000c94 applyMacro
C:\Users\ADMINI~1\AppData\Local\Temp/ccypPrtA.s:2334   .text:00000cc4 startKeyMapping
C:\Users\ADMINI~1\AppData\Local\Temp/ccypPrtA.s:2369   .text:00000ce8 prepareKeyMapping
C:\Users\ADMINI~1\AppData\Local\Temp/ccypPrtA.s:2408   .text:00000d18 countKeyMappingEnabled
C:\Users\ADMINI~1\AppData\Local\Temp/ccypPrtA.s:2440   .text:00000d52 enterFrameForMapper
C:\Users\ADMINI~1\AppData\Local\Temp/ccypPrtA.s:2513   .text:00000dcc startKeyMappingOnBoot
C:\Users\ADMINI~1\AppData\Local\Temp/ccypPrtA.s:2672   .progmem.data:000001f6 str_nothing

UNDEFINED SYMBOLS
INTERFACE
pushM
charToKey
GAS LISTING C:\Users\ADMINI~1\AppData\Local\Temp/ccypPrtA.s 			page 207


sprintf
toString
setToBootMapper
__eewr_byte_m32
__eerd_byte_m32
getDualActionDownKeyIdex
findIndex
append
delete
getKeyCode
isEmptyM
clearMacroPressedBuffer
isAllKeyRelease
prepareKeyMappingUsb
prepareKeyMappingPs2
isMacroProcessEnd
isBootMapper
__do_copy_data
__do_clear_bss
