GAS LISTING C:\Users\ADMINI~1\AppData\Local\Temp/ccxu9E7s.s 			page 1


   1               		.file	"keymatrix.c"
   2               	__SREG__ = 0x3f
   3               	__SP_H__ = 0x3e
   4               	__SP_L__ = 0x3d
   5               	__CCP__  = 0x34
   6               	__tmp_reg__ = 0
   7               	__zero_reg__ = 1
   8               		.section	.debug_abbrev,"",@progbits
   9               	.Ldebug_abbrev0:
  10               		.section	.debug_info,"",@progbits
  11               	.Ldebug_info0:
  12               		.section	.debug_line,"",@progbits
  13               	.Ldebug_line0:
  14               		.text
  15               	.Ltext0:
  16               	.global	clearMatrix
  17               		.type	clearMatrix, @function
  18               	clearMatrix:
  19               	.LFB8:
  20               	.LM1:
  21               	/* prologue: function */
  22               	/* frame size = 0 */
  23               	.LM2:
  24 0000 80E0      		ldi r24,lo8(0)
  25 0002 90E0      		ldi r25,hi8(0)
  26               	.L2:
  27               	.LM3:
  28 0004 FC01      		movw r30,r24
  29 0006 E050      		subi r30,lo8(-(prevMatrix))
  30 0008 F040      		sbci r31,hi8(-(prevMatrix))
  31 000a 1082      		st Z,__zero_reg__
  32               	.LM4:
  33 000c FC01      		movw r30,r24
  34 000e E050      		subi r30,lo8(-(currentMatrix))
  35 0010 F040      		sbci r31,hi8(-(currentMatrix))
  36 0012 1082      		st Z,__zero_reg__
  37 0014 0196      		adiw r24,1
  38               	.LM5:
  39 0016 8131      		cpi r24,17
  40 0018 9105      		cpc r25,__zero_reg__
  41 001a 01F4      		brne .L2
  42               	.LM6:
  43 001c 8AE0      		ldi r24,lo8(10)
  44 001e 8093 0000 		sts debounceMAX,r24
  45               	/* epilogue start */
  46               	.LM7:
  47 0022 0895      		ret
  48               	.LFE8:
  49               		.size	clearMatrix, .-clearMatrix
  50               	.global	isAllKeyRelease
  51               		.type	isAllKeyRelease, @function
  52               	isAllKeyRelease:
  53               	.LFB9:
  54               	.LM8:
  55               	/* prologue: function */
  56               	/* frame size = 0 */
  57               	.LM9:
GAS LISTING C:\Users\ADMINI~1\AppData\Local\Temp/ccxu9E7s.s 			page 2


  58 0024 81E0      		ldi r24,lo8(1)
  59 0026 8093 0000 		sts _isAllKeyRelease,r24
  60 002a E0E0      		ldi r30,lo8(currentMatrix)
  61 002c F0E0      		ldi r31,hi8(currentMatrix)
  62               	.L8:
  63               	.LM10:
  64 002e 8081      		ld r24,Z
  65 0030 8823      		tst r24
  66 0032 01F0      		breq .L6
  67               	.LM11:
  68 0034 1092 0000 		sts _isAllKeyRelease,__zero_reg__
  69 0038 00C0      		rjmp .L7
  70               	.L6:
  71               	.LM12:
  72 003a 3196      		adiw r30,1
  73               	.LM13:
  74 003c 80E0      		ldi r24,hi8(currentMatrix+17)
  75 003e E030      		cpi r30,lo8(currentMatrix+17)
  76 0040 F807      		cpc r31,r24
  77 0042 01F4      		brne .L8
  78               	.L7:
  79               	.LM14:
  80 0044 8091 0000 		lds r24,_isAllKeyRelease
  81               	/* epilogue start */
  82 0048 0895      		ret
  83               	.LFE9:
  84               		.size	isAllKeyRelease, .-isAllKeyRelease
  85               	.global	getCurrentMatrix
  86               		.type	getCurrentMatrix, @function
  87               	getCurrentMatrix:
  88               	.LFB13:
  89               	.LM15:
  90               	/* prologue: function */
  91               	/* frame size = 0 */
  92               	.LM16:
  93 004a 80E0      		ldi r24,lo8(currentMatrix)
  94 004c 90E0      		ldi r25,hi8(currentMatrix)
  95               	/* epilogue start */
  96 004e 0895      		ret
  97               	.LFE13:
  98               		.size	getCurrentMatrix, .-getCurrentMatrix
  99               	.global	getLiveMatrix
 100               		.type	getLiveMatrix, @function
 101               	getLiveMatrix:
 102               	.LFB12:
 103               	.LM17:
 104 0050 8F92      		push r8
 105 0052 9F92      		push r9
 106 0054 AF92      		push r10
 107 0056 BF92      		push r11
 108 0058 DF92      		push r13
 109 005a EF92      		push r14
 110 005c FF92      		push r15
 111 005e 0F93      		push r16
 112 0060 1F93      		push r17
 113 0062 CF93      		push r28
 114 0064 DF93      		push r29
GAS LISTING C:\Users\ADMINI~1\AppData\Local\Temp/ccxu9E7s.s 			page 3


 115               	/* prologue: function */
 116               	/* frame size = 0 */
 117               	.LM18:
 118 0066 DD24      		clr r13
 119               	.LVL0:
 120 0068 C0E0      		ldi r28,lo8(0)
 121 006a D0E0      		ldi r29,hi8(0)
 122               	.LM19:
 123 006c 21E0      		ldi r18,lo8(1)
 124 006e E22E      		mov r14,r18
 125 0070 F12C      		mov r15,__zero_reg__
 126               	.LM20:
 127 0072 97E1      		ldi r25,lo8(23)
 128 0074 892E      		mov r8,r25
 129 0076 912C      		mov r9,__zero_reg__
 130               	.LM21:
 131 0078 8FE0      		ldi r24,lo8(15)
 132 007a A82E      		mov r10,r24
 133 007c B12C      		mov r11,__zero_reg__
 134               	.LVL1:
 135               	.L21:
 136               	.LM22:
 137 007e 8701      		movw r16,r14
 138 0080 0C2E      		mov r0,r28
 139 0082 00C0      		rjmp 2f
 140 0084 000F      	1:	lsl r16
 141 0086 111F      		rol r17
 142 0088 0A94      	2:	dec r0
 143 008a 02F4      		brpl 1b
 144 008c 07BB      		out 55-32,r16
 145               	.LM23:
 146 008e 802F      		mov r24,r16
 147 0090 8095      		com r24
 148 0092 88BB      		out 56-32,r24
 149               	.LM24:
 150 0094 81E0      		ldi r24,lo8(1)
 151 0096 90E0      		ldi r25,hi8(1)
 152 0098 0E94 0000 		call _delay_us_m
 153               	.LVL2:
 154 009c E0E0      		ldi r30,lo8(currentMatrix)
 155 009e F0E0      		ldi r31,hi8(currentMatrix)
 156 00a0 40E0      		ldi r20,lo8(0)
 157 00a2 50E0      		ldi r21,hi8(0)
 158               	.LM25:
 159 00a4 302F      		mov r19,r16
 160 00a6 3095      		com r19
 161               	.LVL3:
 162               	.L20:
 163               	.LM26:
 164 00a8 842F      		mov r24,r20
 165               	.LVL4:
 166               	.LM27:
 167 00aa 4830      		cpi r20,lo8(8)
 168 00ac 00F4      		brsh .L14
 169               	.LVL5:
 170               	.LM28:
 171 00ae 29B3      		in r18,57-32
GAS LISTING C:\Users\ADMINI~1\AppData\Local\Temp/ccxu9E7s.s 			page 4


 172 00b0 C701      		movw r24,r14
 173 00b2 042E      		mov r0,r20
 174 00b4 00C0      		rjmp 2f
 175 00b6 880F      	1:	lsl r24
 176 00b8 991F      		rol r25
 177 00ba 0A94      	2:	dec r0
 178 00bc 02F4      		brpl 1b
 179               	.LVL6:
 180 00be 00C0      		rjmp .L28
 181               	.LVL7:
 182               	.L14:
 183               	.LM29:
 184 00c0 8850      		subi r24,lo8(-(-8))
 185               	.LVL8:
 186 00c2 8830      		cpi r24,lo8(8)
 187 00c4 00F4      		brsh .L16
 188               	.LM30:
 189 00c6 23B3      		in r18,51-32
 190 00c8 C501      		movw r24,r10
 191               	.LVL9:
 192 00ca 00C0      		rjmp .L30
 193               	.LVL10:
 194               	.L16:
 195               	.LM31:
 196 00cc 20B3      		in r18,48-32
 197 00ce C401      		movw r24,r8
 198               	.LVL11:
 199               	.L30:
 200 00d0 841B      		sub r24,r20
 201 00d2 950B      		sbc r25,r21
 202 00d4 B701      		movw r22,r14
 203 00d6 00C0      		rjmp 2f
 204 00d8 660F      	1:	lsl r22
 205 00da 771F      		rol r23
 206 00dc 8A95      	2:	dec r24
 207 00de 02F4      		brpl 1b
 208 00e0 CB01      		movw r24,r22
 209               	.L28:
 210 00e2 2095      		com r18
 211 00e4 2823      		and r18,r24
 212               	.LM32:
 213 00e6 9081      		ld r25,Z
 214               	.LM33:
 215 00e8 802F      		mov r24,r16
 216 00ea 8923      		and r24,r25
 217 00ec 01F0      		breq .L17
 218 00ee 2223      		tst r18
 219 00f0 01F0      		breq .L18
 220 00f2 00C0      		rjmp .L19
 221               	.L17:
 222 00f4 2223      		tst r18
 223 00f6 01F0      		breq .L19
 224               	.LM34:
 225 00f8 902B      		or r25,r16
 226 00fa 00C0      		rjmp .L29
 227               	.L18:
 228               	.LM35:
GAS LISTING C:\Users\ADMINI~1\AppData\Local\Temp/ccxu9E7s.s 			page 5


 229 00fc 9323      		and r25,r19
 230               	.L29:
 231 00fe 9083      		st Z,r25
 232 0100 DD24      		clr r13
 233 0102 D394      		inc r13
 234               	.L19:
 235 0104 4F5F      		subi r20,lo8(-(1))
 236 0106 5F4F      		sbci r21,hi8(-(1))
 237 0108 3196      		adiw r30,1
 238               	.LM36:
 239 010a 4131      		cpi r20,17
 240 010c 5105      		cpc r21,__zero_reg__
 241 010e 01F4      		brne .L20
 242 0110 2196      		adiw r28,1
 243               	.LM37:
 244 0112 C830      		cpi r28,8
 245 0114 D105      		cpc r29,__zero_reg__
 246 0116 01F0      		breq .+2
 247 0118 00C0      		rjmp .L21
 248               	.LM38:
 249 011a DD20      		tst r13
 250 011c 01F0      		breq .L22
 251               	.LM39:
 252 011e 1092 0000 		sts debounce,__zero_reg__
 253 0122 00C0      		rjmp .L23
 254               	.L22:
 255               	.LM40:
 256 0124 8091 0000 		lds r24,debounce
 257 0128 8436      		cpi r24,lo8(100)
 258 012a 00F4      		brsh .L23
 259               	.LM41:
 260 012c 8F5F      		subi r24,lo8(-(1))
 261 012e 8093 0000 		sts debounce,r24
 262               	.L23:
 263 0132 20E0      		ldi r18,lo8(0)
 264               	.LVL12:
 265 0134 9091 0000 		lds r25,debounce
 266 0138 8091 0000 		lds r24,debounceMAX
 267 013c 9817      		cp r25,r24
 268 013e 01F4      		brne .L24
 269 0140 21E0      		ldi r18,lo8(1)
 270               	.L24:
 271               	.LM42:
 272 0142 822F      		mov r24,r18
 273               	/* epilogue start */
 274 0144 DF91      		pop r29
 275 0146 CF91      		pop r28
 276 0148 1F91      		pop r17
 277 014a 0F91      		pop r16
 278 014c FF90      		pop r15
 279 014e EF90      		pop r14
 280 0150 DF90      		pop r13
 281               	.LVL13:
 282 0152 BF90      		pop r11
 283 0154 AF90      		pop r10
 284 0156 9F90      		pop r9
 285 0158 8F90      		pop r8
GAS LISTING C:\Users\ADMINI~1\AppData\Local\Temp/ccxu9E7s.s 			page 6


 286 015a 0895      		ret
 287               	.LFE12:
 288               		.size	getLiveMatrix, .-getLiveMatrix
 289               	.global	setCurrentMatrix
 290               		.type	setCurrentMatrix, @function
 291               	setCurrentMatrix:
 292               	.LFB14:
 293               	.LM43:
 294 015c 1F93      		push r17
 295               	/* prologue: function */
 296               	/* frame size = 0 */
 297               	.LM44:
 298 015e 0E94 0000 		call startKeyMapping
 299               	.LM45:
 300 0162 0E94 0000 		call getLiveMatrix
 301 0166 182F      		mov r17,r24
 302               	.LVL14:
 303               	.LM46:
 304 0168 0E94 0000 		call enterFrameForMapper
 305               	.LM47:
 306 016c 0E94 0000 		call isReadyKeyMappingOnBoot
 307 0170 8111      		cpse r24,__zero_reg__
 308 0172 10E0      		ldi r17,lo8(0)
 309               	.L32:
 310               	.LM48:
 311 0174 812F      		mov r24,r17
 312               	/* epilogue start */
 313 0176 1F91      		pop r17
 314               	.LVL15:
 315 0178 0895      		ret
 316               	.LFE14:
 317               		.size	setCurrentMatrix, .-setCurrentMatrix
 318               	.global	getLayer
 319               		.type	getLayer, @function
 320               	getLayer:
 321               	.LFB11:
 322               	.LM49:
 323 017a 4F92      		push r4
 324 017c 5F92      		push r5
 325 017e 6F92      		push r6
 326 0180 7F92      		push r7
 327 0182 9F92      		push r9
 328 0184 AF92      		push r10
 329 0186 BF92      		push r11
 330 0188 CF92      		push r12
 331 018a DF92      		push r13
 332 018c EF92      		push r14
 333 018e FF92      		push r15
 334 0190 0F93      		push r16
 335 0192 1F93      		push r17
 336 0194 CF93      		push r28
 337 0196 DF93      		push r29
 338               	/* prologue: function */
 339               	/* frame size = 0 */
 340               	.LM50:
 341 0198 EE24      		clr r14
 342 019a FF24      		clr r15
GAS LISTING C:\Users\ADMINI~1\AppData\Local\Temp/ccxu9E7s.s 			page 7


 343               	.LM51:
 344 019c 51E0      		ldi r21,lo8(1)
 345 019e C52E      		mov r12,r21
 346 01a0 D12C      		mov r13,__zero_reg__
 347               	.LM52:
 348 01a2 47E1      		ldi r20,lo8(23)
 349 01a4 442E      		mov r4,r20
 350 01a6 512C      		mov r5,__zero_reg__
 351               	.LM53:
 352 01a8 3FE0      		ldi r19,lo8(15)
 353 01aa 632E      		mov r6,r19
 354 01ac 712C      		mov r7,__zero_reg__
 355 01ae 00C0      		rjmp .L35
 356               	.LVL16:
 357               	.L47:
 358               	.LM54:
 359 01b0 0C2F      		mov r16,r28
 360               	.LM55:
 361 01b2 8091 0000 		lds r24,_currentLayer
 362 01b6 6C2F      		mov r22,r28
 363 01b8 492D      		mov r20,r9
 364 01ba 0E94 0000 		call getCurrentKeycode
 365               	.LVL17:
 366 01be 182F      		mov r17,r24
 367               	.LM56:
 368 01c0 865D      		subi r24,lo8(-(42))
 369 01c2 8031      		cpi r24,lo8(16)
 370 01c4 00F4      		brsh .L36
 371               	.LM57:
 372 01c6 E12F      		mov r30,r17
 373 01c8 F0E0      		ldi r31,lo8(0)
 374               	.LVL18:
 375 01ca E050      		subi r30,lo8(-(dualActionMaskDown-214))
 376 01cc F040      		sbci r31,hi8(-(dualActionMaskDown-214))
 377               	.LVL19:
 378 01ce 1081      		ld r17,Z
 379               	.LVL20:
 380               	.L36:
 381               	.LM58:
 382 01d0 812F      		mov r24,r17
 383 01d2 865F      		subi r24,lo8(-(10))
 384 01d4 8230      		cpi r24,lo8(2)
 385 01d6 00F0      		brlo .L37
 386 01d8 1E3F      		cpi r17,lo8(-2)
 387 01da 01F0      		breq .L37
 388 01dc 183F      		cpi r17,lo8(-8)
 389 01de 01F0      		breq .L37
 390 01e0 1B3F      		cpi r17,lo8(-5)
 391 01e2 01F0      		breq .+2
 392 01e4 00C0      		rjmp .L38
 393 01e6 8091 0000 		lds r24,_currentLayer
 394 01ea 8230      		cpi r24,lo8(2)
 395 01ec 01F0      		breq .+2
 396 01ee 00C0      		rjmp .L38
 397               	.L37:
 398               	.LM59:
 399 01f0 A7BA      		out 55-32,r10
GAS LISTING C:\Users\ADMINI~1\AppData\Local\Temp/ccxu9E7s.s 			page 8


 400               	.LM60:
 401 01f2 B8BA      		out 56-32,r11
 402               	.LM61:
 403 01f4 81E0      		ldi r24,lo8(1)
 404 01f6 90E0      		ldi r25,hi8(1)
 405 01f8 0E94 0000 		call _delay_us_m
 406               	.LVL21:
 407               	.LM62:
 408 01fc 0830      		cpi r16,lo8(8)
 409 01fe 00F4      		brsh .L39
 410               	.LM63:
 411 0200 29B3      		in r18,57-32
 412               	.LVL22:
 413 0202 C601      		movw r24,r12
 414 0204 0C2E      		mov r0,r28
 415 0206 00C0      		rjmp 2f
 416 0208 880F      	1:	lsl r24
 417 020a 991F      		rol r25
 418 020c 0A94      	2:	dec r0
 419 020e 02F4      		brpl 1b
 420 0210 00C0      		rjmp .L53
 421               	.LVL23:
 422               	.L39:
 423               	.LM64:
 424 0212 0850      		subi r16,lo8(-(-8))
 425 0214 0830      		cpi r16,lo8(8)
 426 0216 00F4      		brsh .L41
 427               	.LM65:
 428 0218 23B3      		in r18,51-32
 429               	.LVL24:
 430 021a C301      		movw r24,r6
 431 021c 00C0      		rjmp .L56
 432               	.LVL25:
 433               	.L41:
 434               	.LM66:
 435 021e 20B3      		in r18,48-32
 436               	.LVL26:
 437 0220 C201      		movw r24,r4
 438               	.L56:
 439 0222 8C1B      		sub r24,r28
 440 0224 9D0B      		sbc r25,r29
 441 0226 A601      		movw r20,r12
 442 0228 00C0      		rjmp 2f
 443 022a 440F      	1:	lsl r20
 444 022c 551F      		rol r21
 445 022e 8A95      	2:	dec r24
 446 0230 02F4      		brpl 1b
 447 0232 CA01      		movw r24,r20
 448               	.L53:
 449 0234 2095      		com r18
 450 0236 2823      		and r18,r24
 451               	.LM67:
 452 0238 01F0      		breq .L38
 453               	.LM68:
 454 023a 1E3F      		cpi r17,lo8(-2)
 455 023c 01F0      		breq .L54
 456               	.L42:
GAS LISTING C:\Users\ADMINI~1\AppData\Local\Temp/ccxu9E7s.s 			page 9


 457               	.LM69:
 458 023e 183F      		cpi r17,lo8(-8)
 459 0240 01F4      		brne .+2
 460 0242 00C0      		rjmp .L55
 461               	.L44:
 462               	.LM70:
 463 0244 173F      		cpi r17,lo8(-9)
 464 0246 01F4      		brne .L45
 465               	.LM71:
 466 0248 8091 0000 		lds r24,_isAllKeyRelease
 467 024c 8823      		tst r24
 468 024e 01F0      		breq .L38
 469               	.LM72:
 470 0250 81E0      		ldi r24,lo8(1)
 471 0252 8093 0000 		sts isLazyLayer.2280,r24
 472               	.L54:
 473 0256 91E0      		ldi r25,lo8(1)
 474 0258 00C0      		rjmp .L43
 475               	.L45:
 476               	.LM73:
 477 025a 163F      		cpi r17,lo8(-10)
 478 025c 01F4      		brne .L46
 479               	.LM74:
 480 025e 8091 0000 		lds r24,_isAllKeyRelease
 481 0262 8823      		tst r24
 482 0264 01F0      		breq .L38
 483               	.LM75:
 484 0266 82E0      		ldi r24,lo8(2)
 485 0268 8093 0000 		sts isLazyLayer.2280,r24
 486 026c 00C0      		rjmp .L55
 487               	.L46:
 488               	.LM76:
 489 026e 1B3F      		cpi r17,lo8(-5)
 490 0270 01F4      		brne .L38
 491 0272 90E0      		ldi r25,lo8(0)
 492 0274 00C0      		rjmp .L43
 493               	.LVL27:
 494               	.L38:
 495 0276 2196      		adiw r28,1
 496               	.LM77:
 497 0278 C131      		cpi r28,17
 498 027a D105      		cpc r29,__zero_reg__
 499 027c 01F0      		breq .+2
 500 027e 00C0      		rjmp .L47
 501 0280 0894      		sec
 502 0282 E11C      		adc r14,__zero_reg__
 503 0284 F11C      		adc r15,__zero_reg__
 504               	.LM78:
 505 0286 58E0      		ldi r21,lo8(8)
 506 0288 E516      		cp r14,r21
 507 028a F104      		cpc r15,__zero_reg__
 508 028c 01F0      		breq .L48
 509               	.L35:
 510 028e 9E2C      		mov r9,r14
 511               	.LM79:
 512 0290 C601      		movw r24,r12
 513 0292 0E2C      		mov r0,r14
GAS LISTING C:\Users\ADMINI~1\AppData\Local\Temp/ccxu9E7s.s 			page 10


 514 0294 00C0      		rjmp 2f
 515 0296 880F      	1:	lsl r24
 516 0298 991F      		rol r25
 517 029a 0A94      	2:	dec r0
 518 029c 02F4      		brpl 1b
 519 029e A82E      		mov r10,r24
 520               	.LM80:
 521 02a0 B82E      		mov r11,r24
 522 02a2 B094      		com r11
 523 02a4 C0E0      		ldi r28,lo8(0)
 524 02a6 D0E0      		ldi r29,hi8(0)
 525 02a8 00C0      		rjmp .L47
 526               	.L48:
 527               	.LM81:
 528 02aa 0E94 0000 		call isAllKeyRelease
 529               	.LVL28:
 530 02ae 8823      		tst r24
 531 02b0 01F0      		breq .L49
 532               	.LM82:
 533 02b2 1092 0000 		sts isLazyLayer.2280,__zero_reg__
 534               	.L49:
 535               	.LM83:
 536 02b6 9091 0000 		lds r25,isLazyLayer.2280
 537 02ba 9923      		tst r25
 538 02bc 01F4      		brne .L43
 539               	.LM84:
 540 02be 8091 0000 		lds r24,isBeyondFN
 541 02c2 8130      		cpi r24,lo8(1)
 542 02c4 01F4      		brne .L50
 543               	.LM85:
 544 02c6 82E0      		ldi r24,lo8(2)
 545 02c8 8093 0000 		sts _currentLayer,r24
 546               	.LVL29:
 547               	.L55:
 548 02cc 92E0      		ldi r25,lo8(2)
 549 02ce 00C0      		rjmp .L43
 550               	.LVL30:
 551               	.L50:
 552               	.LM86:
 553 02d0 1092 0000 		sts _currentLayer,__zero_reg__
 554               	.LVL31:
 555               	.L43:
 556               	.LM87:
 557 02d4 892F      		mov r24,r25
 558               	/* epilogue start */
 559 02d6 DF91      		pop r29
 560 02d8 CF91      		pop r28
 561 02da 1F91      		pop r17
 562               	.LVL32:
 563 02dc 0F91      		pop r16
 564               	.LVL33:
 565 02de FF90      		pop r15
 566 02e0 EF90      		pop r14
 567 02e2 DF90      		pop r13
 568 02e4 CF90      		pop r12
 569 02e6 BF90      		pop r11
 570 02e8 AF90      		pop r10
GAS LISTING C:\Users\ADMINI~1\AppData\Local\Temp/ccxu9E7s.s 			page 11


 571 02ea 9F90      		pop r9
 572               	.LVL34:
 573 02ec 7F90      		pop r7
 574 02ee 6F90      		pop r6
 575 02f0 5F90      		pop r5
 576 02f2 4F90      		pop r4
 577 02f4 0895      		ret
 578               	.LFE11:
 579               		.size	getLayer, .-getLayer
 580               	.global	applyFN
 581               		.type	applyFN, @function
 582               	applyFN:
 583               	.LFB10:
 584               	.LM88:
 585               	.LVL35:
 586 02f6 0F93      		push r16
 587 02f8 1F93      		push r17
 588               	/* prologue: function */
 589               	/* frame size = 0 */
 590 02fa 182F      		mov r17,r24
 591 02fc 062F      		mov r16,r22
 592               	.LM89:
 593 02fe 8E3F      		cpi r24,lo8(-2)
 594 0300 01F4      		brne .+2
 595 0302 00C0      		rjmp .L58
 596               	.LVL36:
 597               	.LM90:
 598 0304 0E94 0000 		call setDualAction
 599               	.LVL37:
 600               	.LM91:
 601 0308 0023      		tst r16
 602 030a 01F0      		breq .L59
 603               	.LM92:
 604 030c 0E94 0000 		call applyKeyDownForFullLED
 605               	.LM93:
 606 0310 1C3F      		cpi r17,lo8(-4)
 607 0312 01F0      		breq .L60
 608 0314 8091 0000 		lds r24,_isExtraFNDown
 609 0318 8823      		tst r24
 610 031a 01F0      		breq .L61
 611 031c 1A32      		cpi r17,lo8(42)
 612 031e 01F4      		brne .L61
 613               	.LM94:
 614 0320 1092 0000 		sts isBeyondFN,__zero_reg__
 615 0324 00C0      		rjmp .L62
 616               	.L60:
 617               	.LM95:
 618 0326 8091 0000 		lds r24,isBeyondFN
 619 032a 91E0      		ldi r25,lo8(1)
 620 032c 8927      		eor r24,r25
 621 032e 8093 0000 		sts isBeyondFN,r24
 622               	.L62:
 623               	.LM96:
 624 0332 8091 0000 		lds r24,isBeyondFN
 625 0336 8823      		tst r24
 626 0338 01F4      		brne .L58
 627               	.LM97:
GAS LISTING C:\Users\ADMINI~1\AppData\Local\Temp/ccxu9E7s.s 			page 12


 628 033a 0E94 0000 		call getLEDState
 629 033e 80FF      		sbrs r24,0
 630 0340 00C0      		rjmp .L63
 631               	.LM98:
 632 0342 909A      		sbi 50-32,0
 633 0344 00C0      		rjmp .L58
 634               	.L63:
 635               	.LM99:
 636 0346 9098      		cbi 50-32,0
 637 0348 00C0      		rjmp .L58
 638               	.L61:
 639               	.LM100:
 640 034a 1932      		cpi r17,lo8(41)
 641 034c 01F4      		brne .L65
 642               	.LM101:
 643 034e 81E0      		ldi r24,lo8(1)
 644 0350 8093 0000 		sts _isExtraFNDown,r24
 645 0354 00C0      		rjmp .L64
 646               	.L65:
 647               	.LM102:
 648 0356 8823      		tst r24
 649 0358 01F0      		breq .L66
 650 035a 1933      		cpi r17,lo8(57)
 651 035c 01F0      		breq .L67
 652               	.L66:
 653 035e 1D3F      		cpi r17,lo8(-3)
 654 0360 01F4      		brne .L68
 655               	.L67:
 656               	.LM103:
 657 0362 0E94 0000 		call changeFullLedState
 658 0366 00C0      		rjmp .L58
 659               	.L68:
 660               	.LM104:
 661 0368 1A3F      		cpi r17,lo8(-6)
 662 036a 01F4      		brne .L69
 663               	.LM105:
 664 036c 0E94 0000 		call increaseLedBrightness
 665 0370 00C0      		rjmp .L58
 666               	.L69:
 667               	.LM106:
 668 0372 193F      		cpi r17,lo8(-7)
 669 0374 01F4      		brne .L70
 670               	.LM107:
 671 0376 0E94 0000 		call reduceLedBrightness
 672 037a 00C0      		rjmp .L58
 673               	.L59:
 674               	.LM108:
 675 037c 1C3F      		cpi r17,lo8(-4)
 676 037e 01F0      		breq .L58
 677               	.LM109:
 678 0380 1932      		cpi r17,lo8(41)
 679 0382 01F4      		brne .L70
 680               	.LM110:
 681 0384 1092 0000 		sts _isExtraFNDown,__zero_reg__
 682 0388 00C0      		rjmp .L70
 683               	.LVL38:
 684               	.L58:
GAS LISTING C:\Users\ADMINI~1\AppData\Local\Temp/ccxu9E7s.s 			page 13


 685 038a 80E0      		ldi r24,lo8(0)
 686 038c 00C0      		rjmp .L64
 687               	.LVL39:
 688               	.L70:
 689 038e 81E0      		ldi r24,lo8(1)
 690               	.LVL40:
 691               	.L64:
 692               	/* epilogue start */
 693               	.LM111:
 694 0390 1F91      		pop r17
 695               	.LVL41:
 696 0392 0F91      		pop r16
 697               	.LVL42:
 698 0394 0895      		ret
 699               	.LFE10:
 700               		.size	applyFN, .-applyFN
 701               	.global	isBeyondFN
 702               	.global	isBeyondFN
 703               		.section .bss
 704               		.type	isBeyondFN, @object
 705               		.size	isBeyondFN, 1
 706               	isBeyondFN:
 707 0000 00        		.skip 1,0
 708               	.global	_currentLayer
 709               	.global	_currentLayer
 710               		.type	_currentLayer, @object
 711               		.size	_currentLayer, 1
 712               	_currentLayer:
 713 0001 00        		.skip 1,0
 714               	.global	modmask
 715               		.data
 716               		.type	modmask, @object
 717               		.size	modmask, 32
 718               	modmask:
 719 0000 0100      		.word	1
 720 0002 0200      		.word	2
 721 0004 0400      		.word	4
 722 0006 0800      		.word	8
 723 0008 1000      		.word	16
 724 000a 2000      		.word	32
 725 000c 4000      		.word	64
 726 000e 8000      		.word	128
 727 0010 0001      		.word	256
 728 0012 0002      		.word	512
 729 0014 0004      		.word	1024
 730 0016 0008      		.word	2048
 731 0018 0010      		.word	4096
 732 001a 0020      		.word	8192
 733 001c 0040      		.word	16384
 734 001e 0080      		.word	-32768
 735               		.type	debounce, @object
 736               		.size	debounce, 1
 737               	debounce:
 738 0020 0A        		.byte	10
 739               		.type	debounceMAX, @object
 740               		.size	debounceMAX, 1
 741               	debounceMAX:
GAS LISTING C:\Users\ADMINI~1\AppData\Local\Temp/ccxu9E7s.s 			page 14


 742 0021 05        		.byte	5
 743               		.lcomm _isAllKeyRelease,1
 744               		.lcomm isLazyLayer.2280,1
 745               		.lcomm _isExtraFNDown,1
 746               		.comm prevMatrix,17,1
 747               		.comm currentMatrix,17,1
 748               		.section	.debug_frame,"",@progbits
 749               	.Lframe0:
 750 0000 0C00 0000 		.long	.LECIE0-.LSCIE0
 751               	.LSCIE0:
 752 0004 FFFF FFFF 		.long	0xffffffff
 753 0008 01        		.byte	0x1
 754 0009 00        		.string	""
 755 000a 01        		.uleb128 0x1
 756 000b 7F        		.sleb128 -1
 757 000c 24        		.byte	0x24
 758 000d 0C        		.byte	0xc
 759 000e 20        		.uleb128 0x20
 760 000f 00        		.uleb128 0x0
 761               		.p2align	2
 762               	.LECIE0:
 763               	.LSFDE0:
 764 0010 0C00 0000 		.long	.LEFDE0-.LASFDE0
 765               	.LASFDE0:
 766 0014 0000 0000 		.long	.Lframe0
 767 0018 0000 0000 		.long	.LFB8
 768 001c 2400 0000 		.long	.LFE8-.LFB8
 769               		.p2align	2
 770               	.LEFDE0:
 771               	.LSFDE2:
 772 0020 0C00 0000 		.long	.LEFDE2-.LASFDE2
 773               	.LASFDE2:
 774 0024 0000 0000 		.long	.Lframe0
 775 0028 0000 0000 		.long	.LFB9
 776 002c 2600 0000 		.long	.LFE9-.LFB9
 777               		.p2align	2
 778               	.LEFDE2:
 779               	.LSFDE4:
 780 0030 0C00 0000 		.long	.LEFDE4-.LASFDE4
 781               	.LASFDE4:
 782 0034 0000 0000 		.long	.Lframe0
 783 0038 0000 0000 		.long	.LFB13
 784 003c 0600 0000 		.long	.LFE13-.LFB13
 785               		.p2align	2
 786               	.LEFDE4:
 787               	.LSFDE6:
 788 0040 0C00 0000 		.long	.LEFDE6-.LASFDE6
 789               	.LASFDE6:
 790 0044 0000 0000 		.long	.Lframe0
 791 0048 0000 0000 		.long	.LFB12
 792 004c 0C01 0000 		.long	.LFE12-.LFB12
 793               		.p2align	2
 794               	.LEFDE6:
 795               	.LSFDE8:
 796 0050 0C00 0000 		.long	.LEFDE8-.LASFDE8
 797               	.LASFDE8:
 798 0054 0000 0000 		.long	.Lframe0
GAS LISTING C:\Users\ADMINI~1\AppData\Local\Temp/ccxu9E7s.s 			page 15


 799 0058 0000 0000 		.long	.LFB14
 800 005c 1E00 0000 		.long	.LFE14-.LFB14
 801               		.p2align	2
 802               	.LEFDE8:
 803               	.LSFDE10:
 804 0060 0C00 0000 		.long	.LEFDE10-.LASFDE10
 805               	.LASFDE10:
 806 0064 0000 0000 		.long	.Lframe0
 807 0068 0000 0000 		.long	.LFB11
 808 006c 7C01 0000 		.long	.LFE11-.LFB11
 809               		.p2align	2
 810               	.LEFDE10:
 811               	.LSFDE12:
 812 0070 0C00 0000 		.long	.LEFDE12-.LASFDE12
 813               	.LASFDE12:
 814 0074 0000 0000 		.long	.Lframe0
 815 0078 0000 0000 		.long	.LFB10
 816 007c A000 0000 		.long	.LFE10-.LFB10
 817               		.p2align	2
 818               	.LEFDE12:
 819               		.text
 820               	.Letext0:
 821               		.section	.debug_loc,"",@progbits
 822               	.Ldebug_loc0:
 823               	.LLST4:
 824 0000 AA00 0000 		.long	.LVL4-.Ltext0
 825 0004 AE00 0000 		.long	.LVL5-.Ltext0
 826 0008 0100      		.word	0x1
 827 000a 68        		.byte	0x68
 828 000b AE00 0000 		.long	.LVL5-.Ltext0
 829 000f BE00 0000 		.long	.LVL6-.Ltext0
 830 0013 0100      		.word	0x1
 831 0015 64        		.byte	0x64
 832 0016 C000 0000 		.long	.LVL7-.Ltext0
 833 001a C200 0000 		.long	.LVL8-.Ltext0
 834 001e 0100      		.word	0x1
 835 0020 64        		.byte	0x64
 836 0021 C200 0000 		.long	.LVL8-.Ltext0
 837 0025 CA00 0000 		.long	.LVL9-.Ltext0
 838 0029 0100      		.word	0x1
 839 002b 68        		.byte	0x68
 840 002c CC00 0000 		.long	.LVL10-.Ltext0
 841 0030 D000 0000 		.long	.LVL11-.Ltext0
 842 0034 0100      		.word	0x1
 843 0036 68        		.byte	0x68
 844 0037 0000 0000 		.long	0x0
 845 003b 0000 0000 		.long	0x0
 846               	.LLST5:
 847 003f 7E00 0000 		.long	.LVL1-.Ltext0
 848 0043 9C00 0000 		.long	.LVL2-.Ltext0
 849 0047 0100      		.word	0x1
 850 0049 62        		.byte	0x62
 851 004a A800 0000 		.long	.LVL3-.Ltext0
 852 004e 3401 0000 		.long	.LVL12-.Ltext0
 853 0052 0100      		.word	0x1
 854 0054 62        		.byte	0x62
 855 0055 0000 0000 		.long	0x0
GAS LISTING C:\Users\ADMINI~1\AppData\Local\Temp/ccxu9E7s.s 			page 16


 856 0059 0000 0000 		.long	0x0
 857               	.LLST6:
 858 005d 6800 0000 		.long	.LVL0-.Ltext0
 859 0061 5201 0000 		.long	.LVL13-.Ltext0
 860 0065 0100      		.word	0x1
 861 0067 5D        		.byte	0x5d
 862 0068 0000 0000 		.long	0x0
 863 006c 0000 0000 		.long	0x0
 864               	.LLST8:
 865 0070 6801 0000 		.long	.LVL14-.Ltext0
 866 0074 7801 0000 		.long	.LVL15-.Ltext0
 867 0078 0100      		.word	0x1
 868 007a 61        		.byte	0x61
 869 007b 0000 0000 		.long	0x0
 870 007f 0000 0000 		.long	0x0
 871               	.LLST10:
 872 0083 B001 0000 		.long	.LVL16-.Ltext0
 873 0087 EC02 0000 		.long	.LVL34-.Ltext0
 874 008b 0100      		.word	0x1
 875 008d 59        		.byte	0x59
 876 008e 0000 0000 		.long	0x0
 877 0092 0000 0000 		.long	0x0
 878               	.LLST11:
 879 0096 B001 0000 		.long	.LVL16-.Ltext0
 880 009a DE02 0000 		.long	.LVL33-.Ltext0
 881 009e 0100      		.word	0x1
 882 00a0 60        		.byte	0x60
 883 00a1 0000 0000 		.long	0x0
 884 00a5 0000 0000 		.long	0x0
 885               	.LLST12:
 886 00a9 B001 0000 		.long	.LVL16-.Ltext0
 887 00ad BE01 0000 		.long	.LVL17-.Ltext0
 888 00b1 0600      		.word	0x6
 889 00b3 61        		.byte	0x61
 890 00b4 93        		.byte	0x93
 891 00b5 01        		.uleb128 0x1
 892 00b6 6F        		.byte	0x6f
 893 00b7 93        		.byte	0x93
 894 00b8 01        		.uleb128 0x1
 895 00b9 BE01 0000 		.long	.LVL17-.Ltext0
 896 00bd CA01 0000 		.long	.LVL18-.Ltext0
 897 00c1 0100      		.word	0x1
 898 00c3 61        		.byte	0x61
 899 00c4 CA01 0000 		.long	.LVL18-.Ltext0
 900 00c8 D001 0000 		.long	.LVL20-.Ltext0
 901 00cc 0600      		.word	0x6
 902 00ce 6E        		.byte	0x6e
 903 00cf 93        		.byte	0x93
 904 00d0 01        		.uleb128 0x1
 905 00d1 6F        		.byte	0x6f
 906 00d2 93        		.byte	0x93
 907 00d3 01        		.uleb128 0x1
 908 00d4 D001 0000 		.long	.LVL20-.Ltext0
 909 00d8 FC01 0000 		.long	.LVL21-.Ltext0
 910 00dc 0600      		.word	0x6
 911 00de 61        		.byte	0x61
 912 00df 93        		.byte	0x93
GAS LISTING C:\Users\ADMINI~1\AppData\Local\Temp/ccxu9E7s.s 			page 17


 913 00e0 01        		.uleb128 0x1
 914 00e1 6F        		.byte	0x6f
 915 00e2 93        		.byte	0x93
 916 00e3 01        		.uleb128 0x1
 917 00e4 FC01 0000 		.long	.LVL21-.Ltext0
 918 00e8 7602 0000 		.long	.LVL27-.Ltext0
 919 00ec 0100      		.word	0x1
 920 00ee 61        		.byte	0x61
 921 00ef 7602 0000 		.long	.LVL27-.Ltext0
 922 00f3 AE02 0000 		.long	.LVL28-.Ltext0
 923 00f7 0600      		.word	0x6
 924 00f9 61        		.byte	0x61
 925 00fa 93        		.byte	0x93
 926 00fb 01        		.uleb128 0x1
 927 00fc 6F        		.byte	0x6f
 928 00fd 93        		.byte	0x93
 929 00fe 01        		.uleb128 0x1
 930 00ff AE02 0000 		.long	.LVL28-.Ltext0
 931 0103 DC02 0000 		.long	.LVL32-.Ltext0
 932 0107 0100      		.word	0x1
 933 0109 61        		.byte	0x61
 934 010a 0000 0000 		.long	0x0
 935 010e 0000 0000 		.long	0x0
 936               	.LLST13:
 937 0112 B001 0000 		.long	.LVL16-.Ltext0
 938 0116 BE01 0000 		.long	.LVL17-.Ltext0
 939 011a 0100      		.word	0x1
 940 011c 62        		.byte	0x62
 941 011d 0202 0000 		.long	.LVL22-.Ltext0
 942 0121 1202 0000 		.long	.LVL23-.Ltext0
 943 0125 0100      		.word	0x1
 944 0127 62        		.byte	0x62
 945 0128 1A02 0000 		.long	.LVL24-.Ltext0
 946 012c 1E02 0000 		.long	.LVL25-.Ltext0
 947 0130 0100      		.word	0x1
 948 0132 62        		.byte	0x62
 949 0133 2002 0000 		.long	.LVL26-.Ltext0
 950 0137 AE02 0000 		.long	.LVL28-.Ltext0
 951 013b 0100      		.word	0x1
 952 013d 62        		.byte	0x62
 953 013e CC02 0000 		.long	.LVL29-.Ltext0
 954 0142 D002 0000 		.long	.LVL30-.Ltext0
 955 0146 0100      		.word	0x1
 956 0148 62        		.byte	0x62
 957 0149 D402 0000 		.long	.LVL31-.Ltext0
 958 014d F602 0000 		.long	.LFE11-.Ltext0
 959 0151 0100      		.word	0x1
 960 0153 62        		.byte	0x62
 961 0154 0000 0000 		.long	0x0
 962 0158 0000 0000 		.long	0x0
 963               	.LLST15:
 964 015c F602 0000 		.long	.LVL35-.Ltext0
 965 0160 0803 0000 		.long	.LVL37-.Ltext0
 966 0164 0100      		.word	0x1
 967 0166 68        		.byte	0x68
 968 0167 0803 0000 		.long	.LVL37-.Ltext0
 969 016b 9203 0000 		.long	.LVL41-.Ltext0
GAS LISTING C:\Users\ADMINI~1\AppData\Local\Temp/ccxu9E7s.s 			page 18


 970 016f 0100      		.word	0x1
 971 0171 61        		.byte	0x61
 972 0172 0000 0000 		.long	0x0
 973 0176 0000 0000 		.long	0x0
 974               	.LLST16:
 975 017a F602 0000 		.long	.LVL35-.Ltext0
 976 017e 0403 0000 		.long	.LVL36-.Ltext0
 977 0182 0100      		.word	0x1
 978 0184 66        		.byte	0x66
 979 0185 0403 0000 		.long	.LVL36-.Ltext0
 980 0189 9403 0000 		.long	.LVL42-.Ltext0
 981 018d 0100      		.word	0x1
 982 018f 60        		.byte	0x60
 983 0190 9403 0000 		.long	.LVL42-.Ltext0
 984 0194 9603 0000 		.long	.LFE10-.Ltext0
 985 0198 0100      		.word	0x1
 986 019a 66        		.byte	0x66
 987 019b 0000 0000 		.long	0x0
 988 019f 0000 0000 		.long	0x0
 989               		.section	.debug_info
 990 0000 2D08 0000 		.long	0x82d
 991 0004 0200      		.word	0x2
 992 0006 0000 0000 		.long	.Ldebug_abbrev0
 993 000a 04        		.byte	0x4
 994 000b 01        		.uleb128 0x1
 995 000c 0000 0000 		.long	.LASF225
 996 0010 01        		.byte	0x1
 997 0011 0000 0000 		.long	.LASF226
 998 0015 0000 0000 		.long	.LASF227
 999 0019 0000 0000 		.long	.Ltext0
 1000 001d 0000 0000 		.long	.Letext0
 1001 0021 0000 0000 		.long	.Ldebug_line0
 1002 0025 02        		.uleb128 0x2
 1003 0026 01        		.byte	0x1
 1004 0027 08        		.byte	0x8
 1005 0028 0000 0000 		.long	.LASF0
 1006 002c 02        		.uleb128 0x2
 1007 002d 01        		.byte	0x1
 1008 002e 06        		.byte	0x6
 1009 002f 0000 0000 		.long	.LASF1
 1010 0033 02        		.uleb128 0x2
 1011 0034 02        		.byte	0x2
 1012 0035 07        		.byte	0x7
 1013 0036 0000 0000 		.long	.LASF2
 1014 003a 02        		.uleb128 0x2
 1015 003b 02        		.byte	0x2
 1016 003c 05        		.byte	0x5
 1017 003d 0000 0000 		.long	.LASF3
 1018 0041 02        		.uleb128 0x2
 1019 0042 04        		.byte	0x4
 1020 0043 07        		.byte	0x7
 1021 0044 0000 0000 		.long	.LASF4
 1022 0048 02        		.uleb128 0x2
 1023 0049 04        		.byte	0x4
 1024 004a 05        		.byte	0x5
 1025 004b 0000 0000 		.long	.LASF5
 1026 004f 02        		.uleb128 0x2
GAS LISTING C:\Users\ADMINI~1\AppData\Local\Temp/ccxu9E7s.s 			page 19


 1027 0050 08        		.byte	0x8
 1028 0051 07        		.byte	0x7
 1029 0052 0000 0000 		.long	.LASF6
 1030 0056 02        		.uleb128 0x2
 1031 0057 08        		.byte	0x8
 1032 0058 05        		.byte	0x5
 1033 0059 0000 0000 		.long	.LASF7
 1034 005d 02        		.uleb128 0x2
 1035 005e 02        		.byte	0x2
 1036 005f 07        		.byte	0x7
 1037 0060 0000 0000 		.long	.LASF8
 1038 0064 02        		.uleb128 0x2
 1039 0065 01        		.byte	0x1
 1040 0066 06        		.byte	0x6
 1041 0067 0000 0000 		.long	.LASF9
 1042 006b 03        		.uleb128 0x3
 1043 006c 02        		.byte	0x2
 1044 006d 05        		.byte	0x5
 1045 006e 696E 7400 		.string	"int"
 1046 0072 04        		.uleb128 0x4
 1047 0073 0000 0000 		.long	.LASF228
 1048 0077 03        		.byte	0x3
 1049 0078 7A        		.byte	0x7a
 1050 0079 2500 0000 		.long	0x25
 1051 007d 05        		.uleb128 0x5
 1052 007e 01        		.byte	0x1
 1053 007f 06        		.byte	0x6
 1054 0080 05        		.uleb128 0x5
 1055 0081 01        		.byte	0x1
 1056 0082 08        		.byte	0x8
 1057 0083 06        		.uleb128 0x6
 1058 0084 02        		.byte	0x2
 1059 0085 02        		.byte	0x2
 1060 0086 1A        		.byte	0x1a
 1061 0087 0A01 0000 		.long	0x10a
 1062 008b 07        		.uleb128 0x7
 1063 008c 0000 0000 		.long	.LASF10
 1064 0090 D501      		.sleb128 213
 1065 0092 07        		.uleb128 0x7
 1066 0093 0000 0000 		.long	.LASF11
 1067 0097 D601      		.sleb128 214
 1068 0099 07        		.uleb128 0x7
 1069 009a 0000 0000 		.long	.LASF12
 1070 009e D701      		.sleb128 215
 1071 00a0 07        		.uleb128 0x7
 1072 00a1 0000 0000 		.long	.LASF13
 1073 00a5 D801      		.sleb128 216
 1074 00a7 07        		.uleb128 0x7
 1075 00a8 0000 0000 		.long	.LASF14
 1076 00ac D901      		.sleb128 217
 1077 00ae 07        		.uleb128 0x7
 1078 00af 0000 0000 		.long	.LASF15
 1079 00b3 DA01      		.sleb128 218
 1080 00b5 07        		.uleb128 0x7
 1081 00b6 0000 0000 		.long	.LASF16
 1082 00ba DB01      		.sleb128 219
 1083 00bc 07        		.uleb128 0x7
GAS LISTING C:\Users\ADMINI~1\AppData\Local\Temp/ccxu9E7s.s 			page 20


 1084 00bd 0000 0000 		.long	.LASF17
 1085 00c1 DC01      		.sleb128 220
 1086 00c3 07        		.uleb128 0x7
 1087 00c4 0000 0000 		.long	.LASF18
 1088 00c8 DD01      		.sleb128 221
 1089 00ca 07        		.uleb128 0x7
 1090 00cb 0000 0000 		.long	.LASF19
 1091 00cf DE01      		.sleb128 222
 1092 00d1 07        		.uleb128 0x7
 1093 00d2 0000 0000 		.long	.LASF20
 1094 00d6 DF01      		.sleb128 223
 1095 00d8 07        		.uleb128 0x7
 1096 00d9 0000 0000 		.long	.LASF21
 1097 00dd E001      		.sleb128 224
 1098 00df 07        		.uleb128 0x7
 1099 00e0 0000 0000 		.long	.LASF22
 1100 00e4 E101      		.sleb128 225
 1101 00e6 07        		.uleb128 0x7
 1102 00e7 0000 0000 		.long	.LASF23
 1103 00eb E201      		.sleb128 226
 1104 00ed 07        		.uleb128 0x7
 1105 00ee 0000 0000 		.long	.LASF24
 1106 00f2 E301      		.sleb128 227
 1107 00f4 07        		.uleb128 0x7
 1108 00f5 0000 0000 		.long	.LASF25
 1109 00f9 E401      		.sleb128 228
 1110 00fb 07        		.uleb128 0x7
 1111 00fc 0000 0000 		.long	.LASF26
 1112 0100 E501      		.sleb128 229
 1113 0102 07        		.uleb128 0x7
 1114 0103 0000 0000 		.long	.LASF27
 1115 0107 E601      		.sleb128 230
 1116 0109 00        		.byte	0x0
 1117 010a 06        		.uleb128 0x6
 1118 010b 02        		.byte	0x2
 1119 010c 02        		.byte	0x2
 1120 010d 40        		.byte	0x40
 1121 010e A305 0000 		.long	0x5a3
 1122 0112 07        		.uleb128 0x7
 1123 0113 0000 0000 		.long	.LASF28
 1124 0117 00        		.sleb128 0
 1125 0118 07        		.uleb128 0x7
 1126 0119 0000 0000 		.long	.LASF29
 1127 011d 01        		.sleb128 1
 1128 011e 07        		.uleb128 0x7
 1129 011f 0000 0000 		.long	.LASF30
 1130 0123 02        		.sleb128 2
 1131 0124 07        		.uleb128 0x7
 1132 0125 0000 0000 		.long	.LASF31
 1133 0129 03        		.sleb128 3
 1134 012a 07        		.uleb128 0x7
 1135 012b 0000 0000 		.long	.LASF32
 1136 012f 04        		.sleb128 4
 1137 0130 07        		.uleb128 0x7
 1138 0131 0000 0000 		.long	.LASF33
 1139 0135 05        		.sleb128 5
 1140 0136 07        		.uleb128 0x7
GAS LISTING C:\Users\ADMINI~1\AppData\Local\Temp/ccxu9E7s.s 			page 21


 1141 0137 0000 0000 		.long	.LASF34
 1142 013b 06        		.sleb128 6
 1143 013c 07        		.uleb128 0x7
 1144 013d 0000 0000 		.long	.LASF35
 1145 0141 07        		.sleb128 7
 1146 0142 07        		.uleb128 0x7
 1147 0143 0000 0000 		.long	.LASF36
 1148 0147 08        		.sleb128 8
 1149 0148 07        		.uleb128 0x7
 1150 0149 0000 0000 		.long	.LASF37
 1151 014d 09        		.sleb128 9
 1152 014e 07        		.uleb128 0x7
 1153 014f 0000 0000 		.long	.LASF38
 1154 0153 0A        		.sleb128 10
 1155 0154 07        		.uleb128 0x7
 1156 0155 0000 0000 		.long	.LASF39
 1157 0159 0B        		.sleb128 11
 1158 015a 07        		.uleb128 0x7
 1159 015b 0000 0000 		.long	.LASF40
 1160 015f 0C        		.sleb128 12
 1161 0160 07        		.uleb128 0x7
 1162 0161 0000 0000 		.long	.LASF41
 1163 0165 0D        		.sleb128 13
 1164 0166 07        		.uleb128 0x7
 1165 0167 0000 0000 		.long	.LASF42
 1166 016b 0E        		.sleb128 14
 1167 016c 07        		.uleb128 0x7
 1168 016d 0000 0000 		.long	.LASF43
 1169 0171 0F        		.sleb128 15
 1170 0172 07        		.uleb128 0x7
 1171 0173 0000 0000 		.long	.LASF44
 1172 0177 10        		.sleb128 16
 1173 0178 07        		.uleb128 0x7
 1174 0179 0000 0000 		.long	.LASF45
 1175 017d 11        		.sleb128 17
 1176 017e 07        		.uleb128 0x7
 1177 017f 0000 0000 		.long	.LASF46
 1178 0183 12        		.sleb128 18
 1179 0184 07        		.uleb128 0x7
 1180 0185 0000 0000 		.long	.LASF47
 1181 0189 13        		.sleb128 19
 1182 018a 07        		.uleb128 0x7
 1183 018b 0000 0000 		.long	.LASF48
 1184 018f 14        		.sleb128 20
 1185 0190 07        		.uleb128 0x7
 1186 0191 0000 0000 		.long	.LASF49
 1187 0195 15        		.sleb128 21
 1188 0196 07        		.uleb128 0x7
 1189 0197 0000 0000 		.long	.LASF50
 1190 019b 16        		.sleb128 22
 1191 019c 07        		.uleb128 0x7
 1192 019d 0000 0000 		.long	.LASF51
 1193 01a1 17        		.sleb128 23
 1194 01a2 07        		.uleb128 0x7
 1195 01a3 0000 0000 		.long	.LASF52
 1196 01a7 18        		.sleb128 24
 1197 01a8 07        		.uleb128 0x7
GAS LISTING C:\Users\ADMINI~1\AppData\Local\Temp/ccxu9E7s.s 			page 22


 1198 01a9 0000 0000 		.long	.LASF53
 1199 01ad 19        		.sleb128 25
 1200 01ae 07        		.uleb128 0x7
 1201 01af 0000 0000 		.long	.LASF54
 1202 01b3 1A        		.sleb128 26
 1203 01b4 07        		.uleb128 0x7
 1204 01b5 0000 0000 		.long	.LASF55
 1205 01b9 1B        		.sleb128 27
 1206 01ba 07        		.uleb128 0x7
 1207 01bb 0000 0000 		.long	.LASF56
 1208 01bf 1C        		.sleb128 28
 1209 01c0 07        		.uleb128 0x7
 1210 01c1 0000 0000 		.long	.LASF57
 1211 01c5 1D        		.sleb128 29
 1212 01c6 07        		.uleb128 0x7
 1213 01c7 0000 0000 		.long	.LASF58
 1214 01cb 1E        		.sleb128 30
 1215 01cc 07        		.uleb128 0x7
 1216 01cd 0000 0000 		.long	.LASF59
 1217 01d1 1F        		.sleb128 31
 1218 01d2 07        		.uleb128 0x7
 1219 01d3 0000 0000 		.long	.LASF60
 1220 01d7 20        		.sleb128 32
 1221 01d8 07        		.uleb128 0x7
 1222 01d9 0000 0000 		.long	.LASF61
 1223 01dd 21        		.sleb128 33
 1224 01de 07        		.uleb128 0x7
 1225 01df 0000 0000 		.long	.LASF62
 1226 01e3 22        		.sleb128 34
 1227 01e4 07        		.uleb128 0x7
 1228 01e5 0000 0000 		.long	.LASF63
 1229 01e9 23        		.sleb128 35
 1230 01ea 07        		.uleb128 0x7
 1231 01eb 0000 0000 		.long	.LASF64
 1232 01ef 24        		.sleb128 36
 1233 01f0 07        		.uleb128 0x7
 1234 01f1 0000 0000 		.long	.LASF65
 1235 01f5 25        		.sleb128 37
 1236 01f6 07        		.uleb128 0x7
 1237 01f7 0000 0000 		.long	.LASF66
 1238 01fb 26        		.sleb128 38
 1239 01fc 07        		.uleb128 0x7
 1240 01fd 0000 0000 		.long	.LASF67
 1241 0201 27        		.sleb128 39
 1242 0202 07        		.uleb128 0x7
 1243 0203 0000 0000 		.long	.LASF68
 1244 0207 28        		.sleb128 40
 1245 0208 07        		.uleb128 0x7
 1246 0209 0000 0000 		.long	.LASF69
 1247 020d 29        		.sleb128 41
 1248 020e 07        		.uleb128 0x7
 1249 020f 0000 0000 		.long	.LASF70
 1250 0213 2A        		.sleb128 42
 1251 0214 07        		.uleb128 0x7
 1252 0215 0000 0000 		.long	.LASF71
 1253 0219 2B        		.sleb128 43
 1254 021a 07        		.uleb128 0x7
GAS LISTING C:\Users\ADMINI~1\AppData\Local\Temp/ccxu9E7s.s 			page 23


 1255 021b 0000 0000 		.long	.LASF72
 1256 021f 2C        		.sleb128 44
 1257 0220 07        		.uleb128 0x7
 1258 0221 0000 0000 		.long	.LASF73
 1259 0225 2D        		.sleb128 45
 1260 0226 07        		.uleb128 0x7
 1261 0227 0000 0000 		.long	.LASF74
 1262 022b 2E        		.sleb128 46
 1263 022c 07        		.uleb128 0x7
 1264 022d 0000 0000 		.long	.LASF75
 1265 0231 2F        		.sleb128 47
 1266 0232 07        		.uleb128 0x7
 1267 0233 0000 0000 		.long	.LASF76
 1268 0237 30        		.sleb128 48
 1269 0238 07        		.uleb128 0x7
 1270 0239 0000 0000 		.long	.LASF77
 1271 023d 31        		.sleb128 49
 1272 023e 07        		.uleb128 0x7
 1273 023f 0000 0000 		.long	.LASF78
 1274 0243 32        		.sleb128 50
 1275 0244 07        		.uleb128 0x7
 1276 0245 0000 0000 		.long	.LASF79
 1277 0249 33        		.sleb128 51
 1278 024a 07        		.uleb128 0x7
 1279 024b 0000 0000 		.long	.LASF80
 1280 024f 34        		.sleb128 52
 1281 0250 07        		.uleb128 0x7
 1282 0251 0000 0000 		.long	.LASF81
 1283 0255 35        		.sleb128 53
 1284 0256 07        		.uleb128 0x7
 1285 0257 0000 0000 		.long	.LASF82
 1286 025b 36        		.sleb128 54
 1287 025c 07        		.uleb128 0x7
 1288 025d 0000 0000 		.long	.LASF83
 1289 0261 37        		.sleb128 55
 1290 0262 07        		.uleb128 0x7
 1291 0263 0000 0000 		.long	.LASF84
 1292 0267 38        		.sleb128 56
 1293 0268 07        		.uleb128 0x7
 1294 0269 0000 0000 		.long	.LASF85
 1295 026d 39        		.sleb128 57
 1296 026e 07        		.uleb128 0x7
 1297 026f 0000 0000 		.long	.LASF86
 1298 0273 3A        		.sleb128 58
 1299 0274 07        		.uleb128 0x7
 1300 0275 0000 0000 		.long	.LASF87
 1301 0279 3B        		.sleb128 59
 1302 027a 07        		.uleb128 0x7
 1303 027b 0000 0000 		.long	.LASF88
 1304 027f 3C        		.sleb128 60
 1305 0280 07        		.uleb128 0x7
 1306 0281 0000 0000 		.long	.LASF89
 1307 0285 3D        		.sleb128 61
 1308 0286 07        		.uleb128 0x7
 1309 0287 0000 0000 		.long	.LASF90
 1310 028b 3E        		.sleb128 62
 1311 028c 07        		.uleb128 0x7
GAS LISTING C:\Users\ADMINI~1\AppData\Local\Temp/ccxu9E7s.s 			page 24


 1312 028d 0000 0000 		.long	.LASF91
 1313 0291 3F        		.sleb128 63
 1314 0292 07        		.uleb128 0x7
 1315 0293 0000 0000 		.long	.LASF92
 1316 0297 C000      		.sleb128 64
 1317 0299 07        		.uleb128 0x7
 1318 029a 0000 0000 		.long	.LASF93
 1319 029e C100      		.sleb128 65
 1320 02a0 07        		.uleb128 0x7
 1321 02a1 0000 0000 		.long	.LASF94
 1322 02a5 C200      		.sleb128 66
 1323 02a7 07        		.uleb128 0x7
 1324 02a8 0000 0000 		.long	.LASF95
 1325 02ac C300      		.sleb128 67
 1326 02ae 07        		.uleb128 0x7
 1327 02af 0000 0000 		.long	.LASF96
 1328 02b3 C400      		.sleb128 68
 1329 02b5 07        		.uleb128 0x7
 1330 02b6 0000 0000 		.long	.LASF97
 1331 02ba C500      		.sleb128 69
 1332 02bc 07        		.uleb128 0x7
 1333 02bd 0000 0000 		.long	.LASF98
 1334 02c1 C600      		.sleb128 70
 1335 02c3 07        		.uleb128 0x7
 1336 02c4 0000 0000 		.long	.LASF99
 1337 02c8 C700      		.sleb128 71
 1338 02ca 07        		.uleb128 0x7
 1339 02cb 0000 0000 		.long	.LASF100
 1340 02cf C800      		.sleb128 72
 1341 02d1 07        		.uleb128 0x7
 1342 02d2 0000 0000 		.long	.LASF101
 1343 02d6 C900      		.sleb128 73
 1344 02d8 07        		.uleb128 0x7
 1345 02d9 0000 0000 		.long	.LASF102
 1346 02dd CA00      		.sleb128 74
 1347 02df 07        		.uleb128 0x7
 1348 02e0 0000 0000 		.long	.LASF103
 1349 02e4 CB00      		.sleb128 75
 1350 02e6 07        		.uleb128 0x7
 1351 02e7 0000 0000 		.long	.LASF104
 1352 02eb CC00      		.sleb128 76
 1353 02ed 07        		.uleb128 0x7
 1354 02ee 0000 0000 		.long	.LASF105
 1355 02f2 CD00      		.sleb128 77
 1356 02f4 07        		.uleb128 0x7
 1357 02f5 0000 0000 		.long	.LASF106
 1358 02f9 CE00      		.sleb128 78
 1359 02fb 07        		.uleb128 0x7
 1360 02fc 0000 0000 		.long	.LASF107
 1361 0300 CF00      		.sleb128 79
 1362 0302 07        		.uleb128 0x7
 1363 0303 0000 0000 		.long	.LASF108
 1364 0307 D000      		.sleb128 80
 1365 0309 07        		.uleb128 0x7
 1366 030a 0000 0000 		.long	.LASF109
 1367 030e D100      		.sleb128 81
 1368 0310 07        		.uleb128 0x7
GAS LISTING C:\Users\ADMINI~1\AppData\Local\Temp/ccxu9E7s.s 			page 25


 1369 0311 0000 0000 		.long	.LASF110
 1370 0315 D200      		.sleb128 82
 1371 0317 07        		.uleb128 0x7
 1372 0318 0000 0000 		.long	.LASF111
 1373 031c D300      		.sleb128 83
 1374 031e 07        		.uleb128 0x7
 1375 031f 0000 0000 		.long	.LASF112
 1376 0323 D400      		.sleb128 84
 1377 0325 07        		.uleb128 0x7
 1378 0326 0000 0000 		.long	.LASF113
 1379 032a D500      		.sleb128 85
 1380 032c 07        		.uleb128 0x7
 1381 032d 0000 0000 		.long	.LASF114
 1382 0331 D600      		.sleb128 86
 1383 0333 07        		.uleb128 0x7
 1384 0334 0000 0000 		.long	.LASF115
 1385 0338 D700      		.sleb128 87
 1386 033a 07        		.uleb128 0x7
 1387 033b 0000 0000 		.long	.LASF116
 1388 033f D800      		.sleb128 88
 1389 0341 07        		.uleb128 0x7
 1390 0342 0000 0000 		.long	.LASF117
 1391 0346 D900      		.sleb128 89
 1392 0348 07        		.uleb128 0x7
 1393 0349 0000 0000 		.long	.LASF118
 1394 034d DA00      		.sleb128 90
 1395 034f 07        		.uleb128 0x7
 1396 0350 0000 0000 		.long	.LASF119
 1397 0354 DB00      		.sleb128 91
 1398 0356 07        		.uleb128 0x7
 1399 0357 0000 0000 		.long	.LASF120
 1400 035b DC00      		.sleb128 92
 1401 035d 07        		.uleb128 0x7
 1402 035e 0000 0000 		.long	.LASF121
 1403 0362 DD00      		.sleb128 93
 1404 0364 07        		.uleb128 0x7
 1405 0365 0000 0000 		.long	.LASF122
 1406 0369 DE00      		.sleb128 94
 1407 036b 07        		.uleb128 0x7
 1408 036c 0000 0000 		.long	.LASF123
 1409 0370 DF00      		.sleb128 95
 1410 0372 07        		.uleb128 0x7
 1411 0373 0000 0000 		.long	.LASF124
 1412 0377 E000      		.sleb128 96
 1413 0379 07        		.uleb128 0x7
 1414 037a 0000 0000 		.long	.LASF125
 1415 037e E100      		.sleb128 97
 1416 0380 07        		.uleb128 0x7
 1417 0381 0000 0000 		.long	.LASF126
 1418 0385 E200      		.sleb128 98
 1419 0387 07        		.uleb128 0x7
 1420 0388 0000 0000 		.long	.LASF127
 1421 038c E300      		.sleb128 99
 1422 038e 07        		.uleb128 0x7
 1423 038f 0000 0000 		.long	.LASF128
 1424 0393 E400      		.sleb128 100
 1425 0395 07        		.uleb128 0x7
GAS LISTING C:\Users\ADMINI~1\AppData\Local\Temp/ccxu9E7s.s 			page 26


 1426 0396 0000 0000 		.long	.LASF129
 1427 039a E500      		.sleb128 101
 1428 039c 07        		.uleb128 0x7
 1429 039d 0000 0000 		.long	.LASF130
 1430 03a1 E600      		.sleb128 102
 1431 03a3 07        		.uleb128 0x7
 1432 03a4 0000 0000 		.long	.LASF131
 1433 03a8 E700      		.sleb128 103
 1434 03aa 07        		.uleb128 0x7
 1435 03ab 0000 0000 		.long	.LASF132
 1436 03af E800      		.sleb128 104
 1437 03b1 07        		.uleb128 0x7
 1438 03b2 0000 0000 		.long	.LASF133
 1439 03b6 E900      		.sleb128 105
 1440 03b8 07        		.uleb128 0x7
 1441 03b9 0000 0000 		.long	.LASF134
 1442 03bd EA00      		.sleb128 106
 1443 03bf 07        		.uleb128 0x7
 1444 03c0 0000 0000 		.long	.LASF135
 1445 03c4 EB00      		.sleb128 107
 1446 03c6 07        		.uleb128 0x7
 1447 03c7 0000 0000 		.long	.LASF136
 1448 03cb EC00      		.sleb128 108
 1449 03cd 07        		.uleb128 0x7
 1450 03ce 0000 0000 		.long	.LASF137
 1451 03d2 ED00      		.sleb128 109
 1452 03d4 07        		.uleb128 0x7
 1453 03d5 0000 0000 		.long	.LASF138
 1454 03d9 EE00      		.sleb128 110
 1455 03db 07        		.uleb128 0x7
 1456 03dc 0000 0000 		.long	.LASF139
 1457 03e0 EF00      		.sleb128 111
 1458 03e2 07        		.uleb128 0x7
 1459 03e3 0000 0000 		.long	.LASF140
 1460 03e7 F000      		.sleb128 112
 1461 03e9 07        		.uleb128 0x7
 1462 03ea 0000 0000 		.long	.LASF141
 1463 03ee F100      		.sleb128 113
 1464 03f0 07        		.uleb128 0x7
 1465 03f1 0000 0000 		.long	.LASF142
 1466 03f5 F200      		.sleb128 114
 1467 03f7 07        		.uleb128 0x7
 1468 03f8 0000 0000 		.long	.LASF143
 1469 03fc F300      		.sleb128 115
 1470 03fe 07        		.uleb128 0x7
 1471 03ff 0000 0000 		.long	.LASF144
 1472 0403 F400      		.sleb128 116
 1473 0405 07        		.uleb128 0x7
 1474 0406 0000 0000 		.long	.LASF145
 1475 040a F500      		.sleb128 117
 1476 040c 07        		.uleb128 0x7
 1477 040d 0000 0000 		.long	.LASF146
 1478 0411 F600      		.sleb128 118
 1479 0413 07        		.uleb128 0x7
 1480 0414 0000 0000 		.long	.LASF147
 1481 0418 F700      		.sleb128 119
 1482 041a 07        		.uleb128 0x7
GAS LISTING C:\Users\ADMINI~1\AppData\Local\Temp/ccxu9E7s.s 			page 27


 1483 041b 0000 0000 		.long	.LASF148
 1484 041f F800      		.sleb128 120
 1485 0421 07        		.uleb128 0x7
 1486 0422 0000 0000 		.long	.LASF149
 1487 0426 F900      		.sleb128 121
 1488 0428 07        		.uleb128 0x7
 1489 0429 0000 0000 		.long	.LASF150
 1490 042d FA00      		.sleb128 122
 1491 042f 07        		.uleb128 0x7
 1492 0430 0000 0000 		.long	.LASF151
 1493 0434 FB00      		.sleb128 123
 1494 0436 07        		.uleb128 0x7
 1495 0437 0000 0000 		.long	.LASF152
 1496 043b FC00      		.sleb128 124
 1497 043d 07        		.uleb128 0x7
 1498 043e 0000 0000 		.long	.LASF153
 1499 0442 FD00      		.sleb128 125
 1500 0444 07        		.uleb128 0x7
 1501 0445 0000 0000 		.long	.LASF154
 1502 0449 FE00      		.sleb128 126
 1503 044b 07        		.uleb128 0x7
 1504 044c 0000 0000 		.long	.LASF155
 1505 0450 FF00      		.sleb128 127
 1506 0452 07        		.uleb128 0x7
 1507 0453 0000 0000 		.long	.LASF156
 1508 0457 8001      		.sleb128 128
 1509 0459 07        		.uleb128 0x7
 1510 045a 0000 0000 		.long	.LASF157
 1511 045e 8101      		.sleb128 129
 1512 0460 07        		.uleb128 0x7
 1513 0461 0000 0000 		.long	.LASF158
 1514 0465 8201      		.sleb128 130
 1515 0467 07        		.uleb128 0x7
 1516 0468 0000 0000 		.long	.LASF159
 1517 046c 8301      		.sleb128 131
 1518 046e 07        		.uleb128 0x7
 1519 046f 0000 0000 		.long	.LASF160
 1520 0473 8401      		.sleb128 132
 1521 0475 07        		.uleb128 0x7
 1522 0476 0000 0000 		.long	.LASF161
 1523 047a 8501      		.sleb128 133
 1524 047c 07        		.uleb128 0x7
 1525 047d 0000 0000 		.long	.LASF162
 1526 0481 8601      		.sleb128 134
 1527 0483 07        		.uleb128 0x7
 1528 0484 0000 0000 		.long	.LASF163
 1529 0488 8701      		.sleb128 135
 1530 048a 07        		.uleb128 0x7
 1531 048b 0000 0000 		.long	.LASF164
 1532 048f 8801      		.sleb128 136
 1533 0491 07        		.uleb128 0x7
 1534 0492 0000 0000 		.long	.LASF165
 1535 0496 8901      		.sleb128 137
 1536 0498 07        		.uleb128 0x7
 1537 0499 0000 0000 		.long	.LASF166
 1538 049d 8A01      		.sleb128 138
 1539 049f 07        		.uleb128 0x7
GAS LISTING C:\Users\ADMINI~1\AppData\Local\Temp/ccxu9E7s.s 			page 28


 1540 04a0 0000 0000 		.long	.LASF167
 1541 04a4 8B01      		.sleb128 139
 1542 04a6 07        		.uleb128 0x7
 1543 04a7 0000 0000 		.long	.LASF168
 1544 04ab 8C01      		.sleb128 140
 1545 04ad 07        		.uleb128 0x7
 1546 04ae 0000 0000 		.long	.LASF169
 1547 04b2 8D01      		.sleb128 141
 1548 04b4 07        		.uleb128 0x7
 1549 04b5 0000 0000 		.long	.LASF170
 1550 04b9 8E01      		.sleb128 142
 1551 04bb 07        		.uleb128 0x7
 1552 04bc 0000 0000 		.long	.LASF171
 1553 04c0 8F01      		.sleb128 143
 1554 04c2 07        		.uleb128 0x7
 1555 04c3 0000 0000 		.long	.LASF172
 1556 04c7 9001      		.sleb128 144
 1557 04c9 07        		.uleb128 0x7
 1558 04ca 0000 0000 		.long	.LASF173
 1559 04ce 9101      		.sleb128 145
 1560 04d0 07        		.uleb128 0x7
 1561 04d1 0000 0000 		.long	.LASF174
 1562 04d5 9201      		.sleb128 146
 1563 04d7 07        		.uleb128 0x7
 1564 04d8 0000 0000 		.long	.LASF175
 1565 04dc 9301      		.sleb128 147
 1566 04de 07        		.uleb128 0x7
 1567 04df 0000 0000 		.long	.LASF176
 1568 04e3 9401      		.sleb128 148
 1569 04e5 07        		.uleb128 0x7
 1570 04e6 0000 0000 		.long	.LASF177
 1571 04ea 9501      		.sleb128 149
 1572 04ec 07        		.uleb128 0x7
 1573 04ed 0000 0000 		.long	.LASF178
 1574 04f1 9601      		.sleb128 150
 1575 04f3 07        		.uleb128 0x7
 1576 04f4 0000 0000 		.long	.LASF179
 1577 04f8 9701      		.sleb128 151
 1578 04fa 07        		.uleb128 0x7
 1579 04fb 0000 0000 		.long	.LASF180
 1580 04ff 9801      		.sleb128 152
 1581 0501 07        		.uleb128 0x7
 1582 0502 0000 0000 		.long	.LASF181
 1583 0506 9901      		.sleb128 153
 1584 0508 07        		.uleb128 0x7
 1585 0509 0000 0000 		.long	.LASF182
 1586 050d 9A01      		.sleb128 154
 1587 050f 07        		.uleb128 0x7
 1588 0510 0000 0000 		.long	.LASF183
 1589 0514 9B01      		.sleb128 155
 1590 0516 07        		.uleb128 0x7
 1591 0517 0000 0000 		.long	.LASF184
 1592 051b 9C01      		.sleb128 156
 1593 051d 07        		.uleb128 0x7
 1594 051e 0000 0000 		.long	.LASF185
 1595 0522 9D01      		.sleb128 157
 1596 0524 07        		.uleb128 0x7
GAS LISTING C:\Users\ADMINI~1\AppData\Local\Temp/ccxu9E7s.s 			page 29


 1597 0525 0000 0000 		.long	.LASF186
 1598 0529 9E01      		.sleb128 158
 1599 052b 07        		.uleb128 0x7
 1600 052c 0000 0000 		.long	.LASF187
 1601 0530 9F01      		.sleb128 159
 1602 0532 07        		.uleb128 0x7
 1603 0533 0000 0000 		.long	.LASF188
 1604 0537 A001      		.sleb128 160
 1605 0539 07        		.uleb128 0x7
 1606 053a 0000 0000 		.long	.LASF189
 1607 053e A101      		.sleb128 161
 1608 0540 07        		.uleb128 0x7
 1609 0541 0000 0000 		.long	.LASF190
 1610 0545 A201      		.sleb128 162
 1611 0547 07        		.uleb128 0x7
 1612 0548 0000 0000 		.long	.LASF191
 1613 054c A301      		.sleb128 163
 1614 054e 07        		.uleb128 0x7
 1615 054f 0000 0000 		.long	.LASF192
 1616 0553 A401      		.sleb128 164
 1617 0555 07        		.uleb128 0x7
 1618 0556 0000 0000 		.long	.LASF193
 1619 055a A501      		.sleb128 165
 1620 055c 07        		.uleb128 0x7
 1621 055d 0000 0000 		.long	.LASF194
 1622 0561 A601      		.sleb128 166
 1623 0563 07        		.uleb128 0x7
 1624 0564 0000 0000 		.long	.LASF195
 1625 0568 A701      		.sleb128 167
 1626 056a 07        		.uleb128 0x7
 1627 056b 0000 0000 		.long	.LASF196
 1628 056f A801      		.sleb128 168
 1629 0571 07        		.uleb128 0x7
 1630 0572 0000 0000 		.long	.LASF197
 1631 0576 A901      		.sleb128 169
 1632 0578 07        		.uleb128 0x7
 1633 0579 0000 0000 		.long	.LASF198
 1634 057d AA01      		.sleb128 170
 1635 057f 07        		.uleb128 0x7
 1636 0580 0000 0000 		.long	.LASF199
 1637 0584 AB01      		.sleb128 171
 1638 0586 07        		.uleb128 0x7
 1639 0587 0000 0000 		.long	.LASF200
 1640 058b AC01      		.sleb128 172
 1641 058d 07        		.uleb128 0x7
 1642 058e 0000 0000 		.long	.LASF201
 1643 0592 AD01      		.sleb128 173
 1644 0594 07        		.uleb128 0x7
 1645 0595 0000 0000 		.long	.LASF202
 1646 0599 AE01      		.sleb128 174
 1647 059b 07        		.uleb128 0x7
 1648 059c 0000 0000 		.long	.LASF203
 1649 05a0 AF01      		.sleb128 175
 1650 05a2 00        		.byte	0x0
 1651 05a3 08        		.uleb128 0x8
 1652 05a4 01        		.byte	0x1
 1653 05a5 0000 0000 		.long	.LASF229
GAS LISTING C:\Users\ADMINI~1\AppData\Local\Temp/ccxu9E7s.s 			page 30


 1654 05a9 01        		.byte	0x1
 1655 05aa 3A        		.byte	0x3a
 1656 05ab 01        		.byte	0x1
 1657 05ac 0000 0000 		.long	.LFB8
 1658 05b0 0000 0000 		.long	.LFE8
 1659 05b4 02        		.byte	0x2
 1660 05b5 90        		.byte	0x90
 1661 05b6 20        		.uleb128 0x20
 1662 05b7 C705 0000 		.long	0x5c7
 1663 05bb 09        		.uleb128 0x9
 1664 05bc 726F 7700 		.string	"row"
 1665 05c0 01        		.byte	0x1
 1666 05c1 3B        		.byte	0x3b
 1667 05c2 7200 0000 		.long	0x72
 1668 05c6 00        		.byte	0x0
 1669 05c7 0A        		.uleb128 0xa
 1670 05c8 01        		.byte	0x1
 1671 05c9 0000 0000 		.long	.LASF204
 1672 05cd 01        		.byte	0x1
 1673 05ce 45        		.byte	0x45
 1674 05cf 01        		.byte	0x1
 1675 05d0 7200 0000 		.long	0x72
 1676 05d4 0000 0000 		.long	.LFB9
 1677 05d8 0000 0000 		.long	.LFE9
 1678 05dc 02        		.byte	0x2
 1679 05dd 90        		.byte	0x90
 1680 05de 20        		.uleb128 0x20
 1681 05df FA05 0000 		.long	0x5fa
 1682 05e3 09        		.uleb128 0x9
 1683 05e4 6375 7200 		.string	"cur"
 1684 05e8 01        		.byte	0x1
 1685 05e9 46        		.byte	0x46
 1686 05ea 7200 0000 		.long	0x72
 1687 05ee 09        		.uleb128 0x9
 1688 05ef 726F 7700 		.string	"row"
 1689 05f3 01        		.byte	0x1
 1690 05f4 46        		.byte	0x46
 1691 05f5 7200 0000 		.long	0x72
 1692 05f9 00        		.byte	0x0
 1693 05fa 0B        		.uleb128 0xb
 1694 05fb 01        		.byte	0x1
 1695 05fc 0000 0000 		.long	.LASF230
 1696 0600 01        		.byte	0x1
 1697 0601 2D01      		.word	0x12d
 1698 0603 01        		.byte	0x1
 1699 0604 1306 0000 		.long	0x613
 1700 0608 0000 0000 		.long	.LFB13
 1701 060c 0000 0000 		.long	.LFE13
 1702 0610 02        		.byte	0x2
 1703 0611 90        		.byte	0x90
 1704 0612 20        		.uleb128 0x20
 1705 0613 0C        		.uleb128 0xc
 1706 0614 02        		.byte	0x2
 1707 0615 7200 0000 		.long	0x72
 1708 0619 0A        		.uleb128 0xa
 1709 061a 01        		.byte	0x1
 1710 061b 0000 0000 		.long	.LASF205
GAS LISTING C:\Users\ADMINI~1\AppData\Local\Temp/ccxu9E7s.s 			page 31


 1711 061f 01        		.byte	0x1
 1712 0620 DA        		.byte	0xda
 1713 0621 01        		.byte	0x1
 1714 0622 7200 0000 		.long	0x72
 1715 0626 0000 0000 		.long	.LFB12
 1716 062a 0000 0000 		.long	.LFE12
 1717 062e 02        		.byte	0x2
 1718 062f 90        		.byte	0x90
 1719 0630 20        		.uleb128 0x20
 1720 0631 7906 0000 		.long	0x679
 1721 0635 09        		.uleb128 0x9
 1722 0636 636F 6C00 		.string	"col"
 1723 063a 01        		.byte	0x1
 1724 063b DB        		.byte	0xdb
 1725 063c 7200 0000 		.long	0x72
 1726 0640 0D        		.uleb128 0xd
 1727 0641 726F 7700 		.string	"row"
 1728 0645 01        		.byte	0x1
 1729 0646 DB        		.byte	0xdb
 1730 0647 7200 0000 		.long	0x72
 1731 064b 0000 0000 		.long	.LLST4
 1732 064f 0E        		.uleb128 0xe
 1733 0650 0000 0000 		.long	.LASF206
 1734 0654 01        		.byte	0x1
 1735 0655 DC        		.byte	0xdc
 1736 0656 7200 0000 		.long	0x72
 1737 065a 0D        		.uleb128 0xd
 1738 065b 6375 7200 		.string	"cur"
 1739 065f 01        		.byte	0x1
 1740 0660 DC        		.byte	0xdc
 1741 0661 7200 0000 		.long	0x72
 1742 0665 0000 0000 		.long	.LLST5
 1743 0669 0F        		.uleb128 0xf
 1744 066a 0000 0000 		.long	.LASF207
 1745 066e 01        		.byte	0x1
 1746 066f DE        		.byte	0xde
 1747 0670 7200 0000 		.long	0x72
 1748 0674 0000 0000 		.long	.LLST6
 1749 0678 00        		.byte	0x0
 1750 0679 10        		.uleb128 0x10
 1751 067a 01        		.byte	0x1
 1752 067b 0000 0000 		.long	.LASF208
 1753 067f 01        		.byte	0x1
 1754 0680 3801      		.word	0x138
 1755 0682 01        		.byte	0x1
 1756 0683 7200 0000 		.long	0x72
 1757 0687 0000 0000 		.long	.LFB14
 1758 068b 0000 0000 		.long	.LFE14
 1759 068f 02        		.byte	0x2
 1760 0690 90        		.byte	0x90
 1761 0691 20        		.uleb128 0x20
 1762 0692 A706 0000 		.long	0x6a7
 1763 0696 11        		.uleb128 0x11
 1764 0697 0000 0000 		.long	.LASF209
 1765 069b 01        		.byte	0x1
 1766 069c 3C01      		.word	0x13c
 1767 069e 7200 0000 		.long	0x72
GAS LISTING C:\Users\ADMINI~1\AppData\Local\Temp/ccxu9E7s.s 			page 32


 1768 06a2 0000 0000 		.long	.LLST8
 1769 06a6 00        		.byte	0x0
 1770 06a7 0A        		.uleb128 0xa
 1771 06a8 01        		.byte	0x1
 1772 06a9 0000 0000 		.long	.LASF210
 1773 06ad 01        		.byte	0x1
 1774 06ae 87        		.byte	0x87
 1775 06af 01        		.byte	0x1
 1776 06b0 7200 0000 		.long	0x72
 1777 06b4 0000 0000 		.long	.LFB11
 1778 06b8 0000 0000 		.long	.LFE11
 1779 06bc 02        		.byte	0x2
 1780 06bd 90        		.byte	0x90
 1781 06be 20        		.uleb128 0x20
 1782 06bf 1107 0000 		.long	0x711
 1783 06c3 0D        		.uleb128 0xd
 1784 06c4 636F 6C00 		.string	"col"
 1785 06c8 01        		.byte	0x1
 1786 06c9 88        		.byte	0x88
 1787 06ca 7200 0000 		.long	0x72
 1788 06ce 0000 0000 		.long	.LLST10
 1789 06d2 0D        		.uleb128 0xd
 1790 06d3 726F 7700 		.string	"row"
 1791 06d7 01        		.byte	0x1
 1792 06d8 88        		.byte	0x88
 1793 06d9 7200 0000 		.long	0x72
 1794 06dd 0000 0000 		.long	.LLST11
 1795 06e1 0F        		.uleb128 0xf
 1796 06e2 0000 0000 		.long	.LASF211
 1797 06e6 01        		.byte	0x1
 1798 06e7 88        		.byte	0x88
 1799 06e8 7200 0000 		.long	0x72
 1800 06ec 0000 0000 		.long	.LLST12
 1801 06f0 0D        		.uleb128 0xd
 1802 06f1 6375 7200 		.string	"cur"
 1803 06f5 01        		.byte	0x1
 1804 06f6 88        		.byte	0x88
 1805 06f7 7200 0000 		.long	0x72
 1806 06fb 0000 0000 		.long	.LLST13
 1807 06ff 12        		.uleb128 0x12
 1808 0700 0000 0000 		.long	.LASF212
 1809 0704 01        		.byte	0x1
 1810 0705 89        		.byte	0x89
 1811 0706 7200 0000 		.long	0x72
 1812 070a 05        		.byte	0x5
 1813 070b 03        		.byte	0x3
 1814 070c 0000 0000 		.long	isLazyLayer.2280
 1815 0710 00        		.byte	0x0
 1816 0711 0A        		.uleb128 0xa
 1817 0712 01        		.byte	0x1
 1818 0713 0000 0000 		.long	.LASF213
 1819 0717 01        		.byte	0x1
 1820 0718 52        		.byte	0x52
 1821 0719 01        		.byte	0x1
 1822 071a 7200 0000 		.long	0x72
 1823 071e 0000 0000 		.long	.LFB10
 1824 0722 0000 0000 		.long	.LFE10
GAS LISTING C:\Users\ADMINI~1\AppData\Local\Temp/ccxu9E7s.s 			page 33


 1825 0726 02        		.byte	0x2
 1826 0727 90        		.byte	0x90
 1827 0728 20        		.uleb128 0x20
 1828 0729 4C07 0000 		.long	0x74c
 1829 072d 13        		.uleb128 0x13
 1830 072e 0000 0000 		.long	.LASF211
 1831 0732 01        		.byte	0x1
 1832 0733 52        		.byte	0x52
 1833 0734 7200 0000 		.long	0x72
 1834 0738 0000 0000 		.long	.LLST15
 1835 073c 13        		.uleb128 0x13
 1836 073d 0000 0000 		.long	.LASF214
 1837 0741 01        		.byte	0x1
 1838 0742 52        		.byte	0x52
 1839 0743 7200 0000 		.long	0x72
 1840 0747 0000 0000 		.long	.LLST16
 1841 074b 00        		.byte	0x0
 1842 074c 12        		.uleb128 0x12
 1843 074d 0000 0000 		.long	.LASF215
 1844 0751 01        		.byte	0x1
 1845 0752 29        		.byte	0x29
 1846 0753 7200 0000 		.long	0x72
 1847 0757 05        		.byte	0x5
 1848 0758 03        		.byte	0x3
 1849 0759 0000 0000 		.long	_isExtraFNDown
 1850 075d 12        		.uleb128 0x12
 1851 075e 0000 0000 		.long	.LASF216
 1852 0762 01        		.byte	0x1
 1853 0763 2A        		.byte	0x2a
 1854 0764 7200 0000 		.long	0x72
 1855 0768 05        		.byte	0x5
 1856 0769 03        		.byte	0x3
 1857 076a 0000 0000 		.long	debounceMAX
 1858 076e 12        		.uleb128 0x12
 1859 076f 0000 0000 		.long	.LASF217
 1860 0773 01        		.byte	0x1
 1861 0774 2B        		.byte	0x2b
 1862 0775 7200 0000 		.long	0x72
 1863 0779 05        		.byte	0x5
 1864 077a 03        		.byte	0x3
 1865 077b 0000 0000 		.long	debounce
 1866 077f 12        		.uleb128 0x12
 1867 0780 0000 0000 		.long	.LASF218
 1868 0784 01        		.byte	0x1
 1869 0785 2C        		.byte	0x2c
 1870 0786 7200 0000 		.long	0x72
 1871 078a 05        		.byte	0x5
 1872 078b 03        		.byte	0x3
 1873 078c 0000 0000 		.long	_isAllKeyRelease
 1874 0790 14        		.uleb128 0x14
 1875 0791 7200 0000 		.long	0x72
 1876 0795 9B07 0000 		.long	0x79b
 1877 0799 15        		.uleb128 0x15
 1878 079a 00        		.byte	0x0
 1879 079b 16        		.uleb128 0x16
 1880 079c 0000 0000 		.long	.LASF219
 1881 07a0 02        		.byte	0x2
GAS LISTING C:\Users\ADMINI~1\AppData\Local\Temp/ccxu9E7s.s 			page 34


 1882 07a1 0A01      		.word	0x10a
 1883 07a3 A907 0000 		.long	0x7a9
 1884 07a7 01        		.byte	0x1
 1885 07a8 01        		.byte	0x1
 1886 07a9 17        		.uleb128 0x17
 1887 07aa 9007 0000 		.long	0x790
 1888 07ae 18        		.uleb128 0x18
 1889 07af 0000 0000 		.long	.LASF220
 1890 07b3 01        		.byte	0x1
 1891 07b4 1C        		.byte	0x1c
 1892 07b5 7200 0000 		.long	0x72
 1893 07b9 01        		.byte	0x1
 1894 07ba 05        		.byte	0x5
 1895 07bb 03        		.byte	0x3
 1896 07bc 0000 0000 		.long	isBeyondFN
 1897 07c0 14        		.uleb128 0x14
 1898 07c1 3300 0000 		.long	0x33
 1899 07c5 D007 0000 		.long	0x7d0
 1900 07c9 19        		.uleb128 0x19
 1901 07ca D007 0000 		.long	0x7d0
 1902 07ce 0F        		.byte	0xf
 1903 07cf 00        		.byte	0x0
 1904 07d0 05        		.uleb128 0x5
 1905 07d1 02        		.byte	0x2
 1906 07d2 07        		.byte	0x7
 1907 07d3 18        		.uleb128 0x18
 1908 07d4 0000 0000 		.long	.LASF221
 1909 07d8 01        		.byte	0x1
 1910 07d9 32        		.byte	0x32
 1911 07da E507 0000 		.long	0x7e5
 1912 07de 01        		.byte	0x1
 1913 07df 05        		.byte	0x5
 1914 07e0 03        		.byte	0x3
 1915 07e1 0000 0000 		.long	modmask
 1916 07e5 17        		.uleb128 0x17
 1917 07e6 C007 0000 		.long	0x7c0
 1918 07ea 14        		.uleb128 0x14
 1919 07eb 7200 0000 		.long	0x72
 1920 07ef FA07 0000 		.long	0x7fa
 1921 07f3 19        		.uleb128 0x19
 1922 07f4 D007 0000 		.long	0x7d0
 1923 07f8 10        		.byte	0x10
 1924 07f9 00        		.byte	0x0
 1925 07fa 18        		.uleb128 0x18
 1926 07fb 0000 0000 		.long	.LASF222
 1927 07ff 01        		.byte	0x1
 1928 0800 1E        		.byte	0x1e
 1929 0801 EA07 0000 		.long	0x7ea
 1930 0805 01        		.byte	0x1
 1931 0806 05        		.byte	0x5
 1932 0807 03        		.byte	0x3
 1933 0808 0000 0000 		.long	prevMatrix
 1934 080c 18        		.uleb128 0x18
 1935 080d 0000 0000 		.long	.LASF223
 1936 0811 01        		.byte	0x1
 1937 0812 1F        		.byte	0x1f
 1938 0813 EA07 0000 		.long	0x7ea
GAS LISTING C:\Users\ADMINI~1\AppData\Local\Temp/ccxu9E7s.s 			page 35


 1939 0817 01        		.byte	0x1
 1940 0818 05        		.byte	0x5
 1941 0819 03        		.byte	0x3
 1942 081a 0000 0000 		.long	currentMatrix
 1943 081e 18        		.uleb128 0x18
 1944 081f 0000 0000 		.long	.LASF224
 1945 0823 01        		.byte	0x1
 1946 0824 25        		.byte	0x25
 1947 0825 7200 0000 		.long	0x72
 1948 0829 01        		.byte	0x1
 1949 082a 05        		.byte	0x5
 1950 082b 03        		.byte	0x3
 1951 082c 0000 0000 		.long	_currentLayer
 1952 0830 00        		.byte	0x0
 1953               		.section	.debug_abbrev
 1954 0000 01        		.uleb128 0x1
 1955 0001 11        		.uleb128 0x11
 1956 0002 01        		.byte	0x1
 1957 0003 25        		.uleb128 0x25
 1958 0004 0E        		.uleb128 0xe
 1959 0005 13        		.uleb128 0x13
 1960 0006 0B        		.uleb128 0xb
 1961 0007 03        		.uleb128 0x3
 1962 0008 0E        		.uleb128 0xe
 1963 0009 1B        		.uleb128 0x1b
 1964 000a 0E        		.uleb128 0xe
 1965 000b 11        		.uleb128 0x11
 1966 000c 01        		.uleb128 0x1
 1967 000d 12        		.uleb128 0x12
 1968 000e 01        		.uleb128 0x1
 1969 000f 10        		.uleb128 0x10
 1970 0010 06        		.uleb128 0x6
 1971 0011 00        		.byte	0x0
 1972 0012 00        		.byte	0x0
 1973 0013 02        		.uleb128 0x2
 1974 0014 24        		.uleb128 0x24
 1975 0015 00        		.byte	0x0
 1976 0016 0B        		.uleb128 0xb
 1977 0017 0B        		.uleb128 0xb
 1978 0018 3E        		.uleb128 0x3e
 1979 0019 0B        		.uleb128 0xb
 1980 001a 03        		.uleb128 0x3
 1981 001b 0E        		.uleb128 0xe
 1982 001c 00        		.byte	0x0
 1983 001d 00        		.byte	0x0
 1984 001e 03        		.uleb128 0x3
 1985 001f 24        		.uleb128 0x24
 1986 0020 00        		.byte	0x0
 1987 0021 0B        		.uleb128 0xb
 1988 0022 0B        		.uleb128 0xb
 1989 0023 3E        		.uleb128 0x3e
 1990 0024 0B        		.uleb128 0xb
 1991 0025 03        		.uleb128 0x3
 1992 0026 08        		.uleb128 0x8
 1993 0027 00        		.byte	0x0
 1994 0028 00        		.byte	0x0
 1995 0029 04        		.uleb128 0x4
GAS LISTING C:\Users\ADMINI~1\AppData\Local\Temp/ccxu9E7s.s 			page 36


 1996 002a 16        		.uleb128 0x16
 1997 002b 00        		.byte	0x0
 1998 002c 03        		.uleb128 0x3
 1999 002d 0E        		.uleb128 0xe
 2000 002e 3A        		.uleb128 0x3a
 2001 002f 0B        		.uleb128 0xb
 2002 0030 3B        		.uleb128 0x3b
 2003 0031 0B        		.uleb128 0xb
 2004 0032 49        		.uleb128 0x49
 2005 0033 13        		.uleb128 0x13
 2006 0034 00        		.byte	0x0
 2007 0035 00        		.byte	0x0
 2008 0036 05        		.uleb128 0x5
 2009 0037 24        		.uleb128 0x24
 2010 0038 00        		.byte	0x0
 2011 0039 0B        		.uleb128 0xb
 2012 003a 0B        		.uleb128 0xb
 2013 003b 3E        		.uleb128 0x3e
 2014 003c 0B        		.uleb128 0xb
 2015 003d 00        		.byte	0x0
 2016 003e 00        		.byte	0x0
 2017 003f 06        		.uleb128 0x6
 2018 0040 04        		.uleb128 0x4
 2019 0041 01        		.byte	0x1
 2020 0042 0B        		.uleb128 0xb
 2021 0043 0B        		.uleb128 0xb
 2022 0044 3A        		.uleb128 0x3a
 2023 0045 0B        		.uleb128 0xb
 2024 0046 3B        		.uleb128 0x3b
 2025 0047 0B        		.uleb128 0xb
 2026 0048 01        		.uleb128 0x1
 2027 0049 13        		.uleb128 0x13
 2028 004a 00        		.byte	0x0
 2029 004b 00        		.byte	0x0
 2030 004c 07        		.uleb128 0x7
 2031 004d 28        		.uleb128 0x28
 2032 004e 00        		.byte	0x0
 2033 004f 03        		.uleb128 0x3
 2034 0050 0E        		.uleb128 0xe
 2035 0051 1C        		.uleb128 0x1c
 2036 0052 0D        		.uleb128 0xd
 2037 0053 00        		.byte	0x0
 2038 0054 00        		.byte	0x0
 2039 0055 08        		.uleb128 0x8
 2040 0056 2E        		.uleb128 0x2e
 2041 0057 01        		.byte	0x1
 2042 0058 3F        		.uleb128 0x3f
 2043 0059 0C        		.uleb128 0xc
 2044 005a 03        		.uleb128 0x3
 2045 005b 0E        		.uleb128 0xe
 2046 005c 3A        		.uleb128 0x3a
 2047 005d 0B        		.uleb128 0xb
 2048 005e 3B        		.uleb128 0x3b
 2049 005f 0B        		.uleb128 0xb
 2050 0060 27        		.uleb128 0x27
 2051 0061 0C        		.uleb128 0xc
 2052 0062 11        		.uleb128 0x11
GAS LISTING C:\Users\ADMINI~1\AppData\Local\Temp/ccxu9E7s.s 			page 37


 2053 0063 01        		.uleb128 0x1
 2054 0064 12        		.uleb128 0x12
 2055 0065 01        		.uleb128 0x1
 2056 0066 40        		.uleb128 0x40
 2057 0067 0A        		.uleb128 0xa
 2058 0068 01        		.uleb128 0x1
 2059 0069 13        		.uleb128 0x13
 2060 006a 00        		.byte	0x0
 2061 006b 00        		.byte	0x0
 2062 006c 09        		.uleb128 0x9
 2063 006d 34        		.uleb128 0x34
 2064 006e 00        		.byte	0x0
 2065 006f 03        		.uleb128 0x3
 2066 0070 08        		.uleb128 0x8
 2067 0071 3A        		.uleb128 0x3a
 2068 0072 0B        		.uleb128 0xb
 2069 0073 3B        		.uleb128 0x3b
 2070 0074 0B        		.uleb128 0xb
 2071 0075 49        		.uleb128 0x49
 2072 0076 13        		.uleb128 0x13
 2073 0077 00        		.byte	0x0
 2074 0078 00        		.byte	0x0
 2075 0079 0A        		.uleb128 0xa
 2076 007a 2E        		.uleb128 0x2e
 2077 007b 01        		.byte	0x1
 2078 007c 3F        		.uleb128 0x3f
 2079 007d 0C        		.uleb128 0xc
 2080 007e 03        		.uleb128 0x3
 2081 007f 0E        		.uleb128 0xe
 2082 0080 3A        		.uleb128 0x3a
 2083 0081 0B        		.uleb128 0xb
 2084 0082 3B        		.uleb128 0x3b
 2085 0083 0B        		.uleb128 0xb
 2086 0084 27        		.uleb128 0x27
 2087 0085 0C        		.uleb128 0xc
 2088 0086 49        		.uleb128 0x49
 2089 0087 13        		.uleb128 0x13
 2090 0088 11        		.uleb128 0x11
 2091 0089 01        		.uleb128 0x1
 2092 008a 12        		.uleb128 0x12
 2093 008b 01        		.uleb128 0x1
 2094 008c 40        		.uleb128 0x40
 2095 008d 0A        		.uleb128 0xa
 2096 008e 01        		.uleb128 0x1
 2097 008f 13        		.uleb128 0x13
 2098 0090 00        		.byte	0x0
 2099 0091 00        		.byte	0x0
 2100 0092 0B        		.uleb128 0xb
 2101 0093 2E        		.uleb128 0x2e
 2102 0094 00        		.byte	0x0
 2103 0095 3F        		.uleb128 0x3f
 2104 0096 0C        		.uleb128 0xc
 2105 0097 03        		.uleb128 0x3
 2106 0098 0E        		.uleb128 0xe
 2107 0099 3A        		.uleb128 0x3a
 2108 009a 0B        		.uleb128 0xb
 2109 009b 3B        		.uleb128 0x3b
GAS LISTING C:\Users\ADMINI~1\AppData\Local\Temp/ccxu9E7s.s 			page 38


 2110 009c 05        		.uleb128 0x5
 2111 009d 27        		.uleb128 0x27
 2112 009e 0C        		.uleb128 0xc
 2113 009f 49        		.uleb128 0x49
 2114 00a0 13        		.uleb128 0x13
 2115 00a1 11        		.uleb128 0x11
 2116 00a2 01        		.uleb128 0x1
 2117 00a3 12        		.uleb128 0x12
 2118 00a4 01        		.uleb128 0x1
 2119 00a5 40        		.uleb128 0x40
 2120 00a6 0A        		.uleb128 0xa
 2121 00a7 00        		.byte	0x0
 2122 00a8 00        		.byte	0x0
 2123 00a9 0C        		.uleb128 0xc
 2124 00aa 0F        		.uleb128 0xf
 2125 00ab 00        		.byte	0x0
 2126 00ac 0B        		.uleb128 0xb
 2127 00ad 0B        		.uleb128 0xb
 2128 00ae 49        		.uleb128 0x49
 2129 00af 13        		.uleb128 0x13
 2130 00b0 00        		.byte	0x0
 2131 00b1 00        		.byte	0x0
 2132 00b2 0D        		.uleb128 0xd
 2133 00b3 34        		.uleb128 0x34
 2134 00b4 00        		.byte	0x0
 2135 00b5 03        		.uleb128 0x3
 2136 00b6 08        		.uleb128 0x8
 2137 00b7 3A        		.uleb128 0x3a
 2138 00b8 0B        		.uleb128 0xb
 2139 00b9 3B        		.uleb128 0x3b
 2140 00ba 0B        		.uleb128 0xb
 2141 00bb 49        		.uleb128 0x49
 2142 00bc 13        		.uleb128 0x13
 2143 00bd 02        		.uleb128 0x2
 2144 00be 06        		.uleb128 0x6
 2145 00bf 00        		.byte	0x0
 2146 00c0 00        		.byte	0x0
 2147 00c1 0E        		.uleb128 0xe
 2148 00c2 34        		.uleb128 0x34
 2149 00c3 00        		.byte	0x0
 2150 00c4 03        		.uleb128 0x3
 2151 00c5 0E        		.uleb128 0xe
 2152 00c6 3A        		.uleb128 0x3a
 2153 00c7 0B        		.uleb128 0xb
 2154 00c8 3B        		.uleb128 0x3b
 2155 00c9 0B        		.uleb128 0xb
 2156 00ca 49        		.uleb128 0x49
 2157 00cb 13        		.uleb128 0x13
 2158 00cc 00        		.byte	0x0
 2159 00cd 00        		.byte	0x0
 2160 00ce 0F        		.uleb128 0xf
 2161 00cf 34        		.uleb128 0x34
 2162 00d0 00        		.byte	0x0
 2163 00d1 03        		.uleb128 0x3
 2164 00d2 0E        		.uleb128 0xe
 2165 00d3 3A        		.uleb128 0x3a
 2166 00d4 0B        		.uleb128 0xb
GAS LISTING C:\Users\ADMINI~1\AppData\Local\Temp/ccxu9E7s.s 			page 39


 2167 00d5 3B        		.uleb128 0x3b
 2168 00d6 0B        		.uleb128 0xb
 2169 00d7 49        		.uleb128 0x49
 2170 00d8 13        		.uleb128 0x13
 2171 00d9 02        		.uleb128 0x2
 2172 00da 06        		.uleb128 0x6
 2173 00db 00        		.byte	0x0
 2174 00dc 00        		.byte	0x0
 2175 00dd 10        		.uleb128 0x10
 2176 00de 2E        		.uleb128 0x2e
 2177 00df 01        		.byte	0x1
 2178 00e0 3F        		.uleb128 0x3f
 2179 00e1 0C        		.uleb128 0xc
 2180 00e2 03        		.uleb128 0x3
 2181 00e3 0E        		.uleb128 0xe
 2182 00e4 3A        		.uleb128 0x3a
 2183 00e5 0B        		.uleb128 0xb
 2184 00e6 3B        		.uleb128 0x3b
 2185 00e7 05        		.uleb128 0x5
 2186 00e8 27        		.uleb128 0x27
 2187 00e9 0C        		.uleb128 0xc
 2188 00ea 49        		.uleb128 0x49
 2189 00eb 13        		.uleb128 0x13
 2190 00ec 11        		.uleb128 0x11
 2191 00ed 01        		.uleb128 0x1
 2192 00ee 12        		.uleb128 0x12
 2193 00ef 01        		.uleb128 0x1
 2194 00f0 40        		.uleb128 0x40
 2195 00f1 0A        		.uleb128 0xa
 2196 00f2 01        		.uleb128 0x1
 2197 00f3 13        		.uleb128 0x13
 2198 00f4 00        		.byte	0x0
 2199 00f5 00        		.byte	0x0
 2200 00f6 11        		.uleb128 0x11
 2201 00f7 34        		.uleb128 0x34
 2202 00f8 00        		.byte	0x0
 2203 00f9 03        		.uleb128 0x3
 2204 00fa 0E        		.uleb128 0xe
 2205 00fb 3A        		.uleb128 0x3a
 2206 00fc 0B        		.uleb128 0xb
 2207 00fd 3B        		.uleb128 0x3b
 2208 00fe 05        		.uleb128 0x5
 2209 00ff 49        		.uleb128 0x49
 2210 0100 13        		.uleb128 0x13
 2211 0101 02        		.uleb128 0x2
 2212 0102 06        		.uleb128 0x6
 2213 0103 00        		.byte	0x0
 2214 0104 00        		.byte	0x0
 2215 0105 12        		.uleb128 0x12
 2216 0106 34        		.uleb128 0x34
 2217 0107 00        		.byte	0x0
 2218 0108 03        		.uleb128 0x3
 2219 0109 0E        		.uleb128 0xe
 2220 010a 3A        		.uleb128 0x3a
 2221 010b 0B        		.uleb128 0xb
 2222 010c 3B        		.uleb128 0x3b
 2223 010d 0B        		.uleb128 0xb
GAS LISTING C:\Users\ADMINI~1\AppData\Local\Temp/ccxu9E7s.s 			page 40


 2224 010e 49        		.uleb128 0x49
 2225 010f 13        		.uleb128 0x13
 2226 0110 02        		.uleb128 0x2
 2227 0111 0A        		.uleb128 0xa
 2228 0112 00        		.byte	0x0
 2229 0113 00        		.byte	0x0
 2230 0114 13        		.uleb128 0x13
 2231 0115 05        		.uleb128 0x5
 2232 0116 00        		.byte	0x0
 2233 0117 03        		.uleb128 0x3
 2234 0118 0E        		.uleb128 0xe
 2235 0119 3A        		.uleb128 0x3a
 2236 011a 0B        		.uleb128 0xb
 2237 011b 3B        		.uleb128 0x3b
 2238 011c 0B        		.uleb128 0xb
 2239 011d 49        		.uleb128 0x49
 2240 011e 13        		.uleb128 0x13
 2241 011f 02        		.uleb128 0x2
 2242 0120 06        		.uleb128 0x6
 2243 0121 00        		.byte	0x0
 2244 0122 00        		.byte	0x0
 2245 0123 14        		.uleb128 0x14
 2246 0124 01        		.uleb128 0x1
 2247 0125 01        		.byte	0x1
 2248 0126 49        		.uleb128 0x49
 2249 0127 13        		.uleb128 0x13
 2250 0128 01        		.uleb128 0x1
 2251 0129 13        		.uleb128 0x13
 2252 012a 00        		.byte	0x0
 2253 012b 00        		.byte	0x0
 2254 012c 15        		.uleb128 0x15
 2255 012d 21        		.uleb128 0x21
 2256 012e 00        		.byte	0x0
 2257 012f 00        		.byte	0x0
 2258 0130 00        		.byte	0x0
 2259 0131 16        		.uleb128 0x16
 2260 0132 34        		.uleb128 0x34
 2261 0133 00        		.byte	0x0
 2262 0134 03        		.uleb128 0x3
 2263 0135 0E        		.uleb128 0xe
 2264 0136 3A        		.uleb128 0x3a
 2265 0137 0B        		.uleb128 0xb
 2266 0138 3B        		.uleb128 0x3b
 2267 0139 05        		.uleb128 0x5
 2268 013a 49        		.uleb128 0x49
 2269 013b 13        		.uleb128 0x13
 2270 013c 3F        		.uleb128 0x3f
 2271 013d 0C        		.uleb128 0xc
 2272 013e 3C        		.uleb128 0x3c
 2273 013f 0C        		.uleb128 0xc
 2274 0140 00        		.byte	0x0
 2275 0141 00        		.byte	0x0
 2276 0142 17        		.uleb128 0x17
 2277 0143 26        		.uleb128 0x26
 2278 0144 00        		.byte	0x0
 2279 0145 49        		.uleb128 0x49
 2280 0146 13        		.uleb128 0x13
GAS LISTING C:\Users\ADMINI~1\AppData\Local\Temp/ccxu9E7s.s 			page 41


 2281 0147 00        		.byte	0x0
 2282 0148 00        		.byte	0x0
 2283 0149 18        		.uleb128 0x18
 2284 014a 34        		.uleb128 0x34
 2285 014b 00        		.byte	0x0
 2286 014c 03        		.uleb128 0x3
 2287 014d 0E        		.uleb128 0xe
 2288 014e 3A        		.uleb128 0x3a
 2289 014f 0B        		.uleb128 0xb
 2290 0150 3B        		.uleb128 0x3b
 2291 0151 0B        		.uleb128 0xb
 2292 0152 49        		.uleb128 0x49
 2293 0153 13        		.uleb128 0x13
 2294 0154 3F        		.uleb128 0x3f
 2295 0155 0C        		.uleb128 0xc
 2296 0156 02        		.uleb128 0x2
 2297 0157 0A        		.uleb128 0xa
 2298 0158 00        		.byte	0x0
 2299 0159 00        		.byte	0x0
 2300 015a 19        		.uleb128 0x19
 2301 015b 21        		.uleb128 0x21
 2302 015c 00        		.byte	0x0
 2303 015d 49        		.uleb128 0x49
 2304 015e 13        		.uleb128 0x13
 2305 015f 2F        		.uleb128 0x2f
 2306 0160 0B        		.uleb128 0xb
 2307 0161 00        		.byte	0x0
 2308 0162 00        		.byte	0x0
 2309 0163 00        		.byte	0x0
 2310               		.section	.debug_pubnames,"",@progbits
 2311 0000 D500 0000 		.long	0xd5
 2312 0004 0200      		.word	0x2
 2313 0006 0000 0000 		.long	.Ldebug_info0
 2314 000a 3108 0000 		.long	0x831
 2315 000e A305 0000 		.long	0x5a3
 2316 0012 636C 6561 		.string	"clearMatrix"
 2316      724D 6174 
 2316      7269 7800 
 2317 001e C705 0000 		.long	0x5c7
 2318 0022 6973 416C 		.string	"isAllKeyRelease"
 2318      6C4B 6579 
 2318      5265 6C65 
 2318      6173 6500 
 2319 0032 FA05 0000 		.long	0x5fa
 2320 0036 6765 7443 		.string	"getCurrentMatrix"
 2320      7572 7265 
 2320      6E74 4D61 
 2320      7472 6978 
 2320      00
 2321 0047 1906 0000 		.long	0x619
 2322 004b 6765 744C 		.string	"getLiveMatrix"
 2322      6976 654D 
 2322      6174 7269 
 2322      7800 
 2323 0059 7906 0000 		.long	0x679
 2324 005d 7365 7443 		.string	"setCurrentMatrix"
 2324      7572 7265 
GAS LISTING C:\Users\ADMINI~1\AppData\Local\Temp/ccxu9E7s.s 			page 42


 2324      6E74 4D61 
 2324      7472 6978 
 2324      00
 2325 006e A706 0000 		.long	0x6a7
 2326 0072 6765 744C 		.string	"getLayer"
 2326      6179 6572 
 2326      00
 2327 007b 1107 0000 		.long	0x711
 2328 007f 6170 706C 		.string	"applyFN"
 2328      7946 4E00 
 2329 0087 AE07 0000 		.long	0x7ae
 2330 008b 6973 4265 		.string	"isBeyondFN"
 2330      796F 6E64 
 2330      464E 00
 2331 0096 D307 0000 		.long	0x7d3
 2332 009a 6D6F 646D 		.string	"modmask"
 2332      6173 6B00 
 2333 00a2 FA07 0000 		.long	0x7fa
 2334 00a6 7072 6576 		.string	"prevMatrix"
 2334      4D61 7472 
 2334      6978 00
 2335 00b1 0C08 0000 		.long	0x80c
 2336 00b5 6375 7272 		.string	"currentMatrix"
 2336      656E 744D 
 2336      6174 7269 
 2336      7800 
 2337 00c3 1E08 0000 		.long	0x81e
 2338 00c7 5F63 7572 		.string	"_currentLayer"
 2338      7265 6E74 
 2338      4C61 7965 
 2338      7200 
 2339 00d5 0000 0000 		.long	0x0
 2340               		.section	.debug_aranges,"",@progbits
 2341 0000 1C00 0000 		.long	0x1c
 2342 0004 0200      		.word	0x2
 2343 0006 0000 0000 		.long	.Ldebug_info0
 2344 000a 04        		.byte	0x4
 2345 000b 00        		.byte	0x0
 2346 000c 0000      		.word	0x0
 2347 000e 0000      		.word	0x0
 2348 0010 0000 0000 		.long	.Ltext0
 2349 0014 9603 0000 		.long	.Letext0-.Ltext0
 2350 0018 0000 0000 		.long	0x0
 2351 001c 0000 0000 		.long	0x0
 2352               		.section	.debug_line
 2353 0000 FF03 0000 		.long	.LELT0-.LSLT0
 2354               	.LSLT0:
 2355 0004 0200      		.word	0x2
 2356 0006 6400 0000 		.long	.LELTP0-.LASLTP0
 2357               	.LASLTP0:
 2358 000a 01        		.byte	0x1
 2359 000b 01        		.byte	0x1
 2360 000c F6        		.byte	0xf6
 2361 000d F5        		.byte	0xf5
 2362 000e 0A        		.byte	0xa
 2363 000f 00        		.byte	0x0
 2364 0010 01        		.byte	0x1
GAS LISTING C:\Users\ADMINI~1\AppData\Local\Temp/ccxu9E7s.s 			page 43


 2365 0011 01        		.byte	0x1
 2366 0012 01        		.byte	0x1
 2367 0013 01        		.byte	0x1
 2368 0014 00        		.byte	0x0
 2369 0015 00        		.byte	0x0
 2370 0016 00        		.byte	0x0
 2371 0017 01        		.byte	0x1
 2372 0018 633A 2F77 		.ascii	"c:/winavr-20100110/lib/gcc/../../avr/include"
 2372      696E 6176 
 2372      722D 3230 
 2372      3130 3031 
 2372      3130 2F6C 
 2373 0044 00        		.byte	0
 2374 0045 00        		.byte	0x0
 2375 0046 6B65 796D 		.string	"keymatrix.c"
 2375      6174 7269 
 2375      782E 6300 
 2376 0052 00        		.uleb128 0x0
 2377 0053 00        		.uleb128 0x0
 2378 0054 00        		.uleb128 0x0
 2379 0055 6B65 796D 		.string	"keymap.h"
 2379      6170 2E68 
 2379      00
 2380 005e 00        		.uleb128 0x0
 2381 005f 00        		.uleb128 0x0
 2382 0060 00        		.uleb128 0x0
 2383 0061 7374 6469 		.string	"stdint.h"
 2383      6E74 2E68 
 2383      00
 2384 006a 01        		.uleb128 0x1
 2385 006b 00        		.uleb128 0x0
 2386 006c 00        		.uleb128 0x0
 2387 006d 00        		.byte	0x0
 2388               	.LELTP0:
 2389 006e 00        		.byte	0x0
 2390 006f 05        		.uleb128 0x5
 2391 0070 02        		.byte	0x2
 2392 0071 0000 0000 		.long	.LM1
 2393 0075 4D        		.byte	0x4d
 2394 0076 00        		.byte	0x0
 2395 0077 05        		.uleb128 0x5
 2396 0078 02        		.byte	0x2
 2397 0079 0000 0000 		.long	.LM2
 2398 007d 01        		.byte	0x1
 2399 007e 00        		.byte	0x0
 2400 007f 05        		.uleb128 0x5
 2401 0080 02        		.byte	0x2
 2402 0081 0000 0000 		.long	.LM3
 2403 0085 17        		.byte	0x17
 2404 0086 00        		.byte	0x0
 2405 0087 05        		.uleb128 0x5
 2406 0088 02        		.byte	0x2
 2407 0089 0000 0000 		.long	.LM4
 2408 008d 15        		.byte	0x15
 2409 008e 00        		.byte	0x0
 2410 008f 05        		.uleb128 0x5
 2411 0090 02        		.byte	0x2
GAS LISTING C:\Users\ADMINI~1\AppData\Local\Temp/ccxu9E7s.s 			page 44


 2412 0091 0000 0000 		.long	.LM5
 2413 0095 12        		.byte	0x12
 2414 0096 00        		.byte	0x0
 2415 0097 05        		.uleb128 0x5
 2416 0098 02        		.byte	0x2
 2417 0099 0000 0000 		.long	.LM6
 2418 009d 19        		.byte	0x19
 2419 009e 00        		.byte	0x0
 2420 009f 05        		.uleb128 0x5
 2421 00a0 02        		.byte	0x2
 2422 00a1 0000 0000 		.long	.LM7
 2423 00a5 15        		.byte	0x15
 2424 00a6 00        		.byte	0x0
 2425 00a7 05        		.uleb128 0x5
 2426 00a8 02        		.byte	0x2
 2427 00a9 0000 0000 		.long	.LM8
 2428 00ad 17        		.byte	0x17
 2429 00ae 00        		.byte	0x0
 2430 00af 05        		.uleb128 0x5
 2431 00b0 02        		.byte	0x2
 2432 00b1 0000 0000 		.long	.LM9
 2433 00b5 16        		.byte	0x16
 2434 00b6 00        		.byte	0x0
 2435 00b7 05        		.uleb128 0x5
 2436 00b8 02        		.byte	0x2
 2437 00b9 0000 0000 		.long	.LM10
 2438 00bd 16        		.byte	0x16
 2439 00be 00        		.byte	0x0
 2440 00bf 05        		.uleb128 0x5
 2441 00c0 02        		.byte	0x2
 2442 00c1 0000 0000 		.long	.LM11
 2443 00c5 15        		.byte	0x15
 2444 00c6 00        		.byte	0x0
 2445 00c7 05        		.uleb128 0x5
 2446 00c8 02        		.byte	0x2
 2447 00c9 0000 0000 		.long	.LM12
 2448 00cd 15        		.byte	0x15
 2449 00ce 00        		.byte	0x0
 2450 00cf 05        		.uleb128 0x5
 2451 00d0 02        		.byte	0x2
 2452 00d1 0000 0000 		.long	.LM13
 2453 00d5 11        		.byte	0x11
 2454 00d6 00        		.byte	0x0
 2455 00d7 05        		.uleb128 0x5
 2456 00d8 02        		.byte	0x2
 2457 00d9 0000 0000 		.long	.LM14
 2458 00dd 1B        		.byte	0x1b
 2459 00de 00        		.byte	0x0
 2460 00df 05        		.uleb128 0x5
 2461 00e0 02        		.byte	0x2
 2462 00e1 0000 0000 		.long	.LM15
 2463 00e5 F2        		.byte	0xf2
 2464 00e6 00        		.byte	0x0
 2465 00e7 05        		.uleb128 0x5
 2466 00e8 02        		.byte	0x2
 2467 00e9 0000 0000 		.long	.LM16
 2468 00ed 1C        		.byte	0x1c
GAS LISTING C:\Users\ADMINI~1\AppData\Local\Temp/ccxu9E7s.s 			page 45


 2469 00ee 00        		.byte	0x0
 2470 00ef 05        		.uleb128 0x5
 2471 00f0 02        		.byte	0x2
 2472 00f1 0000 0000 		.long	.LM17
 2473 00f5 03        		.byte	0x3
 2474 00f6 A57F      		.sleb128 -91
 2475 00f8 01        		.byte	0x1
 2476 00f9 00        		.byte	0x0
 2477 00fa 05        		.uleb128 0x5
 2478 00fb 02        		.byte	0x2
 2479 00fc 0000 0000 		.long	.LM18
 2480 0100 01        		.byte	0x1
 2481 0101 00        		.byte	0x0
 2482 0102 05        		.uleb128 0x5
 2483 0103 02        		.byte	0x2
 2484 0104 0000 0000 		.long	.LM19
 2485 0108 1D        		.byte	0x1d
 2486 0109 00        		.byte	0x0
 2487 010a 05        		.uleb128 0x5
 2488 010b 02        		.byte	0x2
 2489 010c 0000 0000 		.long	.LM20
 2490 0110 23        		.byte	0x23
 2491 0111 00        		.byte	0x0
 2492 0112 05        		.uleb128 0x5
 2493 0113 02        		.byte	0x2
 2494 0114 0000 0000 		.long	.LM21
 2495 0118 11        		.byte	0x11
 2496 0119 00        		.byte	0x0
 2497 011a 05        		.uleb128 0x5
 2498 011b 02        		.byte	0x2
 2499 011c 0000 0000 		.long	.LM22
 2500 0120 03        		.byte	0x3
 2501 0121 74        		.sleb128 -12
 2502 0122 01        		.byte	0x1
 2503 0123 00        		.byte	0x0
 2504 0124 05        		.uleb128 0x5
 2505 0125 02        		.byte	0x2
 2506 0126 0000 0000 		.long	.LM23
 2507 012a 15        		.byte	0x15
 2508 012b 00        		.byte	0x0
 2509 012c 05        		.uleb128 0x5
 2510 012d 02        		.byte	0x2
 2511 012e 0000 0000 		.long	.LM24
 2512 0132 16        		.byte	0x16
 2513 0133 00        		.byte	0x0
 2514 0134 05        		.uleb128 0x5
 2515 0135 02        		.byte	0x2
 2516 0136 0000 0000 		.long	.LM25
 2517 013a 29        		.byte	0x29
 2518 013b 00        		.byte	0x0
 2519 013c 05        		.uleb128 0x5
 2520 013d 02        		.byte	0x2
 2521 013e 0000 0000 		.long	.LM26
 2522 0142 03        		.byte	0x3
 2523 0143 6B        		.sleb128 -21
 2524 0144 01        		.byte	0x1
 2525 0145 00        		.byte	0x0
GAS LISTING C:\Users\ADMINI~1\AppData\Local\Temp/ccxu9E7s.s 			page 46


 2526 0146 05        		.uleb128 0x5
 2527 0147 02        		.byte	0x2
 2528 0148 0000 0000 		.long	.LM27
 2529 014c 19        		.byte	0x19
 2530 014d 00        		.byte	0x0
 2531 014e 05        		.uleb128 0x5
 2532 014f 02        		.byte	0x2
 2533 0150 0000 0000 		.long	.LM28
 2534 0154 15        		.byte	0x15
 2535 0155 00        		.byte	0x0
 2536 0156 05        		.uleb128 0x5
 2537 0157 02        		.byte	0x2
 2538 0158 0000 0000 		.long	.LM29
 2539 015c 16        		.byte	0x16
 2540 015d 00        		.byte	0x0
 2541 015e 05        		.uleb128 0x5
 2542 015f 02        		.byte	0x2
 2543 0160 0000 0000 		.long	.LM30
 2544 0164 15        		.byte	0x15
 2545 0165 00        		.byte	0x0
 2546 0166 05        		.uleb128 0x5
 2547 0167 02        		.byte	0x2
 2548 0168 0000 0000 		.long	.LM31
 2549 016c 17        		.byte	0x17
 2550 016d 00        		.byte	0x0
 2551 016e 05        		.uleb128 0x5
 2552 016f 02        		.byte	0x2
 2553 0170 0000 0000 		.long	.LM32
 2554 0174 17        		.byte	0x17
 2555 0175 00        		.byte	0x0
 2556 0176 05        		.uleb128 0x5
 2557 0177 02        		.byte	0x2
 2558 0178 0000 0000 		.long	.LM33
 2559 017c 16        		.byte	0x16
 2560 017d 00        		.byte	0x0
 2561 017e 05        		.uleb128 0x5
 2562 017f 02        		.byte	0x2
 2563 0180 0000 0000 		.long	.LM34
 2564 0184 16        		.byte	0x16
 2565 0185 00        		.byte	0x0
 2566 0186 05        		.uleb128 0x5
 2567 0187 02        		.byte	0x2
 2568 0188 0000 0000 		.long	.LM35
 2569 018c 16        		.byte	0x16
 2570 018d 00        		.byte	0x0
 2571 018e 05        		.uleb128 0x5
 2572 018f 02        		.byte	0x2
 2573 0190 0000 0000 		.long	.LM36
 2574 0194 03        		.byte	0x3
 2575 0195 6E        		.sleb128 -18
 2576 0196 01        		.byte	0x1
 2577 0197 00        		.byte	0x0
 2578 0198 05        		.uleb128 0x5
 2579 0199 02        		.byte	0x2
 2580 019a 0000 0000 		.long	.LM37
 2581 019e 0B        		.byte	0xb
 2582 019f 00        		.byte	0x0
GAS LISTING C:\Users\ADMINI~1\AppData\Local\Temp/ccxu9E7s.s 			page 47


 2583 01a0 05        		.uleb128 0x5
 2584 01a1 02        		.byte	0x2
 2585 01a2 0000 0000 		.long	.LM38
 2586 01a6 37        		.byte	0x37
 2587 01a7 00        		.byte	0x0
 2588 01a8 05        		.uleb128 0x5
 2589 01a9 02        		.byte	0x2
 2590 01aa 0000 0000 		.long	.LM39
 2591 01ae 15        		.byte	0x15
 2592 01af 00        		.byte	0x0
 2593 01b0 05        		.uleb128 0x5
 2594 01b1 02        		.byte	0x2
 2595 01b2 0000 0000 		.long	.LM40
 2596 01b6 15        		.byte	0x15
 2597 01b7 00        		.byte	0x0
 2598 01b8 05        		.uleb128 0x5
 2599 01b9 02        		.byte	0x2
 2600 01ba 0000 0000 		.long	.LM41
 2601 01be 16        		.byte	0x16
 2602 01bf 00        		.byte	0x0
 2603 01c0 05        		.uleb128 0x5
 2604 01c1 02        		.byte	0x2
 2605 01c2 0000 0000 		.long	.LM42
 2606 01c6 38        		.byte	0x38
 2607 01c7 00        		.byte	0x0
 2608 01c8 05        		.uleb128 0x5
 2609 01c9 02        		.byte	0x2
 2610 01ca 0000 0000 		.long	.LM43
 2611 01ce 21        		.byte	0x21
 2612 01cf 00        		.byte	0x0
 2613 01d0 05        		.uleb128 0x5
 2614 01d1 02        		.byte	0x2
 2615 01d2 0000 0000 		.long	.LM44
 2616 01d6 16        		.byte	0x16
 2617 01d7 00        		.byte	0x0
 2618 01d8 05        		.uleb128 0x5
 2619 01d9 02        		.byte	0x2
 2620 01da 0000 0000 		.long	.LM45
 2621 01de 16        		.byte	0x16
 2622 01df 00        		.byte	0x0
 2623 01e0 05        		.uleb128 0x5
 2624 01e1 02        		.byte	0x2
 2625 01e2 0000 0000 		.long	.LM46
 2626 01e6 17        		.byte	0x17
 2627 01e7 00        		.byte	0x0
 2628 01e8 05        		.uleb128 0x5
 2629 01e9 02        		.byte	0x2
 2630 01ea 0000 0000 		.long	.LM47
 2631 01ee 16        		.byte	0x16
 2632 01ef 00        		.byte	0x0
 2633 01f0 05        		.uleb128 0x5
 2634 01f1 02        		.byte	0x2
 2635 01f2 0000 0000 		.long	.LM48
 2636 01f6 19        		.byte	0x19
 2637 01f7 00        		.byte	0x0
 2638 01f8 05        		.uleb128 0x5
 2639 01f9 02        		.byte	0x2
GAS LISTING C:\Users\ADMINI~1\AppData\Local\Temp/ccxu9E7s.s 			page 48


 2640 01fa 0000 0000 		.long	.LM49
 2641 01fe 03        		.byte	0x3
 2642 01ff C17E      		.sleb128 -191
 2643 0201 01        		.byte	0x1
 2644 0202 00        		.byte	0x0
 2645 0203 05        		.uleb128 0x5
 2646 0204 02        		.byte	0x2
 2647 0205 0000 0000 		.long	.LM50
 2648 0209 01        		.byte	0x1
 2649 020a 00        		.byte	0x0
 2650 020b 05        		.uleb128 0x5
 2651 020c 02        		.byte	0x2
 2652 020d 0000 0000 		.long	.LM51
 2653 0211 27        		.byte	0x27
 2654 0212 00        		.byte	0x0
 2655 0213 05        		.uleb128 0x5
 2656 0214 02        		.byte	0x2
 2657 0215 0000 0000 		.long	.LM52
 2658 0219 29        		.byte	0x29
 2659 021a 00        		.byte	0x0
 2660 021b 05        		.uleb128 0x5
 2661 021c 02        		.byte	0x2
 2662 021d 0000 0000 		.long	.LM53
 2663 0221 11        		.byte	0x11
 2664 0222 00        		.byte	0x0
 2665 0223 05        		.uleb128 0x5
 2666 0224 02        		.byte	0x2
 2667 0225 0000 0000 		.long	.LM54
 2668 0229 03        		.byte	0x3
 2669 022a 5B        		.sleb128 -37
 2670 022b 01        		.byte	0x1
 2671 022c 00        		.byte	0x0
 2672 022d 05        		.uleb128 0x5
 2673 022e 02        		.byte	0x2
 2674 022f 0000 0000 		.long	.LM55
 2675 0233 1D        		.byte	0x1d
 2676 0234 00        		.byte	0x0
 2677 0235 05        		.uleb128 0x5
 2678 0236 02        		.byte	0x2
 2679 0237 0000 0000 		.long	.LM56
 2680 023b 16        		.byte	0x16
 2681 023c 00        		.byte	0x0
 2682 023d 05        		.uleb128 0x5
 2683 023e 02        		.byte	0x2
 2684 023f 0000 0000 		.long	.LM57
 2685 0243 15        		.byte	0x15
 2686 0244 00        		.byte	0x0
 2687 0245 05        		.uleb128 0x5
 2688 0246 02        		.byte	0x2
 2689 0247 0000 0000 		.long	.LM58
 2690 024b 17        		.byte	0x17
 2691 024c 00        		.byte	0x0
 2692 024d 05        		.uleb128 0x5
 2693 024e 02        		.byte	0x2
 2694 024f 0000 0000 		.long	.LM59
 2695 0253 18        		.byte	0x18
 2696 0254 00        		.byte	0x0
GAS LISTING C:\Users\ADMINI~1\AppData\Local\Temp/ccxu9E7s.s 			page 49


 2697 0255 05        		.uleb128 0x5
 2698 0256 02        		.byte	0x2
 2699 0257 0000 0000 		.long	.LM60
 2700 025b 15        		.byte	0x15
 2701 025c 00        		.byte	0x0
 2702 025d 05        		.uleb128 0x5
 2703 025e 02        		.byte	0x2
 2704 025f 0000 0000 		.long	.LM61
 2705 0263 1F        		.byte	0x1f
 2706 0264 00        		.byte	0x0
 2707 0265 05        		.uleb128 0x5
 2708 0266 02        		.byte	0x2
 2709 0267 0000 0000 		.long	.LM62
 2710 026b 16        		.byte	0x16
 2711 026c 00        		.byte	0x0
 2712 026d 05        		.uleb128 0x5
 2713 026e 02        		.byte	0x2
 2714 026f 0000 0000 		.long	.LM63
 2715 0273 15        		.byte	0x15
 2716 0274 00        		.byte	0x0
 2717 0275 05        		.uleb128 0x5
 2718 0276 02        		.byte	0x2
 2719 0277 0000 0000 		.long	.LM64
 2720 027b 16        		.byte	0x16
 2721 027c 00        		.byte	0x0
 2722 027d 05        		.uleb128 0x5
 2723 027e 02        		.byte	0x2
 2724 027f 0000 0000 		.long	.LM65
 2725 0283 15        		.byte	0x15
 2726 0284 00        		.byte	0x0
 2727 0285 05        		.uleb128 0x5
 2728 0286 02        		.byte	0x2
 2729 0287 0000 0000 		.long	.LM66
 2730 028b 17        		.byte	0x17
 2731 028c 00        		.byte	0x0
 2732 028d 05        		.uleb128 0x5
 2733 028e 02        		.byte	0x2
 2734 028f 0000 0000 		.long	.LM67
 2735 0293 17        		.byte	0x17
 2736 0294 00        		.byte	0x0
 2737 0295 05        		.uleb128 0x5
 2738 0296 02        		.byte	0x2
 2739 0297 0000 0000 		.long	.LM68
 2740 029b 16        		.byte	0x16
 2741 029c 00        		.byte	0x0
 2742 029d 05        		.uleb128 0x5
 2743 029e 02        		.byte	0x2
 2744 029f 0000 0000 		.long	.LM69
 2745 02a3 17        		.byte	0x17
 2746 02a4 00        		.byte	0x0
 2747 02a5 05        		.uleb128 0x5
 2748 02a6 02        		.byte	0x2
 2749 02a7 0000 0000 		.long	.LM70
 2750 02ab 16        		.byte	0x16
 2751 02ac 00        		.byte	0x0
 2752 02ad 05        		.uleb128 0x5
 2753 02ae 02        		.byte	0x2
GAS LISTING C:\Users\ADMINI~1\AppData\Local\Temp/ccxu9E7s.s 			page 50


 2754 02af 0000 0000 		.long	.LM71
 2755 02b3 15        		.byte	0x15
 2756 02b4 00        		.byte	0x0
 2757 02b5 05        		.uleb128 0x5
 2758 02b6 02        		.byte	0x2
 2759 02b7 0000 0000 		.long	.LM72
 2760 02bb 15        		.byte	0x15
 2761 02bc 00        		.byte	0x0
 2762 02bd 05        		.uleb128 0x5
 2763 02be 02        		.byte	0x2
 2764 02bf 0000 0000 		.long	.LM73
 2765 02c3 17        		.byte	0x17
 2766 02c4 00        		.byte	0x0
 2767 02c5 05        		.uleb128 0x5
 2768 02c6 02        		.byte	0x2
 2769 02c7 0000 0000 		.long	.LM74
 2770 02cb 15        		.byte	0x15
 2771 02cc 00        		.byte	0x0
 2772 02cd 05        		.uleb128 0x5
 2773 02ce 02        		.byte	0x2
 2774 02cf 0000 0000 		.long	.LM75
 2775 02d3 15        		.byte	0x15
 2776 02d4 00        		.byte	0x0
 2777 02d5 05        		.uleb128 0x5
 2778 02d6 02        		.byte	0x2
 2779 02d7 0000 0000 		.long	.LM76
 2780 02db 17        		.byte	0x17
 2781 02dc 00        		.byte	0x0
 2782 02dd 05        		.uleb128 0x5
 2783 02de 02        		.byte	0x2
 2784 02df 0000 0000 		.long	.LM77
 2785 02e3 03        		.byte	0x3
 2786 02e4 4B        		.sleb128 -53
 2787 02e5 01        		.byte	0x1
 2788 02e6 00        		.byte	0x0
 2789 02e7 05        		.uleb128 0x5
 2790 02e8 02        		.byte	0x2
 2791 02e9 0000 0000 		.long	.LM78
 2792 02ed 13        		.byte	0x13
 2793 02ee 00        		.byte	0x0
 2794 02ef 05        		.uleb128 0x5
 2795 02f0 02        		.byte	0x2
 2796 02f1 0000 0000 		.long	.LM79
 2797 02f5 21        		.byte	0x21
 2798 02f6 00        		.byte	0x0
 2799 02f7 05        		.uleb128 0x5
 2800 02f8 02        		.byte	0x2
 2801 02f9 0000 0000 		.long	.LM80
 2802 02fd 15        		.byte	0x15
 2803 02fe 00        		.byte	0x0
 2804 02ff 05        		.uleb128 0x5
 2805 0300 02        		.byte	0x2
 2806 0301 0000 0000 		.long	.LM81
 2807 0305 44        		.byte	0x44
 2808 0306 00        		.byte	0x0
 2809 0307 05        		.uleb128 0x5
 2810 0308 02        		.byte	0x2
GAS LISTING C:\Users\ADMINI~1\AppData\Local\Temp/ccxu9E7s.s 			page 51


 2811 0309 0000 0000 		.long	.LM82
 2812 030d 15        		.byte	0x15
 2813 030e 00        		.byte	0x0
 2814 030f 05        		.uleb128 0x5
 2815 0310 02        		.byte	0x2
 2816 0311 0000 0000 		.long	.LM83
 2817 0315 17        		.byte	0x17
 2818 0316 00        		.byte	0x0
 2819 0317 05        		.uleb128 0x5
 2820 0318 02        		.byte	0x2
 2821 0319 0000 0000 		.long	.LM84
 2822 031d 16        		.byte	0x16
 2823 031e 00        		.byte	0x0
 2824 031f 05        		.uleb128 0x5
 2825 0320 02        		.byte	0x2
 2826 0321 0000 0000 		.long	.LM85
 2827 0325 15        		.byte	0x15
 2828 0326 00        		.byte	0x0
 2829 0327 05        		.uleb128 0x5
 2830 0328 02        		.byte	0x2
 2831 0329 0000 0000 		.long	.LM86
 2832 032d 18        		.byte	0x18
 2833 032e 00        		.byte	0x0
 2834 032f 05        		.uleb128 0x5
 2835 0330 02        		.byte	0x2
 2836 0331 0000 0000 		.long	.LM87
 2837 0335 16        		.byte	0x16
 2838 0336 00        		.byte	0x0
 2839 0337 05        		.uleb128 0x5
 2840 0338 02        		.byte	0x2
 2841 0339 0000 0000 		.long	.LM88
 2842 033d 03        		.byte	0x3
 2843 033e FA7E      		.sleb128 -134
 2844 0340 01        		.byte	0x1
 2845 0341 00        		.byte	0x0
 2846 0342 05        		.uleb128 0x5
 2847 0343 02        		.byte	0x2
 2848 0344 0000 0000 		.long	.LM89
 2849 0348 16        		.byte	0x16
 2850 0349 00        		.byte	0x0
 2851 034a 05        		.uleb128 0x5
 2852 034b 02        		.byte	0x2
 2853 034c 0000 0000 		.long	.LM90
 2854 0350 15        		.byte	0x15
 2855 0351 00        		.byte	0x0
 2856 0352 05        		.uleb128 0x5
 2857 0353 02        		.byte	0x2
 2858 0354 0000 0000 		.long	.LM91
 2859 0358 16        		.byte	0x16
 2860 0359 00        		.byte	0x0
 2861 035a 05        		.uleb128 0x5
 2862 035b 02        		.byte	0x2
 2863 035c 0000 0000 		.long	.LM92
 2864 0360 15        		.byte	0x15
 2865 0361 00        		.byte	0x0
 2866 0362 05        		.uleb128 0x5
 2867 0363 02        		.byte	0x2
GAS LISTING C:\Users\ADMINI~1\AppData\Local\Temp/ccxu9E7s.s 			page 52


 2868 0364 0000 0000 		.long	.LM93
 2869 0368 16        		.byte	0x16
 2870 0369 00        		.byte	0x0
 2871 036a 05        		.uleb128 0x5
 2872 036b 02        		.byte	0x2
 2873 036c 0000 0000 		.long	.LM94
 2874 0370 16        		.byte	0x16
 2875 0371 00        		.byte	0x0
 2876 0372 05        		.uleb128 0x5
 2877 0373 02        		.byte	0x2
 2878 0374 0000 0000 		.long	.LM95
 2879 0378 16        		.byte	0x16
 2880 0379 00        		.byte	0x0
 2881 037a 05        		.uleb128 0x5
 2882 037b 02        		.byte	0x2
 2883 037c 0000 0000 		.long	.LM96
 2884 0380 16        		.byte	0x16
 2885 0381 00        		.byte	0x0
 2886 0382 05        		.uleb128 0x5
 2887 0383 02        		.byte	0x2
 2888 0384 0000 0000 		.long	.LM97
 2889 0388 15        		.byte	0x15
 2890 0389 00        		.byte	0x0
 2891 038a 05        		.uleb128 0x5
 2892 038b 02        		.byte	0x2
 2893 038c 0000 0000 		.long	.LM98
 2894 0390 15        		.byte	0x15
 2895 0391 00        		.byte	0x0
 2896 0392 05        		.uleb128 0x5
 2897 0393 02        		.byte	0x2
 2898 0394 0000 0000 		.long	.LM99
 2899 0398 16        		.byte	0x16
 2900 0399 00        		.byte	0x0
 2901 039a 05        		.uleb128 0x5
 2902 039b 02        		.byte	0x2
 2903 039c 0000 0000 		.long	.LM100
 2904 03a0 18        		.byte	0x18
 2905 03a1 00        		.byte	0x0
 2906 03a2 05        		.uleb128 0x5
 2907 03a3 02        		.byte	0x2
 2908 03a4 0000 0000 		.long	.LM101
 2909 03a8 15        		.byte	0x15
 2910 03a9 00        		.byte	0x0
 2911 03aa 05        		.uleb128 0x5
 2912 03ab 02        		.byte	0x2
 2913 03ac 0000 0000 		.long	.LM102
 2914 03b0 15        		.byte	0x15
 2915 03b1 00        		.byte	0x0
 2916 03b2 05        		.uleb128 0x5
 2917 03b3 02        		.byte	0x2
 2918 03b4 0000 0000 		.long	.LM103
 2919 03b8 16        		.byte	0x16
 2920 03b9 00        		.byte	0x0
 2921 03ba 05        		.uleb128 0x5
 2922 03bb 02        		.byte	0x2
 2923 03bc 0000 0000 		.long	.LM104
 2924 03c0 16        		.byte	0x16
GAS LISTING C:\Users\ADMINI~1\AppData\Local\Temp/ccxu9E7s.s 			page 53


 2925 03c1 00        		.byte	0x0
 2926 03c2 05        		.uleb128 0x5
 2927 03c3 02        		.byte	0x2
 2928 03c4 0000 0000 		.long	.LM105
 2929 03c8 15        		.byte	0x15
 2930 03c9 00        		.byte	0x0
 2931 03ca 05        		.uleb128 0x5
 2932 03cb 02        		.byte	0x2
 2933 03cc 0000 0000 		.long	.LM106
 2934 03d0 16        		.byte	0x16
 2935 03d1 00        		.byte	0x0
 2936 03d2 05        		.uleb128 0x5
 2937 03d3 02        		.byte	0x2
 2938 03d4 0000 0000 		.long	.LM107
 2939 03d8 15        		.byte	0x15
 2940 03d9 00        		.byte	0x0
 2941 03da 05        		.uleb128 0x5
 2942 03db 02        		.byte	0x2
 2943 03dc 0000 0000 		.long	.LM108
 2944 03e0 1B        		.byte	0x1b
 2945 03e1 00        		.byte	0x0
 2946 03e2 05        		.uleb128 0x5
 2947 03e3 02        		.byte	0x2
 2948 03e4 0000 0000 		.long	.LM109
 2949 03e8 16        		.byte	0x16
 2950 03e9 00        		.byte	0x0
 2951 03ea 05        		.uleb128 0x5
 2952 03eb 02        		.byte	0x2
 2953 03ec 0000 0000 		.long	.LM110
 2954 03f0 15        		.byte	0x15
 2955 03f1 00        		.byte	0x0
 2956 03f2 05        		.uleb128 0x5
 2957 03f3 02        		.byte	0x2
 2958 03f4 0000 0000 		.long	.LM111
 2959 03f8 1B        		.byte	0x1b
 2960 03f9 00        		.byte	0x0
 2961 03fa 05        		.uleb128 0x5
 2962 03fb 02        		.byte	0x2
 2963 03fc 0000 0000 		.long	.Letext0
 2964 0400 00        		.byte	0x0
 2965 0401 01        		.uleb128 0x1
 2966 0402 01        		.byte	0x1
 2967               	.LELT0:
 2968 0403 1600 0000 		.section	.debug_str,"MS",@progbits,1
 2968      0200 1000 
 2968      0000 0101 
 2968      FB0E 0A00 
 2968      0101 0101 
 2969               	.LASF132:
 2970 0000 4B45 595F 		.string	"KEY_LSHIFT"
 2970      4C53 4849 
 2970      4654 00
 2971               	.LASF206:
 2972 000b 7072 6576 		.string	"prev"
 2972      00
 2973               	.LASF84:
 2974 0010 4B45 595F 		.string	"KEY_SLASH"
GAS LISTING C:\Users\ADMINI~1\AppData\Local\Temp/ccxu9E7s.s 			page 54


 2974      534C 4153 
 2974      4800 
 2975               	.LASF22:
 2976 001a 4B45 595F 		.string	"KEY_LALT_HANJA"
 2976      4C41 4C54 
 2976      5F48 414E 
 2976      4A41 00
 2977               	.LASF155:
 2978 0029 4B45 595F 		.string	"KEY_PLAY"
 2978      504C 4159 
 2978      00
 2979               	.LASF163:
 2980 0032 4B45 595F 		.string	"KEY_REC"
 2980      5245 4300 
 2981               	.LASF111:
 2982 003a 4B45 595F 		.string	"KEY_NUMLOCK"
 2982      4E55 4D4C 
 2982      4F43 4B00 
 2983               	.LASF20:
 2984 0046 4B45 595F 		.string	"KEY_RALT_HANJA"
 2984      5241 4C54 
 2984      5F48 414E 
 2984      4A41 00
 2985               	.LASF17:
 2986 0055 4B45 595F 		.string	"KEY_LSHIFT_HANGLE"
 2986      4C53 4849 
 2986      4654 5F48 
 2986      414E 474C 
 2986      4500 
 2987               	.LASF131:
 2988 0067 4B45 595F 		.string	"KEY_LCTRL"
 2988      4C43 5452 
 2988      4C00 
 2989               	.LASF95:
 2990 0071 4B45 595F 		.string	"KEY_F10"
 2990      4631 3000 
 2991               	.LASF96:
 2992 0079 4B45 595F 		.string	"KEY_F11"
 2992      4631 3100 
 2993               	.LASF97:
 2994 0081 4B45 595F 		.string	"KEY_F12"
 2994      4631 3200 
 2995               	.LASF173:
 2996 0089 4B45 595F 		.string	"KEY_F13"
 2996      4631 3300 
 2997               	.LASF174:
 2998 0091 4B45 595F 		.string	"KEY_F14"
 2998      4631 3400 
 2999               	.LASF175:
 3000 0099 4B45 595F 		.string	"KEY_F15"
 3000      4631 3500 
 3001               	.LASF176:
 3002 00a1 4B45 595F 		.string	"KEY_F16"
 3002      4631 3600 
 3003               	.LASF177:
 3004 00a9 4B45 595F 		.string	"KEY_F17"
 3004      4631 3700 
GAS LISTING C:\Users\ADMINI~1\AppData\Local\Temp/ccxu9E7s.s 			page 55


 3005               	.LASF178:
 3006 00b1 4B45 595F 		.string	"KEY_F18"
 3006      4631 3800 
 3007               	.LASF127:
 3008 00b9 4B45 595F 		.string	"KEY_KP_DOT"
 3008      4B50 5F44 
 3008      4F54 00
 3009               	.LASF154:
 3010 00c4 4B45 595F 		.string	"KEY_STOP"
 3010      5354 4F50 
 3010      00
 3011               	.LASF210:
 3012 00cd 6765 744C 		.string	"getLayer"
 3012      6179 6572 
 3012      00
 3013               	.LASF105:
 3014 00d6 4B45 595F 		.string	"KEY_END"
 3014      454E 4400 
 3015               	.LASF6:
 3016 00de 6C6F 6E67 		.string	"long long unsigned int"
 3016      206C 6F6E 
 3016      6720 756E 
 3016      7369 676E 
 3016      6564 2069 
 3017               	.LASF150:
 3018 00f5 4B45 595F 		.string	"KEY_WWW_REFRESH"
 3018      5757 575F 
 3018      5245 4652 
 3018      4553 4800 
 3019               	.LASF70:
 3020 0105 4B45 595F 		.string	"KEY_BKSP"
 3020      424B 5350 
 3020      00
 3021               	.LASF104:
 3022 010e 4B45 595F 		.string	"KEY_DEL"
 3022      4445 4C00 
 3023               	.LASF153:
 3024 0116 4B45 595F 		.string	"KEY_PREV_TRK"
 3024      5052 4556 
 3024      5F54 524B 
 3024      00
 3025               	.LASF79:
 3026 0123 4B45 595F 		.string	"KEY_COLON"
 3026      434F 4C4F 
 3026      4E00 
 3027               	.LASF15:
 3028 012d 4B45 595F 		.string	"KEY_RSHIFT_HANGLE"
 3028      5253 4849 
 3028      4654 5F48 
 3028      414E 474C 
 3028      4500 
 3029               	.LASF141:
 3030 013f 4B45 595F 		.string	"KEY_POWER"
 3030      504F 5745 
 3030      5200 
 3031               	.LASF11:
 3032 0149 4B45 595F 		.string	"KEY_FN_HANGLE"
GAS LISTING C:\Users\ADMINI~1\AppData\Local\Temp/ccxu9E7s.s 			page 56


 3032      464E 5F48 
 3032      414E 474C 
 3032      4500 
 3033               	.LASF159:
 3034 0157 4B45 595F 		.string	"KEY_MEDIA"
 3034      4D45 4449 
 3034      4100 
 3035               	.LASF7:
 3036 0161 6C6F 6E67 		.string	"long long int"
 3036      206C 6F6E 
 3036      6720 696E 
 3036      7400 
 3037               	.LASF1:
 3038 016f 7369 676E 		.string	"signed char"
 3038      6564 2063 
 3038      6861 7200 
 3039               	.LASF114:
 3040 017b 4B45 595F 		.string	"KEY_KP_MINUS"
 3040      4B50 5F4D 
 3040      494E 5553 
 3040      00
 3041               	.LASF157:
 3042 0188 4B45 595F 		.string	"KEY_VOL_UP"
 3042      564F 4C5F 
 3042      5550 00
 3043               	.LASF180:
 3044 0193 4B45 595F 		.string	"KEY_F20"
 3044      4632 3000 
 3045               	.LASF181:
 3046 019b 4B45 595F 		.string	"KEY_F21"
 3046      4632 3100 
 3047               	.LASF76:
 3048 01a3 4B45 595F 		.string	"KEY_RBR"
 3048      5242 5200 
 3049               	.LASF183:
 3050 01ab 4B45 595F 		.string	"KEY_F23"
 3050      4632 3300 
 3051               	.LASF156:
 3052 01b3 4B45 595F 		.string	"KEY_MUTE"
 3052      4D55 5445 
 3052      00
 3053               	.LASF5:
 3054 01bc 6C6F 6E67 		.string	"long int"
 3054      2069 6E74 
 3054      00
 3055               	.LASF147:
 3056 01c5 4B45 595F 		.string	"KEY_WWW_BACK"
 3056      5757 575F 
 3056      4241 434B 
 3056      00
 3057               	.LASF78:
 3058 01d2 4B45 595F 		.string	"KEY_Europe1"
 3058      4575 726F 
 3058      7065 3100 
 3059               	.LASF128:
 3060 01de 4B45 595F 		.string	"KEY_Europe2"
 3060      4575 726F 
GAS LISTING C:\Users\ADMINI~1\AppData\Local\Temp/ccxu9E7s.s 			page 57


 3060      7065 3200 
 3061               	.LASF112:
 3062 01ea 4B45 595F 		.string	"KEY_KP_SLASH"
 3062      4B50 5F53 
 3062      4C41 5348 
 3062      00
 3063               	.LASF107:
 3064 01f7 4B45 595F 		.string	"KEY_RIGHT"
 3064      5249 4748 
 3064      5400 
 3065               	.LASF196:
 3066 0201 4B45 595F 		.string	"KEY_LANG3"
 3066      4C41 4E47 
 3066      3300 
 3067               	.LASF197:
 3068 020b 4B45 595F 		.string	"KEY_LANG4"
 3068      4C41 4E47 
 3068      3400 
 3069               	.LASF198:
 3070 0215 4B45 595F 		.string	"KEY_LANG5"
 3070      4C41 4E47 
 3070      3500 
 3071               	.LASF199:
 3072 021f 4B45 595F 		.string	"KEY_LANG6"
 3072      4C41 4E47 
 3072      3600 
 3073               	.LASF200:
 3074 0229 4B45 595F 		.string	"KEY_LANG7"
 3074      4C41 4E47 
 3074      3700 
 3075               	.LASF81:
 3076 0233 4B45 595F 		.string	"KEY_HASH"
 3076      4841 5348 
 3076      00
 3077               	.LASF137:
 3078 023c 4B45 595F 		.string	"KEY_RALT"
 3078      5241 4C54 
 3078      00
 3079               	.LASF151:
 3080 0245 4B45 595F 		.string	"KEY_WWW_FAVORITE"
 3080      5757 575F 
 3080      4641 564F 
 3080      5249 5445 
 3080      00
 3081               	.LASF202:
 3082 0256 4B45 595F 		.string	"KEY_LANG9"
 3082      4C41 4E47 
 3082      3900 
 3083               	.LASF23:
 3084 0260 4B45 595F 		.string	"KEY_RCTRL_HANGLE"
 3084      5243 5452 
 3084      4C5F 4841 
 3084      4E47 4C45 
 3084      00
 3085               	.LASF230:
 3086 0271 6765 7443 		.string	"getCurrentMatrix"
 3086      7572 7265 
GAS LISTING C:\Users\ADMINI~1\AppData\Local\Temp/ccxu9E7s.s 			page 58


 3086      6E74 4D61 
 3086      7472 6978 
 3086      00
 3087               	.LASF168:
 3088 0282 4B45 595F 		.string	"KEY_extend"
 3088      6578 7465 
 3088      6E64 00
 3089               	.LASF75:
 3090 028d 4B45 595F 		.string	"KEY_LBR"
 3090      4C42 5200 
 3091               	.LASF14:
 3092 0295 4B45 595F 		.string	"KEY_FN2_HANJA"
 3092      464E 325F 
 3092      4841 4E4A 
 3092      4100 
 3093               	.LASF225:
 3094 02a3 474E 5520 		.string	"GNU C 4.3.3"
 3094      4320 342E 
 3094      332E 3300 
 3095               	.LASF98:
 3096 02af 4B45 595F 		.string	"KEY_PRNSCR"
 3096      5052 4E53 
 3096      4352 00
 3097               	.LASF106:
 3098 02ba 4B45 595F 		.string	"KEY_PGDN"
 3098      5047 444E 
 3098      00
 3099               	.LASF138:
 3100 02c3 4B45 595F 		.string	"KEY_RGUI"
 3100      5247 5549 
 3100      00
 3101               	.LASF146:
 3102 02cc 4B45 595F 		.string	"KEY_WWW_HOME"
 3102      5757 575F 
 3102      484F 4D45 
 3102      00
 3103               	.LASF18:
 3104 02d9 4B45 595F 		.string	"KEY_LSHIFT_HANJA"
 3104      4C53 4849 
 3104      4654 5F48 
 3104      414E 4A41 
 3104      00
 3105               	.LASF218:
 3106 02ea 5F69 7341 		.string	"_isAllKeyRelease"
 3106      6C6C 4B65 
 3106      7952 656C 
 3106      6561 7365 
 3106      00
 3107               	.LASF8:
 3108 02fb 756E 7369 		.string	"unsigned int"
 3108      676E 6564 
 3108      2069 6E74 
 3108      00
 3109               	.LASF136:
 3110 0308 4B45 595F 		.string	"KEY_RSHIFT"
 3110      5253 4849 
 3110      4654 00
GAS LISTING C:\Users\ADMINI~1\AppData\Local\Temp/ccxu9E7s.s 			page 59


 3111               	.LASF44:
 3112 0313 4B45 595F 		.string	"KEY_M"
 3112      4D00 
 3113               	.LASF99:
 3114 0319 4B45 595F 		.string	"KEY_SCRLCK"
 3114      5343 524C 
 3114      434B 00
 3115               	.LASF4:
 3116 0324 6C6F 6E67 		.string	"long unsigned int"
 3116      2075 6E73 
 3116      6967 6E65 
 3116      6420 696E 
 3116      7400 
 3117               	.LASF170:
 3118 0336 4B45 595F 		.string	"KEY_HANGLE"
 3118      4841 4E47 
 3118      4C45 00
 3119               	.LASF80:
 3120 0341 4B45 595F 		.string	"KEY_QUOTE"
 3120      5155 4F54 
 3120      4500 
 3121               	.LASF28:
 3122 034b 4B45 595F 		.string	"KEY_NONE"
 3122      4E4F 4E45 
 3122      00
 3123               	.LASF116:
 3124 0354 4B45 595F 		.string	"KEY_KP_ENTER"
 3124      4B50 5F45 
 3124      4E54 4552 
 3124      00
 3125               	.LASF54:
 3126 0361 4B45 595F 		.string	"KEY_W"
 3126      5700 
 3127               	.LASF101:
 3128 0367 4B45 595F 		.string	"KEY_INSERT"
 3128      494E 5345 
 3128      5254 00
 3129               	.LASF115:
 3130 0372 4B45 595F 		.string	"KEY_KP_PLUS"
 3130      4B50 5F50 
 3130      4C55 5300 
 3131               	.LASF2:
 3132 037e 7368 6F72 		.string	"short unsigned int"
 3132      7420 756E 
 3132      7369 676E 
 3132      6564 2069 
 3132      6E74 00
 3133               	.LASF85:
 3134 0391 4B45 595F 		.string	"KEY_CAPS"
 3134      4341 5053 
 3134      00
 3135               	.LASF222:
 3136 039a 7072 6576 		.string	"prevMatrix"
 3136      4D61 7472 
 3136      6978 00
 3137               	.LASF208:
 3138 03a5 7365 7443 		.string	"setCurrentMatrix"
GAS LISTING C:\Users\ADMINI~1\AppData\Local\Temp/ccxu9E7s.s 			page 60


 3138      7572 7265 
 3138      6E74 4D61 
 3138      7472 6978 
 3138      00
 3139               	.LASF224:
 3140 03b6 5F63 7572 		.string	"_currentLayer"
 3140      7265 6E74 
 3140      4C61 7965 
 3140      7200 
 3141               	.LASF83:
 3142 03c4 4B45 595F 		.string	"KEY_DOT"
 3142      444F 5400 
 3143               	.LASF221:
 3144 03cc 6D6F 646D 		.string	"modmask"
 3144      6173 6B00 
 3145               	.LASF165:
 3146 03d4 4B45 595F 		.string	"KEY_MINIMIZE"
 3146      4D49 4E49 
 3146      4D49 5A45 
 3146      00
 3147               	.LASF72:
 3148 03e1 4B45 595F 		.string	"KEY_SPACE"
 3148      5350 4143 
 3148      4500 
 3149               	.LASF142:
 3150 03eb 4B45 595F 		.string	"KEY_SLEEP"
 3150      534C 4545 
 3150      5000 
 3151               	.LASF211:
 3152 03f5 6B65 7969 		.string	"keyidx"
 3152      6478 00
 3153               	.LASF167:
 3154 03fc 4B45 595F 		.string	"KEY_Multimedia_end"
 3154      4D75 6C74 
 3154      696D 6564 
 3154      6961 5F65 
 3154      6E64 00
 3155               	.LASF31:
 3156 040f 4B45 595F 		.string	"KEY_ErrorUndefined"
 3156      4572 726F 
 3156      7255 6E64 
 3156      6566 696E 
 3156      6564 00
 3157               	.LASF149:
 3158 0422 4B45 595F 		.string	"KEY_WWW_STOP"
 3158      5757 575F 
 3158      5354 4F50 
 3158      00
 3159               	.LASF172:
 3160 042f 4B45 595F 		.string	"KEY_KP_EQUAL"
 3160      4B50 5F45 
 3160      5155 414C 
 3160      00
 3161               	.LASF217:
 3162 043c 6465 626F 		.string	"debounce"
 3162      756E 6365 
 3162      00
GAS LISTING C:\Users\ADMINI~1\AppData\Local\Temp/ccxu9E7s.s 			page 61


 3163               	.LASF67:
 3164 0445 4B45 595F 		.string	"KEY_0"
 3164      3000 
 3165               	.LASF58:
 3166 044b 4B45 595F 		.string	"KEY_1"
 3166      3100 
 3167               	.LASF59:
 3168 0451 4B45 595F 		.string	"KEY_2"
 3168      3200 
 3169               	.LASF60:
 3170 0457 4B45 595F 		.string	"KEY_3"
 3170      3300 
 3171               	.LASF61:
 3172 045d 4B45 595F 		.string	"KEY_4"
 3172      3400 
 3173               	.LASF62:
 3174 0463 4B45 595F 		.string	"KEY_5"
 3174      3500 
 3175               	.LASF63:
 3176 0469 4B45 595F 		.string	"KEY_6"
 3176      3600 
 3177               	.LASF64:
 3178 046f 4B45 595F 		.string	"KEY_7"
 3178      3700 
 3179               	.LASF65:
 3180 0475 4B45 595F 		.string	"KEY_8"
 3180      3800 
 3181               	.LASF66:
 3182 047b 4B45 595F 		.string	"KEY_9"
 3182      3900 
 3183               	.LASF73:
 3184 0481 4B45 595F 		.string	"KEY_MINUS"
 3184      4D49 4E55 
 3184      5300 
 3185               	.LASF143:
 3186 048b 4B45 595F 		.string	"KEY_WAKE"
 3186      5741 4B45 
 3186      00
 3187               	.LASF32:
 3188 0494 4B45 595F 		.string	"KEY_A"
 3188      4100 
 3189               	.LASF33:
 3190 049a 4B45 595F 		.string	"KEY_B"
 3190      4200 
 3191               	.LASF34:
 3192 04a0 4B45 595F 		.string	"KEY_C"
 3192      4300 
 3193               	.LASF35:
 3194 04a6 4B45 595F 		.string	"KEY_D"
 3194      4400 
 3195               	.LASF36:
 3196 04ac 4B45 595F 		.string	"KEY_E"
 3196      4500 
 3197               	.LASF37:
 3198 04b2 4B45 595F 		.string	"KEY_F"
 3198      4600 
 3199               	.LASF38:
GAS LISTING C:\Users\ADMINI~1\AppData\Local\Temp/ccxu9E7s.s 			page 62


 3200 04b8 4B45 595F 		.string	"KEY_G"
 3200      4700 
 3201               	.LASF39:
 3202 04be 4B45 595F 		.string	"KEY_H"
 3202      4800 
 3203               	.LASF40:
 3204 04c4 4B45 595F 		.string	"KEY_I"
 3204      4900 
 3205               	.LASF41:
 3206 04ca 4B45 595F 		.string	"KEY_J"
 3206      4A00 
 3207               	.LASF42:
 3208 04d0 4B45 595F 		.string	"KEY_K"
 3208      4B00 
 3209               	.LASF43:
 3210 04d6 4B45 595F 		.string	"KEY_L"
 3210      4C00 
 3211               	.LASF10:
 3212 04dc 4B45 595F 		.string	"KEY_dualAction"
 3212      6475 616C 
 3212      4163 7469 
 3212      6F6E 00
 3213               	.LASF45:
 3214 04eb 4B45 595F 		.string	"KEY_N"
 3214      4E00 
 3215               	.LASF46:
 3216 04f1 4B45 595F 		.string	"KEY_O"
 3216      4F00 
 3217               	.LASF47:
 3218 04f7 4B45 595F 		.string	"KEY_P"
 3218      5000 
 3219               	.LASF48:
 3220 04fd 4B45 595F 		.string	"KEY_Q"
 3220      5100 
 3221               	.LASF49:
 3222 0503 4B45 595F 		.string	"KEY_R"
 3222      5200 
 3223               	.LASF50:
 3224 0509 4B45 595F 		.string	"KEY_S"
 3224      5300 
 3225               	.LASF51:
 3226 050f 4B45 595F 		.string	"KEY_T"
 3226      5400 
 3227               	.LASF52:
 3228 0515 4B45 595F 		.string	"KEY_U"
 3228      5500 
 3229               	.LASF53:
 3230 051b 4B45 595F 		.string	"KEY_V"
 3230      5600 
 3231               	.LASF27:
 3232 0521 4B45 595F 		.string	"KEY_dualAction_end"
 3232      6475 616C 
 3232      4163 7469 
 3232      6F6E 5F65 
 3232      6E64 00
 3233               	.LASF55:
 3234 0534 4B45 595F 		.string	"KEY_X"
GAS LISTING C:\Users\ADMINI~1\AppData\Local\Temp/ccxu9E7s.s 			page 63


 3234      5800 
 3235               	.LASF56:
 3236 053a 4B45 595F 		.string	"KEY_Y"
 3236      5900 
 3237               	.LASF57:
 3238 0540 4B45 595F 		.string	"KEY_Z"
 3238      5A00 
 3239               	.LASF164:
 3240 0546 4B45 595F 		.string	"KEY_REWIND"
 3240      5245 5749 
 3240      4E44 00
 3241               	.LASF226:
 3242 0551 6B65 796D 		.string	"keymatrix.c"
 3242      6174 7269 
 3242      782E 6300 
 3243               	.LASF201:
 3244 055d 4B45 595F 		.string	"KEY_LANG8"
 3244      4C41 4E47 
 3244      3800 
 3245               	.LASF219:
 3246 0567 6475 616C 		.string	"dualActionMaskDown"
 3246      4163 7469 
 3246      6F6E 4D61 
 3246      736B 446F 
 3246      776E 00
 3247               	.LASF184:
 3248 057a 4B45 595F 		.string	"KEY_F24"
 3248      4632 3400 
 3249               	.LASF152:
 3250 0582 4B45 595F 		.string	"KEY_NEXT_TRK"
 3250      4E45 5854 
 3250      5F54 524B 
 3250      00
 3251               	.LASF24:
 3252 058f 4B45 595F 		.string	"KEY_RCTRL_HANJA"
 3252      5243 5452 
 3252      4C5F 4841 
 3252      4E4A 4100 
 3253               	.LASF26:
 3254 059f 4B45 595F 		.string	"KEY_LCTRL_HANJA"
 3254      4C43 5452 
 3254      4C5F 4841 
 3254      4E4A 4100 
 3255               	.LASF113:
 3256 05af 4B45 595F 		.string	"KEY_KP_AST"
 3256      4B50 5F41 
 3256      5354 00
 3257               	.LASF158:
 3258 05ba 4B45 595F 		.string	"KEY_VOL_DOWN"
 3258      564F 4C5F 
 3258      444F 574E 
 3258      00
 3259               	.LASF166:
 3260 05c7 4B45 595F 		.string	"KEY_EJECT"
 3260      454A 4543 
 3260      5400 
 3261               	.LASF216:
GAS LISTING C:\Users\ADMINI~1\AppData\Local\Temp/ccxu9E7s.s 			page 64


 3262 05d1 6465 626F 		.string	"debounceMAX"
 3262      756E 6365 
 3262      4D41 5800 
 3263               	.LASF139:
 3264 05dd 4B45 595F 		.string	"KEY_Modifiers_end"
 3264      4D6F 6469 
 3264      6669 6572 
 3264      735F 656E 
 3264      6400 
 3265               	.LASF0:
 3266 05ef 756E 7369 		.string	"unsigned char"
 3266      676E 6564 
 3266      2063 6861 
 3266      7200 
 3267               	.LASF162:
 3268 05fd 4B45 595F 		.string	"KEY_SCREENSAVE"
 3268      5343 5245 
 3268      454E 5341 
 3268      5645 00
 3269               	.LASF203:
 3270 060c 4B45 595F 		.string	"KEY_extend_end"
 3270      6578 7465 
 3270      6E64 5F65 
 3270      6E64 00
 3271               	.LASF179:
 3272 061b 4B45 595F 		.string	"KEY_F19"
 3272      4631 3900 
 3273               	.LASF82:
 3274 0623 4B45 595F 		.string	"KEY_COMMA"
 3274      434F 4D4D 
 3274      4100 
 3275               	.LASF25:
 3276 062d 4B45 595F 		.string	"KEY_LCTRL_HANGLE"
 3276      4C43 5452 
 3276      4C5F 4841 
 3276      4E47 4C45 
 3276      00
 3277               	.LASF204:
 3278 063e 6973 416C 		.string	"isAllKeyRelease"
 3278      6C4B 6579 
 3278      5265 6C65 
 3278      6173 6500 
 3279               	.LASF71:
 3280 064e 4B45 595F 		.string	"KEY_TAB"
 3280      5441 4200 
 3281               	.LASF3:
 3282 0656 7368 6F72 		.string	"short int"
 3282      7420 696E 
 3282      7400 
 3283               	.LASF223:
 3284 0660 6375 7272 		.string	"currentMatrix"
 3284      656E 744D 
 3284      6174 7269 
 3284      7800 
 3285               	.LASF109:
 3286 066e 4B45 595F 		.string	"KEY_DOWN"
 3286      444F 574E 
GAS LISTING C:\Users\ADMINI~1\AppData\Local\Temp/ccxu9E7s.s 			page 65


 3286      00
 3287               	.LASF21:
 3288 0677 4B45 595F 		.string	"KEY_LALT_HANGLE"
 3288      4C41 4C54 
 3288      5F48 414E 
 3288      474C 4500 
 3289               	.LASF74:
 3290 0687 4B45 595F 		.string	"KEY_EQUAL"
 3290      4551 5541 
 3290      4C00 
 3291               	.LASF209:
 3292 0691 6743 6C65 		.string	"gClearMatrix"
 3292      6172 4D61 
 3292      7472 6978 
 3292      00
 3293               	.LASF16:
 3294 069e 4B45 595F 		.string	"KEY_RSHIFT_HANJA"
 3294      5253 4849 
 3294      4654 5F48 
 3294      414E 4A41 
 3294      00
 3295               	.LASF100:
 3296 06af 4B45 595F 		.string	"KEY_PAUSE"
 3296      5041 5553 
 3296      4500 
 3297               	.LASF117:
 3298 06b9 4B45 595F 		.string	"KEY_KP_1"
 3298      4B50 5F31 
 3298      00
 3299               	.LASF118:
 3300 06c2 4B45 595F 		.string	"KEY_KP_2"
 3300      4B50 5F32 
 3300      00
 3301               	.LASF119:
 3302 06cb 4B45 595F 		.string	"KEY_KP_3"
 3302      4B50 5F33 
 3302      00
 3303               	.LASF103:
 3304 06d4 4B45 595F 		.string	"KEY_PGUP"
 3304      5047 5550 
 3304      00
 3305               	.LASF30:
 3306 06dd 4B45 595F 		.string	"KEY_POSTFail"
 3306      504F 5354 
 3306      4661 696C 
 3306      00
 3307               	.LASF122:
 3308 06ea 4B45 595F 		.string	"KEY_KP_6"
 3308      4B50 5F36 
 3308      00
 3309               	.LASF123:
 3310 06f3 4B45 595F 		.string	"KEY_KP_7"
 3310      4B50 5F37 
 3310      00
 3311               	.LASF124:
 3312 06fc 4B45 595F 		.string	"KEY_KP_8"
 3312      4B50 5F38 
GAS LISTING C:\Users\ADMINI~1\AppData\Local\Temp/ccxu9E7s.s 			page 66


 3312      00
 3313               	.LASF68:
 3314 0705 4B45 595F 		.string	"KEY_ENTER"
 3314      454E 5445 
 3314      5200 
 3315               	.LASF69:
 3316 070f 4B45 595F 		.string	"KEY_ESC"
 3316      4553 4300 
 3317               	.LASF13:
 3318 0717 4B45 595F 		.string	"KEY_FN2_HANGLE"
 3318      464E 325F 
 3318      4841 4E47 
 3318      4C45 00
 3319               	.LASF9:
 3320 0726 6368 6172 		.string	"char"
 3320      00
 3321               	.LASF169:
 3322 072b 4B45 595F 		.string	"KEY_HANJA"
 3322      4841 4E4A 
 3322      4100 
 3323               	.LASF121:
 3324 0735 4B45 595F 		.string	"KEY_KP_5"
 3324      4B50 5F35 
 3324      00
 3325               	.LASF220:
 3326 073e 6973 4265 		.string	"isBeyondFN"
 3326      796F 6E64 
 3326      464E 00
 3327               	.LASF126:
 3328 0749 4B45 595F 		.string	"KEY_KP_0"
 3328      4B50 5F30 
 3328      00
 3329               	.LASF125:
 3330 0752 4B45 595F 		.string	"KEY_KP_9"
 3330      4B50 5F39 
 3330      00
 3331               	.LASF213:
 3332 075b 6170 706C 		.string	"applyFN"
 3332      7946 4E00 
 3333               	.LASF120:
 3334 0763 4B45 595F 		.string	"KEY_KP_4"
 3334      4B50 5F34 
 3334      00
 3335               	.LASF144:
 3336 076c 4B45 595F 		.string	"KEY_EMAIL"
 3336      454D 4149 
 3336      4C00 
 3337               	.LASF212:
 3338 0776 6973 4C61 		.string	"isLazyLayer"
 3338      7A79 4C61 
 3338      7965 7200 
 3339               	.LASF171:
 3340 0782 4B45 595F 		.string	"KEY_KBD_POWER"
 3340      4B42 445F 
 3340      504F 5745 
 3340      5200 
 3341               	.LASF215:
GAS LISTING C:\Users\ADMINI~1\AppData\Local\Temp/ccxu9E7s.s 			page 67


 3342 0790 5F69 7345 		.string	"_isExtraFNDown"
 3342      7874 7261 
 3342      464E 446F 
 3342      776E 00
 3343               	.LASF135:
 3344 079f 4B45 595F 		.string	"KEY_RCTRL"
 3344      5243 5452 
 3344      4C00 
 3345               	.LASF229:
 3346 07a9 636C 6561 		.string	"clearMatrix"
 3346      724D 6174 
 3346      7269 7800 
 3347               	.LASF77:
 3348 07b5 4B45 595F 		.string	"KEY_BKSLASH"
 3348      424B 534C 
 3348      4153 4800 
 3349               	.LASF214:
 3350 07c1 6973 446F 		.string	"isDown"
 3350      776E 00
 3351               	.LASF160:
 3352 07c8 4B45 595F 		.string	"KEY_CALC"
 3352      4341 4C43 
 3352      00
 3353               	.LASF187:
 3354 07d1 4B45 595F 		.string	"KEY_INT1"
 3354      494E 5431 
 3354      00
 3355               	.LASF188:
 3356 07da 4B45 595F 		.string	"KEY_INT2"
 3356      494E 5432 
 3356      00
 3357               	.LASF189:
 3358 07e3 4B45 595F 		.string	"KEY_INT3"
 3358      494E 5433 
 3358      00
 3359               	.LASF190:
 3360 07ec 4B45 595F 		.string	"KEY_INT4"
 3360      494E 5434 
 3360      00
 3361               	.LASF191:
 3362 07f5 4B45 595F 		.string	"KEY_INT5"
 3362      494E 5435 
 3362      00
 3363               	.LASF192:
 3364 07fe 4B45 595F 		.string	"KEY_INT6"
 3364      494E 5436 
 3364      00
 3365               	.LASF193:
 3366 0807 4B45 595F 		.string	"KEY_INT7"
 3366      494E 5437 
 3366      00
 3367               	.LASF194:
 3368 0810 4B45 595F 		.string	"KEY_INT8"
 3368      494E 5438 
 3368      00
 3369               	.LASF195:
 3370 0819 4B45 595F 		.string	"KEY_INT9"
GAS LISTING C:\Users\ADMINI~1\AppData\Local\Temp/ccxu9E7s.s 			page 68


 3370      494E 5439 
 3370      00
 3371               	.LASF205:
 3372 0822 6765 744C 		.string	"getLiveMatrix"
 3372      6976 654D 
 3372      6174 7269 
 3372      7800 
 3373               	.LASF133:
 3374 0830 4B45 595F 		.string	"KEY_LALT"
 3374      4C41 4C54 
 3374      00
 3375               	.LASF12:
 3376 0839 4B45 595F 		.string	"KEY_FN_HANJA"
 3376      464E 5F48 
 3376      414E 4A41 
 3376      00
 3377               	.LASF87:
 3378 0846 4B45 595F 		.string	"KEY_F2"
 3378      4632 00
 3379               	.LASF88:
 3380 084d 4B45 595F 		.string	"KEY_F3"
 3380      4633 00
 3381               	.LASF89:
 3382 0854 4B45 595F 		.string	"KEY_F4"
 3382      4634 00
 3383               	.LASF90:
 3384 085b 4B45 595F 		.string	"KEY_F5"
 3384      4635 00
 3385               	.LASF91:
 3386 0862 4B45 595F 		.string	"KEY_F6"
 3386      4636 00
 3387               	.LASF92:
 3388 0869 4B45 595F 		.string	"KEY_F7"
 3388      4637 00
 3389               	.LASF93:
 3390 0870 4B45 595F 		.string	"KEY_F8"
 3390      4638 00
 3391               	.LASF228:
 3392 0877 7569 6E74 		.string	"uint8_t"
 3392      385F 7400 
 3393               	.LASF102:
 3394 087f 4B45 595F 		.string	"KEY_HOME"
 3394      484F 4D45 
 3394      00
 3395               	.LASF148:
 3396 0888 4B45 595F 		.string	"KEY_WWW_FORWARD"
 3396      5757 575F 
 3396      464F 5257 
 3396      4152 4400 
 3397               	.LASF227:
 3398 0898 443A 5C67 		.string	"D:\\git\\ps2avrU\\source"
 3398      6974 5C70 
 3398      7332 6176 
 3398      7255 5C73 
 3398      6F75 7263 
 3399               	.LASF129:
 3400 08ae 4B45 595F 		.string	"KEY_APPS"
GAS LISTING C:\Users\ADMINI~1\AppData\Local\Temp/ccxu9E7s.s 			page 69


 3400      4150 5053 
 3400      00
 3401               	.LASF145:
 3402 08b7 4B45 595F 		.string	"KEY_WWW_SEARCH"
 3402      5757 575F 
 3402      5345 4152 
 3402      4348 00
 3403               	.LASF110:
 3404 08c6 4B45 595F 		.string	"KEY_UP"
 3404      5550 00
 3405               	.LASF86:
 3406 08cd 4B45 595F 		.string	"KEY_F1"
 3406      4631 00
 3407               	.LASF161:
 3408 08d4 4B45 595F 		.string	"KEY_MYCOM"
 3408      4D59 434F 
 3408      4D00 
 3409               	.LASF186:
 3410 08de 4B45 595F 		.string	"KEY_EQUAL_SIGN"
 3410      4551 5541 
 3410      4C5F 5349 
 3410      474E 00
 3411               	.LASF29:
 3412 08ed 4B45 595F 		.string	"KEY_ErrorRollOver"
 3412      4572 726F 
 3412      7252 6F6C 
 3412      6C4F 7665 
 3412      7200 
 3413               	.LASF94:
 3414 08ff 4B45 595F 		.string	"KEY_F9"
 3414      4639 00
 3415               	.LASF207:
 3416 0906 6973 4D6F 		.string	"isModified"
 3416      6469 6669 
 3416      6564 00
 3417               	.LASF134:
 3418 0911 4B45 595F 		.string	"KEY_LGUI"
 3418      4C47 5549 
 3418      00
 3419               	.LASF19:
 3420 091a 4B45 595F 		.string	"KEY_RALT_HANGLE"
 3420      5241 4C54 
 3420      5F48 414E 
 3420      474C 4500 
 3421               	.LASF185:
 3422 092a 4B45 595F 		.string	"KEY_KP_COMMA"
 3422      4B50 5F43 
 3422      4F4D 4D41 
 3422      00
 3423               	.LASF140:
 3424 0937 4B45 595F 		.string	"KEY_Multimedia"
 3424      4D75 6C74 
 3424      696D 6564 
 3424      6961 00
 3425               	.LASF130:
 3426 0946 4B45 595F 		.string	"KEY_Modifiers"
 3426      4D6F 6469 
GAS LISTING C:\Users\ADMINI~1\AppData\Local\Temp/ccxu9E7s.s 			page 70


 3426      6669 6572 
 3426      7300 
 3427               	.LASF108:
 3428 0954 4B45 595F 		.string	"KEY_LEFT"
 3428      4C45 4654 
 3428      00
 3429               	.LASF182:
 3430 095d 4B45 595F 		.string	"KEY_F22"
 3430      4632 3200 
 3431               	.global __do_copy_data
 3432               	.global __do_clear_bss
GAS LISTING C:\Users\ADMINI~1\AppData\Local\Temp/ccxu9E7s.s 			page 71


DEFINED SYMBOLS
                            *ABS*:00000000 keymatrix.c
C:\Users\ADMINI~1\AppData\Local\Temp/ccxu9E7s.s:2      *ABS*:0000003f __SREG__
C:\Users\ADMINI~1\AppData\Local\Temp/ccxu9E7s.s:3      *ABS*:0000003e __SP_H__
C:\Users\ADMINI~1\AppData\Local\Temp/ccxu9E7s.s:4      *ABS*:0000003d __SP_L__
C:\Users\ADMINI~1\AppData\Local\Temp/ccxu9E7s.s:5      *ABS*:00000034 __CCP__
C:\Users\ADMINI~1\AppData\Local\Temp/ccxu9E7s.s:6      *ABS*:00000000 __tmp_reg__
C:\Users\ADMINI~1\AppData\Local\Temp/ccxu9E7s.s:7      *ABS*:00000001 __zero_reg__
C:\Users\ADMINI~1\AppData\Local\Temp/ccxu9E7s.s:18     .text:00000000 clearMatrix
                            *COM*:00000011 prevMatrix
                            *COM*:00000011 currentMatrix
C:\Users\ADMINI~1\AppData\Local\Temp/ccxu9E7s.s:741    .data:00000021 debounceMAX
C:\Users\ADMINI~1\AppData\Local\Temp/ccxu9E7s.s:52     .text:00000024 isAllKeyRelease
                             .bss:00000002 _isAllKeyRelease
C:\Users\ADMINI~1\AppData\Local\Temp/ccxu9E7s.s:87     .text:0000004a getCurrentMatrix
C:\Users\ADMINI~1\AppData\Local\Temp/ccxu9E7s.s:101    .text:00000050 getLiveMatrix
C:\Users\ADMINI~1\AppData\Local\Temp/ccxu9E7s.s:737    .data:00000020 debounce
C:\Users\ADMINI~1\AppData\Local\Temp/ccxu9E7s.s:291    .text:0000015c setCurrentMatrix
C:\Users\ADMINI~1\AppData\Local\Temp/ccxu9E7s.s:320    .text:0000017a getLayer
C:\Users\ADMINI~1\AppData\Local\Temp/ccxu9E7s.s:712    .bss:00000001 _currentLayer
C:\Users\ADMINI~1\AppData\Local\Temp/ccxu9E7s.s:743    .bss:00000003 isLazyLayer.2280
C:\Users\ADMINI~1\AppData\Local\Temp/ccxu9E7s.s:706    .bss:00000000 isBeyondFN
C:\Users\ADMINI~1\AppData\Local\Temp/ccxu9E7s.s:582    .text:000002f6 applyFN
C:\Users\ADMINI~1\AppData\Local\Temp/ccxu9E7s.s:744    .bss:00000004 _isExtraFNDown
C:\Users\ADMINI~1\AppData\Local\Temp/ccxu9E7s.s:718    .data:00000000 modmask

UNDEFINED SYMBOLS
_delay_us_m
startKeyMapping
enterFrameForMapper
isReadyKeyMappingOnBoot
getCurrentKeycode
dualActionMaskDown
setDualAction
applyKeyDownForFullLED
getLEDState
changeFullLedState
increaseLedBrightness
reduceLedBrightness
__do_copy_data
__do_clear_bss
