GAS LISTING C:\Users\ADMINI~1\AppData\Local\Temp/ccqPtjCc.s 			page 1


   1               		.file	"keymap.c"
   2               	__SREG__ = 0x3f
   3               	__SP_H__ = 0x3e
   4               	__SP_L__ = 0x3d
   5               	__CCP__  = 0x34
   6               	__tmp_reg__ = 0
   7               	__zero_reg__ = 1
   8               		.section	.debug_abbrev,"",@progbits
   9               	.Ldebug_abbrev0:
  10               		.section	.debug_info,"",@progbits
  11               	.Ldebug_info0:
  12               		.section	.debug_line,"",@progbits
  13               	.Ldebug_line0:
  14               		.text
  15               	.Ltext0:
  16               	.global	isCanceledDualAction
  17               		.type	isCanceledDualAction, @function
  18               	isCanceledDualAction:
  19               	.LFB8:
  20               	.LM1:
  21               	/* prologue: function */
  22               	/* frame size = 0 */
  23               	.LM2:
  24 0000 8091 0000 		lds r24,_isCanceledDualAction
  25               	/* epilogue start */
  26 0004 0895      		ret
  27               	.LFE8:
  28               		.size	isCanceledDualAction, .-isCanceledDualAction
  29               	.global	getDualActionDownKeyIdex
  30               		.type	getDualActionDownKeyIdex, @function
  31               	getDualActionDownKeyIdex:
  32               	.LFB12:
  33               	.LM3:
  34               	.LVL0:
  35               	/* prologue: function */
  36               	/* frame size = 0 */
  37 0006 E82F      		mov r30,r24
  38               	.LM4:
  39 0008 865D      		subi r24,lo8(-(42))
  40               	.LVL1:
  41 000a 8031      		cpi r24,lo8(16)
  42 000c 00F4      		brsh .L4
  43 000e 8091 0000 		lds r24,_isCanceledDualAction
  44 0012 8823      		tst r24
  45 0014 01F0      		breq .L4
  46               	.LM5:
  47 0016 F0E0      		ldi r31,lo8(0)
  48               	.LVL2:
  49 0018 E050      		subi r30,lo8(-(dualActionMaskDown-214))
  50 001a F040      		sbci r31,hi8(-(dualActionMaskDown-214))
  51               	.LVL3:
  52 001c E081      		ld r30,Z
  53               	.LVL4:
  54               	.L4:
  55               	.LM6:
  56 001e 8E2F      		mov r24,r30
  57               	/* epilogue start */
GAS LISTING C:\Users\ADMINI~1\AppData\Local\Temp/ccqPtjCc.s 			page 2


  58 0020 0895      		ret
  59               	.LFE12:
  60               		.size	getDualActionDownKeyIdex, .-getDualActionDownKeyIdex
  61               	.global	getKeyCode
  62               		.type	getKeyCode, @function
  63               	getKeyCode:
  64               	.LFB13:
  65               	.LM7:
  66               	.LVL5:
  67               	/* prologue: function */
  68               	/* frame size = 0 */
  69               	.LBB22:
  70               	.LM8:
  71 0022 91E1      		ldi r25,lo8(17)
  72 0024 899F      		mul r24,r25
  73 0026 C001      		movw r24,r0
  74 0028 1124      		clr r1
  75               	.LVL6:
  76 002a 860F      		add r24,r22
  77 002c 911D      		adc r25,__zero_reg__
  78 002e 23E0      		ldi r18,3
  79 0030 880F      	1:	lsl r24
  80 0032 991F      		rol r25
  81 0034 2A95      		dec r18
  82 0036 01F4      		brne 1b
  83 0038 840F      		add r24,r20
  84 003a 911D      		adc r25,__zero_reg__
  85 003c E091 0000 		lds r30,keymapAddress
  86 0040 F091 0000 		lds r31,(keymapAddress)+1
  87 0044 E80F      		add r30,r24
  88 0046 F91F      		adc r31,r25
  89               	/* #APP */
  90               	 ;  215 "keymap.c" 1
  91 0048 E491      		lpm r30, Z
  92               		
  93               	 ;  0 "" 2
  94               	.LVL7:
  95               	/* #NOAPP */
  96               	.LBE22:
  97               	.LM9:
  98 004a 8E2F      		mov r24,r30
  99               	/* epilogue start */
 100 004c 0895      		ret
 101               	.LFE13:
 102               		.size	getKeyCode, .-getKeyCode
 103               	.global	setDualAction
 104               		.type	setDualAction, @function
 105               	setDualAction:
 106               	.LFB11:
 107               	.LM10:
 108               	.LVL8:
 109 004e 1F93      		push r17
 110               	/* prologue: function */
 111               	/* frame size = 0 */
 112 0050 982F      		mov r25,r24
 113 0052 865D      		subi r24,lo8(-(42))
 114               	.LVL9:
GAS LISTING C:\Users\ADMINI~1\AppData\Local\Temp/ccqPtjCc.s 			page 3


 115               	.LM11:
 116 0054 6623      		tst r22
 117 0056 01F0      		breq .L9
 118               	.LM12:
 119 0058 8031      		cpi r24,lo8(16)
 120 005a 00F4      		brsh .L10
 121               	.LM13:
 122 005c 8091 0000 		lds r24,_dualActionCount
 123 0060 8F5F      		subi r24,lo8(-(1))
 124 0062 8093 0000 		sts _dualActionCount,r24
 125               	.LM14:
 126 0066 8091 0000 		lds r24,_isActiveDualAction
 127 006a 8823      		tst r24
 128 006c 01F4      		brne .L15
 129               	.LM15:
 130 006e 9093 0000 		sts dualActionKeyIndex,r25
 131               	.LM16:
 132 0072 81E0      		ldi r24,lo8(1)
 133 0074 8093 0000 		sts _isActiveDualAction,r24
 134               	.LM17:
 135 0078 1092 0000 		sts _isCanceledDualAction,__zero_reg__
 136 007c 00C0      		rjmp .L14
 137               	.L10:
 138               	.LM18:
 139 007e 8091 0000 		lds r24,dualActionKeyIndex
 140 0082 8823      		tst r24
 141 0084 01F0      		breq .L14
 142               	.L15:
 143               	.LM19:
 144 0086 81E0      		ldi r24,lo8(1)
 145 0088 8093 0000 		sts _isCanceledDualAction,r24
 146 008c 00C0      		rjmp .L14
 147               	.L9:
 148               	.LM20:
 149 008e 8031      		cpi r24,lo8(16)
 150 0090 00F4      		brsh .L14
 151               	.LM21:
 152 0092 8091 0000 		lds r24,_dualActionCount
 153 0096 8150      		subi r24,lo8(-(-1))
 154 0098 8093 0000 		sts _dualActionCount,r24
 155               	.LBB23:
 156               	.LBB24:
 157               	.LM22:
 158 009c E091 0000 		lds r30,dualActionKeyIndex
 159 00a0 EE23      		tst r30
 160 00a2 01F0      		breq .L13
 161 00a4 8091 0000 		lds r24,_isCanceledDualAction
 162 00a8 8823      		tst r24
 163 00aa 01F4      		brne .L13
 164               	.LBB25:
 165               	.LM23:
 166 00ac F0E0      		ldi r31,lo8(0)
 167 00ae E050      		subi r30,lo8(-(dualActionMaskUp-214))
 168 00b0 F040      		sbci r31,hi8(-(dualActionMaskUp-214))
 169 00b2 1081      		ld r17,Z
 170               	.LVL10:
 171               	.LM24:
GAS LISTING C:\Users\ADMINI~1\AppData\Local\Temp/ccqPtjCc.s 			page 4


 172 00b4 812F      		mov r24,r17
 173 00b6 0E94 0000 		call pushM
 174               	.LVL11:
 175               	.LM25:
 176 00ba 812F      		mov r24,r17
 177 00bc 0E94 0000 		call pushM
 178               	.LM26:
 179 00c0 1092 0000 		sts dualActionKeyIndex,__zero_reg__
 180               	.LBE25:
 181               	.LBE24:
 182               	.LM27:
 183 00c4 0E94 0000 		call isMacroInput
 184               	.LBB27:
 185               	.LBB26:
 186 00c8 8823      		tst r24
 187 00ca 01F0      		breq .L13
 188               	.LM28:
 189 00cc 812F      		mov r24,r17
 190 00ce 60E0      		ldi r22,lo8(0)
 191 00d0 40E0      		ldi r20,lo8(0)
 192 00d2 21E0      		ldi r18,lo8(1)
 193 00d4 0E94 0000 		call putKeyCode
 194               	.LM29:
 195 00d8 812F      		mov r24,r17
 196 00da 60E0      		ldi r22,lo8(0)
 197 00dc 40E0      		ldi r20,lo8(0)
 198 00de 20E0      		ldi r18,lo8(0)
 199 00e0 0E94 0000 		call putKeyCode
 200               	.LVL12:
 201               	.L13:
 202               	.LBE26:
 203               	.LM30:
 204 00e4 8091 0000 		lds r24,_dualActionCount
 205 00e8 8823      		tst r24
 206 00ea 01F4      		brne .L14
 207 00ec 1092 0000 		sts _isActiveDualAction,__zero_reg__
 208               	.L14:
 209               	/* epilogue start */
 210               	.LBE27:
 211               	.LBE23:
 212               	.LM31:
 213 00f0 1F91      		pop r17
 214               	.LVL13:
 215 00f2 0895      		ret
 216               	.LFE11:
 217               		.size	setDualAction, .-setDualAction
 218               	.global	applyDualActionDown
 219               		.type	applyDualActionDown, @function
 220               	applyDualActionDown:
 221               	.LFB9:
 222               	.LM32:
 223               	.LVL14:
 224               	/* prologue: function */
 225               	/* frame size = 0 */
 226 00f4 9C01      		movw r18,r24
 227               	.LM33:
 228 00f6 E091 0000 		lds r30,dualActionKeyIndex
GAS LISTING C:\Users\ADMINI~1\AppData\Local\Temp/ccqPtjCc.s 			page 5


 229               	.LVL15:
 230 00fa EE23      		tst r30
 231 00fc 01F0      		breq .L21
 232               	.LVL16:
 233 00fe 8091 0000 		lds r24,_isCanceledDualAction
 234 0102 8823      		tst r24
 235 0104 01F0      		breq .L21
 236               	.LBB28:
 237               	.LBB29:
 238               	.LM34:
 239 0106 8E2F      		mov r24,r30
 240 0108 865D      		subi r24,lo8(-(42))
 241 010a 8031      		cpi r24,lo8(16)
 242 010c 00F4      		brsh .L18
 243               	.LM35:
 244 010e F0E0      		ldi r31,lo8(0)
 245               	.LVL17:
 246 0110 E050      		subi r30,lo8(-(dualActionMaskDown-214))
 247 0112 F040      		sbci r31,hi8(-(dualActionMaskDown-214))
 248               	.LVL18:
 249 0114 E081      		ld r30,Z
 250               	.LVL19:
 251               	.L18:
 252               	.LBE29:
 253               	.LBE28:
 254               	.LM36:
 255 0116 8E2F      		mov r24,r30
 256 0118 F901      		movw r30,r18
 257 011a 0995      		icall
 258               	.LVL20:
 259               	.LM37:
 260 011c 0E94 0000 		call isMacroInput
 261 0120 8823      		tst r24
 262 0122 01F0      		breq .L19
 263               	.LM38:
 264 0124 E091 0000 		lds r30,dualActionKeyIndex
 265               	.LVL21:
 266               	.LBB30:
 267               	.LBB31:
 268               	.LM39:
 269 0128 8E2F      		mov r24,r30
 270 012a 865D      		subi r24,lo8(-(42))
 271 012c 8031      		cpi r24,lo8(16)
 272 012e 00F4      		brsh .L20
 273 0130 8091 0000 		lds r24,_isCanceledDualAction
 274 0134 8823      		tst r24
 275 0136 01F0      		breq .L20
 276               	.LM40:
 277 0138 F0E0      		ldi r31,lo8(0)
 278               	.LVL22:
 279 013a E050      		subi r30,lo8(-(dualActionMaskDown-214))
 280 013c F040      		sbci r31,hi8(-(dualActionMaskDown-214))
 281               	.LVL23:
 282 013e E081      		ld r30,Z
 283               	.LVL24:
 284               	.L20:
 285               	.LBE31:
GAS LISTING C:\Users\ADMINI~1\AppData\Local\Temp/ccqPtjCc.s 			page 6


 286               	.LBE30:
 287               	.LM41:
 288 0140 8E2F      		mov r24,r30
 289 0142 60E0      		ldi r22,lo8(0)
 290 0144 40E0      		ldi r20,lo8(0)
 291 0146 21E0      		ldi r18,lo8(1)
 292 0148 0E94 0000 		call putKeyCode
 293               	.LVL25:
 294               	.L19:
 295               	.LM42:
 296 014c 1092 0000 		sts dualActionKeyIndex,__zero_reg__
 297               	.LVL26:
 298               	.L21:
 299 0150 0895      		ret
 300               	.LFE9:
 301               		.size	applyDualActionDown, .-applyDualActionDown
 302               	.global	dualActionMaskDown
 303               		.data
 304               		.type	dualActionMaskDown, @object
 305               		.size	dualActionMaskDown, 16
 306               	dualActionMaskDown:
 307 0000 FE        		.byte	-2
 308 0001 FE        		.byte	-2
 309 0002 F8        		.byte	-8
 310 0003 F8        		.byte	-8
 311 0004 6C        		.byte	108
 312 0005 6C        		.byte	108
 313 0006 68        		.byte	104
 314 0007 68        		.byte	104
 315 0008 6D        		.byte	109
 316 0009 6D        		.byte	109
 317 000a 69        		.byte	105
 318 000b 69        		.byte	105
 319 000c 6B        		.byte	107
 320 000d 6B        		.byte	107
 321 000e 67        		.byte	103
 322 000f 67        		.byte	103
 323               	.global	dualActionMaskUp
 324               		.type	dualActionMaskUp, @object
 325               		.size	dualActionMaskUp, 16
 326               	dualActionMaskUp:
 327 0010 8E        		.byte	-114
 328 0011 8D        		.byte	-115
 329 0012 8E        		.byte	-114
 330 0013 8D        		.byte	-115
 331 0014 8E        		.byte	-114
 332 0015 8D        		.byte	-115
 333 0016 8E        		.byte	-114
 334 0017 8D        		.byte	-115
 335 0018 8E        		.byte	-114
 336 0019 8D        		.byte	-115
 337 001a 8E        		.byte	-114
 338 001b 8D        		.byte	-115
 339 001c 8E        		.byte	-114
 340 001d 8D        		.byte	-115
 341 001e 8E        		.byte	-114
 342 001f 8D        		.byte	-115
GAS LISTING C:\Users\ADMINI~1\AppData\Local\Temp/ccqPtjCc.s 			page 7


 343               	.global	dualActionKeyIndex
 344               	.global	dualActionKeyIndex
 345               		.section .bss
 346               		.type	dualActionKeyIndex, @object
 347               		.size	dualActionKeyIndex, 1
 348               	dualActionKeyIndex:
 349 0000 00        		.skip 1,0
 350               	.global	keycode_set2
 351               		.section	.progmem.data,"a",@progbits
 352               		.type	keycode_set2, @object
 353               		.size	keycode_set2, 176
 354               	keycode_set2:
 355 0000 00        		.byte	0
 356 0001 00        		.byte	0
 357 0002 FC        		.byte	-4
 358 0003 00        		.byte	0
 359 0004 1C        		.byte	28
 360 0005 32        		.byte	50
 361 0006 21        		.byte	33
 362 0007 23        		.byte	35
 363 0008 24        		.byte	36
 364 0009 2B        		.byte	43
 365 000a 34        		.byte	52
 366 000b 33        		.byte	51
 367 000c 43        		.byte	67
 368 000d 3B        		.byte	59
 369 000e 42        		.byte	66
 370 000f 4B        		.byte	75
 371 0010 3A        		.byte	58
 372 0011 31        		.byte	49
 373 0012 44        		.byte	68
 374 0013 4D        		.byte	77
 375 0014 15        		.byte	21
 376 0015 2D        		.byte	45
 377 0016 1B        		.byte	27
 378 0017 2C        		.byte	44
 379 0018 3C        		.byte	60
 380 0019 2A        		.byte	42
 381 001a 1D        		.byte	29
 382 001b 22        		.byte	34
 383 001c 35        		.byte	53
 384 001d 1A        		.byte	26
 385 001e 16        		.byte	22
 386 001f 1E        		.byte	30
 387 0020 26        		.byte	38
 388 0021 25        		.byte	37
 389 0022 2E        		.byte	46
 390 0023 36        		.byte	54
 391 0024 3D        		.byte	61
 392 0025 3E        		.byte	62
 393 0026 46        		.byte	70
 394 0027 45        		.byte	69
 395 0028 5A        		.byte	90
 396 0029 76        		.byte	118
 397 002a 66        		.byte	102
 398 002b 0D        		.byte	13
 399 002c 29        		.byte	41
GAS LISTING C:\Users\ADMINI~1\AppData\Local\Temp/ccqPtjCc.s 			page 8


 400 002d 4E        		.byte	78
 401 002e 55        		.byte	85
 402 002f 54        		.byte	84
 403 0030 5B        		.byte	91
 404 0031 5D        		.byte	93
 405 0032 5D        		.byte	93
 406 0033 4C        		.byte	76
 407 0034 52        		.byte	82
 408 0035 0E        		.byte	14
 409 0036 41        		.byte	65
 410 0037 49        		.byte	73
 411 0038 4A        		.byte	74
 412 0039 58        		.byte	88
 413 003a 05        		.byte	5
 414 003b 06        		.byte	6
 415 003c 04        		.byte	4
 416 003d 0C        		.byte	12
 417 003e 03        		.byte	3
 418 003f 0B        		.byte	11
 419 0040 83        		.byte	-125
 420 0041 0A        		.byte	10
 421 0042 01        		.byte	1
 422 0043 09        		.byte	9
 423 0044 78        		.byte	120
 424 0045 07        		.byte	7
 425 0046 7C        		.byte	124
 426 0047 7E        		.byte	126
 427 0048 7C        		.byte	124
 428 0049 70        		.byte	112
 429 004a 6C        		.byte	108
 430 004b 7D        		.byte	125
 431 004c 71        		.byte	113
 432 004d 69        		.byte	105
 433 004e 7A        		.byte	122
 434 004f 74        		.byte	116
 435 0050 6B        		.byte	107
 436 0051 72        		.byte	114
 437 0052 75        		.byte	117
 438 0053 77        		.byte	119
 439 0054 4A        		.byte	74
 440 0055 7C        		.byte	124
 441 0056 7B        		.byte	123
 442 0057 79        		.byte	121
 443 0058 5A        		.byte	90
 444 0059 69        		.byte	105
 445 005a 72        		.byte	114
 446 005b 7A        		.byte	122
 447 005c 6B        		.byte	107
 448 005d 73        		.byte	115
 449 005e 74        		.byte	116
 450 005f 6C        		.byte	108
 451 0060 75        		.byte	117
 452 0061 7D        		.byte	125
 453 0062 70        		.byte	112
 454 0063 71        		.byte	113
 455 0064 61        		.byte	97
 456 0065 2F        		.byte	47
GAS LISTING C:\Users\ADMINI~1\AppData\Local\Temp/ccqPtjCc.s 			page 9


 457 0066 00        		.byte	0
 458 0067 14        		.byte	20
 459 0068 12        		.byte	18
 460 0069 11        		.byte	17
 461 006a 1F        		.byte	31
 462 006b 14        		.byte	20
 463 006c 59        		.byte	89
 464 006d 11        		.byte	17
 465 006e 27        		.byte	39
 466 006f 00        		.byte	0
 467 0070 00        		.byte	0
 468 0071 37        		.byte	55
 469 0072 3F        		.byte	63
 470 0073 5E        		.byte	94
 471 0074 48        		.byte	72
 472 0075 10        		.byte	16
 473 0076 3A        		.byte	58
 474 0077 38        		.byte	56
 475 0078 30        		.byte	48
 476 0079 28        		.byte	40
 477 007a 20        		.byte	32
 478 007b 18        		.byte	24
 479 007c 4D        		.byte	77
 480 007d 15        		.byte	21
 481 007e 3B        		.byte	59
 482 007f 34        		.byte	52
 483 0080 23        		.byte	35
 484 0081 32        		.byte	50
 485 0082 21        		.byte	33
 486 0083 50        		.byte	80
 487 0084 2B        		.byte	43
 488 0085 40        		.byte	64
 489 0086 4B        		.byte	75
 490 0087 1C        		.byte	28
 491 0088 43        		.byte	67
 492 0089 22        		.byte	34
 493 008a 1D        		.byte	29
 494 008b 00        		.byte	0
 495 008c 00        		.byte	0
 496 008d F1        		.byte	-15
 497 008e F2        		.byte	-14
 498 008f 37        		.byte	55
 499 0090 0F        		.byte	15
 500 0091 08        		.byte	8
 501 0092 10        		.byte	16
 502 0093 18        		.byte	24
 503 0094 20        		.byte	32
 504 0095 28        		.byte	40
 505 0096 30        		.byte	48
 506 0097 38        		.byte	56
 507 0098 40        		.byte	64
 508 0099 48        		.byte	72
 509 009a 50        		.byte	80
 510 009b 57        		.byte	87
 511 009c 5F        		.byte	95
 512 009d 6D        		.byte	109
 513 009e 00        		.byte	0
GAS LISTING C:\Users\ADMINI~1\AppData\Local\Temp/ccqPtjCc.s 			page 10


 514 009f 51        		.byte	81
 515 00a0 13        		.byte	19
 516 00a1 6A        		.byte	106
 517 00a2 64        		.byte	100
 518 00a3 67        		.byte	103
 519 00a4 27        		.byte	39
 520 00a5 00        		.byte	0
 521 00a6 00        		.byte	0
 522 00a7 00        		.byte	0
 523 00a8 63        		.byte	99
 524 00a9 62        		.byte	98
 525 00aa 5F        		.byte	95
 526 00ab 00        		.byte	0
 527 00ac 00        		.byte	0
 528 00ad 00        		.byte	0
 529 00ae 00        		.byte	0
 530 00af 00        		.byte	0
 531               	.global	keycode_USB_multimedia
 532               		.type	keycode_USB_multimedia, @object
 533               		.size	keycode_USB_multimedia, 52
 534               	keycode_USB_multimedia:
 535 00b0 0000      		.word	0
 536 00b2 0000      		.word	0
 537 00b4 0000      		.word	0
 538 00b6 8A01      		.word	394
 539 00b8 2102      		.word	545
 540 00ba 2302      		.word	547
 541 00bc 2402      		.word	548
 542 00be 2502      		.word	549
 543 00c0 2602      		.word	550
 544 00c2 2702      		.word	551
 545 00c4 2A02      		.word	554
 546 00c6 B500      		.word	181
 547 00c8 B600      		.word	182
 548 00ca B700      		.word	183
 549 00cc CD00      		.word	205
 550 00ce E200      		.word	226
 551 00d0 E900      		.word	233
 552 00d2 EA00      		.word	234
 553 00d4 8301      		.word	387
 554 00d6 9201      		.word	402
 555 00d8 9401      		.word	404
 556 00da 0000      		.word	0
 557 00dc 0000      		.word	0
 558 00de 0000      		.word	0
 559 00e0 0000      		.word	0
 560 00e2 0000      		.word	0
 561               	.global	keycode_USB_extend
 562               		.type	keycode_USB_extend, @object
 563               		.size	keycode_USB_extend, 68
 564               	keycode_USB_extend:
 565 00e4 9100      		.word	145
 566 00e6 9000      		.word	144
 567 00e8 6600      		.word	102
 568 00ea 6700      		.word	103
 569 00ec 6800      		.word	104
 570 00ee 6900      		.word	105
GAS LISTING C:\Users\ADMINI~1\AppData\Local\Temp/ccqPtjCc.s 			page 11


 571 00f0 6A00      		.word	106
 572 00f2 6B00      		.word	107
 573 00f4 6C00      		.word	108
 574 00f6 6D00      		.word	109
 575 00f8 6E00      		.word	110
 576 00fa 6F00      		.word	111
 577 00fc 7000      		.word	112
 578 00fe 7100      		.word	113
 579 0100 7200      		.word	114
 580 0102 7300      		.word	115
 581 0104 8500      		.word	133
 582 0106 8600      		.word	134
 583 0108 8700      		.word	135
 584 010a 8800      		.word	136
 585 010c 8900      		.word	137
 586 010e 8A00      		.word	138
 587 0110 8B00      		.word	139
 588 0112 8C00      		.word	140
 589 0114 8D00      		.word	141
 590 0116 8E00      		.word	142
 591 0118 8F00      		.word	143
 592 011a 9200      		.word	146
 593 011c 9300      		.word	147
 594 011e 9400      		.word	148
 595 0120 9500      		.word	149
 596 0122 9600      		.word	150
 597 0124 9700      		.word	151
 598 0126 9800      		.word	152
 599               	.global	keycode_set2_special
 600               		.type	keycode_set2_special, @object
 601               		.size	keycode_set2_special, 3
 602               	keycode_set2_special:
 603 0128 46        		.byte	70
 604 0129 48        		.byte	72
 605 012a 00        		.byte	0
 606               	.global	keycode_set2_makeonly
 607               		.type	keycode_set2_makeonly, @object
 608               		.size	keycode_set2_makeonly, 4
 609               	keycode_set2_makeonly:
 610 012b 48        		.byte	72
 611 012c 8E        		.byte	-114
 612 012d 8D        		.byte	-115
 613 012e 00        		.byte	0
 614               	.global	keycode_set2_make_break
 615               		.type	keycode_set2_make_break, @object
 616               		.size	keycode_set2_make_break, 5
 617               	keycode_set2_make_break:
 618 012f 71        		.byte	113
 619 0130 72        		.byte	114
 620 0131 73        		.byte	115
 621 0132 8F        		.byte	-113
 622 0133 00        		.byte	0
 623               	.global	keycode_set2_extend
 624               		.type	keycode_set2_extend, @object
 625               		.size	keycode_set2_extend, 46
 626               	keycode_set2_extend:
 627 0134 6A        		.byte	106
GAS LISTING C:\Users\ADMINI~1\AppData\Local\Temp/ccqPtjCc.s 			page 12


 628 0135 6B        		.byte	107
 629 0136 6E        		.byte	110
 630 0137 6D        		.byte	109
 631 0138 65        		.byte	101
 632 0139 46        		.byte	70
 633 013a 49        		.byte	73
 634 013b 4A        		.byte	74
 635 013c 4B        		.byte	75
 636 013d 4C        		.byte	76
 637 013e 4D        		.byte	77
 638 013f 4E        		.byte	78
 639 0140 52        		.byte	82
 640 0141 50        		.byte	80
 641 0142 4F        		.byte	79
 642 0143 51        		.byte	81
 643 0144 54        		.byte	84
 644 0145 58        		.byte	88
 645 0146 71        		.byte	113
 646 0147 72        		.byte	114
 647 0148 73        		.byte	115
 648 0149 74        		.byte	116
 649 014a 75        		.byte	117
 650 014b 76        		.byte	118
 651 014c 77        		.byte	119
 652 014d 78        		.byte	120
 653 014e 79        		.byte	121
 654 014f 7A        		.byte	122
 655 0150 7B        		.byte	123
 656 0151 7C        		.byte	124
 657 0152 7D        		.byte	125
 658 0153 7E        		.byte	126
 659 0154 7F        		.byte	127
 660 0155 80        		.byte	-128
 661 0156 81        		.byte	-127
 662 0157 82        		.byte	-126
 663 0158 83        		.byte	-125
 664 0159 84        		.byte	-124
 665 015a 85        		.byte	-123
 666 015b 86        		.byte	-122
 667 015c 87        		.byte	-121
 668 015d 88        		.byte	-120
 669 015e 89        		.byte	-119
 670 015f 8A        		.byte	-118
 671 0160 8F        		.byte	-113
 672 0161 00        		.byte	0
 673               	.global	keycode_set2_proc_shift
 674               		.type	keycode_set2_proc_shift, @object
 675               		.size	keycode_set2_proc_shift, 15
 676               	keycode_set2_proc_shift:
 677 0162 49        		.byte	73
 678 0163 4C        		.byte	76
 679 0164 4A        		.byte	74
 680 0165 4D        		.byte	77
 681 0166 4B        		.byte	75
 682 0167 4E        		.byte	78
 683 0168 6A        		.byte	106
 684 0169 6E        		.byte	110
GAS LISTING C:\Users\ADMINI~1\AppData\Local\Temp/ccqPtjCc.s 			page 13


 685 016a 65        		.byte	101
 686 016b 50        		.byte	80
 687 016c 4F        		.byte	79
 688 016d 52        		.byte	82
 689 016e 51        		.byte	81
 690 016f 54        		.byte	84
 691 0170 00        		.byte	0
 692               	.global	keymapAddress
 693               		.data
 694               		.type	keymapAddress, @object
 695               		.size	keymapAddress, 2
 696               	keymapAddress:
 697 0020 0065      		.word	25856
 698               		.lcomm _dualActionCount,1
 699               		.lcomm _isActiveDualAction,1
 700               		.lcomm _isCanceledDualAction,1
 701               		.section	.debug_frame,"",@progbits
 702               	.Lframe0:
 703 0000 0C00 0000 		.long	.LECIE0-.LSCIE0
 704               	.LSCIE0:
 705 0004 FFFF FFFF 		.long	0xffffffff
 706 0008 01        		.byte	0x1
 707 0009 00        		.string	""
 708 000a 01        		.uleb128 0x1
 709 000b 7F        		.sleb128 -1
 710 000c 24        		.byte	0x24
 711 000d 0C        		.byte	0xc
 712 000e 20        		.uleb128 0x20
 713 000f 00        		.uleb128 0x0
 714               		.p2align	2
 715               	.LECIE0:
 716               	.LSFDE0:
 717 0010 0C00 0000 		.long	.LEFDE0-.LASFDE0
 718               	.LASFDE0:
 719 0014 0000 0000 		.long	.Lframe0
 720 0018 0000 0000 		.long	.LFB8
 721 001c 0600 0000 		.long	.LFE8-.LFB8
 722               		.p2align	2
 723               	.LEFDE0:
 724               	.LSFDE2:
 725 0020 0C00 0000 		.long	.LEFDE2-.LASFDE2
 726               	.LASFDE2:
 727 0024 0000 0000 		.long	.Lframe0
 728 0028 0000 0000 		.long	.LFB12
 729 002c 1C00 0000 		.long	.LFE12-.LFB12
 730               		.p2align	2
 731               	.LEFDE2:
 732               	.LSFDE4:
 733 0030 0C00 0000 		.long	.LEFDE4-.LASFDE4
 734               	.LASFDE4:
 735 0034 0000 0000 		.long	.Lframe0
 736 0038 0000 0000 		.long	.LFB13
 737 003c 2C00 0000 		.long	.LFE13-.LFB13
 738               		.p2align	2
 739               	.LEFDE4:
 740               	.LSFDE6:
 741 0040 0C00 0000 		.long	.LEFDE6-.LASFDE6
GAS LISTING C:\Users\ADMINI~1\AppData\Local\Temp/ccqPtjCc.s 			page 14


 742               	.LASFDE6:
 743 0044 0000 0000 		.long	.Lframe0
 744 0048 0000 0000 		.long	.LFB11
 745 004c A600 0000 		.long	.LFE11-.LFB11
 746               		.p2align	2
 747               	.LEFDE6:
 748               	.LSFDE8:
 749 0050 0C00 0000 		.long	.LEFDE8-.LASFDE8
 750               	.LASFDE8:
 751 0054 0000 0000 		.long	.Lframe0
 752 0058 0000 0000 		.long	.LFB9
 753 005c 5E00 0000 		.long	.LFE9-.LFB9
 754               		.p2align	2
 755               	.LEFDE8:
 756               		.text
 757               	.Letext0:
 758               		.section	.debug_loc,"",@progbits
 759               	.Ldebug_loc0:
 760               	.LLST2:
 761 0000 0600 0000 		.long	.LVL0-.Ltext0
 762 0004 0A00 0000 		.long	.LVL1-.Ltext0
 763 0008 0100      		.word	0x1
 764 000a 68        		.byte	0x68
 765 000b 0A00 0000 		.long	.LVL1-.Ltext0
 766 000f 1800 0000 		.long	.LVL2-.Ltext0
 767 0013 0100      		.word	0x1
 768 0015 6E        		.byte	0x6e
 769 0016 1800 0000 		.long	.LVL2-.Ltext0
 770 001a 2200 0000 		.long	.LFE12-.Ltext0
 771 001e 0600      		.word	0x6
 772 0020 6E        		.byte	0x6e
 773 0021 93        		.byte	0x93
 774 0022 01        		.uleb128 0x1
 775 0023 6F        		.byte	0x6f
 776 0024 93        		.byte	0x93
 777 0025 01        		.uleb128 0x1
 778 0026 0000 0000 		.long	0x0
 779 002a 0000 0000 		.long	0x0
 780               	.LLST4:
 781 002e 2200 0000 		.long	.LVL5-.Ltext0
 782 0032 2A00 0000 		.long	.LVL6-.Ltext0
 783 0036 0100      		.word	0x1
 784 0038 68        		.byte	0x68
 785 0039 0000 0000 		.long	0x0
 786 003d 0000 0000 		.long	0x0
 787               	.LLST6:
 788 0041 4E00 0000 		.long	.LVL8-.Ltext0
 789 0045 5400 0000 		.long	.LVL9-.Ltext0
 790 0049 0100      		.word	0x1
 791 004b 68        		.byte	0x68
 792 004c 5400 0000 		.long	.LVL9-.Ltext0
 793 0050 BA00 0000 		.long	.LVL11-.Ltext0
 794 0054 0100      		.word	0x1
 795 0056 69        		.byte	0x69
 796 0057 E400 0000 		.long	.LVL12-.Ltext0
 797 005b F400 0000 		.long	.LFE11-.Ltext0
 798 005f 0100      		.word	0x1
GAS LISTING C:\Users\ADMINI~1\AppData\Local\Temp/ccqPtjCc.s 			page 15


 799 0061 69        		.byte	0x69
 800 0062 0000 0000 		.long	0x0
 801 0066 0000 0000 		.long	0x0
 802               	.LLST7:
 803 006a 4E00 0000 		.long	.LVL8-.Ltext0
 804 006e BA00 0000 		.long	.LVL11-.Ltext0
 805 0072 0100      		.word	0x1
 806 0074 66        		.byte	0x66
 807 0075 E400 0000 		.long	.LVL12-.Ltext0
 808 0079 F400 0000 		.long	.LFE11-.Ltext0
 809 007d 0100      		.word	0x1
 810 007f 66        		.byte	0x66
 811 0080 0000 0000 		.long	0x0
 812 0084 0000 0000 		.long	0x0
 813               	.LLST8:
 814 0088 B400 0000 		.long	.LVL10-.Ltext0
 815 008c F200 0000 		.long	.LVL13-.Ltext0
 816 0090 0100      		.word	0x1
 817 0092 61        		.byte	0x61
 818 0093 0000 0000 		.long	0x0
 819 0097 0000 0000 		.long	0x0
 820               	.LLST10:
 821 009b F400 0000 		.long	.LVL14-.Ltext0
 822 009f FE00 0000 		.long	.LVL16-.Ltext0
 823 00a3 0600      		.word	0x6
 824 00a5 68        		.byte	0x68
 825 00a6 93        		.byte	0x93
 826 00a7 01        		.uleb128 0x1
 827 00a8 69        		.byte	0x69
 828 00a9 93        		.byte	0x93
 829 00aa 01        		.uleb128 0x1
 830 00ab FE00 0000 		.long	.LVL16-.Ltext0
 831 00af 1C01 0000 		.long	.LVL20-.Ltext0
 832 00b3 0600      		.word	0x6
 833 00b5 62        		.byte	0x62
 834 00b6 93        		.byte	0x93
 835 00b7 01        		.uleb128 0x1
 836 00b8 63        		.byte	0x63
 837 00b9 93        		.byte	0x93
 838 00ba 01        		.uleb128 0x1
 839 00bb 5001 0000 		.long	.LVL26-.Ltext0
 840 00bf 5201 0000 		.long	.LFE9-.Ltext0
 841 00c3 0600      		.word	0x6
 842 00c5 62        		.byte	0x62
 843 00c6 93        		.byte	0x93
 844 00c7 01        		.uleb128 0x1
 845 00c8 63        		.byte	0x63
 846 00c9 93        		.byte	0x93
 847 00ca 01        		.uleb128 0x1
 848 00cb 0000 0000 		.long	0x0
 849 00cf 0000 0000 		.long	0x0
 850               	.LLST11:
 851 00d3 F400 0000 		.long	.LVL14-.Ltext0
 852 00d7 1C01 0000 		.long	.LVL20-.Ltext0
 853 00db 0100      		.word	0x1
 854 00dd 66        		.byte	0x66
 855 00de 5001 0000 		.long	.LVL26-.Ltext0
GAS LISTING C:\Users\ADMINI~1\AppData\Local\Temp/ccqPtjCc.s 			page 16


 856 00e2 5201 0000 		.long	.LFE9-.Ltext0
 857 00e6 0100      		.word	0x1
 858 00e8 66        		.byte	0x66
 859 00e9 0000 0000 		.long	0x0
 860 00ed 0000 0000 		.long	0x0
 861               	.LLST12:
 862 00f1 FA00 0000 		.long	.LVL15-.Ltext0
 863 00f5 1001 0000 		.long	.LVL17-.Ltext0
 864 00f9 0100      		.word	0x1
 865 00fb 6E        		.byte	0x6e
 866 00fc 1001 0000 		.long	.LVL17-.Ltext0
 867 0100 1C01 0000 		.long	.LVL20-.Ltext0
 868 0104 0600      		.word	0x6
 869 0106 6E        		.byte	0x6e
 870 0107 93        		.byte	0x93
 871 0108 01        		.uleb128 0x1
 872 0109 6F        		.byte	0x6f
 873 010a 93        		.byte	0x93
 874 010b 01        		.uleb128 0x1
 875 010c 5001 0000 		.long	.LVL26-.Ltext0
 876 0110 5201 0000 		.long	.LFE9-.Ltext0
 877 0114 0100      		.word	0x1
 878 0116 6E        		.byte	0x6e
 879 0117 0000 0000 		.long	0x0
 880 011b 0000 0000 		.long	0x0
 881               	.LLST13:
 882 011f 2801 0000 		.long	.LVL21-.Ltext0
 883 0123 3A01 0000 		.long	.LVL22-.Ltext0
 884 0127 0100      		.word	0x1
 885 0129 6E        		.byte	0x6e
 886 012a 3A01 0000 		.long	.LVL22-.Ltext0
 887 012e 4C01 0000 		.long	.LVL25-.Ltext0
 888 0132 0600      		.word	0x6
 889 0134 6E        		.byte	0x6e
 890 0135 93        		.byte	0x93
 891 0136 01        		.uleb128 0x1
 892 0137 6F        		.byte	0x6f
 893 0138 93        		.byte	0x93
 894 0139 01        		.uleb128 0x1
 895 013a 0000 0000 		.long	0x0
 896 013e 0000 0000 		.long	0x0
 897               		.section	.debug_info
 898 0000 A904 0000 		.long	0x4a9
 899 0004 0200      		.word	0x2
 900 0006 0000 0000 		.long	.Ldebug_abbrev0
 901 000a 04        		.byte	0x4
 902 000b 01        		.uleb128 0x1
 903 000c 0000 0000 		.long	.LASF56
 904 0010 01        		.byte	0x1
 905 0011 0000 0000 		.long	.LASF57
 906 0015 0000 0000 		.long	.LASF58
 907 0019 0000 0000 		.long	.Ltext0
 908 001d 0000 0000 		.long	.Letext0
 909 0021 0000 0000 		.long	.Ldebug_line0
 910 0025 02        		.uleb128 0x2
 911 0026 01        		.byte	0x1
 912 0027 06        		.byte	0x6
GAS LISTING C:\Users\ADMINI~1\AppData\Local\Temp/ccqPtjCc.s 			page 17


 913 0028 0000 0000 		.long	.LASF0
 914 002c 03        		.uleb128 0x3
 915 002d 0000 0000 		.long	.LASF2
 916 0031 02        		.byte	0x2
 917 0032 7A        		.byte	0x7a
 918 0033 3700 0000 		.long	0x37
 919 0037 02        		.uleb128 0x2
 920 0038 01        		.byte	0x1
 921 0039 08        		.byte	0x8
 922 003a 0000 0000 		.long	.LASF1
 923 003e 04        		.uleb128 0x4
 924 003f 02        		.byte	0x2
 925 0040 05        		.byte	0x5
 926 0041 696E 7400 		.string	"int"
 927 0045 03        		.uleb128 0x3
 928 0046 0000 0000 		.long	.LASF3
 929 004a 02        		.byte	0x2
 930 004b 7C        		.byte	0x7c
 931 004c 5000 0000 		.long	0x50
 932 0050 02        		.uleb128 0x2
 933 0051 02        		.byte	0x2
 934 0052 07        		.byte	0x7
 935 0053 0000 0000 		.long	.LASF4
 936 0057 02        		.uleb128 0x2
 937 0058 04        		.byte	0x4
 938 0059 05        		.byte	0x5
 939 005a 0000 0000 		.long	.LASF5
 940 005e 02        		.uleb128 0x2
 941 005f 04        		.byte	0x4
 942 0060 07        		.byte	0x7
 943 0061 0000 0000 		.long	.LASF6
 944 0065 02        		.uleb128 0x2
 945 0066 08        		.byte	0x8
 946 0067 05        		.byte	0x5
 947 0068 0000 0000 		.long	.LASF7
 948 006c 02        		.uleb128 0x2
 949 006d 08        		.byte	0x8
 950 006e 07        		.byte	0x7
 951 006f 0000 0000 		.long	.LASF8
 952 0073 05        		.uleb128 0x5
 953 0074 01        		.byte	0x1
 954 0075 06        		.byte	0x6
 955 0076 05        		.uleb128 0x5
 956 0077 01        		.byte	0x1
 957 0078 08        		.byte	0x8
 958 0079 02        		.uleb128 0x2
 959 007a 02        		.byte	0x2
 960 007b 07        		.byte	0x7
 961 007c 0000 0000 		.long	.LASF9
 962 0080 02        		.uleb128 0x2
 963 0081 02        		.byte	0x2
 964 0082 05        		.byte	0x5
 965 0083 0000 0000 		.long	.LASF10
 966 0087 02        		.uleb128 0x2
 967 0088 01        		.byte	0x1
 968 0089 06        		.byte	0x6
 969 008a 0000 0000 		.long	.LASF11
GAS LISTING C:\Users\ADMINI~1\AppData\Local\Temp/ccqPtjCc.s 			page 18


 970 008e 06        		.uleb128 0x6
 971 008f 02        		.byte	0x2
 972 0090 03        		.byte	0x3
 973 0091 1B        		.byte	0x1b
 974 0092 1501 0000 		.long	0x115
 975 0096 07        		.uleb128 0x7
 976 0097 0000 0000 		.long	.LASF12
 977 009b D501      		.sleb128 213
 978 009d 07        		.uleb128 0x7
 979 009e 0000 0000 		.long	.LASF13
 980 00a2 D601      		.sleb128 214
 981 00a4 07        		.uleb128 0x7
 982 00a5 0000 0000 		.long	.LASF14
 983 00a9 D701      		.sleb128 215
 984 00ab 07        		.uleb128 0x7
 985 00ac 0000 0000 		.long	.LASF15
 986 00b0 D801      		.sleb128 216
 987 00b2 07        		.uleb128 0x7
 988 00b3 0000 0000 		.long	.LASF16
 989 00b7 D901      		.sleb128 217
 990 00b9 07        		.uleb128 0x7
 991 00ba 0000 0000 		.long	.LASF17
 992 00be DA01      		.sleb128 218
 993 00c0 07        		.uleb128 0x7
 994 00c1 0000 0000 		.long	.LASF18
 995 00c5 DB01      		.sleb128 219
 996 00c7 07        		.uleb128 0x7
 997 00c8 0000 0000 		.long	.LASF19
 998 00cc DC01      		.sleb128 220
 999 00ce 07        		.uleb128 0x7
 1000 00cf 0000 0000 		.long	.LASF20
 1001 00d3 DD01      		.sleb128 221
 1002 00d5 07        		.uleb128 0x7
 1003 00d6 0000 0000 		.long	.LASF21
 1004 00da DE01      		.sleb128 222
 1005 00dc 07        		.uleb128 0x7
 1006 00dd 0000 0000 		.long	.LASF22
 1007 00e1 DF01      		.sleb128 223
 1008 00e3 07        		.uleb128 0x7
 1009 00e4 0000 0000 		.long	.LASF23
 1010 00e8 E001      		.sleb128 224
 1011 00ea 07        		.uleb128 0x7
 1012 00eb 0000 0000 		.long	.LASF24
 1013 00ef E101      		.sleb128 225
 1014 00f1 07        		.uleb128 0x7
 1015 00f2 0000 0000 		.long	.LASF25
 1016 00f6 E201      		.sleb128 226
 1017 00f8 07        		.uleb128 0x7
 1018 00f9 0000 0000 		.long	.LASF26
 1019 00fd E301      		.sleb128 227
 1020 00ff 07        		.uleb128 0x7
 1021 0100 0000 0000 		.long	.LASF27
 1022 0104 E401      		.sleb128 228
 1023 0106 07        		.uleb128 0x7
 1024 0107 0000 0000 		.long	.LASF28
 1025 010b E501      		.sleb128 229
 1026 010d 07        		.uleb128 0x7
GAS LISTING C:\Users\ADMINI~1\AppData\Local\Temp/ccqPtjCc.s 			page 19


 1027 010e 0000 0000 		.long	.LASF29
 1028 0112 E601      		.sleb128 230
 1029 0114 00        		.byte	0x0
 1030 0115 08        		.uleb128 0x8
 1031 0116 01        		.byte	0x1
 1032 0117 0000 0000 		.long	.LASF59
 1033 011b 01        		.byte	0x1
 1034 011c 38        		.byte	0x38
 1035 011d 01        		.byte	0x1
 1036 011e 2C00 0000 		.long	0x2c
 1037 0122 01        		.byte	0x1
 1038 0123 09        		.uleb128 0x9
 1039 0124 0000 0000 		.long	.LASF60
 1040 0128 01        		.byte	0x1
 1041 0129 4B        		.byte	0x4b
 1042 012a 01        		.byte	0x1
 1043 012b 01        		.byte	0x1
 1044 012c 4301 0000 		.long	0x143
 1045 0130 0A        		.uleb128 0xa
 1046 0131 4101 0000 		.long	0x141
 1047 0135 0B        		.uleb128 0xb
 1048 0136 0000 0000 		.long	.LASF33
 1049 013a 01        		.byte	0x1
 1050 013b 51        		.byte	0x51
 1051 013c 2C00 0000 		.long	0x2c
 1052 0140 00        		.byte	0x0
 1053 0141 0C        		.uleb128 0xc
 1054 0142 00        		.byte	0x0
 1055 0143 0D        		.uleb128 0xd
 1056 0144 01        		.byte	0x1
 1057 0145 0000 0000 		.long	.LASF61
 1058 0149 01        		.byte	0x1
 1059 014a 7A        		.byte	0x7a
 1060 014b 01        		.byte	0x1
 1061 014c 2C00 0000 		.long	0x2c
 1062 0150 01        		.byte	0x1
 1063 0151 6201 0000 		.long	0x162
 1064 0155 0E        		.uleb128 0xe
 1065 0156 0000 0000 		.long	.LASF62
 1066 015a 01        		.byte	0x1
 1067 015b 7A        		.byte	0x7a
 1068 015c 2C00 0000 		.long	0x2c
 1069 0160 0C        		.uleb128 0xc
 1070 0161 00        		.byte	0x0
 1071 0162 0F        		.uleb128 0xf
 1072 0163 1501 0000 		.long	0x115
 1073 0167 0000 0000 		.long	.LFB8
 1074 016b 0000 0000 		.long	.LFE8
 1075 016f 02        		.byte	0x2
 1076 0170 90        		.byte	0x90
 1077 0171 20        		.uleb128 0x20
 1078 0172 10        		.uleb128 0x10
 1079 0173 4301 0000 		.long	0x143
 1080 0177 0000 0000 		.long	.LFB12
 1081 017b 0000 0000 		.long	.LFE12
 1082 017f 02        		.byte	0x2
 1083 0180 90        		.byte	0x90
GAS LISTING C:\Users\ADMINI~1\AppData\Local\Temp/ccqPtjCc.s 			page 20


 1084 0181 20        		.uleb128 0x20
 1085 0182 9001 0000 		.long	0x190
 1086 0186 11        		.uleb128 0x11
 1087 0187 5501 0000 		.long	0x155
 1088 018b 0000 0000 		.long	.LLST2
 1089 018f 00        		.byte	0x0
 1090 0190 12        		.uleb128 0x12
 1091 0191 01        		.byte	0x1
 1092 0192 0000 0000 		.long	.LASF63
 1093 0196 01        		.byte	0x1
 1094 0197 D6        		.byte	0xd6
 1095 0198 01        		.byte	0x1
 1096 0199 2C00 0000 		.long	0x2c
 1097 019d 0000 0000 		.long	.LFB13
 1098 01a1 0000 0000 		.long	.LFE13
 1099 01a5 02        		.byte	0x2
 1100 01a6 90        		.byte	0x90
 1101 01a7 20        		.uleb128 0x20
 1102 01a8 F801 0000 		.long	0x1f8
 1103 01ac 13        		.uleb128 0x13
 1104 01ad 0000 0000 		.long	.LASF30
 1105 01b1 01        		.byte	0x1
 1106 01b2 D6        		.byte	0xd6
 1107 01b3 2C00 0000 		.long	0x2c
 1108 01b7 0000 0000 		.long	.LLST4
 1109 01bb 14        		.uleb128 0x14
 1110 01bc 0000 0000 		.long	.LASF31
 1111 01c0 01        		.byte	0x1
 1112 01c1 D6        		.byte	0xd6
 1113 01c2 2C00 0000 		.long	0x2c
 1114 01c6 01        		.byte	0x1
 1115 01c7 66        		.byte	0x66
 1116 01c8 14        		.uleb128 0x14
 1117 01c9 0000 0000 		.long	.LASF32
 1118 01cd 01        		.byte	0x1
 1119 01ce D6        		.byte	0xd6
 1120 01cf 2C00 0000 		.long	0x2c
 1121 01d3 01        		.byte	0x1
 1122 01d4 64        		.byte	0x64
 1123 01d5 15        		.uleb128 0x15
 1124 01d6 0000 0000 		.long	.LBB22
 1125 01da 0000 0000 		.long	.LBE22
 1126 01de 0B        		.uleb128 0xb
 1127 01df 0000 0000 		.long	.LASF34
 1128 01e3 01        		.byte	0x1
 1129 01e4 D7        		.byte	0xd7
 1130 01e5 4500 0000 		.long	0x45
 1131 01e9 16        		.uleb128 0x16
 1132 01ea 0000 0000 		.long	.LASF40
 1133 01ee 01        		.byte	0x1
 1134 01ef D7        		.byte	0xd7
 1135 01f0 2C00 0000 		.long	0x2c
 1136 01f4 01        		.byte	0x1
 1137 01f5 6E        		.byte	0x6e
 1138 01f6 00        		.byte	0x0
 1139 01f7 00        		.byte	0x0
 1140 01f8 17        		.uleb128 0x17
GAS LISTING C:\Users\ADMINI~1\AppData\Local\Temp/ccqPtjCc.s 			page 21


 1141 01f9 01        		.byte	0x1
 1142 01fa 0000 0000 		.long	.LASF37
 1143 01fe 01        		.byte	0x1
 1144 01ff 60        		.byte	0x60
 1145 0200 01        		.byte	0x1
 1146 0201 0000 0000 		.long	.LFB11
 1147 0205 0000 0000 		.long	.LFE11
 1148 0209 02        		.byte	0x2
 1149 020a 90        		.byte	0x90
 1150 020b 20        		.uleb128 0x20
 1151 020c 4E02 0000 		.long	0x24e
 1152 0210 13        		.uleb128 0x13
 1153 0211 0000 0000 		.long	.LASF35
 1154 0215 01        		.byte	0x1
 1155 0216 60        		.byte	0x60
 1156 0217 2C00 0000 		.long	0x2c
 1157 021b 0000 0000 		.long	.LLST6
 1158 021f 13        		.uleb128 0x13
 1159 0220 0000 0000 		.long	.LASF36
 1160 0224 01        		.byte	0x1
 1161 0225 60        		.byte	0x60
 1162 0226 2C00 0000 		.long	0x2c
 1163 022a 0000 0000 		.long	.LLST7
 1164 022e 18        		.uleb128 0x18
 1165 022f 2301 0000 		.long	0x123
 1166 0233 0000 0000 		.long	.LBB23
 1167 0237 0000 0000 		.long	.LBE23
 1168 023b 01        		.byte	0x1
 1169 023c 75        		.byte	0x75
 1170 023d 19        		.uleb128 0x19
 1171 023e 0000 0000 		.long	.Ldebug_ranges0+0x0
 1172 0242 1A        		.uleb128 0x1a
 1173 0243 3501 0000 		.long	0x135
 1174 0247 0000 0000 		.long	.LLST8
 1175 024b 00        		.byte	0x0
 1176 024c 00        		.byte	0x0
 1177 024d 00        		.byte	0x0
 1178 024e 17        		.uleb128 0x17
 1179 024f 01        		.byte	0x1
 1180 0250 0000 0000 		.long	.LASF38
 1181 0254 01        		.byte	0x1
 1182 0255 3E        		.byte	0x3e
 1183 0256 01        		.byte	0x1
 1184 0257 0000 0000 		.long	.LFB9
 1185 025b 0000 0000 		.long	.LFE9
 1186 025f 02        		.byte	0x2
 1187 0260 90        		.byte	0x90
 1188 0261 20        		.uleb128 0x20
 1189 0262 BB02 0000 		.long	0x2bb
 1190 0266 13        		.uleb128 0x13
 1191 0267 0000 0000 		.long	.LASF39
 1192 026b 01        		.byte	0x1
 1193 026c 3E        		.byte	0x3e
 1194 026d D002 0000 		.long	0x2d0
 1195 0271 0000 0000 		.long	.LLST10
 1196 0275 13        		.uleb128 0x13
 1197 0276 0000 0000 		.long	.LASF36
GAS LISTING C:\Users\ADMINI~1\AppData\Local\Temp/ccqPtjCc.s 			page 22


 1198 027a 01        		.byte	0x1
 1199 027b 3E        		.byte	0x3e
 1200 027c 2C00 0000 		.long	0x2c
 1201 0280 0000 0000 		.long	.LLST11
 1202 0284 1B        		.uleb128 0x1b
 1203 0285 4301 0000 		.long	0x143
 1204 0289 0000 0000 		.long	.LBB28
 1205 028d 0000 0000 		.long	.LBE28
 1206 0291 01        		.byte	0x1
 1207 0292 41        		.byte	0x41
 1208 0293 A102 0000 		.long	0x2a1
 1209 0297 11        		.uleb128 0x11
 1210 0298 8601 0000 		.long	0x186
 1211 029c 0000 0000 		.long	.LLST12
 1212 02a0 00        		.byte	0x0
 1213 02a1 18        		.uleb128 0x18
 1214 02a2 4301 0000 		.long	0x143
 1215 02a6 0000 0000 		.long	.LBB30
 1216 02aa 0000 0000 		.long	.LBE30
 1217 02ae 01        		.byte	0x1
 1218 02af 45        		.byte	0x45
 1219 02b0 11        		.uleb128 0x11
 1220 02b1 8601 0000 		.long	0x186
 1221 02b5 0000 0000 		.long	.LLST13
 1222 02b9 00        		.byte	0x0
 1223 02ba 00        		.byte	0x0
 1224 02bb 1C        		.uleb128 0x1c
 1225 02bc 01        		.byte	0x1
 1226 02bd 2C00 0000 		.long	0x2c
 1227 02c1 D002 0000 		.long	0x2d0
 1228 02c5 1D        		.uleb128 0x1d
 1229 02c6 2C00 0000 		.long	0x2c
 1230 02ca 1D        		.uleb128 0x1d
 1231 02cb 2C00 0000 		.long	0x2c
 1232 02cf 00        		.byte	0x0
 1233 02d0 1E        		.uleb128 0x1e
 1234 02d1 02        		.byte	0x2
 1235 02d2 BB02 0000 		.long	0x2bb
 1236 02d6 16        		.uleb128 0x16
 1237 02d7 0000 0000 		.long	.LASF41
 1238 02db 01        		.byte	0x1
 1239 02dc 34        		.byte	0x34
 1240 02dd 2C00 0000 		.long	0x2c
 1241 02e1 05        		.byte	0x5
 1242 02e2 03        		.byte	0x3
 1243 02e3 0000 0000 		.long	_dualActionCount
 1244 02e7 16        		.uleb128 0x16
 1245 02e8 0000 0000 		.long	.LASF42
 1246 02ec 01        		.byte	0x1
 1247 02ed 36        		.byte	0x36
 1248 02ee 2C00 0000 		.long	0x2c
 1249 02f2 05        		.byte	0x5
 1250 02f3 03        		.byte	0x3
 1251 02f4 0000 0000 		.long	_isCanceledDualAction
 1252 02f8 16        		.uleb128 0x16
 1253 02f9 0000 0000 		.long	.LASF43
 1254 02fd 01        		.byte	0x1
GAS LISTING C:\Users\ADMINI~1\AppData\Local\Temp/ccqPtjCc.s 			page 23


 1255 02fe 3C        		.byte	0x3c
 1256 02ff 2C00 0000 		.long	0x2c
 1257 0303 05        		.byte	0x5
 1258 0304 03        		.byte	0x3
 1259 0305 0000 0000 		.long	_isActiveDualAction
 1260 0309 1F        		.uleb128 0x1f
 1261 030a 2C00 0000 		.long	0x2c
 1262 030e 1903 0000 		.long	0x319
 1263 0312 20        		.uleb128 0x20
 1264 0313 1903 0000 		.long	0x319
 1265 0317 AF        		.byte	0xaf
 1266 0318 00        		.byte	0x0
 1267 0319 05        		.uleb128 0x5
 1268 031a 02        		.byte	0x2
 1269 031b 07        		.byte	0x7
 1270 031c 21        		.uleb128 0x21
 1271 031d 0000 0000 		.long	.LASF44
 1272 0321 01        		.byte	0x1
 1273 0322 82        		.byte	0x82
 1274 0323 2E03 0000 		.long	0x32e
 1275 0327 01        		.byte	0x1
 1276 0328 05        		.byte	0x5
 1277 0329 03        		.byte	0x3
 1278 032a 0000 0000 		.long	keycode_set2
 1279 032e 22        		.uleb128 0x22
 1280 032f 0903 0000 		.long	0x309
 1281 0333 1F        		.uleb128 0x1f
 1282 0334 4500 0000 		.long	0x45
 1283 0338 4303 0000 		.long	0x343
 1284 033c 20        		.uleb128 0x20
 1285 033d 1903 0000 		.long	0x319
 1286 0341 19        		.byte	0x19
 1287 0342 00        		.byte	0x0
 1288 0343 21        		.uleb128 0x21
 1289 0344 0000 0000 		.long	.LASF45
 1290 0348 01        		.byte	0x1
 1291 0349 A8        		.byte	0xa8
 1292 034a 5503 0000 		.long	0x355
 1293 034e 01        		.byte	0x1
 1294 034f 05        		.byte	0x5
 1295 0350 03        		.byte	0x3
 1296 0351 0000 0000 		.long	keycode_USB_multimedia
 1297 0355 22        		.uleb128 0x22
 1298 0356 3303 0000 		.long	0x333
 1299 035a 1F        		.uleb128 0x1f
 1300 035b 4500 0000 		.long	0x45
 1301 035f 6A03 0000 		.long	0x36a
 1302 0363 20        		.uleb128 0x20
 1303 0364 1903 0000 		.long	0x319
 1304 0368 21        		.byte	0x21
 1305 0369 00        		.byte	0x0
 1306 036a 21        		.uleb128 0x21
 1307 036b 0000 0000 		.long	.LASF46
 1308 036f 01        		.byte	0x1
 1309 0370 AF        		.byte	0xaf
 1310 0371 7C03 0000 		.long	0x37c
 1311 0375 01        		.byte	0x1
GAS LISTING C:\Users\ADMINI~1\AppData\Local\Temp/ccqPtjCc.s 			page 24


 1312 0376 05        		.byte	0x5
 1313 0377 03        		.byte	0x3
 1314 0378 0000 0000 		.long	keycode_USB_extend
 1315 037c 22        		.uleb128 0x22
 1316 037d 5A03 0000 		.long	0x35a
 1317 0381 1F        		.uleb128 0x1f
 1318 0382 2C00 0000 		.long	0x2c
 1319 0386 9103 0000 		.long	0x391
 1320 038a 20        		.uleb128 0x20
 1321 038b 1903 0000 		.long	0x319
 1322 038f 02        		.byte	0x2
 1323 0390 00        		.byte	0x0
 1324 0391 21        		.uleb128 0x21
 1325 0392 0000 0000 		.long	.LASF47
 1326 0396 01        		.byte	0x1
 1327 0397 B7        		.byte	0xb7
 1328 0398 A303 0000 		.long	0x3a3
 1329 039c 01        		.byte	0x1
 1330 039d 05        		.byte	0x5
 1331 039e 03        		.byte	0x3
 1332 039f 0000 0000 		.long	keycode_set2_special
 1333 03a3 22        		.uleb128 0x22
 1334 03a4 8103 0000 		.long	0x381
 1335 03a8 1F        		.uleb128 0x1f
 1336 03a9 2C00 0000 		.long	0x2c
 1337 03ad B803 0000 		.long	0x3b8
 1338 03b1 20        		.uleb128 0x20
 1339 03b2 1903 0000 		.long	0x319
 1340 03b6 03        		.byte	0x3
 1341 03b7 00        		.byte	0x0
 1342 03b8 21        		.uleb128 0x21
 1343 03b9 0000 0000 		.long	.LASF48
 1344 03bd 01        		.byte	0x1
 1345 03be BB        		.byte	0xbb
 1346 03bf CA03 0000 		.long	0x3ca
 1347 03c3 01        		.byte	0x1
 1348 03c4 05        		.byte	0x5
 1349 03c5 03        		.byte	0x3
 1350 03c6 0000 0000 		.long	keycode_set2_makeonly
 1351 03ca 22        		.uleb128 0x22
 1352 03cb A803 0000 		.long	0x3a8
 1353 03cf 1F        		.uleb128 0x1f
 1354 03d0 2C00 0000 		.long	0x2c
 1355 03d4 DF03 0000 		.long	0x3df
 1356 03d8 20        		.uleb128 0x20
 1357 03d9 1903 0000 		.long	0x319
 1358 03dd 04        		.byte	0x4
 1359 03de 00        		.byte	0x0
 1360 03df 21        		.uleb128 0x21
 1361 03e0 0000 0000 		.long	.LASF49
 1362 03e4 01        		.byte	0x1
 1363 03e5 BF        		.byte	0xbf
 1364 03e6 F103 0000 		.long	0x3f1
 1365 03ea 01        		.byte	0x1
 1366 03eb 05        		.byte	0x5
 1367 03ec 03        		.byte	0x3
 1368 03ed 0000 0000 		.long	keycode_set2_make_break
GAS LISTING C:\Users\ADMINI~1\AppData\Local\Temp/ccqPtjCc.s 			page 25


 1369 03f1 22        		.uleb128 0x22
 1370 03f2 CF03 0000 		.long	0x3cf
 1371 03f6 1F        		.uleb128 0x1f
 1372 03f7 2C00 0000 		.long	0x2c
 1373 03fb 0604 0000 		.long	0x406
 1374 03ff 20        		.uleb128 0x20
 1375 0400 1903 0000 		.long	0x319
 1376 0404 2D        		.byte	0x2d
 1377 0405 00        		.byte	0x0
 1378 0406 21        		.uleb128 0x21
 1379 0407 0000 0000 		.long	.LASF50
 1380 040b 01        		.byte	0x1
 1381 040c C3        		.byte	0xc3
 1382 040d 1804 0000 		.long	0x418
 1383 0411 01        		.byte	0x1
 1384 0412 05        		.byte	0x5
 1385 0413 03        		.byte	0x3
 1386 0414 0000 0000 		.long	keycode_set2_extend
 1387 0418 22        		.uleb128 0x22
 1388 0419 F603 0000 		.long	0x3f6
 1389 041d 1F        		.uleb128 0x1f
 1390 041e 2C00 0000 		.long	0x2c
 1391 0422 2D04 0000 		.long	0x42d
 1392 0426 20        		.uleb128 0x20
 1393 0427 1903 0000 		.long	0x319
 1394 042b 0E        		.byte	0xe
 1395 042c 00        		.byte	0x0
 1396 042d 21        		.uleb128 0x21
 1397 042e 0000 0000 		.long	.LASF51
 1398 0432 01        		.byte	0x1
 1399 0433 CE        		.byte	0xce
 1400 0434 3F04 0000 		.long	0x43f
 1401 0438 01        		.byte	0x1
 1402 0439 05        		.byte	0x5
 1403 043a 03        		.byte	0x3
 1404 043b 0000 0000 		.long	keycode_set2_proc_shift
 1405 043f 22        		.uleb128 0x22
 1406 0440 1D04 0000 		.long	0x41d
 1407 0444 21        		.uleb128 0x21
 1408 0445 0000 0000 		.long	.LASF52
 1409 0449 01        		.byte	0x1
 1410 044a 35        		.byte	0x35
 1411 044b 2C00 0000 		.long	0x2c
 1412 044f 01        		.byte	0x1
 1413 0450 05        		.byte	0x5
 1414 0451 03        		.byte	0x3
 1415 0452 0000 0000 		.long	dualActionKeyIndex
 1416 0456 1F        		.uleb128 0x1f
 1417 0457 2C00 0000 		.long	0x2c
 1418 045b 6604 0000 		.long	0x466
 1419 045f 20        		.uleb128 0x20
 1420 0460 1903 0000 		.long	0x319
 1421 0464 0F        		.byte	0xf
 1422 0465 00        		.byte	0x0
 1423 0466 21        		.uleb128 0x21
 1424 0467 0000 0000 		.long	.LASF53
 1425 046b 01        		.byte	0x1
GAS LISTING C:\Users\ADMINI~1\AppData\Local\Temp/ccqPtjCc.s 			page 26


 1426 046c 0F        		.byte	0xf
 1427 046d 7804 0000 		.long	0x478
 1428 0471 01        		.byte	0x1
 1429 0472 05        		.byte	0x5
 1430 0473 03        		.byte	0x3
 1431 0474 0000 0000 		.long	dualActionMaskDown
 1432 0478 22        		.uleb128 0x22
 1433 0479 5604 0000 		.long	0x456
 1434 047d 21        		.uleb128 0x21
 1435 047e 0000 0000 		.long	.LASF54
 1436 0482 01        		.byte	0x1
 1437 0483 21        		.byte	0x21
 1438 0484 8F04 0000 		.long	0x48f
 1439 0488 01        		.byte	0x1
 1440 0489 05        		.byte	0x5
 1441 048a 03        		.byte	0x3
 1442 048b 0000 0000 		.long	dualActionMaskUp
 1443 048f 22        		.uleb128 0x22
 1444 0490 5604 0000 		.long	0x456
 1445 0494 21        		.uleb128 0x21
 1446 0495 0000 0000 		.long	.LASF55
 1447 0499 01        		.byte	0x1
 1448 049a D5        		.byte	0xd5
 1449 049b A604 0000 		.long	0x4a6
 1450 049f 01        		.byte	0x1
 1451 04a0 05        		.byte	0x5
 1452 04a1 03        		.byte	0x3
 1453 04a2 0000 0000 		.long	keymapAddress
 1454 04a6 1E        		.uleb128 0x1e
 1455 04a7 02        		.byte	0x2
 1456 04a8 2C00 0000 		.long	0x2c
 1457 04ac 00        		.byte	0x0
 1458               		.section	.debug_abbrev
 1459 0000 01        		.uleb128 0x1
 1460 0001 11        		.uleb128 0x11
 1461 0002 01        		.byte	0x1
 1462 0003 25        		.uleb128 0x25
 1463 0004 0E        		.uleb128 0xe
 1464 0005 13        		.uleb128 0x13
 1465 0006 0B        		.uleb128 0xb
 1466 0007 03        		.uleb128 0x3
 1467 0008 0E        		.uleb128 0xe
 1468 0009 1B        		.uleb128 0x1b
 1469 000a 0E        		.uleb128 0xe
 1470 000b 11        		.uleb128 0x11
 1471 000c 01        		.uleb128 0x1
 1472 000d 12        		.uleb128 0x12
 1473 000e 01        		.uleb128 0x1
 1474 000f 10        		.uleb128 0x10
 1475 0010 06        		.uleb128 0x6
 1476 0011 00        		.byte	0x0
 1477 0012 00        		.byte	0x0
 1478 0013 02        		.uleb128 0x2
 1479 0014 24        		.uleb128 0x24
 1480 0015 00        		.byte	0x0
 1481 0016 0B        		.uleb128 0xb
 1482 0017 0B        		.uleb128 0xb
GAS LISTING C:\Users\ADMINI~1\AppData\Local\Temp/ccqPtjCc.s 			page 27


 1483 0018 3E        		.uleb128 0x3e
 1484 0019 0B        		.uleb128 0xb
 1485 001a 03        		.uleb128 0x3
 1486 001b 0E        		.uleb128 0xe
 1487 001c 00        		.byte	0x0
 1488 001d 00        		.byte	0x0
 1489 001e 03        		.uleb128 0x3
 1490 001f 16        		.uleb128 0x16
 1491 0020 00        		.byte	0x0
 1492 0021 03        		.uleb128 0x3
 1493 0022 0E        		.uleb128 0xe
 1494 0023 3A        		.uleb128 0x3a
 1495 0024 0B        		.uleb128 0xb
 1496 0025 3B        		.uleb128 0x3b
 1497 0026 0B        		.uleb128 0xb
 1498 0027 49        		.uleb128 0x49
 1499 0028 13        		.uleb128 0x13
 1500 0029 00        		.byte	0x0
 1501 002a 00        		.byte	0x0
 1502 002b 04        		.uleb128 0x4
 1503 002c 24        		.uleb128 0x24
 1504 002d 00        		.byte	0x0
 1505 002e 0B        		.uleb128 0xb
 1506 002f 0B        		.uleb128 0xb
 1507 0030 3E        		.uleb128 0x3e
 1508 0031 0B        		.uleb128 0xb
 1509 0032 03        		.uleb128 0x3
 1510 0033 08        		.uleb128 0x8
 1511 0034 00        		.byte	0x0
 1512 0035 00        		.byte	0x0
 1513 0036 05        		.uleb128 0x5
 1514 0037 24        		.uleb128 0x24
 1515 0038 00        		.byte	0x0
 1516 0039 0B        		.uleb128 0xb
 1517 003a 0B        		.uleb128 0xb
 1518 003b 3E        		.uleb128 0x3e
 1519 003c 0B        		.uleb128 0xb
 1520 003d 00        		.byte	0x0
 1521 003e 00        		.byte	0x0
 1522 003f 06        		.uleb128 0x6
 1523 0040 04        		.uleb128 0x4
 1524 0041 01        		.byte	0x1
 1525 0042 0B        		.uleb128 0xb
 1526 0043 0B        		.uleb128 0xb
 1527 0044 3A        		.uleb128 0x3a
 1528 0045 0B        		.uleb128 0xb
 1529 0046 3B        		.uleb128 0x3b
 1530 0047 0B        		.uleb128 0xb
 1531 0048 01        		.uleb128 0x1
 1532 0049 13        		.uleb128 0x13
 1533 004a 00        		.byte	0x0
 1534 004b 00        		.byte	0x0
 1535 004c 07        		.uleb128 0x7
 1536 004d 28        		.uleb128 0x28
 1537 004e 00        		.byte	0x0
 1538 004f 03        		.uleb128 0x3
 1539 0050 0E        		.uleb128 0xe
GAS LISTING C:\Users\ADMINI~1\AppData\Local\Temp/ccqPtjCc.s 			page 28


 1540 0051 1C        		.uleb128 0x1c
 1541 0052 0D        		.uleb128 0xd
 1542 0053 00        		.byte	0x0
 1543 0054 00        		.byte	0x0
 1544 0055 08        		.uleb128 0x8
 1545 0056 2E        		.uleb128 0x2e
 1546 0057 00        		.byte	0x0
 1547 0058 3F        		.uleb128 0x3f
 1548 0059 0C        		.uleb128 0xc
 1549 005a 03        		.uleb128 0x3
 1550 005b 0E        		.uleb128 0xe
 1551 005c 3A        		.uleb128 0x3a
 1552 005d 0B        		.uleb128 0xb
 1553 005e 3B        		.uleb128 0x3b
 1554 005f 0B        		.uleb128 0xb
 1555 0060 27        		.uleb128 0x27
 1556 0061 0C        		.uleb128 0xc
 1557 0062 49        		.uleb128 0x49
 1558 0063 13        		.uleb128 0x13
 1559 0064 20        		.uleb128 0x20
 1560 0065 0B        		.uleb128 0xb
 1561 0066 00        		.byte	0x0
 1562 0067 00        		.byte	0x0
 1563 0068 09        		.uleb128 0x9
 1564 0069 2E        		.uleb128 0x2e
 1565 006a 01        		.byte	0x1
 1566 006b 03        		.uleb128 0x3
 1567 006c 0E        		.uleb128 0xe
 1568 006d 3A        		.uleb128 0x3a
 1569 006e 0B        		.uleb128 0xb
 1570 006f 3B        		.uleb128 0x3b
 1571 0070 0B        		.uleb128 0xb
 1572 0071 27        		.uleb128 0x27
 1573 0072 0C        		.uleb128 0xc
 1574 0073 20        		.uleb128 0x20
 1575 0074 0B        		.uleb128 0xb
 1576 0075 01        		.uleb128 0x1
 1577 0076 13        		.uleb128 0x13
 1578 0077 00        		.byte	0x0
 1579 0078 00        		.byte	0x0
 1580 0079 0A        		.uleb128 0xa
 1581 007a 0B        		.uleb128 0xb
 1582 007b 01        		.byte	0x1
 1583 007c 01        		.uleb128 0x1
 1584 007d 13        		.uleb128 0x13
 1585 007e 00        		.byte	0x0
 1586 007f 00        		.byte	0x0
 1587 0080 0B        		.uleb128 0xb
 1588 0081 34        		.uleb128 0x34
 1589 0082 00        		.byte	0x0
 1590 0083 03        		.uleb128 0x3
 1591 0084 0E        		.uleb128 0xe
 1592 0085 3A        		.uleb128 0x3a
 1593 0086 0B        		.uleb128 0xb
 1594 0087 3B        		.uleb128 0x3b
 1595 0088 0B        		.uleb128 0xb
 1596 0089 49        		.uleb128 0x49
GAS LISTING C:\Users\ADMINI~1\AppData\Local\Temp/ccqPtjCc.s 			page 29


 1597 008a 13        		.uleb128 0x13
 1598 008b 00        		.byte	0x0
 1599 008c 00        		.byte	0x0
 1600 008d 0C        		.uleb128 0xc
 1601 008e 0B        		.uleb128 0xb
 1602 008f 00        		.byte	0x0
 1603 0090 00        		.byte	0x0
 1604 0091 00        		.byte	0x0
 1605 0092 0D        		.uleb128 0xd
 1606 0093 2E        		.uleb128 0x2e
 1607 0094 01        		.byte	0x1
 1608 0095 3F        		.uleb128 0x3f
 1609 0096 0C        		.uleb128 0xc
 1610 0097 03        		.uleb128 0x3
 1611 0098 0E        		.uleb128 0xe
 1612 0099 3A        		.uleb128 0x3a
 1613 009a 0B        		.uleb128 0xb
 1614 009b 3B        		.uleb128 0x3b
 1615 009c 0B        		.uleb128 0xb
 1616 009d 27        		.uleb128 0x27
 1617 009e 0C        		.uleb128 0xc
 1618 009f 49        		.uleb128 0x49
 1619 00a0 13        		.uleb128 0x13
 1620 00a1 20        		.uleb128 0x20
 1621 00a2 0B        		.uleb128 0xb
 1622 00a3 01        		.uleb128 0x1
 1623 00a4 13        		.uleb128 0x13
 1624 00a5 00        		.byte	0x0
 1625 00a6 00        		.byte	0x0
 1626 00a7 0E        		.uleb128 0xe
 1627 00a8 05        		.uleb128 0x5
 1628 00a9 00        		.byte	0x0
 1629 00aa 03        		.uleb128 0x3
 1630 00ab 0E        		.uleb128 0xe
 1631 00ac 3A        		.uleb128 0x3a
 1632 00ad 0B        		.uleb128 0xb
 1633 00ae 3B        		.uleb128 0x3b
 1634 00af 0B        		.uleb128 0xb
 1635 00b0 49        		.uleb128 0x49
 1636 00b1 13        		.uleb128 0x13
 1637 00b2 00        		.byte	0x0
 1638 00b3 00        		.byte	0x0
 1639 00b4 0F        		.uleb128 0xf
 1640 00b5 2E        		.uleb128 0x2e
 1641 00b6 00        		.byte	0x0
 1642 00b7 31        		.uleb128 0x31
 1643 00b8 13        		.uleb128 0x13
 1644 00b9 11        		.uleb128 0x11
 1645 00ba 01        		.uleb128 0x1
 1646 00bb 12        		.uleb128 0x12
 1647 00bc 01        		.uleb128 0x1
 1648 00bd 40        		.uleb128 0x40
 1649 00be 0A        		.uleb128 0xa
 1650 00bf 00        		.byte	0x0
 1651 00c0 00        		.byte	0x0
 1652 00c1 10        		.uleb128 0x10
 1653 00c2 2E        		.uleb128 0x2e
GAS LISTING C:\Users\ADMINI~1\AppData\Local\Temp/ccqPtjCc.s 			page 30


 1654 00c3 01        		.byte	0x1
 1655 00c4 31        		.uleb128 0x31
 1656 00c5 13        		.uleb128 0x13
 1657 00c6 11        		.uleb128 0x11
 1658 00c7 01        		.uleb128 0x1
 1659 00c8 12        		.uleb128 0x12
 1660 00c9 01        		.uleb128 0x1
 1661 00ca 40        		.uleb128 0x40
 1662 00cb 0A        		.uleb128 0xa
 1663 00cc 01        		.uleb128 0x1
 1664 00cd 13        		.uleb128 0x13
 1665 00ce 00        		.byte	0x0
 1666 00cf 00        		.byte	0x0
 1667 00d0 11        		.uleb128 0x11
 1668 00d1 05        		.uleb128 0x5
 1669 00d2 00        		.byte	0x0
 1670 00d3 31        		.uleb128 0x31
 1671 00d4 13        		.uleb128 0x13
 1672 00d5 02        		.uleb128 0x2
 1673 00d6 06        		.uleb128 0x6
 1674 00d7 00        		.byte	0x0
 1675 00d8 00        		.byte	0x0
 1676 00d9 12        		.uleb128 0x12
 1677 00da 2E        		.uleb128 0x2e
 1678 00db 01        		.byte	0x1
 1679 00dc 3F        		.uleb128 0x3f
 1680 00dd 0C        		.uleb128 0xc
 1681 00de 03        		.uleb128 0x3
 1682 00df 0E        		.uleb128 0xe
 1683 00e0 3A        		.uleb128 0x3a
 1684 00e1 0B        		.uleb128 0xb
 1685 00e2 3B        		.uleb128 0x3b
 1686 00e3 0B        		.uleb128 0xb
 1687 00e4 27        		.uleb128 0x27
 1688 00e5 0C        		.uleb128 0xc
 1689 00e6 49        		.uleb128 0x49
 1690 00e7 13        		.uleb128 0x13
 1691 00e8 11        		.uleb128 0x11
 1692 00e9 01        		.uleb128 0x1
 1693 00ea 12        		.uleb128 0x12
 1694 00eb 01        		.uleb128 0x1
 1695 00ec 40        		.uleb128 0x40
 1696 00ed 0A        		.uleb128 0xa
 1697 00ee 01        		.uleb128 0x1
 1698 00ef 13        		.uleb128 0x13
 1699 00f0 00        		.byte	0x0
 1700 00f1 00        		.byte	0x0
 1701 00f2 13        		.uleb128 0x13
 1702 00f3 05        		.uleb128 0x5
 1703 00f4 00        		.byte	0x0
 1704 00f5 03        		.uleb128 0x3
 1705 00f6 0E        		.uleb128 0xe
 1706 00f7 3A        		.uleb128 0x3a
 1707 00f8 0B        		.uleb128 0xb
 1708 00f9 3B        		.uleb128 0x3b
 1709 00fa 0B        		.uleb128 0xb
 1710 00fb 49        		.uleb128 0x49
GAS LISTING C:\Users\ADMINI~1\AppData\Local\Temp/ccqPtjCc.s 			page 31


 1711 00fc 13        		.uleb128 0x13
 1712 00fd 02        		.uleb128 0x2
 1713 00fe 06        		.uleb128 0x6
 1714 00ff 00        		.byte	0x0
 1715 0100 00        		.byte	0x0
 1716 0101 14        		.uleb128 0x14
 1717 0102 05        		.uleb128 0x5
 1718 0103 00        		.byte	0x0
 1719 0104 03        		.uleb128 0x3
 1720 0105 0E        		.uleb128 0xe
 1721 0106 3A        		.uleb128 0x3a
 1722 0107 0B        		.uleb128 0xb
 1723 0108 3B        		.uleb128 0x3b
 1724 0109 0B        		.uleb128 0xb
 1725 010a 49        		.uleb128 0x49
 1726 010b 13        		.uleb128 0x13
 1727 010c 02        		.uleb128 0x2
 1728 010d 0A        		.uleb128 0xa
 1729 010e 00        		.byte	0x0
 1730 010f 00        		.byte	0x0
 1731 0110 15        		.uleb128 0x15
 1732 0111 0B        		.uleb128 0xb
 1733 0112 01        		.byte	0x1
 1734 0113 11        		.uleb128 0x11
 1735 0114 01        		.uleb128 0x1
 1736 0115 12        		.uleb128 0x12
 1737 0116 01        		.uleb128 0x1
 1738 0117 00        		.byte	0x0
 1739 0118 00        		.byte	0x0
 1740 0119 16        		.uleb128 0x16
 1741 011a 34        		.uleb128 0x34
 1742 011b 00        		.byte	0x0
 1743 011c 03        		.uleb128 0x3
 1744 011d 0E        		.uleb128 0xe
 1745 011e 3A        		.uleb128 0x3a
 1746 011f 0B        		.uleb128 0xb
 1747 0120 3B        		.uleb128 0x3b
 1748 0121 0B        		.uleb128 0xb
 1749 0122 49        		.uleb128 0x49
 1750 0123 13        		.uleb128 0x13
 1751 0124 02        		.uleb128 0x2
 1752 0125 0A        		.uleb128 0xa
 1753 0126 00        		.byte	0x0
 1754 0127 00        		.byte	0x0
 1755 0128 17        		.uleb128 0x17
 1756 0129 2E        		.uleb128 0x2e
 1757 012a 01        		.byte	0x1
 1758 012b 3F        		.uleb128 0x3f
 1759 012c 0C        		.uleb128 0xc
 1760 012d 03        		.uleb128 0x3
 1761 012e 0E        		.uleb128 0xe
 1762 012f 3A        		.uleb128 0x3a
 1763 0130 0B        		.uleb128 0xb
 1764 0131 3B        		.uleb128 0x3b
 1765 0132 0B        		.uleb128 0xb
 1766 0133 27        		.uleb128 0x27
 1767 0134 0C        		.uleb128 0xc
GAS LISTING C:\Users\ADMINI~1\AppData\Local\Temp/ccqPtjCc.s 			page 32


 1768 0135 11        		.uleb128 0x11
 1769 0136 01        		.uleb128 0x1
 1770 0137 12        		.uleb128 0x12
 1771 0138 01        		.uleb128 0x1
 1772 0139 40        		.uleb128 0x40
 1773 013a 0A        		.uleb128 0xa
 1774 013b 01        		.uleb128 0x1
 1775 013c 13        		.uleb128 0x13
 1776 013d 00        		.byte	0x0
 1777 013e 00        		.byte	0x0
 1778 013f 18        		.uleb128 0x18
 1779 0140 1D        		.uleb128 0x1d
 1780 0141 01        		.byte	0x1
 1781 0142 31        		.uleb128 0x31
 1782 0143 13        		.uleb128 0x13
 1783 0144 11        		.uleb128 0x11
 1784 0145 01        		.uleb128 0x1
 1785 0146 12        		.uleb128 0x12
 1786 0147 01        		.uleb128 0x1
 1787 0148 58        		.uleb128 0x58
 1788 0149 0B        		.uleb128 0xb
 1789 014a 59        		.uleb128 0x59
 1790 014b 0B        		.uleb128 0xb
 1791 014c 00        		.byte	0x0
 1792 014d 00        		.byte	0x0
 1793 014e 19        		.uleb128 0x19
 1794 014f 0B        		.uleb128 0xb
 1795 0150 01        		.byte	0x1
 1796 0151 55        		.uleb128 0x55
 1797 0152 06        		.uleb128 0x6
 1798 0153 00        		.byte	0x0
 1799 0154 00        		.byte	0x0
 1800 0155 1A        		.uleb128 0x1a
 1801 0156 34        		.uleb128 0x34
 1802 0157 00        		.byte	0x0
 1803 0158 31        		.uleb128 0x31
 1804 0159 13        		.uleb128 0x13
 1805 015a 02        		.uleb128 0x2
 1806 015b 06        		.uleb128 0x6
 1807 015c 00        		.byte	0x0
 1808 015d 00        		.byte	0x0
 1809 015e 1B        		.uleb128 0x1b
 1810 015f 1D        		.uleb128 0x1d
 1811 0160 01        		.byte	0x1
 1812 0161 31        		.uleb128 0x31
 1813 0162 13        		.uleb128 0x13
 1814 0163 11        		.uleb128 0x11
 1815 0164 01        		.uleb128 0x1
 1816 0165 12        		.uleb128 0x12
 1817 0166 01        		.uleb128 0x1
 1818 0167 58        		.uleb128 0x58
 1819 0168 0B        		.uleb128 0xb
 1820 0169 59        		.uleb128 0x59
 1821 016a 0B        		.uleb128 0xb
 1822 016b 01        		.uleb128 0x1
 1823 016c 13        		.uleb128 0x13
 1824 016d 00        		.byte	0x0
GAS LISTING C:\Users\ADMINI~1\AppData\Local\Temp/ccqPtjCc.s 			page 33


 1825 016e 00        		.byte	0x0
 1826 016f 1C        		.uleb128 0x1c
 1827 0170 15        		.uleb128 0x15
 1828 0171 01        		.byte	0x1
 1829 0172 27        		.uleb128 0x27
 1830 0173 0C        		.uleb128 0xc
 1831 0174 49        		.uleb128 0x49
 1832 0175 13        		.uleb128 0x13
 1833 0176 01        		.uleb128 0x1
 1834 0177 13        		.uleb128 0x13
 1835 0178 00        		.byte	0x0
 1836 0179 00        		.byte	0x0
 1837 017a 1D        		.uleb128 0x1d
 1838 017b 05        		.uleb128 0x5
 1839 017c 00        		.byte	0x0
 1840 017d 49        		.uleb128 0x49
 1841 017e 13        		.uleb128 0x13
 1842 017f 00        		.byte	0x0
 1843 0180 00        		.byte	0x0
 1844 0181 1E        		.uleb128 0x1e
 1845 0182 0F        		.uleb128 0xf
 1846 0183 00        		.byte	0x0
 1847 0184 0B        		.uleb128 0xb
 1848 0185 0B        		.uleb128 0xb
 1849 0186 49        		.uleb128 0x49
 1850 0187 13        		.uleb128 0x13
 1851 0188 00        		.byte	0x0
 1852 0189 00        		.byte	0x0
 1853 018a 1F        		.uleb128 0x1f
 1854 018b 01        		.uleb128 0x1
 1855 018c 01        		.byte	0x1
 1856 018d 49        		.uleb128 0x49
 1857 018e 13        		.uleb128 0x13
 1858 018f 01        		.uleb128 0x1
 1859 0190 13        		.uleb128 0x13
 1860 0191 00        		.byte	0x0
 1861 0192 00        		.byte	0x0
 1862 0193 20        		.uleb128 0x20
 1863 0194 21        		.uleb128 0x21
 1864 0195 00        		.byte	0x0
 1865 0196 49        		.uleb128 0x49
 1866 0197 13        		.uleb128 0x13
 1867 0198 2F        		.uleb128 0x2f
 1868 0199 0B        		.uleb128 0xb
 1869 019a 00        		.byte	0x0
 1870 019b 00        		.byte	0x0
 1871 019c 21        		.uleb128 0x21
 1872 019d 34        		.uleb128 0x34
 1873 019e 00        		.byte	0x0
 1874 019f 03        		.uleb128 0x3
 1875 01a0 0E        		.uleb128 0xe
 1876 01a1 3A        		.uleb128 0x3a
 1877 01a2 0B        		.uleb128 0xb
 1878 01a3 3B        		.uleb128 0x3b
 1879 01a4 0B        		.uleb128 0xb
 1880 01a5 49        		.uleb128 0x49
 1881 01a6 13        		.uleb128 0x13
GAS LISTING C:\Users\ADMINI~1\AppData\Local\Temp/ccqPtjCc.s 			page 34


 1882 01a7 3F        		.uleb128 0x3f
 1883 01a8 0C        		.uleb128 0xc
 1884 01a9 02        		.uleb128 0x2
 1885 01aa 0A        		.uleb128 0xa
 1886 01ab 00        		.byte	0x0
 1887 01ac 00        		.byte	0x0
 1888 01ad 22        		.uleb128 0x22
 1889 01ae 26        		.uleb128 0x26
 1890 01af 00        		.byte	0x0
 1891 01b0 49        		.uleb128 0x49
 1892 01b1 13        		.uleb128 0x13
 1893 01b2 00        		.byte	0x0
 1894 01b3 00        		.byte	0x0
 1895 01b4 00        		.byte	0x0
 1896               		.section	.debug_pubnames,"",@progbits
 1897 0000 9801 0000 		.long	0x198
 1898 0004 0200      		.word	0x2
 1899 0006 0000 0000 		.long	.Ldebug_info0
 1900 000a AD04 0000 		.long	0x4ad
 1901 000e 6201 0000 		.long	0x162
 1902 0012 6973 4361 		.string	"isCanceledDualAction"
 1902      6E63 656C 
 1902      6564 4475 
 1902      616C 4163 
 1902      7469 6F6E 
 1903 0027 7201 0000 		.long	0x172
 1904 002b 6765 7444 		.string	"getDualActionDownKeyIdex"
 1904      7561 6C41 
 1904      6374 696F 
 1904      6E44 6F77 
 1904      6E4B 6579 
 1905 0044 9001 0000 		.long	0x190
 1906 0048 6765 744B 		.string	"getKeyCode"
 1906      6579 436F 
 1906      6465 00
 1907 0053 F801 0000 		.long	0x1f8
 1908 0057 7365 7444 		.string	"setDualAction"
 1908      7561 6C41 
 1908      6374 696F 
 1908      6E00 
 1909 0065 4E02 0000 		.long	0x24e
 1910 0069 6170 706C 		.string	"applyDualActionDown"
 1910      7944 7561 
 1910      6C41 6374 
 1910      696F 6E44 
 1910      6F77 6E00 
 1911 007d 1C03 0000 		.long	0x31c
 1912 0081 6B65 7963 		.string	"keycode_set2"
 1912      6F64 655F 
 1912      7365 7432 
 1912      00
 1913 008e 4303 0000 		.long	0x343
 1914 0092 6B65 7963 		.string	"keycode_USB_multimedia"
 1914      6F64 655F 
 1914      5553 425F 
 1914      6D75 6C74 
 1914      696D 6564 
GAS LISTING C:\Users\ADMINI~1\AppData\Local\Temp/ccqPtjCc.s 			page 35


 1915 00a9 6A03 0000 		.long	0x36a
 1916 00ad 6B65 7963 		.string	"keycode_USB_extend"
 1916      6F64 655F 
 1916      5553 425F 
 1916      6578 7465 
 1916      6E64 00
 1917 00c0 9103 0000 		.long	0x391
 1918 00c4 6B65 7963 		.string	"keycode_set2_special"
 1918      6F64 655F 
 1918      7365 7432 
 1918      5F73 7065 
 1918      6369 616C 
 1919 00d9 B803 0000 		.long	0x3b8
 1920 00dd 6B65 7963 		.string	"keycode_set2_makeonly"
 1920      6F64 655F 
 1920      7365 7432 
 1920      5F6D 616B 
 1920      656F 6E6C 
 1921 00f3 DF03 0000 		.long	0x3df
 1922 00f7 6B65 7963 		.string	"keycode_set2_make_break"
 1922      6F64 655F 
 1922      7365 7432 
 1922      5F6D 616B 
 1922      655F 6272 
 1923 010f 0604 0000 		.long	0x406
 1924 0113 6B65 7963 		.string	"keycode_set2_extend"
 1924      6F64 655F 
 1924      7365 7432 
 1924      5F65 7874 
 1924      656E 6400 
 1925 0127 2D04 0000 		.long	0x42d
 1926 012b 6B65 7963 		.string	"keycode_set2_proc_shift"
 1926      6F64 655F 
 1926      7365 7432 
 1926      5F70 726F 
 1926      635F 7368 
 1927 0143 4404 0000 		.long	0x444
 1928 0147 6475 616C 		.string	"dualActionKeyIndex"
 1928      4163 7469 
 1928      6F6E 4B65 
 1928      7949 6E64 
 1928      6578 00
 1929 015a 6604 0000 		.long	0x466
 1930 015e 6475 616C 		.string	"dualActionMaskDown"
 1930      4163 7469 
 1930      6F6E 4D61 
 1930      736B 446F 
 1930      776E 00
 1931 0171 7D04 0000 		.long	0x47d
 1932 0175 6475 616C 		.string	"dualActionMaskUp"
 1932      4163 7469 
 1932      6F6E 4D61 
 1932      736B 5570 
 1932      00
 1933 0186 9404 0000 		.long	0x494
 1934 018a 6B65 796D 		.string	"keymapAddress"
 1934      6170 4164 
GAS LISTING C:\Users\ADMINI~1\AppData\Local\Temp/ccqPtjCc.s 			page 36


 1934      6472 6573 
 1934      7300 
 1935 0198 0000 0000 		.long	0x0
 1936               		.section	.debug_aranges,"",@progbits
 1937 0000 1C00 0000 		.long	0x1c
 1938 0004 0200      		.word	0x2
 1939 0006 0000 0000 		.long	.Ldebug_info0
 1940 000a 04        		.byte	0x4
 1941 000b 00        		.byte	0x0
 1942 000c 0000      		.word	0x0
 1943 000e 0000      		.word	0x0
 1944 0010 0000 0000 		.long	.Ltext0
 1945 0014 5201 0000 		.long	.Letext0-.Ltext0
 1946 0018 0000 0000 		.long	0x0
 1947 001c 0000 0000 		.long	0x0
 1948               		.section	.debug_ranges,"",@progbits
 1949               	.Ldebug_ranges0:
 1950 0000 AC00 0000 		.long	.LBB25-.Ltext0
 1951 0004 C400 0000 		.long	.LBE25-.Ltext0
 1952 0008 C800 0000 		.long	.LBB26-.Ltext0
 1953 000c E400 0000 		.long	.LBE26-.Ltext0
 1954 0010 0000 0000 		.long	0x0
 1955 0014 0000 0000 		.long	0x0
 1956               		.section	.debug_line
 1957 0000 CC01 0000 		.long	.LELT0-.LSLT0
 1958               	.LSLT0:
 1959 0004 0200      		.word	0x2
 1960 0006 6100 0000 		.long	.LELTP0-.LASLTP0
 1961               	.LASLTP0:
 1962 000a 01        		.byte	0x1
 1963 000b 01        		.byte	0x1
 1964 000c F6        		.byte	0xf6
 1965 000d F5        		.byte	0xf5
 1966 000e 0A        		.byte	0xa
 1967 000f 00        		.byte	0x0
 1968 0010 01        		.byte	0x1
 1969 0011 01        		.byte	0x1
 1970 0012 01        		.byte	0x1
 1971 0013 01        		.byte	0x1
 1972 0014 00        		.byte	0x0
 1973 0015 00        		.byte	0x0
 1974 0016 00        		.byte	0x0
 1975 0017 01        		.byte	0x1
 1976 0018 633A 2F77 		.ascii	"c:/winavr-20100110/lib/gcc/../../avr/include"
 1976      696E 6176 
 1976      722D 3230 
 1976      3130 3031 
 1976      3130 2F6C 
 1977 0044 00        		.byte	0
 1978 0045 00        		.byte	0x0
 1979 0046 6B65 796D 		.string	"keymap.c"
 1979      6170 2E63 
 1979      00
 1980 004f 00        		.uleb128 0x0
 1981 0050 00        		.uleb128 0x0
 1982 0051 00        		.uleb128 0x0
 1983 0052 7374 6469 		.string	"stdint.h"
GAS LISTING C:\Users\ADMINI~1\AppData\Local\Temp/ccqPtjCc.s 			page 37


 1983      6E74 2E68 
 1983      00
 1984 005b 01        		.uleb128 0x1
 1985 005c 00        		.uleb128 0x0
 1986 005d 00        		.uleb128 0x0
 1987 005e 6B65 796D 		.string	"keymap.h"
 1987      6170 2E68 
 1987      00
 1988 0067 00        		.uleb128 0x0
 1989 0068 00        		.uleb128 0x0
 1990 0069 00        		.uleb128 0x0
 1991 006a 00        		.byte	0x0
 1992               	.LELTP0:
 1993 006b 00        		.byte	0x0
 1994 006c 05        		.uleb128 0x5
 1995 006d 02        		.byte	0x2
 1996 006e 0000 0000 		.long	.LM1
 1997 0072 4B        		.byte	0x4b
 1998 0073 00        		.byte	0x0
 1999 0074 05        		.uleb128 0x5
 2000 0075 02        		.byte	0x2
 2001 0076 0000 0000 		.long	.LM2
 2002 007a 16        		.byte	0x16
 2003 007b 00        		.byte	0x0
 2004 007c 05        		.uleb128 0x5
 2005 007d 02        		.byte	0x2
 2006 007e 0000 0000 		.long	.LM3
 2007 0082 54        		.byte	0x54
 2008 0083 00        		.byte	0x0
 2009 0084 05        		.uleb128 0x5
 2010 0085 02        		.byte	0x2
 2011 0086 0000 0000 		.long	.LM4
 2012 008a 15        		.byte	0x15
 2013 008b 00        		.byte	0x0
 2014 008c 05        		.uleb128 0x5
 2015 008d 02        		.byte	0x2
 2016 008e 0000 0000 		.long	.LM5
 2017 0092 15        		.byte	0x15
 2018 0093 00        		.byte	0x0
 2019 0094 05        		.uleb128 0x5
 2020 0095 02        		.byte	0x2
 2021 0096 0000 0000 		.long	.LM6
 2022 009a 17        		.byte	0x17
 2023 009b 00        		.byte	0x0
 2024 009c 05        		.uleb128 0x5
 2025 009d 02        		.byte	0x2
 2026 009e 0000 0000 		.long	.LM7
 2027 00a2 6B        		.byte	0x6b
 2028 00a3 00        		.byte	0x0
 2029 00a4 05        		.uleb128 0x5
 2030 00a5 02        		.byte	0x2
 2031 00a6 0000 0000 		.long	.LM8
 2032 00aa 15        		.byte	0x15
 2033 00ab 00        		.byte	0x0
 2034 00ac 05        		.uleb128 0x5
 2035 00ad 02        		.byte	0x2
 2036 00ae 0000 0000 		.long	.LM9
GAS LISTING C:\Users\ADMINI~1\AppData\Local\Temp/ccqPtjCc.s 			page 38


 2037 00b2 15        		.byte	0x15
 2038 00b3 00        		.byte	0x0
 2039 00b4 05        		.uleb128 0x5
 2040 00b5 02        		.byte	0x2
 2041 00b6 0000 0000 		.long	.LM10
 2042 00ba 03        		.byte	0x3
 2043 00bb 887F      		.sleb128 -120
 2044 00bd 01        		.byte	0x1
 2045 00be 00        		.byte	0x0
 2046 00bf 05        		.uleb128 0x5
 2047 00c0 02        		.byte	0x2
 2048 00c1 0000 0000 		.long	.LM11
 2049 00c5 15        		.byte	0x15
 2050 00c6 00        		.byte	0x0
 2051 00c7 05        		.uleb128 0x5
 2052 00c8 02        		.byte	0x2
 2053 00c9 0000 0000 		.long	.LM12
 2054 00cd 15        		.byte	0x15
 2055 00ce 00        		.byte	0x0
 2056 00cf 05        		.uleb128 0x5
 2057 00d0 02        		.byte	0x2
 2058 00d1 0000 0000 		.long	.LM13
 2059 00d5 15        		.byte	0x15
 2060 00d6 00        		.byte	0x0
 2061 00d7 05        		.uleb128 0x5
 2062 00d8 02        		.byte	0x2
 2063 00d9 0000 0000 		.long	.LM14
 2064 00dd 15        		.byte	0x15
 2065 00de 00        		.byte	0x0
 2066 00df 05        		.uleb128 0x5
 2067 00e0 02        		.byte	0x2
 2068 00e1 0000 0000 		.long	.LM15
 2069 00e5 15        		.byte	0x15
 2070 00e6 00        		.byte	0x0
 2071 00e7 05        		.uleb128 0x5
 2072 00e8 02        		.byte	0x2
 2073 00e9 0000 0000 		.long	.LM16
 2074 00ed 15        		.byte	0x15
 2075 00ee 00        		.byte	0x0
 2076 00ef 05        		.uleb128 0x5
 2077 00f0 02        		.byte	0x2
 2078 00f1 0000 0000 		.long	.LM17
 2079 00f5 15        		.byte	0x15
 2080 00f6 00        		.byte	0x0
 2081 00f7 05        		.uleb128 0x5
 2082 00f8 02        		.byte	0x2
 2083 00f9 0000 0000 		.long	.LM18
 2084 00fd 1A        		.byte	0x1a
 2085 00fe 00        		.byte	0x0
 2086 00ff 05        		.uleb128 0x5
 2087 0100 02        		.byte	0x2
 2088 0101 0000 0000 		.long	.LM19
 2089 0105 17        		.byte	0x17
 2090 0106 00        		.byte	0x0
 2091 0107 05        		.uleb128 0x5
 2092 0108 02        		.byte	0x2
 2093 0109 0000 0000 		.long	.LM20
GAS LISTING C:\Users\ADMINI~1\AppData\Local\Temp/ccqPtjCc.s 			page 39


 2094 010d 17        		.byte	0x17
 2095 010e 00        		.byte	0x0
 2096 010f 05        		.uleb128 0x5
 2097 0110 02        		.byte	0x2
 2098 0111 0000 0000 		.long	.LM21
 2099 0115 15        		.byte	0x15
 2100 0116 00        		.byte	0x0
 2101 0117 05        		.uleb128 0x5
 2102 0118 02        		.byte	0x2
 2103 0119 0000 0000 		.long	.LM22
 2104 011d 03        		.byte	0x3
 2105 011e 5B        		.sleb128 -37
 2106 011f 01        		.byte	0x1
 2107 0120 00        		.byte	0x0
 2108 0121 05        		.uleb128 0x5
 2109 0122 02        		.byte	0x2
 2110 0123 0000 0000 		.long	.LM23
 2111 0127 16        		.byte	0x16
 2112 0128 00        		.byte	0x0
 2113 0129 05        		.uleb128 0x5
 2114 012a 02        		.byte	0x2
 2115 012b 0000 0000 		.long	.LM24
 2116 012f 15        		.byte	0x15
 2117 0130 00        		.byte	0x0
 2118 0131 05        		.uleb128 0x5
 2119 0132 02        		.byte	0x2
 2120 0133 0000 0000 		.long	.LM25
 2121 0137 15        		.byte	0x15
 2122 0138 00        		.byte	0x0
 2123 0139 05        		.uleb128 0x5
 2124 013a 02        		.byte	0x2
 2125 013b 0000 0000 		.long	.LM26
 2126 013f 15        		.byte	0x15
 2127 0140 00        		.byte	0x0
 2128 0141 05        		.uleb128 0x5
 2129 0142 02        		.byte	0x2
 2130 0143 0000 0000 		.long	.LM27
 2131 0147 16        		.byte	0x16
 2132 0148 00        		.byte	0x0
 2133 0149 05        		.uleb128 0x5
 2134 014a 02        		.byte	0x2
 2135 014b 0000 0000 		.long	.LM28
 2136 014f 16        		.byte	0x16
 2137 0150 00        		.byte	0x0
 2138 0151 05        		.uleb128 0x5
 2139 0152 02        		.byte	0x2
 2140 0153 0000 0000 		.long	.LM29
 2141 0157 15        		.byte	0x15
 2142 0158 00        		.byte	0x0
 2143 0159 05        		.uleb128 0x5
 2144 015a 02        		.byte	0x2
 2145 015b 0000 0000 		.long	.LM30
 2146 015f 18        		.byte	0x18
 2147 0160 00        		.byte	0x0
 2148 0161 05        		.uleb128 0x5
 2149 0162 02        		.byte	0x2
 2150 0163 0000 0000 		.long	.LM31
GAS LISTING C:\Users\ADMINI~1\AppData\Local\Temp/ccqPtjCc.s 			page 40


 2151 0167 2F        		.byte	0x2f
 2152 0168 00        		.byte	0x0
 2153 0169 05        		.uleb128 0x5
 2154 016a 02        		.byte	0x2
 2155 016b 0000 0000 		.long	.LM32
 2156 016f 03        		.byte	0x3
 2157 0170 46        		.sleb128 -58
 2158 0171 01        		.byte	0x1
 2159 0172 00        		.byte	0x0
 2160 0173 05        		.uleb128 0x5
 2161 0174 02        		.byte	0x2
 2162 0175 0000 0000 		.long	.LM33
 2163 0179 15        		.byte	0x15
 2164 017a 00        		.byte	0x0
 2165 017b 05        		.uleb128 0x5
 2166 017c 02        		.byte	0x2
 2167 017d 0000 0000 		.long	.LM34
 2168 0181 50        		.byte	0x50
 2169 0182 00        		.byte	0x0
 2170 0183 05        		.uleb128 0x5
 2171 0184 02        		.byte	0x2
 2172 0185 0000 0000 		.long	.LM35
 2173 0189 15        		.byte	0x15
 2174 018a 00        		.byte	0x0
 2175 018b 05        		.uleb128 0x5
 2176 018c 02        		.byte	0x2
 2177 018d 0000 0000 		.long	.LM36
 2178 0191 03        		.byte	0x3
 2179 0192 45        		.sleb128 -59
 2180 0193 01        		.byte	0x1
 2181 0194 00        		.byte	0x0
 2182 0195 05        		.uleb128 0x5
 2183 0196 02        		.byte	0x2
 2184 0197 0000 0000 		.long	.LM37
 2185 019b 16        		.byte	0x16
 2186 019c 00        		.byte	0x0
 2187 019d 05        		.uleb128 0x5
 2188 019e 02        		.byte	0x2
 2189 019f 0000 0000 		.long	.LM38
 2190 01a3 16        		.byte	0x16
 2191 01a4 00        		.byte	0x0
 2192 01a5 05        		.uleb128 0x5
 2193 01a6 02        		.byte	0x2
 2194 01a7 0000 0000 		.long	.LM39
 2195 01ab 4A        		.byte	0x4a
 2196 01ac 00        		.byte	0x0
 2197 01ad 05        		.uleb128 0x5
 2198 01ae 02        		.byte	0x2
 2199 01af 0000 0000 		.long	.LM40
 2200 01b3 15        		.byte	0x15
 2201 01b4 00        		.byte	0x0
 2202 01b5 05        		.uleb128 0x5
 2203 01b6 02        		.byte	0x2
 2204 01b7 0000 0000 		.long	.LM41
 2205 01bb 03        		.byte	0x3
 2206 01bc 49        		.sleb128 -55
 2207 01bd 01        		.byte	0x1
GAS LISTING C:\Users\ADMINI~1\AppData\Local\Temp/ccqPtjCc.s 			page 41


 2208 01be 00        		.byte	0x0
 2209 01bf 05        		.uleb128 0x5
 2210 01c0 02        		.byte	0x2
 2211 01c1 0000 0000 		.long	.LM42
 2212 01c5 16        		.byte	0x16
 2213 01c6 00        		.byte	0x0
 2214 01c7 05        		.uleb128 0x5
 2215 01c8 02        		.byte	0x2
 2216 01c9 0000 0000 		.long	.Letext0
 2217 01cd 00        		.byte	0x0
 2218 01ce 01        		.uleb128 0x1
 2219 01cf 01        		.byte	0x1
 2220               	.LELT0:
 2221 01d0 1600 0000 		.section	.debug_str,"MS",@progbits,1
 2221      0200 1000 
 2221      0000 0101 
 2221      FB0E 0A00 
 2221      0101 0101 
 2222               	.LASF44:
 2223 0000 6B65 7963 		.string	"keycode_set2"
 2223      6F64 655F 
 2223      7365 7432 
 2223      00
 2224               	.LASF24:
 2225 000d 4B45 595F 		.string	"KEY_LALT_HANJA"
 2225      4C41 4C54 
 2225      5F48 414E 
 2225      4A41 00
 2226               	.LASF22:
 2227 001c 4B45 595F 		.string	"KEY_RALT_HANJA"
 2227      5241 4C54 
 2227      5F48 414E 
 2227      4A41 00
 2228               	.LASF19:
 2229 002b 4B45 595F 		.string	"KEY_LSHIFT_HANGLE"
 2229      4C53 4849 
 2229      4654 5F48 
 2229      414E 474C 
 2229      4500 
 2230               	.LASF34:
 2231 003d 5F5F 6164 		.string	"__addr16"
 2231      6472 3136 
 2231      00
 2232               	.LASF60:
 2233 0046 6170 706C 		.string	"applyDualActionUp"
 2233      7944 7561 
 2233      6C41 6374 
 2233      696F 6E55 
 2233      7000 
 2234               	.LASF38:
 2235 0058 6170 706C 		.string	"applyDualActionDown"
 2235      7944 7561 
 2235      6C41 6374 
 2235      696F 6E44 
 2235      6F77 6E00 
 2236               	.LASF50:
 2237 006c 6B65 7963 		.string	"keycode_set2_extend"
GAS LISTING C:\Users\ADMINI~1\AppData\Local\Temp/ccqPtjCc.s 			page 42


 2237      6F64 655F 
 2237      7365 7432 
 2237      5F65 7874 
 2237      656E 6400 
 2238               	.LASF8:
 2239 0080 6C6F 6E67 		.string	"long long unsigned int"
 2239      206C 6F6E 
 2239      6720 756E 
 2239      7369 676E 
 2239      6564 2069 
 2240               	.LASF43:
 2241 0097 5F69 7341 		.string	"_isActiveDualAction"
 2241      6374 6976 
 2241      6544 7561 
 2241      6C41 6374 
 2241      696F 6E00 
 2242               	.LASF17:
 2243 00ab 4B45 595F 		.string	"KEY_RSHIFT_HANGLE"
 2243      5253 4849 
 2243      4654 5F48 
 2243      414E 474C 
 2243      4500 
 2244               	.LASF13:
 2245 00bd 4B45 595F 		.string	"KEY_FN_HANGLE"
 2245      464E 5F48 
 2245      414E 474C 
 2245      4500 
 2246               	.LASF7:
 2247 00cb 6C6F 6E67 		.string	"long long int"
 2247      206C 6F6E 
 2247      6720 696E 
 2247      7400 
 2248               	.LASF0:
 2249 00d9 7369 676E 		.string	"signed char"
 2249      6564 2063 
 2249      6861 7200 
 2250               	.LASF47:
 2251 00e5 6B65 7963 		.string	"keycode_set2_special"
 2251      6F64 655F 
 2251      7365 7432 
 2251      5F73 7065 
 2251      6369 616C 
 2252               	.LASF41:
 2253 00fa 5F64 7561 		.string	"_dualActionCount"
 2253      6C41 6374 
 2253      696F 6E43 
 2253      6F75 6E74 
 2253      00
 2254               	.LASF52:
 2255 010b 6475 616C 		.string	"dualActionKeyIndex"
 2255      4163 7469 
 2255      6F6E 4B65 
 2255      7949 6E64 
 2255      6578 00
 2256               	.LASF45:
 2257 011e 6B65 7963 		.string	"keycode_USB_multimedia"
 2257      6F64 655F 
GAS LISTING C:\Users\ADMINI~1\AppData\Local\Temp/ccqPtjCc.s 			page 43


 2257      5553 425F 
 2257      6D75 6C74 
 2257      696D 6564 
 2258               	.LASF5:
 2259 0135 6C6F 6E67 		.string	"long int"
 2259      2069 6E74 
 2259      00
 2260               	.LASF3:
 2261 013e 7569 6E74 		.string	"uint16_t"
 2261      3136 5F74 
 2261      00
 2262               	.LASF25:
 2263 0147 4B45 595F 		.string	"KEY_RCTRL_HANGLE"
 2263      5243 5452 
 2263      4C5F 4841 
 2263      4E47 4C45 
 2263      00
 2264               	.LASF40:
 2265 0158 5F5F 7265 		.string	"__result"
 2265      7375 6C74 
 2265      00
 2266               	.LASF32:
 2267 0161 7843 6F6C 		.string	"xCol"
 2267      00
 2268               	.LASF16:
 2269 0166 4B45 595F 		.string	"KEY_FN2_HANJA"
 2269      464E 325F 
 2269      4841 4E4A 
 2269      4100 
 2270               	.LASF56:
 2271 0174 474E 5520 		.string	"GNU C 4.3.3"
 2271      4320 342E 
 2271      332E 3300 
 2272               	.LASF20:
 2273 0180 4B45 595F 		.string	"KEY_LSHIFT_HANJA"
 2273      4C53 4849 
 2273      4654 5F48 
 2273      414E 4A41 
 2273      00
 2274               	.LASF37:
 2275 0191 7365 7444 		.string	"setDualAction"
 2275      7561 6C41 
 2275      6374 696F 
 2275      6E00 
 2276               	.LASF4:
 2277 019f 756E 7369 		.string	"unsigned int"
 2277      676E 6564 
 2277      2069 6E74 
 2277      00
 2278               	.LASF6:
 2279 01ac 6C6F 6E67 		.string	"long unsigned int"
 2279      2075 6E73 
 2279      6967 6E65 
 2279      6420 696E 
 2279      7400 
 2280               	.LASF51:
 2281 01be 6B65 7963 		.string	"keycode_set2_proc_shift"
GAS LISTING C:\Users\ADMINI~1\AppData\Local\Temp/ccqPtjCc.s 			page 44


 2281      6F64 655F 
 2281      7365 7432 
 2281      5F70 726F 
 2281      635F 7368 
 2282               	.LASF9:
 2283 01d6 7368 6F72 		.string	"short unsigned int"
 2283      7420 756E 
 2283      7369 676E 
 2283      6564 2069 
 2283      6E74 00
 2284               	.LASF46:
 2285 01e9 6B65 7963 		.string	"keycode_USB_extend"
 2285      6F64 655F 
 2285      5553 425F 
 2285      6578 7465 
 2285      6E64 00
 2286               	.LASF63:
 2287 01fc 6765 744B 		.string	"getKeyCode"
 2287      6579 436F 
 2287      6465 00
 2288               	.LASF36:
 2289 0207 6973 446F 		.string	"isDown"
 2289      776E 00
 2290               	.LASF57:
 2291 020e 6B65 796D 		.string	"keymap.c"
 2291      6170 2E63 
 2291      00
 2292               	.LASF12:
 2293 0217 4B45 595F 		.string	"KEY_dualAction"
 2293      6475 616C 
 2293      4163 7469 
 2293      6F6E 00
 2294               	.LASF29:
 2295 0226 4B45 595F 		.string	"KEY_dualAction_end"
 2295      6475 616C 
 2295      4163 7469 
 2295      6F6E 5F65 
 2295      6E64 00
 2296               	.LASF31:
 2297 0239 7852 6F77 		.string	"xRow"
 2297      00
 2298               	.LASF53:
 2299 023e 6475 616C 		.string	"dualActionMaskDown"
 2299      4163 7469 
 2299      6F6E 4D61 
 2299      736B 446F 
 2299      776E 00
 2300               	.LASF26:
 2301 0251 4B45 595F 		.string	"KEY_RCTRL_HANJA"
 2301      5243 5452 
 2301      4C5F 4841 
 2301      4E4A 4100 
 2302               	.LASF33:
 2303 0261 6755 7049 		.string	"gUpIdx"
 2303      6478 00
 2304               	.LASF28:
 2305 0268 4B45 595F 		.string	"KEY_LCTRL_HANJA"
GAS LISTING C:\Users\ADMINI~1\AppData\Local\Temp/ccqPtjCc.s 			page 45


 2305      4C43 5452 
 2305      4C5F 4841 
 2305      4E4A 4100 
 2306               	.LASF1:
 2307 0278 756E 7369 		.string	"unsigned char"
 2307      676E 6564 
 2307      2063 6861 
 2307      7200 
 2308               	.LASF27:
 2309 0286 4B45 595F 		.string	"KEY_LCTRL_HANGLE"
 2309      4C43 5452 
 2309      4C5F 4841 
 2309      4E47 4C45 
 2309      00
 2310               	.LASF49:
 2311 0297 6B65 7963 		.string	"keycode_set2_make_break"
 2311      6F64 655F 
 2311      7365 7432 
 2311      5F6D 616B 
 2311      655F 6272 
 2312               	.LASF10:
 2313 02af 7368 6F72 		.string	"short int"
 2313      7420 696E 
 2313      7400 
 2314               	.LASF23:
 2315 02b9 4B45 595F 		.string	"KEY_LALT_HANGLE"
 2315      4C41 4C54 
 2315      5F48 414E 
 2315      474C 4500 
 2316               	.LASF18:
 2317 02c9 4B45 595F 		.string	"KEY_RSHIFT_HANJA"
 2317      5253 4849 
 2317      4654 5F48 
 2317      414E 4A41 
 2317      00
 2318               	.LASF15:
 2319 02da 4B45 595F 		.string	"KEY_FN2_HANGLE"
 2319      464E 325F 
 2319      4841 4E47 
 2319      4C45 00
 2320               	.LASF11:
 2321 02e9 6368 6172 		.string	"char"
 2321      00
 2322               	.LASF39:
 2323 02ee 6675 6E63 		.string	"func"
 2323      00
 2324               	.LASF59:
 2325 02f3 6973 4361 		.string	"isCanceledDualAction"
 2325      6E63 656C 
 2325      6564 4475 
 2325      616C 4163 
 2325      7469 6F6E 
 2326               	.LASF54:
 2327 0308 6475 616C 		.string	"dualActionMaskUp"
 2327      4163 7469 
 2327      6F6E 4D61 
 2327      736B 5570 
GAS LISTING C:\Users\ADMINI~1\AppData\Local\Temp/ccqPtjCc.s 			page 46


 2327      00
 2328               	.LASF61:
 2329 0319 6765 7444 		.string	"getDualActionDownKeyIdex"
 2329      7561 6C41 
 2329      6374 696F 
 2329      6E44 6F77 
 2329      6E4B 6579 
 2330               	.LASF42:
 2331 0332 5F69 7343 		.string	"_isCanceledDualAction"
 2331      616E 6365 
 2331      6C65 6444 
 2331      7561 6C41 
 2331      6374 696F 
 2332               	.LASF14:
 2333 0348 4B45 595F 		.string	"KEY_FN_HANJA"
 2333      464E 5F48 
 2333      414E 4A41 
 2333      00
 2334               	.LASF48:
 2335 0355 6B65 7963 		.string	"keycode_set2_makeonly"
 2335      6F64 655F 
 2335      7365 7432 
 2335      5F6D 616B 
 2335      656F 6E6C 
 2336               	.LASF2:
 2337 036b 7569 6E74 		.string	"uint8_t"
 2337      385F 7400 
 2338               	.LASF58:
 2339 0373 443A 5C67 		.string	"D:\\git\\ps2avrU\\source"
 2339      6974 5C70 
 2339      7332 6176 
 2339      7255 5C73 
 2339      6F75 7263 
 2340               	.LASF30:
 2341 0389 784C 6179 		.string	"xLayer"
 2341      6572 00
 2342               	.LASF55:
 2343 0390 6B65 796D 		.string	"keymapAddress"
 2343      6170 4164 
 2343      6472 6573 
 2343      7300 
 2344               	.LASF21:
 2345 039e 4B45 595F 		.string	"KEY_RALT_HANGLE"
 2345      5241 4C54 
 2345      5F48 414E 
 2345      474C 4500 
 2346               	.LASF35:
 2347 03ae 6B65 7969 		.string	"keyidx"
 2347      6478 00
 2348               	.LASF62:
 2349 03b5 7841 6374 		.string	"xActionIndex"
 2349      696F 6E49 
 2349      6E64 6578 
 2349      00
 2350               	.global __do_copy_data
 2351               	.global __do_clear_bss
GAS LISTING C:\Users\ADMINI~1\AppData\Local\Temp/ccqPtjCc.s 			page 47


DEFINED SYMBOLS
                            *ABS*:00000000 keymap.c
C:\Users\ADMINI~1\AppData\Local\Temp/ccqPtjCc.s:2      *ABS*:0000003f __SREG__
C:\Users\ADMINI~1\AppData\Local\Temp/ccqPtjCc.s:3      *ABS*:0000003e __SP_H__
C:\Users\ADMINI~1\AppData\Local\Temp/ccqPtjCc.s:4      *ABS*:0000003d __SP_L__
C:\Users\ADMINI~1\AppData\Local\Temp/ccqPtjCc.s:5      *ABS*:00000034 __CCP__
C:\Users\ADMINI~1\AppData\Local\Temp/ccqPtjCc.s:6      *ABS*:00000000 __tmp_reg__
C:\Users\ADMINI~1\AppData\Local\Temp/ccqPtjCc.s:7      *ABS*:00000001 __zero_reg__
C:\Users\ADMINI~1\AppData\Local\Temp/ccqPtjCc.s:18     .text:00000000 isCanceledDualAction
C:\Users\ADMINI~1\AppData\Local\Temp/ccqPtjCc.s:699    .bss:00000003 _isCanceledDualAction
C:\Users\ADMINI~1\AppData\Local\Temp/ccqPtjCc.s:31     .text:00000006 getDualActionDownKeyIdex
C:\Users\ADMINI~1\AppData\Local\Temp/ccqPtjCc.s:306    .data:00000000 dualActionMaskDown
C:\Users\ADMINI~1\AppData\Local\Temp/ccqPtjCc.s:63     .text:00000022 getKeyCode
C:\Users\ADMINI~1\AppData\Local\Temp/ccqPtjCc.s:696    .data:00000020 keymapAddress
C:\Users\ADMINI~1\AppData\Local\Temp/ccqPtjCc.s:105    .text:0000004e setDualAction
                             .bss:00000001 _dualActionCount
C:\Users\ADMINI~1\AppData\Local\Temp/ccqPtjCc.s:698    .bss:00000002 _isActiveDualAction
C:\Users\ADMINI~1\AppData\Local\Temp/ccqPtjCc.s:348    .bss:00000000 dualActionKeyIndex
C:\Users\ADMINI~1\AppData\Local\Temp/ccqPtjCc.s:326    .data:00000010 dualActionMaskUp
C:\Users\ADMINI~1\AppData\Local\Temp/ccqPtjCc.s:220    .text:000000f4 applyDualActionDown
C:\Users\ADMINI~1\AppData\Local\Temp/ccqPtjCc.s:354    .progmem.data:00000000 keycode_set2
C:\Users\ADMINI~1\AppData\Local\Temp/ccqPtjCc.s:534    .progmem.data:000000b0 keycode_USB_multimedia
C:\Users\ADMINI~1\AppData\Local\Temp/ccqPtjCc.s:564    .progmem.data:000000e4 keycode_USB_extend
C:\Users\ADMINI~1\AppData\Local\Temp/ccqPtjCc.s:602    .progmem.data:00000128 keycode_set2_special
C:\Users\ADMINI~1\AppData\Local\Temp/ccqPtjCc.s:609    .progmem.data:0000012b keycode_set2_makeonly
C:\Users\ADMINI~1\AppData\Local\Temp/ccqPtjCc.s:617    .progmem.data:0000012f keycode_set2_make_break
C:\Users\ADMINI~1\AppData\Local\Temp/ccqPtjCc.s:626    .progmem.data:00000134 keycode_set2_extend
C:\Users\ADMINI~1\AppData\Local\Temp/ccqPtjCc.s:676    .progmem.data:00000162 keycode_set2_proc_shift

UNDEFINED SYMBOLS
pushM
isMacroInput
putKeyCode
__do_copy_data
__do_clear_bss
