GAS LISTING C:\Users\ADMINI~1\AppData\Local\Temp/ccMxZnbV.s 			page 1


   1               		.file	"keymain.c"
   2               	__SREG__ = 0x3f
   3               	__SP_H__ = 0x3e
   4               	__SP_L__ = 0x3d
   5               	__CCP__  = 0x34
   6               	__tmp_reg__ = 0
   7               	__zero_reg__ = 1
   8               		.section	.debug_abbrev,"",@progbits
   9               	.Ldebug_abbrev0:
  10               		.section	.debug_info,"",@progbits
  11               	.Ldebug_info0:
  12               		.section	.debug_line,"",@progbits
  13               	.Ldebug_line0:
  14               		.text
  15               	.Ltext0:
  16               	.global	setUsbOn
  17               		.type	setUsbOn, @function
  18               	setUsbOn:
  19               	.LFB8:
  20               	.LM1:
  21               	/* prologue: function */
  22               	/* frame size = 0 */
  23               	.LM2:
  24 0000 8D98      		cbi 49-32,5
  25               	.LM3:
  26 0002 959A      		sbi 50-32,5
  27               	/* epilogue start */
  28               	.LM4:
  29 0004 0895      		ret
  30               	.LFE8:
  31               		.size	setUsbOn, .-setUsbOn
  32               	.global	setUsbOff
  33               		.type	setUsbOff, @function
  34               	setUsbOff:
  35               	.LFB9:
  36               	.LM5:
  37               	/* prologue: function */
  38               	/* frame size = 0 */
  39               	.LM6:
  40 0006 8D9A      		sbi 49-32,5
  41               	.LM7:
  42 0008 9598      		cbi 50-32,5
  43               	/* epilogue start */
  44               	.LM8:
  45 000a 0895      		ret
  46               	.LFE9:
  47               		.size	setUsbOff, .-setUsbOff
  48               	.global	getUserSelectedInterface
  49               		.type	getUserSelectedInterface, @function
  50               	getUserSelectedInterface:
  51               	.LFB13:
  52               	.LM9:
  53               	.LVL0:
  54               	/* prologue: function */
  55               	/* frame size = 0 */
  56               	.LM10:
  57 000c 21E0      		ldi r18,lo8(1)
GAS LISTING C:\Users\ADMINI~1\AppData\Local\Temp/ccMxZnbV.s 			page 2


  58 000e 30E0      		ldi r19,hi8(1)
  59 0010 00C0      		rjmp 2f
  60 0012 220F      	1:	lsl r18
  61 0014 331F      		rol r19
  62 0016 6A95      	2:	dec r22
  63 0018 02F4      		brpl 1b
  64               	.LM11:
  65 001a 8223      		and r24,r18
  66               	.LVL1:
  67               	/* epilogue start */
  68 001c 0895      		ret
  69               	.LFE13:
  70               		.size	getUserSelectedInterface, .-getUserSelectedInterface
  71               	.global	clearTimers
  72               		.type	clearTimers, @function
  73               	clearTimers:
  74               	.LFB11:
  75               	.LM12:
  76 001e 1F93      		push r17
  77               	/* prologue: function */
  78               	/* frame size = 0 */
  79               	.LM13:
  80 0020 10E0      		ldi r17,lo8(0)
  81               	.LVL2:
  82               	.L8:
  83               	.LM14:
  84 0022 812F      		mov r24,r17
  85 0024 0E94 0000 		call timerDetach
  86               	.LM15:
  87 0028 1F5F      		subi r17,lo8(-(1))
  88 002a 1730      		cpi r17,lo8(7)
  89 002c 01F4      		brne .L8
  90               	.LM16:
  91 002e 89B7      		in r24,89-32
  92 0030 8E7F      		andi r24,lo8(-2)
  93 0032 89BF      		out 89-32,r24
  94               	.LM17:
  95 0034 89B7      		in r24,89-32
  96 0036 8B7F      		andi r24,lo8(-5)
  97 0038 89BF      		out 89-32,r24
  98               	.LM18:
  99 003a 89B7      		in r24,89-32
 100 003c 8F7B      		andi r24,lo8(-65)
 101 003e 89BF      		out 89-32,r24
 102               	/* epilogue start */
 103               	.LM19:
 104 0040 1F91      		pop r17
 105               	.LVL3:
 106 0042 0895      		ret
 107               	.LFE11:
 108               		.size	clearTimers, .-clearTimers
 109               		.type	initHardware, @function
 110               	initHardware:
 111               	.LFB12:
 112               	.LM20:
 113               	.LVL4:
 114               	/* prologue: function */
GAS LISTING C:\Users\ADMINI~1\AppData\Local\Temp/ccMxZnbV.s 			page 3


 115               	/* frame size = 0 */
 116               	.LM21:
 117 0044 9FEF      		ldi r25,lo8(-1)
 118 0046 97BB      		out 55-32,r25
 119               	.LM22:
 120 0048 98BB      		out 56-32,r25
 121               	.LM23:
 122 004a 1ABA      		out 58-32,__zero_reg__
 123               	.LM24:
 124 004c 14BA      		out 52-32,__zero_reg__
 125               	.LM25:
 126 004e 9BBB      		out 59-32,r25
 127               	.LM26:
 128 0050 95BB      		out 53-32,r25
 129               	.LM27:
 130 0052 9FE1      		ldi r25,lo8(31)
 131 0054 91BB      		out 49-32,r25
 132               	.LM28:
 133 0056 90EE      		ldi r25,lo8(-32)
 134 0058 92BB      		out 50-32,r25
 135               	.LM29:
 136 005a 8823      		tst r24
 137 005c 01F0      		breq .L12
 138               	.LM30:
 139 005e 8BE0      		ldi r24,lo8(11)
 140 0060 90E0      		ldi r25,hi8(11)
 141               	.LVL5:
 142 0062 0E94 0000 		call _delay_us_m
 143               	.LM31:
 144 0066 83E1      		ldi r24,lo8(19)
 145 0068 81BB      		out 49-32,r24
 146               	.LM32:
 147 006a 85E0      		ldi r24,lo8(5)
 148 006c 83BF      		out 83-32,r24
 149               	.LM33:
 150 006e 0E94 0000 		call clearTimers
 151               	.LBB19:
 152               	.LBB20:
 153               	.LM34:
 154 0072 8D98      		cbi 49-32,5
 155               	.LM35:
 156 0074 959A      		sbi 50-32,5
 157 0076 0895      		ret
 158               	.LVL6:
 159               	.L12:
 160               	.LBE20:
 161               	.LBE19:
 162               	.LBB21:
 163               	.LBB22:
 164               	.LM36:
 165 0078 8D9A      		sbi 49-32,5
 166               	.LM37:
 167 007a 9598      		cbi 50-32,5
 168 007c 0895      		ret
 169               	.LBE22:
 170               	.LBE21:
 171               	.LFE12:
GAS LISTING C:\Users\ADMINI~1\AppData\Local\Temp/ccMxZnbV.s 			page 4


 172               		.size	initHardware, .-initHardware
 173               	.global	clearInterface
 174               		.type	clearInterface, @function
 175               	clearInterface:
 176               	.LFB10:
 177               	.LM38:
 178               	/* prologue: function */
 179               	/* frame size = 0 */
 180               	.LM39:
 181               	/* #APP */
 182               	 ;  58 "keymain.c" 1
 183 007e F894      		cli
 184               	 ;  0 "" 2
 185               	.LM40:
 186               	/* #NOAPP */
 187 0080 0E94 0000 		call clearLEDInited
 188               	.LM41:
 189 0084 1092 0000 		sts (interfaceCount)+1,__zero_reg__
 190 0088 1092 0000 		sts interfaceCount,__zero_reg__
 191               	.LM42:
 192 008c 1092 0000 		sts interfaceReady,__zero_reg__
 193               	/* epilogue start */
 194               	.LM43:
 195 0090 0895      		ret
 196               	.LFE10:
 197               		.size	clearInterface, .-clearInterface
 198               	.global	main
 199               		.type	main, @function
 200               	main:
 201               	.LFB14:
 202               	.LM44:
 203 0092 AF92      		push r10
 204 0094 BF92      		push r11
 205 0096 CF92      		push r12
 206 0098 DF92      		push r13
 207 009a EF92      		push r14
 208 009c FF92      		push r15
 209 009e 0F93      		push r16
 210 00a0 1F93      		push r17
 211 00a2 CF93      		push r28
 212 00a4 DF93      		push r29
 213               	/* prologue: function */
 214               	/* frame size = 0 */
 215               	.LM45:
 216 00a6 8FEF      		ldi r24,lo8(-1)
 217 00a8 8093 0000 		sts INTERFACE,r24
 218               	.LM46:
 219 00ac 87BB      		out 55-32,r24
 220               	.LM47:
 221 00ae 88BB      		out 56-32,r24
 222               	.LM48:
 223 00b0 1ABA      		out 58-32,__zero_reg__
 224               	.LM49:
 225 00b2 14BA      		out 52-32,__zero_reg__
 226               	.LM50:
 227 00b4 8BBB      		out 59-32,r24
 228               	.LM51:
GAS LISTING C:\Users\ADMINI~1\AppData\Local\Temp/ccMxZnbV.s 			page 5


 229 00b6 85BB      		out 53-32,r24
 230               	.LM52:
 231 00b8 11BA      		out 49-32,__zero_reg__
 232               	.LM53:
 233 00ba 80E8      		ldi r24,lo8(-128)
 234 00bc 82BB      		out 50-32,r24
 235               	.LM54:
 236 00be 81E0      		ldi r24,lo8(1)
 237 00c0 90E0      		ldi r25,hi8(1)
 238 00c2 0E94 0000 		call _delay_us_m
 239 00c6 10E0      		ldi r17,lo8(0)
 240               	.LVL7:
 241               	.L19:
 242               	.LM55:
 243 00c8 0E94 0000 		call getLiveMatrix
 244 00cc 8823      		tst r24
 245 00ce 01F4      		brne .L18
 246 00d0 1F5F      		subi r17,lo8(-(1))
 247 00d2 1E31      		cpi r17,lo8(30)
 248 00d4 01F4      		brne .L19
 249 00d6 00C0      		rjmp .L18
 250               	.LVL8:
 251               	.L23:
 252               	.LM56:
 253 00d8 8881      		ld r24,Y
 254               	.LVL9:
 255 00da 8C21      		and r24,r12
 256 00dc 01F0      		breq .L20
 257               	.LBB23:
 258               	.LM57:
 259 00de F701      		movw r30,r14
 260               	/* #APP */
 261               	 ;  189 "keymain.c" 1
 262 00e0 8491      		lpm r24, Z
 263               		
 264               	 ;  0 "" 2
 265               	.LVL10:
 266               	/* #NOAPP */
 267               	.LBE23:
 268               	.LM58:
 269 00e2 8031      		cpi r24,lo8(16)
 270 00e4 01F4      		brne .L21
 271               	.LM59:
 272 00e6 0E94 0000 		call readyKeyMappingOnBoot
 273               	.LVL11:
 274 00ea 00C0      		rjmp .L20
 275               	.LVL12:
 276               	.L21:
 277               	.LM60:
 278 00ec 8831      		cpi r24,lo8(24)
 279 00ee 01F4      		brne .L22
 280               	.LM61:
 281 00f0 F1E0      		ldi r31,lo8(1)
 282 00f2 DF2A      		or r13,r31
 283 00f4 00C0      		rjmp .L20
 284               	.L22:
 285               	.LM62:
GAS LISTING C:\Users\ADMINI~1\AppData\Local\Temp/ccMxZnbV.s 			page 6


 286 00f6 8331      		cpi r24,lo8(19)
 287 00f8 01F4      		brne .L20
 288               	.LM63:
 289 00fa 82E0      		ldi r24,lo8(2)
 290               	.LVL13:
 291 00fc D82A      		or r13,r24
 292               	.LVL14:
 293               	.L20:
 294 00fe 2196      		adiw r28,1
 295 0100 E8E0      		ldi r30,lo8(8)
 296 0102 F0E0      		ldi r31,hi8(8)
 297 0104 EE0E      		add r14,r30
 298 0106 FF1E      		adc r15,r31
 299               	.LM64:
 300 0108 F0E0      		ldi r31,hi8(currentMatrix+17)
 301 010a C030      		cpi r28,lo8(currentMatrix+17)
 302 010c DF07      		cpc r29,r31
 303 010e 01F4      		brne .L23
 304 0110 0F5F      		subi r16,lo8(-(1))
 305 0112 1F4F      		sbci r17,hi8(-(1))
 306               	.LM65:
 307 0114 0830      		cpi r16,8
 308 0116 1105      		cpc r17,__zero_reg__
 309 0118 01F4      		brne .L24
 310 011a 00C0      		rjmp .L54
 311               	.LVL15:
 312               	.L18:
 313 011c DD24      		clr r13
 314               	.LVL16:
 315 011e 00E0      		ldi r16,lo8(0)
 316 0120 10E0      		ldi r17,hi8(0)
 317               	.LM66:
 318 0122 91E0      		ldi r25,lo8(1)
 319 0124 A92E      		mov r10,r25
 320 0126 B12C      		mov r11,__zero_reg__
 321               	.LVL17:
 322               	.L24:
 323 0128 C501      		movw r24,r10
 324               	.LVL18:
 325 012a 002E      		mov r0,r16
 326 012c 00C0      		rjmp 2f
 327 012e 880F      	1:	lsl r24
 328 0130 991F      		rol r25
 329 0132 0A94      	2:	dec r0
 330 0134 02F4      		brpl 1b
 331 0136 C82E      		mov r12,r24
 332 0138 C0E0      		ldi r28,lo8(currentMatrix)
 333 013a D0E0      		ldi r29,hi8(currentMatrix)
 334 013c 80E0      		ldi r24,lo8(keymap_code)
 335 013e E82E      		mov r14,r24
 336 0140 80E0      		ldi r24,hi8(keymap_code)
 337 0142 F82E      		mov r15,r24
 338 0144 E00E      		add r14,r16
 339 0146 F11E      		adc r15,r17
 340 0148 00C0      		rjmp .L23
 341               	.LVL19:
 342               	.L54:
GAS LISTING C:\Users\ADMINI~1\AppData\Local\Temp/ccMxZnbV.s 			page 7


 343               	.LM67:
 344 014a DD20      		tst r13
 345 014c 01F0      		breq .L26
 346               	.LM68:
 347 014e D394      		inc r13
 348 0150 D092 0000 		sts INTERFACE,r13
 349               	.L26:
 350               	.LM69:
 351 0154 6091 0000 		lds r22,INTERFACE
 352 0158 6430      		cpi r22,lo8(4)
 353 015a 01F4      		brne .L27
 354               	.LM70:
 355 015c 8CE0      		ldi r24,lo8(12)
 356 015e 90E0      		ldi r25,hi8(12)
 357               	.LVL20:
 358 0160 6FEF      		ldi r22,lo8(-1)
 359 0162 00C0      		rjmp .L52
 360               	.LVL21:
 361               	.L27:
 362               	.LM71:
 363 0164 6430      		cpi r22,lo8(4)
 364 0166 00F4      		brsh .L29
 365               	.LM72:
 366 0168 8CE0      		ldi r24,lo8(12)
 367 016a 90E0      		ldi r25,hi8(12)
 368               	.LVL22:
 369               	.L52:
 370 016c 0E94 0000 		call __eewr_byte_m32
 371 0170 00C0      		rjmp .L28
 372               	.LVL23:
 373               	.L29:
 374               	.LM73:
 375 0172 8CE0      		ldi r24,lo8(12)
 376 0174 90E0      		ldi r25,hi8(12)
 377               	.LVL24:
 378 0176 0E94 0000 		call __eerd_byte_m32
 379 017a 8093 0000 		sts INTERFACE,r24
 380               	.L28:
 381               	.LM74:
 382 017e 8A98      		cbi 49-32,2
 383               	.LM75:
 384 0180 929A      		sbi 50-32,2
 385               	.LM76:
 386 0182 2091 0000 		lds r18,INTERFACE
 387 0186 2430      		cpi r18,lo8(4)
 388 0188 00F0      		brlo .L43
 389 018a 80E0      		ldi r24,lo8(0)
 390               	.LVL25:
 391 018c 90E0      		ldi r25,lo8(0)
 392               	.LVL26:
 393               	.L37:
 394               	.LM77:
 395 018e 8299      		sbic 48-32,2
 396 0190 00C0      		rjmp .L31
 397               	.LM78:
 398 0192 92FD      		sbrc r25,2
 399 0194 00C0      		rjmp .L53
GAS LISTING C:\Users\ADMINI~1\AppData\Local\Temp/ccMxZnbV.s 			page 8


 400               	.L32:
 401               	.LM79:
 402 0196 8F5F      		subi r24,lo8(-(1))
 403               	.LM80:
 404 0198 8630      		cpi r24,lo8(6)
 405 019a 00F0      		brlo .L36
 406 019c 21E0      		ldi r18,lo8(1)
 407 019e 00C0      		rjmp .L36
 408               	.L31:
 409               	.LM81:
 410 01a0 829B      		sbis 48-32,2
 411 01a2 00C0      		rjmp .L34
 412               	.LM82:
 413 01a4 92FD      		sbrc r25,2
 414 01a6 00C0      		rjmp .L35
 415               	.L53:
 416 01a8 80E0      		ldi r24,lo8(0)
 417 01aa 00C0      		rjmp .L36
 418               	.L35:
 419               	.LM83:
 420 01ac 8F5F      		subi r24,lo8(-(1))
 421               	.LM84:
 422 01ae 8630      		cpi r24,lo8(6)
 423 01b0 00F0      		brlo .L36
 424 01b2 20E0      		ldi r18,lo8(0)
 425               	.L36:
 426               	.LM85:
 427 01b4 90B3      		in r25,48-32
 428               	.L34:
 429               	.LM86:
 430 01b6 2230      		cpi r18,lo8(2)
 431 01b8 00F4      		brsh .L37
 432 01ba 2093 0000 		sts INTERFACE,r18
 433               	.L43:
 434               	.LBB24:
 435               	.LBB25:
 436               	.LBB26:
 437               	.LBB27:
 438               	.LM87:
 439 01be CCE2      		ldi r28,lo8(300)
 440 01c0 D1E0      		ldi r29,hi8(300)
 441               	.L50:
 442               	.LBE27:
 443               	.LBE26:
 444               	.LBE25:
 445               	.LBE24:
 446               	.LM88:
 447 01c2 8091 0000 		lds r24,INTERFACE
 448               	.LVL27:
 449 01c6 8150      		subi r24,lo8(-(-1))
 450 01c8 8230      		cpi r24,lo8(2)
 451 01ca 00F4      		brsh .L38
 452               	.LM89:
 453 01cc 0E94 0000 		call clearInterface
 454               	.LVL28:
 455               	.LM90:
 456 01d0 81E0      		ldi r24,lo8(1)
GAS LISTING C:\Users\ADMINI~1\AppData\Local\Temp/ccMxZnbV.s 			page 9


 457 01d2 0E94 0000 		call initHardware
 458               	.LM91:
 459 01d6 0E94 0000 		call usb_main
 460               	.LVL29:
 461               	.L38:
 462               	.LM92:
 463 01da 8091 0000 		lds r24,INTERFACE
 464 01de 8823      		tst r24
 465 01e0 01F0      		breq .L39
 466 01e2 8330      		cpi r24,lo8(3)
 467 01e4 01F4      		brne .L50
 468               	.L39:
 469               	.LM93:
 470 01e6 82B3      		in r24,50-32
 471 01e8 8360      		ori r24,lo8(3)
 472 01ea 82BB      		out 50-32,r24
 473 01ec 88EE      		ldi r24,lo8(1000)
 474 01ee 93E0      		ldi r25,hi8(1000)
 475               	.LVL30:
 476               	.L40:
 477               	.LBB31:
 478               	.LBB30:
 479               	.LBB29:
 480               	.LBB28:
 481               	.LM94:
 482 01f0 FE01      		movw r30,r28
 483               	.LVL31:
 484               	/* #APP */
 485               	 ;  105 "c:/winavr-20100110/lib/gcc/../../avr/include/util/delay_basic.h" 1
 486 01f2 3197      		1: sbiw r30,1
 487 01f4 01F4      		brne 1b
 488               	 ;  0 "" 2
 489               	/* #NOAPP */
 490               	.LBE28:
 491               	.LBE29:
 492               	.LM95:
 493 01f6 0197      		sbiw r24,1
 494               	.LM96:
 495 01f8 01F4      		brne .L40
 496               	.LBE30:
 497               	.LBE31:
 498               	.LM97:
 499 01fa 82B3      		in r24,50-32
 500               	.LVL32:
 501 01fc 8C7F      		andi r24,lo8(-4)
 502 01fe 82BB      		out 50-32,r24
 503               	.LM98:
 504 0200 0E94 0000 		call clearInterface
 505               	.LVL33:
 506               	.LM99:
 507 0204 80E0      		ldi r24,lo8(0)
 508 0206 0E94 0000 		call initHardware
 509               	.LM100:
 510 020a 0E94 0000 		call ps2_main
 511 020e 00C0      		rjmp .L50
 512               	.LFE14:
 513               		.size	main, .-main
GAS LISTING C:\Users\ADMINI~1\AppData\Local\Temp/ccMxZnbV.s 			page 10


 514               	.global	interfaceCount
 515               	.global	interfaceCount
 516               		.section .bss
 517               		.type	interfaceCount, @object
 518               		.size	interfaceCount, 2
 519               	interfaceCount:
 520 0000 0000      		.skip 2,0
 521               	.global	interfaceReady
 522               	.global	interfaceReady
 523               		.type	interfaceReady, @object
 524               		.size	interfaceReady, 1
 525               	interfaceReady:
 526 0002 00        		.skip 1,0
 527               	.global	INTERFACE
 528               		.data
 529               		.type	INTERFACE, @object
 530               		.size	INTERFACE, 1
 531               	INTERFACE:
 532 0000 FF        		.byte	-1
 533               		.section	.debug_frame,"",@progbits
 534               	.Lframe0:
 535 0000 0C00 0000 		.long	.LECIE0-.LSCIE0
 536               	.LSCIE0:
 537 0004 FFFF FFFF 		.long	0xffffffff
 538 0008 01        		.byte	0x1
 539 0009 00        		.string	""
 540 000a 01        		.uleb128 0x1
 541 000b 7F        		.sleb128 -1
 542 000c 24        		.byte	0x24
 543 000d 0C        		.byte	0xc
 544 000e 20        		.uleb128 0x20
 545 000f 00        		.uleb128 0x0
 546               		.p2align	2
 547               	.LECIE0:
 548               	.LSFDE0:
 549 0010 0C00 0000 		.long	.LEFDE0-.LASFDE0
 550               	.LASFDE0:
 551 0014 0000 0000 		.long	.Lframe0
 552 0018 0000 0000 		.long	.LFB8
 553 001c 0600 0000 		.long	.LFE8-.LFB8
 554               		.p2align	2
 555               	.LEFDE0:
 556               	.LSFDE2:
 557 0020 0C00 0000 		.long	.LEFDE2-.LASFDE2
 558               	.LASFDE2:
 559 0024 0000 0000 		.long	.Lframe0
 560 0028 0000 0000 		.long	.LFB9
 561 002c 0600 0000 		.long	.LFE9-.LFB9
 562               		.p2align	2
 563               	.LEFDE2:
 564               	.LSFDE4:
 565 0030 0C00 0000 		.long	.LEFDE4-.LASFDE4
 566               	.LASFDE4:
 567 0034 0000 0000 		.long	.Lframe0
 568 0038 0000 0000 		.long	.LFB13
 569 003c 1200 0000 		.long	.LFE13-.LFB13
 570               		.p2align	2
GAS LISTING C:\Users\ADMINI~1\AppData\Local\Temp/ccMxZnbV.s 			page 11


 571               	.LEFDE4:
 572               	.LSFDE6:
 573 0040 0C00 0000 		.long	.LEFDE6-.LASFDE6
 574               	.LASFDE6:
 575 0044 0000 0000 		.long	.Lframe0
 576 0048 0000 0000 		.long	.LFB11
 577 004c 2600 0000 		.long	.LFE11-.LFB11
 578               		.p2align	2
 579               	.LEFDE6:
 580               	.LSFDE8:
 581 0050 0C00 0000 		.long	.LEFDE8-.LASFDE8
 582               	.LASFDE8:
 583 0054 0000 0000 		.long	.Lframe0
 584 0058 0000 0000 		.long	.LFB12
 585 005c 3A00 0000 		.long	.LFE12-.LFB12
 586               		.p2align	2
 587               	.LEFDE8:
 588               	.LSFDE10:
 589 0060 0C00 0000 		.long	.LEFDE10-.LASFDE10
 590               	.LASFDE10:
 591 0064 0000 0000 		.long	.Lframe0
 592 0068 0000 0000 		.long	.LFB10
 593 006c 1400 0000 		.long	.LFE10-.LFB10
 594               		.p2align	2
 595               	.LEFDE10:
 596               	.LSFDE12:
 597 0070 0C00 0000 		.long	.LEFDE12-.LASFDE12
 598               	.LASFDE12:
 599 0074 0000 0000 		.long	.Lframe0
 600 0078 0000 0000 		.long	.LFB14
 601 007c 7E01 0000 		.long	.LFE14-.LFB14
 602               		.p2align	2
 603               	.LEFDE12:
 604               		.text
 605               	.Letext0:
 606               		.section	.debug_loc,"",@progbits
 607               	.Ldebug_loc0:
 608               	.LLST3:
 609 0000 0C00 0000 		.long	.LVL0-.Ltext0
 610 0004 1C00 0000 		.long	.LVL1-.Ltext0
 611 0008 0100      		.word	0x1
 612 000a 68        		.byte	0x68
 613 000b 0000 0000 		.long	0x0
 614 000f 0000 0000 		.long	0x0
 615               	.LLST5:
 616 0013 2200 0000 		.long	.LVL2-.Ltext0
 617 0017 4200 0000 		.long	.LVL3-.Ltext0
 618 001b 0100      		.word	0x1
 619 001d 61        		.byte	0x61
 620 001e 0000 0000 		.long	0x0
 621 0022 0000 0000 		.long	0x0
 622               	.LLST7:
 623 0026 4400 0000 		.long	.LVL4-.Ltext0
 624 002a 6200 0000 		.long	.LVL5-.Ltext0
 625 002e 0100      		.word	0x1
 626 0030 68        		.byte	0x68
 627 0031 7800 0000 		.long	.LVL6-.Ltext0
GAS LISTING C:\Users\ADMINI~1\AppData\Local\Temp/ccMxZnbV.s 			page 12


 628 0035 7E00 0000 		.long	.LFE12-.Ltext0
 629 0039 0100      		.word	0x1
 630 003b 68        		.byte	0x68
 631 003c 0000 0000 		.long	0x0
 632 0040 0000 0000 		.long	0x0
 633               	.LLST10:
 634 0044 D800 0000 		.long	.LVL8-.Ltext0
 635 0048 1C01 0000 		.long	.LVL15-.Ltext0
 636 004c 0100      		.word	0x1
 637 004e 5D        		.byte	0x5d
 638 004f 1E01 0000 		.long	.LVL16-.Ltext0
 639 0053 1002 0000 		.long	.LFE14-.Ltext0
 640 0057 0100      		.word	0x1
 641 0059 5D        		.byte	0x5d
 642 005a 0000 0000 		.long	0x0
 643 005e 0000 0000 		.long	0x0
 644               	.LLST11:
 645 0062 8C01 0000 		.long	.LVL25-.Ltext0
 646 0066 C601 0000 		.long	.LVL27-.Ltext0
 647 006a 0100      		.word	0x1
 648 006c 68        		.byte	0x68
 649 006d 0000 0000 		.long	0x0
 650 0071 0000 0000 		.long	0x0
 651               	.LLST12:
 652 0075 8E01 0000 		.long	.LVL26-.Ltext0
 653 0079 D001 0000 		.long	.LVL28-.Ltext0
 654 007d 0100      		.word	0x1
 655 007f 69        		.byte	0x69
 656 0080 DA01 0000 		.long	.LVL29-.Ltext0
 657 0084 0402 0000 		.long	.LVL33-.Ltext0
 658 0088 0100      		.word	0x1
 659 008a 69        		.byte	0x69
 660 008b 0000 0000 		.long	0x0
 661 008f 0000 0000 		.long	0x0
 662               	.LLST13:
 663 0093 D800 0000 		.long	.LVL8-.Ltext0
 664 0097 DA00 0000 		.long	.LVL9-.Ltext0
 665 009b 0100      		.word	0x1
 666 009d 68        		.byte	0x68
 667 009e E200 0000 		.long	.LVL10-.Ltext0
 668 00a2 EA00 0000 		.long	.LVL11-.Ltext0
 669 00a6 0100      		.word	0x1
 670 00a8 68        		.byte	0x68
 671 00a9 EC00 0000 		.long	.LVL12-.Ltext0
 672 00ad FC00 0000 		.long	.LVL13-.Ltext0
 673 00b1 0100      		.word	0x1
 674 00b3 68        		.byte	0x68
 675 00b4 FE00 0000 		.long	.LVL14-.Ltext0
 676 00b8 1C01 0000 		.long	.LVL15-.Ltext0
 677 00bc 0100      		.word	0x1
 678 00be 68        		.byte	0x68
 679 00bf 2801 0000 		.long	.LVL17-.Ltext0
 680 00c3 2A01 0000 		.long	.LVL18-.Ltext0
 681 00c7 0100      		.word	0x1
 682 00c9 68        		.byte	0x68
 683 00ca 4A01 0000 		.long	.LVL19-.Ltext0
 684 00ce 6001 0000 		.long	.LVL20-.Ltext0
GAS LISTING C:\Users\ADMINI~1\AppData\Local\Temp/ccMxZnbV.s 			page 13


 685 00d2 0100      		.word	0x1
 686 00d4 68        		.byte	0x68
 687 00d5 6401 0000 		.long	.LVL21-.Ltext0
 688 00d9 6C01 0000 		.long	.LVL22-.Ltext0
 689 00dd 0100      		.word	0x1
 690 00df 68        		.byte	0x68
 691 00e0 7201 0000 		.long	.LVL23-.Ltext0
 692 00e4 7601 0000 		.long	.LVL24-.Ltext0
 693 00e8 0100      		.word	0x1
 694 00ea 68        		.byte	0x68
 695 00eb 0000 0000 		.long	0x0
 696 00ef 0000 0000 		.long	0x0
 697               	.LLST14:
 698 00f3 F001 0000 		.long	.LVL30-.Ltext0
 699 00f7 FC01 0000 		.long	.LVL32-.Ltext0
 700 00fb 0600      		.word	0x6
 701 00fd 68        		.byte	0x68
 702 00fe 93        		.byte	0x93
 703 00ff 01        		.uleb128 0x1
 704 0100 69        		.byte	0x69
 705 0101 93        		.byte	0x93
 706 0102 01        		.uleb128 0x1
 707 0103 0000 0000 		.long	0x0
 708 0107 0000 0000 		.long	0x0
 709               	.LLST15:
 710 010b F201 0000 		.long	.LVL31-.Ltext0
 711 010f 0402 0000 		.long	.LVL33-.Ltext0
 712 0113 0600      		.word	0x6
 713 0115 6E        		.byte	0x6e
 714 0116 93        		.byte	0x93
 715 0117 01        		.uleb128 0x1
 716 0118 6F        		.byte	0x6f
 717 0119 93        		.byte	0x93
 718 011a 01        		.uleb128 0x1
 719 011b 0000 0000 		.long	0x0
 720 011f 0000 0000 		.long	0x0
 721               		.section	.debug_info
 722 0000 1707 0000 		.long	0x717
 723 0004 0200      		.word	0x2
 724 0006 0000 0000 		.long	.Ldebug_abbrev0
 725 000a 04        		.byte	0x4
 726 000b 01        		.uleb128 0x1
 727 000c 0000 0000 		.long	.LASF184
 728 0010 01        		.byte	0x1
 729 0011 0000 0000 		.long	.LASF185
 730 0015 0000 0000 		.long	.LASF186
 731 0019 0000 0000 		.long	.Ltext0
 732 001d 0000 0000 		.long	.Letext0
 733 0021 0000 0000 		.long	.Ldebug_line0
 734 0025 02        		.uleb128 0x2
 735 0026 7530 3800 		.string	"u08"
 736 002a 07        		.byte	0x7
 737 002b 20        		.byte	0x20
 738 002c 3000 0000 		.long	0x30
 739 0030 03        		.uleb128 0x3
 740 0031 01        		.byte	0x1
 741 0032 08        		.byte	0x8
GAS LISTING C:\Users\ADMINI~1\AppData\Local\Temp/ccMxZnbV.s 			page 14


 742 0033 0000 0000 		.long	.LASF0
 743 0037 03        		.uleb128 0x3
 744 0038 01        		.byte	0x1
 745 0039 06        		.byte	0x6
 746 003a 0000 0000 		.long	.LASF1
 747 003e 03        		.uleb128 0x3
 748 003f 02        		.byte	0x2
 749 0040 07        		.byte	0x7
 750 0041 0000 0000 		.long	.LASF2
 751 0045 03        		.uleb128 0x3
 752 0046 02        		.byte	0x2
 753 0047 05        		.byte	0x5
 754 0048 0000 0000 		.long	.LASF3
 755 004c 03        		.uleb128 0x3
 756 004d 04        		.byte	0x4
 757 004e 07        		.byte	0x7
 758 004f 0000 0000 		.long	.LASF4
 759 0053 03        		.uleb128 0x3
 760 0054 04        		.byte	0x4
 761 0055 05        		.byte	0x5
 762 0056 0000 0000 		.long	.LASF5
 763 005a 03        		.uleb128 0x3
 764 005b 08        		.byte	0x8
 765 005c 07        		.byte	0x7
 766 005d 0000 0000 		.long	.LASF6
 767 0061 03        		.uleb128 0x3
 768 0062 08        		.byte	0x8
 769 0063 05        		.byte	0x5
 770 0064 0000 0000 		.long	.LASF7
 771 0068 03        		.uleb128 0x3
 772 0069 02        		.byte	0x2
 773 006a 07        		.byte	0x7
 774 006b 0000 0000 		.long	.LASF8
 775 006f 03        		.uleb128 0x3
 776 0070 01        		.byte	0x1
 777 0071 06        		.byte	0x6
 778 0072 0000 0000 		.long	.LASF9
 779 0076 04        		.uleb128 0x4
 780 0077 02        		.byte	0x2
 781 0078 05        		.byte	0x5
 782 0079 696E 7400 		.string	"int"
 783 007d 05        		.uleb128 0x5
 784 007e 0000 0000 		.long	.LASF10
 785 0082 04        		.byte	0x4
 786 0083 7A        		.byte	0x7a
 787 0084 3000 0000 		.long	0x30
 788 0088 05        		.uleb128 0x5
 789 0089 0000 0000 		.long	.LASF11
 790 008d 04        		.byte	0x4
 791 008e 7C        		.byte	0x7c
 792 008f 6800 0000 		.long	0x68
 793 0093 06        		.uleb128 0x6
 794 0094 01        		.byte	0x1
 795 0095 06        		.byte	0x6
 796 0096 06        		.uleb128 0x6
 797 0097 01        		.byte	0x1
 798 0098 08        		.byte	0x8
GAS LISTING C:\Users\ADMINI~1\AppData\Local\Temp/ccMxZnbV.s 			page 15


 799 0099 07        		.uleb128 0x7
 800 009a 02        		.byte	0x2
 801 009b 05        		.byte	0x5
 802 009c 26        		.byte	0x26
 803 009d 5204 0000 		.long	0x452
 804 00a1 08        		.uleb128 0x8
 805 00a2 0000 0000 		.long	.LASF12
 806 00a6 00        		.sleb128 0
 807 00a7 08        		.uleb128 0x8
 808 00a8 0000 0000 		.long	.LASF13
 809 00ac 01        		.sleb128 1
 810 00ad 08        		.uleb128 0x8
 811 00ae 0000 0000 		.long	.LASF14
 812 00b2 02        		.sleb128 2
 813 00b3 08        		.uleb128 0x8
 814 00b4 0000 0000 		.long	.LASF15
 815 00b8 03        		.sleb128 3
 816 00b9 08        		.uleb128 0x8
 817 00ba 0000 0000 		.long	.LASF16
 818 00be 04        		.sleb128 4
 819 00bf 08        		.uleb128 0x8
 820 00c0 0000 0000 		.long	.LASF17
 821 00c4 05        		.sleb128 5
 822 00c5 08        		.uleb128 0x8
 823 00c6 0000 0000 		.long	.LASF18
 824 00ca 06        		.sleb128 6
 825 00cb 08        		.uleb128 0x8
 826 00cc 0000 0000 		.long	.LASF19
 827 00d0 07        		.sleb128 7
 828 00d1 08        		.uleb128 0x8
 829 00d2 0000 0000 		.long	.LASF20
 830 00d6 08        		.sleb128 8
 831 00d7 08        		.uleb128 0x8
 832 00d8 0000 0000 		.long	.LASF21
 833 00dc 09        		.sleb128 9
 834 00dd 08        		.uleb128 0x8
 835 00de 0000 0000 		.long	.LASF22
 836 00e2 0A        		.sleb128 10
 837 00e3 08        		.uleb128 0x8
 838 00e4 0000 0000 		.long	.LASF23
 839 00e8 0B        		.sleb128 11
 840 00e9 08        		.uleb128 0x8
 841 00ea 0000 0000 		.long	.LASF24
 842 00ee 0C        		.sleb128 12
 843 00ef 08        		.uleb128 0x8
 844 00f0 0000 0000 		.long	.LASF25
 845 00f4 0D        		.sleb128 13
 846 00f5 08        		.uleb128 0x8
 847 00f6 0000 0000 		.long	.LASF26
 848 00fa 0E        		.sleb128 14
 849 00fb 08        		.uleb128 0x8
 850 00fc 0000 0000 		.long	.LASF27
 851 0100 0F        		.sleb128 15
 852 0101 08        		.uleb128 0x8
 853 0102 0000 0000 		.long	.LASF28
 854 0106 10        		.sleb128 16
 855 0107 08        		.uleb128 0x8
GAS LISTING C:\Users\ADMINI~1\AppData\Local\Temp/ccMxZnbV.s 			page 16


 856 0108 0000 0000 		.long	.LASF29
 857 010c 11        		.sleb128 17
 858 010d 08        		.uleb128 0x8
 859 010e 0000 0000 		.long	.LASF30
 860 0112 12        		.sleb128 18
 861 0113 08        		.uleb128 0x8
 862 0114 0000 0000 		.long	.LASF31
 863 0118 13        		.sleb128 19
 864 0119 08        		.uleb128 0x8
 865 011a 0000 0000 		.long	.LASF32
 866 011e 14        		.sleb128 20
 867 011f 08        		.uleb128 0x8
 868 0120 0000 0000 		.long	.LASF33
 869 0124 15        		.sleb128 21
 870 0125 08        		.uleb128 0x8
 871 0126 0000 0000 		.long	.LASF34
 872 012a 16        		.sleb128 22
 873 012b 08        		.uleb128 0x8
 874 012c 0000 0000 		.long	.LASF35
 875 0130 17        		.sleb128 23
 876 0131 08        		.uleb128 0x8
 877 0132 0000 0000 		.long	.LASF36
 878 0136 18        		.sleb128 24
 879 0137 08        		.uleb128 0x8
 880 0138 0000 0000 		.long	.LASF37
 881 013c 19        		.sleb128 25
 882 013d 08        		.uleb128 0x8
 883 013e 0000 0000 		.long	.LASF38
 884 0142 1A        		.sleb128 26
 885 0143 08        		.uleb128 0x8
 886 0144 0000 0000 		.long	.LASF39
 887 0148 1B        		.sleb128 27
 888 0149 08        		.uleb128 0x8
 889 014a 0000 0000 		.long	.LASF40
 890 014e 1C        		.sleb128 28
 891 014f 08        		.uleb128 0x8
 892 0150 0000 0000 		.long	.LASF41
 893 0154 1D        		.sleb128 29
 894 0155 08        		.uleb128 0x8
 895 0156 0000 0000 		.long	.LASF42
 896 015a 1E        		.sleb128 30
 897 015b 08        		.uleb128 0x8
 898 015c 0000 0000 		.long	.LASF43
 899 0160 1F        		.sleb128 31
 900 0161 08        		.uleb128 0x8
 901 0162 0000 0000 		.long	.LASF44
 902 0166 20        		.sleb128 32
 903 0167 08        		.uleb128 0x8
 904 0168 0000 0000 		.long	.LASF45
 905 016c 21        		.sleb128 33
 906 016d 08        		.uleb128 0x8
 907 016e 0000 0000 		.long	.LASF46
 908 0172 22        		.sleb128 34
 909 0173 08        		.uleb128 0x8
 910 0174 0000 0000 		.long	.LASF47
 911 0178 23        		.sleb128 35
 912 0179 08        		.uleb128 0x8
GAS LISTING C:\Users\ADMINI~1\AppData\Local\Temp/ccMxZnbV.s 			page 17


 913 017a 0000 0000 		.long	.LASF48
 914 017e 24        		.sleb128 36
 915 017f 08        		.uleb128 0x8
 916 0180 0000 0000 		.long	.LASF49
 917 0184 25        		.sleb128 37
 918 0185 08        		.uleb128 0x8
 919 0186 0000 0000 		.long	.LASF50
 920 018a 26        		.sleb128 38
 921 018b 08        		.uleb128 0x8
 922 018c 0000 0000 		.long	.LASF51
 923 0190 27        		.sleb128 39
 924 0191 08        		.uleb128 0x8
 925 0192 0000 0000 		.long	.LASF52
 926 0196 28        		.sleb128 40
 927 0197 08        		.uleb128 0x8
 928 0198 0000 0000 		.long	.LASF53
 929 019c 29        		.sleb128 41
 930 019d 08        		.uleb128 0x8
 931 019e 0000 0000 		.long	.LASF54
 932 01a2 2A        		.sleb128 42
 933 01a3 08        		.uleb128 0x8
 934 01a4 0000 0000 		.long	.LASF55
 935 01a8 2B        		.sleb128 43
 936 01a9 08        		.uleb128 0x8
 937 01aa 0000 0000 		.long	.LASF56
 938 01ae 2C        		.sleb128 44
 939 01af 08        		.uleb128 0x8
 940 01b0 0000 0000 		.long	.LASF57
 941 01b4 2D        		.sleb128 45
 942 01b5 08        		.uleb128 0x8
 943 01b6 0000 0000 		.long	.LASF58
 944 01ba 2E        		.sleb128 46
 945 01bb 08        		.uleb128 0x8
 946 01bc 0000 0000 		.long	.LASF59
 947 01c0 2F        		.sleb128 47
 948 01c1 08        		.uleb128 0x8
 949 01c2 0000 0000 		.long	.LASF60
 950 01c6 30        		.sleb128 48
 951 01c7 08        		.uleb128 0x8
 952 01c8 0000 0000 		.long	.LASF61
 953 01cc 31        		.sleb128 49
 954 01cd 08        		.uleb128 0x8
 955 01ce 0000 0000 		.long	.LASF62
 956 01d2 32        		.sleb128 50
 957 01d3 08        		.uleb128 0x8
 958 01d4 0000 0000 		.long	.LASF63
 959 01d8 33        		.sleb128 51
 960 01d9 08        		.uleb128 0x8
 961 01da 0000 0000 		.long	.LASF64
 962 01de 34        		.sleb128 52
 963 01df 08        		.uleb128 0x8
 964 01e0 0000 0000 		.long	.LASF65
 965 01e4 35        		.sleb128 53
 966 01e5 08        		.uleb128 0x8
 967 01e6 0000 0000 		.long	.LASF66
 968 01ea 36        		.sleb128 54
 969 01eb 08        		.uleb128 0x8
GAS LISTING C:\Users\ADMINI~1\AppData\Local\Temp/ccMxZnbV.s 			page 18


 970 01ec 0000 0000 		.long	.LASF67
 971 01f0 37        		.sleb128 55
 972 01f1 08        		.uleb128 0x8
 973 01f2 0000 0000 		.long	.LASF68
 974 01f6 38        		.sleb128 56
 975 01f7 08        		.uleb128 0x8
 976 01f8 0000 0000 		.long	.LASF69
 977 01fc 39        		.sleb128 57
 978 01fd 08        		.uleb128 0x8
 979 01fe 0000 0000 		.long	.LASF70
 980 0202 3A        		.sleb128 58
 981 0203 08        		.uleb128 0x8
 982 0204 0000 0000 		.long	.LASF71
 983 0208 3B        		.sleb128 59
 984 0209 08        		.uleb128 0x8
 985 020a 0000 0000 		.long	.LASF72
 986 020e 3C        		.sleb128 60
 987 020f 08        		.uleb128 0x8
 988 0210 0000 0000 		.long	.LASF73
 989 0214 3D        		.sleb128 61
 990 0215 08        		.uleb128 0x8
 991 0216 0000 0000 		.long	.LASF74
 992 021a 3E        		.sleb128 62
 993 021b 08        		.uleb128 0x8
 994 021c 0000 0000 		.long	.LASF75
 995 0220 3F        		.sleb128 63
 996 0221 08        		.uleb128 0x8
 997 0222 0000 0000 		.long	.LASF76
 998 0226 C000      		.sleb128 64
 999 0228 08        		.uleb128 0x8
 1000 0229 0000 0000 		.long	.LASF77
 1001 022d C100      		.sleb128 65
 1002 022f 08        		.uleb128 0x8
 1003 0230 0000 0000 		.long	.LASF78
 1004 0234 C200      		.sleb128 66
 1005 0236 08        		.uleb128 0x8
 1006 0237 0000 0000 		.long	.LASF79
 1007 023b C300      		.sleb128 67
 1008 023d 08        		.uleb128 0x8
 1009 023e 0000 0000 		.long	.LASF80
 1010 0242 C400      		.sleb128 68
 1011 0244 08        		.uleb128 0x8
 1012 0245 0000 0000 		.long	.LASF81
 1013 0249 C500      		.sleb128 69
 1014 024b 08        		.uleb128 0x8
 1015 024c 0000 0000 		.long	.LASF82
 1016 0250 C600      		.sleb128 70
 1017 0252 08        		.uleb128 0x8
 1018 0253 0000 0000 		.long	.LASF83
 1019 0257 C700      		.sleb128 71
 1020 0259 08        		.uleb128 0x8
 1021 025a 0000 0000 		.long	.LASF84
 1022 025e C800      		.sleb128 72
 1023 0260 08        		.uleb128 0x8
 1024 0261 0000 0000 		.long	.LASF85
 1025 0265 C900      		.sleb128 73
 1026 0267 08        		.uleb128 0x8
GAS LISTING C:\Users\ADMINI~1\AppData\Local\Temp/ccMxZnbV.s 			page 19


 1027 0268 0000 0000 		.long	.LASF86
 1028 026c CA00      		.sleb128 74
 1029 026e 08        		.uleb128 0x8
 1030 026f 0000 0000 		.long	.LASF87
 1031 0273 CB00      		.sleb128 75
 1032 0275 08        		.uleb128 0x8
 1033 0276 0000 0000 		.long	.LASF88
 1034 027a CC00      		.sleb128 76
 1035 027c 08        		.uleb128 0x8
 1036 027d 0000 0000 		.long	.LASF89
 1037 0281 CD00      		.sleb128 77
 1038 0283 08        		.uleb128 0x8
 1039 0284 0000 0000 		.long	.LASF90
 1040 0288 CE00      		.sleb128 78
 1041 028a 08        		.uleb128 0x8
 1042 028b 0000 0000 		.long	.LASF91
 1043 028f CF00      		.sleb128 79
 1044 0291 08        		.uleb128 0x8
 1045 0292 0000 0000 		.long	.LASF92
 1046 0296 D000      		.sleb128 80
 1047 0298 08        		.uleb128 0x8
 1048 0299 0000 0000 		.long	.LASF93
 1049 029d D100      		.sleb128 81
 1050 029f 08        		.uleb128 0x8
 1051 02a0 0000 0000 		.long	.LASF94
 1052 02a4 D200      		.sleb128 82
 1053 02a6 08        		.uleb128 0x8
 1054 02a7 0000 0000 		.long	.LASF95
 1055 02ab D300      		.sleb128 83
 1056 02ad 08        		.uleb128 0x8
 1057 02ae 0000 0000 		.long	.LASF96
 1058 02b2 D400      		.sleb128 84
 1059 02b4 08        		.uleb128 0x8
 1060 02b5 0000 0000 		.long	.LASF97
 1061 02b9 D500      		.sleb128 85
 1062 02bb 08        		.uleb128 0x8
 1063 02bc 0000 0000 		.long	.LASF98
 1064 02c0 D600      		.sleb128 86
 1065 02c2 08        		.uleb128 0x8
 1066 02c3 0000 0000 		.long	.LASF99
 1067 02c7 D700      		.sleb128 87
 1068 02c9 08        		.uleb128 0x8
 1069 02ca 0000 0000 		.long	.LASF100
 1070 02ce D800      		.sleb128 88
 1071 02d0 08        		.uleb128 0x8
 1072 02d1 0000 0000 		.long	.LASF101
 1073 02d5 D900      		.sleb128 89
 1074 02d7 08        		.uleb128 0x8
 1075 02d8 0000 0000 		.long	.LASF102
 1076 02dc DA00      		.sleb128 90
 1077 02de 08        		.uleb128 0x8
 1078 02df 0000 0000 		.long	.LASF103
 1079 02e3 DB00      		.sleb128 91
 1080 02e5 08        		.uleb128 0x8
 1081 02e6 0000 0000 		.long	.LASF104
 1082 02ea DC00      		.sleb128 92
 1083 02ec 08        		.uleb128 0x8
GAS LISTING C:\Users\ADMINI~1\AppData\Local\Temp/ccMxZnbV.s 			page 20


 1084 02ed 0000 0000 		.long	.LASF105
 1085 02f1 DD00      		.sleb128 93
 1086 02f3 08        		.uleb128 0x8
 1087 02f4 0000 0000 		.long	.LASF106
 1088 02f8 DE00      		.sleb128 94
 1089 02fa 08        		.uleb128 0x8
 1090 02fb 0000 0000 		.long	.LASF107
 1091 02ff DF00      		.sleb128 95
 1092 0301 08        		.uleb128 0x8
 1093 0302 0000 0000 		.long	.LASF108
 1094 0306 E000      		.sleb128 96
 1095 0308 08        		.uleb128 0x8
 1096 0309 0000 0000 		.long	.LASF109
 1097 030d E100      		.sleb128 97
 1098 030f 08        		.uleb128 0x8
 1099 0310 0000 0000 		.long	.LASF110
 1100 0314 E200      		.sleb128 98
 1101 0316 08        		.uleb128 0x8
 1102 0317 0000 0000 		.long	.LASF111
 1103 031b E300      		.sleb128 99
 1104 031d 08        		.uleb128 0x8
 1105 031e 0000 0000 		.long	.LASF112
 1106 0322 E400      		.sleb128 100
 1107 0324 08        		.uleb128 0x8
 1108 0325 0000 0000 		.long	.LASF113
 1109 0329 E500      		.sleb128 101
 1110 032b 08        		.uleb128 0x8
 1111 032c 0000 0000 		.long	.LASF114
 1112 0330 E600      		.sleb128 102
 1113 0332 08        		.uleb128 0x8
 1114 0333 0000 0000 		.long	.LASF115
 1115 0337 E700      		.sleb128 103
 1116 0339 08        		.uleb128 0x8
 1117 033a 0000 0000 		.long	.LASF116
 1118 033e E800      		.sleb128 104
 1119 0340 08        		.uleb128 0x8
 1120 0341 0000 0000 		.long	.LASF117
 1121 0345 E900      		.sleb128 105
 1122 0347 08        		.uleb128 0x8
 1123 0348 0000 0000 		.long	.LASF118
 1124 034c EA00      		.sleb128 106
 1125 034e 08        		.uleb128 0x8
 1126 034f 0000 0000 		.long	.LASF119
 1127 0353 EB00      		.sleb128 107
 1128 0355 08        		.uleb128 0x8
 1129 0356 0000 0000 		.long	.LASF120
 1130 035a EC00      		.sleb128 108
 1131 035c 08        		.uleb128 0x8
 1132 035d 0000 0000 		.long	.LASF121
 1133 0361 ED00      		.sleb128 109
 1134 0363 08        		.uleb128 0x8
 1135 0364 0000 0000 		.long	.LASF122
 1136 0368 EE00      		.sleb128 110
 1137 036a 08        		.uleb128 0x8
 1138 036b 0000 0000 		.long	.LASF123
 1139 036f EF00      		.sleb128 111
 1140 0371 08        		.uleb128 0x8
GAS LISTING C:\Users\ADMINI~1\AppData\Local\Temp/ccMxZnbV.s 			page 21


 1141 0372 0000 0000 		.long	.LASF124
 1142 0376 F000      		.sleb128 112
 1143 0378 08        		.uleb128 0x8
 1144 0379 0000 0000 		.long	.LASF125
 1145 037d F100      		.sleb128 113
 1146 037f 08        		.uleb128 0x8
 1147 0380 0000 0000 		.long	.LASF126
 1148 0384 F200      		.sleb128 114
 1149 0386 08        		.uleb128 0x8
 1150 0387 0000 0000 		.long	.LASF127
 1151 038b F300      		.sleb128 115
 1152 038d 08        		.uleb128 0x8
 1153 038e 0000 0000 		.long	.LASF128
 1154 0392 F400      		.sleb128 116
 1155 0394 08        		.uleb128 0x8
 1156 0395 0000 0000 		.long	.LASF129
 1157 0399 F500      		.sleb128 117
 1158 039b 08        		.uleb128 0x8
 1159 039c 0000 0000 		.long	.LASF130
 1160 03a0 F600      		.sleb128 118
 1161 03a2 08        		.uleb128 0x8
 1162 03a3 0000 0000 		.long	.LASF131
 1163 03a7 F700      		.sleb128 119
 1164 03a9 08        		.uleb128 0x8
 1165 03aa 0000 0000 		.long	.LASF132
 1166 03ae F800      		.sleb128 120
 1167 03b0 08        		.uleb128 0x8
 1168 03b1 0000 0000 		.long	.LASF133
 1169 03b5 F900      		.sleb128 121
 1170 03b7 08        		.uleb128 0x8
 1171 03b8 0000 0000 		.long	.LASF134
 1172 03bc FA00      		.sleb128 122
 1173 03be 08        		.uleb128 0x8
 1174 03bf 0000 0000 		.long	.LASF135
 1175 03c3 FB00      		.sleb128 123
 1176 03c5 08        		.uleb128 0x8
 1177 03c6 0000 0000 		.long	.LASF136
 1178 03ca FC00      		.sleb128 124
 1179 03cc 08        		.uleb128 0x8
 1180 03cd 0000 0000 		.long	.LASF137
 1181 03d1 FD00      		.sleb128 125
 1182 03d3 08        		.uleb128 0x8
 1183 03d4 0000 0000 		.long	.LASF138
 1184 03d8 FE00      		.sleb128 126
 1185 03da 08        		.uleb128 0x8
 1186 03db 0000 0000 		.long	.LASF139
 1187 03df FF00      		.sleb128 127
 1188 03e1 08        		.uleb128 0x8
 1189 03e2 0000 0000 		.long	.LASF140
 1190 03e6 8001      		.sleb128 128
 1191 03e8 08        		.uleb128 0x8
 1192 03e9 0000 0000 		.long	.LASF141
 1193 03ed 8101      		.sleb128 129
 1194 03ef 08        		.uleb128 0x8
 1195 03f0 0000 0000 		.long	.LASF142
 1196 03f4 8201      		.sleb128 130
 1197 03f6 08        		.uleb128 0x8
GAS LISTING C:\Users\ADMINI~1\AppData\Local\Temp/ccMxZnbV.s 			page 22


 1198 03f7 0000 0000 		.long	.LASF143
 1199 03fb 8301      		.sleb128 131
 1200 03fd 08        		.uleb128 0x8
 1201 03fe 0000 0000 		.long	.LASF144
 1202 0402 8401      		.sleb128 132
 1203 0404 08        		.uleb128 0x8
 1204 0405 0000 0000 		.long	.LASF145
 1205 0409 8501      		.sleb128 133
 1206 040b 08        		.uleb128 0x8
 1207 040c 0000 0000 		.long	.LASF146
 1208 0410 8601      		.sleb128 134
 1209 0412 08        		.uleb128 0x8
 1210 0413 0000 0000 		.long	.LASF147
 1211 0417 8701      		.sleb128 135
 1212 0419 08        		.uleb128 0x8
 1213 041a 0000 0000 		.long	.LASF148
 1214 041e 8801      		.sleb128 136
 1215 0420 08        		.uleb128 0x8
 1216 0421 0000 0000 		.long	.LASF149
 1217 0425 8901      		.sleb128 137
 1218 0427 08        		.uleb128 0x8
 1219 0428 0000 0000 		.long	.LASF150
 1220 042c 8A01      		.sleb128 138
 1221 042e 08        		.uleb128 0x8
 1222 042f 0000 0000 		.long	.LASF151
 1223 0433 8B01      		.sleb128 139
 1224 0435 08        		.uleb128 0x8
 1225 0436 0000 0000 		.long	.LASF152
 1226 043a 8C01      		.sleb128 140
 1227 043c 08        		.uleb128 0x8
 1228 043d 0000 0000 		.long	.LASF153
 1229 0441 8D01      		.sleb128 141
 1230 0443 08        		.uleb128 0x8
 1231 0444 0000 0000 		.long	.LASF154
 1232 0448 8E01      		.sleb128 142
 1233 044a 08        		.uleb128 0x8
 1234 044b 0000 0000 		.long	.LASF155
 1235 044f 8F01      		.sleb128 143
 1236 0451 00        		.byte	0x0
 1237 0452 09        		.uleb128 0x9
 1238 0453 0000 0000 		.long	.LASF158
 1239 0457 02        		.byte	0x2
 1240 0458 68        		.byte	0x68
 1241 0459 01        		.byte	0x1
 1242 045a 03        		.byte	0x3
 1243 045b 6B04 0000 		.long	0x46b
 1244 045f 0A        		.uleb128 0xa
 1245 0460 0000 0000 		.long	.LASF160
 1246 0464 02        		.byte	0x2
 1247 0465 67        		.byte	0x67
 1248 0466 8800 0000 		.long	0x88
 1249 046a 00        		.byte	0x0
 1250 046b 0B        		.uleb128 0xb
 1251 046c 01        		.byte	0x1
 1252 046d 0000 0000 		.long	.LASF156
 1253 0471 01        		.byte	0x1
 1254 0472 2C        		.byte	0x2c
GAS LISTING C:\Users\ADMINI~1\AppData\Local\Temp/ccMxZnbV.s 			page 23


 1255 0473 01        		.byte	0x1
 1256 0474 01        		.byte	0x1
 1257 0475 0B        		.uleb128 0xb
 1258 0476 01        		.byte	0x1
 1259 0477 0000 0000 		.long	.LASF157
 1260 047b 01        		.byte	0x1
 1261 047c 32        		.byte	0x32
 1262 047d 01        		.byte	0x1
 1263 047e 01        		.byte	0x1
 1264 047f 0C        		.uleb128 0xc
 1265 0480 0000 0000 		.long	.LASF187
 1266 0484 08        		.byte	0x8
 1267 0485 27        		.byte	0x27
 1268 0486 01        		.byte	0x1
 1269 0487 01        		.byte	0x1
 1270 0488 09        		.uleb128 0x9
 1271 0489 0000 0000 		.long	.LASF159
 1272 048d 03        		.byte	0x3
 1273 048e 6F        		.byte	0x6f
 1274 048f 01        		.byte	0x1
 1275 0490 03        		.byte	0x3
 1276 0491 B904 0000 		.long	0x4b9
 1277 0495 0A        		.uleb128 0xa
 1278 0496 0000 0000 		.long	.LASF161
 1279 049a 03        		.byte	0x3
 1280 049b 6E        		.byte	0x6e
 1281 049c B904 0000 		.long	0x4b9
 1282 04a0 0D        		.uleb128 0xd
 1283 04a1 0000 0000 		.long	.LASF162
 1284 04a5 03        		.byte	0x3
 1285 04a6 70        		.byte	0x70
 1286 04a7 8800 0000 		.long	0x88
 1287 04ab 0D        		.uleb128 0xd
 1288 04ac 0000 0000 		.long	.LASF163
 1289 04b0 03        		.byte	0x3
 1290 04b1 71        		.byte	0x71
 1291 04b2 B904 0000 		.long	0x4b9
 1292 04b6 0E        		.uleb128 0xe
 1293 04b7 0E        		.uleb128 0xe
 1294 04b8 00        		.byte	0x0
 1295 04b9 03        		.uleb128 0x3
 1296 04ba 04        		.byte	0x4
 1297 04bb 04        		.byte	0x4
 1298 04bc 0000 0000 		.long	.LASF164
 1299 04c0 0F        		.uleb128 0xf
 1300 04c1 6B04 0000 		.long	0x46b
 1301 04c5 0000 0000 		.long	.LFB8
 1302 04c9 0000 0000 		.long	.LFE8
 1303 04cd 02        		.byte	0x2
 1304 04ce 90        		.byte	0x90
 1305 04cf 20        		.uleb128 0x20
 1306 04d0 0F        		.uleb128 0xf
 1307 04d1 7504 0000 		.long	0x475
 1308 04d5 0000 0000 		.long	.LFB9
 1309 04d9 0000 0000 		.long	.LFE9
 1310 04dd 02        		.byte	0x2
 1311 04de 90        		.byte	0x90
GAS LISTING C:\Users\ADMINI~1\AppData\Local\Temp/ccMxZnbV.s 			page 24


 1312 04df 20        		.uleb128 0x20
 1313 04e0 10        		.uleb128 0x10
 1314 04e1 01        		.byte	0x1
 1315 04e2 0000 0000 		.long	.LASF169
 1316 04e6 01        		.byte	0x1
 1317 04e7 84        		.byte	0x84
 1318 04e8 01        		.byte	0x1
 1319 04e9 7D00 0000 		.long	0x7d
 1320 04ed 0000 0000 		.long	.LFB13
 1321 04f1 0000 0000 		.long	.LFE13
 1322 04f5 02        		.byte	0x2
 1323 04f6 90        		.byte	0x90
 1324 04f7 20        		.uleb128 0x20
 1325 04f8 2F05 0000 		.long	0x52f
 1326 04fc 11        		.uleb128 0x11
 1327 04fd 7069 6E00 		.string	"pin"
 1328 0501 01        		.byte	0x1
 1329 0502 84        		.byte	0x84
 1330 0503 7D00 0000 		.long	0x7d
 1331 0507 0000 0000 		.long	.LLST3
 1332 050b 12        		.uleb128 0x12
 1333 050c 0000 0000 		.long	.LASF165
 1334 0510 01        		.byte	0x1
 1335 0511 84        		.byte	0x84
 1336 0512 7D00 0000 		.long	0x7d
 1337 0516 01        		.byte	0x1
 1338 0517 66        		.byte	0x66
 1339 0518 0D        		.uleb128 0xd
 1340 0519 0000 0000 		.long	.LASF166
 1341 051d 01        		.byte	0x1
 1342 051e 85        		.byte	0x85
 1343 051f 7600 0000 		.long	0x76
 1344 0523 0D        		.uleb128 0xd
 1345 0524 0000 0000 		.long	.LASF167
 1346 0528 01        		.byte	0x1
 1347 0529 86        		.byte	0x86
 1348 052a 7600 0000 		.long	0x76
 1349 052e 00        		.byte	0x0
 1350 052f 13        		.uleb128 0x13
 1351 0530 01        		.byte	0x1
 1352 0531 0000 0000 		.long	.LASF188
 1353 0535 01        		.byte	0x1
 1354 0536 40        		.byte	0x40
 1355 0537 01        		.byte	0x1
 1356 0538 0000 0000 		.long	.LFB11
 1357 053c 0000 0000 		.long	.LFE11
 1358 0540 02        		.byte	0x2
 1359 0541 90        		.byte	0x90
 1360 0542 20        		.uleb128 0x20
 1361 0543 5705 0000 		.long	0x557
 1362 0547 14        		.uleb128 0x14
 1363 0548 0000 0000 		.long	.LASF171
 1364 054c 01        		.byte	0x1
 1365 054d 43        		.byte	0x43
 1366 054e 2500 0000 		.long	0x25
 1367 0552 0000 0000 		.long	.LLST5
 1368 0556 00        		.byte	0x0
GAS LISTING C:\Users\ADMINI~1\AppData\Local\Temp/ccMxZnbV.s 			page 25


 1369 0557 15        		.uleb128 0x15
 1370 0558 0000 0000 		.long	.LASF189
 1371 055c 01        		.byte	0x1
 1372 055d 57        		.byte	0x57
 1373 055e 01        		.byte	0x1
 1374 055f 0000 0000 		.long	.LFB12
 1375 0563 0000 0000 		.long	.LFE12
 1376 0567 02        		.byte	0x2
 1377 0568 90        		.byte	0x90
 1378 0569 20        		.uleb128 0x20
 1379 056a 9C05 0000 		.long	0x59c
 1380 056e 16        		.uleb128 0x16
 1381 056f 0000 0000 		.long	.LASF168
 1382 0573 01        		.byte	0x1
 1383 0574 57        		.byte	0x57
 1384 0575 7D00 0000 		.long	0x7d
 1385 0579 0000 0000 		.long	.LLST7
 1386 057d 17        		.uleb128 0x17
 1387 057e 6B04 0000 		.long	0x46b
 1388 0582 0000 0000 		.long	.LBB19
 1389 0586 0000 0000 		.long	.LBE19
 1390 058a 01        		.byte	0x1
 1391 058b 7E        		.byte	0x7e
 1392 058c 17        		.uleb128 0x17
 1393 058d 7504 0000 		.long	0x475
 1394 0591 0000 0000 		.long	.LBB21
 1395 0595 0000 0000 		.long	.LBE21
 1396 0599 01        		.byte	0x1
 1397 059a 80        		.byte	0x80
 1398 059b 00        		.byte	0x0
 1399 059c 18        		.uleb128 0x18
 1400 059d 01        		.byte	0x1
 1401 059e 0000 0000 		.long	.LASF190
 1402 05a2 01        		.byte	0x1
 1403 05a3 39        		.byte	0x39
 1404 05a4 01        		.byte	0x1
 1405 05a5 0000 0000 		.long	.LFB10
 1406 05a9 0000 0000 		.long	.LFE10
 1407 05ad 02        		.byte	0x2
 1408 05ae 90        		.byte	0x90
 1409 05af 20        		.uleb128 0x20
 1410 05b0 10        		.uleb128 0x10
 1411 05b1 01        		.byte	0x1
 1412 05b2 0000 0000 		.long	.LASF170
 1413 05b6 01        		.byte	0x1
 1414 05b7 95        		.byte	0x95
 1415 05b8 01        		.byte	0x1
 1416 05b9 7600 0000 		.long	0x76
 1417 05bd 0000 0000 		.long	.LFB14
 1418 05c1 0000 0000 		.long	.LFE14
 1419 05c5 02        		.byte	0x2
 1420 05c6 90        		.byte	0x90
 1421 05c7 20        		.uleb128 0x20
 1422 05c8 9606 0000 		.long	0x696
 1423 05cc 14        		.uleb128 0x14
 1424 05cd 0000 0000 		.long	.LASF172
 1425 05d1 01        		.byte	0x1
GAS LISTING C:\Users\ADMINI~1\AppData\Local\Temp/ccMxZnbV.s 			page 26


 1426 05d2 9A        		.byte	0x9a
 1427 05d3 7D00 0000 		.long	0x7d
 1428 05d7 0000 0000 		.long	.LLST10
 1429 05db 19        		.uleb128 0x19
 1430 05dc 0000 0000 		.long	.LASF173
 1431 05e0 01        		.byte	0x1
 1432 05e1 AA        		.byte	0xaa
 1433 05e2 7D00 0000 		.long	0x7d
 1434 05e6 01        		.byte	0x1
 1435 05e7 61        		.byte	0x61
 1436 05e8 1A        		.uleb128 0x1a
 1437 05e9 726F 7700 		.string	"row"
 1438 05ed 01        		.byte	0x1
 1439 05ee B3        		.byte	0xb3
 1440 05ef 7D00 0000 		.long	0x7d
 1441 05f3 1A        		.uleb128 0x1a
 1442 05f4 636F 6C00 		.string	"col"
 1443 05f8 01        		.byte	0x1
 1444 05f9 B3        		.byte	0xb3
 1445 05fa 7D00 0000 		.long	0x7d
 1446 05fe 1A        		.uleb128 0x1a
 1447 05ff 6375 7200 		.string	"cur"
 1448 0603 01        		.byte	0x1
 1449 0604 B3        		.byte	0xb3
 1450 0605 7D00 0000 		.long	0x7d
 1451 0609 0D        		.uleb128 0xd
 1452 060a 0000 0000 		.long	.LASF174
 1453 060e 01        		.byte	0x1
 1454 060f B3        		.byte	0xb3
 1455 0610 7D00 0000 		.long	0x7d
 1456 0614 14        		.uleb128 0x14
 1457 0615 0000 0000 		.long	.LASF175
 1458 0619 01        		.byte	0x1
 1459 061a E3        		.byte	0xe3
 1460 061b 7D00 0000 		.long	0x7d
 1461 061f 0000 0000 		.long	.LLST11
 1462 0623 14        		.uleb128 0x14
 1463 0624 0000 0000 		.long	.LASF176
 1464 0628 01        		.byte	0x1
 1465 0629 E4        		.byte	0xe4
 1466 062a 7D00 0000 		.long	0x7d
 1467 062e 0000 0000 		.long	.LLST12
 1468 0632 1B        		.uleb128 0x1b
 1469 0633 0000 0000 		.long	.LBB23
 1470 0637 0000 0000 		.long	.LBE23
 1471 063b 5A06 0000 		.long	0x65a
 1472 063f 0D        		.uleb128 0xd
 1473 0640 0000 0000 		.long	.LASF177
 1474 0644 01        		.byte	0x1
 1475 0645 BD        		.byte	0xbd
 1476 0646 8800 0000 		.long	0x88
 1477 064a 14        		.uleb128 0x14
 1478 064b 0000 0000 		.long	.LASF178
 1479 064f 01        		.byte	0x1
 1480 0650 BD        		.byte	0xbd
 1481 0651 7D00 0000 		.long	0x7d
 1482 0655 0000 0000 		.long	.LLST13
GAS LISTING C:\Users\ADMINI~1\AppData\Local\Temp/ccMxZnbV.s 			page 27


 1483 0659 00        		.byte	0x0
 1484 065a 1C        		.uleb128 0x1c
 1485 065b 8804 0000 		.long	0x488
 1486 065f 0000 0000 		.long	.Ldebug_ranges0+0x0
 1487 0663 01        		.byte	0x1
 1488 0664 1B01      		.word	0x11b
 1489 0666 1D        		.uleb128 0x1d
 1490 0667 9504 0000 		.long	0x495
 1491 066b 1E        		.uleb128 0x1e
 1492 066c 0000 0000 		.long	.Ldebug_ranges0+0x18
 1493 0670 1F        		.uleb128 0x1f
 1494 0671 A004 0000 		.long	0x4a0
 1495 0675 0000 0000 		.long	.LLST14
 1496 0679 20        		.uleb128 0x20
 1497 067a AB04 0000 		.long	0x4ab
 1498 067e 21        		.uleb128 0x21
 1499 067f 5204 0000 		.long	0x452
 1500 0683 0000 0000 		.long	.Ldebug_ranges0+0x30
 1501 0687 03        		.byte	0x3
 1502 0688 7B        		.byte	0x7b
 1503 0689 22        		.uleb128 0x22
 1504 068a 5F04 0000 		.long	0x45f
 1505 068e 0000 0000 		.long	.LLST15
 1506 0692 00        		.byte	0x0
 1507 0693 00        		.byte	0x0
 1508 0694 00        		.byte	0x0
 1509 0695 00        		.byte	0x0
 1510 0696 23        		.uleb128 0x23
 1511 0697 7D00 0000 		.long	0x7d
 1512 069b B206 0000 		.long	0x6b2
 1513 069f 24        		.uleb128 0x24
 1514 06a0 B206 0000 		.long	0x6b2
 1515 06a4 02        		.byte	0x2
 1516 06a5 24        		.uleb128 0x24
 1517 06a6 B206 0000 		.long	0x6b2
 1518 06aa 10        		.byte	0x10
 1519 06ab 24        		.uleb128 0x24
 1520 06ac B206 0000 		.long	0x6b2
 1521 06b0 07        		.byte	0x7
 1522 06b1 00        		.byte	0x0
 1523 06b2 06        		.uleb128 0x6
 1524 06b3 02        		.byte	0x2
 1525 06b4 07        		.byte	0x7
 1526 06b5 25        		.uleb128 0x25
 1527 06b6 0000 0000 		.long	.LASF179
 1528 06ba 05        		.byte	0x5
 1529 06bb CB        		.byte	0xcb
 1530 06bc C206 0000 		.long	0x6c2
 1531 06c0 01        		.byte	0x1
 1532 06c1 01        		.byte	0x1
 1533 06c2 26        		.uleb128 0x26
 1534 06c3 9606 0000 		.long	0x696
 1535 06c7 27        		.uleb128 0x27
 1536 06c8 0000 0000 		.long	.LASF180
 1537 06cc 01        		.byte	0x1
 1538 06cd 27        		.byte	0x27
 1539 06ce 7600 0000 		.long	0x76
GAS LISTING C:\Users\ADMINI~1\AppData\Local\Temp/ccMxZnbV.s 			page 28


 1540 06d2 01        		.byte	0x1
 1541 06d3 05        		.byte	0x5
 1542 06d4 03        		.byte	0x3
 1543 06d5 0000 0000 		.long	interfaceCount
 1544 06d9 27        		.uleb128 0x27
 1545 06da 0000 0000 		.long	.LASF181
 1546 06de 01        		.byte	0x1
 1547 06df 28        		.byte	0x28
 1548 06e0 7D00 0000 		.long	0x7d
 1549 06e4 01        		.byte	0x1
 1550 06e5 05        		.byte	0x5
 1551 06e6 03        		.byte	0x3
 1552 06e7 0000 0000 		.long	interfaceReady
 1553 06eb 27        		.uleb128 0x27
 1554 06ec 0000 0000 		.long	.LASF182
 1555 06f0 01        		.byte	0x1
 1556 06f1 29        		.byte	0x29
 1557 06f2 7D00 0000 		.long	0x7d
 1558 06f6 01        		.byte	0x1
 1559 06f7 05        		.byte	0x5
 1560 06f8 03        		.byte	0x3
 1561 06f9 0000 0000 		.long	INTERFACE
 1562 06fd 23        		.uleb128 0x23
 1563 06fe 7D00 0000 		.long	0x7d
 1564 0702 0D07 0000 		.long	0x70d
 1565 0706 24        		.uleb128 0x24
 1566 0707 B206 0000 		.long	0x6b2
 1567 070b 10        		.byte	0x10
 1568 070c 00        		.byte	0x0
 1569 070d 25        		.uleb128 0x25
 1570 070e 0000 0000 		.long	.LASF183
 1571 0712 06        		.byte	0x6
 1572 0713 10        		.byte	0x10
 1573 0714 FD06 0000 		.long	0x6fd
 1574 0718 01        		.byte	0x1
 1575 0719 01        		.byte	0x1
 1576 071a 00        		.byte	0x0
 1577               		.section	.debug_abbrev
 1578 0000 01        		.uleb128 0x1
 1579 0001 11        		.uleb128 0x11
 1580 0002 01        		.byte	0x1
 1581 0003 25        		.uleb128 0x25
 1582 0004 0E        		.uleb128 0xe
 1583 0005 13        		.uleb128 0x13
 1584 0006 0B        		.uleb128 0xb
 1585 0007 03        		.uleb128 0x3
 1586 0008 0E        		.uleb128 0xe
 1587 0009 1B        		.uleb128 0x1b
 1588 000a 0E        		.uleb128 0xe
 1589 000b 11        		.uleb128 0x11
 1590 000c 01        		.uleb128 0x1
 1591 000d 12        		.uleb128 0x12
 1592 000e 01        		.uleb128 0x1
 1593 000f 10        		.uleb128 0x10
 1594 0010 06        		.uleb128 0x6
 1595 0011 00        		.byte	0x0
 1596 0012 00        		.byte	0x0
GAS LISTING C:\Users\ADMINI~1\AppData\Local\Temp/ccMxZnbV.s 			page 29


 1597 0013 02        		.uleb128 0x2
 1598 0014 16        		.uleb128 0x16
 1599 0015 00        		.byte	0x0
 1600 0016 03        		.uleb128 0x3
 1601 0017 08        		.uleb128 0x8
 1602 0018 3A        		.uleb128 0x3a
 1603 0019 0B        		.uleb128 0xb
 1604 001a 3B        		.uleb128 0x3b
 1605 001b 0B        		.uleb128 0xb
 1606 001c 49        		.uleb128 0x49
 1607 001d 13        		.uleb128 0x13
 1608 001e 00        		.byte	0x0
 1609 001f 00        		.byte	0x0
 1610 0020 03        		.uleb128 0x3
 1611 0021 24        		.uleb128 0x24
 1612 0022 00        		.byte	0x0
 1613 0023 0B        		.uleb128 0xb
 1614 0024 0B        		.uleb128 0xb
 1615 0025 3E        		.uleb128 0x3e
 1616 0026 0B        		.uleb128 0xb
 1617 0027 03        		.uleb128 0x3
 1618 0028 0E        		.uleb128 0xe
 1619 0029 00        		.byte	0x0
 1620 002a 00        		.byte	0x0
 1621 002b 04        		.uleb128 0x4
 1622 002c 24        		.uleb128 0x24
 1623 002d 00        		.byte	0x0
 1624 002e 0B        		.uleb128 0xb
 1625 002f 0B        		.uleb128 0xb
 1626 0030 3E        		.uleb128 0x3e
 1627 0031 0B        		.uleb128 0xb
 1628 0032 03        		.uleb128 0x3
 1629 0033 08        		.uleb128 0x8
 1630 0034 00        		.byte	0x0
 1631 0035 00        		.byte	0x0
 1632 0036 05        		.uleb128 0x5
 1633 0037 16        		.uleb128 0x16
 1634 0038 00        		.byte	0x0
 1635 0039 03        		.uleb128 0x3
 1636 003a 0E        		.uleb128 0xe
 1637 003b 3A        		.uleb128 0x3a
 1638 003c 0B        		.uleb128 0xb
 1639 003d 3B        		.uleb128 0x3b
 1640 003e 0B        		.uleb128 0xb
 1641 003f 49        		.uleb128 0x49
 1642 0040 13        		.uleb128 0x13
 1643 0041 00        		.byte	0x0
 1644 0042 00        		.byte	0x0
 1645 0043 06        		.uleb128 0x6
 1646 0044 24        		.uleb128 0x24
 1647 0045 00        		.byte	0x0
 1648 0046 0B        		.uleb128 0xb
 1649 0047 0B        		.uleb128 0xb
 1650 0048 3E        		.uleb128 0x3e
 1651 0049 0B        		.uleb128 0xb
 1652 004a 00        		.byte	0x0
 1653 004b 00        		.byte	0x0
GAS LISTING C:\Users\ADMINI~1\AppData\Local\Temp/ccMxZnbV.s 			page 30


 1654 004c 07        		.uleb128 0x7
 1655 004d 04        		.uleb128 0x4
 1656 004e 01        		.byte	0x1
 1657 004f 0B        		.uleb128 0xb
 1658 0050 0B        		.uleb128 0xb
 1659 0051 3A        		.uleb128 0x3a
 1660 0052 0B        		.uleb128 0xb
 1661 0053 3B        		.uleb128 0x3b
 1662 0054 0B        		.uleb128 0xb
 1663 0055 01        		.uleb128 0x1
 1664 0056 13        		.uleb128 0x13
 1665 0057 00        		.byte	0x0
 1666 0058 00        		.byte	0x0
 1667 0059 08        		.uleb128 0x8
 1668 005a 28        		.uleb128 0x28
 1669 005b 00        		.byte	0x0
 1670 005c 03        		.uleb128 0x3
 1671 005d 0E        		.uleb128 0xe
 1672 005e 1C        		.uleb128 0x1c
 1673 005f 0D        		.uleb128 0xd
 1674 0060 00        		.byte	0x0
 1675 0061 00        		.byte	0x0
 1676 0062 09        		.uleb128 0x9
 1677 0063 2E        		.uleb128 0x2e
 1678 0064 01        		.byte	0x1
 1679 0065 03        		.uleb128 0x3
 1680 0066 0E        		.uleb128 0xe
 1681 0067 3A        		.uleb128 0x3a
 1682 0068 0B        		.uleb128 0xb
 1683 0069 3B        		.uleb128 0x3b
 1684 006a 0B        		.uleb128 0xb
 1685 006b 27        		.uleb128 0x27
 1686 006c 0C        		.uleb128 0xc
 1687 006d 20        		.uleb128 0x20
 1688 006e 0B        		.uleb128 0xb
 1689 006f 01        		.uleb128 0x1
 1690 0070 13        		.uleb128 0x13
 1691 0071 00        		.byte	0x0
 1692 0072 00        		.byte	0x0
 1693 0073 0A        		.uleb128 0xa
 1694 0074 05        		.uleb128 0x5
 1695 0075 00        		.byte	0x0
 1696 0076 03        		.uleb128 0x3
 1697 0077 0E        		.uleb128 0xe
 1698 0078 3A        		.uleb128 0x3a
 1699 0079 0B        		.uleb128 0xb
 1700 007a 3B        		.uleb128 0x3b
 1701 007b 0B        		.uleb128 0xb
 1702 007c 49        		.uleb128 0x49
 1703 007d 13        		.uleb128 0x13
 1704 007e 00        		.byte	0x0
 1705 007f 00        		.byte	0x0
 1706 0080 0B        		.uleb128 0xb
 1707 0081 2E        		.uleb128 0x2e
 1708 0082 00        		.byte	0x0
 1709 0083 3F        		.uleb128 0x3f
 1710 0084 0C        		.uleb128 0xc
GAS LISTING C:\Users\ADMINI~1\AppData\Local\Temp/ccMxZnbV.s 			page 31


 1711 0085 03        		.uleb128 0x3
 1712 0086 0E        		.uleb128 0xe
 1713 0087 3A        		.uleb128 0x3a
 1714 0088 0B        		.uleb128 0xb
 1715 0089 3B        		.uleb128 0x3b
 1716 008a 0B        		.uleb128 0xb
 1717 008b 27        		.uleb128 0x27
 1718 008c 0C        		.uleb128 0xc
 1719 008d 20        		.uleb128 0x20
 1720 008e 0B        		.uleb128 0xb
 1721 008f 00        		.byte	0x0
 1722 0090 00        		.byte	0x0
 1723 0091 0C        		.uleb128 0xc
 1724 0092 2E        		.uleb128 0x2e
 1725 0093 00        		.byte	0x0
 1726 0094 03        		.uleb128 0x3
 1727 0095 0E        		.uleb128 0xe
 1728 0096 3A        		.uleb128 0x3a
 1729 0097 0B        		.uleb128 0xb
 1730 0098 3B        		.uleb128 0x3b
 1731 0099 0B        		.uleb128 0xb
 1732 009a 27        		.uleb128 0x27
 1733 009b 0C        		.uleb128 0xc
 1734 009c 20        		.uleb128 0x20
 1735 009d 0B        		.uleb128 0xb
 1736 009e 00        		.byte	0x0
 1737 009f 00        		.byte	0x0
 1738 00a0 0D        		.uleb128 0xd
 1739 00a1 34        		.uleb128 0x34
 1740 00a2 00        		.byte	0x0
 1741 00a3 03        		.uleb128 0x3
 1742 00a4 0E        		.uleb128 0xe
 1743 00a5 3A        		.uleb128 0x3a
 1744 00a6 0B        		.uleb128 0xb
 1745 00a7 3B        		.uleb128 0x3b
 1746 00a8 0B        		.uleb128 0xb
 1747 00a9 49        		.uleb128 0x49
 1748 00aa 13        		.uleb128 0x13
 1749 00ab 00        		.byte	0x0
 1750 00ac 00        		.byte	0x0
 1751 00ad 0E        		.uleb128 0xe
 1752 00ae 0B        		.uleb128 0xb
 1753 00af 00        		.byte	0x0
 1754 00b0 00        		.byte	0x0
 1755 00b1 00        		.byte	0x0
 1756 00b2 0F        		.uleb128 0xf
 1757 00b3 2E        		.uleb128 0x2e
 1758 00b4 00        		.byte	0x0
 1759 00b5 31        		.uleb128 0x31
 1760 00b6 13        		.uleb128 0x13
 1761 00b7 11        		.uleb128 0x11
 1762 00b8 01        		.uleb128 0x1
 1763 00b9 12        		.uleb128 0x12
 1764 00ba 01        		.uleb128 0x1
 1765 00bb 40        		.uleb128 0x40
 1766 00bc 0A        		.uleb128 0xa
 1767 00bd 00        		.byte	0x0
GAS LISTING C:\Users\ADMINI~1\AppData\Local\Temp/ccMxZnbV.s 			page 32


 1768 00be 00        		.byte	0x0
 1769 00bf 10        		.uleb128 0x10
 1770 00c0 2E        		.uleb128 0x2e
 1771 00c1 01        		.byte	0x1
 1772 00c2 3F        		.uleb128 0x3f
 1773 00c3 0C        		.uleb128 0xc
 1774 00c4 03        		.uleb128 0x3
 1775 00c5 0E        		.uleb128 0xe
 1776 00c6 3A        		.uleb128 0x3a
 1777 00c7 0B        		.uleb128 0xb
 1778 00c8 3B        		.uleb128 0x3b
 1779 00c9 0B        		.uleb128 0xb
 1780 00ca 27        		.uleb128 0x27
 1781 00cb 0C        		.uleb128 0xc
 1782 00cc 49        		.uleb128 0x49
 1783 00cd 13        		.uleb128 0x13
 1784 00ce 11        		.uleb128 0x11
 1785 00cf 01        		.uleb128 0x1
 1786 00d0 12        		.uleb128 0x12
 1787 00d1 01        		.uleb128 0x1
 1788 00d2 40        		.uleb128 0x40
 1789 00d3 0A        		.uleb128 0xa
 1790 00d4 01        		.uleb128 0x1
 1791 00d5 13        		.uleb128 0x13
 1792 00d6 00        		.byte	0x0
 1793 00d7 00        		.byte	0x0
 1794 00d8 11        		.uleb128 0x11
 1795 00d9 05        		.uleb128 0x5
 1796 00da 00        		.byte	0x0
 1797 00db 03        		.uleb128 0x3
 1798 00dc 08        		.uleb128 0x8
 1799 00dd 3A        		.uleb128 0x3a
 1800 00de 0B        		.uleb128 0xb
 1801 00df 3B        		.uleb128 0x3b
 1802 00e0 0B        		.uleb128 0xb
 1803 00e1 49        		.uleb128 0x49
 1804 00e2 13        		.uleb128 0x13
 1805 00e3 02        		.uleb128 0x2
 1806 00e4 06        		.uleb128 0x6
 1807 00e5 00        		.byte	0x0
 1808 00e6 00        		.byte	0x0
 1809 00e7 12        		.uleb128 0x12
 1810 00e8 05        		.uleb128 0x5
 1811 00e9 00        		.byte	0x0
 1812 00ea 03        		.uleb128 0x3
 1813 00eb 0E        		.uleb128 0xe
 1814 00ec 3A        		.uleb128 0x3a
 1815 00ed 0B        		.uleb128 0xb
 1816 00ee 3B        		.uleb128 0x3b
 1817 00ef 0B        		.uleb128 0xb
 1818 00f0 49        		.uleb128 0x49
 1819 00f1 13        		.uleb128 0x13
 1820 00f2 02        		.uleb128 0x2
 1821 00f3 0A        		.uleb128 0xa
 1822 00f4 00        		.byte	0x0
 1823 00f5 00        		.byte	0x0
 1824 00f6 13        		.uleb128 0x13
GAS LISTING C:\Users\ADMINI~1\AppData\Local\Temp/ccMxZnbV.s 			page 33


 1825 00f7 2E        		.uleb128 0x2e
 1826 00f8 01        		.byte	0x1
 1827 00f9 3F        		.uleb128 0x3f
 1828 00fa 0C        		.uleb128 0xc
 1829 00fb 03        		.uleb128 0x3
 1830 00fc 0E        		.uleb128 0xe
 1831 00fd 3A        		.uleb128 0x3a
 1832 00fe 0B        		.uleb128 0xb
 1833 00ff 3B        		.uleb128 0x3b
 1834 0100 0B        		.uleb128 0xb
 1835 0101 27        		.uleb128 0x27
 1836 0102 0C        		.uleb128 0xc
 1837 0103 11        		.uleb128 0x11
 1838 0104 01        		.uleb128 0x1
 1839 0105 12        		.uleb128 0x12
 1840 0106 01        		.uleb128 0x1
 1841 0107 40        		.uleb128 0x40
 1842 0108 0A        		.uleb128 0xa
 1843 0109 01        		.uleb128 0x1
 1844 010a 13        		.uleb128 0x13
 1845 010b 00        		.byte	0x0
 1846 010c 00        		.byte	0x0
 1847 010d 14        		.uleb128 0x14
 1848 010e 34        		.uleb128 0x34
 1849 010f 00        		.byte	0x0
 1850 0110 03        		.uleb128 0x3
 1851 0111 0E        		.uleb128 0xe
 1852 0112 3A        		.uleb128 0x3a
 1853 0113 0B        		.uleb128 0xb
 1854 0114 3B        		.uleb128 0x3b
 1855 0115 0B        		.uleb128 0xb
 1856 0116 49        		.uleb128 0x49
 1857 0117 13        		.uleb128 0x13
 1858 0118 02        		.uleb128 0x2
 1859 0119 06        		.uleb128 0x6
 1860 011a 00        		.byte	0x0
 1861 011b 00        		.byte	0x0
 1862 011c 15        		.uleb128 0x15
 1863 011d 2E        		.uleb128 0x2e
 1864 011e 01        		.byte	0x1
 1865 011f 03        		.uleb128 0x3
 1866 0120 0E        		.uleb128 0xe
 1867 0121 3A        		.uleb128 0x3a
 1868 0122 0B        		.uleb128 0xb
 1869 0123 3B        		.uleb128 0x3b
 1870 0124 0B        		.uleb128 0xb
 1871 0125 27        		.uleb128 0x27
 1872 0126 0C        		.uleb128 0xc
 1873 0127 11        		.uleb128 0x11
 1874 0128 01        		.uleb128 0x1
 1875 0129 12        		.uleb128 0x12
 1876 012a 01        		.uleb128 0x1
 1877 012b 40        		.uleb128 0x40
 1878 012c 0A        		.uleb128 0xa
 1879 012d 01        		.uleb128 0x1
 1880 012e 13        		.uleb128 0x13
 1881 012f 00        		.byte	0x0
GAS LISTING C:\Users\ADMINI~1\AppData\Local\Temp/ccMxZnbV.s 			page 34


 1882 0130 00        		.byte	0x0
 1883 0131 16        		.uleb128 0x16
 1884 0132 05        		.uleb128 0x5
 1885 0133 00        		.byte	0x0
 1886 0134 03        		.uleb128 0x3
 1887 0135 0E        		.uleb128 0xe
 1888 0136 3A        		.uleb128 0x3a
 1889 0137 0B        		.uleb128 0xb
 1890 0138 3B        		.uleb128 0x3b
 1891 0139 0B        		.uleb128 0xb
 1892 013a 49        		.uleb128 0x49
 1893 013b 13        		.uleb128 0x13
 1894 013c 02        		.uleb128 0x2
 1895 013d 06        		.uleb128 0x6
 1896 013e 00        		.byte	0x0
 1897 013f 00        		.byte	0x0
 1898 0140 17        		.uleb128 0x17
 1899 0141 1D        		.uleb128 0x1d
 1900 0142 00        		.byte	0x0
 1901 0143 31        		.uleb128 0x31
 1902 0144 13        		.uleb128 0x13
 1903 0145 11        		.uleb128 0x11
 1904 0146 01        		.uleb128 0x1
 1905 0147 12        		.uleb128 0x12
 1906 0148 01        		.uleb128 0x1
 1907 0149 58        		.uleb128 0x58
 1908 014a 0B        		.uleb128 0xb
 1909 014b 59        		.uleb128 0x59
 1910 014c 0B        		.uleb128 0xb
 1911 014d 00        		.byte	0x0
 1912 014e 00        		.byte	0x0
 1913 014f 18        		.uleb128 0x18
 1914 0150 2E        		.uleb128 0x2e
 1915 0151 00        		.byte	0x0
 1916 0152 3F        		.uleb128 0x3f
 1917 0153 0C        		.uleb128 0xc
 1918 0154 03        		.uleb128 0x3
 1919 0155 0E        		.uleb128 0xe
 1920 0156 3A        		.uleb128 0x3a
 1921 0157 0B        		.uleb128 0xb
 1922 0158 3B        		.uleb128 0x3b
 1923 0159 0B        		.uleb128 0xb
 1924 015a 27        		.uleb128 0x27
 1925 015b 0C        		.uleb128 0xc
 1926 015c 11        		.uleb128 0x11
 1927 015d 01        		.uleb128 0x1
 1928 015e 12        		.uleb128 0x12
 1929 015f 01        		.uleb128 0x1
 1930 0160 40        		.uleb128 0x40
 1931 0161 0A        		.uleb128 0xa
 1932 0162 00        		.byte	0x0
 1933 0163 00        		.byte	0x0
 1934 0164 19        		.uleb128 0x19
 1935 0165 34        		.uleb128 0x34
 1936 0166 00        		.byte	0x0
 1937 0167 03        		.uleb128 0x3
 1938 0168 0E        		.uleb128 0xe
GAS LISTING C:\Users\ADMINI~1\AppData\Local\Temp/ccMxZnbV.s 			page 35


 1939 0169 3A        		.uleb128 0x3a
 1940 016a 0B        		.uleb128 0xb
 1941 016b 3B        		.uleb128 0x3b
 1942 016c 0B        		.uleb128 0xb
 1943 016d 49        		.uleb128 0x49
 1944 016e 13        		.uleb128 0x13
 1945 016f 02        		.uleb128 0x2
 1946 0170 0A        		.uleb128 0xa
 1947 0171 00        		.byte	0x0
 1948 0172 00        		.byte	0x0
 1949 0173 1A        		.uleb128 0x1a
 1950 0174 34        		.uleb128 0x34
 1951 0175 00        		.byte	0x0
 1952 0176 03        		.uleb128 0x3
 1953 0177 08        		.uleb128 0x8
 1954 0178 3A        		.uleb128 0x3a
 1955 0179 0B        		.uleb128 0xb
 1956 017a 3B        		.uleb128 0x3b
 1957 017b 0B        		.uleb128 0xb
 1958 017c 49        		.uleb128 0x49
 1959 017d 13        		.uleb128 0x13
 1960 017e 00        		.byte	0x0
 1961 017f 00        		.byte	0x0
 1962 0180 1B        		.uleb128 0x1b
 1963 0181 0B        		.uleb128 0xb
 1964 0182 01        		.byte	0x1
 1965 0183 11        		.uleb128 0x11
 1966 0184 01        		.uleb128 0x1
 1967 0185 12        		.uleb128 0x12
 1968 0186 01        		.uleb128 0x1
 1969 0187 01        		.uleb128 0x1
 1970 0188 13        		.uleb128 0x13
 1971 0189 00        		.byte	0x0
 1972 018a 00        		.byte	0x0
 1973 018b 1C        		.uleb128 0x1c
 1974 018c 1D        		.uleb128 0x1d
 1975 018d 01        		.byte	0x1
 1976 018e 31        		.uleb128 0x31
 1977 018f 13        		.uleb128 0x13
 1978 0190 55        		.uleb128 0x55
 1979 0191 06        		.uleb128 0x6
 1980 0192 58        		.uleb128 0x58
 1981 0193 0B        		.uleb128 0xb
 1982 0194 59        		.uleb128 0x59
 1983 0195 05        		.uleb128 0x5
 1984 0196 00        		.byte	0x0
 1985 0197 00        		.byte	0x0
 1986 0198 1D        		.uleb128 0x1d
 1987 0199 05        		.uleb128 0x5
 1988 019a 00        		.byte	0x0
 1989 019b 31        		.uleb128 0x31
 1990 019c 13        		.uleb128 0x13
 1991 019d 00        		.byte	0x0
 1992 019e 00        		.byte	0x0
 1993 019f 1E        		.uleb128 0x1e
 1994 01a0 0B        		.uleb128 0xb
 1995 01a1 01        		.byte	0x1
GAS LISTING C:\Users\ADMINI~1\AppData\Local\Temp/ccMxZnbV.s 			page 36


 1996 01a2 55        		.uleb128 0x55
 1997 01a3 06        		.uleb128 0x6
 1998 01a4 00        		.byte	0x0
 1999 01a5 00        		.byte	0x0
 2000 01a6 1F        		.uleb128 0x1f
 2001 01a7 34        		.uleb128 0x34
 2002 01a8 00        		.byte	0x0
 2003 01a9 31        		.uleb128 0x31
 2004 01aa 13        		.uleb128 0x13
 2005 01ab 02        		.uleb128 0x2
 2006 01ac 06        		.uleb128 0x6
 2007 01ad 00        		.byte	0x0
 2008 01ae 00        		.byte	0x0
 2009 01af 20        		.uleb128 0x20
 2010 01b0 34        		.uleb128 0x34
 2011 01b1 00        		.byte	0x0
 2012 01b2 31        		.uleb128 0x31
 2013 01b3 13        		.uleb128 0x13
 2014 01b4 00        		.byte	0x0
 2015 01b5 00        		.byte	0x0
 2016 01b6 21        		.uleb128 0x21
 2017 01b7 1D        		.uleb128 0x1d
 2018 01b8 01        		.byte	0x1
 2019 01b9 31        		.uleb128 0x31
 2020 01ba 13        		.uleb128 0x13
 2021 01bb 55        		.uleb128 0x55
 2022 01bc 06        		.uleb128 0x6
 2023 01bd 58        		.uleb128 0x58
 2024 01be 0B        		.uleb128 0xb
 2025 01bf 59        		.uleb128 0x59
 2026 01c0 0B        		.uleb128 0xb
 2027 01c1 00        		.byte	0x0
 2028 01c2 00        		.byte	0x0
 2029 01c3 22        		.uleb128 0x22
 2030 01c4 05        		.uleb128 0x5
 2031 01c5 00        		.byte	0x0
 2032 01c6 31        		.uleb128 0x31
 2033 01c7 13        		.uleb128 0x13
 2034 01c8 02        		.uleb128 0x2
 2035 01c9 06        		.uleb128 0x6
 2036 01ca 00        		.byte	0x0
 2037 01cb 00        		.byte	0x0
 2038 01cc 23        		.uleb128 0x23
 2039 01cd 01        		.uleb128 0x1
 2040 01ce 01        		.byte	0x1
 2041 01cf 49        		.uleb128 0x49
 2042 01d0 13        		.uleb128 0x13
 2043 01d1 01        		.uleb128 0x1
 2044 01d2 13        		.uleb128 0x13
 2045 01d3 00        		.byte	0x0
 2046 01d4 00        		.byte	0x0
 2047 01d5 24        		.uleb128 0x24
 2048 01d6 21        		.uleb128 0x21
 2049 01d7 00        		.byte	0x0
 2050 01d8 49        		.uleb128 0x49
 2051 01d9 13        		.uleb128 0x13
 2052 01da 2F        		.uleb128 0x2f
GAS LISTING C:\Users\ADMINI~1\AppData\Local\Temp/ccMxZnbV.s 			page 37


 2053 01db 0B        		.uleb128 0xb
 2054 01dc 00        		.byte	0x0
 2055 01dd 00        		.byte	0x0
 2056 01de 25        		.uleb128 0x25
 2057 01df 34        		.uleb128 0x34
 2058 01e0 00        		.byte	0x0
 2059 01e1 03        		.uleb128 0x3
 2060 01e2 0E        		.uleb128 0xe
 2061 01e3 3A        		.uleb128 0x3a
 2062 01e4 0B        		.uleb128 0xb
 2063 01e5 3B        		.uleb128 0x3b
 2064 01e6 0B        		.uleb128 0xb
 2065 01e7 49        		.uleb128 0x49
 2066 01e8 13        		.uleb128 0x13
 2067 01e9 3F        		.uleb128 0x3f
 2068 01ea 0C        		.uleb128 0xc
 2069 01eb 3C        		.uleb128 0x3c
 2070 01ec 0C        		.uleb128 0xc
 2071 01ed 00        		.byte	0x0
 2072 01ee 00        		.byte	0x0
 2073 01ef 26        		.uleb128 0x26
 2074 01f0 26        		.uleb128 0x26
 2075 01f1 00        		.byte	0x0
 2076 01f2 49        		.uleb128 0x49
 2077 01f3 13        		.uleb128 0x13
 2078 01f4 00        		.byte	0x0
 2079 01f5 00        		.byte	0x0
 2080 01f6 27        		.uleb128 0x27
 2081 01f7 34        		.uleb128 0x34
 2082 01f8 00        		.byte	0x0
 2083 01f9 03        		.uleb128 0x3
 2084 01fa 0E        		.uleb128 0xe
 2085 01fb 3A        		.uleb128 0x3a
 2086 01fc 0B        		.uleb128 0xb
 2087 01fd 3B        		.uleb128 0x3b
 2088 01fe 0B        		.uleb128 0xb
 2089 01ff 49        		.uleb128 0x49
 2090 0200 13        		.uleb128 0x13
 2091 0201 3F        		.uleb128 0x3f
 2092 0202 0C        		.uleb128 0xc
 2093 0203 02        		.uleb128 0x2
 2094 0204 0A        		.uleb128 0xa
 2095 0205 00        		.byte	0x0
 2096 0206 00        		.byte	0x0
 2097 0207 00        		.byte	0x0
 2098               		.section	.debug_pubnames,"",@progbits
 2099 0000 A600 0000 		.long	0xa6
 2100 0004 0200      		.word	0x2
 2101 0006 0000 0000 		.long	.Ldebug_info0
 2102 000a 1B07 0000 		.long	0x71b
 2103 000e C004 0000 		.long	0x4c0
 2104 0012 7365 7455 		.string	"setUsbOn"
 2104      7362 4F6E 
 2104      00
 2105 001b D004 0000 		.long	0x4d0
 2106 001f 7365 7455 		.string	"setUsbOff"
 2106      7362 4F66 
GAS LISTING C:\Users\ADMINI~1\AppData\Local\Temp/ccMxZnbV.s 			page 38


 2106      6600 
 2107 0029 E004 0000 		.long	0x4e0
 2108 002d 6765 7455 		.string	"getUserSelectedInterface"
 2108      7365 7253 
 2108      656C 6563 
 2108      7465 6449 
 2108      6E74 6572 
 2109 0046 2F05 0000 		.long	0x52f
 2110 004a 636C 6561 		.string	"clearTimers"
 2110      7254 696D 
 2110      6572 7300 
 2111 0056 9C05 0000 		.long	0x59c
 2112 005a 636C 6561 		.string	"clearInterface"
 2112      7249 6E74 
 2112      6572 6661 
 2112      6365 00
 2113 0069 B005 0000 		.long	0x5b0
 2114 006d 6D61 696E 		.string	"main"
 2114      00
 2115 0072 C706 0000 		.long	0x6c7
 2116 0076 696E 7465 		.string	"interfaceCount"
 2116      7266 6163 
 2116      6543 6F75 
 2116      6E74 00
 2117 0085 D906 0000 		.long	0x6d9
 2118 0089 696E 7465 		.string	"interfaceReady"
 2118      7266 6163 
 2118      6552 6561 
 2118      6479 00
 2119 0098 EB06 0000 		.long	0x6eb
 2120 009c 494E 5445 		.string	"INTERFACE"
 2120      5246 4143 
 2120      4500 
 2121 00a6 0000 0000 		.long	0x0
 2122               		.section	.debug_aranges,"",@progbits
 2123 0000 1C00 0000 		.long	0x1c
 2124 0004 0200      		.word	0x2
 2125 0006 0000 0000 		.long	.Ldebug_info0
 2126 000a 04        		.byte	0x4
 2127 000b 00        		.byte	0x0
 2128 000c 0000      		.word	0x0
 2129 000e 0000      		.word	0x0
 2130 0010 0000 0000 		.long	.Ltext0
 2131 0014 1002 0000 		.long	.Letext0-.Ltext0
 2132 0018 0000 0000 		.long	0x0
 2133 001c 0000 0000 		.long	0x0
 2134               		.section	.debug_ranges,"",@progbits
 2135               	.Ldebug_ranges0:
 2136 0000 BE01 0000 		.long	.LBB24-.Ltext0
 2137 0004 C201 0000 		.long	.LBE24-.Ltext0
 2138 0008 F001 0000 		.long	.LBB31-.Ltext0
 2139 000c FA01 0000 		.long	.LBE31-.Ltext0
 2140 0010 0000 0000 		.long	0x0
 2141 0014 0000 0000 		.long	0x0
 2142 0018 BE01 0000 		.long	.LBB25-.Ltext0
 2143 001c C201 0000 		.long	.LBE25-.Ltext0
 2144 0020 F001 0000 		.long	.LBB30-.Ltext0
GAS LISTING C:\Users\ADMINI~1\AppData\Local\Temp/ccMxZnbV.s 			page 39


 2145 0024 FA01 0000 		.long	.LBE30-.Ltext0
 2146 0028 0000 0000 		.long	0x0
 2147 002c 0000 0000 		.long	0x0
 2148 0030 BE01 0000 		.long	.LBB26-.Ltext0
 2149 0034 C201 0000 		.long	.LBE26-.Ltext0
 2150 0038 F001 0000 		.long	.LBB29-.Ltext0
 2151 003c F601 0000 		.long	.LBE29-.Ltext0
 2152 0040 0000 0000 		.long	0x0
 2153 0044 0000 0000 		.long	0x0
 2154               		.section	.debug_line
 2155 0000 3704 0000 		.long	.LELT0-.LSLT0
 2156               	.LSLT0:
 2157 0004 0200      		.word	0x2
 2158 0006 EF00 0000 		.long	.LELTP0-.LASLTP0
 2159               	.LASLTP0:
 2160 000a 01        		.byte	0x1
 2161 000b 01        		.byte	0x1
 2162 000c F6        		.byte	0xf6
 2163 000d F5        		.byte	0xf5
 2164 000e 0A        		.byte	0xa
 2165 000f 00        		.byte	0x0
 2166 0010 01        		.byte	0x1
 2167 0011 01        		.byte	0x1
 2168 0012 01        		.byte	0x1
 2169 0013 01        		.byte	0x1
 2170 0014 00        		.byte	0x0
 2171 0015 00        		.byte	0x0
 2172 0016 00        		.byte	0x0
 2173 0017 01        		.byte	0x1
 2174 0018 2E2E 2F61 		.ascii	"../avrlib"
 2174      7672 6C69 
 2174      62
 2175 0021 00        		.byte	0
 2176 0022 633A 2F77 		.ascii	"c:/winavr-20100110/lib/gcc/../../avr/include"
 2176      696E 6176 
 2176      722D 3230 
 2176      3130 3031 
 2176      3130 2F6C 
 2177 004e 00        		.byte	0
 2178 004f 633A 2F77 		.ascii	"c:/winavr-20100110/lib/gcc/../../avr/include/util"
 2178      696E 6176 
 2178      722D 3230 
 2178      3130 3031 
 2178      3130 2F6C 
 2179 0080 00        		.byte	0
 2180 0081 00        		.byte	0x0
 2181 0082 6B65 796D 		.string	"keymain.c"
 2181      6169 6E2E 
 2181      6300 
 2182 008c 00        		.uleb128 0x0
 2183 008d 00        		.uleb128 0x0
 2184 008e 00        		.uleb128 0x0
 2185 008f 7574 696C 		.string	"util/delay_basic.h"
 2185      2F64 656C 
 2185      6179 5F62 
 2185      6173 6963 
 2185      2E68 00
GAS LISTING C:\Users\ADMINI~1\AppData\Local\Temp/ccMxZnbV.s 			page 40


 2186 00a2 02        		.uleb128 0x2
 2187 00a3 00        		.uleb128 0x0
 2188 00a4 00        		.uleb128 0x0
 2189 00a5 7574 696C 		.string	"util/delay.h"
 2189      2F64 656C 
 2189      6179 2E68 
 2189      00
 2190 00b2 02        		.uleb128 0x2
 2191 00b3 00        		.uleb128 0x0
 2192 00b4 00        		.uleb128 0x0
 2193 00b5 7374 6469 		.string	"stdint.h"
 2193      6E74 2E68 
 2193      00
 2194 00be 02        		.uleb128 0x2
 2195 00bf 00        		.uleb128 0x0
 2196 00c0 00        		.uleb128 0x0
 2197 00c1 6B65 796D 		.string	"keymap.h"
 2197      6170 2E68 
 2197      00
 2198 00ca 00        		.uleb128 0x0
 2199 00cb 00        		.uleb128 0x0
 2200 00cc 00        		.uleb128 0x0
 2201 00cd 6B65 796D 		.string	"keymatrix.h"
 2201      6174 7269 
 2201      782E 6800 
 2202 00d9 00        		.uleb128 0x0
 2203 00da 00        		.uleb128 0x0
 2204 00db 00        		.uleb128 0x0
 2205 00dc 6176 726C 		.string	"avrlibtypes.h"
 2205      6962 7479 
 2205      7065 732E 
 2205      6800 
 2206 00ea 01        		.uleb128 0x1
 2207 00eb 00        		.uleb128 0x0
 2208 00ec 00        		.uleb128 0x0
 2209 00ed 7072 696E 		.string	"print.h"
 2209      742E 6800 
 2210 00f5 00        		.uleb128 0x0
 2211 00f6 00        		.uleb128 0x0
 2212 00f7 00        		.uleb128 0x0
 2213 00f8 00        		.byte	0x0
 2214               	.LELTP0:
 2215 00f9 00        		.byte	0x0
 2216 00fa 05        		.uleb128 0x5
 2217 00fb 02        		.byte	0x2
 2218 00fc 0000 0000 		.long	.LM1
 2219 0100 3F        		.byte	0x3f
 2220 0101 00        		.byte	0x0
 2221 0102 05        		.uleb128 0x5
 2222 0103 02        		.byte	0x2
 2223 0104 0000 0000 		.long	.LM2
 2224 0108 17        		.byte	0x17
 2225 0109 00        		.byte	0x0
 2226 010a 05        		.uleb128 0x5
 2227 010b 02        		.byte	0x2
 2228 010c 0000 0000 		.long	.LM3
 2229 0110 15        		.byte	0x15
GAS LISTING C:\Users\ADMINI~1\AppData\Local\Temp/ccMxZnbV.s 			page 41


 2230 0111 00        		.byte	0x0
 2231 0112 05        		.uleb128 0x5
 2232 0113 02        		.byte	0x2
 2233 0114 0000 0000 		.long	.LM4
 2234 0118 15        		.byte	0x15
 2235 0119 00        		.byte	0x0
 2236 011a 05        		.uleb128 0x5
 2237 011b 02        		.byte	0x2
 2238 011c 0000 0000 		.long	.LM5
 2239 0120 15        		.byte	0x15
 2240 0121 00        		.byte	0x0
 2241 0122 05        		.uleb128 0x5
 2242 0123 02        		.byte	0x2
 2243 0124 0000 0000 		.long	.LM6
 2244 0128 17        		.byte	0x17
 2245 0129 00        		.byte	0x0
 2246 012a 05        		.uleb128 0x5
 2247 012b 02        		.byte	0x2
 2248 012c 0000 0000 		.long	.LM7
 2249 0130 15        		.byte	0x15
 2250 0131 00        		.byte	0x0
 2251 0132 05        		.uleb128 0x5
 2252 0133 02        		.byte	0x2
 2253 0134 0000 0000 		.long	.LM8
 2254 0138 15        		.byte	0x15
 2255 0139 00        		.byte	0x0
 2256 013a 05        		.uleb128 0x5
 2257 013b 02        		.byte	0x2
 2258 013c 0000 0000 		.long	.LM9
 2259 0140 61        		.byte	0x61
 2260 0141 00        		.byte	0x0
 2261 0142 05        		.uleb128 0x5
 2262 0143 02        		.byte	0x2
 2263 0144 0000 0000 		.long	.LM10
 2264 0148 01        		.byte	0x1
 2265 0149 00        		.byte	0x0
 2266 014a 05        		.uleb128 0x5
 2267 014b 02        		.byte	0x2
 2268 014c 0000 0000 		.long	.LM11
 2269 0150 23        		.byte	0x23
 2270 0151 00        		.byte	0x0
 2271 0152 05        		.uleb128 0x5
 2272 0153 02        		.byte	0x2
 2273 0154 0000 0000 		.long	.LM12
 2274 0158 03        		.byte	0x3
 2275 0159 AD7F      		.sleb128 -83
 2276 015b 01        		.byte	0x1
 2277 015c 00        		.byte	0x0
 2278 015d 05        		.uleb128 0x5
 2279 015e 02        		.byte	0x2
 2280 015f 0000 0000 		.long	.LM13
 2281 0163 01        		.byte	0x1
 2282 0164 00        		.byte	0x0
 2283 0165 05        		.uleb128 0x5
 2284 0166 02        		.byte	0x2
 2285 0167 0000 0000 		.long	.LM14
 2286 016b 1A        		.byte	0x1a
GAS LISTING C:\Users\ADMINI~1\AppData\Local\Temp/ccMxZnbV.s 			page 42


 2287 016c 00        		.byte	0x0
 2288 016d 05        		.uleb128 0x5
 2289 016e 02        		.byte	0x2
 2290 016f 0000 0000 		.long	.LM15
 2291 0173 13        		.byte	0x13
 2292 0174 00        		.byte	0x0
 2293 0175 05        		.uleb128 0x5
 2294 0176 02        		.byte	0x2
 2295 0177 0000 0000 		.long	.LM16
 2296 017b 18        		.byte	0x18
 2297 017c 00        		.byte	0x0
 2298 017d 05        		.uleb128 0x5
 2299 017e 02        		.byte	0x2
 2300 017f 0000 0000 		.long	.LM17
 2301 0183 16        		.byte	0x16
 2302 0184 00        		.byte	0x0
 2303 0185 05        		.uleb128 0x5
 2304 0186 02        		.byte	0x2
 2305 0187 0000 0000 		.long	.LM18
 2306 018b 18        		.byte	0x18
 2307 018c 00        		.byte	0x0
 2308 018d 05        		.uleb128 0x5
 2309 018e 02        		.byte	0x2
 2310 018f 0000 0000 		.long	.LM19
 2311 0193 16        		.byte	0x16
 2312 0194 00        		.byte	0x0
 2313 0195 05        		.uleb128 0x5
 2314 0196 02        		.byte	0x2
 2315 0197 0000 0000 		.long	.LM20
 2316 019b 1A        		.byte	0x1a
 2317 019c 00        		.byte	0x0
 2318 019d 05        		.uleb128 0x5
 2319 019e 02        		.byte	0x2
 2320 019f 0000 0000 		.long	.LM21
 2321 01a3 26        		.byte	0x26
 2322 01a4 00        		.byte	0x0
 2323 01a5 05        		.uleb128 0x5
 2324 01a6 02        		.byte	0x2
 2325 01a7 0000 0000 		.long	.LM22
 2326 01ab 15        		.byte	0x15
 2327 01ac 00        		.byte	0x0
 2328 01ad 05        		.uleb128 0x5
 2329 01ae 02        		.byte	0x2
 2330 01af 0000 0000 		.long	.LM23
 2331 01b3 15        		.byte	0x15
 2332 01b4 00        		.byte	0x0
 2333 01b5 05        		.uleb128 0x5
 2334 01b6 02        		.byte	0x2
 2335 01b7 0000 0000 		.long	.LM24
 2336 01bb 15        		.byte	0x15
 2337 01bc 00        		.byte	0x0
 2338 01bd 05        		.uleb128 0x5
 2339 01be 02        		.byte	0x2
 2340 01bf 0000 0000 		.long	.LM25
 2341 01c3 15        		.byte	0x15
 2342 01c4 00        		.byte	0x0
 2343 01c5 05        		.uleb128 0x5
GAS LISTING C:\Users\ADMINI~1\AppData\Local\Temp/ccMxZnbV.s 			page 43


 2344 01c6 02        		.byte	0x2
 2345 01c7 0000 0000 		.long	.LM26
 2346 01cb 15        		.byte	0x15
 2347 01cc 00        		.byte	0x0
 2348 01cd 05        		.uleb128 0x5
 2349 01ce 02        		.byte	0x2
 2350 01cf 0000 0000 		.long	.LM27
 2351 01d3 16        		.byte	0x16
 2352 01d4 00        		.byte	0x0
 2353 01d5 05        		.uleb128 0x5
 2354 01d6 02        		.byte	0x2
 2355 01d7 0000 0000 		.long	.LM28
 2356 01db 15        		.byte	0x15
 2357 01dc 00        		.byte	0x0
 2358 01dd 05        		.uleb128 0x5
 2359 01de 02        		.byte	0x2
 2360 01df 0000 0000 		.long	.LM29
 2361 01e3 16        		.byte	0x16
 2362 01e4 00        		.byte	0x0
 2363 01e5 05        		.uleb128 0x5
 2364 01e6 02        		.byte	0x2
 2365 01e7 0000 0000 		.long	.LM30
 2366 01eb 16        		.byte	0x16
 2367 01ec 00        		.byte	0x0
 2368 01ed 05        		.uleb128 0x5
 2369 01ee 02        		.byte	0x2
 2370 01ef 0000 0000 		.long	.LM31
 2371 01f3 15        		.byte	0x15
 2372 01f4 00        		.byte	0x0
 2373 01f5 05        		.uleb128 0x5
 2374 01f6 02        		.byte	0x2
 2375 01f7 0000 0000 		.long	.LM32
 2376 01fb 17        		.byte	0x17
 2377 01fc 00        		.byte	0x0
 2378 01fd 05        		.uleb128 0x5
 2379 01fe 02        		.byte	0x2
 2380 01ff 0000 0000 		.long	.LM33
 2381 0203 16        		.byte	0x16
 2382 0204 00        		.byte	0x0
 2383 0205 05        		.uleb128 0x5
 2384 0206 02        		.byte	0x2
 2385 0207 0000 0000 		.long	.LM34
 2386 020b 03        		.byte	0x3
 2387 020c B47F      		.sleb128 -76
 2388 020e 01        		.byte	0x1
 2389 020f 00        		.byte	0x0
 2390 0210 05        		.uleb128 0x5
 2391 0211 02        		.byte	0x2
 2392 0212 0000 0000 		.long	.LM35
 2393 0216 15        		.byte	0x15
 2394 0217 00        		.byte	0x0
 2395 0218 05        		.uleb128 0x5
 2396 0219 02        		.byte	0x2
 2397 021a 0000 0000 		.long	.LM36
 2398 021e 19        		.byte	0x19
 2399 021f 00        		.byte	0x0
 2400 0220 05        		.uleb128 0x5
GAS LISTING C:\Users\ADMINI~1\AppData\Local\Temp/ccMxZnbV.s 			page 44


 2401 0221 02        		.byte	0x2
 2402 0222 0000 0000 		.long	.LM37
 2403 0226 15        		.byte	0x15
 2404 0227 00        		.byte	0x0
 2405 0228 05        		.uleb128 0x5
 2406 0229 02        		.byte	0x2
 2407 022a 0000 0000 		.long	.LM38
 2408 022e 17        		.byte	0x17
 2409 022f 00        		.byte	0x0
 2410 0230 05        		.uleb128 0x5
 2411 0231 02        		.byte	0x2
 2412 0232 0000 0000 		.long	.LM39
 2413 0236 15        		.byte	0x15
 2414 0237 00        		.byte	0x0
 2415 0238 05        		.uleb128 0x5
 2416 0239 02        		.byte	0x2
 2417 023a 0000 0000 		.long	.LM40
 2418 023e 15        		.byte	0x15
 2419 023f 00        		.byte	0x0
 2420 0240 05        		.uleb128 0x5
 2421 0241 02        		.byte	0x2
 2422 0242 0000 0000 		.long	.LM41
 2423 0246 15        		.byte	0x15
 2424 0247 00        		.byte	0x0
 2425 0248 05        		.uleb128 0x5
 2426 0249 02        		.byte	0x2
 2427 024a 0000 0000 		.long	.LM42
 2428 024e 15        		.byte	0x15
 2429 024f 00        		.byte	0x0
 2430 0250 05        		.uleb128 0x5
 2431 0251 02        		.byte	0x2
 2432 0252 0000 0000 		.long	.LM43
 2433 0256 15        		.byte	0x15
 2434 0257 00        		.byte	0x0
 2435 0258 05        		.uleb128 0x5
 2436 0259 02        		.byte	0x2
 2437 025a 0000 0000 		.long	.LM44
 2438 025e 6B        		.byte	0x6b
 2439 025f 00        		.byte	0x0
 2440 0260 05        		.uleb128 0x5
 2441 0261 02        		.byte	0x2
 2442 0262 0000 0000 		.long	.LM45
 2443 0266 18        		.byte	0x18
 2444 0267 00        		.byte	0x0
 2445 0268 05        		.uleb128 0x5
 2446 0269 02        		.byte	0x2
 2447 026a 0000 0000 		.long	.LM46
 2448 026e 1A        		.byte	0x1a
 2449 026f 00        		.byte	0x0
 2450 0270 05        		.uleb128 0x5
 2451 0271 02        		.byte	0x2
 2452 0272 0000 0000 		.long	.LM47
 2453 0276 15        		.byte	0x15
 2454 0277 00        		.byte	0x0
 2455 0278 05        		.uleb128 0x5
 2456 0279 02        		.byte	0x2
 2457 027a 0000 0000 		.long	.LM48
GAS LISTING C:\Users\ADMINI~1\AppData\Local\Temp/ccMxZnbV.s 			page 45


 2458 027e 15        		.byte	0x15
 2459 027f 00        		.byte	0x0
 2460 0280 05        		.uleb128 0x5
 2461 0281 02        		.byte	0x2
 2462 0282 0000 0000 		.long	.LM49
 2463 0286 15        		.byte	0x15
 2464 0287 00        		.byte	0x0
 2465 0288 05        		.uleb128 0x5
 2466 0289 02        		.byte	0x2
 2467 028a 0000 0000 		.long	.LM50
 2468 028e 15        		.byte	0x15
 2469 028f 00        		.byte	0x0
 2470 0290 05        		.uleb128 0x5
 2471 0291 02        		.byte	0x2
 2472 0292 0000 0000 		.long	.LM51
 2473 0296 15        		.byte	0x15
 2474 0297 00        		.byte	0x0
 2475 0298 05        		.uleb128 0x5
 2476 0299 02        		.byte	0x2
 2477 029a 0000 0000 		.long	.LM52
 2478 029e 16        		.byte	0x16
 2479 029f 00        		.byte	0x0
 2480 02a0 05        		.uleb128 0x5
 2481 02a1 02        		.byte	0x2
 2482 02a2 0000 0000 		.long	.LM53
 2483 02a6 15        		.byte	0x15
 2484 02a7 00        		.byte	0x0
 2485 02a8 05        		.uleb128 0x5
 2486 02a9 02        		.byte	0x2
 2487 02aa 0000 0000 		.long	.LM54
 2488 02ae 15        		.byte	0x15
 2489 02af 00        		.byte	0x0
 2490 02b0 05        		.uleb128 0x5
 2491 02b1 02        		.byte	0x2
 2492 02b2 0000 0000 		.long	.LM55
 2493 02b6 17        		.byte	0x17
 2494 02b7 00        		.byte	0x0
 2495 02b8 05        		.uleb128 0x5
 2496 02b9 02        		.byte	0x2
 2497 02ba 0000 0000 		.long	.LM56
 2498 02be 25        		.byte	0x25
 2499 02bf 00        		.byte	0x0
 2500 02c0 05        		.uleb128 0x5
 2501 02c1 02        		.byte	0x2
 2502 02c2 0000 0000 		.long	.LM57
 2503 02c6 15        		.byte	0x15
 2504 02c7 00        		.byte	0x0
 2505 02c8 05        		.uleb128 0x5
 2506 02c9 02        		.byte	0x2
 2507 02ca 0000 0000 		.long	.LM58
 2508 02ce 15        		.byte	0x15
 2509 02cf 00        		.byte	0x0
 2510 02d0 05        		.uleb128 0x5
 2511 02d1 02        		.byte	0x2
 2512 02d2 0000 0000 		.long	.LM59
 2513 02d6 16        		.byte	0x16
 2514 02d7 00        		.byte	0x0
GAS LISTING C:\Users\ADMINI~1\AppData\Local\Temp/ccMxZnbV.s 			page 46


 2515 02d8 05        		.uleb128 0x5
 2516 02d9 02        		.byte	0x2
 2517 02da 0000 0000 		.long	.LM60
 2518 02de 15        		.byte	0x15
 2519 02df 00        		.byte	0x0
 2520 02e0 05        		.uleb128 0x5
 2521 02e1 02        		.byte	0x2
 2522 02e2 0000 0000 		.long	.LM61
 2523 02e6 16        		.byte	0x16
 2524 02e7 00        		.byte	0x0
 2525 02e8 05        		.uleb128 0x5
 2526 02e9 02        		.byte	0x2
 2527 02ea 0000 0000 		.long	.LM62
 2528 02ee 15        		.byte	0x15
 2529 02ef 00        		.byte	0x0
 2530 02f0 05        		.uleb128 0x5
 2531 02f1 02        		.byte	0x2
 2532 02f2 0000 0000 		.long	.LM63
 2533 02f6 16        		.byte	0x16
 2534 02f7 00        		.byte	0x0
 2535 02f8 05        		.uleb128 0x5
 2536 02f9 02        		.byte	0x2
 2537 02fa 0000 0000 		.long	.LM64
 2538 02fe 03        		.byte	0x3
 2539 02ff 72        		.sleb128 -14
 2540 0300 01        		.byte	0x1
 2541 0301 00        		.byte	0x0
 2542 0302 05        		.uleb128 0x5
 2543 0303 02        		.byte	0x2
 2544 0304 0000 0000 		.long	.LM65
 2545 0308 12        		.byte	0x12
 2546 0309 00        		.byte	0x0
 2547 030a 05        		.uleb128 0x5
 2548 030b 02        		.byte	0x2
 2549 030c 0000 0000 		.long	.LM66
 2550 0310 18        		.byte	0x18
 2551 0311 00        		.byte	0x0
 2552 0312 05        		.uleb128 0x5
 2553 0313 02        		.byte	0x2
 2554 0314 0000 0000 		.long	.LM67
 2555 0318 29        		.byte	0x29
 2556 0319 00        		.byte	0x0
 2557 031a 05        		.uleb128 0x5
 2558 031b 02        		.byte	0x2
 2559 031c 0000 0000 		.long	.LM68
 2560 0320 15        		.byte	0x15
 2561 0321 00        		.byte	0x0
 2562 0322 05        		.uleb128 0x5
 2563 0323 02        		.byte	0x2
 2564 0324 0000 0000 		.long	.LM69
 2565 0328 19        		.byte	0x19
 2566 0329 00        		.byte	0x0
 2567 032a 05        		.uleb128 0x5
 2568 032b 02        		.byte	0x2
 2569 032c 0000 0000 		.long	.LM70
 2570 0330 15        		.byte	0x15
 2571 0331 00        		.byte	0x0
GAS LISTING C:\Users\ADMINI~1\AppData\Local\Temp/ccMxZnbV.s 			page 47


 2572 0332 05        		.uleb128 0x5
 2573 0333 02        		.byte	0x2
 2574 0334 0000 0000 		.long	.LM71
 2575 0338 16        		.byte	0x16
 2576 0339 00        		.byte	0x0
 2577 033a 05        		.uleb128 0x5
 2578 033b 02        		.byte	0x2
 2579 033c 0000 0000 		.long	.LM72
 2580 0340 15        		.byte	0x15
 2581 0341 00        		.byte	0x0
 2582 0342 05        		.uleb128 0x5
 2583 0343 02        		.byte	0x2
 2584 0344 0000 0000 		.long	.LM73
 2585 0348 17        		.byte	0x17
 2586 0349 00        		.byte	0x0
 2587 034a 05        		.uleb128 0x5
 2588 034b 02        		.byte	0x2
 2589 034c 0000 0000 		.long	.LM74
 2590 0350 19        		.byte	0x19
 2591 0351 00        		.byte	0x0
 2592 0352 05        		.uleb128 0x5
 2593 0353 02        		.byte	0x2
 2594 0354 0000 0000 		.long	.LM75
 2595 0358 15        		.byte	0x15
 2596 0359 00        		.byte	0x0
 2597 035a 05        		.uleb128 0x5
 2598 035b 02        		.byte	0x2
 2599 035c 0000 0000 		.long	.LM76
 2600 0360 19        		.byte	0x19
 2601 0361 00        		.byte	0x0
 2602 0362 05        		.uleb128 0x5
 2603 0363 02        		.byte	0x2
 2604 0364 0000 0000 		.long	.LM77
 2605 0368 1F        		.byte	0x1f
 2606 0369 00        		.byte	0x0
 2607 036a 05        		.uleb128 0x5
 2608 036b 02        		.byte	0x2
 2609 036c 0000 0000 		.long	.LM78
 2610 0370 15        		.byte	0x15
 2611 0371 00        		.byte	0x0
 2612 0372 05        		.uleb128 0x5
 2613 0373 02        		.byte	0x2
 2614 0374 0000 0000 		.long	.LM79
 2615 0378 15        		.byte	0x15
 2616 0379 00        		.byte	0x0
 2617 037a 05        		.uleb128 0x5
 2618 037b 02        		.byte	0x2
 2619 037c 0000 0000 		.long	.LM80
 2620 0380 15        		.byte	0x15
 2621 0381 00        		.byte	0x0
 2622 0382 05        		.uleb128 0x5
 2623 0383 02        		.byte	0x2
 2624 0384 0000 0000 		.long	.LM81
 2625 0388 1C        		.byte	0x1c
 2626 0389 00        		.byte	0x0
 2627 038a 05        		.uleb128 0x5
 2628 038b 02        		.byte	0x2
GAS LISTING C:\Users\ADMINI~1\AppData\Local\Temp/ccMxZnbV.s 			page 48


 2629 038c 0000 0000 		.long	.LM82
 2630 0390 15        		.byte	0x15
 2631 0391 00        		.byte	0x0
 2632 0392 05        		.uleb128 0x5
 2633 0393 02        		.byte	0x2
 2634 0394 0000 0000 		.long	.LM83
 2635 0398 15        		.byte	0x15
 2636 0399 00        		.byte	0x0
 2637 039a 05        		.uleb128 0x5
 2638 039b 02        		.byte	0x2
 2639 039c 0000 0000 		.long	.LM84
 2640 03a0 15        		.byte	0x15
 2641 03a1 00        		.byte	0x0
 2642 03a2 05        		.uleb128 0x5
 2643 03a3 02        		.byte	0x2
 2644 03a4 0000 0000 		.long	.LM85
 2645 03a8 1B        		.byte	0x1b
 2646 03a9 00        		.byte	0x0
 2647 03aa 05        		.uleb128 0x5
 2648 03ab 02        		.byte	0x2
 2649 03ac 0000 0000 		.long	.LM86
 2650 03b0 17        		.byte	0x17
 2651 03b1 00        		.byte	0x0
 2652 03b2 05        		.uleb128 0x5
 2653 03b3 02        		.byte	0x2
 2654 03b4 0000 0000 		.long	.LM87
 2655 03b8 04        		.byte	0x4
 2656 03b9 02        		.uleb128 0x2
 2657 03ba 03        		.byte	0x3
 2658 03bb DF7E      		.sleb128 -161
 2659 03bd 01        		.byte	0x1
 2660 03be 00        		.byte	0x0
 2661 03bf 05        		.uleb128 0x5
 2662 03c0 02        		.byte	0x2
 2663 03c1 0000 0000 		.long	.LM88
 2664 03c5 04        		.byte	0x4
 2665 03c6 01        		.uleb128 0x1
 2666 03c7 BD        		.byte	0xbd
 2667 03c8 00        		.byte	0x0
 2668 03c9 05        		.uleb128 0x5
 2669 03ca 02        		.byte	0x2
 2670 03cb 0000 0000 		.long	.LM89
 2671 03cf 15        		.byte	0x15
 2672 03d0 00        		.byte	0x0
 2673 03d1 05        		.uleb128 0x5
 2674 03d2 02        		.byte	0x2
 2675 03d3 0000 0000 		.long	.LM90
 2676 03d7 15        		.byte	0x15
 2677 03d8 00        		.byte	0x0
 2678 03d9 05        		.uleb128 0x5
 2679 03da 02        		.byte	0x2
 2680 03db 0000 0000 		.long	.LM91
 2681 03df 16        		.byte	0x16
 2682 03e0 00        		.byte	0x0
 2683 03e1 05        		.uleb128 0x5
 2684 03e2 02        		.byte	0x2
 2685 03e3 0000 0000 		.long	.LM92
GAS LISTING C:\Users\ADMINI~1\AppData\Local\Temp/ccMxZnbV.s 			page 49


 2686 03e7 17        		.byte	0x17
 2687 03e8 00        		.byte	0x0
 2688 03e9 05        		.uleb128 0x5
 2689 03ea 02        		.byte	0x2
 2690 03eb 0000 0000 		.long	.LM93
 2691 03ef 15        		.byte	0x15
 2692 03f0 00        		.byte	0x0
 2693 03f1 05        		.uleb128 0x5
 2694 03f2 02        		.byte	0x2
 2695 03f3 0000 0000 		.long	.LM94
 2696 03f7 04        		.byte	0x4
 2697 03f8 02        		.uleb128 0x2
 2698 03f9 03        		.byte	0x3
 2699 03fa CF7E      		.sleb128 -177
 2700 03fc 01        		.byte	0x1
 2701 03fd 00        		.byte	0x0
 2702 03fe 05        		.uleb128 0x5
 2703 03ff 02        		.byte	0x2
 2704 0400 0000 0000 		.long	.LM95
 2705 0404 04        		.byte	0x4
 2706 0405 03        		.uleb128 0x3
 2707 0406 27        		.byte	0x27
 2708 0407 00        		.byte	0x0
 2709 0408 05        		.uleb128 0x5
 2710 0409 02        		.byte	0x2
 2711 040a 0000 0000 		.long	.LM96
 2712 040e 10        		.byte	0x10
 2713 040f 00        		.byte	0x0
 2714 0410 05        		.uleb128 0x5
 2715 0411 02        		.byte	0x2
 2716 0412 0000 0000 		.long	.LM97
 2717 0416 04        		.byte	0x4
 2718 0417 01        		.uleb128 0x1
 2719 0418 B8        		.byte	0xb8
 2720 0419 00        		.byte	0x0
 2721 041a 05        		.uleb128 0x5
 2722 041b 02        		.byte	0x2
 2723 041c 0000 0000 		.long	.LM98
 2724 0420 16        		.byte	0x16
 2725 0421 00        		.byte	0x0
 2726 0422 05        		.uleb128 0x5
 2727 0423 02        		.byte	0x2
 2728 0424 0000 0000 		.long	.LM99
 2729 0428 15        		.byte	0x15
 2730 0429 00        		.byte	0x0
 2731 042a 05        		.uleb128 0x5
 2732 042b 02        		.byte	0x2
 2733 042c 0000 0000 		.long	.LM100
 2734 0430 16        		.byte	0x16
 2735 0431 00        		.byte	0x0
 2736 0432 05        		.uleb128 0x5
 2737 0433 02        		.byte	0x2
 2738 0434 0000 0000 		.long	.Letext0
 2739 0438 00        		.byte	0x0
 2740 0439 01        		.uleb128 0x1
 2741 043a 01        		.byte	0x1
 2742               	.LELT0:
GAS LISTING C:\Users\ADMINI~1\AppData\Local\Temp/ccMxZnbV.s 			page 50


 2743 043b 1600 0000 		.section	.debug_str,"MS",@progbits,1
 2743      0200 1000 
 2743      0000 0101 
 2743      FB0E 0A00 
 2743      0101 0101 
 2744               	.LASF116:
 2745 0000 4B45 595F 		.string	"KEY_LSHIFT"
 2745      4C53 4849 
 2745      4654 00
 2746               	.LASF68:
 2747 000b 4B45 595F 		.string	"KEY_SLASH"
 2747      534C 4153 
 2747      4800 
 2748               	.LASF139:
 2749 0015 4B45 595F 		.string	"KEY_PLAY"
 2749      504C 4159 
 2749      00
 2750               	.LASF95:
 2751 001e 4B45 595F 		.string	"KEY_NUMLOCK"
 2751      4E55 4D4C 
 2751      4F43 4B00 
 2752               	.LASF147:
 2753 002a 4B45 595F 		.string	"KEY_REC"
 2753      5245 4300 
 2754               	.LASF179:
 2755 0032 6B65 796D 		.string	"keymap_code"
 2755      6170 5F63 
 2755      6F64 6500 
 2756               	.LASF177:
 2757 003e 5F5F 6164 		.string	"__addr16"
 2757      6472 3136 
 2757      00
 2758               	.LASF115:
 2759 0047 4B45 595F 		.string	"KEY_LCTRL"
 2759      4C43 5452 
 2759      4C00 
 2760               	.LASF79:
 2761 0051 4B45 595F 		.string	"KEY_F10"
 2761      4631 3000 
 2762               	.LASF80:
 2763 0059 4B45 595F 		.string	"KEY_F11"
 2763      4631 3100 
 2764               	.LASF81:
 2765 0061 4B45 595F 		.string	"KEY_F12"
 2765      4631 3200 
 2766               	.LASF182:
 2767 0069 494E 5445 		.string	"INTERFACE"
 2767      5246 4143 
 2767      4500 
 2768               	.LASF111:
 2769 0073 4B45 595F 		.string	"KEY_KP_DOT"
 2769      4B50 5F44 
 2769      4F54 00
 2770               	.LASF138:
 2771 007e 4B45 595F 		.string	"KEY_STOP"
 2771      5354 4F50 
 2771      00
GAS LISTING C:\Users\ADMINI~1\AppData\Local\Temp/ccMxZnbV.s 			page 51


 2772               	.LASF186:
 2773 0087 443A 5C67 		.string	"D:\\git2\\ps2avrU\\.git\\source"
 2773      6974 325C 
 2773      7073 3261 
 2773      7672 555C 
 2773      2E67 6974 
 2774               	.LASF89:
 2775 00a3 4B45 595F 		.string	"KEY_END"
 2775      454E 4400 
 2776               	.LASF6:
 2777 00ab 6C6F 6E67 		.string	"long long unsigned int"
 2777      206C 6F6E 
 2777      6720 756E 
 2777      7369 676E 
 2777      6564 2069 
 2778               	.LASF189:
 2779 00c2 696E 6974 		.string	"initHardware"
 2779      4861 7264 
 2779      7761 7265 
 2779      00
 2780               	.LASF54:
 2781 00cf 4B45 595F 		.string	"KEY_BKSP"
 2781      424B 5350 
 2781      00
 2782               	.LASF88:
 2783 00d8 4B45 595F 		.string	"KEY_DEL"
 2783      4445 4C00 
 2784               	.LASF168:
 2785 00e0 7849 7355 		.string	"xIsUSB"
 2785      5342 00
 2786               	.LASF167:
 2787 00e7 7573 6572 		.string	"userInterface"
 2787      496E 7465 
 2787      7266 6163 
 2787      6500 
 2788               	.LASF137:
 2789 00f5 4B45 595F 		.string	"KEY_PREV_TRK"
 2789      5052 4556 
 2789      5F54 524B 
 2789      00
 2790               	.LASF63:
 2791 0102 4B45 595F 		.string	"KEY_COLON"
 2791      434F 4C4F 
 2791      4E00 
 2792               	.LASF125:
 2793 010c 4B45 595F 		.string	"KEY_POWER"
 2793      504F 5745 
 2793      5200 
 2794               	.LASF13:
 2795 0116 4B45 595F 		.string	"KEY_ErrorRollOver"
 2795      4572 726F 
 2795      7252 6F6C 
 2795      6C4F 7665 
 2795      7200 
 2796               	.LASF143:
 2797 0128 4B45 595F 		.string	"KEY_MEDIA"
 2797      4D45 4449 
GAS LISTING C:\Users\ADMINI~1\AppData\Local\Temp/ccMxZnbV.s 			page 52


 2797      4100 
 2798               	.LASF7:
 2799 0132 6C6F 6E67 		.string	"long long int"
 2799      206C 6F6E 
 2799      6720 696E 
 2799      7400 
 2800               	.LASF1:
 2801 0140 7369 676E 		.string	"signed char"
 2801      6564 2063 
 2801      6861 7200 
 2802               	.LASF98:
 2803 014c 4B45 595F 		.string	"KEY_KP_MINUS"
 2803      4B50 5F4D 
 2803      494E 5553 
 2803      00
 2804               	.LASF141:
 2805 0159 4B45 595F 		.string	"KEY_VOL_UP"
 2805      564F 4C5F 
 2805      5550 00
 2806               	.LASF60:
 2807 0164 4B45 595F 		.string	"KEY_RBR"
 2807      5242 5200 
 2808               	.LASF135:
 2809 016c 4B45 595F 		.string	"KEY_WWW_FAVORITE"
 2809      5757 575F 
 2809      4641 564F 
 2809      5249 5445 
 2809      00
 2810               	.LASF5:
 2811 017d 6C6F 6E67 		.string	"long int"
 2811      2069 6E74 
 2811      00
 2812               	.LASF131:
 2813 0186 4B45 595F 		.string	"KEY_WWW_BACK"
 2813      5757 575F 
 2813      4241 434B 
 2813      00
 2814               	.LASF62:
 2815 0193 4B45 595F 		.string	"KEY_Europe1"
 2815      4575 726F 
 2815      7065 3100 
 2816               	.LASF112:
 2817 019f 4B45 595F 		.string	"KEY_Europe2"
 2817      4575 726F 
 2817      7065 3200 
 2818               	.LASF96:
 2819 01ab 4B45 595F 		.string	"KEY_KP_SLASH"
 2819      4B50 5F53 
 2819      4C41 5348 
 2819      00
 2820               	.LASF91:
 2821 01b8 4B45 595F 		.string	"KEY_RIGHT"
 2821      5249 4748 
 2821      5400 
 2822               	.LASF160:
 2823 01c2 5F5F 636F 		.string	"__count"
 2823      756E 7400 
GAS LISTING C:\Users\ADMINI~1\AppData\Local\Temp/ccMxZnbV.s 			page 53


 2824               	.LASF65:
 2825 01ca 4B45 595F 		.string	"KEY_HASH"
 2825      4841 5348 
 2825      00
 2826               	.LASF121:
 2827 01d3 4B45 595F 		.string	"KEY_RALT"
 2827      5241 4C54 
 2827      00
 2828               	.LASF11:
 2829 01dc 7569 6E74 		.string	"uint16_t"
 2829      3136 5F74 
 2829      00
 2830               	.LASF164:
 2831 01e5 646F 7562 		.string	"double"
 2831      6C65 00
 2832               	.LASF134:
 2833 01ec 4B45 595F 		.string	"KEY_WWW_REFRESH"
 2833      5757 575F 
 2833      5245 4652 
 2833      4553 4800 
 2834               	.LASF178:
 2835 01fc 5F5F 7265 		.string	"__result"
 2835      7375 6C74 
 2835      00
 2836               	.LASF59:
 2837 0205 4B45 595F 		.string	"KEY_LBR"
 2837      4C42 5200 
 2838               	.LASF169:
 2839 020d 6765 7455 		.string	"getUserSelectedInterface"
 2839      7365 7253 
 2839      656C 6563 
 2839      7465 6449 
 2839      6E74 6572 
 2840               	.LASF85:
 2841 0226 4B45 595F 		.string	"KEY_INSERT"
 2841      494E 5345 
 2841      5254 00
 2842               	.LASF163:
 2843 0231 5F5F 746D 		.string	"__tmp"
 2843      7000 
 2844               	.LASF184:
 2845 0237 474E 5520 		.string	"GNU C 4.3.3"
 2845      4320 342E 
 2845      332E 3300 
 2846               	.LASF82:
 2847 0243 4B45 595F 		.string	"KEY_PRNSCR"
 2847      5052 4E53 
 2847      4352 00
 2848               	.LASF90:
 2849 024e 4B45 595F 		.string	"KEY_PGDN"
 2849      5047 444E 
 2849      00
 2850               	.LASF122:
 2851 0257 4B45 595F 		.string	"KEY_RGUI"
 2851      5247 5549 
 2851      00
 2852               	.LASF130:
GAS LISTING C:\Users\ADMINI~1\AppData\Local\Temp/ccMxZnbV.s 			page 54


 2853 0260 4B45 595F 		.string	"KEY_WWW_HOME"
 2853      5757 575F 
 2853      484F 4D45 
 2853      00
 2854               	.LASF157:
 2855 026d 7365 7455 		.string	"setUsbOff"
 2855      7362 4F66 
 2855      6600 
 2856               	.LASF187:
 2857 0277 656E 6162 		.string	"enable_printf"
 2857      6C65 5F70 
 2857      7269 6E74 
 2857      6600 
 2858               	.LASF8:
 2859 0285 756E 7369 		.string	"unsigned int"
 2859      676E 6564 
 2859      2069 6E74 
 2859      00
 2860               	.LASF120:
 2861 0292 4B45 595F 		.string	"KEY_RSHIFT"
 2861      5253 4849 
 2861      4654 00
 2862               	.LASF83:
 2863 029d 4B45 595F 		.string	"KEY_SCRLCK"
 2863      5343 524C 
 2863      434B 00
 2864               	.LASF4:
 2865 02a8 6C6F 6E67 		.string	"long unsigned int"
 2865      2075 6E73 
 2865      6967 6E65 
 2865      6420 696E 
 2865      7400 
 2866               	.LASF154:
 2867 02ba 4B45 595F 		.string	"KEY_HANGLE"
 2867      4841 4E47 
 2867      4C45 00
 2868               	.LASF64:
 2869 02c5 4B45 595F 		.string	"KEY_QUOTE"
 2869      5155 4F54 
 2869      4500 
 2870               	.LASF159:
 2871 02cf 5F64 656C 		.string	"_delay_ms"
 2871      6179 5F6D 
 2871      7300 
 2872               	.LASF12:
 2873 02d9 4B45 595F 		.string	"KEY_NONE"
 2873      4E4F 4E45 
 2873      00
 2874               	.LASF100:
 2875 02e2 4B45 595F 		.string	"KEY_KP_ENTER"
 2875      4B50 5F45 
 2875      4E54 4552 
 2875      00
 2876               	.LASF92:
 2877 02ef 4B45 595F 		.string	"KEY_LEFT"
 2877      4C45 4654 
 2877      00
GAS LISTING C:\Users\ADMINI~1\AppData\Local\Temp/ccMxZnbV.s 			page 55


 2878               	.LASF99:
 2879 02f8 4B45 595F 		.string	"KEY_KP_PLUS"
 2879      4B50 5F50 
 2879      4C55 5300 
 2880               	.LASF2:
 2881 0304 7368 6F72 		.string	"short unsigned int"
 2881      7420 756E 
 2881      7369 676E 
 2881      6564 2069 
 2881      6E74 00
 2882               	.LASF69:
 2883 0317 4B45 595F 		.string	"KEY_CAPS"
 2883      4341 5053 
 2883      00
 2884               	.LASF161:
 2885 0320 5F5F 6D73 		.string	"__ms"
 2885      00
 2886               	.LASF190:
 2887 0325 636C 6561 		.string	"clearInterface"
 2887      7249 6E74 
 2887      6572 6661 
 2887      6365 00
 2888               	.LASF67:
 2889 0334 4B45 595F 		.string	"KEY_DOT"
 2889      444F 5400 
 2890               	.LASF181:
 2891 033c 696E 7465 		.string	"interfaceReady"
 2891      7266 6163 
 2891      6552 6561 
 2891      6479 00
 2892               	.LASF149:
 2893 034b 4B45 595F 		.string	"KEY_MINIMIZE"
 2893      4D49 4E49 
 2893      4D49 5A45 
 2893      00
 2894               	.LASF176:
 2895 0358 7072 6576 		.string	"prevPIND"
 2895      5049 4E44 
 2895      00
 2896               	.LASF56:
 2897 0361 4B45 595F 		.string	"KEY_SPACE"
 2897      5350 4143 
 2897      4500 
 2898               	.LASF126:
 2899 036b 4B45 595F 		.string	"KEY_SLEEP"
 2899      534C 4545 
 2899      5000 
 2900               	.LASF188:
 2901 0375 636C 6561 		.string	"clearTimers"
 2901      7254 696D 
 2901      6572 7300 
 2902               	.LASF174:
 2903 0381 6B65 7969 		.string	"keyidx"
 2903      6478 00
 2904               	.LASF151:
 2905 0388 4B45 595F 		.string	"KEY_Multimedia_end"
 2905      4D75 6C74 
GAS LISTING C:\Users\ADMINI~1\AppData\Local\Temp/ccMxZnbV.s 			page 56


 2905      696D 6564 
 2905      6961 5F65 
 2905      6E64 00
 2906               	.LASF15:
 2907 039b 4B45 595F 		.string	"KEY_ErrorUndefined"
 2907      4572 726F 
 2907      7255 6E64 
 2907      6566 696E 
 2907      6564 00
 2908               	.LASF133:
 2909 03ae 4B45 595F 		.string	"KEY_WWW_STOP"
 2909      5757 575F 
 2909      5354 4F50 
 2909      00
 2910               	.LASF175:
 2911 03bb 6465 626F 		.string	"debounce"
 2911      756E 6365 
 2911      00
 2912               	.LASF51:
 2913 03c4 4B45 595F 		.string	"KEY_0"
 2913      3000 
 2914               	.LASF42:
 2915 03ca 4B45 595F 		.string	"KEY_1"
 2915      3100 
 2916               	.LASF43:
 2917 03d0 4B45 595F 		.string	"KEY_2"
 2917      3200 
 2918               	.LASF44:
 2919 03d6 4B45 595F 		.string	"KEY_3"
 2919      3300 
 2920               	.LASF45:
 2921 03dc 4B45 595F 		.string	"KEY_4"
 2921      3400 
 2922               	.LASF46:
 2923 03e2 4B45 595F 		.string	"KEY_5"
 2923      3500 
 2924               	.LASF47:
 2925 03e8 4B45 595F 		.string	"KEY_6"
 2925      3600 
 2926               	.LASF48:
 2927 03ee 4B45 595F 		.string	"KEY_7"
 2927      3700 
 2928               	.LASF49:
 2929 03f4 4B45 595F 		.string	"KEY_8"
 2929      3800 
 2930               	.LASF50:
 2931 03fa 4B45 595F 		.string	"KEY_9"
 2931      3900 
 2932               	.LASF57:
 2933 0400 4B45 595F 		.string	"KEY_MINUS"
 2933      4D49 4E55 
 2933      5300 
 2934               	.LASF140:
 2935 040a 4B45 595F 		.string	"KEY_MUTE"
 2935      4D55 5445 
 2935      00
 2936               	.LASF127:
GAS LISTING C:\Users\ADMINI~1\AppData\Local\Temp/ccMxZnbV.s 			page 57


 2937 0413 4B45 595F 		.string	"KEY_WAKE"
 2937      5741 4B45 
 2937      00
 2938               	.LASF16:
 2939 041c 4B45 595F 		.string	"KEY_A"
 2939      4100 
 2940               	.LASF17:
 2941 0422 4B45 595F 		.string	"KEY_B"
 2941      4200 
 2942               	.LASF18:
 2943 0428 4B45 595F 		.string	"KEY_C"
 2943      4300 
 2944               	.LASF19:
 2945 042e 4B45 595F 		.string	"KEY_D"
 2945      4400 
 2946               	.LASF20:
 2947 0434 4B45 595F 		.string	"KEY_E"
 2947      4500 
 2948               	.LASF21:
 2949 043a 4B45 595F 		.string	"KEY_F"
 2949      4600 
 2950               	.LASF22:
 2951 0440 4B45 595F 		.string	"KEY_G"
 2951      4700 
 2952               	.LASF23:
 2953 0446 4B45 595F 		.string	"KEY_H"
 2953      4800 
 2954               	.LASF24:
 2955 044c 4B45 595F 		.string	"KEY_I"
 2955      4900 
 2956               	.LASF25:
 2957 0452 4B45 595F 		.string	"KEY_J"
 2957      4A00 
 2958               	.LASF26:
 2959 0458 4B45 595F 		.string	"KEY_K"
 2959      4B00 
 2960               	.LASF27:
 2961 045e 4B45 595F 		.string	"KEY_L"
 2961      4C00 
 2962               	.LASF28:
 2963 0464 4B45 595F 		.string	"KEY_M"
 2963      4D00 
 2964               	.LASF29:
 2965 046a 4B45 595F 		.string	"KEY_N"
 2965      4E00 
 2966               	.LASF30:
 2967 0470 4B45 595F 		.string	"KEY_O"
 2967      4F00 
 2968               	.LASF31:
 2969 0476 4B45 595F 		.string	"KEY_P"
 2969      5000 
 2970               	.LASF32:
 2971 047c 4B45 595F 		.string	"KEY_Q"
 2971      5100 
 2972               	.LASF33:
 2973 0482 4B45 595F 		.string	"KEY_R"
 2973      5200 
GAS LISTING C:\Users\ADMINI~1\AppData\Local\Temp/ccMxZnbV.s 			page 58


 2974               	.LASF34:
 2975 0488 4B45 595F 		.string	"KEY_S"
 2975      5300 
 2976               	.LASF35:
 2977 048e 4B45 595F 		.string	"KEY_T"
 2977      5400 
 2978               	.LASF36:
 2979 0494 4B45 595F 		.string	"KEY_U"
 2979      5500 
 2980               	.LASF37:
 2981 049a 4B45 595F 		.string	"KEY_V"
 2981      5600 
 2982               	.LASF38:
 2983 04a0 4B45 595F 		.string	"KEY_W"
 2983      5700 
 2984               	.LASF39:
 2985 04a6 4B45 595F 		.string	"KEY_X"
 2985      5800 
 2986               	.LASF40:
 2987 04ac 4B45 595F 		.string	"KEY_Y"
 2987      5900 
 2988               	.LASF41:
 2989 04b2 4B45 595F 		.string	"KEY_Z"
 2989      5A00 
 2990               	.LASF180:
 2991 04b8 696E 7465 		.string	"interfaceCount"
 2991      7266 6163 
 2991      6543 6F75 
 2991      6E74 00
 2992               	.LASF136:
 2993 04c7 4B45 595F 		.string	"KEY_NEXT_TRK"
 2993      4E45 5854 
 2993      5F54 524B 
 2993      00
 2994               	.LASF97:
 2995 04d4 4B45 595F 		.string	"KEY_KP_AST"
 2995      4B50 5F41 
 2995      5354 00
 2996               	.LASF142:
 2997 04df 4B45 595F 		.string	"KEY_VOL_DOWN"
 2997      564F 4C5F 
 2997      444F 574E 
 2997      00
 2998               	.LASF150:
 2999 04ec 4B45 595F 		.string	"KEY_EJECT"
 2999      454A 4543 
 2999      5400 
 3000               	.LASF123:
 3001 04f6 4B45 595F 		.string	"KEY_Modifiers_end"
 3001      4D6F 6469 
 3001      6669 6572 
 3001      735F 656E 
 3001      6400 
 3002               	.LASF158:
 3003 0508 5F64 656C 		.string	"_delay_loop_2"
 3003      6179 5F6C 
 3003      6F6F 705F 
GAS LISTING C:\Users\ADMINI~1\AppData\Local\Temp/ccMxZnbV.s 			page 59


 3003      3200 
 3004               	.LASF0:
 3005 0516 756E 7369 		.string	"unsigned char"
 3005      676E 6564 
 3005      2063 6861 
 3005      7200 
 3006               	.LASF146:
 3007 0524 4B45 595F 		.string	"KEY_SCREENSAVE"
 3007      5343 5245 
 3007      454E 5341 
 3007      5645 00
 3008               	.LASF155:
 3009 0533 4B45 595F 		.string	"KEY_extend_end"
 3009      6578 7465 
 3009      6E64 5F65 
 3009      6E64 00
 3010               	.LASF66:
 3011 0542 4B45 595F 		.string	"KEY_COMMA"
 3011      434F 4D4D 
 3011      4100 
 3012               	.LASF55:
 3013 054c 4B45 595F 		.string	"KEY_TAB"
 3013      5441 4200 
 3014               	.LASF3:
 3015 0554 7368 6F72 		.string	"short int"
 3015      7420 696E 
 3015      7400 
 3016               	.LASF183:
 3017 055e 6375 7272 		.string	"currentMatrix"
 3017      656E 744D 
 3017      6174 7269 
 3017      7800 
 3018               	.LASF166:
 3019 056c 636F 756E 		.string	"counter"
 3019      7465 7200 
 3020               	.LASF93:
 3021 0574 4B45 595F 		.string	"KEY_DOWN"
 3021      444F 574E 
 3021      00
 3022               	.LASF58:
 3023 057d 4B45 595F 		.string	"KEY_EQUAL"
 3023      4551 5541 
 3023      4C00 
 3024               	.LASF84:
 3025 0587 4B45 595F 		.string	"KEY_PAUSE"
 3025      5041 5553 
 3025      4500 
 3026               	.LASF101:
 3027 0591 4B45 595F 		.string	"KEY_KP_1"
 3027      4B50 5F31 
 3027      00
 3028               	.LASF102:
 3029 059a 4B45 595F 		.string	"KEY_KP_2"
 3029      4B50 5F32 
 3029      00
 3030               	.LASF103:
 3031 05a3 4B45 595F 		.string	"KEY_KP_3"
GAS LISTING C:\Users\ADMINI~1\AppData\Local\Temp/ccMxZnbV.s 			page 60


 3031      4B50 5F33 
 3031      00
 3032               	.LASF87:
 3033 05ac 4B45 595F 		.string	"KEY_PGUP"
 3033      5047 5550 
 3033      00
 3034               	.LASF14:
 3035 05b5 4B45 595F 		.string	"KEY_POSTFail"
 3035      504F 5354 
 3035      4661 696C 
 3035      00
 3036               	.LASF106:
 3037 05c2 4B45 595F 		.string	"KEY_KP_6"
 3037      4B50 5F36 
 3037      00
 3038               	.LASF107:
 3039 05cb 4B45 595F 		.string	"KEY_KP_7"
 3039      4B50 5F37 
 3039      00
 3040               	.LASF108:
 3041 05d4 4B45 595F 		.string	"KEY_KP_8"
 3041      4B50 5F38 
 3041      00
 3042               	.LASF52:
 3043 05dd 4B45 595F 		.string	"KEY_ENTER"
 3043      454E 5445 
 3043      5200 
 3044               	.LASF53:
 3045 05e7 4B45 595F 		.string	"KEY_ESC"
 3045      4553 4300 
 3046               	.LASF110:
 3047 05ef 4B45 595F 		.string	"KEY_KP_0"
 3047      4B50 5F30 
 3047      00
 3048               	.LASF171:
 3049 05f8 696E 744E 		.string	"intNum"
 3049      756D 00
 3050               	.LASF9:
 3051 05ff 6368 6172 		.string	"char"
 3051      00
 3052               	.LASF153:
 3053 0604 4B45 595F 		.string	"KEY_HANJA"
 3053      4841 4E4A 
 3053      4100 
 3054               	.LASF105:
 3055 060e 4B45 595F 		.string	"KEY_KP_5"
 3055      4B50 5F35 
 3055      00
 3056               	.LASF132:
 3057 0617 4B45 595F 		.string	"KEY_WWW_FORWARD"
 3057      5757 575F 
 3057      464F 5257 
 3057      4152 4400 
 3058               	.LASF109:
 3059 0627 4B45 595F 		.string	"KEY_KP_9"
 3059      4B50 5F39 
 3059      00
GAS LISTING C:\Users\ADMINI~1\AppData\Local\Temp/ccMxZnbV.s 			page 61


 3060               	.LASF104:
 3061 0630 4B45 595F 		.string	"KEY_KP_4"
 3061      4B50 5F34 
 3061      00
 3062               	.LASF128:
 3063 0639 4B45 595F 		.string	"KEY_EMAIL"
 3063      454D 4149 
 3063      4C00 
 3064               	.LASF165:
 3065 0643 7069 6E4E 		.string	"pinNumber"
 3065      756D 6265 
 3065      7200 
 3066               	.LASF119:
 3067 064d 4B45 595F 		.string	"KEY_RCTRL"
 3067      5243 5452 
 3067      4C00 
 3068               	.LASF61:
 3069 0657 4B45 595F 		.string	"KEY_BKSLASH"
 3069      424B 534C 
 3069      4153 4800 
 3070               	.LASF173:
 3071 0663 5F63 6F75 		.string	"_countDie"
 3071      6E74 4469 
 3071      6500 
 3072               	.LASF144:
 3073 066d 4B45 595F 		.string	"KEY_CALC"
 3073      4341 4C43 
 3073      00
 3074               	.LASF117:
 3075 0676 4B45 595F 		.string	"KEY_LALT"
 3075      4C41 4C54 
 3075      00
 3076               	.LASF70:
 3077 067f 4B45 595F 		.string	"KEY_F1"
 3077      4631 00
 3078               	.LASF71:
 3079 0686 4B45 595F 		.string	"KEY_F2"
 3079      4632 00
 3080               	.LASF72:
 3081 068d 4B45 595F 		.string	"KEY_F3"
 3081      4633 00
 3082               	.LASF73:
 3083 0694 4B45 595F 		.string	"KEY_F4"
 3083      4634 00
 3084               	.LASF74:
 3085 069b 4B45 595F 		.string	"KEY_F5"
 3085      4635 00
 3086               	.LASF75:
 3087 06a2 4B45 595F 		.string	"KEY_F6"
 3087      4636 00
 3088               	.LASF76:
 3089 06a9 4B45 595F 		.string	"KEY_F7"
 3089      4637 00
 3090               	.LASF77:
 3091 06b0 4B45 595F 		.string	"KEY_F8"
 3091      4638 00
 3092               	.LASF10:
GAS LISTING C:\Users\ADMINI~1\AppData\Local\Temp/ccMxZnbV.s 			page 62


 3093 06b7 7569 6E74 		.string	"uint8_t"
 3093      385F 7400 
 3094               	.LASF86:
 3095 06bf 4B45 595F 		.string	"KEY_HOME"
 3095      484F 4D45 
 3095      00
 3096               	.LASF148:
 3097 06c8 4B45 595F 		.string	"KEY_REWIND"
 3097      5245 5749 
 3097      4E44 00
 3098               	.LASF152:
 3099 06d3 4B45 595F 		.string	"KEY_extend"
 3099      6578 7465 
 3099      6E64 00
 3100               	.LASF113:
 3101 06de 4B45 595F 		.string	"KEY_APPS"
 3101      4150 5053 
 3101      00
 3102               	.LASF129:
 3103 06e7 4B45 595F 		.string	"KEY_WWW_SEARCH"
 3103      5757 575F 
 3103      5345 4152 
 3103      4348 00
 3104               	.LASF94:
 3105 06f6 4B45 595F 		.string	"KEY_UP"
 3105      5550 00
 3106               	.LASF145:
 3107 06fd 4B45 595F 		.string	"KEY_MYCOM"
 3107      4D59 434F 
 3107      4D00 
 3108               	.LASF78:
 3109 0707 4B45 595F 		.string	"KEY_F9"
 3109      4639 00
 3110               	.LASF118:
 3111 070e 4B45 595F 		.string	"KEY_LGUI"
 3111      4C47 5549 
 3111      00
 3112               	.LASF170:
 3113 0717 6D61 696E 		.string	"main"
 3113      00
 3114               	.LASF185:
 3115 071c 6B65 796D 		.string	"keymain.c"
 3115      6169 6E2E 
 3115      6300 
 3116               	.LASF172:
 3117 0726 636B 6563 		.string	"ckeckNeedInterface"
 3117      6B4E 6565 
 3117      6449 6E74 
 3117      6572 6661 
 3117      6365 00
 3118               	.LASF124:
 3119 0739 4B45 595F 		.string	"KEY_Multimedia"
 3119      4D75 6C74 
 3119      696D 6564 
 3119      6961 00
 3120               	.LASF114:
 3121 0748 4B45 595F 		.string	"KEY_Modifiers"
GAS LISTING C:\Users\ADMINI~1\AppData\Local\Temp/ccMxZnbV.s 			page 63


 3121      4D6F 6469 
 3121      6669 6572 
 3121      7300 
 3122               	.LASF156:
 3123 0756 7365 7455 		.string	"setUsbOn"
 3123      7362 4F6E 
 3123      00
 3124               	.LASF162:
 3125 075f 5F5F 7469 		.string	"__ticks"
 3125      636B 7300 
 3126               	.global __do_copy_data
 3127               	.global __do_clear_bss
GAS LISTING C:\Users\ADMINI~1\AppData\Local\Temp/ccMxZnbV.s 			page 64


DEFINED SYMBOLS
                            *ABS*:00000000 keymain.c
C:\Users\ADMINI~1\AppData\Local\Temp/ccMxZnbV.s:2      *ABS*:0000003f __SREG__
C:\Users\ADMINI~1\AppData\Local\Temp/ccMxZnbV.s:3      *ABS*:0000003e __SP_H__
C:\Users\ADMINI~1\AppData\Local\Temp/ccMxZnbV.s:4      *ABS*:0000003d __SP_L__
C:\Users\ADMINI~1\AppData\Local\Temp/ccMxZnbV.s:5      *ABS*:00000034 __CCP__
C:\Users\ADMINI~1\AppData\Local\Temp/ccMxZnbV.s:6      *ABS*:00000000 __tmp_reg__
C:\Users\ADMINI~1\AppData\Local\Temp/ccMxZnbV.s:7      *ABS*:00000001 __zero_reg__
C:\Users\ADMINI~1\AppData\Local\Temp/ccMxZnbV.s:18     .text:00000000 setUsbOn
C:\Users\ADMINI~1\AppData\Local\Temp/ccMxZnbV.s:34     .text:00000006 setUsbOff
C:\Users\ADMINI~1\AppData\Local\Temp/ccMxZnbV.s:50     .text:0000000c getUserSelectedInterface
C:\Users\ADMINI~1\AppData\Local\Temp/ccMxZnbV.s:73     .text:0000001e clearTimers
C:\Users\ADMINI~1\AppData\Local\Temp/ccMxZnbV.s:110    .text:00000044 initHardware
C:\Users\ADMINI~1\AppData\Local\Temp/ccMxZnbV.s:175    .text:0000007e clearInterface
C:\Users\ADMINI~1\AppData\Local\Temp/ccMxZnbV.s:519    .bss:00000000 interfaceCount
C:\Users\ADMINI~1\AppData\Local\Temp/ccMxZnbV.s:525    .bss:00000002 interfaceReady
C:\Users\ADMINI~1\AppData\Local\Temp/ccMxZnbV.s:200    .text:00000092 main
C:\Users\ADMINI~1\AppData\Local\Temp/ccMxZnbV.s:531    .data:00000000 INTERFACE

UNDEFINED SYMBOLS
timerDetach
_delay_us_m
clearLEDInited
getLiveMatrix
readyKeyMappingOnBoot
currentMatrix
keymap_code
__eewr_byte_m32
__eerd_byte_m32
usb_main
ps2_main
__do_copy_data
__do_clear_bss
