GAS LISTING C:\Users\ADMINI~1\AppData\Local\Temp/ccSP7hgy.s 			page 1


   1               		.file	"keymapper.c"
   2               	__SREG__ = 0x3f
   3               	__SP_H__ = 0x3e
   4               	__SP_L__ = 0x3d
   5               	__CCP__  = 0x34
   6               	__tmp_reg__ = 0
   7               	__zero_reg__ = 1
   8               		.section	.debug_abbrev,"",@progbits
   9               	.Ldebug_abbrev0:
  10               		.section	.debug_info,"",@progbits
  11               	.Ldebug_info0:
  12               		.section	.debug_line,"",@progbits
  13               	.Ldebug_line0:
  14               		.text
  15               	.Ltext0:
  16               	.global	setWillStartKeyMapping
  17               		.type	setWillStartKeyMapping, @function
  18               	setWillStartKeyMapping:
  19               	.LFB8:
  20               	.LM1:
  21               	/* prologue: function */
  22               	/* frame size = 0 */
  23               	.LM2:
  24 0000 8091 0000 		lds r24,_isKeyMapping
  25 0004 8160      		ori r24,lo8(1)
  26 0006 8093 0000 		sts _isKeyMapping,r24
  27               	/* epilogue start */
  28               	.LM3:
  29 000a 0895      		ret
  30               	.LFE8:
  31               		.size	setWillStartKeyMapping, .-setWillStartKeyMapping
  32               	.global	isKeyMapping
  33               		.type	isKeyMapping, @function
  34               	isKeyMapping:
  35               	.LFB9:
  36               	.LM4:
  37               	/* prologue: function */
  38               	/* frame size = 0 */
  39               	.LM5:
  40 000c 8091 0000 		lds r24,_isKeyMapping
  41               	.LM6:
  42 0010 8170      		andi r24,lo8(1)
  43               	/* epilogue start */
  44 0012 0895      		ret
  45               	.LFE9:
  46               		.size	isKeyMapping, .-isKeyMapping
  47               	.global	isDeepKeyMapping
  48               		.type	isDeepKeyMapping, @function
  49               	isDeepKeyMapping:
  50               	.LFB10:
  51               	.LM7:
  52               	/* prologue: function */
  53               	/* frame size = 0 */
  54               	.LM8:
  55 0014 8091 0000 		lds r24,_isKeyMapping
  56               	.LM9:
  57 0018 8270      		andi r24,lo8(2)
GAS LISTING C:\Users\ADMINI~1\AppData\Local\Temp/ccSP7hgy.s 			page 2


  58               	/* epilogue start */
  59 001a 0895      		ret
  60               	.LFE10:
  61               		.size	isDeepKeyMapping, .-isDeepKeyMapping
  62               	.global	applyKeyMapping
  63               		.type	applyKeyMapping, @function
  64               	applyKeyMapping:
  65               	.LFB11:
  66               	.LM10:
  67               	.LVL0:
  68               	/* prologue: function */
  69               	/* frame size = 0 */
  70 001c 982F      		mov r25,r24
  71               	.LM11:
  72 001e 8091 0000 		lds r24,_isKeyMapping
  73               	.LVL1:
  74 0022 80FD      		sbrc r24,0
  75 0024 00C0      		rjmp .L11
  76               	.LM12:
  77 0026 9730      		cpi r25,lo8(7)
  78 0028 01F4      		brne .L9
  79               	.LM13:
  80 002a 1092 0000 		sts (keyMappingCount)+1,__zero_reg__
  81 002e 1092 0000 		sts keyMappingCount,__zero_reg__
  82               	.LM14:
  83 0032 81E0      		ldi r24,lo8(1)
  84 0034 8093 0000 		sts enabledKeyMappingCount,r24
  85               	.LM15:
  86 0038 8091 0000 		lds r24,INTERFACE
  87 003c 8823      		tst r24
  88 003e 01F0      		breq .L10
  89 0040 8330      		cpi r24,lo8(3)
  90 0042 01F4      		brne .L11
  91               	.L10:
  92               	.LM16:
  93 0044 84EC      		ldi r24,lo8(2500)
  94 0046 99E0      		ldi r25,hi8(2500)
  95 0048 9093 0000 		sts (keyMappingCountMax)+1,r25
  96 004c 8093 0000 		sts keyMappingCountMax,r24
  97 0050 0895      		ret
  98               	.L9:
  99               	.LM17:
 100 0052 1092 0000 		sts _isKeyMapping,__zero_reg__
 101               	.LM18:
 102 0056 1092 0000 		sts enabledKeyMappingCount,__zero_reg__
 103               	.L11:
 104 005a 0895      		ret
 105               	.LFE11:
 106               		.size	applyKeyMapping, .-applyKeyMapping
 107               	.global	isReadyKeyMappingOnBoot
 108               		.type	isReadyKeyMappingOnBoot, @function
 109               	isReadyKeyMappingOnBoot:
 110               	.LFB14:
 111               	.LM19:
 112               	/* prologue: function */
 113               	/* frame size = 0 */
 114               	.LM20:
GAS LISTING C:\Users\ADMINI~1\AppData\Local\Temp/ccSP7hgy.s 			page 3


 115 005c 8091 0000 		lds r24,_keyMappingOnBoot
 116               	/* epilogue start */
 117 0060 0895      		ret
 118               	.LFE14:
 119               		.size	isReadyKeyMappingOnBoot, .-isReadyKeyMappingOnBoot
 120               	.global	readyKeyMappingOnBoot
 121               		.type	readyKeyMappingOnBoot, @function
 122               	readyKeyMappingOnBoot:
 123               	.LFB15:
 124               	.LM21:
 125               	/* prologue: function */
 126               	/* frame size = 0 */
 127               	.LM22:
 128 0062 81E0      		ldi r24,lo8(1)
 129 0064 8093 0000 		sts _keyMappingOnBoot,r24
 130               	/* epilogue start */
 131               	.LM23:
 132 0068 0895      		ret
 133               	.LFE15:
 134               		.size	readyKeyMappingOnBoot, .-readyKeyMappingOnBoot
 135               	.global	stopKeyMapping
 136               		.type	stopKeyMapping, @function
 137               	stopKeyMapping:
 138               	.LFB18:
 139               	.LM24:
 140               	/* prologue: function */
 141               	/* frame size = 0 */
 142               	.LM25:
 143 006a 1092 0000 		sts _isKeyMapping,__zero_reg__
 144               	.LM26:
 145 006e 1092 0000 		sts _wait,__zero_reg__
 146               	/* epilogue start */
 147               	.LM27:
 148 0072 0895      		ret
 149               	.LFE18:
 150               		.size	stopKeyMapping, .-stopKeyMapping
 151               	.global	isMacroKey
 152               		.type	isMacroKey, @function
 153               	isMacroKey:
 154               	.LFB23:
 155               	.LM28:
 156               	.LVL2:
 157               	/* prologue: function */
 158               	/* frame size = 0 */
 159               	.LM29:
 160 0074 90E0      		ldi r25,lo8(0)
 161 0076 895C      		subi r24,lo8(-(55))
 162               	.LVL3:
 163 0078 8C30      		cpi r24,lo8(12)
 164 007a 00F4      		brsh .L19
 165 007c 91E0      		ldi r25,lo8(1)
 166               	.L19:
 167               	.LM30:
 168 007e 892F      		mov r24,r25
 169               	/* epilogue start */
 170 0080 0895      		ret
 171               	.LFE23:
GAS LISTING C:\Users\ADMINI~1\AppData\Local\Temp/ccSP7hgy.s 			page 4


 172               		.size	isMacroKey, .-isMacroKey
 173               	.global	escapeMacroKeycode
 174               		.type	escapeMacroKeycode, @function
 175               	escapeMacroKeycode:
 176               	.LFB24:
 177               	.LM31:
 178               	.LVL4:
 179               	/* prologue: function */
 180               	/* frame size = 0 */
 181 0082 982F      		mov r25,r24
 182               	.LBB71:
 183               	.LBB72:
 184               	.LM32:
 185 0084 895C      		subi r24,lo8(-(55))
 186               	.LVL5:
 187 0086 8C30      		cpi r24,lo8(12)
 188 0088 00F4      		brsh .L22
 189 008a 90E0      		ldi r25,lo8(0)
 190               	.L22:
 191               	.LBE72:
 192               	.LBE71:
 193               	.LM33:
 194 008c 892F      		mov r24,r25
 195               	/* epilogue start */
 196 008e 0895      		ret
 197               	.LFE24:
 198               		.size	escapeMacroKeycode, .-escapeMacroKeycode
 199               		.type	printEnter, @function
 200               	printEnter:
 201               	.LFB27:
 202               	.LM34:
 203               	/* prologue: function */
 204               	/* frame size = 0 */
 205               	.LM35:
 206 0090 88E2      		ldi r24,lo8(40)
 207 0092 0E94 0000 		call pushM
 208               	.LM36:
 209 0096 88E2      		ldi r24,lo8(40)
 210 0098 0E94 0000 		call pushM
 211               	/* epilogue start */
 212               	.LM37:
 213 009c 0895      		ret
 214               	.LFE27:
 215               		.size	printEnter, .-printEnter
 216               	.global	resetMacroInput
 217               		.type	resetMacroInput, @function
 218               	resetMacroInput:
 219               	.LFB46:
 220               	.LM38:
 221               	/* prologue: function */
 222               	/* frame size = 0 */
 223               	.LM39:
 224 009e 80E3      		ldi r24,lo8(48)
 225 00a0 E0E0      		ldi r30,lo8(_macroInputBuffer)
 226 00a2 F0E0      		ldi r31,hi8(_macroInputBuffer)
 227 00a4 DF01      		movw r26,r30
 228 00a6 982F      		mov r25,r24
GAS LISTING C:\Users\ADMINI~1\AppData\Local\Temp/ccSP7hgy.s 			page 5


 229 00a8 1D92      		st X+,__zero_reg__
 230 00aa 9A95      	        dec r25
 231 00ac 01F4      		brne .-6
 232               	.LM40:
 233 00ae 1092 0000 		sts _macroBufferIndex,__zero_reg__
 234               	.LM41:
 235 00b2 E0E0      		ldi r30,lo8(_macroPressedBuffer)
 236 00b4 F0E0      		ldi r31,hi8(_macroPressedBuffer)
 237 00b6 DF01      		movw r26,r30
 238 00b8 1D92      		st X+,__zero_reg__
 239 00ba 8A95      	        dec r24
 240 00bc 01F4      		brne .-6
 241               	.LM42:
 242 00be 1092 0000 		sts _macroDownCount,__zero_reg__
 243               	/* epilogue start */
 244               	.LM43:
 245 00c2 0895      		ret
 246               	.LFE46:
 247               		.size	resetMacroInput, .-resetMacroInput
 248               		.type	pushCharacter, @function
 249               	pushCharacter:
 250               	.LFB26:
 251               	.LM44:
 252               	.LVL6:
 253 00c4 0F93      		push r16
 254 00c6 1F93      		push r17
 255               	/* prologue: function */
 256               	/* frame size = 0 */
 257 00c8 FC01      		movw r30,r24
 258               	.LM45:
 259 00ca 8081      		ld r24,Z
 260               	.LVL7:
 261 00cc 0E94 0000 		call charToKey
 262               	.LVL8:
 263 00d0 8C01      		movw r16,r24
 264               	.LM46:
 265 00d2 8823      		tst r24
 266               	.LVL9:
 267 00d4 01F0      		breq .L29
 268               	.LM47:
 269 00d6 88E6      		ldi r24,lo8(104)
 270               	.LVL10:
 271 00d8 0E94 0000 		call pushM
 272               	.LVL11:
 273               	.L29:
 274               	.LM48:
 275 00dc 812F      		mov r24,r17
 276               	.LVL12:
 277 00de 0E94 0000 		call pushM
 278               	.LM49:
 279 00e2 812F      		mov r24,r17
 280 00e4 0E94 0000 		call pushM
 281               	.LM50:
 282 00e8 0023      		tst r16
 283               	.LVL13:
 284 00ea 01F0      		breq .L31
 285               	.LM51:
GAS LISTING C:\Users\ADMINI~1\AppData\Local\Temp/ccSP7hgy.s 			page 6


 286 00ec 88E6      		ldi r24,lo8(104)
 287 00ee 0E94 0000 		call pushM
 288               	.L31:
 289               	/* epilogue start */
 290               	.LM52:
 291 00f2 1F91      		pop r17
 292 00f4 0F91      		pop r16
 293               	.LVL14:
 294 00f6 0895      		ret
 295               	.LFE26:
 296               		.size	pushCharacter, .-pushCharacter
 297               		.data
 298               	.LC0:
 299 0000 2563 00   		.string	"%c"
 300               		.text
 301               		.type	printStringFromFlash, @function
 302               	printStringFromFlash:
 303               	.LFB29:
 304               	.LM53:
 305               	.LVL15:
 306 00f8 CF92      		push r12
 307 00fa DF92      		push r13
 308 00fc EF92      		push r14
 309 00fe FF92      		push r15
 310 0100 0F93      		push r16
 311 0102 1F93      		push r17
 312 0104 DF93      		push r29
 313 0106 CF93      		push r28
 314 0108 0F92      		push __tmp_reg__
 315 010a CDB7      		in r28,__SP_L__
 316 010c DEB7      		in r29,__SP_H__
 317               	/* prologue: function */
 318               	/* frame size = 1 */
 319 010e 8C01      		movw r16,r24
 320               	.LM54:
 321 0110 0097      		sbiw r24,0
 322 0112 01F4      		brne .L37
 323 0114 00C0      		rjmp .L36
 324               	.LVL16:
 325               	.L35:
 326               	.LM55:
 327 0116 00D0      		rcall .
 328 0118 00D0      		rcall .
 329 011a 00D0      		rcall .
 330 011c EDB7      		in r30,__SP_L__
 331 011e FEB7      		in r31,__SP_H__
 332               	.LVL17:
 333 0120 3196      		adiw r30,1
 334 0122 ADB7      		in r26,__SP_L__
 335 0124 BEB7      		in r27,__SP_H__
 336 0126 1296      		adiw r26,1+1
 337 0128 FC92      		st X,r15
 338 012a EE92      		st -X,r14
 339 012c 1197      		sbiw r26,1
 340 012e D382      		std Z+3,r13
 341 0130 C282      		std Z+2,r12
 342 0132 9927      		clr r25
GAS LISTING C:\Users\ADMINI~1\AppData\Local\Temp/ccSP7hgy.s 			page 7


 343 0134 87FD      		sbrc r24,7
 344 0136 9095      		com r25
 345               	.LVL18:
 346 0138 9583      		std Z+5,r25
 347 013a 8483      		std Z+4,r24
 348 013c 0E94 0000 		call sprintf
 349               	.LVL19:
 350               	.LM56:
 351 0140 8DB7      		in r24,__SP_L__
 352 0142 9EB7      		in r25,__SP_H__
 353 0144 0696      		adiw r24,6
 354 0146 0FB6      		in __tmp_reg__,__SREG__
 355 0148 F894      		cli
 356 014a 9EBF      		out __SP_H__,r25
 357 014c 0FBE      		out __SREG__,__tmp_reg__
 358 014e 8DBF      		out __SP_L__,r24
 359 0150 C701      		movw r24,r14
 360 0152 0E94 0000 		call pushCharacter
 361 0156 00C0      		rjmp .L38
 362               	.LVL20:
 363               	.L37:
 364               	.LM57:
 365 0158 7E01      		movw r14,r28
 366 015a 0894      		sec
 367 015c E11C      		adc r14,__zero_reg__
 368 015e F11C      		adc r15,__zero_reg__
 369 0160 80E0      		ldi r24,lo8(.LC0)
 370 0162 C82E      		mov r12,r24
 371 0164 80E0      		ldi r24,hi8(.LC0)
 372 0166 D82E      		mov r13,r24
 373               	.LVL21:
 374               	.L38:
 375               	.LM58:
 376 0168 F801      		movw r30,r16
 377               	.LVL22:
 378               	.LBB73:
 379               	.LM59:
 380 016a 0F5F      		subi r16,lo8(-(1))
 381 016c 1F4F      		sbci r17,hi8(-(1))
 382               	/* #APP */
 383               	 ;  357 "keymapper.c" 1
 384 016e 8491      		lpm r24, Z
 385               		
 386               	 ;  0 "" 2
 387               	.LVL23:
 388               	/* #NOAPP */
 389               	.LBE73:
 390 0170 8823      		tst r24
 391 0172 01F4      		brne .L35
 392               	.LVL24:
 393               	.L36:
 394               	/* epilogue start */
 395               	.LM60:
 396 0174 0F90      		pop __tmp_reg__
 397 0176 CF91      		pop r28
 398 0178 DF91      		pop r29
 399 017a 1F91      		pop r17
GAS LISTING C:\Users\ADMINI~1\AppData\Local\Temp/ccSP7hgy.s 			page 8


 400 017c 0F91      		pop r16
 401               	.LVL25:
 402 017e FF90      		pop r15
 403 0180 EF90      		pop r14
 404 0182 DF90      		pop r13
 405 0184 CF90      		pop r12
 406 0186 0895      		ret
 407               	.LFE29:
 408               		.size	printStringFromFlash, .-printStringFromFlash
 409               	.global	resetCurrentLayer
 410               		.type	resetCurrentLayer, @function
 411               	resetCurrentLayer:
 412               	.LFB45:
 413               	.LM61:
 414               	/* prologue: function */
 415               	/* frame size = 0 */
 416               	.LM62:
 417 0188 80E0      		ldi r24,lo8(str_reset_mapping)
 418 018a 90E0      		ldi r25,hi8(str_reset_mapping)
 419 018c 0E94 0000 		call printStringFromFlash
 420               	.LM63:
 421 0190 0E94 0000 		call printEnter
 422 0194 20E0      		ldi r18,lo8(_newKeyMap+8)
 423 0196 30E0      		ldi r19,hi8(_newKeyMap+8)
 424 0198 80E0      		ldi r24,lo8(0)
 425 019a 90E0      		ldi r25,hi8(0)
 426 019c 00C0      		rjmp .L40
 427               	.L41:
 428               	.LM64:
 429 019e 1192      		st Z+,__zero_reg__
 430               	.LM65:
 431 01a0 E217      		cp r30,r18
 432 01a2 F307      		cpc r31,r19
 433 01a4 01F4      		brne .L41
 434 01a6 0196      		adiw r24,1
 435 01a8 9F01      		movw r18,r30
 436 01aa 285F      		subi r18,lo8(-(8))
 437 01ac 3F4F      		sbci r19,hi8(-(8))
 438               	.LM66:
 439 01ae 8131      		cpi r24,17
 440 01b0 9105      		cpc r25,__zero_reg__
 441 01b2 01F0      		breq .L42
 442               	.L40:
 443 01b4 FC01      		movw r30,r24
 444 01b6 43E0      		ldi r20,3
 445 01b8 EE0F      	1:	lsl r30
 446 01ba FF1F      		rol r31
 447 01bc 4A95      		dec r20
 448 01be 01F4      		brne 1b
 449 01c0 E050      		subi r30,lo8(-(_newKeyMap))
 450 01c2 F040      		sbci r31,hi8(-(_newKeyMap))
 451 01c4 00C0      		rjmp .L41
 452               	.L42:
 453               	.LM67:
 454 01c6 81E0      		ldi r24,lo8(1)
 455 01c8 90E0      		ldi r25,hi8(1)
 456 01ca 9093 0000 		sts (_editCount)+1,r25
GAS LISTING C:\Users\ADMINI~1\AppData\Local\Temp/ccSP7hgy.s 			page 9


 457 01ce 8093 0000 		sts _editCount,r24
 458               	/* epilogue start */
 459               	.LM68:
 460 01d2 0895      		ret
 461               	.LFE45:
 462               		.size	resetCurrentLayer, .-resetCurrentLayer
 463               	.global	clearMacro
 464               		.type	clearMacro, @function
 465               	clearMacro:
 466               	.LFB44:
 467               	.LM69:
 468               	/* prologue: function */
 469               	/* frame size = 0 */
 470               	.LM70:
 471 01d4 80E0      		ldi r24,lo8(str_clear_all_macro)
 472 01d6 90E0      		ldi r25,hi8(str_clear_all_macro)
 473 01d8 0E94 0000 		call printStringFromFlash
 474               	.LM71:
 475 01dc 0E94 0000 		call printEnter
 476               	.LM72:
 477 01e0 81E0      		ldi r24,lo8(1)
 478 01e2 8093 0000 		sts _isWorkingForEmpty,r24
 479               	.LM73:
 480 01e6 8CE0      		ldi r24,lo8(12)
 481 01e8 8093 0000 		sts _wait,r24
 482               	.LM74:
 483 01ec 1092 0000 		sts _step,__zero_reg__
 484               	/* epilogue start */
 485               	.LM75:
 486 01f0 0895      		ret
 487               	.LFE44:
 488               		.size	clearMacro, .-clearMacro
 489               	.global	saveCurrentLayer
 490               		.type	saveCurrentLayer, @function
 491               	saveCurrentLayer:
 492               	.LFB39:
 493               	.LM76:
 494               	/* prologue: function */
 495               	/* frame size = 0 */
 496               	.LM77:
 497 01f2 8091 0000 		lds r24,_editCount
 498 01f6 9091 0000 		lds r25,(_editCount)+1
 499 01fa 892B      		or r24,r25
 500 01fc 01F4      		brne .L48
 501               	.LBB74:
 502               	.LBB75:
 503               	.LM78:
 504 01fe 1092 0000 		sts _isKeyMapping,__zero_reg__
 505               	.LM79:
 506 0202 1092 0000 		sts _wait,__zero_reg__
 507 0206 0895      		ret
 508               	.L48:
 509               	.LBE75:
 510               	.LBE74:
 511               	.LM80:
 512 0208 80E0      		ldi r24,lo8(str_saving)
 513 020a 90E0      		ldi r25,hi8(str_saving)
GAS LISTING C:\Users\ADMINI~1\AppData\Local\Temp/ccSP7hgy.s 			page 10


 514 020c 0E94 0000 		call printStringFromFlash
 515               	.LM81:
 516 0210 0E94 0000 		call printEnter
 517               	.LM82:
 518 0214 81E0      		ldi r24,lo8(1)
 519 0216 8093 0000 		sts _isWorkingForEmpty,r24
 520               	.LM83:
 521 021a 8BE0      		ldi r24,lo8(11)
 522 021c 8093 0000 		sts _wait,r24
 523               	.LM84:
 524 0220 8091 0000 		lds r24,_step
 525 0224 8093 0000 		sts _stepAfterLayerSave,r24
 526               	.LM85:
 527 0228 1092 0000 		sts _step,__zero_reg__
 528 022c 0895      		ret
 529               	.LFE39:
 530               		.size	saveCurrentLayer, .-saveCurrentLayer
 531               	.global	printPrepareString
 532               		.type	printPrepareString, @function
 533               	printPrepareString:
 534               	.LFB35:
 535               	.LM86:
 536               	/* prologue: function */
 537               	/* frame size = 0 */
 538               	.LM87:
 539 022e 80E0      		ldi r24,lo8(str_prepare_message)
 540 0230 90E0      		ldi r25,hi8(str_prepare_message)
 541 0232 0E94 0000 		call printStringFromFlash
 542               	.LM88:
 543 0236 0E94 0000 		call printEnter
 544               	/* epilogue start */
 545               	.LM89:
 546 023a 0895      		ret
 547               	.LFE35:
 548               		.size	printPrepareString, .-printPrepareString
 549               	.global	printMacroMessage
 550               		.type	printMacroMessage, @function
 551               	printMacroMessage:
 552               	.LFB34:
 553               	.LM90:
 554               	/* prologue: function */
 555               	/* frame size = 0 */
 556               	.LM91:
 557 023c 0E94 0000 		call printEnter
 558               	.LM92:
 559 0240 80E0      		ldi r24,lo8(str_macro_message)
 560 0242 90E0      		ldi r25,hi8(str_macro_message)
 561 0244 0E94 0000 		call printStringFromFlash
 562               	.LM93:
 563 0248 0E94 0000 		call printEnter
 564               	.LM94:
 565 024c 80E0      		ldi r24,lo8(str_macro_1)
 566 024e 90E0      		ldi r25,hi8(str_macro_1)
 567 0250 0E94 0000 		call printStringFromFlash
 568               	.LM95:
 569 0254 0E94 0000 		call printEnter
 570               	.LM96:
GAS LISTING C:\Users\ADMINI~1\AppData\Local\Temp/ccSP7hgy.s 			page 11


 571 0258 80E0      		ldi r24,lo8(str_macro_2)
 572 025a 90E0      		ldi r25,hi8(str_macro_2)
 573 025c 0E94 0000 		call printStringFromFlash
 574               	.LM97:
 575 0260 0E94 0000 		call printEnter
 576               	.LM98:
 577 0264 80E0      		ldi r24,lo8(str_back_6)
 578 0266 90E0      		ldi r25,hi8(str_back_6)
 579 0268 0E94 0000 		call printStringFromFlash
 580               	.LM99:
 581 026c 0E94 0000 		call printEnter
 582               	.LM100:
 583 0270 80E0      		ldi r24,lo8(str_macro_9)
 584 0272 90E0      		ldi r25,hi8(str_macro_9)
 585 0274 0E94 0000 		call printStringFromFlash
 586               	.LM101:
 587 0278 0E94 0000 		call printEnter
 588               	.LM102:
 589 027c 87E0      		ldi r24,lo8(7)
 590 027e 8093 0000 		sts _step,r24
 591               	/* epilogue start */
 592               	.LM103:
 593 0282 0895      		ret
 594               	.LFE34:
 595               		.size	printMacroMessage, .-printMacroMessage
 596               	.global	printString
 597               		.type	printString, @function
 598               	printString:
 599               	.LFB28:
 600               	.LM104:
 601               	.LVL26:
 602 0284 AF92      		push r10
 603 0286 BF92      		push r11
 604 0288 CF92      		push r12
 605 028a DF92      		push r13
 606 028c FF92      		push r15
 607 028e 0F93      		push r16
 608 0290 1F93      		push r17
 609 0292 DF93      		push r29
 610 0294 CF93      		push r28
 611 0296 0F92      		push __tmp_reg__
 612 0298 CDB7      		in r28,__SP_L__
 613 029a DEB7      		in r29,__SP_H__
 614               	/* prologue: function */
 615               	/* frame size = 1 */
 616 029c 8C01      		movw r16,r24
 617               	.LM105:
 618 029e FF24      		clr r15
 619               	.LVL27:
 620               	.LM106:
 621 02a0 6E01      		movw r12,r28
 622 02a2 0894      		sec
 623 02a4 C11C      		adc r12,__zero_reg__
 624 02a6 D11C      		adc r13,__zero_reg__
 625 02a8 50E0      		ldi r21,lo8(.LC0)
 626 02aa A52E      		mov r10,r21
 627 02ac 50E0      		ldi r21,hi8(.LC0)
GAS LISTING C:\Users\ADMINI~1\AppData\Local\Temp/ccSP7hgy.s 			page 12


 628 02ae B52E      		mov r11,r21
 629 02b0 00C0      		rjmp .L56
 630               	.LVL28:
 631               	.L57:
 632 02b2 00D0      		rcall .
 633 02b4 00D0      		rcall .
 634 02b6 00D0      		rcall .
 635 02b8 EDB7      		in r30,__SP_L__
 636 02ba FEB7      		in r31,__SP_H__
 637 02bc 3196      		adiw r30,1
 638 02be ADB7      		in r26,__SP_L__
 639 02c0 BEB7      		in r27,__SP_H__
 640 02c2 1296      		adiw r26,1+1
 641 02c4 DC92      		st X,r13
 642 02c6 CE92      		st -X,r12
 643 02c8 1197      		sbiw r26,1
 644 02ca B382      		std Z+3,r11
 645 02cc A282      		std Z+2,r10
 646 02ce 800F      		add r24,r16
 647 02d0 911F      		adc r25,r17
 648 02d2 DC01      		movw r26,r24
 649 02d4 8C91      		ld r24,X
 650 02d6 9927      		clr r25
 651 02d8 87FD      		sbrc r24,7
 652 02da 9095      		com r25
 653 02dc 9583      		std Z+5,r25
 654 02de 8483      		std Z+4,r24
 655 02e0 0E94 0000 		call sprintf
 656               	.LM107:
 657 02e4 8DB7      		in r24,__SP_L__
 658 02e6 9EB7      		in r25,__SP_H__
 659 02e8 0696      		adiw r24,6
 660 02ea 0FB6      		in __tmp_reg__,__SREG__
 661 02ec F894      		cli
 662 02ee 9EBF      		out __SP_H__,r25
 663 02f0 0FBE      		out __SREG__,__tmp_reg__
 664 02f2 8DBF      		out __SP_L__,r24
 665 02f4 C601      		movw r24,r12
 666 02f6 0E94 0000 		call pushCharacter
 667               	.LM108:
 668 02fa F394      		inc r15
 669               	.LVL29:
 670               	.L56:
 671 02fc 8F2D      		mov r24,r15
 672 02fe 90E0      		ldi r25,lo8(0)
 673 0300 F801      		movw r30,r16
 674 0302 0190      		ld __tmp_reg__,Z+
 675 0304 0020      		tst __tmp_reg__
 676 0306 01F4      		brne .-6
 677 0308 3197      		sbiw r30,1
 678 030a E01B      		sub r30,r16
 679 030c F10B      		sbc r31,r17
 680 030e 8E17      		cp r24,r30
 681 0310 9F07      		cpc r25,r31
 682 0312 00F0      		brlo .L57
 683               	/* epilogue start */
 684               	.LM109:
GAS LISTING C:\Users\ADMINI~1\AppData\Local\Temp/ccSP7hgy.s 			page 13


 685 0314 0F90      		pop __tmp_reg__
 686 0316 CF91      		pop r28
 687 0318 DF91      		pop r29
 688 031a 1F91      		pop r17
 689 031c 0F91      		pop r16
 690               	.LVL30:
 691 031e FF90      		pop r15
 692               	.LVL31:
 693 0320 DF90      		pop r13
 694 0322 CF90      		pop r12
 695 0324 BF90      		pop r11
 696 0326 AF90      		pop r10
 697 0328 0895      		ret
 698               	.LFE28:
 699               		.size	printString, .-printString
 700               		.type	printPrompt, @function
 701               	printPrompt:
 702               	.LFB30:
 703               	.LM110:
 704               	/* prologue: function */
 705               	/* frame size = 0 */
 706               	.LM111:
 707 032a 81E0      		ldi r24,lo8(1)
 708 032c 8093 0000 		sts _isWorkingForEmpty,r24
 709               	.LM112:
 710 0330 8091 0000 		lds r24,_step
 711 0334 8930      		cpi r24,lo8(9)
 712 0336 00F4      		brsh .L74
 713 0338 8730      		cpi r24,lo8(7)
 714 033a 00F4      		brsh .L67
 715 033c 8330      		cpi r24,lo8(3)
 716 033e 01F0      		breq .L63
 717 0340 8430      		cpi r24,lo8(4)
 718 0342 00F4      		brsh .L75
 719 0344 8130      		cpi r24,lo8(1)
 720 0346 01F0      		breq .L61
 721 0348 8230      		cpi r24,lo8(2)
 722 034a 01F0      		breq .+2
 723 034c 00C0      		rjmp .L82
 724 034e 00C0      		rjmp .L87
 725               	.L75:
 726 0350 8530      		cpi r24,lo8(5)
 727 0352 01F0      		breq .L65
 728 0354 8630      		cpi r24,lo8(6)
 729 0356 00F4      		brsh .L66
 730 0358 00C0      		rjmp .L88
 731               	.L74:
 732 035a 8B30      		cpi r24,lo8(11)
 733 035c 01F0      		breq .L70
 734 035e 8C30      		cpi r24,lo8(12)
 735 0360 00F4      		brsh .L76
 736 0362 8930      		cpi r24,lo8(9)
 737 0364 01F0      		breq .L68
 738 0366 8A30      		cpi r24,lo8(10)
 739 0368 01F0      		breq .+2
 740 036a 00C0      		rjmp .L82
 741 036c 00C0      		rjmp .L89
GAS LISTING C:\Users\ADMINI~1\AppData\Local\Temp/ccSP7hgy.s 			page 14


 742               	.L76:
 743 036e 8E36      		cpi r24,lo8(110)
 744 0370 01F4      		brne .+2
 745 0372 00C0      		rjmp .L72
 746 0374 8837      		cpi r24,lo8(120)
 747 0376 01F0      		breq .L73
 748 0378 8436      		cpi r24,lo8(100)
 749 037a 01F0      		breq .+2
 750 037c 00C0      		rjmp .L82
 751 037e 00C0      		rjmp .L71
 752               	.L61:
 753               	.LM113:
 754 0380 80E0      		ldi r24,lo8(str_choose_layer)
 755 0382 90E0      		ldi r25,hi8(str_choose_layer)
 756 0384 0E94 0000 		call printStringFromFlash
 757               	.LM114:
 758 0388 8091 0000 		lds r24,_currentLayer
 759 038c 8F5F      		subi r24,lo8(-(1))
 760 038e 0E94 0000 		call toString
 761 0392 0E94 0000 		call printString
 762 0396 00C0      		rjmp .L85
 763               	.L87:
 764               	.LM115:
 765 0398 80E0      		ldi r24,lo8(str_choose_key)
 766 039a 90E0      		ldi r25,hi8(str_choose_key)
 767 039c 00C0      		rjmp .L86
 768               	.L63:
 769               	.LM116:
 770 039e 80E0      		ldi r24,lo8(str_input_keycode)
 771 03a0 90E0      		ldi r25,hi8(str_input_keycode)
 772 03a2 00C0      		rjmp .L83
 773               	.L88:
 774               	.LM117:
 775 03a4 80E0      		ldi r24,lo8(str_save_end_mapping)
 776 03a6 90E0      		ldi r25,hi8(str_save_end_mapping)
 777 03a8 00C0      		rjmp .L84
 778               	.L65:
 779               	.LM118:
 780 03aa 80E0      		ldi r24,lo8(str_cancel_mapping)
 781 03ac 90E0      		ldi r25,hi8(str_cancel_mapping)
 782 03ae 00C0      		rjmp .L84
 783               	.L66:
 784               	.LM119:
 785 03b0 1092 0000 		sts _isWorkingForEmpty,__zero_reg__
 786 03b4 00C0      		rjmp .L82
 787               	.L67:
 788               	.LM120:
 789 03b6 80E0      		ldi r24,lo8(str_input_command)
 790 03b8 90E0      		ldi r25,hi8(str_input_command)
 791               	.L83:
 792 03ba 0E94 0000 		call printStringFromFlash
 793 03be 00C0      		rjmp .L82
 794               	.L68:
 795               	.LM121:
 796 03c0 80E0      		ldi r24,lo8(str_select_number)
 797 03c2 90E0      		ldi r25,hi8(str_select_number)
 798 03c4 00C0      		rjmp .L83
GAS LISTING C:\Users\ADMINI~1\AppData\Local\Temp/ccSP7hgy.s 			page 15


 799               	.L89:
 800               	.LM122:
 801 03c6 80E0      		ldi r24,lo8(str_exit_macro)
 802 03c8 90E0      		ldi r25,hi8(str_exit_macro)
 803 03ca 00C0      		rjmp .L84
 804               	.L70:
 805               	.LM123:
 806 03cc 80E0      		ldi r24,lo8(str_input_macro)
 807 03ce 90E0      		ldi r25,hi8(str_input_macro)
 808               	.L86:
 809 03d0 0E94 0000 		call printStringFromFlash
 810               	.L85:
 811               	.LM124:
 812 03d4 0E94 0000 		call printEnter
 813 03d8 00C0      		rjmp .L82
 814               	.L73:
 815               	.LM125:
 816 03da 80E0      		ldi r24,lo8(str_boot_mapper)
 817 03dc 90E0      		ldi r25,hi8(str_boot_mapper)
 818 03de 0E94 0000 		call printStringFromFlash
 819               	.LM126:
 820 03e2 0E94 0000 		call printEnter
 821               	.LM127:
 822 03e6 1092 0000 		sts _step,__zero_reg__
 823               	.LM128:
 824 03ea 0E94 0000 		call setToBootMapper
 825 03ee 00C0      		rjmp .L82
 826               	.L71:
 827               	.LM129:
 828 03f0 80E0      		ldi r24,lo8(str_exit)
 829 03f2 90E0      		ldi r25,hi8(str_exit)
 830               	.L84:
 831 03f4 0E94 0000 		call printStringFromFlash
 832               	.LM130:
 833 03f8 0E94 0000 		call printEnter
 834               	.LM131:
 835 03fc 1092 0000 		sts _step,__zero_reg__
 836 0400 00C0      		rjmp .L82
 837               	.L72:
 838               	.LM132:
 839 0402 0E94 0000 		call printSelectMode
 840               	.L82:
 841 0406 88EE      		ldi r24,lo8(1000)
 842 0408 93E0      		ldi r25,hi8(1000)
 843               	.LVL32:
 844               	.LBB76:
 845               	.LBB77:
 846               	.LBB78:
 847               	.LBB79:
 848               	.LM133:
 849 040a 2CE2      		ldi r18,lo8(300)
 850 040c 31E0      		ldi r19,hi8(300)
 851               	.L79:
 852 040e F901      		movw r30,r18
 853               	.LVL33:
 854               	/* #APP */
 855               	 ;  105 "c:/winavr-20100110/lib/gcc/../../avr/include/util/delay_basic.h" 1
GAS LISTING C:\Users\ADMINI~1\AppData\Local\Temp/ccSP7hgy.s 			page 16


 856 0410 3197      		1: sbiw r30,1
 857 0412 01F4      		brne 1b
 858               	 ;  0 "" 2
 859               	/* #NOAPP */
 860               	.LBE79:
 861               	.LBE78:
 862               	.LM134:
 863 0414 0197      		sbiw r24,1
 864               	.LM135:
 865 0416 01F4      		brne .L79
 866               	/* epilogue start */
 867               	.LBE77:
 868               	.LBE76:
 869               	.LM136:
 870 0418 0895      		ret
 871               	.LFE30:
 872               		.size	printPrompt, .-printPrompt
 873               	.global	printMapperMessageAfter
 874               		.type	printMapperMessageAfter, @function
 875               	printMapperMessageAfter:
 876               	.LFB32:
 877               	.LM137:
 878               	/* prologue: function */
 879               	/* frame size = 0 */
 880               	.LM138:
 881 041a 0E94 0000 		call printEnter
 882               	.LM139:
 883 041e 80E0      		ldi r24,lo8(str_mapper_3)
 884 0420 90E0      		ldi r25,hi8(str_mapper_3)
 885 0422 0E94 0000 		call printStringFromFlash
 886               	.LM140:
 887 0426 0E94 0000 		call printEnter
 888               	.LM141:
 889 042a 80E0      		ldi r24,lo8(str_mapper_4)
 890 042c 90E0      		ldi r25,hi8(str_mapper_4)
 891 042e 0E94 0000 		call printStringFromFlash
 892               	.LM142:
 893 0432 0E94 0000 		call printEnter
 894               	.LM143:
 895 0436 80E0      		ldi r24,lo8(str_back_6)
 896 0438 90E0      		ldi r25,hi8(str_back_6)
 897 043a 0E94 0000 		call printStringFromFlash
 898               	.LM144:
 899 043e 0E94 0000 		call printEnter
 900               	.LM145:
 901 0442 80E0      		ldi r24,lo8(str_mapper_9)
 902 0444 90E0      		ldi r25,hi8(str_mapper_9)
 903 0446 0E94 0000 		call printStringFromFlash
 904               	.LM146:
 905 044a 0E94 0000 		call printEnter
 906               	.LM147:
 907 044e 87E0      		ldi r24,lo8(7)
 908 0450 8093 0000 		sts _step,r24
 909               	.LM148:
 910 0454 0E94 0000 		call printPrompt
 911               	/* epilogue start */
 912               	.LM149:
GAS LISTING C:\Users\ADMINI~1\AppData\Local\Temp/ccSP7hgy.s 			page 17


 913 0458 0895      		ret
 914               	.LFE32:
 915               		.size	printMapperMessageAfter, .-printMapperMessageAfter
 916               	.global	printSelectMode
 917               		.type	printSelectMode, @function
 918               	printSelectMode:
 919               	.LFB31:
 920               	.LM150:
 921               	/* prologue: function */
 922               	/* frame size = 0 */
 923               	.LM151:
 924 045a 0E94 0000 		call printEnter
 925               	.LM152:
 926 045e 80E0      		ldi r24,lo8(str_select_mode)
 927 0460 90E0      		ldi r25,hi8(str_select_mode)
 928 0462 0E94 0000 		call printStringFromFlash
 929               	.LM153:
 930 0466 0E94 0000 		call printEnter
 931               	.LM154:
 932 046a 80E0      		ldi r24,lo8(str_select_mode1)
 933 046c 90E0      		ldi r25,hi8(str_select_mode1)
 934 046e 0E94 0000 		call printStringFromFlash
 935               	.LM155:
 936 0472 0E94 0000 		call printEnter
 937               	.LM156:
 938 0476 80E0      		ldi r24,lo8(str_select_mode2)
 939 0478 90E0      		ldi r25,hi8(str_select_mode2)
 940 047a 0E94 0000 		call printStringFromFlash
 941               	.LM157:
 942 047e 0E94 0000 		call printEnter
 943               	.LM158:
 944 0482 80E0      		ldi r24,lo8(str_select_mode3)
 945 0484 90E0      		ldi r25,hi8(str_select_mode3)
 946 0486 0E94 0000 		call printStringFromFlash
 947               	.LM159:
 948 048a 0E94 0000 		call printEnter
 949               	.LM160:
 950 048e 80E0      		ldi r24,lo8(str_select_mode4)
 951 0490 90E0      		ldi r25,hi8(str_select_mode4)
 952 0492 0E94 0000 		call printStringFromFlash
 953               	.LM161:
 954 0496 0E94 0000 		call printEnter
 955               	.LM162:
 956 049a 88E0      		ldi r24,lo8(8)
 957 049c 8093 0000 		sts _step,r24
 958               	.LM163:
 959 04a0 0E94 0000 		call printPrompt
 960               	/* epilogue start */
 961               	.LM164:
 962 04a4 0895      		ret
 963               	.LFE31:
 964               		.size	printSelectMode, .-printSelectMode
 965               	.global	clearMacroAfter
 966               		.type	clearMacroAfter, @function
 967               	clearMacroAfter:
 968               	.LFB43:
 969               	.LM165:
GAS LISTING C:\Users\ADMINI~1\AppData\Local\Temp/ccSP7hgy.s 			page 18


 970 04a6 CF93      		push r28
 971 04a8 DF93      		push r29
 972               	/* prologue: function */
 973               	/* frame size = 0 */
 974               	.LM166:
 975 04aa C5EA      		ldi r28,lo8(421)
 976 04ac D1E0      		ldi r29,hi8(421)
 977               	.L95:
 978               	.LM167:
 979 04ae CE01      		movw r24,r28
 980 04b0 60E0      		ldi r22,lo8(0)
 981 04b2 0E94 0000 		call __eewr_byte_m32
 982 04b6 2196      		adiw r28,1
 983               	.LM168:
 984 04b8 83E0      		ldi r24,hi8(997)
 985 04ba C53E      		cpi r28,lo8(997)
 986 04bc D807      		cpc r29,r24
 987 04be 01F4      		brne .L95
 988               	.LM169:
 989 04c0 87E0      		ldi r24,lo8(7)
 990 04c2 8093 0000 		sts _step,r24
 991               	.LM170:
 992 04c6 0E94 0000 		call printPrompt
 993               	/* epilogue start */
 994               	.LM171:
 995 04ca DF91      		pop r29
 996 04cc CF91      		pop r28
 997 04ce 0895      		ret
 998               	.LFE43:
 999               		.size	clearMacroAfter, .-clearMacroAfter
 1000               	.global	saveMacro
 1001               		.type	saveMacro, @function
 1002               	saveMacro:
 1003               	.LFB42:
 1004               	.LM172:
 1005 04d0 1F93      		push r17
 1006 04d2 CF93      		push r28
 1007 04d4 DF93      		push r29
 1008               	/* prologue: function */
 1009               	/* frame size = 0 */
 1010               	.LM173:
 1011 04d6 8091 0000 		lds r24,_macroIndex
 1012 04da 8C30      		cpi r24,lo8(12)
 1013 04dc 00F4      		brsh .L101
 1014 04de C0E0      		ldi r28,lo8(0)
 1015 04e0 D0E0      		ldi r29,hi8(0)
 1016               	.LM174:
 1017 04e2 10E3      		ldi r17,lo8(48)
 1018               	.L100:
 1019 04e4 8091 0000 		lds r24,_macroIndex
 1020 04e8 819F      		mul r24,r17
 1021 04ea C001      		movw r24,r0
 1022 04ec 1124      		clr r1
 1023 04ee 8B55      		subi r24,lo8(-(421))
 1024 04f0 9E4F      		sbci r25,hi8(-(421))
 1025 04f2 FE01      		movw r30,r28
 1026 04f4 E050      		subi r30,lo8(-(_macroInputBuffer))
GAS LISTING C:\Users\ADMINI~1\AppData\Local\Temp/ccSP7hgy.s 			page 19


 1027 04f6 F040      		sbci r31,hi8(-(_macroInputBuffer))
 1028 04f8 8C0F      		add r24,r28
 1029 04fa 9D1F      		adc r25,r29
 1030 04fc 6081      		ld r22,Z
 1031 04fe 0E94 0000 		call __eewr_byte_m32
 1032 0502 2196      		adiw r28,1
 1033               	.LM175:
 1034 0504 C033      		cpi r28,48
 1035 0506 D105      		cpc r29,__zero_reg__
 1036 0508 01F4      		brne .L100
 1037               	.LM176:
 1038 050a 8FEF      		ldi r24,lo8(-1)
 1039 050c 8093 0000 		sts _macroIndex,r24
 1040               	.L101:
 1041               	/* epilogue start */
 1042               	.LM177:
 1043 0510 DF91      		pop r29
 1044 0512 CF91      		pop r28
 1045 0514 1F91      		pop r17
 1046 0516 0895      		ret
 1047               	.LFE42:
 1048               		.size	saveMacro, .-saveMacro
 1049               	.global	readMacro
 1050               		.type	readMacro, @function
 1051               	readMacro:
 1052               	.LFB41:
 1053               	.LM178:
 1054               	.LVL34:
 1055 0518 0F93      		push r16
 1056 051a 1F93      		push r17
 1057 051c CF93      		push r28
 1058 051e DF93      		push r29
 1059               	/* prologue: function */
 1060               	/* frame size = 0 */
 1061 0520 982F      		mov r25,r24
 1062               	.LM179:
 1063 0522 8C30      		cpi r24,lo8(12)
 1064 0524 00F4      		brsh .L107
 1065               	.LM180:
 1066 0526 80E3      		ldi r24,lo8(48)
 1067               	.LVL35:
 1068 0528 989F      		mul r25,r24
 1069 052a C001      		movw r24,r0
 1070 052c 1124      		clr r1
 1071 052e EC01      		movw r28,r24
 1072 0530 CB55      		subi r28,lo8(-(421))
 1073 0532 DE4F      		sbci r29,hi8(-(421))
 1074               	.LM181:
 1075 0534 8C01      		movw r16,r24
 1076 0536 0B52      		subi r16,lo8(-(469))
 1077 0538 1E4F      		sbci r17,hi8(-(469))
 1078               	.LVL36:
 1079               	.L106:
 1080               	.LM182:
 1081 053a CE01      		movw r24,r28
 1082 053c 0E94 0000 		call __eerd_byte_m32
 1083               	.LVL37:
GAS LISTING C:\Users\ADMINI~1\AppData\Local\Temp/ccSP7hgy.s 			page 20


 1084 0540 982F      		mov r25,r24
 1085               	.LVL38:
 1086               	.LM183:
 1087 0542 8150      		subi r24,lo8(-(-1))
 1088 0544 8E3F      		cpi r24,lo8(-2)
 1089 0546 00F4      		brsh .L105
 1090               	.LM184:
 1091 0548 892F      		mov r24,r25
 1092 054a 0E94 0000 		call pushM
 1093               	.LVL39:
 1094               	.L105:
 1095 054e 2196      		adiw r28,1
 1096               	.LM185:
 1097 0550 C017      		cp r28,r16
 1098 0552 D107      		cpc r29,r17
 1099 0554 01F4      		brne .L106
 1100               	.LVL40:
 1101               	.L107:
 1102               	/* epilogue start */
 1103               	.LM186:
 1104 0556 DF91      		pop r29
 1105 0558 CF91      		pop r28
 1106 055a 1F91      		pop r17
 1107 055c 0F91      		pop r16
 1108 055e 0895      		ret
 1109               	.LFE41:
 1110               		.size	readMacro, .-readMacro
 1111               	.global	loadCurrentLayer
 1112               		.type	loadCurrentLayer, @function
 1113               	loadCurrentLayer:
 1114               	.LFB36:
 1115               	.LM187:
 1116 0560 CF92      		push r12
 1117 0562 DF92      		push r13
 1118 0564 EF92      		push r14
 1119 0566 FF92      		push r15
 1120 0568 0F93      		push r16
 1121 056a 1F93      		push r17
 1122 056c CF93      		push r28
 1123 056e DF93      		push r29
 1124               	/* prologue: function */
 1125               	/* frame size = 0 */
 1126               	.LM188:
 1127 0570 9091 0000 		lds r25,_currentLayer
 1128 0574 88E8      		ldi r24,lo8(-120)
 1129 0576 989F      		mul r25,r24
 1130 0578 7001      		movw r14,r0
 1131 057a 1124      		clr r1
 1132 057c 8DE0      		ldi r24,lo8(13)
 1133 057e 90E0      		ldi r25,hi8(13)
 1134 0580 E80E      		add r14,r24
 1135 0582 F91E      		adc r15,r25
 1136 0584 CC24      		clr r12
 1137 0586 DD24      		clr r13
 1138 0588 00C0      		rjmp .L110
 1139               	.L111:
 1140               	.LM189:
GAS LISTING C:\Users\ADMINI~1\AppData\Local\Temp/ccSP7hgy.s 			page 21


 1141 058a CE01      		movw r24,r28
 1142 058c 8E0D      		add r24,r14
 1143 058e 9F1D      		adc r25,r15
 1144 0590 0E94 0000 		call __eerd_byte_m32
 1145 0594 F801      		movw r30,r16
 1146 0596 8193      		st Z+,r24
 1147 0598 8F01      		movw r16,r30
 1148 059a 2196      		adiw r28,1
 1149               	.LM190:
 1150 059c C830      		cpi r28,8
 1151 059e D105      		cpc r29,__zero_reg__
 1152 05a0 01F4      		brne .L111
 1153 05a2 0894      		sec
 1154 05a4 C11C      		adc r12,__zero_reg__
 1155 05a6 D11C      		adc r13,__zero_reg__
 1156 05a8 88E0      		ldi r24,lo8(8)
 1157 05aa 90E0      		ldi r25,hi8(8)
 1158 05ac E80E      		add r14,r24
 1159 05ae F91E      		adc r15,r25
 1160               	.LM191:
 1161 05b0 91E1      		ldi r25,lo8(17)
 1162 05b2 C916      		cp r12,r25
 1163 05b4 D104      		cpc r13,__zero_reg__
 1164 05b6 01F0      		breq .L112
 1165               	.L110:
 1166 05b8 8601      		movw r16,r12
 1167 05ba 63E0      		ldi r22,3
 1168 05bc 000F      	1:	lsl r16
 1169 05be 111F      		rol r17
 1170 05c0 6A95      		dec r22
 1171 05c2 01F4      		brne 1b
 1172 05c4 0050      		subi r16,lo8(-(_newKeyMap))
 1173 05c6 1040      		sbci r17,hi8(-(_newKeyMap))
 1174 05c8 C0E0      		ldi r28,lo8(0)
 1175 05ca D0E0      		ldi r29,hi8(0)
 1176 05cc 00C0      		rjmp .L111
 1177               	.L112:
 1178               	.LM192:
 1179 05ce 1092 0000 		sts (_editCount)+1,__zero_reg__
 1180 05d2 1092 0000 		sts _editCount,__zero_reg__
 1181               	/* epilogue start */
 1182               	.LM193:
 1183 05d6 DF91      		pop r29
 1184 05d8 CF91      		pop r28
 1185 05da 1F91      		pop r17
 1186 05dc 0F91      		pop r16
 1187 05de FF90      		pop r15
 1188 05e0 EF90      		pop r14
 1189 05e2 DF90      		pop r13
 1190 05e4 CF90      		pop r12
 1191 05e6 0895      		ret
 1192               	.LFE36:
 1193               		.size	loadCurrentLayer, .-loadCurrentLayer
 1194               		.data
 1195               	.LC1:
 1196 0003 2564 00   		.string	"%d"
 1197               	.LC2:
GAS LISTING C:\Users\ADMINI~1\AppData\Local\Temp/ccSP7hgy.s 			page 22


 1198 0006 2C20 00   		.string	", "
 1199               	.LC3:
 1200 0009 2028 6C61 		.string	" (layer="
 1200      7965 723D 
 1200      00
 1201               	.LC4:
 1202 0012 2064 6566 		.string	" default="
 1202      6175 6C74 
 1202      3D00 
 1203               	.LC5:
 1204 001c 206D 6170 		.string	" mapping="
 1204      7069 6E67 
 1204      3D00 
 1205               	.LC6:
 1206 0026 2900      		.string	")"
 1207               		.text
 1208               	.global	putKeyCode
 1209               		.type	putKeyCode, @function
 1210               	putKeyCode:
 1211               	.LFB47:
 1212               	.LM194:
 1213               	.LVL41:
 1214 05e8 AF92      		push r10
 1215 05ea BF92      		push r11
 1216 05ec CF92      		push r12
 1217 05ee DF92      		push r13
 1218 05f0 EF92      		push r14
 1219 05f2 FF92      		push r15
 1220 05f4 0F93      		push r16
 1221 05f6 1F93      		push r17
 1222 05f8 DF93      		push r29
 1223 05fa CF93      		push r28
 1224 05fc 00D0      		rcall .
 1225 05fe 0F92      		push __tmp_reg__
 1226 0600 CDB7      		in r28,__SP_L__
 1227 0602 DEB7      		in r29,__SP_H__
 1228               	/* prologue: function */
 1229               	/* frame size = 3 */
 1230 0604 D82E      		mov r13,r24
 1231 0606 B62E      		mov r11,r22
 1232 0608 A42E      		mov r10,r20
 1233 060a C22E      		mov r12,r18
 1234               	.LM195:
 1235 060c 8091 0000 		lds r24,_isWorkingForEmpty
 1236               	.LVL42:
 1237 0610 8823      		tst r24
 1238 0612 01F0      		breq .+2
 1239 0614 00C0      		rjmp .L157
 1240               	.LVL43:
 1241               	.LM196:
 1242 0616 8091 0000 		lds r24,_step
 1243 061a 8B30      		cpi r24,lo8(11)
 1244 061c 01F0      		breq .L117
 1245 061e 2223      		tst r18
 1246 0620 01F0      		breq .+2
 1247 0622 00C0      		rjmp .L157
 1248               	.L117:
GAS LISTING C:\Users\ADMINI~1\AppData\Local\Temp/ccSP7hgy.s 			page 23


 1249               	.LM197:
 1250 0624 80E0      		ldi r24,lo8(usingKeys)
 1251 0626 90E0      		ldi r25,hi8(usingKeys)
 1252 0628 6BE0      		ldi r22,lo8(11)
 1253 062a 4D2D      		mov r20,r13
 1254 062c 0E94 0000 		call findIndex
 1255 0630 7C01      		movw r14,r24
 1256               	.LVL44:
 1257               	.LM198:
 1258 0632 9091 0000 		lds r25,_step
 1259 0636 9B30      		cpi r25,lo8(11)
 1260 0638 01F0      		breq .+2
 1261 063a 00C0      		rjmp .L118
 1262               	.LM199:
 1263 063c 8091 0000 		lds r24,_isTiredEscapeKey
 1264 0640 8823      		tst r24
 1265 0642 01F0      		breq .L119
 1266               	.LM200:
 1267 0644 1092 0000 		sts _isPressedEscapeKey,__zero_reg__
 1268               	.LM201:
 1269 0648 1092 0000 		sts _isTiredEscapeKey,__zero_reg__
 1270               	.LM202:
 1271 064c 8D2D      		mov r24,r13
 1272 064e 0E94 0000 		call pushM
 1273               	.LM203:
 1274 0652 E091 0000 		lds r30,_macroBufferIndex
 1275 0656 F0E0      		ldi r31,lo8(0)
 1276 0658 E050      		subi r30,lo8(-(_macroInputBuffer-1))
 1277 065a F040      		sbci r31,hi8(-(_macroInputBuffer-1))
 1278 065c 1082      		st Z,__zero_reg__
 1279               	.LM204:
 1280 065e 0E94 0000 		call saveMacro
 1281               	.LM205:
 1282 0662 87E0      		ldi r24,lo8(7)
 1283 0664 8093 0000 		sts _step,r24
 1284 0668 00C0      		rjmp .L166
 1285               	.L119:
 1286               	.LM206:
 1287 066a CC20      		tst r12
 1288 066c 01F0      		breq .L120
 1289               	.LM207:
 1290 066e 8091 0000 		lds r24,_macroDownCount
 1291 0672 8831      		cpi r24,lo8(24)
 1292 0674 00F0      		brlo .+2
 1293 0676 00C0      		rjmp .L157
 1294               	.LM208:
 1295 0678 8F5F      		subi r24,lo8(-(1))
 1296 067a 8093 0000 		sts _macroDownCount,r24
 1297               	.LM209:
 1298 067e 80E0      		ldi r24,lo8(_macroPressedBuffer)
 1299 0680 90E0      		ldi r25,hi8(_macroPressedBuffer)
 1300 0682 6D2D      		mov r22,r13
 1301 0684 0E94 0000 		call append
 1302 0688 00C0      		rjmp .L121
 1303               	.L120:
 1304               	.LM210:
 1305 068a 00E0      		ldi r16,lo8(_macroPressedBuffer)
GAS LISTING C:\Users\ADMINI~1\AppData\Local\Temp/ccSP7hgy.s 			page 24


 1306 068c 10E0      		ldi r17,hi8(_macroPressedBuffer)
 1307 068e F801      		movw r30,r16
 1308 0690 0190      		ld __tmp_reg__,Z+
 1309 0692 0020      		tst __tmp_reg__
 1310 0694 01F4      		brne .-6
 1311 0696 3197      		sbiw r30,1
 1312 0698 E01B      		sub r30,r16
 1313 069a F10B      		sbc r31,r17
 1314               	.LM211:
 1315 069c C801      		movw r24,r16
 1316 069e 6E2F      		mov r22,r30
 1317 06a0 4D2D      		mov r20,r13
 1318 06a2 0E94 0000 		call findIndex
 1319 06a6 BC01      		movw r22,r24
 1320               	.LVL45:
 1321               	.LM212:
 1322 06a8 8FEF      		ldi r24,hi8(-1)
 1323 06aa 6F3F      		cpi r22,lo8(-1)
 1324 06ac 7807      		cpc r23,r24
 1325 06ae 01F4      		brne .+2
 1326 06b0 00C0      		rjmp .L157
 1327               	.LM213:
 1328 06b2 C801      		movw r24,r16
 1329 06b4 0E94 0000 		call delete
 1330               	.LVL46:
 1331               	.L121:
 1332               	.LM214:
 1333 06b8 8091 0000 		lds r24,_macroBufferIndex
 1334 06bc E82F      		mov r30,r24
 1335 06be F0E0      		ldi r31,lo8(0)
 1336 06c0 E050      		subi r30,lo8(-(_macroInputBuffer))
 1337 06c2 F040      		sbci r31,hi8(-(_macroInputBuffer))
 1338 06c4 D082      		st Z,r13
 1339               	.LM215:
 1340 06c6 8F5F      		subi r24,lo8(-(1))
 1341 06c8 8093 0000 		sts _macroBufferIndex,r24
 1342               	.LM216:
 1343 06cc 8D2D      		mov r24,r13
 1344 06ce 0E94 0000 		call pushM
 1345               	.LM217:
 1346 06d2 8091 0000 		lds r24,_macroBufferIndex
 1347 06d6 8033      		cpi r24,lo8(48)
 1348 06d8 00F0      		brlo .L122
 1349               	.LM218:
 1350 06da 87E0      		ldi r24,lo8(7)
 1351 06dc 8093 0000 		sts _step,r24
 1352               	.LM219:
 1353 06e0 0E94 0000 		call saveMacro
 1354 06e4 00C0      		rjmp .L166
 1355               	.L122:
 1356               	.LM220:
 1357 06e6 CC20      		tst r12
 1358 06e8 01F0      		breq .L123
 1359 06ea A0E0      		ldi r26,lo8(usingKeys)
 1360 06ec B0E0      		ldi r27,hi8(usingKeys)
 1361 06ee EA0E      		add r14,r26
 1362 06f0 FB1E      		adc r15,r27
GAS LISTING C:\Users\ADMINI~1\AppData\Local\Temp/ccSP7hgy.s 			page 25


 1363 06f2 F701      		movw r30,r14
 1364 06f4 8081      		ld r24,Z
 1365 06f6 8932      		cpi r24,lo8(41)
 1366 06f8 01F4      		brne .L123
 1367               	.LM221:
 1368 06fa 81E0      		ldi r24,lo8(1)
 1369 06fc 8093 0000 		sts _isPressedEscapeKey,r24
 1370               	.LM222:
 1371 0700 1092 0000 		sts (_pressedEscapeKeyCount)+1,__zero_reg__
 1372 0704 1092 0000 		sts _pressedEscapeKeyCount,__zero_reg__
 1373 0708 00C0      		rjmp .L157
 1374               	.L123:
 1375               	.LM223:
 1376 070a 1092 0000 		sts _isPressedEscapeKey,__zero_reg__
 1377               	.LM224:
 1378 070e 1092 0000 		sts _isTiredEscapeKey,__zero_reg__
 1379 0712 00C0      		rjmp .L157
 1380               	.L118:
 1381               	.LM225:
 1382 0714 892F      		mov r24,r25
 1383 0716 8750      		subi r24,lo8(-(-7))
 1384 0718 8230      		cpi r24,lo8(2)
 1385 071a 00F0      		brlo .+2
 1386 071c 00C0      		rjmp .L124
 1387               	.LM226:
 1388 071e FAE0      		ldi r31,lo8(10)
 1389 0720 EF16      		cp r14,r31
 1390 0722 F104      		cpc r15,__zero_reg__
 1391 0724 00F0      		brlo .+2
 1392 0726 00C0      		rjmp .L157
 1393               	.LM227:
 1394 0728 E091 0000 		lds r30,_bufferIndex
 1395 072c F0E0      		ldi r31,lo8(0)
 1396 072e E050      		subi r30,lo8(-(_buffer))
 1397 0730 F040      		sbci r31,hi8(-(_buffer))
 1398 0732 E082      		st Z,r14
 1399               	.LM228:
 1400 0734 00D0      		rcall .
 1401 0736 00D0      		rcall .
 1402 0738 00D0      		rcall .
 1403 073a EDB7      		in r30,__SP_L__
 1404 073c FEB7      		in r31,__SP_H__
 1405 073e 3196      		adiw r30,1
 1406 0740 8E01      		movw r16,r28
 1407 0742 0F5F      		subi r16,lo8(-(1))
 1408 0744 1F4F      		sbci r17,hi8(-(1))
 1409 0746 ADB7      		in r26,__SP_L__
 1410 0748 BEB7      		in r27,__SP_H__
 1411 074a 1296      		adiw r26,1+1
 1412 074c 1C93      		st X,r17
 1413 074e 0E93      		st -X,r16
 1414 0750 1197      		sbiw r26,1
 1415 0752 80E0      		ldi r24,lo8(.LC1)
 1416 0754 90E0      		ldi r25,hi8(.LC1)
 1417 0756 9383      		std Z+3,r25
 1418 0758 8283      		std Z+2,r24
 1419 075a F582      		std Z+5,r15
GAS LISTING C:\Users\ADMINI~1\AppData\Local\Temp/ccSP7hgy.s 			page 26


 1420 075c E482      		std Z+4,r14
 1421 075e 0E94 0000 		call sprintf
 1422               	.LM229:
 1423 0762 EDB7      		in r30,__SP_L__
 1424 0764 FEB7      		in r31,__SP_H__
 1425 0766 3696      		adiw r30,6
 1426 0768 0FB6      		in __tmp_reg__,__SREG__
 1427 076a F894      		cli
 1428 076c FEBF      		out __SP_H__,r31
 1429 076e 0FBE      		out __SREG__,__tmp_reg__
 1430 0770 EDBF      		out __SP_L__,r30
 1431 0772 C801      		movw r24,r16
 1432 0774 0E94 0000 		call printString
 1433               	.LM230:
 1434 0778 0E94 0000 		call printEnter
 1435               	.LM231:
 1436 077c 0091 0000 		lds r16,_buffer
 1437               	.LVL47:
 1438               	.LM232:
 1439 0780 8091 0000 		lds r24,_step
 1440 0784 8830      		cpi r24,lo8(8)
 1441 0786 01F4      		brne .L125
 1442               	.LM233:
 1443 0788 0130      		cpi r16,lo8(1)
 1444 078a 01F4      		brne .L126
 1445               	.LM234:
 1446 078c 0093 0000 		sts _mode,r16
 1447               	.LBB80:
 1448               	.LBB81:
 1449               	.LM235:
 1450 0790 0E94 0000 		call printEnter
 1451               	.LM236:
 1452 0794 80E0      		ldi r24,lo8(str_mapper_message)
 1453 0796 90E0      		ldi r25,hi8(str_mapper_message)
 1454 0798 0E94 0000 		call printStringFromFlash
 1455               	.LM237:
 1456 079c 0E94 0000 		call printEnter
 1457               	.LM238:
 1458 07a0 80E0      		ldi r24,lo8(str_mapper_1)
 1459 07a2 90E0      		ldi r25,hi8(str_mapper_1)
 1460 07a4 0E94 0000 		call printStringFromFlash
 1461               	.LM239:
 1462 07a8 0E94 0000 		call printEnter
 1463               	.LM240:
 1464 07ac 80E0      		ldi r24,lo8(str_mapper_2)
 1465 07ae 90E0      		ldi r25,hi8(str_mapper_2)
 1466 07b0 0E94 0000 		call printStringFromFlash
 1467               	.LM241:
 1468 07b4 0093 0000 		sts _isWorkingForEmpty,r16
 1469               	.LM242:
 1470 07b8 8AE0      		ldi r24,lo8(10)
 1471 07ba 8093 0000 		sts _wait,r24
 1472               	.LM243:
 1473 07be 1092 0000 		sts _step,__zero_reg__
 1474 07c2 00C0      		rjmp .L163
 1475               	.L126:
 1476               	.LBE81:
GAS LISTING C:\Users\ADMINI~1\AppData\Local\Temp/ccSP7hgy.s 			page 27


 1477               	.LBE80:
 1478               	.LM244:
 1479 07c4 0230      		cpi r16,lo8(2)
 1480 07c6 01F4      		brne .L128
 1481               	.LM245:
 1482 07c8 0093 0000 		sts _mode,r16
 1483               	.LM246:
 1484 07cc 0E94 0000 		call printMacroMessage
 1485 07d0 00C0      		rjmp .L163
 1486               	.L128:
 1487               	.LM247:
 1488 07d2 0330      		cpi r16,lo8(3)
 1489 07d4 01F4      		brne .L129
 1490               	.LM248:
 1491 07d6 0093 0000 		sts _mode,r16
 1492               	.LM249:
 1493 07da 84E6      		ldi r24,lo8(100)
 1494 07dc 00C0      		rjmp .L162
 1495               	.L129:
 1496               	.LM250:
 1497 07de 0430      		cpi r16,lo8(4)
 1498 07e0 01F0      		breq .+2
 1499 07e2 00C0      		rjmp .L163
 1500               	.LM251:
 1501 07e4 0093 0000 		sts _mode,r16
 1502               	.LM252:
 1503 07e8 88E7      		ldi r24,lo8(120)
 1504 07ea 00C0      		rjmp .L162
 1505               	.L125:
 1506               	.LM253:
 1507 07ec 0630      		cpi r16,lo8(6)
 1508 07ee 01F4      		brne .L130
 1509               	.LM254:
 1510 07f0 8EE6      		ldi r24,lo8(110)
 1511 07f2 8093 0000 		sts _step,r24
 1512               	.L130:
 1513               	.LM255:
 1514 07f6 8091 0000 		lds r24,_mode
 1515 07fa 8130      		cpi r24,lo8(1)
 1516 07fc 01F4      		brne .L131
 1517               	.LM256:
 1518 07fe 0130      		cpi r16,lo8(1)
 1519 0800 01F0      		breq .L160
 1520               	.L132:
 1521               	.LM257:
 1522 0802 0230      		cpi r16,lo8(2)
 1523 0804 01F4      		brne .L133
 1524               	.L160:
 1525               	.LM258:
 1526 0806 0093 0000 		sts _step,r16
 1527 080a 00C0      		rjmp .L163
 1528               	.L133:
 1529               	.LM259:
 1530 080c 0330      		cpi r16,lo8(3)
 1531 080e 01F4      		brne .L134
 1532               	.LM260:
 1533 0810 84E0      		ldi r24,lo8(4)
GAS LISTING C:\Users\ADMINI~1\AppData\Local\Temp/ccSP7hgy.s 			page 28


 1534 0812 8093 0000 		sts _step,r24
 1535               	.LM261:
 1536 0816 0E94 0000 		call saveCurrentLayer
 1537 081a 00C0      		rjmp .L163
 1538               	.L134:
 1539               	.LM262:
 1540 081c 0430      		cpi r16,lo8(4)
 1541 081e 01F4      		brne .L135
 1542               	.LM263:
 1543 0820 85E0      		ldi r24,lo8(5)
 1544 0822 00C0      		rjmp .L162
 1545               	.L135:
 1546               	.LM264:
 1547 0824 0930      		cpi r16,lo8(9)
 1548 0826 01F0      		breq .+2
 1549 0828 00C0      		rjmp .L163
 1550               	.LM265:
 1551 082a 0E94 0000 		call resetCurrentLayer
 1552 082e 00C0      		rjmp .L167
 1553               	.L131:
 1554               	.LM266:
 1555 0830 8230      		cpi r24,lo8(2)
 1556 0832 01F0      		breq .+2
 1557 0834 00C0      		rjmp .L163
 1558               	.LM267:
 1559 0836 0130      		cpi r16,lo8(1)
 1560 0838 01F4      		brne .L136
 1561               	.LM268:
 1562 083a 89E0      		ldi r24,lo8(9)
 1563 083c 00C0      		rjmp .L164
 1564               	.L136:
 1565               	.LM269:
 1566 083e 0230      		cpi r16,lo8(2)
 1567 0840 01F4      		brne .L137
 1568               	.LM270:
 1569 0842 8AE0      		ldi r24,lo8(10)
 1570               	.L162:
 1571 0844 8093 0000 		sts _step,r24
 1572               	.LBB82:
 1573               	.LBB83:
 1574               	.LM271:
 1575 0848 1092 0000 		sts _isKeyMapping,__zero_reg__
 1576               	.LM272:
 1577 084c 1092 0000 		sts _wait,__zero_reg__
 1578 0850 00C0      		rjmp .L163
 1579               	.L137:
 1580               	.LBE83:
 1581               	.LBE82:
 1582               	.LM273:
 1583 0852 0930      		cpi r16,lo8(9)
 1584 0854 01F0      		breq .+2
 1585 0856 00C0      		rjmp .L163
 1586               	.LM274:
 1587 0858 8CE0      		ldi r24,lo8(12)
 1588 085a 8093 0000 		sts _step,r24
 1589               	.LM275:
 1590 085e 0E94 0000 		call clearMacro
GAS LISTING C:\Users\ADMINI~1\AppData\Local\Temp/ccSP7hgy.s 			page 29


 1591 0862 00C0      		rjmp .L163
 1592               	.LVL48:
 1593               	.L124:
 1594               	.LM276:
 1595 0864 9230      		cpi r25,lo8(2)
 1596 0866 01F0      		breq .L138
 1597               	.LM277:
 1598 0868 FAE0      		ldi r31,lo8(10)
 1599 086a EF16      		cp r14,r31
 1600 086c F104      		cpc r15,__zero_reg__
 1601 086e 00F0      		brlo .+2
 1602 0870 00C0      		rjmp .L157
 1603               	.LM278:
 1604 0872 8091 0000 		lds r24,_bufferIndex
 1605 0876 E82F      		mov r30,r24
 1606 0878 F0E0      		ldi r31,lo8(0)
 1607 087a E050      		subi r30,lo8(-(_buffer))
 1608 087c F040      		sbci r31,hi8(-(_buffer))
 1609 087e E082      		st Z,r14
 1610               	.LM279:
 1611 0880 8F5F      		subi r24,lo8(-(1))
 1612 0882 8093 0000 		sts _bufferIndex,r24
 1613               	.LM280:
 1614 0886 00D0      		rcall .
 1615 0888 00D0      		rcall .
 1616 088a 00D0      		rcall .
 1617 088c EDB7      		in r30,__SP_L__
 1618 088e FEB7      		in r31,__SP_H__
 1619 0890 3196      		adiw r30,1
 1620 0892 8E01      		movw r16,r28
 1621 0894 0F5F      		subi r16,lo8(-(1))
 1622 0896 1F4F      		sbci r17,hi8(-(1))
 1623 0898 ADB7      		in r26,__SP_L__
 1624 089a BEB7      		in r27,__SP_H__
 1625 089c 1296      		adiw r26,1+1
 1626 089e 1C93      		st X,r17
 1627 08a0 0E93      		st -X,r16
 1628 08a2 1197      		sbiw r26,1
 1629 08a4 80E0      		ldi r24,lo8(.LC1)
 1630 08a6 90E0      		ldi r25,hi8(.LC1)
 1631 08a8 9383      		std Z+3,r25
 1632 08aa 8283      		std Z+2,r24
 1633 08ac F582      		std Z+5,r15
 1634 08ae E482      		std Z+4,r14
 1635 08b0 0E94 0000 		call sprintf
 1636               	.LM281:
 1637 08b4 EDB7      		in r30,__SP_L__
 1638 08b6 FEB7      		in r31,__SP_H__
 1639 08b8 3696      		adiw r30,6
 1640 08ba 0FB6      		in __tmp_reg__,__SREG__
 1641 08bc F894      		cli
 1642 08be FEBF      		out __SP_H__,r31
 1643 08c0 0FBE      		out __SREG__,__tmp_reg__
 1644 08c2 EDBF      		out __SP_L__,r30
 1645 08c4 C801      		movw r24,r16
 1646 08c6 0E94 0000 		call printString
 1647               	.L138:
GAS LISTING C:\Users\ADMINI~1\AppData\Local\Temp/ccSP7hgy.s 			page 30


 1648               	.LM282:
 1649 08ca FAE0      		ldi r31,lo8(10)
 1650 08cc EF16      		cp r14,r31
 1651 08ce F104      		cpc r15,__zero_reg__
 1652 08d0 00F0      		brlo .L139
 1653 08d2 8091 0000 		lds r24,_step
 1654 08d6 8230      		cpi r24,lo8(2)
 1655 08d8 01F0      		breq .+2
 1656 08da 00C0      		rjmp .L157
 1657               	.L139:
 1658               	.LM283:
 1659 08dc 8091 0000 		lds r24,_step
 1660 08e0 8230      		cpi r24,lo8(2)
 1661 08e2 01F4      		brne .+2
 1662 08e4 00C0      		rjmp .L142
 1663 08e6 8330      		cpi r24,lo8(3)
 1664 08e8 00F4      		brsh .L145
 1665 08ea 8130      		cpi r24,lo8(1)
 1666 08ec 01F0      		breq .+2
 1667 08ee 00C0      		rjmp .L140
 1668 08f0 00C0      		rjmp .L168
 1669               	.L145:
 1670 08f2 8330      		cpi r24,lo8(3)
 1671 08f4 01F4      		brne .+2
 1672 08f6 00C0      		rjmp .L143
 1673 08f8 8930      		cpi r24,lo8(9)
 1674 08fa 01F0      		breq .+2
 1675 08fc 00C0      		rjmp .L140
 1676               	.LM284:
 1677 08fe 8091 0000 		lds r24,_bufferIndex
 1678 0902 8230      		cpi r24,lo8(2)
 1679 0904 01F4      		brne .L146
 1680               	.LM285:
 1681 0906 9091 0000 		lds r25,_buffer
 1682 090a 8AE0      		ldi r24,lo8(10)
 1683 090c 989F      		mul r25,r24
 1684 090e 9001      		movw r18,r0
 1685 0910 1124      		clr r1
 1686               	.LVL49:
 1687               	.LM286:
 1688 0912 8091 0000 		lds r24,_buffer+1
 1689 0916 280F      		add r18,r24
 1690 0918 311D      		adc r19,__zero_reg__
 1691               	.LM287:
 1692 091a C901      		movw r24,r18
 1693 091c 0197      		sbiw r24,1
 1694 091e 0C97      		sbiw r24,12
 1695 0920 00F4      		brsh .L147
 1696               	.LM288:
 1697 0922 822F      		mov r24,r18
 1698               	.LVL50:
 1699 0924 8150      		subi r24,lo8(-(-1))
 1700 0926 8093 0000 		sts _macroIndex,r24
 1701               	.LM289:
 1702 092a 8BE0      		ldi r24,lo8(11)
 1703 092c 8093 0000 		sts _step,r24
 1704               	.LM290:
GAS LISTING C:\Users\ADMINI~1\AppData\Local\Temp/ccSP7hgy.s 			page 31


 1705 0930 0E94 0000 		call resetMacroInput
 1706 0934 00C0      		rjmp .L155
 1707               	.LVL51:
 1708               	.L147:
 1709               	.LM291:
 1710 0936 0E94 0000 		call printEnter
 1711               	.LVL52:
 1712               	.LM292:
 1713 093a 80E0      		ldi r24,lo8(str_invalid_macro_number)
 1714 093c 90E0      		ldi r25,hi8(str_invalid_macro_number)
 1715 093e 00C0      		rjmp .L165
 1716               	.L146:
 1717               	.LM293:
 1718 0940 88EE      		ldi r24,lo8(1000)
 1719 0942 93E0      		ldi r25,hi8(1000)
 1720               	.LVL53:
 1721               	.LBB84:
 1722               	.LBB85:
 1723               	.LBB86:
 1724               	.LBB87:
 1725               	.LM294:
 1726 0944 2CE2      		ldi r18,lo8(300)
 1727 0946 31E0      		ldi r19,hi8(300)
 1728               	.L149:
 1729 0948 F901      		movw r30,r18
 1730               	.LVL54:
 1731               	/* #APP */
 1732               	 ;  105 "c:/winavr-20100110/lib/gcc/../../avr/include/util/delay_basic.h" 1
 1733 094a 3197      		1: sbiw r30,1
 1734 094c 01F4      		brne 1b
 1735               	 ;  0 "" 2
 1736               	/* #NOAPP */
 1737               	.LBE87:
 1738               	.LBE86:
 1739               	.LM295:
 1740 094e 0197      		sbiw r24,1
 1741               	.LM296:
 1742 0950 01F4      		brne .L149
 1743 0952 00C0      		rjmp .L157
 1744               	.LVL55:
 1745               	.L168:
 1746               	.LBE85:
 1747               	.LBE84:
 1748               	.LM297:
 1749 0954 9091 0000 		lds r25,_buffer
 1750               	.LM298:
 1751 0958 8091 0000 		lds r24,_currentLayer
 1752 095c 8330      		cpi r24,lo8(3)
 1753 095e 00F4      		brsh .L150
 1754               	.LM299:
 1755 0960 192F      		mov r17,r25
 1756               	.LVL56:
 1757 0962 1150      		subi r17,lo8(-(-1))
 1758               	.LM300:
 1759 0964 8117      		cp r24,r17
 1760 0966 01F0      		breq .L150
 1761 0968 1330      		cpi r17,lo8(3)
GAS LISTING C:\Users\ADMINI~1\AppData\Local\Temp/ccSP7hgy.s 			page 32


 1762 096a 00F4      		brsh .L150
 1763               	.LM301:
 1764 096c 8091 0000 		lds r24,_editCount
 1765 0970 9091 0000 		lds r25,(_editCount)+1
 1766 0974 1816      		cp __zero_reg__,r24
 1767 0976 1906      		cpc __zero_reg__,r25
 1768 0978 04F4      		brge .L151
 1769               	.LM302:
 1770 097a 0E94 0000 		call printEnter
 1771               	.LM303:
 1772 097e 80E0      		ldi r24,lo8(str_save_layer)
 1773 0980 90E0      		ldi r25,hi8(str_save_layer)
 1774 0982 0E94 0000 		call printStringFromFlash
 1775               	.LM304:
 1776 0986 0E94 0000 		call printEnter
 1777               	.LM305:
 1778 098a 0E94 0000 		call saveCurrentLayer
 1779               	.LM306:
 1780 098e 1093 0000 		sts _currentLayerAfter,r17
 1781 0992 00C0      		rjmp .L163
 1782               	.L151:
 1783               	.LM307:
 1784 0994 0E94 0000 		call printEnter
 1785               	.LM308:
 1786 0998 80E0      		ldi r24,lo8(str_load_layer)
 1787 099a 90E0      		ldi r25,hi8(str_load_layer)
 1788 099c 0E94 0000 		call printStringFromFlash
 1789               	.LM309:
 1790 09a0 0E94 0000 		call printEnter
 1791               	.LM310:
 1792 09a4 87E0      		ldi r24,lo8(7)
 1793 09a6 8093 0000 		sts _step,r24
 1794               	.LM311:
 1795 09aa 1093 0000 		sts _currentLayer,r17
 1796               	.LM312:
 1797 09ae 0E94 0000 		call loadCurrentLayer
 1798 09b2 00C0      		rjmp .L163
 1799               	.L150:
 1800               	.LM313:
 1801 09b4 0E94 0000 		call printEnter
 1802               	.LVL57:
 1803               	.L167:
 1804               	.LM314:
 1805 09b8 87E0      		ldi r24,lo8(7)
 1806 09ba 00C0      		rjmp .L164
 1807               	.LVL58:
 1808               	.L142:
 1809               	.LM315:
 1810 09bc B092 0000 		sts _col,r11
 1811               	.LM316:
 1812 09c0 A092 0000 		sts _row,r10
 1813               	.LM317:
 1814 09c4 80E0      		ldi r24,lo8(str_col_row)
 1815 09c6 90E0      		ldi r25,hi8(str_col_row)
 1816 09c8 0E94 0000 		call printStringFromFlash
 1817               	.LM318:
 1818 09cc 8091 0000 		lds r24,_col
GAS LISTING C:\Users\ADMINI~1\AppData\Local\Temp/ccSP7hgy.s 			page 33


 1819 09d0 8F5F      		subi r24,lo8(-(1))
 1820 09d2 0E94 0000 		call toString
 1821 09d6 0E94 0000 		call printString
 1822               	.LM319:
 1823 09da 80E0      		ldi r24,lo8(.LC2)
 1824 09dc 90E0      		ldi r25,hi8(.LC2)
 1825 09de 0E94 0000 		call printString
 1826               	.LM320:
 1827 09e2 8091 0000 		lds r24,_row
 1828 09e6 8F5F      		subi r24,lo8(-(1))
 1829 09e8 0E94 0000 		call toString
 1830 09ec 0E94 0000 		call printString
 1831               	.LM321:
 1832 09f0 80E0      		ldi r24,lo8(.LC3)
 1833 09f2 90E0      		ldi r25,hi8(.LC3)
 1834 09f4 0E94 0000 		call printString
 1835               	.LM322:
 1836 09f8 8091 0000 		lds r24,_currentLayer
 1837 09fc 8F5F      		subi r24,lo8(-(1))
 1838 09fe 0E94 0000 		call toString
 1839 0a02 0E94 0000 		call printString
 1840               	.LM323:
 1841 0a06 80E0      		ldi r24,lo8(.LC4)
 1842 0a08 90E0      		ldi r25,hi8(.LC4)
 1843 0a0a 0E94 0000 		call printString
 1844               	.LBB88:
 1845               	.LBB89:
 1846               	.LBB90:
 1847               	.LM324:
 1848 0a0e E091 0000 		lds r30,_currentLayer
 1849 0a12 81E1      		ldi r24,lo8(17)
 1850 0a14 E89F      		mul r30,r24
 1851 0a16 F001      		movw r30,r0
 1852 0a18 1124      		clr r1
 1853 0a1a 8091 0000 		lds r24,_row
 1854 0a1e E80F      		add r30,r24
 1855 0a20 F11D      		adc r31,__zero_reg__
 1856 0a22 B3E0      		ldi r27,3
 1857 0a24 EE0F      	1:	lsl r30
 1858 0a26 FF1F      		rol r31
 1859 0a28 BA95      		dec r27
 1860 0a2a 01F4      		brne 1b
 1861 0a2c 8091 0000 		lds r24,_col
 1862 0a30 E80F      		add r30,r24
 1863 0a32 F11D      		adc r31,__zero_reg__
 1864 0a34 E050      		subi r30,lo8(-(keymap_code))
 1865 0a36 F040      		sbci r31,hi8(-(keymap_code))
 1866               	/* #APP */
 1867               	 ;  256 "keymapper.c" 1
 1868 0a38 E491      		lpm r30, Z
 1869               		
 1870               	 ;  0 "" 2
 1871               	.LVL59:
 1872               	/* #NOAPP */
 1873               	.LBE90:
 1874               	.LBE89:
 1875               	.LBE88:
GAS LISTING C:\Users\ADMINI~1\AppData\Local\Temp/ccSP7hgy.s 			page 34


 1876               	.LM325:
 1877 0a3a 8E2F      		mov r24,r30
 1878 0a3c 0E94 0000 		call toString
 1879               	.LVL60:
 1880 0a40 0E94 0000 		call printString
 1881               	.LM326:
 1882 0a44 80E0      		ldi r24,lo8(.LC5)
 1883 0a46 90E0      		ldi r25,hi8(.LC5)
 1884 0a48 0E94 0000 		call printString
 1885               	.LM327:
 1886 0a4c 8091 0000 		lds r24,_col
 1887 0a50 E091 0000 		lds r30,_row
 1888 0a54 F0E0      		ldi r31,lo8(0)
 1889 0a56 A3E0      		ldi r26,3
 1890 0a58 EE0F      	1:	lsl r30
 1891 0a5a FF1F      		rol r31
 1892 0a5c AA95      		dec r26
 1893 0a5e 01F4      		brne 1b
 1894 0a60 E80F      		add r30,r24
 1895 0a62 F11D      		adc r31,__zero_reg__
 1896 0a64 E050      		subi r30,lo8(-(_newKeyMap))
 1897 0a66 F040      		sbci r31,hi8(-(_newKeyMap))
 1898 0a68 8081      		ld r24,Z
 1899 0a6a 0E94 0000 		call toString
 1900 0a6e 0E94 0000 		call printString
 1901               	.LM328:
 1902 0a72 80E0      		ldi r24,lo8(.LC6)
 1903 0a74 90E0      		ldi r25,hi8(.LC6)
 1904 0a76 0E94 0000 		call printString
 1905               	.LM329:
 1906 0a7a 0E94 0000 		call printEnter
 1907               	.LM330:
 1908 0a7e 83E0      		ldi r24,lo8(3)
 1909               	.LVL61:
 1910               	.L164:
 1911 0a80 8093 0000 		sts _step,r24
 1912               	.L163:
 1913               	.LM331:
 1914 0a84 1092 0000 		sts _bufferIndex,__zero_reg__
 1915 0a88 00C0      		rjmp .L140
 1916               	.LVL62:
 1917               	.L143:
 1918               	.LM332:
 1919 0a8a 8091 0000 		lds r24,_bufferIndex
 1920 0a8e 8330      		cpi r24,lo8(3)
 1921 0a90 01F0      		breq .+2
 1922 0a92 00C0      		rjmp .L153
 1923               	.LM333:
 1924 0a94 9091 0000 		lds r25,_buffer
 1925 0a98 84E6      		ldi r24,lo8(100)
 1926 0a9a 989F      		mul r25,r24
 1927 0a9c A001      		movw r20,r0
 1928 0a9e 1124      		clr r1
 1929               	.LVL63:
 1930               	.LM334:
 1931 0aa0 8091 0000 		lds r24,_buffer+1
 1932 0aa4 2AE0      		ldi r18,lo8(10)
GAS LISTING C:\Users\ADMINI~1\AppData\Local\Temp/ccSP7hgy.s 			page 35


 1933 0aa6 829F      		mul r24,r18
 1934 0aa8 C001      		movw r24,r0
 1935 0aaa 1124      		clr r1
 1936 0aac 480F      		add r20,r24
 1937 0aae 591F      		adc r21,r25
 1938               	.LM335:
 1939 0ab0 8091 0000 		lds r24,_buffer+2
 1940 0ab4 480F      		add r20,r24
 1941 0ab6 511D      		adc r21,__zero_reg__
 1942               	.LM336:
 1943 0ab8 4F3F      		cpi r20,255
 1944 0aba 5105      		cpc r21,__zero_reg__
 1945 0abc 04F4      		brge .L154
 1946               	.LM337:
 1947 0abe 8091 0000 		lds r24,_col
 1948 0ac2 E091 0000 		lds r30,_row
 1949 0ac6 F0E0      		ldi r31,lo8(0)
 1950 0ac8 73E0      		ldi r23,3
 1951 0aca EE0F      	1:	lsl r30
 1952 0acc FF1F      		rol r31
 1953 0ace 7A95      		dec r23
 1954 0ad0 01F4      		brne 1b
 1955 0ad2 E80F      		add r30,r24
 1956 0ad4 F11D      		adc r31,__zero_reg__
 1957 0ad6 E050      		subi r30,lo8(-(_newKeyMap))
 1958 0ad8 F040      		sbci r31,hi8(-(_newKeyMap))
 1959 0ada 4083      		st Z,r20
 1960               	.LM338:
 1961 0adc 87E0      		ldi r24,lo8(7)
 1962 0ade 8093 0000 		sts _step,r24
 1963               	.LM339:
 1964 0ae2 8091 0000 		lds r24,_editCount
 1965 0ae6 9091 0000 		lds r25,(_editCount)+1
 1966 0aea 0196      		adiw r24,1
 1967 0aec 9093 0000 		sts (_editCount)+1,r25
 1968 0af0 8093 0000 		sts _editCount,r24
 1969 0af4 00C0      		rjmp .L155
 1970               	.L154:
 1971               	.LM340:
 1972 0af6 0E94 0000 		call printEnter
 1973               	.LVL64:
 1974               	.LM341:
 1975 0afa 80E0      		ldi r24,lo8(str_invalid_keycode)
 1976 0afc 90E0      		ldi r25,hi8(str_invalid_keycode)
 1977               	.L165:
 1978 0afe 0E94 0000 		call printStringFromFlash
 1979               	.LVL65:
 1980               	.L155:
 1981               	.LM342:
 1982 0b02 83E0      		ldi r24,lo8(3)
 1983 0b04 E0E0      		ldi r30,lo8(_buffer)
 1984 0b06 F0E0      		ldi r31,hi8(_buffer)
 1985 0b08 DF01      		movw r26,r30
 1986 0b0a 1D92      		st X+,__zero_reg__
 1987 0b0c 8A95      	        dec r24
 1988 0b0e 01F4      		brne .-6
 1989               	.LM343:
GAS LISTING C:\Users\ADMINI~1\AppData\Local\Temp/ccSP7hgy.s 			page 36


 1990 0b10 1092 0000 		sts _bufferIndex,__zero_reg__
 1991               	.L166:
 1992               	.LM344:
 1993 0b14 0E94 0000 		call printEnter
 1994               	.LVL66:
 1995 0b18 00C0      		rjmp .L140
 1996               	.L153:
 1997 0b1a 88EE      		ldi r24,lo8(1000)
 1998 0b1c 93E0      		ldi r25,hi8(1000)
 1999               	.LVL67:
 2000               	.LBB91:
 2001               	.LBB92:
 2002               	.LBB93:
 2003               	.LBB94:
 2004               	.LM345:
 2005 0b1e 2CE2      		ldi r18,lo8(300)
 2006 0b20 31E0      		ldi r19,hi8(300)
 2007               	.L156:
 2008 0b22 F901      		movw r30,r18
 2009               	.LVL68:
 2010               	/* #APP */
 2011               	 ;  105 "c:/winavr-20100110/lib/gcc/../../avr/include/util/delay_basic.h" 1
 2012 0b24 3197      		1: sbiw r30,1
 2013 0b26 01F4      		brne 1b
 2014               	 ;  0 "" 2
 2015               	/* #NOAPP */
 2016               	.LBE94:
 2017               	.LBE93:
 2018               	.LM346:
 2019 0b28 0197      		sbiw r24,1
 2020               	.LM347:
 2021 0b2a 01F4      		brne .L156
 2022 0b2c 00C0      		rjmp .L157
 2023               	.LVL69:
 2024               	.L140:
 2025               	.LBE92:
 2026               	.LBE91:
 2027               	.LM348:
 2028 0b2e 0E94 0000 		call printPrompt
 2029               	.LVL70:
 2030               	.L157:
 2031               	/* epilogue start */
 2032               	.LM349:
 2033 0b32 0F90      		pop __tmp_reg__
 2034 0b34 0F90      		pop __tmp_reg__
 2035 0b36 0F90      		pop __tmp_reg__
 2036 0b38 CF91      		pop r28
 2037 0b3a DF91      		pop r29
 2038 0b3c 1F91      		pop r17
 2039               	.LVL71:
 2040 0b3e 0F91      		pop r16
 2041               	.LVL72:
 2042 0b40 FF90      		pop r15
 2043 0b42 EF90      		pop r14
 2044               	.LVL73:
 2045 0b44 DF90      		pop r13
 2046               	.LVL74:
GAS LISTING C:\Users\ADMINI~1\AppData\Local\Temp/ccSP7hgy.s 			page 37


 2047 0b46 CF90      		pop r12
 2048               	.LVL75:
 2049 0b48 BF90      		pop r11
 2050               	.LVL76:
 2051 0b4a AF90      		pop r10
 2052               	.LVL77:
 2053 0b4c 0895      		ret
 2054               	.LFE47:
 2055               		.size	putKeyCode, .-putKeyCode
 2056               	.global	saveCurrentLayerAfter
 2057               		.type	saveCurrentLayerAfter, @function
 2058               	saveCurrentLayerAfter:
 2059               	.LFB38:
 2060               	.LM350:
 2061 0b4e BF92      		push r11
 2062 0b50 CF92      		push r12
 2063 0b52 DF92      		push r13
 2064 0b54 EF92      		push r14
 2065 0b56 FF92      		push r15
 2066 0b58 0F93      		push r16
 2067 0b5a 1F93      		push r17
 2068 0b5c CF93      		push r28
 2069 0b5e DF93      		push r29
 2070               	/* prologue: function */
 2071               	/* frame size = 0 */
 2072               	.LM351:
 2073 0b60 EE24      		clr r14
 2074 0b62 FF24      		clr r15
 2075 0b64 CC24      		clr r12
 2076 0b66 DD24      		clr r13
 2077               	.LM352:
 2078 0b68 98E8      		ldi r25,lo8(-120)
 2079 0b6a B92E      		mov r11,r25
 2080 0b6c 00C0      		rjmp .L170
 2081               	.L171:
 2082 0b6e 8091 0000 		lds r24,_currentLayer
 2083 0b72 8B9D      		mul r24,r11
 2084 0b74 C001      		movw r24,r0
 2085 0b76 1124      		clr r1
 2086 0b78 0D96      		adiw r24,13
 2087 0b7a 8C0D      		add r24,r12
 2088 0b7c 9D1D      		adc r25,r13
 2089 0b7e 8C0F      		add r24,r28
 2090 0b80 9D1F      		adc r25,r29
 2091 0b82 F801      		movw r30,r16
 2092 0b84 6191      		ld r22,Z+
 2093 0b86 8F01      		movw r16,r30
 2094 0b88 0E94 0000 		call __eewr_byte_m32
 2095 0b8c 2196      		adiw r28,1
 2096               	.LM353:
 2097 0b8e C830      		cpi r28,8
 2098 0b90 D105      		cpc r29,__zero_reg__
 2099 0b92 01F4      		brne .L171
 2100 0b94 0894      		sec
 2101 0b96 E11C      		adc r14,__zero_reg__
 2102 0b98 F11C      		adc r15,__zero_reg__
 2103 0b9a 88E0      		ldi r24,lo8(8)
GAS LISTING C:\Users\ADMINI~1\AppData\Local\Temp/ccSP7hgy.s 			page 38


 2104 0b9c 90E0      		ldi r25,hi8(8)
 2105 0b9e C80E      		add r12,r24
 2106 0ba0 D91E      		adc r13,r25
 2107               	.LM354:
 2108 0ba2 91E1      		ldi r25,lo8(17)
 2109 0ba4 E916      		cp r14,r25
 2110 0ba6 F104      		cpc r15,__zero_reg__
 2111 0ba8 01F0      		breq .L172
 2112               	.L170:
 2113 0baa 8701      		movw r16,r14
 2114 0bac 83E0      		ldi r24,3
 2115 0bae 000F      	1:	lsl r16
 2116 0bb0 111F      		rol r17
 2117 0bb2 8A95      		dec r24
 2118 0bb4 01F4      		brne 1b
 2119 0bb6 0050      		subi r16,lo8(-(_newKeyMap))
 2120 0bb8 1040      		sbci r17,hi8(-(_newKeyMap))
 2121 0bba C0E0      		ldi r28,lo8(0)
 2122 0bbc D0E0      		ldi r29,hi8(0)
 2123 0bbe 00C0      		rjmp .L171
 2124               	.L172:
 2125               	.LM355:
 2126 0bc0 1092 0000 		sts (_editCount)+1,__zero_reg__
 2127 0bc4 1092 0000 		sts _editCount,__zero_reg__
 2128               	.LM356:
 2129 0bc8 8091 0000 		lds r24,_stepAfterLayerSave
 2130 0bcc 8430      		cpi r24,lo8(4)
 2131 0bce 01F4      		brne .L173
 2132               	.LM357:
 2133 0bd0 8093 0000 		sts _step,r24
 2134               	.LBB95:
 2135               	.LBB96:
 2136               	.LM358:
 2137 0bd4 1092 0000 		sts _isKeyMapping,__zero_reg__
 2138               	.LM359:
 2139 0bd8 1092 0000 		sts _wait,__zero_reg__
 2140 0bdc 00C0      		rjmp .L174
 2141               	.L173:
 2142               	.LBE96:
 2143               	.LBE95:
 2144               	.LM360:
 2145 0bde 8130      		cpi r24,lo8(1)
 2146 0be0 01F4      		brne .L174
 2147               	.LM361:
 2148 0be2 0E94 0000 		call printEnter
 2149               	.LM362:
 2150 0be6 80E0      		ldi r24,lo8(str_load_layer)
 2151 0be8 90E0      		ldi r25,hi8(str_load_layer)
 2152 0bea 0E94 0000 		call printStringFromFlash
 2153               	.LM363:
 2154 0bee 0E94 0000 		call printEnter
 2155               	.LM364:
 2156 0bf2 87E0      		ldi r24,lo8(7)
 2157 0bf4 8093 0000 		sts _step,r24
 2158               	.LM365:
 2159 0bf8 8091 0000 		lds r24,_currentLayerAfter
 2160 0bfc 8093 0000 		sts _currentLayer,r24
GAS LISTING C:\Users\ADMINI~1\AppData\Local\Temp/ccSP7hgy.s 			page 39


 2161               	.LM366:
 2162 0c00 0E94 0000 		call loadCurrentLayer
 2163               	.L174:
 2164               	.LM367:
 2165 0c04 0E94 0000 		call printPrompt
 2166               	/* epilogue start */
 2167               	.LM368:
 2168 0c08 DF91      		pop r29
 2169 0c0a CF91      		pop r28
 2170 0c0c 1F91      		pop r17
 2171 0c0e 0F91      		pop r16
 2172 0c10 FF90      		pop r15
 2173 0c12 EF90      		pop r14
 2174 0c14 DF90      		pop r13
 2175 0c16 CF90      		pop r12
 2176 0c18 BF90      		pop r11
 2177 0c1a 0895      		ret
 2178               	.LFE38:
 2179               		.size	saveCurrentLayerAfter, .-saveCurrentLayerAfter
 2180               	.global	prepareKeyMapper
 2181               		.type	prepareKeyMapper, @function
 2182               	prepareKeyMapper:
 2183               	.LFB37:
 2184               	.LM369:
 2185               	/* prologue: function */
 2186               	/* frame size = 0 */
 2187               	.LM370:
 2188 0c1c 83E0      		ldi r24,lo8(3)
 2189 0c1e E0E0      		ldi r30,lo8(_buffer)
 2190 0c20 F0E0      		ldi r31,hi8(_buffer)
 2191 0c22 DF01      		movw r26,r30
 2192 0c24 1D92      		st X+,__zero_reg__
 2193 0c26 8A95      	        dec r24
 2194 0c28 01F4      		brne .-6
 2195               	.LM371:
 2196 0c2a 1092 0000 		sts _bufferIndex,__zero_reg__
 2197               	.LM372:
 2198 0c2e 1092 0000 		sts _currentLayer,__zero_reg__
 2199               	.LM373:
 2200 0c32 1092 0000 		sts _mode,__zero_reg__
 2201               	.LM374:
 2202 0c36 0E94 0000 		call loadCurrentLayer
 2203               	.LM375:
 2204 0c3a 0E94 0000 		call printSelectMode
 2205               	/* epilogue start */
 2206               	.LM376:
 2207 0c3e 0895      		ret
 2208               	.LFE37:
 2209               		.size	prepareKeyMapper, .-prepareKeyMapper
 2210               	.global	getCurrentKeycode
 2211               		.type	getCurrentKeycode, @function
 2212               	getCurrentKeycode:
 2213               	.LFB25:
 2214               	.LM377:
 2215               	.LVL78:
 2216 0c40 FF92      		push r15
 2217 0c42 0F93      		push r16
GAS LISTING C:\Users\ADMINI~1\AppData\Local\Temp/ccSP7hgy.s 			page 40


 2218 0c44 1F93      		push r17
 2219 0c46 CF93      		push r28
 2220 0c48 DF93      		push r29
 2221               	/* prologue: function */
 2222               	/* frame size = 0 */
 2223 0c4a F82E      		mov r15,r24
 2224               	.LM378:
 2225 0c4c 8091 0000 		lds r24,_isKeyMapping
 2226               	.LVL79:
 2227 0c50 C62F      		mov r28,r22
 2228 0c52 D0E0      		ldi r29,lo8(0)
 2229               	.LVL80:
 2230 0c54 042F      		mov r16,r20
 2231 0c56 10E0      		ldi r17,lo8(0)
 2232               	.LVL81:
 2233 0c58 8823      		tst r24
 2234 0c5a 01F4      		brne .L183
 2235               	.LVL82:
 2236               	.L180:
 2237               	.LBB97:
 2238               	.LM379:
 2239 0c5c 88E8      		ldi r24,lo8(-120)
 2240 0c5e F89E      		mul r15,r24
 2241 0c60 C001      		movw r24,r0
 2242 0c62 1124      		clr r1
 2243 0c64 0D96      		adiw r24,13
 2244 0c66 9E01      		movw r18,r28
 2245 0c68 43E0      		ldi r20,3
 2246 0c6a 220F      	1:	lsl r18
 2247 0c6c 331F      		rol r19
 2248 0c6e 4A95      		dec r20
 2249 0c70 01F4      		brne 1b
 2250 0c72 820F      		add r24,r18
 2251 0c74 931F      		adc r25,r19
 2252 0c76 800F      		add r24,r16
 2253 0c78 911F      		adc r25,r17
 2254 0c7a 0E94 0000 		call __eerd_byte_m32
 2255 0c7e 982F      		mov r25,r24
 2256               	.LVL83:
 2257               	.LBE97:
 2258               	.LM380:
 2259 0c80 8150      		subi r24,lo8(-(-1))
 2260 0c82 8E3F      		cpi r24,lo8(-2)
 2261 0c84 00F0      		brlo .L181
 2262               	.LVL84:
 2263               	.L183:
 2264               	.LBB98:
 2265               	.LBB99:
 2266               	.LBB100:
 2267               	.LM381:
 2268 0c86 81E1      		ldi r24,lo8(17)
 2269 0c88 F89E      		mul r15,r24
 2270 0c8a C001      		movw r24,r0
 2271 0c8c 1124      		clr r1
 2272 0c8e C80F      		add r28,r24
 2273 0c90 D91F      		adc r29,r25
 2274               	.LVL85:
GAS LISTING C:\Users\ADMINI~1\AppData\Local\Temp/ccSP7hgy.s 			page 41


 2275 0c92 23E0      		ldi r18,3
 2276 0c94 CC0F      	1:	lsl r28
 2277 0c96 DD1F      		rol r29
 2278 0c98 2A95      		dec r18
 2279 0c9a 01F4      		brne 1b
 2280               	.LVL86:
 2281 0c9c C00F      		add r28,r16
 2282 0c9e D11F      		adc r29,r17
 2283               	.LVL87:
 2284 0ca0 C050      		subi r28,lo8(-(keymap_code))
 2285 0ca2 D040      		sbci r29,hi8(-(keymap_code))
 2286               	.LVL88:
 2287 0ca4 FE01      		movw r30,r28
 2288               	/* #APP */
 2289               	 ;  256 "keymapper.c" 1
 2290 0ca6 9491      		lpm r25, Z
 2291               		
 2292               	 ;  0 "" 2
 2293               	/* #NOAPP */
 2294               	.L181:
 2295               	.LBE100:
 2296               	.LBE99:
 2297               	.LBE98:
 2298               	.LM382:
 2299 0ca8 892F      		mov r24,r25
 2300               	/* epilogue start */
 2301 0caa DF91      		pop r29
 2302               	.LVL89:
 2303 0cac CF91      		pop r28
 2304               	.LVL90:
 2305 0cae 1F91      		pop r17
 2306               	.LVL91:
 2307 0cb0 0F91      		pop r16
 2308               	.LVL92:
 2309 0cb2 FF90      		pop r15
 2310               	.LVL93:
 2311 0cb4 0895      		ret
 2312               	.LFE25:
 2313               		.size	getCurrentKeycode, .-getCurrentKeycode
 2314               	.global	applyMacro
 2315               		.type	applyMacro, @function
 2316               	applyMacro:
 2317               	.LFB40:
 2318               	.LM383:
 2319               	.LVL94:
 2320 0cb6 1F93      		push r17
 2321               	/* prologue: function */
 2322               	/* frame size = 0 */
 2323 0cb8 982F      		mov r25,r24
 2324               	.LM384:
 2325 0cba 8091 0000 		lds r24,_isKeyMapping
 2326               	.LVL95:
 2327 0cbe 80FD      		sbrc r24,0
 2328 0cc0 00C0      		rjmp .L185
 2329               	.LBB101:
 2330               	.LBB102:
 2331               	.LM385:
GAS LISTING C:\Users\ADMINI~1\AppData\Local\Temp/ccSP7hgy.s 			page 42


 2332 0cc2 192F      		mov r17,r25
 2333 0cc4 195C      		subi r17,lo8(-(55))
 2334 0cc6 1C30      		cpi r17,lo8(12)
 2335 0cc8 00F4      		brsh .L185
 2336               	.LBE102:
 2337               	.LBE101:
 2338               	.LM386:
 2339 0cca 0E94 0000 		call isEmptyM
 2340               	.LVL96:
 2341 0cce 8823      		tst r24
 2342 0cd0 01F0      		breq .L185
 2343               	.LM387:
 2344 0cd2 0E94 0000 		call clearMacroPressedBuffer
 2345               	.LM388:
 2346 0cd6 812F      		mov r24,r17
 2347 0cd8 0E94 0000 		call readMacro
 2348 0cdc 81E0      		ldi r24,lo8(1)
 2349 0cde 00C0      		rjmp .L186
 2350               	.LVL97:
 2351               	.L185:
 2352               	.LM389:
 2353 0ce0 80E0      		ldi r24,lo8(0)
 2354               	.L186:
 2355               	/* epilogue start */
 2356               	.LM390:
 2357 0ce2 1F91      		pop r17
 2358 0ce4 0895      		ret
 2359               	.LFE40:
 2360               		.size	applyMacro, .-applyMacro
 2361               	.global	startKeyMapping
 2362               		.type	startKeyMapping, @function
 2363               	startKeyMapping:
 2364               	.LFB17:
 2365               	.LM391:
 2366               	/* prologue: function */
 2367               	/* frame size = 0 */
 2368               	.LBB103:
 2369               	.LBB104:
 2370               	.LM392:
 2371 0ce6 8091 0000 		lds r24,_isKeyMapping
 2372               	.LBE104:
 2373               	.LBE103:
 2374               	.LM393:
 2375 0cea 80FF      		sbrs r24,0
 2376 0cec 00C0      		rjmp .L190
 2377 0cee 81FD      		sbrc r24,1
 2378 0cf0 00C0      		rjmp .L190
 2379 0cf2 0E94 0000 		call isAllKeyRelease
 2380 0cf6 8823      		tst r24
 2381 0cf8 01F0      		breq .L190
 2382               	.LBB105:
 2383               	.LBB106:
 2384               	.LM394:
 2385 0cfa 8091 0000 		lds r24,_isKeyMapping
 2386 0cfe 8260      		ori r24,lo8(2)
 2387 0d00 8093 0000 		sts _isKeyMapping,r24
 2388               	.LM395:
GAS LISTING C:\Users\ADMINI~1\AppData\Local\Temp/ccSP7hgy.s 			page 43


 2389 0d04 0E94 0000 		call prepareKeyMapper
 2390               	.L190:
 2391 0d08 0895      		ret
 2392               	.LBE106:
 2393               	.LBE105:
 2394               	.LFE17:
 2395               		.size	startKeyMapping, .-startKeyMapping
 2396               	.global	prepareKeyMapping
 2397               		.type	prepareKeyMapping, @function
 2398               	prepareKeyMapping:
 2399               	.LFB12:
 2400               	.LM396:
 2401               	/* prologue: function */
 2402               	/* frame size = 0 */
 2403               	.LBB107:
 2404               	.LBB108:
 2405               	.LM397:
 2406 0d0a 8091 0000 		lds r24,_isKeyMapping
 2407 0d0e 8160      		ori r24,lo8(1)
 2408 0d10 8093 0000 		sts _isKeyMapping,r24
 2409               	.LBE108:
 2410               	.LBE107:
 2411               	.LM398:
 2412 0d14 8091 0000 		lds r24,INTERFACE
 2413 0d18 8150      		subi r24,lo8(-(-1))
 2414 0d1a 8230      		cpi r24,lo8(2)
 2415 0d1c 00F4      		brsh .L192
 2416               	.LM399:
 2417 0d1e 0E94 0000 		call prepareKeyMappingUsb
 2418 0d22 00C0      		rjmp .L193
 2419               	.L192:
 2420               	.LM400:
 2421 0d24 0E94 0000 		call prepareKeyMappingPs2
 2422               	.LM401:
 2423 0d28 84EC      		ldi r24,lo8(2500)
 2424 0d2a 99E0      		ldi r25,hi8(2500)
 2425 0d2c 9093 0000 		sts (keyMappingCountMax)+1,r25
 2426 0d30 8093 0000 		sts keyMappingCountMax,r24
 2427               	.L193:
 2428               	.LM402:
 2429 0d34 0E94 0000 		call printPrepareString
 2430               	/* epilogue start */
 2431               	.LM403:
 2432 0d38 0895      		ret
 2433               	.LFE12:
 2434               		.size	prepareKeyMapping, .-prepareKeyMapping
 2435               	.global	countKeyMappingEnabled
 2436               		.type	countKeyMappingEnabled, @function
 2437               	countKeyMappingEnabled:
 2438               	.LFB19:
 2439               	.LM404:
 2440               	/* prologue: function */
 2441               	/* frame size = 0 */
 2442               	.LM405:
 2443 0d3a 8091 0000 		lds r24,_isKeyMapping
 2444 0d3e 8823      		tst r24
 2445 0d40 01F4      		brne .L197
GAS LISTING C:\Users\ADMINI~1\AppData\Local\Temp/ccSP7hgy.s 			page 44


 2446 0d42 8091 0000 		lds r24,enabledKeyMappingCount
 2447 0d46 8823      		tst r24
 2448 0d48 01F0      		breq .L197
 2449 0d4a 8091 0000 		lds r24,keyMappingCount
 2450 0d4e 9091 0000 		lds r25,(keyMappingCount)+1
 2451 0d52 0196      		adiw r24,1
 2452 0d54 9093 0000 		sts (keyMappingCount)+1,r25
 2453 0d58 8093 0000 		sts keyMappingCount,r24
 2454 0d5c 2091 0000 		lds r18,keyMappingCountMax
 2455 0d60 3091 0000 		lds r19,(keyMappingCountMax)+1
 2456 0d64 2817      		cp r18,r24
 2457 0d66 3907      		cpc r19,r25
 2458 0d68 04F4      		brge .L197
 2459               	.LM406:
 2460 0d6a 1092 0000 		sts enabledKeyMappingCount,__zero_reg__
 2461               	.LM407:
 2462 0d6e 0E94 0000 		call prepareKeyMapping
 2463               	.L197:
 2464 0d72 0895      		ret
 2465               	.LFE19:
 2466               		.size	countKeyMappingEnabled, .-countKeyMappingEnabled
 2467               	.global	enterFrameForMapper
 2468               		.type	enterFrameForMapper, @function
 2469               	enterFrameForMapper:
 2470               	.LFB20:
 2471               	.LM408:
 2472               	/* prologue: function */
 2473               	/* frame size = 0 */
 2474               	.LM409:
 2475 0d74 0E94 0000 		call countKeyMappingEnabled
 2476               	.LM410:
 2477 0d78 8091 0000 		lds r24,_isKeyMapping
 2478 0d7c 81FF      		sbrs r24,1
 2479 0d7e 00C0      		rjmp .L205
 2480               	.LM411:
 2481 0d80 8091 0000 		lds r24,_isWorkingForEmpty
 2482 0d84 8823      		tst r24
 2483 0d86 01F0      		breq .L200
 2484 0d88 0E94 0000 		call isMacroProcessEnd
 2485 0d8c 8823      		tst r24
 2486 0d8e 01F0      		breq .L200
 2487               	.LM412:
 2488 0d90 8091 0000 		lds r24,_wait
 2489 0d94 8B30      		cpi r24,lo8(11)
 2490 0d96 01F4      		brne .L201
 2491               	.LM413:
 2492 0d98 0E94 0000 		call saveCurrentLayerAfter
 2493 0d9c 00C0      		rjmp .L202
 2494               	.L201:
 2495               	.LM414:
 2496 0d9e 8A30      		cpi r24,lo8(10)
 2497 0da0 01F4      		brne .L203
 2498               	.LM415:
 2499 0da2 0E94 0000 		call printMapperMessageAfter
 2500 0da6 00C0      		rjmp .L202
 2501               	.L203:
 2502               	.LM416:
GAS LISTING C:\Users\ADMINI~1\AppData\Local\Temp/ccSP7hgy.s 			page 45


 2503 0da8 8C30      		cpi r24,lo8(12)
 2504 0daa 01F4      		brne .L204
 2505               	.LM417:
 2506 0dac 0E94 0000 		call clearMacroAfter
 2507 0db0 00C0      		rjmp .L202
 2508               	.L204:
 2509               	.LM418:
 2510 0db2 1092 0000 		sts _isWorkingForEmpty,__zero_reg__
 2511               	.L202:
 2512               	.LM419:
 2513 0db6 1092 0000 		sts _wait,__zero_reg__
 2514               	.L200:
 2515               	.LM420:
 2516 0dba 8091 0000 		lds r24,_isPressedEscapeKey
 2517 0dbe 8823      		tst r24
 2518 0dc0 01F0      		breq .L205
 2519 0dc2 8091 0000 		lds r24,_pressedEscapeKeyCount
 2520 0dc6 9091 0000 		lds r25,(_pressedEscapeKeyCount)+1
 2521 0dca 0196      		adiw r24,1
 2522 0dcc 9093 0000 		sts (_pressedEscapeKeyCount)+1,r25
 2523 0dd0 8093 0000 		sts _pressedEscapeKeyCount,r24
 2524 0dd4 895E      		subi r24,lo8(1001)
 2525 0dd6 9340      		sbci r25,hi8(1001)
 2526 0dd8 04F0      		brlt .L205
 2527               	.LM421:
 2528 0dda 81E0      		ldi r24,lo8(1)
 2529 0ddc 8093 0000 		sts _isTiredEscapeKey,r24
 2530               	.LM422:
 2531 0de0 89E2      		ldi r24,lo8(41)
 2532 0de2 6FEF      		ldi r22,lo8(-1)
 2533 0de4 4FEF      		ldi r20,lo8(-1)
 2534 0de6 20E0      		ldi r18,lo8(0)
 2535 0de8 0E94 0000 		call putKeyCode
 2536               	.L205:
 2537 0dec 0895      		ret
 2538               	.LFE20:
 2539               		.size	enterFrameForMapper, .-enterFrameForMapper
 2540               	.global	startKeyMappingOnBoot
 2541               		.type	startKeyMappingOnBoot, @function
 2542               	startKeyMappingOnBoot:
 2543               	.LFB16:
 2544               	.LM423:
 2545               	/* prologue: function */
 2546               	/* frame size = 0 */
 2547               	.LM424:
 2548 0dee 0E94 0000 		call isBootMapper
 2549 0df2 8823      		tst r24
 2550 0df4 01F0      		breq .L207
 2551               	.LM425:
 2552 0df6 1092 0000 		sts _keyMappingOnBoot,__zero_reg__
 2553 0dfa 0895      		ret
 2554               	.L207:
 2555               	.LM426:
 2556 0dfc 8091 0000 		lds r24,_keyMappingOnBoot
 2557 0e00 8130      		cpi r24,lo8(1)
 2558 0e02 01F4      		brne .L209
 2559               	.LM427:
GAS LISTING C:\Users\ADMINI~1\AppData\Local\Temp/ccSP7hgy.s 			page 46


 2560 0e04 0E94 0000 		call prepareKeyMapping
 2561               	.LM428:
 2562 0e08 1092 0000 		sts _keyMappingOnBoot,__zero_reg__
 2563               	.L209:
 2564 0e0c 0895      		ret
 2565               	.LFE16:
 2566               		.size	startKeyMappingOnBoot, .-startKeyMappingOnBoot
 2567               	.global	str_select_mode
 2568               		.section	.progmem.data,"a",@progbits
 2569               		.type	str_select_mode, @object
 2570               		.size	str_select_mode, 12
 2571               	str_select_mode:
 2572 0000 7365 6C65 		.string	"select mode"
 2572      6374 206D 
 2572      6F64 6500 
 2573               	.global	str_select_mode1
 2574               		.type	str_select_mode1, @object
 2575               		.size	str_select_mode1, 14
 2576               	str_select_mode1:
 2577 000c 313A 4B65 		.string	"1:Key Mapping"
 2577      7920 4D61 
 2577      7070 696E 
 2577      6700 
 2578               	.global	str_select_mode2
 2579               		.type	str_select_mode2, @object
 2580               		.size	str_select_mode2, 8
 2581               	str_select_mode2:
 2582 001a 323A 4D61 		.string	"2:Macro"
 2582      6372 6F00 
 2583               	.global	str_select_mode3
 2584               		.type	str_select_mode3, @object
 2585               		.size	str_select_mode3, 7
 2586               	str_select_mode3:
 2587 0022 333A 4578 		.string	"3:Exit"
 2587      6974 00
 2588               	.global	str_select_mode4
 2589               		.type	str_select_mode4, @object
 2590               		.size	str_select_mode4, 14
 2591               	str_select_mode4:
 2592 0029 343A 626F 		.string	"4:boot mapper"
 2592      6F74 206D 
 2592      6170 7065 
 2592      7200 
 2593               	.global	str_exit
 2594               		.type	str_exit, @object
 2595               		.size	str_exit, 10
 2596               	str_exit:
 2597 0037 676F 6F64 		.string	"good bye~"
 2597      2062 7965 
 2597      7E00 
 2598               	.global	str_boot_mapper
 2599               		.type	str_boot_mapper, @object
 2600               		.size	str_boot_mapper, 19
 2601               	str_boot_mapper:
 2602 0041 626F 6F74 		.string	"boot mapper start!"
 2602      206D 6170 
 2602      7065 7220 
GAS LISTING C:\Users\ADMINI~1\AppData\Local\Temp/ccSP7hgy.s 			page 47


 2602      7374 6172 
 2602      7421 00
 2603               	.global	str_macro_message
 2604               		.type	str_macro_message, @object
 2605               		.size	str_macro_message, 6
 2606               	str_macro_message:
 2607 0054 4D61 6372 		.string	"Macro"
 2607      6F00 
 2608               	.global	str_macro_1
 2609               		.type	str_macro_1, @object
 2610               		.size	str_macro_1, 21
 2611               	str_macro_1:
 2612 005a 313A 5365 		.string	"1:Select Macro Index"
 2612      6C65 6374 
 2612      204D 6163 
 2612      726F 2049 
 2612      6E64 6578 
 2613               	.global	str_macro_2
 2614               		.type	str_macro_2, @object
 2615               		.size	str_macro_2, 7
 2616               	str_macro_2:
 2617 006f 323A 4578 		.string	"2:Exit"
 2617      6974 00
 2618               	.global	str_macro_9
 2619               		.type	str_macro_9, @object
 2620               		.size	str_macro_9, 12
 2621               	str_macro_9:
 2622 0076 393A 436C 		.string	"9:Clear All"
 2622      6561 7220 
 2622      416C 6C00 
 2623               	.global	str_back_6
 2624               		.type	str_back_6, @object
 2625               		.size	str_back_6, 7
 2626               	str_back_6:
 2627 0082 363A 4261 		.string	"6:Back"
 2627      636B 00
 2628               	.global	str_mapper_message
 2629               		.type	str_mapper_message, @object
 2630               		.size	str_mapper_message, 11
 2631               	str_mapper_message:
 2632 0089 4B65 7920 		.string	"Key Mapper"
 2632      4D61 7070 
 2632      6572 00
 2633               	.global	str_mapper_1
 2634               		.type	str_mapper_1, @object
 2635               		.size	str_mapper_1, 15
 2636               	str_mapper_1:
 2637 0094 313A 4368 		.string	"1:Change Layer"
 2637      616E 6765 
 2637      204C 6179 
 2637      6572 00
 2638               	.global	str_mapper_2
 2639               		.type	str_mapper_2, @object
 2640               		.size	str_mapper_2, 29
 2641               	str_mapper_2:
 2642 00a3 323A 5365 		.string	"2:Select Key - input keycode"
 2642      6C65 6374 
GAS LISTING C:\Users\ADMINI~1\AppData\Local\Temp/ccSP7hgy.s 			page 48


 2642      204B 6579 
 2642      202D 2069 
 2642      6E70 7574 
 2643               	.global	str_mapper_3
 2644               		.type	str_mapper_3, @object
 2645               		.size	str_mapper_3, 16
 2646               	str_mapper_3:
 2647 00c0 333A 5361 		.string	"3:Save and Exit"
 2647      7665 2061 
 2647      6E64 2045 
 2647      7869 7400 
 2648               	.global	str_mapper_4
 2649               		.type	str_mapper_4, @object
 2650               		.size	str_mapper_4, 22
 2651               	str_mapper_4:
 2652 00d0 343A 4578 		.string	"4:Exit without Saving"
 2652      6974 2077 
 2652      6974 686F 
 2652      7574 2053 
 2652      6176 696E 
 2653               	.global	str_mapper_9
 2654               		.type	str_mapper_9, @object
 2655               		.size	str_mapper_9, 35
 2656               	str_mapper_9:
 2657 00e6 393A 5265 		.string	"9:Reset to Default (Current Layer)"
 2657      7365 7420 
 2657      746F 2044 
 2657      6566 6175 
 2657      6C74 2028 
 2658               	.global	str_prepare_message
 2659               		.type	str_prepare_message, @object
 2660               		.size	str_prepare_message, 8
 2661               	str_prepare_message:
 2662 0109 7073 3261 		.string	"ps2avrU"
 2662      7672 5500 
 2663               	.global	str_choose_layer
 2664               		.type	str_choose_layer, @object
 2665               		.size	str_choose_layer, 50
 2666               	str_choose_layer:
 2667 0111 6368 6F6F 		.string	"choose layer (1: normal, 2: FN, 3: FN2) current= "
 2667      7365 206C 
 2667      6179 6572 
 2667      2028 313A 
 2667      206E 6F72 
 2668               	.global	str_choose_key
 2669               		.type	str_choose_key, @object
 2670               		.size	str_choose_key, 31
 2671               	str_choose_key:
 2672 0143 7365 6C65 		.string	"select key (any key you want) "
 2672      6374 206B 
 2672      6579 2028 
 2672      616E 7920 
 2672      6B65 7920 
 2673               	.global	str_input_keycode
 2674               		.type	str_input_keycode, @object
 2675               		.size	str_input_keycode, 34
 2676               	str_input_keycode:
GAS LISTING C:\Users\ADMINI~1\AppData\Local\Temp/ccSP7hgy.s 			page 49


 2677 0162 696E 7075 		.string	"input keycode (must 3 numbers) : "
 2677      7420 6B65 
 2677      7963 6F64 
 2677      6520 286D 
 2677      7573 7420 
 2678               	.global	str_save_end_mapping
 2679               		.type	str_save_end_mapping, @object
 2680               		.size	str_save_end_mapping, 24
 2681               	str_save_end_mapping:
 2682 0184 5361 7665 		.string	"Save & Exit, thank you."
 2682      2026 2045 
 2682      7869 742C 
 2682      2074 6861 
 2682      6E6B 2079 
 2683               	.global	str_cancel_mapping
 2684               		.type	str_cancel_mapping, @object
 2685               		.size	str_cancel_mapping, 36
 2686               	str_cancel_mapping:
 2687 019c 4578 6974 		.string	"Exit without Saving, see you later."
 2687      2077 6974 
 2687      686F 7574 
 2687      2053 6176 
 2687      696E 672C 
 2688               	.global	str_reset_mapping
 2689               		.type	str_reset_mapping, @object
 2690               		.size	str_reset_mapping, 31
 2691               	str_reset_mapping:
 2692 01c0 5265 7365 		.string	"Reset to default current layer"
 2692      7420 746F 
 2692      2064 6566 
 2692      6175 6C74 
 2692      2063 7572 
 2693               	.global	str_input_command
 2694               		.type	str_input_command, @object
 2695               		.size	str_input_command, 23
 2696               	str_input_command:
 2697 01df 496E 7075 		.string	"Input Command Number: "
 2697      7420 436F 
 2697      6D6D 616E 
 2697      6420 4E75 
 2697      6D62 6572 
 2698               	.global	str_nothing
 2699               		.type	str_nothing, @object
 2700               		.size	str_nothing, 8
 2701               	str_nothing:
 2702 01f6 6E6F 7468 		.string	"nothing"
 2702      696E 6700 
 2703               	.global	str_save_layer
 2704               		.type	str_save_layer, @object
 2705               		.size	str_save_layer, 19
 2706               	str_save_layer:
 2707 01fe 5361 7665 		.string	"Save current layer"
 2707      2063 7572 
 2707      7265 6E74 
 2707      206C 6179 
 2707      6572 00
 2708               	.global	str_load_layer
GAS LISTING C:\Users\ADMINI~1\AppData\Local\Temp/ccSP7hgy.s 			page 50


 2709               		.type	str_load_layer, @object
 2710               		.size	str_load_layer, 19
 2711               	str_load_layer:
 2712 0211 4C6F 6164 		.string	"Load current layer"
 2712      2063 7572 
 2712      7265 6E74 
 2712      206C 6179 
 2712      6572 00
 2713               	.global	str_saving
 2714               		.type	str_saving, @object
 2715               		.size	str_saving, 10
 2716               	str_saving:
 2717 0224 7361 7669 		.string	"saving..."
 2717      6E67 2E2E 
 2717      2E00 
 2718               	.global	str_col_row
 2719               		.type	str_col_row, @object
 2720               		.size	str_col_row, 12
 2721               	str_col_row:
 2722 022e 636F 6C2C 		.string	"col, row : "
 2722      2072 6F77 
 2722      203A 2000 
 2723               	.global	str_invalid_keycode
 2724               		.type	str_invalid_keycode, @object
 2725               		.size	str_invalid_keycode, 30
 2726               	str_invalid_keycode:
 2727 023a 696E 7661 		.string	"invalid keycode, input again."
 2727      6C69 6420 
 2727      6B65 7963 
 2727      6F64 652C 
 2727      2069 6E70 
 2728               	.global	str_select_number
 2729               		.type	str_select_number, @object
 2730               		.size	str_select_number, 45
 2731               	str_select_number:
 2732 0258 696E 7075 		.string	"input Macro Index (01~12, must 2 numbers) : "
 2732      7420 4D61 
 2732      6372 6F20 
 2732      496E 6465 
 2732      7820 2830 
 2733               	.global	str_exit_macro
 2734               		.type	str_exit_macro, @object
 2735               		.size	str_exit_macro, 27
 2736               	str_exit_macro:
 2737 0285 4578 6974 		.string	"Exit macro, see you later."
 2737      206D 6163 
 2737      726F 2C20 
 2737      7365 6520 
 2737      796F 7520 
 2738               	.global	str_input_macro
 2739               		.type	str_input_macro, @object
 2740               		.size	str_input_macro, 55
 2741               	str_input_macro:
 2742 02a0 696E 7075 		.string	"input key (max 24 keys, stop : press ESC during 1 sec)"
 2742      7420 6B65 
 2742      7920 286D 
 2742      6178 2032 
GAS LISTING C:\Users\ADMINI~1\AppData\Local\Temp/ccSP7hgy.s 			page 51


 2742      3420 6B65 
 2743               	.global	str_invalid_macro_number
 2744               		.type	str_invalid_macro_number, @object
 2745               		.size	str_invalid_macro_number, 28
 2746               	str_invalid_macro_number:
 2747 02d7 696E 7661 		.string	"invalid Index, input again."
 2747      6C69 6420 
 2747      496E 6465 
 2747      782C 2069 
 2747      6E70 7574 
 2748               	.global	str_clear_all_macro
 2749               		.type	str_clear_all_macro, @object
 2750               		.size	str_clear_all_macro, 9
 2751               	str_clear_all_macro:
 2752 02f3 636C 6561 		.string	"clear..."
 2752      722E 2E2E 
 2752      00
 2753               	.global	_pressedEscapeKeyCount
 2754               	.global	_pressedEscapeKeyCount
 2755               		.section .bss
 2756               		.type	_pressedEscapeKeyCount, @object
 2757               		.size	_pressedEscapeKeyCount, 2
 2758               	_pressedEscapeKeyCount:
 2759 0000 0000      		.skip 2,0
 2760               	.global	_isPressedEscapeKey
 2761               	.global	_isPressedEscapeKey
 2762               		.type	_isPressedEscapeKey, @object
 2763               		.size	_isPressedEscapeKey, 1
 2764               	_isPressedEscapeKey:
 2765 0002 00        		.skip 1,0
 2766               	.global	_isTiredEscapeKey
 2767               	.global	_isTiredEscapeKey
 2768               		.type	_isTiredEscapeKey, @object
 2769               		.size	_isTiredEscapeKey, 1
 2770               	_isTiredEscapeKey:
 2771 0003 00        		.skip 1,0
 2772               		.lcomm _isWorkingForEmpty,1
 2773               		.data
 2774               		.type	usingKeys, @object
 2775               		.size	usingKeys, 11
 2776               	usingKeys:
 2777 0028 27        		.byte	39
 2778 0029 1E        		.byte	30
 2779 002a 1F        		.byte	31
 2780 002b 20        		.byte	32
 2781 002c 21        		.byte	33
 2782 002d 22        		.byte	34
 2783 002e 23        		.byte	35
 2784 002f 24        		.byte	36
 2785 0030 25        		.byte	37
 2786 0031 26        		.byte	38
 2787 0032 29        		.byte	41
 2788               		.lcomm _macroDownCount,1
 2789               		.lcomm _isKeyMapping,1
 2790               		.lcomm enabledKeyMappingCount,1
 2791               		.lcomm keyMappingCount,2
 2792               		.type	keyMappingCountMax, @object
GAS LISTING C:\Users\ADMINI~1\AppData\Local\Temp/ccSP7hgy.s 			page 52


 2793               		.size	keyMappingCountMax, 2
 2794               	keyMappingCountMax:
 2795 0033 8813      		.word	5000
 2796               		.lcomm _keyMappingOnBoot,1
 2797               		.lcomm _mode,1
 2798               		.lcomm _step,1
 2799               		.lcomm _stepAfterLayerSave,1
 2800               		.lcomm _wait,1
 2801               		.lcomm _col,1
 2802               		.lcomm _row,1
 2803               		.lcomm _buffer,3
 2804               		.lcomm _bufferIndex,1
 2805               		.lcomm _editCount,2
 2806               		.lcomm _currentLayer,1
 2807               		.lcomm _currentLayerAfter,1
 2808               		.comm _macroIndex,1,1
 2809               		.comm _macroBufferIndex,1,1
 2810               		.comm _macroPressedBuffer,24,1
 2811               		.comm _macroInputBuffer,48,1
 2812               		.comm _newKeyMap,136,1
 2813               		.section	.debug_frame,"",@progbits
 2814               	.Lframe0:
 2815 0000 0C00 0000 		.long	.LECIE0-.LSCIE0
 2816               	.LSCIE0:
 2817 0004 FFFF FFFF 		.long	0xffffffff
 2818 0008 01        		.byte	0x1
 2819 0009 00        		.string	""
 2820 000a 01        		.uleb128 0x1
 2821 000b 7F        		.sleb128 -1
 2822 000c 24        		.byte	0x24
 2823 000d 0C        		.byte	0xc
 2824 000e 20        		.uleb128 0x20
 2825 000f 00        		.uleb128 0x0
 2826               		.p2align	2
 2827               	.LECIE0:
 2828               	.LSFDE0:
 2829 0010 0C00 0000 		.long	.LEFDE0-.LASFDE0
 2830               	.LASFDE0:
 2831 0014 0000 0000 		.long	.Lframe0
 2832 0018 0000 0000 		.long	.LFB8
 2833 001c 0C00 0000 		.long	.LFE8-.LFB8
 2834               		.p2align	2
 2835               	.LEFDE0:
 2836               	.LSFDE2:
 2837 0020 0C00 0000 		.long	.LEFDE2-.LASFDE2
 2838               	.LASFDE2:
 2839 0024 0000 0000 		.long	.Lframe0
 2840 0028 0000 0000 		.long	.LFB9
 2841 002c 0800 0000 		.long	.LFE9-.LFB9
 2842               		.p2align	2
 2843               	.LEFDE2:
 2844               	.LSFDE4:
 2845 0030 0C00 0000 		.long	.LEFDE4-.LASFDE4
 2846               	.LASFDE4:
 2847 0034 0000 0000 		.long	.Lframe0
 2848 0038 0000 0000 		.long	.LFB10
 2849 003c 0800 0000 		.long	.LFE10-.LFB10
GAS LISTING C:\Users\ADMINI~1\AppData\Local\Temp/ccSP7hgy.s 			page 53


 2850               		.p2align	2
 2851               	.LEFDE4:
 2852               	.LSFDE6:
 2853 0040 0C00 0000 		.long	.LEFDE6-.LASFDE6
 2854               	.LASFDE6:
 2855 0044 0000 0000 		.long	.Lframe0
 2856 0048 0000 0000 		.long	.LFB11
 2857 004c 4000 0000 		.long	.LFE11-.LFB11
 2858               		.p2align	2
 2859               	.LEFDE6:
 2860               	.LSFDE8:
 2861 0050 0C00 0000 		.long	.LEFDE8-.LASFDE8
 2862               	.LASFDE8:
 2863 0054 0000 0000 		.long	.Lframe0
 2864 0058 0000 0000 		.long	.LFB14
 2865 005c 0600 0000 		.long	.LFE14-.LFB14
 2866               		.p2align	2
 2867               	.LEFDE8:
 2868               	.LSFDE10:
 2869 0060 0C00 0000 		.long	.LEFDE10-.LASFDE10
 2870               	.LASFDE10:
 2871 0064 0000 0000 		.long	.Lframe0
 2872 0068 0000 0000 		.long	.LFB15
 2873 006c 0800 0000 		.long	.LFE15-.LFB15
 2874               		.p2align	2
 2875               	.LEFDE10:
 2876               	.LSFDE12:
 2877 0070 0C00 0000 		.long	.LEFDE12-.LASFDE12
 2878               	.LASFDE12:
 2879 0074 0000 0000 		.long	.Lframe0
 2880 0078 0000 0000 		.long	.LFB18
 2881 007c 0A00 0000 		.long	.LFE18-.LFB18
 2882               		.p2align	2
 2883               	.LEFDE12:
 2884               	.LSFDE14:
 2885 0080 0C00 0000 		.long	.LEFDE14-.LASFDE14
 2886               	.LASFDE14:
 2887 0084 0000 0000 		.long	.Lframe0
 2888 0088 0000 0000 		.long	.LFB23
 2889 008c 0E00 0000 		.long	.LFE23-.LFB23
 2890               		.p2align	2
 2891               	.LEFDE14:
 2892               	.LSFDE16:
 2893 0090 0C00 0000 		.long	.LEFDE16-.LASFDE16
 2894               	.LASFDE16:
 2895 0094 0000 0000 		.long	.Lframe0
 2896 0098 0000 0000 		.long	.LFB24
 2897 009c 0E00 0000 		.long	.LFE24-.LFB24
 2898               		.p2align	2
 2899               	.LEFDE16:
 2900               	.LSFDE18:
 2901 00a0 0C00 0000 		.long	.LEFDE18-.LASFDE18
 2902               	.LASFDE18:
 2903 00a4 0000 0000 		.long	.Lframe0
 2904 00a8 0000 0000 		.long	.LFB27
 2905 00ac 0E00 0000 		.long	.LFE27-.LFB27
 2906               		.p2align	2
GAS LISTING C:\Users\ADMINI~1\AppData\Local\Temp/ccSP7hgy.s 			page 54


 2907               	.LEFDE18:
 2908               	.LSFDE20:
 2909 00b0 0C00 0000 		.long	.LEFDE20-.LASFDE20
 2910               	.LASFDE20:
 2911 00b4 0000 0000 		.long	.Lframe0
 2912 00b8 0000 0000 		.long	.LFB46
 2913 00bc 2600 0000 		.long	.LFE46-.LFB46
 2914               		.p2align	2
 2915               	.LEFDE20:
 2916               	.LSFDE22:
 2917 00c0 0C00 0000 		.long	.LEFDE22-.LASFDE22
 2918               	.LASFDE22:
 2919 00c4 0000 0000 		.long	.Lframe0
 2920 00c8 0000 0000 		.long	.LFB26
 2921 00cc 3400 0000 		.long	.LFE26-.LFB26
 2922               		.p2align	2
 2923               	.LEFDE22:
 2924               	.LSFDE24:
 2925 00d0 0C00 0000 		.long	.LEFDE24-.LASFDE24
 2926               	.LASFDE24:
 2927 00d4 0000 0000 		.long	.Lframe0
 2928 00d8 0000 0000 		.long	.LFB29
 2929 00dc 9000 0000 		.long	.LFE29-.LFB29
 2930               		.p2align	2
 2931               	.LEFDE24:
 2932               	.LSFDE26:
 2933 00e0 0C00 0000 		.long	.LEFDE26-.LASFDE26
 2934               	.LASFDE26:
 2935 00e4 0000 0000 		.long	.Lframe0
 2936 00e8 0000 0000 		.long	.LFB45
 2937 00ec 4C00 0000 		.long	.LFE45-.LFB45
 2938               		.p2align	2
 2939               	.LEFDE26:
 2940               	.LSFDE28:
 2941 00f0 0C00 0000 		.long	.LEFDE28-.LASFDE28
 2942               	.LASFDE28:
 2943 00f4 0000 0000 		.long	.Lframe0
 2944 00f8 0000 0000 		.long	.LFB44
 2945 00fc 1E00 0000 		.long	.LFE44-.LFB44
 2946               		.p2align	2
 2947               	.LEFDE28:
 2948               	.LSFDE30:
 2949 0100 0C00 0000 		.long	.LEFDE30-.LASFDE30
 2950               	.LASFDE30:
 2951 0104 0000 0000 		.long	.Lframe0
 2952 0108 0000 0000 		.long	.LFB39
 2953 010c 3C00 0000 		.long	.LFE39-.LFB39
 2954               		.p2align	2
 2955               	.LEFDE30:
 2956               	.LSFDE32:
 2957 0110 0C00 0000 		.long	.LEFDE32-.LASFDE32
 2958               	.LASFDE32:
 2959 0114 0000 0000 		.long	.Lframe0
 2960 0118 0000 0000 		.long	.LFB35
 2961 011c 0E00 0000 		.long	.LFE35-.LFB35
 2962               		.p2align	2
 2963               	.LEFDE32:
GAS LISTING C:\Users\ADMINI~1\AppData\Local\Temp/ccSP7hgy.s 			page 55


 2964               	.LSFDE34:
 2965 0120 0C00 0000 		.long	.LEFDE34-.LASFDE34
 2966               	.LASFDE34:
 2967 0124 0000 0000 		.long	.Lframe0
 2968 0128 0000 0000 		.long	.LFB34
 2969 012c 4800 0000 		.long	.LFE34-.LFB34
 2970               		.p2align	2
 2971               	.LEFDE34:
 2972               	.LSFDE36:
 2973 0130 0C00 0000 		.long	.LEFDE36-.LASFDE36
 2974               	.LASFDE36:
 2975 0134 0000 0000 		.long	.Lframe0
 2976 0138 0000 0000 		.long	.LFB28
 2977 013c A600 0000 		.long	.LFE28-.LFB28
 2978               		.p2align	2
 2979               	.LEFDE36:
 2980               	.LSFDE38:
 2981 0140 0C00 0000 		.long	.LEFDE38-.LASFDE38
 2982               	.LASFDE38:
 2983 0144 0000 0000 		.long	.Lframe0
 2984 0148 0000 0000 		.long	.LFB30
 2985 014c F000 0000 		.long	.LFE30-.LFB30
 2986               		.p2align	2
 2987               	.LEFDE38:
 2988               	.LSFDE40:
 2989 0150 0C00 0000 		.long	.LEFDE40-.LASFDE40
 2990               	.LASFDE40:
 2991 0154 0000 0000 		.long	.Lframe0
 2992 0158 0000 0000 		.long	.LFB32
 2993 015c 4000 0000 		.long	.LFE32-.LFB32
 2994               		.p2align	2
 2995               	.LEFDE40:
 2996               	.LSFDE42:
 2997 0160 0C00 0000 		.long	.LEFDE42-.LASFDE42
 2998               	.LASFDE42:
 2999 0164 0000 0000 		.long	.Lframe0
 3000 0168 0000 0000 		.long	.LFB31
 3001 016c 4C00 0000 		.long	.LFE31-.LFB31
 3002               		.p2align	2
 3003               	.LEFDE42:
 3004               	.LSFDE44:
 3005 0170 0C00 0000 		.long	.LEFDE44-.LASFDE44
 3006               	.LASFDE44:
 3007 0174 0000 0000 		.long	.Lframe0
 3008 0178 0000 0000 		.long	.LFB43
 3009 017c 2A00 0000 		.long	.LFE43-.LFB43
 3010               		.p2align	2
 3011               	.LEFDE44:
 3012               	.LSFDE46:
 3013 0180 0C00 0000 		.long	.LEFDE46-.LASFDE46
 3014               	.LASFDE46:
 3015 0184 0000 0000 		.long	.Lframe0
 3016 0188 0000 0000 		.long	.LFB42
 3017 018c 4800 0000 		.long	.LFE42-.LFB42
 3018               		.p2align	2
 3019               	.LEFDE46:
 3020               	.LSFDE48:
GAS LISTING C:\Users\ADMINI~1\AppData\Local\Temp/ccSP7hgy.s 			page 56


 3021 0190 0C00 0000 		.long	.LEFDE48-.LASFDE48
 3022               	.LASFDE48:
 3023 0194 0000 0000 		.long	.Lframe0
 3024 0198 0000 0000 		.long	.LFB41
 3025 019c 4800 0000 		.long	.LFE41-.LFB41
 3026               		.p2align	2
 3027               	.LEFDE48:
 3028               	.LSFDE50:
 3029 01a0 0C00 0000 		.long	.LEFDE50-.LASFDE50
 3030               	.LASFDE50:
 3031 01a4 0000 0000 		.long	.Lframe0
 3032 01a8 0000 0000 		.long	.LFB36
 3033 01ac 8800 0000 		.long	.LFE36-.LFB36
 3034               		.p2align	2
 3035               	.LEFDE50:
 3036               	.LSFDE52:
 3037 01b0 0C00 0000 		.long	.LEFDE52-.LASFDE52
 3038               	.LASFDE52:
 3039 01b4 0000 0000 		.long	.Lframe0
 3040 01b8 0000 0000 		.long	.LFB47
 3041 01bc 6605 0000 		.long	.LFE47-.LFB47
 3042               		.p2align	2
 3043               	.LEFDE52:
 3044               	.LSFDE54:
 3045 01c0 0C00 0000 		.long	.LEFDE54-.LASFDE54
 3046               	.LASFDE54:
 3047 01c4 0000 0000 		.long	.Lframe0
 3048 01c8 0000 0000 		.long	.LFB38
 3049 01cc CE00 0000 		.long	.LFE38-.LFB38
 3050               		.p2align	2
 3051               	.LEFDE54:
 3052               	.LSFDE56:
 3053 01d0 0C00 0000 		.long	.LEFDE56-.LASFDE56
 3054               	.LASFDE56:
 3055 01d4 0000 0000 		.long	.Lframe0
 3056 01d8 0000 0000 		.long	.LFB37
 3057 01dc 2400 0000 		.long	.LFE37-.LFB37
 3058               		.p2align	2
 3059               	.LEFDE56:
 3060               	.LSFDE58:
 3061 01e0 0C00 0000 		.long	.LEFDE58-.LASFDE58
 3062               	.LASFDE58:
 3063 01e4 0000 0000 		.long	.Lframe0
 3064 01e8 0000 0000 		.long	.LFB25
 3065 01ec 7600 0000 		.long	.LFE25-.LFB25
 3066               		.p2align	2
 3067               	.LEFDE58:
 3068               	.LSFDE60:
 3069 01f0 0C00 0000 		.long	.LEFDE60-.LASFDE60
 3070               	.LASFDE60:
 3071 01f4 0000 0000 		.long	.Lframe0
 3072 01f8 0000 0000 		.long	.LFB40
 3073 01fc 3000 0000 		.long	.LFE40-.LFB40
 3074               		.p2align	2
 3075               	.LEFDE60:
 3076               	.LSFDE62:
 3077 0200 0C00 0000 		.long	.LEFDE62-.LASFDE62
GAS LISTING C:\Users\ADMINI~1\AppData\Local\Temp/ccSP7hgy.s 			page 57


 3078               	.LASFDE62:
 3079 0204 0000 0000 		.long	.Lframe0
 3080 0208 0000 0000 		.long	.LFB17
 3081 020c 2400 0000 		.long	.LFE17-.LFB17
 3082               		.p2align	2
 3083               	.LEFDE62:
 3084               	.LSFDE64:
 3085 0210 0C00 0000 		.long	.LEFDE64-.LASFDE64
 3086               	.LASFDE64:
 3087 0214 0000 0000 		.long	.Lframe0
 3088 0218 0000 0000 		.long	.LFB12
 3089 021c 3000 0000 		.long	.LFE12-.LFB12
 3090               		.p2align	2
 3091               	.LEFDE64:
 3092               	.LSFDE66:
 3093 0220 0C00 0000 		.long	.LEFDE66-.LASFDE66
 3094               	.LASFDE66:
 3095 0224 0000 0000 		.long	.Lframe0
 3096 0228 0000 0000 		.long	.LFB19
 3097 022c 3A00 0000 		.long	.LFE19-.LFB19
 3098               		.p2align	2
 3099               	.LEFDE66:
 3100               	.LSFDE68:
 3101 0230 0C00 0000 		.long	.LEFDE68-.LASFDE68
 3102               	.LASFDE68:
 3103 0234 0000 0000 		.long	.Lframe0
 3104 0238 0000 0000 		.long	.LFB20
 3105 023c 7A00 0000 		.long	.LFE20-.LFB20
 3106               		.p2align	2
 3107               	.LEFDE68:
 3108               	.LSFDE70:
 3109 0240 0C00 0000 		.long	.LEFDE70-.LASFDE70
 3110               	.LASFDE70:
 3111 0244 0000 0000 		.long	.Lframe0
 3112 0248 0000 0000 		.long	.LFB16
 3113 024c 2000 0000 		.long	.LFE16-.LFB16
 3114               		.p2align	2
 3115               	.LEFDE70:
 3116               		.text
 3117               	.Letext0:
 3118               		.section	.debug_loc,"",@progbits
 3119               	.Ldebug_loc0:
 3120               	.LLST4:
 3121 0000 1C00 0000 		.long	.LVL0-.Ltext0
 3122 0004 2200 0000 		.long	.LVL1-.Ltext0
 3123 0008 0100      		.word	0x1
 3124 000a 68        		.byte	0x68
 3125 000b 2200 0000 		.long	.LVL1-.Ltext0
 3126 000f 5C00 0000 		.long	.LFE11-.Ltext0
 3127 0013 0100      		.word	0x1
 3128 0015 69        		.byte	0x69
 3129 0016 0000 0000 		.long	0x0
 3130 001a 0000 0000 		.long	0x0
 3131               	.LLST9:
 3132 001e 7400 0000 		.long	.LVL2-.Ltext0
 3133 0022 7800 0000 		.long	.LVL3-.Ltext0
 3134 0026 0100      		.word	0x1
GAS LISTING C:\Users\ADMINI~1\AppData\Local\Temp/ccSP7hgy.s 			page 58


 3135 0028 68        		.byte	0x68
 3136 0029 0000 0000 		.long	0x0
 3137 002d 0000 0000 		.long	0x0
 3138               	.LLST11:
 3139 0031 8200 0000 		.long	.LVL4-.Ltext0
 3140 0035 8600 0000 		.long	.LVL5-.Ltext0
 3141 0039 0100      		.word	0x1
 3142 003b 68        		.byte	0x68
 3143 003c 8600 0000 		.long	.LVL5-.Ltext0
 3144 0040 9000 0000 		.long	.LFE24-.Ltext0
 3145 0044 0100      		.word	0x1
 3146 0046 69        		.byte	0x69
 3147 0047 0000 0000 		.long	0x0
 3148 004b 0000 0000 		.long	0x0
 3149               	.LLST15:
 3150 004f C400 0000 		.long	.LVL6-.Ltext0
 3151 0053 CC00 0000 		.long	.LVL7-.Ltext0
 3152 0057 0600      		.word	0x6
 3153 0059 68        		.byte	0x68
 3154 005a 93        		.byte	0x93
 3155 005b 01        		.uleb128 0x1
 3156 005c 69        		.byte	0x69
 3157 005d 93        		.byte	0x93
 3158 005e 01        		.uleb128 0x1
 3159 005f CC00 0000 		.long	.LVL7-.Ltext0
 3160 0063 D000 0000 		.long	.LVL8-.Ltext0
 3161 0067 0600      		.word	0x6
 3162 0069 6E        		.byte	0x6e
 3163 006a 93        		.byte	0x93
 3164 006b 01        		.uleb128 0x1
 3165 006c 6F        		.byte	0x6f
 3166 006d 93        		.byte	0x93
 3167 006e 01        		.uleb128 0x1
 3168 006f 0000 0000 		.long	0x0
 3169 0073 0000 0000 		.long	0x0
 3170               	.LLST17:
 3171 0077 F800 0000 		.long	.LVL15-.Ltext0
 3172 007b 1601 0000 		.long	.LVL16-.Ltext0
 3173 007f 0600      		.word	0x6
 3174 0081 68        		.byte	0x68
 3175 0082 93        		.byte	0x93
 3176 0083 01        		.uleb128 0x1
 3177 0084 69        		.byte	0x69
 3178 0085 93        		.byte	0x93
 3179 0086 01        		.uleb128 0x1
 3180 0087 1601 0000 		.long	.LVL16-.Ltext0
 3181 008b 5801 0000 		.long	.LVL20-.Ltext0
 3182 008f 0600      		.word	0x6
 3183 0091 60        		.byte	0x60
 3184 0092 93        		.byte	0x93
 3185 0093 01        		.uleb128 0x1
 3186 0094 61        		.byte	0x61
 3187 0095 93        		.byte	0x93
 3188 0096 01        		.uleb128 0x1
 3189 0097 5801 0000 		.long	.LVL20-.Ltext0
 3190 009b 6801 0000 		.long	.LVL21-.Ltext0
 3191 009f 0600      		.word	0x6
GAS LISTING C:\Users\ADMINI~1\AppData\Local\Temp/ccSP7hgy.s 			page 59


 3192 00a1 68        		.byte	0x68
 3193 00a2 93        		.byte	0x93
 3194 00a3 01        		.uleb128 0x1
 3195 00a4 69        		.byte	0x69
 3196 00a5 93        		.byte	0x93
 3197 00a6 01        		.uleb128 0x1
 3198 00a7 6801 0000 		.long	.LVL21-.Ltext0
 3199 00ab 7E01 0000 		.long	.LVL25-.Ltext0
 3200 00af 0600      		.word	0x6
 3201 00b1 60        		.byte	0x60
 3202 00b2 93        		.byte	0x93
 3203 00b3 01        		.uleb128 0x1
 3204 00b4 61        		.byte	0x61
 3205 00b5 93        		.byte	0x93
 3206 00b6 01        		.uleb128 0x1
 3207 00b7 7E01 0000 		.long	.LVL25-.Ltext0
 3208 00bb 8801 0000 		.long	.LFE29-.Ltext0
 3209 00bf 0600      		.word	0x6
 3210 00c1 68        		.byte	0x68
 3211 00c2 93        		.byte	0x93
 3212 00c3 01        		.uleb128 0x1
 3213 00c4 69        		.byte	0x69
 3214 00c5 93        		.byte	0x93
 3215 00c6 01        		.uleb128 0x1
 3216 00c7 0000 0000 		.long	0x0
 3217 00cb 0000 0000 		.long	0x0
 3218               	.LLST18:
 3219 00cf 3801 0000 		.long	.LVL18-.Ltext0
 3220 00d3 4001 0000 		.long	.LVL19-.Ltext0
 3221 00d7 0100      		.word	0x1
 3222 00d9 68        		.byte	0x68
 3223 00da 0000 0000 		.long	0x0
 3224 00de 0000 0000 		.long	0x0
 3225               	.LLST19:
 3226 00e2 1601 0000 		.long	.LVL16-.Ltext0
 3227 00e6 2001 0000 		.long	.LVL17-.Ltext0
 3228 00ea 0600      		.word	0x6
 3229 00ec 6E        		.byte	0x6e
 3230 00ed 93        		.byte	0x93
 3231 00ee 01        		.uleb128 0x1
 3232 00ef 6F        		.byte	0x6f
 3233 00f0 93        		.byte	0x93
 3234 00f1 01        		.uleb128 0x1
 3235 00f2 6A01 0000 		.long	.LVL22-.Ltext0
 3236 00f6 8801 0000 		.long	.LFE29-.Ltext0
 3237 00fa 0600      		.word	0x6
 3238 00fc 6E        		.byte	0x6e
 3239 00fd 93        		.byte	0x93
 3240 00fe 01        		.uleb128 0x1
 3241 00ff 6F        		.byte	0x6f
 3242 0100 93        		.byte	0x93
 3243 0101 01        		.uleb128 0x1
 3244 0102 0000 0000 		.long	0x0
 3245 0106 0000 0000 		.long	0x0
 3246               	.LLST20:
 3247 010a 1601 0000 		.long	.LVL16-.Ltext0
 3248 010e 3801 0000 		.long	.LVL18-.Ltext0
GAS LISTING C:\Users\ADMINI~1\AppData\Local\Temp/ccSP7hgy.s 			page 60


 3249 0112 0100      		.word	0x1
 3250 0114 68        		.byte	0x68
 3251 0115 7001 0000 		.long	.LVL23-.Ltext0
 3252 0119 8801 0000 		.long	.LFE29-.Ltext0
 3253 011d 0100      		.word	0x1
 3254 011f 68        		.byte	0x68
 3255 0120 0000 0000 		.long	0x0
 3256 0124 0000 0000 		.long	0x0
 3257               	.LLST27:
 3258 0128 8402 0000 		.long	.LVL26-.Ltext0
 3259 012c B202 0000 		.long	.LVL28-.Ltext0
 3260 0130 0600      		.word	0x6
 3261 0132 68        		.byte	0x68
 3262 0133 93        		.byte	0x93
 3263 0134 01        		.uleb128 0x1
 3264 0135 69        		.byte	0x69
 3265 0136 93        		.byte	0x93
 3266 0137 01        		.uleb128 0x1
 3267 0138 B202 0000 		.long	.LVL28-.Ltext0
 3268 013c 1E03 0000 		.long	.LVL30-.Ltext0
 3269 0140 0600      		.word	0x6
 3270 0142 60        		.byte	0x60
 3271 0143 93        		.byte	0x93
 3272 0144 01        		.uleb128 0x1
 3273 0145 61        		.byte	0x61
 3274 0146 93        		.byte	0x93
 3275 0147 01        		.uleb128 0x1
 3276 0148 0000 0000 		.long	0x0
 3277 014c 0000 0000 		.long	0x0
 3278               	.LLST28:
 3279 0150 A002 0000 		.long	.LVL27-.Ltext0
 3280 0154 2003 0000 		.long	.LVL31-.Ltext0
 3281 0158 0100      		.word	0x1
 3282 015a 5F        		.byte	0x5f
 3283 015b 0000 0000 		.long	0x0
 3284 015f 0000 0000 		.long	0x0
 3285               	.LLST35:
 3286 0163 1805 0000 		.long	.LVL34-.Ltext0
 3287 0167 2805 0000 		.long	.LVL35-.Ltext0
 3288 016b 0100      		.word	0x1
 3289 016d 68        		.byte	0x68
 3290 016e 2805 0000 		.long	.LVL35-.Ltext0
 3291 0172 4005 0000 		.long	.LVL37-.Ltext0
 3292 0176 0100      		.word	0x1
 3293 0178 69        		.byte	0x69
 3294 0179 5605 0000 		.long	.LVL40-.Ltext0
 3295 017d 6005 0000 		.long	.LFE41-.Ltext0
 3296 0181 0100      		.word	0x1
 3297 0183 68        		.byte	0x68
 3298 0184 0000 0000 		.long	0x0
 3299 0188 0000 0000 		.long	0x0
 3300               	.LLST36:
 3301 018c 3A05 0000 		.long	.LVL36-.Ltext0
 3302 0190 4005 0000 		.long	.LVL37-.Ltext0
 3303 0194 0100      		.word	0x1
 3304 0196 69        		.byte	0x69
 3305 0197 4205 0000 		.long	.LVL38-.Ltext0
GAS LISTING C:\Users\ADMINI~1\AppData\Local\Temp/ccSP7hgy.s 			page 61


 3306 019b 4E05 0000 		.long	.LVL39-.Ltext0
 3307 019f 0100      		.word	0x1
 3308 01a1 69        		.byte	0x69
 3309 01a2 4E05 0000 		.long	.LVL39-.Ltext0
 3310 01a6 6005 0000 		.long	.LFE41-.Ltext0
 3311 01aa 0100      		.word	0x1
 3312 01ac 69        		.byte	0x69
 3313 01ad 0000 0000 		.long	0x0
 3314 01b1 0000 0000 		.long	0x0
 3315               	.LLST39:
 3316 01b5 E805 0000 		.long	.LVL41-.Ltext0
 3317 01b9 1006 0000 		.long	.LVL42-.Ltext0
 3318 01bd 0100      		.word	0x1
 3319 01bf 68        		.byte	0x68
 3320 01c0 1006 0000 		.long	.LVL42-.Ltext0
 3321 01c4 460B 0000 		.long	.LVL74-.Ltext0
 3322 01c8 0100      		.word	0x1
 3323 01ca 5D        		.byte	0x5d
 3324 01cb 0000 0000 		.long	0x0
 3325 01cf 0000 0000 		.long	0x0
 3326               	.LLST40:
 3327 01d3 E805 0000 		.long	.LVL41-.Ltext0
 3328 01d7 1606 0000 		.long	.LVL43-.Ltext0
 3329 01db 0100      		.word	0x1
 3330 01dd 66        		.byte	0x66
 3331 01de 1606 0000 		.long	.LVL43-.Ltext0
 3332 01e2 4A0B 0000 		.long	.LVL76-.Ltext0
 3333 01e6 0100      		.word	0x1
 3334 01e8 5B        		.byte	0x5b
 3335 01e9 4A0B 0000 		.long	.LVL76-.Ltext0
 3336 01ed 4E0B 0000 		.long	.LFE47-.Ltext0
 3337 01f1 0100      		.word	0x1
 3338 01f3 66        		.byte	0x66
 3339 01f4 0000 0000 		.long	0x0
 3340 01f8 0000 0000 		.long	0x0
 3341               	.LLST41:
 3342 01fc E805 0000 		.long	.LVL41-.Ltext0
 3343 0200 1606 0000 		.long	.LVL43-.Ltext0
 3344 0204 0100      		.word	0x1
 3345 0206 64        		.byte	0x64
 3346 0207 1606 0000 		.long	.LVL43-.Ltext0
 3347 020b 4C0B 0000 		.long	.LVL77-.Ltext0
 3348 020f 0100      		.word	0x1
 3349 0211 5A        		.byte	0x5a
 3350 0212 4C0B 0000 		.long	.LVL77-.Ltext0
 3351 0216 4E0B 0000 		.long	.LFE47-.Ltext0
 3352 021a 0100      		.word	0x1
 3353 021c 64        		.byte	0x64
 3354 021d 0000 0000 		.long	0x0
 3355 0221 0000 0000 		.long	0x0
 3356               	.LLST42:
 3357 0225 E805 0000 		.long	.LVL41-.Ltext0
 3358 0229 1606 0000 		.long	.LVL43-.Ltext0
 3359 022d 0100      		.word	0x1
 3360 022f 62        		.byte	0x62
 3361 0230 1606 0000 		.long	.LVL43-.Ltext0
 3362 0234 480B 0000 		.long	.LVL75-.Ltext0
GAS LISTING C:\Users\ADMINI~1\AppData\Local\Temp/ccSP7hgy.s 			page 62


 3363 0238 0100      		.word	0x1
 3364 023a 5C        		.byte	0x5c
 3365 023b 480B 0000 		.long	.LVL75-.Ltext0
 3366 023f 4E0B 0000 		.long	.LFE47-.Ltext0
 3367 0243 0100      		.word	0x1
 3368 0245 62        		.byte	0x62
 3369 0246 0000 0000 		.long	0x0
 3370 024a 0000 0000 		.long	0x0
 3371               	.LLST43:
 3372 024e 8007 0000 		.long	.LVL47-.Ltext0
 3373 0252 6408 0000 		.long	.LVL48-.Ltext0
 3374 0256 0100      		.word	0x1
 3375 0258 60        		.byte	0x60
 3376 0259 B809 0000 		.long	.LVL57-.Ltext0
 3377 025d BC09 0000 		.long	.LVL58-.Ltext0
 3378 0261 0100      		.word	0x1
 3379 0263 60        		.byte	0x60
 3380 0264 800A 0000 		.long	.LVL61-.Ltext0
 3381 0268 8A0A 0000 		.long	.LVL62-.Ltext0
 3382 026c 0100      		.word	0x1
 3383 026e 60        		.byte	0x60
 3384 026f 2E0B 0000 		.long	.LVL69-.Ltext0
 3385 0273 400B 0000 		.long	.LVL72-.Ltext0
 3386 0277 0100      		.word	0x1
 3387 0279 60        		.byte	0x60
 3388 027a 0000 0000 		.long	0x0
 3389 027e 0000 0000 		.long	0x0
 3390               	.LLST44:
 3391 0282 6209 0000 		.long	.LVL56-.Ltext0
 3392 0286 BC09 0000 		.long	.LVL58-.Ltext0
 3393 028a 0100      		.word	0x1
 3394 028c 61        		.byte	0x61
 3395 028d 800A 0000 		.long	.LVL61-.Ltext0
 3396 0291 8A0A 0000 		.long	.LVL62-.Ltext0
 3397 0295 0100      		.word	0x1
 3398 0297 61        		.byte	0x61
 3399 0298 2E0B 0000 		.long	.LVL69-.Ltext0
 3400 029c 3E0B 0000 		.long	.LVL71-.Ltext0
 3401 02a0 0100      		.word	0x1
 3402 02a2 61        		.byte	0x61
 3403 02a3 0000 0000 		.long	0x0
 3404 02a7 0000 0000 		.long	0x0
 3405               	.LLST45:
 3406 02ab 1209 0000 		.long	.LVL49-.Ltext0
 3407 02af 2409 0000 		.long	.LVL50-.Ltext0
 3408 02b3 0600      		.word	0x6
 3409 02b5 62        		.byte	0x62
 3410 02b6 93        		.byte	0x93
 3411 02b7 01        		.uleb128 0x1
 3412 02b8 63        		.byte	0x63
 3413 02b9 93        		.byte	0x93
 3414 02ba 01        		.uleb128 0x1
 3415 02bb 3609 0000 		.long	.LVL51-.Ltext0
 3416 02bf 3A09 0000 		.long	.LVL52-.Ltext0
 3417 02c3 0600      		.word	0x6
 3418 02c5 62        		.byte	0x62
 3419 02c6 93        		.byte	0x93
GAS LISTING C:\Users\ADMINI~1\AppData\Local\Temp/ccSP7hgy.s 			page 63


 3420 02c7 01        		.uleb128 0x1
 3421 02c8 63        		.byte	0x63
 3422 02c9 93        		.byte	0x93
 3423 02ca 01        		.uleb128 0x1
 3424 02cb A00A 0000 		.long	.LVL63-.Ltext0
 3425 02cf FA0A 0000 		.long	.LVL64-.Ltext0
 3426 02d3 0600      		.word	0x6
 3427 02d5 64        		.byte	0x64
 3428 02d6 93        		.byte	0x93
 3429 02d7 01        		.uleb128 0x1
 3430 02d8 65        		.byte	0x65
 3431 02d9 93        		.byte	0x93
 3432 02da 01        		.uleb128 0x1
 3433 02db 020B 0000 		.long	.LVL65-.Ltext0
 3434 02df 180B 0000 		.long	.LVL66-.Ltext0
 3435 02e3 0600      		.word	0x6
 3436 02e5 64        		.byte	0x64
 3437 02e6 93        		.byte	0x93
 3438 02e7 01        		.uleb128 0x1
 3439 02e8 65        		.byte	0x65
 3440 02e9 93        		.byte	0x93
 3441 02ea 01        		.uleb128 0x1
 3442 02eb 0000 0000 		.long	0x0
 3443 02ef 0000 0000 		.long	0x0
 3444               	.LLST46:
 3445 02f3 3206 0000 		.long	.LVL44-.Ltext0
 3446 02f7 440B 0000 		.long	.LVL73-.Ltext0
 3447 02fb 0600      		.word	0x6
 3448 02fd 5E        		.byte	0x5e
 3449 02fe 93        		.byte	0x93
 3450 02ff 01        		.uleb128 0x1
 3451 0300 5F        		.byte	0x5f
 3452 0301 93        		.byte	0x93
 3453 0302 01        		.uleb128 0x1
 3454 0303 0000 0000 		.long	0x0
 3455 0307 0000 0000 		.long	0x0
 3456               	.LLST47:
 3457 030b A806 0000 		.long	.LVL45-.Ltext0
 3458 030f B806 0000 		.long	.LVL46-.Ltext0
 3459 0313 0600      		.word	0x6
 3460 0315 66        		.byte	0x66
 3461 0316 93        		.byte	0x93
 3462 0317 01        		.uleb128 0x1
 3463 0318 67        		.byte	0x67
 3464 0319 93        		.byte	0x93
 3465 031a 01        		.uleb128 0x1
 3466 031b 320B 0000 		.long	.LVL70-.Ltext0
 3467 031f 4E0B 0000 		.long	.LFE47-.Ltext0
 3468 0323 0600      		.word	0x6
 3469 0325 66        		.byte	0x66
 3470 0326 93        		.byte	0x93
 3471 0327 01        		.uleb128 0x1
 3472 0328 67        		.byte	0x67
 3473 0329 93        		.byte	0x93
 3474 032a 01        		.uleb128 0x1
 3475 032b 0000 0000 		.long	0x0
 3476 032f 0000 0000 		.long	0x0
GAS LISTING C:\Users\ADMINI~1\AppData\Local\Temp/ccSP7hgy.s 			page 64


 3477               	.LLST48:
 3478 0333 4409 0000 		.long	.LVL53-.Ltext0
 3479 0337 5409 0000 		.long	.LVL55-.Ltext0
 3480 033b 0600      		.word	0x6
 3481 033d 68        		.byte	0x68
 3482 033e 93        		.byte	0x93
 3483 033f 01        		.uleb128 0x1
 3484 0340 69        		.byte	0x69
 3485 0341 93        		.byte	0x93
 3486 0342 01        		.uleb128 0x1
 3487 0343 320B 0000 		.long	.LVL70-.Ltext0
 3488 0347 4E0B 0000 		.long	.LFE47-.Ltext0
 3489 034b 0600      		.word	0x6
 3490 034d 68        		.byte	0x68
 3491 034e 93        		.byte	0x93
 3492 034f 01        		.uleb128 0x1
 3493 0350 69        		.byte	0x69
 3494 0351 93        		.byte	0x93
 3495 0352 01        		.uleb128 0x1
 3496 0353 0000 0000 		.long	0x0
 3497 0357 0000 0000 		.long	0x0
 3498               	.LLST49:
 3499 035b 4A09 0000 		.long	.LVL54-.Ltext0
 3500 035f 5409 0000 		.long	.LVL55-.Ltext0
 3501 0363 0600      		.word	0x6
 3502 0365 6E        		.byte	0x6e
 3503 0366 93        		.byte	0x93
 3504 0367 01        		.uleb128 0x1
 3505 0368 6F        		.byte	0x6f
 3506 0369 93        		.byte	0x93
 3507 036a 01        		.uleb128 0x1
 3508 036b 320B 0000 		.long	.LVL70-.Ltext0
 3509 036f 4E0B 0000 		.long	.LFE47-.Ltext0
 3510 0373 0600      		.word	0x6
 3511 0375 6E        		.byte	0x6e
 3512 0376 93        		.byte	0x93
 3513 0377 01        		.uleb128 0x1
 3514 0378 6F        		.byte	0x6f
 3515 0379 93        		.byte	0x93
 3516 037a 01        		.uleb128 0x1
 3517 037b 0000 0000 		.long	0x0
 3518 037f 0000 0000 		.long	0x0
 3519               	.LLST50:
 3520 0383 3A0A 0000 		.long	.LVL59-.Ltext0
 3521 0387 400A 0000 		.long	.LVL60-.Ltext0
 3522 038b 0100      		.word	0x1
 3523 038d 6E        		.byte	0x6e
 3524 038e 0000 0000 		.long	0x0
 3525 0392 0000 0000 		.long	0x0
 3526               	.LLST51:
 3527 0396 1E0B 0000 		.long	.LVL67-.Ltext0
 3528 039a 2E0B 0000 		.long	.LVL69-.Ltext0
 3529 039e 0600      		.word	0x6
 3530 03a0 68        		.byte	0x68
 3531 03a1 93        		.byte	0x93
 3532 03a2 01        		.uleb128 0x1
 3533 03a3 69        		.byte	0x69
GAS LISTING C:\Users\ADMINI~1\AppData\Local\Temp/ccSP7hgy.s 			page 65


 3534 03a4 93        		.byte	0x93
 3535 03a5 01        		.uleb128 0x1
 3536 03a6 320B 0000 		.long	.LVL70-.Ltext0
 3537 03aa 4E0B 0000 		.long	.LFE47-.Ltext0
 3538 03ae 0600      		.word	0x6
 3539 03b0 68        		.byte	0x68
 3540 03b1 93        		.byte	0x93
 3541 03b2 01        		.uleb128 0x1
 3542 03b3 69        		.byte	0x69
 3543 03b4 93        		.byte	0x93
 3544 03b5 01        		.uleb128 0x1
 3545 03b6 0000 0000 		.long	0x0
 3546 03ba 0000 0000 		.long	0x0
 3547               	.LLST52:
 3548 03be 240B 0000 		.long	.LVL68-.Ltext0
 3549 03c2 2E0B 0000 		.long	.LVL69-.Ltext0
 3550 03c6 0600      		.word	0x6
 3551 03c8 6E        		.byte	0x6e
 3552 03c9 93        		.byte	0x93
 3553 03ca 01        		.uleb128 0x1
 3554 03cb 6F        		.byte	0x6f
 3555 03cc 93        		.byte	0x93
 3556 03cd 01        		.uleb128 0x1
 3557 03ce 320B 0000 		.long	.LVL70-.Ltext0
 3558 03d2 4E0B 0000 		.long	.LFE47-.Ltext0
 3559 03d6 0600      		.word	0x6
 3560 03d8 6E        		.byte	0x6e
 3561 03d9 93        		.byte	0x93
 3562 03da 01        		.uleb128 0x1
 3563 03db 6F        		.byte	0x6f
 3564 03dc 93        		.byte	0x93
 3565 03dd 01        		.uleb128 0x1
 3566 03de 0000 0000 		.long	0x0
 3567 03e2 0000 0000 		.long	0x0
 3568               	.LLST56:
 3569 03e6 400C 0000 		.long	.LVL78-.Ltext0
 3570 03ea 500C 0000 		.long	.LVL79-.Ltext0
 3571 03ee 0100      		.word	0x1
 3572 03f0 68        		.byte	0x68
 3573 03f1 500C 0000 		.long	.LVL79-.Ltext0
 3574 03f5 B40C 0000 		.long	.LVL93-.Ltext0
 3575 03f9 0100      		.word	0x1
 3576 03fb 5F        		.byte	0x5f
 3577 03fc 0000 0000 		.long	0x0
 3578 0400 0000 0000 		.long	0x0
 3579               	.LLST57:
 3580 0404 400C 0000 		.long	.LVL78-.Ltext0
 3581 0408 540C 0000 		.long	.LVL80-.Ltext0
 3582 040c 0100      		.word	0x1
 3583 040e 66        		.byte	0x66
 3584 040f 540C 0000 		.long	.LVL80-.Ltext0
 3585 0413 AC0C 0000 		.long	.LVL89-.Ltext0
 3586 0417 0600      		.word	0x6
 3587 0419 6C        		.byte	0x6c
 3588 041a 93        		.byte	0x93
 3589 041b 01        		.uleb128 0x1
 3590 041c 6D        		.byte	0x6d
GAS LISTING C:\Users\ADMINI~1\AppData\Local\Temp/ccSP7hgy.s 			page 66


 3591 041d 93        		.byte	0x93
 3592 041e 01        		.uleb128 0x1
 3593 041f AC0C 0000 		.long	.LVL89-.Ltext0
 3594 0423 AE0C 0000 		.long	.LVL90-.Ltext0
 3595 0427 0100      		.word	0x1
 3596 0429 6C        		.byte	0x6c
 3597 042a 0000 0000 		.long	0x0
 3598 042e 0000 0000 		.long	0x0
 3599               	.LLST58:
 3600 0432 400C 0000 		.long	.LVL78-.Ltext0
 3601 0436 580C 0000 		.long	.LVL81-.Ltext0
 3602 043a 0100      		.word	0x1
 3603 043c 64        		.byte	0x64
 3604 043d 580C 0000 		.long	.LVL81-.Ltext0
 3605 0441 B00C 0000 		.long	.LVL91-.Ltext0
 3606 0445 0600      		.word	0x6
 3607 0447 60        		.byte	0x60
 3608 0448 93        		.byte	0x93
 3609 0449 01        		.uleb128 0x1
 3610 044a 61        		.byte	0x61
 3611 044b 93        		.byte	0x93
 3612 044c 01        		.uleb128 0x1
 3613 044d B00C 0000 		.long	.LVL91-.Ltext0
 3614 0451 B20C 0000 		.long	.LVL92-.Ltext0
 3615 0455 0100      		.word	0x1
 3616 0457 60        		.byte	0x60
 3617 0458 B20C 0000 		.long	.LVL92-.Ltext0
 3618 045c B60C 0000 		.long	.LFE25-.Ltext0
 3619 0460 0100      		.word	0x1
 3620 0462 64        		.byte	0x64
 3621 0463 0000 0000 		.long	0x0
 3622 0467 0000 0000 		.long	0x0
 3623               	.LLST60:
 3624 046b B60C 0000 		.long	.LVL94-.Ltext0
 3625 046f BE0C 0000 		.long	.LVL95-.Ltext0
 3626 0473 0100      		.word	0x1
 3627 0475 68        		.byte	0x68
 3628 0476 BE0C 0000 		.long	.LVL95-.Ltext0
 3629 047a CE0C 0000 		.long	.LVL96-.Ltext0
 3630 047e 0100      		.word	0x1
 3631 0480 69        		.byte	0x69
 3632 0481 E00C 0000 		.long	.LVL97-.Ltext0
 3633 0485 E60C 0000 		.long	.LFE40-.Ltext0
 3634 0489 0100      		.word	0x1
 3635 048b 69        		.byte	0x69
 3636 048c 0000 0000 		.long	0x0
 3637 0490 0000 0000 		.long	0x0
 3638               		.section	.debug_info
 3639 0000 2D16 0000 		.long	0x162d
 3640 0004 0200      		.word	0x2
 3641 0006 0000 0000 		.long	.Ldebug_abbrev0
 3642 000a 04        		.byte	0x4
 3643 000b 01        		.uleb128 0x1
 3644 000c 0000 0000 		.long	.LASF317
 3645 0010 01        		.byte	0x1
 3646 0011 0000 0000 		.long	.LASF318
 3647 0015 0000 0000 		.long	.LASF319
GAS LISTING C:\Users\ADMINI~1\AppData\Local\Temp/ccSP7hgy.s 			page 67


 3648 0019 0000 0000 		.long	.Ltext0
 3649 001d 0000 0000 		.long	.Letext0
 3650 0021 0000 0000 		.long	.Ldebug_line0
 3651 0025 02        		.uleb128 0x2
 3652 0026 01        		.byte	0x1
 3653 0027 08        		.byte	0x8
 3654 0028 0000 0000 		.long	.LASF0
 3655 002c 02        		.uleb128 0x2
 3656 002d 01        		.byte	0x1
 3657 002e 06        		.byte	0x6
 3658 002f 0000 0000 		.long	.LASF1
 3659 0033 02        		.uleb128 0x2
 3660 0034 02        		.byte	0x2
 3661 0035 07        		.byte	0x7
 3662 0036 0000 0000 		.long	.LASF2
 3663 003a 02        		.uleb128 0x2
 3664 003b 02        		.byte	0x2
 3665 003c 05        		.byte	0x5
 3666 003d 0000 0000 		.long	.LASF3
 3667 0041 02        		.uleb128 0x2
 3668 0042 04        		.byte	0x4
 3669 0043 07        		.byte	0x7
 3670 0044 0000 0000 		.long	.LASF4
 3671 0048 02        		.uleb128 0x2
 3672 0049 04        		.byte	0x4
 3673 004a 05        		.byte	0x5
 3674 004b 0000 0000 		.long	.LASF5
 3675 004f 02        		.uleb128 0x2
 3676 0050 08        		.byte	0x8
 3677 0051 07        		.byte	0x7
 3678 0052 0000 0000 		.long	.LASF6
 3679 0056 02        		.uleb128 0x2
 3680 0057 08        		.byte	0x8
 3681 0058 05        		.byte	0x5
 3682 0059 0000 0000 		.long	.LASF7
 3683 005d 02        		.uleb128 0x2
 3684 005e 02        		.byte	0x2
 3685 005f 07        		.byte	0x7
 3686 0060 0000 0000 		.long	.LASF8
 3687 0064 02        		.uleb128 0x2
 3688 0065 01        		.byte	0x1
 3689 0066 06        		.byte	0x6
 3690 0067 0000 0000 		.long	.LASF9
 3691 006b 03        		.uleb128 0x3
 3692 006c 02        		.byte	0x2
 3693 006d 05        		.byte	0x5
 3694 006e 696E 7400 		.string	"int"
 3695 0072 04        		.uleb128 0x4
 3696 0073 0000 0000 		.long	.LASF10
 3697 0077 04        		.byte	0x4
 3698 0078 7A        		.byte	0x7a
 3699 0079 2500 0000 		.long	0x25
 3700 007d 04        		.uleb128 0x4
 3701 007e 0000 0000 		.long	.LASF11
 3702 0082 04        		.byte	0x4
 3703 0083 7C        		.byte	0x7c
 3704 0084 5D00 0000 		.long	0x5d
GAS LISTING C:\Users\ADMINI~1\AppData\Local\Temp/ccSP7hgy.s 			page 68


 3705 0088 05        		.uleb128 0x5
 3706 0089 01        		.byte	0x1
 3707 008a 06        		.byte	0x6
 3708 008b 05        		.uleb128 0x5
 3709 008c 01        		.byte	0x1
 3710 008d 08        		.byte	0x8
 3711 008e 06        		.uleb128 0x6
 3712 008f 02        		.byte	0x2
 3713 0090 6400 0000 		.long	0x64
 3714 0094 07        		.uleb128 0x7
 3715 0095 02        		.byte	0x2
 3716 0096 05        		.byte	0x5
 3717 0097 31        		.byte	0x31
 3718 0098 F100 0000 		.long	0xf1
 3719 009c 08        		.uleb128 0x8
 3720 009d 0000 0000 		.long	.LASF12
 3721 00a1 C901      		.sleb128 201
 3722 00a3 08        		.uleb128 0x8
 3723 00a4 0000 0000 		.long	.LASF13
 3724 00a8 CA01      		.sleb128 202
 3725 00aa 08        		.uleb128 0x8
 3726 00ab 0000 0000 		.long	.LASF14
 3727 00af CB01      		.sleb128 203
 3728 00b1 08        		.uleb128 0x8
 3729 00b2 0000 0000 		.long	.LASF15
 3730 00b6 CC01      		.sleb128 204
 3731 00b8 08        		.uleb128 0x8
 3732 00b9 0000 0000 		.long	.LASF16
 3733 00bd CD01      		.sleb128 205
 3734 00bf 08        		.uleb128 0x8
 3735 00c0 0000 0000 		.long	.LASF17
 3736 00c4 CE01      		.sleb128 206
 3737 00c6 08        		.uleb128 0x8
 3738 00c7 0000 0000 		.long	.LASF18
 3739 00cb CF01      		.sleb128 207
 3740 00cd 08        		.uleb128 0x8
 3741 00ce 0000 0000 		.long	.LASF19
 3742 00d2 D001      		.sleb128 208
 3743 00d4 08        		.uleb128 0x8
 3744 00d5 0000 0000 		.long	.LASF20
 3745 00d9 D101      		.sleb128 209
 3746 00db 08        		.uleb128 0x8
 3747 00dc 0000 0000 		.long	.LASF21
 3748 00e0 D201      		.sleb128 210
 3749 00e2 08        		.uleb128 0x8
 3750 00e3 0000 0000 		.long	.LASF22
 3751 00e7 D301      		.sleb128 211
 3752 00e9 08        		.uleb128 0x8
 3753 00ea 0000 0000 		.long	.LASF23
 3754 00ee D401      		.sleb128 212
 3755 00f0 00        		.byte	0x0
 3756 00f1 07        		.uleb128 0x7
 3757 00f2 02        		.byte	0x2
 3758 00f3 05        		.byte	0x5
 3759 00f4 40        		.byte	0x40
 3760 00f5 0C05 0000 		.long	0x50c
 3761 00f9 08        		.uleb128 0x8
GAS LISTING C:\Users\ADMINI~1\AppData\Local\Temp/ccSP7hgy.s 			page 69


 3762 00fa 0000 0000 		.long	.LASF24
 3763 00fe 00        		.sleb128 0
 3764 00ff 08        		.uleb128 0x8
 3765 0100 0000 0000 		.long	.LASF25
 3766 0104 01        		.sleb128 1
 3767 0105 08        		.uleb128 0x8
 3768 0106 0000 0000 		.long	.LASF26
 3769 010a 02        		.sleb128 2
 3770 010b 08        		.uleb128 0x8
 3771 010c 0000 0000 		.long	.LASF27
 3772 0110 03        		.sleb128 3
 3773 0111 08        		.uleb128 0x8
 3774 0112 0000 0000 		.long	.LASF28
 3775 0116 04        		.sleb128 4
 3776 0117 08        		.uleb128 0x8
 3777 0118 0000 0000 		.long	.LASF29
 3778 011c 05        		.sleb128 5
 3779 011d 08        		.uleb128 0x8
 3780 011e 0000 0000 		.long	.LASF30
 3781 0122 06        		.sleb128 6
 3782 0123 08        		.uleb128 0x8
 3783 0124 0000 0000 		.long	.LASF31
 3784 0128 07        		.sleb128 7
 3785 0129 08        		.uleb128 0x8
 3786 012a 0000 0000 		.long	.LASF32
 3787 012e 08        		.sleb128 8
 3788 012f 08        		.uleb128 0x8
 3789 0130 0000 0000 		.long	.LASF33
 3790 0134 09        		.sleb128 9
 3791 0135 08        		.uleb128 0x8
 3792 0136 0000 0000 		.long	.LASF34
 3793 013a 0A        		.sleb128 10
 3794 013b 08        		.uleb128 0x8
 3795 013c 0000 0000 		.long	.LASF35
 3796 0140 0B        		.sleb128 11
 3797 0141 08        		.uleb128 0x8
 3798 0142 0000 0000 		.long	.LASF36
 3799 0146 0C        		.sleb128 12
 3800 0147 08        		.uleb128 0x8
 3801 0148 0000 0000 		.long	.LASF37
 3802 014c 0D        		.sleb128 13
 3803 014d 08        		.uleb128 0x8
 3804 014e 0000 0000 		.long	.LASF38
 3805 0152 0E        		.sleb128 14
 3806 0153 08        		.uleb128 0x8
 3807 0154 0000 0000 		.long	.LASF39
 3808 0158 0F        		.sleb128 15
 3809 0159 08        		.uleb128 0x8
 3810 015a 0000 0000 		.long	.LASF40
 3811 015e 10        		.sleb128 16
 3812 015f 08        		.uleb128 0x8
 3813 0160 0000 0000 		.long	.LASF41
 3814 0164 11        		.sleb128 17
 3815 0165 08        		.uleb128 0x8
 3816 0166 0000 0000 		.long	.LASF42
 3817 016a 12        		.sleb128 18
 3818 016b 08        		.uleb128 0x8
GAS LISTING C:\Users\ADMINI~1\AppData\Local\Temp/ccSP7hgy.s 			page 70


 3819 016c 0000 0000 		.long	.LASF43
 3820 0170 13        		.sleb128 19
 3821 0171 08        		.uleb128 0x8
 3822 0172 0000 0000 		.long	.LASF44
 3823 0176 14        		.sleb128 20
 3824 0177 08        		.uleb128 0x8
 3825 0178 0000 0000 		.long	.LASF45
 3826 017c 15        		.sleb128 21
 3827 017d 08        		.uleb128 0x8
 3828 017e 0000 0000 		.long	.LASF46
 3829 0182 16        		.sleb128 22
 3830 0183 08        		.uleb128 0x8
 3831 0184 0000 0000 		.long	.LASF47
 3832 0188 17        		.sleb128 23
 3833 0189 08        		.uleb128 0x8
 3834 018a 0000 0000 		.long	.LASF48
 3835 018e 18        		.sleb128 24
 3836 018f 08        		.uleb128 0x8
 3837 0190 0000 0000 		.long	.LASF49
 3838 0194 19        		.sleb128 25
 3839 0195 08        		.uleb128 0x8
 3840 0196 0000 0000 		.long	.LASF50
 3841 019a 1A        		.sleb128 26
 3842 019b 08        		.uleb128 0x8
 3843 019c 0000 0000 		.long	.LASF51
 3844 01a0 1B        		.sleb128 27
 3845 01a1 08        		.uleb128 0x8
 3846 01a2 0000 0000 		.long	.LASF52
 3847 01a6 1C        		.sleb128 28
 3848 01a7 08        		.uleb128 0x8
 3849 01a8 0000 0000 		.long	.LASF53
 3850 01ac 1D        		.sleb128 29
 3851 01ad 08        		.uleb128 0x8
 3852 01ae 0000 0000 		.long	.LASF54
 3853 01b2 1E        		.sleb128 30
 3854 01b3 08        		.uleb128 0x8
 3855 01b4 0000 0000 		.long	.LASF55
 3856 01b8 1F        		.sleb128 31
 3857 01b9 08        		.uleb128 0x8
 3858 01ba 0000 0000 		.long	.LASF56
 3859 01be 20        		.sleb128 32
 3860 01bf 08        		.uleb128 0x8
 3861 01c0 0000 0000 		.long	.LASF57
 3862 01c4 21        		.sleb128 33
 3863 01c5 08        		.uleb128 0x8
 3864 01c6 0000 0000 		.long	.LASF58
 3865 01ca 22        		.sleb128 34
 3866 01cb 08        		.uleb128 0x8
 3867 01cc 0000 0000 		.long	.LASF59
 3868 01d0 23        		.sleb128 35
 3869 01d1 08        		.uleb128 0x8
 3870 01d2 0000 0000 		.long	.LASF60
 3871 01d6 24        		.sleb128 36
 3872 01d7 08        		.uleb128 0x8
 3873 01d8 0000 0000 		.long	.LASF61
 3874 01dc 25        		.sleb128 37
 3875 01dd 08        		.uleb128 0x8
GAS LISTING C:\Users\ADMINI~1\AppData\Local\Temp/ccSP7hgy.s 			page 71


 3876 01de 0000 0000 		.long	.LASF62
 3877 01e2 26        		.sleb128 38
 3878 01e3 08        		.uleb128 0x8
 3879 01e4 0000 0000 		.long	.LASF63
 3880 01e8 27        		.sleb128 39
 3881 01e9 08        		.uleb128 0x8
 3882 01ea 0000 0000 		.long	.LASF64
 3883 01ee 28        		.sleb128 40
 3884 01ef 08        		.uleb128 0x8
 3885 01f0 0000 0000 		.long	.LASF65
 3886 01f4 29        		.sleb128 41
 3887 01f5 08        		.uleb128 0x8
 3888 01f6 0000 0000 		.long	.LASF66
 3889 01fa 2A        		.sleb128 42
 3890 01fb 08        		.uleb128 0x8
 3891 01fc 0000 0000 		.long	.LASF67
 3892 0200 2B        		.sleb128 43
 3893 0201 08        		.uleb128 0x8
 3894 0202 0000 0000 		.long	.LASF68
 3895 0206 2C        		.sleb128 44
 3896 0207 08        		.uleb128 0x8
 3897 0208 0000 0000 		.long	.LASF69
 3898 020c 2D        		.sleb128 45
 3899 020d 08        		.uleb128 0x8
 3900 020e 0000 0000 		.long	.LASF70
 3901 0212 2E        		.sleb128 46
 3902 0213 08        		.uleb128 0x8
 3903 0214 0000 0000 		.long	.LASF71
 3904 0218 2F        		.sleb128 47
 3905 0219 08        		.uleb128 0x8
 3906 021a 0000 0000 		.long	.LASF72
 3907 021e 30        		.sleb128 48
 3908 021f 08        		.uleb128 0x8
 3909 0220 0000 0000 		.long	.LASF73
 3910 0224 31        		.sleb128 49
 3911 0225 08        		.uleb128 0x8
 3912 0226 0000 0000 		.long	.LASF74
 3913 022a 32        		.sleb128 50
 3914 022b 08        		.uleb128 0x8
 3915 022c 0000 0000 		.long	.LASF75
 3916 0230 33        		.sleb128 51
 3917 0231 08        		.uleb128 0x8
 3918 0232 0000 0000 		.long	.LASF76
 3919 0236 34        		.sleb128 52
 3920 0237 08        		.uleb128 0x8
 3921 0238 0000 0000 		.long	.LASF77
 3922 023c 35        		.sleb128 53
 3923 023d 08        		.uleb128 0x8
 3924 023e 0000 0000 		.long	.LASF78
 3925 0242 36        		.sleb128 54
 3926 0243 08        		.uleb128 0x8
 3927 0244 0000 0000 		.long	.LASF79
 3928 0248 37        		.sleb128 55
 3929 0249 08        		.uleb128 0x8
 3930 024a 0000 0000 		.long	.LASF80
 3931 024e 38        		.sleb128 56
 3932 024f 08        		.uleb128 0x8
GAS LISTING C:\Users\ADMINI~1\AppData\Local\Temp/ccSP7hgy.s 			page 72


 3933 0250 0000 0000 		.long	.LASF81
 3934 0254 39        		.sleb128 57
 3935 0255 08        		.uleb128 0x8
 3936 0256 0000 0000 		.long	.LASF82
 3937 025a 3A        		.sleb128 58
 3938 025b 08        		.uleb128 0x8
 3939 025c 0000 0000 		.long	.LASF83
 3940 0260 3B        		.sleb128 59
 3941 0261 08        		.uleb128 0x8
 3942 0262 0000 0000 		.long	.LASF84
 3943 0266 3C        		.sleb128 60
 3944 0267 08        		.uleb128 0x8
 3945 0268 0000 0000 		.long	.LASF85
 3946 026c 3D        		.sleb128 61
 3947 026d 08        		.uleb128 0x8
 3948 026e 0000 0000 		.long	.LASF86
 3949 0272 3E        		.sleb128 62
 3950 0273 08        		.uleb128 0x8
 3951 0274 0000 0000 		.long	.LASF87
 3952 0278 3F        		.sleb128 63
 3953 0279 08        		.uleb128 0x8
 3954 027a 0000 0000 		.long	.LASF88
 3955 027e C000      		.sleb128 64
 3956 0280 08        		.uleb128 0x8
 3957 0281 0000 0000 		.long	.LASF89
 3958 0285 C100      		.sleb128 65
 3959 0287 08        		.uleb128 0x8
 3960 0288 0000 0000 		.long	.LASF90
 3961 028c C200      		.sleb128 66
 3962 028e 08        		.uleb128 0x8
 3963 028f 0000 0000 		.long	.LASF91
 3964 0293 C300      		.sleb128 67
 3965 0295 08        		.uleb128 0x8
 3966 0296 0000 0000 		.long	.LASF92
 3967 029a C400      		.sleb128 68
 3968 029c 08        		.uleb128 0x8
 3969 029d 0000 0000 		.long	.LASF93
 3970 02a1 C500      		.sleb128 69
 3971 02a3 08        		.uleb128 0x8
 3972 02a4 0000 0000 		.long	.LASF94
 3973 02a8 C600      		.sleb128 70
 3974 02aa 08        		.uleb128 0x8
 3975 02ab 0000 0000 		.long	.LASF95
 3976 02af C700      		.sleb128 71
 3977 02b1 08        		.uleb128 0x8
 3978 02b2 0000 0000 		.long	.LASF96
 3979 02b6 C800      		.sleb128 72
 3980 02b8 08        		.uleb128 0x8
 3981 02b9 0000 0000 		.long	.LASF97
 3982 02bd C900      		.sleb128 73
 3983 02bf 08        		.uleb128 0x8
 3984 02c0 0000 0000 		.long	.LASF98
 3985 02c4 CA00      		.sleb128 74
 3986 02c6 08        		.uleb128 0x8
 3987 02c7 0000 0000 		.long	.LASF99
 3988 02cb CB00      		.sleb128 75
 3989 02cd 08        		.uleb128 0x8
GAS LISTING C:\Users\ADMINI~1\AppData\Local\Temp/ccSP7hgy.s 			page 73


 3990 02ce 0000 0000 		.long	.LASF100
 3991 02d2 CC00      		.sleb128 76
 3992 02d4 08        		.uleb128 0x8
 3993 02d5 0000 0000 		.long	.LASF101
 3994 02d9 CD00      		.sleb128 77
 3995 02db 08        		.uleb128 0x8
 3996 02dc 0000 0000 		.long	.LASF102
 3997 02e0 CE00      		.sleb128 78
 3998 02e2 08        		.uleb128 0x8
 3999 02e3 0000 0000 		.long	.LASF103
 4000 02e7 CF00      		.sleb128 79
 4001 02e9 08        		.uleb128 0x8
 4002 02ea 0000 0000 		.long	.LASF104
 4003 02ee D000      		.sleb128 80
 4004 02f0 08        		.uleb128 0x8
 4005 02f1 0000 0000 		.long	.LASF105
 4006 02f5 D100      		.sleb128 81
 4007 02f7 08        		.uleb128 0x8
 4008 02f8 0000 0000 		.long	.LASF106
 4009 02fc D200      		.sleb128 82
 4010 02fe 08        		.uleb128 0x8
 4011 02ff 0000 0000 		.long	.LASF107
 4012 0303 D300      		.sleb128 83
 4013 0305 08        		.uleb128 0x8
 4014 0306 0000 0000 		.long	.LASF108
 4015 030a D400      		.sleb128 84
 4016 030c 08        		.uleb128 0x8
 4017 030d 0000 0000 		.long	.LASF109
 4018 0311 D500      		.sleb128 85
 4019 0313 08        		.uleb128 0x8
 4020 0314 0000 0000 		.long	.LASF110
 4021 0318 D600      		.sleb128 86
 4022 031a 08        		.uleb128 0x8
 4023 031b 0000 0000 		.long	.LASF111
 4024 031f D700      		.sleb128 87
 4025 0321 08        		.uleb128 0x8
 4026 0322 0000 0000 		.long	.LASF112
 4027 0326 D800      		.sleb128 88
 4028 0328 08        		.uleb128 0x8
 4029 0329 0000 0000 		.long	.LASF113
 4030 032d D900      		.sleb128 89
 4031 032f 08        		.uleb128 0x8
 4032 0330 0000 0000 		.long	.LASF114
 4033 0334 DA00      		.sleb128 90
 4034 0336 08        		.uleb128 0x8
 4035 0337 0000 0000 		.long	.LASF115
 4036 033b DB00      		.sleb128 91
 4037 033d 08        		.uleb128 0x8
 4038 033e 0000 0000 		.long	.LASF116
 4039 0342 DC00      		.sleb128 92
 4040 0344 08        		.uleb128 0x8
 4041 0345 0000 0000 		.long	.LASF117
 4042 0349 DD00      		.sleb128 93
 4043 034b 08        		.uleb128 0x8
 4044 034c 0000 0000 		.long	.LASF118
 4045 0350 DE00      		.sleb128 94
 4046 0352 08        		.uleb128 0x8
GAS LISTING C:\Users\ADMINI~1\AppData\Local\Temp/ccSP7hgy.s 			page 74


 4047 0353 0000 0000 		.long	.LASF119
 4048 0357 DF00      		.sleb128 95
 4049 0359 08        		.uleb128 0x8
 4050 035a 0000 0000 		.long	.LASF120
 4051 035e E000      		.sleb128 96
 4052 0360 08        		.uleb128 0x8
 4053 0361 0000 0000 		.long	.LASF121
 4054 0365 E100      		.sleb128 97
 4055 0367 08        		.uleb128 0x8
 4056 0368 0000 0000 		.long	.LASF122
 4057 036c E200      		.sleb128 98
 4058 036e 08        		.uleb128 0x8
 4059 036f 0000 0000 		.long	.LASF123
 4060 0373 E300      		.sleb128 99
 4061 0375 08        		.uleb128 0x8
 4062 0376 0000 0000 		.long	.LASF124
 4063 037a E400      		.sleb128 100
 4064 037c 08        		.uleb128 0x8
 4065 037d 0000 0000 		.long	.LASF125
 4066 0381 E500      		.sleb128 101
 4067 0383 08        		.uleb128 0x8
 4068 0384 0000 0000 		.long	.LASF126
 4069 0388 E600      		.sleb128 102
 4070 038a 08        		.uleb128 0x8
 4071 038b 0000 0000 		.long	.LASF127
 4072 038f E700      		.sleb128 103
 4073 0391 08        		.uleb128 0x8
 4074 0392 0000 0000 		.long	.LASF128
 4075 0396 E800      		.sleb128 104
 4076 0398 08        		.uleb128 0x8
 4077 0399 0000 0000 		.long	.LASF129
 4078 039d E900      		.sleb128 105
 4079 039f 08        		.uleb128 0x8
 4080 03a0 0000 0000 		.long	.LASF130
 4081 03a4 EA00      		.sleb128 106
 4082 03a6 08        		.uleb128 0x8
 4083 03a7 0000 0000 		.long	.LASF131
 4084 03ab EB00      		.sleb128 107
 4085 03ad 08        		.uleb128 0x8
 4086 03ae 0000 0000 		.long	.LASF132
 4087 03b2 EC00      		.sleb128 108
 4088 03b4 08        		.uleb128 0x8
 4089 03b5 0000 0000 		.long	.LASF133
 4090 03b9 ED00      		.sleb128 109
 4091 03bb 08        		.uleb128 0x8
 4092 03bc 0000 0000 		.long	.LASF134
 4093 03c0 EE00      		.sleb128 110
 4094 03c2 08        		.uleb128 0x8
 4095 03c3 0000 0000 		.long	.LASF135
 4096 03c7 EF00      		.sleb128 111
 4097 03c9 08        		.uleb128 0x8
 4098 03ca 0000 0000 		.long	.LASF136
 4099 03ce F000      		.sleb128 112
 4100 03d0 08        		.uleb128 0x8
 4101 03d1 0000 0000 		.long	.LASF137
 4102 03d5 F100      		.sleb128 113
 4103 03d7 08        		.uleb128 0x8
GAS LISTING C:\Users\ADMINI~1\AppData\Local\Temp/ccSP7hgy.s 			page 75


 4104 03d8 0000 0000 		.long	.LASF138
 4105 03dc F200      		.sleb128 114
 4106 03de 08        		.uleb128 0x8
 4107 03df 0000 0000 		.long	.LASF139
 4108 03e3 F300      		.sleb128 115
 4109 03e5 08        		.uleb128 0x8
 4110 03e6 0000 0000 		.long	.LASF140
 4111 03ea F400      		.sleb128 116
 4112 03ec 08        		.uleb128 0x8
 4113 03ed 0000 0000 		.long	.LASF141
 4114 03f1 F500      		.sleb128 117
 4115 03f3 08        		.uleb128 0x8
 4116 03f4 0000 0000 		.long	.LASF142
 4117 03f8 F600      		.sleb128 118
 4118 03fa 08        		.uleb128 0x8
 4119 03fb 0000 0000 		.long	.LASF143
 4120 03ff F700      		.sleb128 119
 4121 0401 08        		.uleb128 0x8
 4122 0402 0000 0000 		.long	.LASF144
 4123 0406 F800      		.sleb128 120
 4124 0408 08        		.uleb128 0x8
 4125 0409 0000 0000 		.long	.LASF145
 4126 040d F900      		.sleb128 121
 4127 040f 08        		.uleb128 0x8
 4128 0410 0000 0000 		.long	.LASF146
 4129 0414 FA00      		.sleb128 122
 4130 0416 08        		.uleb128 0x8
 4131 0417 0000 0000 		.long	.LASF147
 4132 041b FB00      		.sleb128 123
 4133 041d 08        		.uleb128 0x8
 4134 041e 0000 0000 		.long	.LASF148
 4135 0422 FC00      		.sleb128 124
 4136 0424 08        		.uleb128 0x8
 4137 0425 0000 0000 		.long	.LASF149
 4138 0429 FD00      		.sleb128 125
 4139 042b 08        		.uleb128 0x8
 4140 042c 0000 0000 		.long	.LASF150
 4141 0430 FE00      		.sleb128 126
 4142 0432 08        		.uleb128 0x8
 4143 0433 0000 0000 		.long	.LASF151
 4144 0437 FF00      		.sleb128 127
 4145 0439 08        		.uleb128 0x8
 4146 043a 0000 0000 		.long	.LASF152
 4147 043e 8001      		.sleb128 128
 4148 0440 08        		.uleb128 0x8
 4149 0441 0000 0000 		.long	.LASF153
 4150 0445 8101      		.sleb128 129
 4151 0447 08        		.uleb128 0x8
 4152 0448 0000 0000 		.long	.LASF154
 4153 044c 8201      		.sleb128 130
 4154 044e 08        		.uleb128 0x8
 4155 044f 0000 0000 		.long	.LASF155
 4156 0453 8301      		.sleb128 131
 4157 0455 08        		.uleb128 0x8
 4158 0456 0000 0000 		.long	.LASF156
 4159 045a 8401      		.sleb128 132
 4160 045c 08        		.uleb128 0x8
GAS LISTING C:\Users\ADMINI~1\AppData\Local\Temp/ccSP7hgy.s 			page 76


 4161 045d 0000 0000 		.long	.LASF157
 4162 0461 8501      		.sleb128 133
 4163 0463 08        		.uleb128 0x8
 4164 0464 0000 0000 		.long	.LASF158
 4165 0468 8601      		.sleb128 134
 4166 046a 08        		.uleb128 0x8
 4167 046b 0000 0000 		.long	.LASF159
 4168 046f 8701      		.sleb128 135
 4169 0471 08        		.uleb128 0x8
 4170 0472 0000 0000 		.long	.LASF160
 4171 0476 8801      		.sleb128 136
 4172 0478 08        		.uleb128 0x8
 4173 0479 0000 0000 		.long	.LASF161
 4174 047d 8901      		.sleb128 137
 4175 047f 08        		.uleb128 0x8
 4176 0480 0000 0000 		.long	.LASF162
 4177 0484 8A01      		.sleb128 138
 4178 0486 08        		.uleb128 0x8
 4179 0487 0000 0000 		.long	.LASF163
 4180 048b 8B01      		.sleb128 139
 4181 048d 08        		.uleb128 0x8
 4182 048e 0000 0000 		.long	.LASF164
 4183 0492 8C01      		.sleb128 140
 4184 0494 08        		.uleb128 0x8
 4185 0495 0000 0000 		.long	.LASF165
 4186 0499 8D01      		.sleb128 141
 4187 049b 08        		.uleb128 0x8
 4188 049c 0000 0000 		.long	.LASF166
 4189 04a0 8E01      		.sleb128 142
 4190 04a2 08        		.uleb128 0x8
 4191 04a3 0000 0000 		.long	.LASF167
 4192 04a7 8F01      		.sleb128 143
 4193 04a9 08        		.uleb128 0x8
 4194 04aa 0000 0000 		.long	.LASF168
 4195 04ae 9001      		.sleb128 144
 4196 04b0 08        		.uleb128 0x8
 4197 04b1 0000 0000 		.long	.LASF169
 4198 04b5 9101      		.sleb128 145
 4199 04b7 08        		.uleb128 0x8
 4200 04b8 0000 0000 		.long	.LASF170
 4201 04bc 9201      		.sleb128 146
 4202 04be 08        		.uleb128 0x8
 4203 04bf 0000 0000 		.long	.LASF171
 4204 04c3 9301      		.sleb128 147
 4205 04c5 08        		.uleb128 0x8
 4206 04c6 0000 0000 		.long	.LASF172
 4207 04ca 9401      		.sleb128 148
 4208 04cc 08        		.uleb128 0x8
 4209 04cd 0000 0000 		.long	.LASF173
 4210 04d1 9501      		.sleb128 149
 4211 04d3 08        		.uleb128 0x8
 4212 04d4 0000 0000 		.long	.LASF174
 4213 04d8 9601      		.sleb128 150
 4214 04da 08        		.uleb128 0x8
 4215 04db 0000 0000 		.long	.LASF175
 4216 04df 9701      		.sleb128 151
 4217 04e1 08        		.uleb128 0x8
GAS LISTING C:\Users\ADMINI~1\AppData\Local\Temp/ccSP7hgy.s 			page 77


 4218 04e2 0000 0000 		.long	.LASF176
 4219 04e6 9801      		.sleb128 152
 4220 04e8 08        		.uleb128 0x8
 4221 04e9 0000 0000 		.long	.LASF177
 4222 04ed 9901      		.sleb128 153
 4223 04ef 08        		.uleb128 0x8
 4224 04f0 0000 0000 		.long	.LASF178
 4225 04f4 9A01      		.sleb128 154
 4226 04f6 08        		.uleb128 0x8
 4227 04f7 0000 0000 		.long	.LASF179
 4228 04fb 9B01      		.sleb128 155
 4229 04fd 08        		.uleb128 0x8
 4230 04fe 0000 0000 		.long	.LASF180
 4231 0502 9C01      		.sleb128 156
 4232 0504 08        		.uleb128 0x8
 4233 0505 0000 0000 		.long	.LASF181
 4234 0509 9D01      		.sleb128 157
 4235 050b 00        		.byte	0x0
 4236 050c 09        		.uleb128 0x9
 4237 050d 02        		.byte	0x2
 4238 050e 06        		.byte	0x6
 4239 050f 0F        		.byte	0xf
 4240 0510 3105 0000 		.long	0x531
 4241 0514 0A        		.uleb128 0xa
 4242 0515 0000 0000 		.long	.LASF182
 4243 0519 06        		.byte	0x6
 4244 051a 10        		.byte	0x10
 4245 051b 7200 0000 		.long	0x72
 4246 051f 02        		.byte	0x2
 4247 0520 23        		.byte	0x23
 4248 0521 00        		.uleb128 0x0
 4249 0522 0A        		.uleb128 0xa
 4250 0523 0000 0000 		.long	.LASF183
 4251 0527 06        		.byte	0x6
 4252 0528 11        		.byte	0x11
 4253 0529 7200 0000 		.long	0x72
 4254 052d 02        		.byte	0x2
 4255 052e 23        		.byte	0x23
 4256 052f 01        		.uleb128 0x1
 4257 0530 00        		.byte	0x0
 4258 0531 0B        		.uleb128 0xb
 4259 0532 4B65 7900 		.string	"Key"
 4260 0536 06        		.byte	0x6
 4261 0537 12        		.byte	0x12
 4262 0538 0C05 0000 		.long	0x50c
 4263 053c 0C        		.uleb128 0xc
 4264 053d 0000 0000 		.long	.LASF186
 4265 0541 02        		.byte	0x2
 4266 0542 68        		.byte	0x68
 4267 0543 01        		.byte	0x1
 4268 0544 03        		.byte	0x3
 4269 0545 5505 0000 		.long	0x555
 4270 0549 0D        		.uleb128 0xd
 4271 054a 0000 0000 		.long	.LASF184
 4272 054e 02        		.byte	0x2
 4273 054f 67        		.byte	0x67
 4274 0550 7D00 0000 		.long	0x7d
GAS LISTING C:\Users\ADMINI~1\AppData\Local\Temp/ccSP7hgy.s 			page 78


 4275 0554 00        		.byte	0x0
 4276 0555 0E        		.uleb128 0xe
 4277 0556 01        		.byte	0x1
 4278 0557 0000 0000 		.long	.LASF203
 4279 055b 01        		.byte	0x1
 4280 055c 77        		.byte	0x77
 4281 055d 01        		.byte	0x1
 4282 055e 7200 0000 		.long	0x72
 4283 0562 01        		.byte	0x1
 4284 0563 0F        		.uleb128 0xf
 4285 0564 01        		.byte	0x1
 4286 0565 0000 0000 		.long	.LASF201
 4287 0569 01        		.byte	0x1
 4288 056a 0C01      		.word	0x10c
 4289 056c 01        		.byte	0x1
 4290 056d 7200 0000 		.long	0x72
 4291 0571 01        		.byte	0x1
 4292 0572 8305 0000 		.long	0x583
 4293 0576 10        		.uleb128 0x10
 4294 0577 0000 0000 		.long	.LASF185
 4295 057b 01        		.byte	0x1
 4296 057c 0C01      		.word	0x10c
 4297 057e 7200 0000 		.long	0x72
 4298 0582 00        		.byte	0x0
 4299 0583 11        		.uleb128 0x11
 4300 0584 01        		.byte	0x1
 4301 0585 0000 0000 		.long	.LASF207
 4302 0589 01        		.byte	0x1
 4303 058a D1        		.byte	0xd1
 4304 058b 01        		.byte	0x1
 4305 058c 01        		.byte	0x1
 4306 058d 0C        		.uleb128 0xc
 4307 058e 0000 0000 		.long	.LASF187
 4308 0592 03        		.byte	0x3
 4309 0593 6F        		.byte	0x6f
 4310 0594 01        		.byte	0x1
 4311 0595 03        		.byte	0x3
 4312 0596 BE05 0000 		.long	0x5be
 4313 059a 0D        		.uleb128 0xd
 4314 059b 0000 0000 		.long	.LASF188
 4315 059f 03        		.byte	0x3
 4316 05a0 6E        		.byte	0x6e
 4317 05a1 BE05 0000 		.long	0x5be
 4318 05a5 12        		.uleb128 0x12
 4319 05a6 0000 0000 		.long	.LASF189
 4320 05aa 03        		.byte	0x3
 4321 05ab 70        		.byte	0x70
 4322 05ac 7D00 0000 		.long	0x7d
 4323 05b0 12        		.uleb128 0x12
 4324 05b1 0000 0000 		.long	.LASF190
 4325 05b5 03        		.byte	0x3
 4326 05b6 71        		.byte	0x71
 4327 05b7 BE05 0000 		.long	0x5be
 4328 05bb 13        		.uleb128 0x13
 4329 05bc 13        		.uleb128 0x13
 4330 05bd 00        		.byte	0x0
 4331 05be 02        		.uleb128 0x2
GAS LISTING C:\Users\ADMINI~1\AppData\Local\Temp/ccSP7hgy.s 			page 79


 4332 05bf 04        		.byte	0x4
 4333 05c0 04        		.byte	0x4
 4334 05c1 0000 0000 		.long	.LASF191
 4335 05c5 14        		.uleb128 0x14
 4336 05c6 0000 0000 		.long	.LASF205
 4337 05ca 01        		.byte	0x1
 4338 05cb D501      		.word	0x1d5
 4339 05cd 01        		.byte	0x1
 4340 05ce 01        		.byte	0x1
 4341 05cf 15        		.uleb128 0x15
 4342 05d0 0000 0000 		.long	.LASF197
 4343 05d4 01        		.byte	0x1
 4344 05d5 FF        		.byte	0xff
 4345 05d6 01        		.byte	0x1
 4346 05d7 7200 0000 		.long	0x72
 4347 05db 01        		.byte	0x1
 4348 05dc 1C06 0000 		.long	0x61c
 4349 05e0 0D        		.uleb128 0xd
 4350 05e1 0000 0000 		.long	.LASF192
 4351 05e5 01        		.byte	0x1
 4352 05e6 FE        		.byte	0xfe
 4353 05e7 7200 0000 		.long	0x72
 4354 05eb 0D        		.uleb128 0xd
 4355 05ec 0000 0000 		.long	.LASF193
 4356 05f0 01        		.byte	0x1
 4357 05f1 FE        		.byte	0xfe
 4358 05f2 7200 0000 		.long	0x72
 4359 05f6 0D        		.uleb128 0xd
 4360 05f7 0000 0000 		.long	.LASF194
 4361 05fb 01        		.byte	0x1
 4362 05fc FE        		.byte	0xfe
 4363 05fd 7200 0000 		.long	0x72
 4364 0601 16        		.uleb128 0x16
 4365 0602 17        		.uleb128 0x17
 4366 0603 0000 0000 		.long	.LASF195
 4367 0607 01        		.byte	0x1
 4368 0608 0001      		.word	0x100
 4369 060a 7D00 0000 		.long	0x7d
 4370 060e 17        		.uleb128 0x17
 4371 060f 0000 0000 		.long	.LASF196
 4372 0613 01        		.byte	0x1
 4373 0614 0001      		.word	0x100
 4374 0616 7200 0000 		.long	0x72
 4375 061a 00        		.byte	0x0
 4376 061b 00        		.byte	0x0
 4377 061c 18        		.uleb128 0x18
 4378 061d 0000 0000 		.long	.LASF198
 4379 0621 01        		.byte	0x1
 4380 0622 0401      		.word	0x104
 4381 0624 01        		.byte	0x1
 4382 0625 7200 0000 		.long	0x72
 4383 0629 01        		.byte	0x1
 4384 062a 6B06 0000 		.long	0x66b
 4385 062e 10        		.uleb128 0x10
 4386 062f 0000 0000 		.long	.LASF192
 4387 0633 01        		.byte	0x1
 4388 0634 0301      		.word	0x103
GAS LISTING C:\Users\ADMINI~1\AppData\Local\Temp/ccSP7hgy.s 			page 80


 4389 0636 7200 0000 		.long	0x72
 4390 063a 10        		.uleb128 0x10
 4391 063b 0000 0000 		.long	.LASF193
 4392 063f 01        		.byte	0x1
 4393 0640 0301      		.word	0x103
 4394 0642 7200 0000 		.long	0x72
 4395 0646 10        		.uleb128 0x10
 4396 0647 0000 0000 		.long	.LASF194
 4397 064b 01        		.byte	0x1
 4398 064c 0301      		.word	0x103
 4399 064e 7200 0000 		.long	0x72
 4400 0652 17        		.uleb128 0x17
 4401 0653 0000 0000 		.long	.LASF199
 4402 0657 01        		.byte	0x1
 4403 0658 0501      		.word	0x105
 4404 065a 7200 0000 		.long	0x72
 4405 065e 17        		.uleb128 0x17
 4406 065f 0000 0000 		.long	.LASF200
 4407 0663 01        		.byte	0x1
 4408 0664 0601      		.word	0x106
 4409 0666 6B00 0000 		.long	0x6b
 4410 066a 00        		.byte	0x0
 4411 066b 0F        		.uleb128 0xf
 4412 066c 01        		.byte	0x1
 4413 066d 0000 0000 		.long	.LASF202
 4414 0671 01        		.byte	0x1
 4415 0672 1401      		.word	0x114
 4416 0674 01        		.byte	0x1
 4417 0675 7200 0000 		.long	0x72
 4418 0679 01        		.byte	0x1
 4419 067a 9206 0000 		.long	0x692
 4420 067e 10        		.uleb128 0x10
 4421 067f 0000 0000 		.long	.LASF185
 4422 0683 01        		.byte	0x1
 4423 0684 1401      		.word	0x114
 4424 0686 7200 0000 		.long	0x72
 4425 068a 16        		.uleb128 0x16
 4426 068b 19        		.uleb128 0x19
 4427 068c 7605 0000 		.long	0x576
 4428 0690 00        		.byte	0x0
 4429 0691 00        		.byte	0x0
 4430 0692 0E        		.uleb128 0xe
 4431 0693 01        		.byte	0x1
 4432 0694 0000 0000 		.long	.LASF204
 4433 0698 01        		.byte	0x1
 4434 0699 7A        		.byte	0x7a
 4435 069a 01        		.byte	0x1
 4436 069b 7200 0000 		.long	0x72
 4437 069f 01        		.byte	0x1
 4438 06a0 1A        		.uleb128 0x1a
 4439 06a1 0000 0000 		.long	.LASF206
 4440 06a5 01        		.byte	0x1
 4441 06a6 A3        		.byte	0xa3
 4442 06a7 01        		.byte	0x1
 4443 06a8 01        		.byte	0x1
 4444 06a9 11        		.uleb128 0x11
 4445 06aa 01        		.byte	0x1
GAS LISTING C:\Users\ADMINI~1\AppData\Local\Temp/ccSP7hgy.s 			page 81


 4446 06ab 0000 0000 		.long	.LASF208
 4447 06af 01        		.byte	0x1
 4448 06b0 73        		.byte	0x73
 4449 06b1 01        		.byte	0x1
 4450 06b2 01        		.byte	0x1
 4451 06b3 1B        		.uleb128 0x1b
 4452 06b4 A906 0000 		.long	0x6a9
 4453 06b8 0000 0000 		.long	.LFB8
 4454 06bc 0000 0000 		.long	.LFE8
 4455 06c0 02        		.byte	0x2
 4456 06c1 90        		.byte	0x90
 4457 06c2 20        		.uleb128 0x20
 4458 06c3 1B        		.uleb128 0x1b
 4459 06c4 5505 0000 		.long	0x555
 4460 06c8 0000 0000 		.long	.LFB9
 4461 06cc 0000 0000 		.long	.LFE9
 4462 06d0 02        		.byte	0x2
 4463 06d1 90        		.byte	0x90
 4464 06d2 20        		.uleb128 0x20
 4465 06d3 1B        		.uleb128 0x1b
 4466 06d4 9206 0000 		.long	0x692
 4467 06d8 0000 0000 		.long	.LFB10
 4468 06dc 0000 0000 		.long	.LFE10
 4469 06e0 02        		.byte	0x2
 4470 06e1 90        		.byte	0x90
 4471 06e2 20        		.uleb128 0x20
 4472 06e3 1C        		.uleb128 0x1c
 4473 06e4 01        		.byte	0x1
 4474 06e5 0000 0000 		.long	.LASF216
 4475 06e9 01        		.byte	0x1
 4476 06ea 7E        		.byte	0x7e
 4477 06eb 01        		.byte	0x1
 4478 06ec 0000 0000 		.long	.LFB11
 4479 06f0 0000 0000 		.long	.LFE11
 4480 06f4 02        		.byte	0x2
 4481 06f5 90        		.byte	0x90
 4482 06f6 20        		.uleb128 0x20
 4483 06f7 0B07 0000 		.long	0x70b
 4484 06fb 1D        		.uleb128 0x1d
 4485 06fc 0000 0000 		.long	.LASF211
 4486 0700 01        		.byte	0x1
 4487 0701 7E        		.byte	0x7e
 4488 0702 7200 0000 		.long	0x72
 4489 0706 0000 0000 		.long	.LLST4
 4490 070a 00        		.byte	0x0
 4491 070b 1E        		.uleb128 0x1e
 4492 070c 01        		.byte	0x1
 4493 070d 0000 0000 		.long	.LASF320
 4494 0711 01        		.byte	0x1
 4495 0712 A9        		.byte	0xa9
 4496 0713 01        		.byte	0x1
 4497 0714 7200 0000 		.long	0x72
 4498 0718 0000 0000 		.long	.LFB14
 4499 071c 0000 0000 		.long	.LFE14
 4500 0720 02        		.byte	0x2
 4501 0721 90        		.byte	0x90
 4502 0722 20        		.uleb128 0x20
GAS LISTING C:\Users\ADMINI~1\AppData\Local\Temp/ccSP7hgy.s 			page 82


 4503 0723 1F        		.uleb128 0x1f
 4504 0724 01        		.byte	0x1
 4505 0725 0000 0000 		.long	.LASF209
 4506 0729 01        		.byte	0x1
 4507 072a AF        		.byte	0xaf
 4508 072b 01        		.byte	0x1
 4509 072c 0000 0000 		.long	.LFB15
 4510 0730 0000 0000 		.long	.LFE15
 4511 0734 02        		.byte	0x2
 4512 0735 90        		.byte	0x90
 4513 0736 20        		.uleb128 0x20
 4514 0737 1B        		.uleb128 0x1b
 4515 0738 8305 0000 		.long	0x583
 4516 073c 0000 0000 		.long	.LFB18
 4517 0740 0000 0000 		.long	.LFE18
 4518 0744 02        		.byte	0x2
 4519 0745 90        		.byte	0x90
 4520 0746 20        		.uleb128 0x20
 4521 0747 20        		.uleb128 0x20
 4522 0748 6305 0000 		.long	0x563
 4523 074c 0000 0000 		.long	.LFB23
 4524 0750 0000 0000 		.long	.LFE23
 4525 0754 02        		.byte	0x2
 4526 0755 90        		.byte	0x90
 4527 0756 20        		.uleb128 0x20
 4528 0757 6507 0000 		.long	0x765
 4529 075b 21        		.uleb128 0x21
 4530 075c 7605 0000 		.long	0x576
 4531 0760 0000 0000 		.long	.LLST9
 4532 0764 00        		.byte	0x0
 4533 0765 20        		.uleb128 0x20
 4534 0766 6B06 0000 		.long	0x66b
 4535 076a 0000 0000 		.long	.LFB24
 4536 076e 0000 0000 		.long	.LFE24
 4537 0772 02        		.byte	0x2
 4538 0773 90        		.byte	0x90
 4539 0774 20        		.uleb128 0x20
 4540 0775 9907 0000 		.long	0x799
 4541 0779 21        		.uleb128 0x21
 4542 077a 7E06 0000 		.long	0x67e
 4543 077e 0000 0000 		.long	.LLST11
 4544 0782 22        		.uleb128 0x22
 4545 0783 6305 0000 		.long	0x563
 4546 0787 0000 0000 		.long	.LBB71
 4547 078b 0000 0000 		.long	.LBE71
 4548 078f 01        		.byte	0x1
 4549 0790 1501      		.word	0x115
 4550 0792 19        		.uleb128 0x19
 4551 0793 5B07 0000 		.long	0x75b
 4552 0797 00        		.byte	0x0
 4553 0798 00        		.byte	0x0
 4554 0799 23        		.uleb128 0x23
 4555 079a 0000 0000 		.long	.LASF321
 4556 079e 01        		.byte	0x1
 4557 079f 4C01      		.word	0x14c
 4558 07a1 01        		.byte	0x1
 4559 07a2 0000 0000 		.long	.LFB27
GAS LISTING C:\Users\ADMINI~1\AppData\Local\Temp/ccSP7hgy.s 			page 83


 4560 07a6 0000 0000 		.long	.LFE27
 4561 07aa 02        		.byte	0x2
 4562 07ab 90        		.byte	0x90
 4563 07ac 20        		.uleb128 0x20
 4564 07ad 24        		.uleb128 0x24
 4565 07ae 01        		.byte	0x1
 4566 07af 0000 0000 		.long	.LASF210
 4567 07b3 01        		.byte	0x1
 4568 07b4 A202      		.word	0x2a2
 4569 07b6 01        		.byte	0x1
 4570 07b7 0000 0000 		.long	.LFB46
 4571 07bb 0000 0000 		.long	.LFE46
 4572 07bf 02        		.byte	0x2
 4573 07c0 90        		.byte	0x90
 4574 07c1 20        		.uleb128 0x20
 4575 07c2 25        		.uleb128 0x25
 4576 07c3 0000 0000 		.long	.LASF213
 4577 07c7 01        		.byte	0x1
 4578 07c8 3901      		.word	0x139
 4579 07ca 01        		.byte	0x1
 4580 07cb 0000 0000 		.long	.LFB26
 4581 07cf 0000 0000 		.long	.LFE26
 4582 07d3 02        		.byte	0x2
 4583 07d4 90        		.byte	0x90
 4584 07d5 20        		.uleb128 0x20
 4585 07d6 F707 0000 		.long	0x7f7
 4586 07da 26        		.uleb128 0x26
 4587 07db 0000 0000 		.long	.LASF212
 4588 07df 01        		.byte	0x1
 4589 07e0 3801      		.word	0x138
 4590 07e2 8E00 0000 		.long	0x8e
 4591 07e6 0000 0000 		.long	.LLST15
 4592 07ea 27        		.uleb128 0x27
 4593 07eb 6B65 7900 		.string	"key"
 4594 07ef 01        		.byte	0x1
 4595 07f0 3B01      		.word	0x13b
 4596 07f2 3105 0000 		.long	0x531
 4597 07f6 00        		.byte	0x0
 4598 07f7 25        		.uleb128 0x25
 4599 07f8 0000 0000 		.long	.LASF214
 4600 07fc 01        		.byte	0x1
 4601 07fd 6001      		.word	0x160
 4602 07ff 01        		.byte	0x1
 4603 0800 0000 0000 		.long	.LFB29
 4604 0804 0000 0000 		.long	.LFE29
 4605 0808 02        		.byte	0x2
 4606 0809 90        		.byte	0x90
 4607 080a 20        		.uleb128 0x20
 4608 080b 6708 0000 		.long	0x867
 4609 080f 28        		.uleb128 0x28
 4610 0810 7374 7200 		.string	"str"
 4611 0814 01        		.byte	0x1
 4612 0815 5F01      		.word	0x15f
 4613 0817 6708 0000 		.long	0x867
 4614 081b 0000 0000 		.long	.LLST17
 4615 081f 29        		.uleb128 0x29
 4616 0820 6300      		.string	"c"
GAS LISTING C:\Users\ADMINI~1\AppData\Local\Temp/ccSP7hgy.s 			page 84


 4617 0822 01        		.byte	0x1
 4618 0823 6101      		.word	0x161
 4619 0825 6400 0000 		.long	0x64
 4620 0829 0000 0000 		.long	.LLST18
 4621 082d 2A        		.uleb128 0x2a
 4622 082e 0000 0000 		.long	.LASF215
 4623 0832 01        		.byte	0x1
 4624 0833 6201      		.word	0x162
 4625 0835 7208 0000 		.long	0x872
 4626 0839 02        		.byte	0x2
 4627 083a 8C        		.byte	0x8c
 4628 083b 01        		.sleb128 1
 4629 083c 2B        		.uleb128 0x2b
 4630 083d 0000 0000 		.long	.LBB73
 4631 0841 0000 0000 		.long	.LBE73
 4632 0845 2C        		.uleb128 0x2c
 4633 0846 0000 0000 		.long	.LASF195
 4634 084a 01        		.byte	0x1
 4635 084b 6501      		.word	0x165
 4636 084d 7D00 0000 		.long	0x7d
 4637 0851 0000 0000 		.long	.LLST19
 4638 0855 2C        		.uleb128 0x2c
 4639 0856 0000 0000 		.long	.LASF196
 4640 085a 01        		.byte	0x1
 4641 085b 6501      		.word	0x165
 4642 085d 7200 0000 		.long	0x72
 4643 0861 0000 0000 		.long	.LLST20
 4644 0865 00        		.byte	0x0
 4645 0866 00        		.byte	0x0
 4646 0867 06        		.uleb128 0x6
 4647 0868 02        		.byte	0x2
 4648 0869 6D08 0000 		.long	0x86d
 4649 086d 2D        		.uleb128 0x2d
 4650 086e 6400 0000 		.long	0x64
 4651 0872 2E        		.uleb128 0x2e
 4652 0873 6400 0000 		.long	0x64
 4653 0877 8208 0000 		.long	0x882
 4654 087b 2F        		.uleb128 0x2f
 4655 087c 8208 0000 		.long	0x882
 4656 0880 00        		.byte	0x0
 4657 0881 00        		.byte	0x0
 4658 0882 05        		.uleb128 0x5
 4659 0883 02        		.byte	0x2
 4660 0884 07        		.byte	0x7
 4661 0885 30        		.uleb128 0x30
 4662 0886 01        		.byte	0x1
 4663 0887 0000 0000 		.long	.LASF217
 4664 088b 01        		.byte	0x1
 4665 088c 9202      		.word	0x292
 4666 088e 01        		.byte	0x1
 4667 088f 0000 0000 		.long	.LFB45
 4668 0893 0000 0000 		.long	.LFE45
 4669 0897 02        		.byte	0x2
 4670 0898 90        		.byte	0x90
 4671 0899 20        		.uleb128 0x20
 4672 089a B308 0000 		.long	0x8b3
 4673 089e 27        		.uleb128 0x27
GAS LISTING C:\Users\ADMINI~1\AppData\Local\Temp/ccSP7hgy.s 			page 85


 4674 089f 6B00      		.string	"k"
 4675 08a1 01        		.byte	0x1
 4676 08a2 9602      		.word	0x296
 4677 08a4 7200 0000 		.long	0x72
 4678 08a8 27        		.uleb128 0x27
 4679 08a9 6A00      		.string	"j"
 4680 08ab 01        		.byte	0x1
 4681 08ac 9602      		.word	0x296
 4682 08ae 7200 0000 		.long	0x72
 4683 08b2 00        		.byte	0x0
 4684 08b3 24        		.uleb128 0x24
 4685 08b4 01        		.byte	0x1
 4686 08b5 0000 0000 		.long	.LASF218
 4687 08b9 01        		.byte	0x1
 4688 08ba 8702      		.word	0x287
 4689 08bc 01        		.byte	0x1
 4690 08bd 0000 0000 		.long	.LFB44
 4691 08c1 0000 0000 		.long	.LFE44
 4692 08c5 02        		.byte	0x2
 4693 08c6 90        		.byte	0x90
 4694 08c7 20        		.uleb128 0x20
 4695 08c8 30        		.uleb128 0x30
 4696 08c9 01        		.byte	0x1
 4697 08ca 0000 0000 		.long	.LASF219
 4698 08ce 01        		.byte	0x1
 4699 08cf 3302      		.word	0x233
 4700 08d1 01        		.byte	0x1
 4701 08d2 0000 0000 		.long	.LFB39
 4702 08d6 0000 0000 		.long	.LFE39
 4703 08da 02        		.byte	0x2
 4704 08db 90        		.byte	0x90
 4705 08dc 20        		.uleb128 0x20
 4706 08dd F208 0000 		.long	0x8f2
 4707 08e1 31        		.uleb128 0x31
 4708 08e2 8305 0000 		.long	0x583
 4709 08e6 0000 0000 		.long	.LBB74
 4710 08ea 0000 0000 		.long	.LBE74
 4711 08ee 01        		.byte	0x1
 4712 08ef 3502      		.word	0x235
 4713 08f1 00        		.byte	0x0
 4714 08f2 24        		.uleb128 0x24
 4715 08f3 01        		.byte	0x1
 4716 08f4 0000 0000 		.long	.LASF220
 4717 08f8 01        		.byte	0x1
 4718 08f9 F201      		.word	0x1f2
 4719 08fb 01        		.byte	0x1
 4720 08fc 0000 0000 		.long	.LFB35
 4721 0900 0000 0000 		.long	.LFE35
 4722 0904 02        		.byte	0x2
 4723 0905 90        		.byte	0x90
 4724 0906 20        		.uleb128 0x20
 4725 0907 24        		.uleb128 0x24
 4726 0908 01        		.byte	0x1
 4727 0909 0000 0000 		.long	.LASF221
 4728 090d 01        		.byte	0x1
 4729 090e E201      		.word	0x1e2
 4730 0910 01        		.byte	0x1
GAS LISTING C:\Users\ADMINI~1\AppData\Local\Temp/ccSP7hgy.s 			page 86


 4731 0911 0000 0000 		.long	.LFB34
 4732 0915 0000 0000 		.long	.LFE34
 4733 0919 02        		.byte	0x2
 4734 091a 90        		.byte	0x90
 4735 091b 20        		.uleb128 0x20
 4736 091c 30        		.uleb128 0x30
 4737 091d 01        		.byte	0x1
 4738 091e 0000 0000 		.long	.LASF222
 4739 0922 01        		.byte	0x1
 4740 0923 5201      		.word	0x152
 4741 0925 01        		.byte	0x1
 4742 0926 0000 0000 		.long	.LFB28
 4743 092a 0000 0000 		.long	.LFE28
 4744 092e 02        		.byte	0x2
 4745 092f 90        		.byte	0x90
 4746 0930 20        		.uleb128 0x20
 4747 0931 6D09 0000 		.long	0x96d
 4748 0935 26        		.uleb128 0x26
 4749 0936 0000 0000 		.long	.LASF223
 4750 093a 01        		.byte	0x1
 4751 093b 5101      		.word	0x151
 4752 093d 6708 0000 		.long	0x867
 4753 0941 0000 0000 		.long	.LLST27
 4754 0945 27        		.uleb128 0x27
 4755 0946 6300      		.string	"c"
 4756 0948 01        		.byte	0x1
 4757 0949 5301      		.word	0x153
 4758 094b 6400 0000 		.long	0x64
 4759 094f 2A        		.uleb128 0x2a
 4760 0950 0000 0000 		.long	.LASF215
 4761 0954 01        		.byte	0x1
 4762 0955 5401      		.word	0x154
 4763 0957 7208 0000 		.long	0x872
 4764 095b 02        		.byte	0x2
 4765 095c 8C        		.byte	0x8c
 4766 095d 01        		.sleb128 1
 4767 095e 29        		.uleb128 0x29
 4768 095f 6900      		.string	"i"
 4769 0961 01        		.byte	0x1
 4770 0962 5501      		.word	0x155
 4771 0964 7200 0000 		.long	0x72
 4772 0968 0000 0000 		.long	.LLST28
 4773 096c 00        		.byte	0x0
 4774 096d 25        		.uleb128 0x25
 4775 096e 0000 0000 		.long	.LASF224
 4776 0972 01        		.byte	0x1
 4777 0973 6C01      		.word	0x16c
 4778 0975 01        		.byte	0x1
 4779 0976 0000 0000 		.long	.LFB30
 4780 097a 0000 0000 		.long	.LFE30
 4781 097e 02        		.byte	0x2
 4782 097f 90        		.byte	0x90
 4783 0980 20        		.uleb128 0x20
 4784 0981 D309 0000 		.long	0x9d3
 4785 0985 22        		.uleb128 0x22
 4786 0986 8D05 0000 		.long	0x58d
 4787 098a 0000 0000 		.long	.LBB76
GAS LISTING C:\Users\ADMINI~1\AppData\Local\Temp/ccSP7hgy.s 			page 87


 4788 098e 0000 0000 		.long	.LBE76
 4789 0992 01        		.byte	0x1
 4790 0993 B001      		.word	0x1b0
 4791 0995 19        		.uleb128 0x19
 4792 0996 9A05 0000 		.long	0x59a
 4793 099a 2B        		.uleb128 0x2b
 4794 099b 0000 0000 		.long	.LBB77
 4795 099f 0000 0000 		.long	.LBE77
 4796 09a3 32        		.uleb128 0x32
 4797 09a4 A505 0000 		.long	0x5a5
 4798 09a8 06        		.byte	0x6
 4799 09a9 68        		.byte	0x68
 4800 09aa 93        		.byte	0x93
 4801 09ab 01        		.uleb128 0x1
 4802 09ac 69        		.byte	0x69
 4803 09ad 93        		.byte	0x93
 4804 09ae 01        		.uleb128 0x1
 4805 09af 33        		.uleb128 0x33
 4806 09b0 B005 0000 		.long	0x5b0
 4807 09b4 34        		.uleb128 0x34
 4808 09b5 3C05 0000 		.long	0x53c
 4809 09b9 0000 0000 		.long	.LBB78
 4810 09bd 0000 0000 		.long	.LBE78
 4811 09c1 03        		.byte	0x3
 4812 09c2 7B        		.byte	0x7b
 4813 09c3 35        		.uleb128 0x35
 4814 09c4 4905 0000 		.long	0x549
 4815 09c8 06        		.byte	0x6
 4816 09c9 6E        		.byte	0x6e
 4817 09ca 93        		.byte	0x93
 4818 09cb 01        		.uleb128 0x1
 4819 09cc 6F        		.byte	0x6f
 4820 09cd 93        		.byte	0x93
 4821 09ce 01        		.uleb128 0x1
 4822 09cf 00        		.byte	0x0
 4823 09d0 00        		.byte	0x0
 4824 09d1 00        		.byte	0x0
 4825 09d2 00        		.byte	0x0
 4826 09d3 24        		.uleb128 0x24
 4827 09d4 01        		.byte	0x1
 4828 09d5 0000 0000 		.long	.LASF225
 4829 09d9 01        		.byte	0x1
 4830 09da C501      		.word	0x1c5
 4831 09dc 01        		.byte	0x1
 4832 09dd 0000 0000 		.long	.LFB32
 4833 09e1 0000 0000 		.long	.LFE32
 4834 09e5 02        		.byte	0x2
 4835 09e6 90        		.byte	0x90
 4836 09e7 20        		.uleb128 0x20
 4837 09e8 24        		.uleb128 0x24
 4838 09e9 01        		.byte	0x1
 4839 09ea 0000 0000 		.long	.LASF226
 4840 09ee 01        		.byte	0x1
 4841 09ef B301      		.word	0x1b3
 4842 09f1 01        		.byte	0x1
 4843 09f2 0000 0000 		.long	.LFB31
 4844 09f6 0000 0000 		.long	.LFE31
GAS LISTING C:\Users\ADMINI~1\AppData\Local\Temp/ccSP7hgy.s 			page 88


 4845 09fa 02        		.byte	0x2
 4846 09fb 90        		.byte	0x90
 4847 09fc 20        		.uleb128 0x20
 4848 09fd 30        		.uleb128 0x30
 4849 09fe 01        		.byte	0x1
 4850 09ff 0000 0000 		.long	.LASF227
 4851 0a03 01        		.byte	0x1
 4852 0a04 7902      		.word	0x279
 4853 0a06 01        		.byte	0x1
 4854 0a07 0000 0000 		.long	.LFB43
 4855 0a0b 0000 0000 		.long	.LFE43
 4856 0a0f 02        		.byte	0x2
 4857 0a10 90        		.byte	0x90
 4858 0a11 20        		.uleb128 0x20
 4859 0a12 2D0A 0000 		.long	0xa2d
 4860 0a16 17        		.uleb128 0x17
 4861 0a17 0000 0000 		.long	.LASF228
 4862 0a1b 01        		.byte	0x1
 4863 0a1c 7A02      		.word	0x27a
 4864 0a1e 7D00 0000 		.long	0x7d
 4865 0a22 27        		.uleb128 0x27
 4866 0a23 6B00      		.string	"k"
 4867 0a25 01        		.byte	0x1
 4868 0a26 7B02      		.word	0x27b
 4869 0a28 6B00 0000 		.long	0x6b
 4870 0a2c 00        		.byte	0x0
 4871 0a2d 30        		.uleb128 0x30
 4872 0a2e 01        		.byte	0x1
 4873 0a2f 0000 0000 		.long	.LASF229
 4874 0a33 01        		.byte	0x1
 4875 0a34 6602      		.word	0x266
 4876 0a36 01        		.byte	0x1
 4877 0a37 0000 0000 		.long	.LFB42
 4878 0a3b 0000 0000 		.long	.LFE42
 4879 0a3f 02        		.byte	0x2
 4880 0a40 90        		.byte	0x90
 4881 0a41 20        		.uleb128 0x20
 4882 0a42 750A 0000 		.long	0xa75
 4883 0a46 17        		.uleb128 0x17
 4884 0a47 0000 0000 		.long	.LASF230
 4885 0a4b 01        		.byte	0x1
 4886 0a4c 6A02      		.word	0x26a
 4887 0a4e 7200 0000 		.long	0x72
 4888 0a52 17        		.uleb128 0x17
 4889 0a53 0000 0000 		.long	.LASF228
 4890 0a57 01        		.byte	0x1
 4891 0a58 6B02      		.word	0x26b
 4892 0a5a 7D00 0000 		.long	0x7d
 4893 0a5e 17        		.uleb128 0x17
 4894 0a5f 0000 0000 		.long	.LASF231
 4895 0a63 01        		.byte	0x1
 4896 0a64 6C02      		.word	0x26c
 4897 0a66 750A 0000 		.long	0xa75
 4898 0a6a 27        		.uleb128 0x27
 4899 0a6b 6B00      		.string	"k"
 4900 0a6d 01        		.byte	0x1
 4901 0a6e 6D02      		.word	0x26d
GAS LISTING C:\Users\ADMINI~1\AppData\Local\Temp/ccSP7hgy.s 			page 89


 4902 0a70 7200 0000 		.long	0x72
 4903 0a74 00        		.byte	0x0
 4904 0a75 2E        		.uleb128 0x2e
 4905 0a76 7200 0000 		.long	0x72
 4906 0a7a 850A 0000 		.long	0xa85
 4907 0a7e 2F        		.uleb128 0x2f
 4908 0a7f 8208 0000 		.long	0x882
 4909 0a83 2F        		.byte	0x2f
 4910 0a84 00        		.byte	0x0
 4911 0a85 30        		.uleb128 0x30
 4912 0a86 01        		.byte	0x1
 4913 0a87 0000 0000 		.long	.LASF232
 4914 0a8b 01        		.byte	0x1
 4915 0a8c 5302      		.word	0x253
 4916 0a8e 01        		.byte	0x1
 4917 0a8f 0000 0000 		.long	.LFB41
 4918 0a93 0000 0000 		.long	.LFE41
 4919 0a97 02        		.byte	0x2
 4920 0a98 90        		.byte	0x90
 4921 0a99 20        		.uleb128 0x20
 4922 0a9a E10A 0000 		.long	0xae1
 4923 0a9e 26        		.uleb128 0x26
 4924 0a9f 0000 0000 		.long	.LASF233
 4925 0aa3 01        		.byte	0x1
 4926 0aa4 5302      		.word	0x253
 4927 0aa6 7200 0000 		.long	0x72
 4928 0aaa 0000 0000 		.long	.LLST35
 4929 0aae 17        		.uleb128 0x17
 4930 0aaf 0000 0000 		.long	.LASF228
 4931 0ab3 01        		.byte	0x1
 4932 0ab4 5702      		.word	0x257
 4933 0ab6 7D00 0000 		.long	0x7d
 4934 0aba 2C        		.uleb128 0x2c
 4935 0abb 0000 0000 		.long	.LASF230
 4936 0abf 01        		.byte	0x1
 4937 0ac0 5802      		.word	0x258
 4938 0ac2 7200 0000 		.long	0x72
 4939 0ac6 0000 0000 		.long	.LLST36
 4940 0aca 17        		.uleb128 0x17
 4941 0acb 0000 0000 		.long	.LASF231
 4942 0acf 01        		.byte	0x1
 4943 0ad0 5902      		.word	0x259
 4944 0ad2 750A 0000 		.long	0xa75
 4945 0ad6 27        		.uleb128 0x27
 4946 0ad7 6B00      		.string	"k"
 4947 0ad9 01        		.byte	0x1
 4948 0ada 5A02      		.word	0x25a
 4949 0adc 7200 0000 		.long	0x72
 4950 0ae0 00        		.byte	0x0
 4951 0ae1 30        		.uleb128 0x30
 4952 0ae2 01        		.byte	0x1
 4953 0ae3 0000 0000 		.long	.LASF234
 4954 0ae7 01        		.byte	0x1
 4955 0ae8 F801      		.word	0x1f8
 4956 0aea 01        		.byte	0x1
 4957 0aeb 0000 0000 		.long	.LFB36
 4958 0aef 0000 0000 		.long	.LFE36
GAS LISTING C:\Users\ADMINI~1\AppData\Local\Temp/ccSP7hgy.s 			page 90


 4959 0af3 02        		.byte	0x2
 4960 0af4 90        		.byte	0x90
 4961 0af5 20        		.uleb128 0x20
 4962 0af6 1B0B 0000 		.long	0xb1b
 4963 0afa 17        		.uleb128 0x17
 4964 0afb 0000 0000 		.long	.LASF228
 4965 0aff 01        		.byte	0x1
 4966 0b00 F901      		.word	0x1f9
 4967 0b02 7D00 0000 		.long	0x7d
 4968 0b06 27        		.uleb128 0x27
 4969 0b07 6B00      		.string	"k"
 4970 0b09 01        		.byte	0x1
 4971 0b0a FA01      		.word	0x1fa
 4972 0b0c 7200 0000 		.long	0x72
 4973 0b10 27        		.uleb128 0x27
 4974 0b11 6A00      		.string	"j"
 4975 0b13 01        		.byte	0x1
 4976 0b14 FA01      		.word	0x1fa
 4977 0b16 7200 0000 		.long	0x72
 4978 0b1a 00        		.byte	0x0
 4979 0b1b 30        		.uleb128 0x30
 4980 0b1c 01        		.byte	0x1
 4981 0b1d 0000 0000 		.long	.LASF235
 4982 0b21 01        		.byte	0x1
 4983 0b22 A902      		.word	0x2a9
 4984 0b24 01        		.byte	0x1
 4985 0b25 0000 0000 		.long	.LFB47
 4986 0b29 0000 0000 		.long	.LFE47
 4987 0b2d 02        		.byte	0x2
 4988 0b2e 90        		.byte	0x90
 4989 0b2f 20        		.uleb128 0x20
 4990 0b30 CE0C 0000 		.long	0xcce
 4991 0b34 26        		.uleb128 0x26
 4992 0b35 0000 0000 		.long	.LASF185
 4993 0b39 01        		.byte	0x1
 4994 0b3a A802      		.word	0x2a8
 4995 0b3c 7200 0000 		.long	0x72
 4996 0b40 0000 0000 		.long	.LLST39
 4997 0b44 26        		.uleb128 0x26
 4998 0b45 0000 0000 		.long	.LASF194
 4999 0b49 01        		.byte	0x1
 5000 0b4a A802      		.word	0x2a8
 5001 0b4c 7200 0000 		.long	0x72
 5002 0b50 0000 0000 		.long	.LLST40
 5003 0b54 26        		.uleb128 0x26
 5004 0b55 0000 0000 		.long	.LASF193
 5005 0b59 01        		.byte	0x1
 5006 0b5a A802      		.word	0x2a8
 5007 0b5c 7200 0000 		.long	0x72
 5008 0b60 0000 0000 		.long	.LLST41
 5009 0b64 26        		.uleb128 0x26
 5010 0b65 0000 0000 		.long	.LASF236
 5011 0b69 01        		.byte	0x1
 5012 0b6a A802      		.word	0x2a8
 5013 0b6c 7200 0000 		.long	0x72
 5014 0b70 0000 0000 		.long	.LLST42
 5015 0b74 29        		.uleb128 0x29
GAS LISTING C:\Users\ADMINI~1\AppData\Local\Temp/ccSP7hgy.s 			page 91


 5016 0b75 636D 6400 		.string	"cmd"
 5017 0b79 01        		.byte	0x1
 5018 0b7a B102      		.word	0x2b1
 5019 0b7c 7200 0000 		.long	0x72
 5020 0b80 0000 0000 		.long	.LLST43
 5021 0b84 2C        		.uleb128 0x2c
 5022 0b85 0000 0000 		.long	.LASF237
 5023 0b89 01        		.byte	0x1
 5024 0b8a B102      		.word	0x2b1
 5025 0b8c 7200 0000 		.long	0x72
 5026 0b90 0000 0000 		.long	.LLST44
 5027 0b94 2C        		.uleb128 0x2c
 5028 0b95 0000 0000 		.long	.LASF230
 5029 0b99 01        		.byte	0x1
 5030 0b9a B202      		.word	0x2b2
 5031 0b9c 6B00 0000 		.long	0x6b
 5032 0ba0 0000 0000 		.long	.LLST45
 5033 0ba4 2C        		.uleb128 0x2c
 5034 0ba5 0000 0000 		.long	.LASF199
 5035 0ba9 01        		.byte	0x1
 5036 0baa B302      		.word	0x2b3
 5037 0bac 6B00 0000 		.long	0x6b
 5038 0bb0 0000 0000 		.long	.LLST46
 5039 0bb4 2A        		.uleb128 0x2a
 5040 0bb5 0000 0000 		.long	.LASF238
 5041 0bb9 01        		.byte	0x1
 5042 0bba B402      		.word	0x2b4
 5043 0bbc CE0C 0000 		.long	0xcce
 5044 0bc0 02        		.byte	0x2
 5045 0bc1 8C        		.byte	0x8c
 5046 0bc2 01        		.sleb128 1
 5047 0bc3 2C        		.uleb128 0x2c
 5048 0bc4 0000 0000 		.long	.LASF200
 5049 0bc8 01        		.byte	0x1
 5050 0bc9 B502      		.word	0x2b5
 5051 0bcb 6B00 0000 		.long	0x6b
 5052 0bcf 0000 0000 		.long	.LLST47
 5053 0bd3 17        		.uleb128 0x17
 5054 0bd4 0000 0000 		.long	.LASF239
 5055 0bd8 01        		.byte	0x1
 5056 0bd9 B602      		.word	0x2b6
 5057 0bdb 6B00 0000 		.long	0x6b
 5058 0bdf 31        		.uleb128 0x31
 5059 0be0 C505 0000 		.long	0x5c5
 5060 0be4 0000 0000 		.long	.LBB80
 5061 0be8 0000 0000 		.long	.LBE80
 5062 0bec 01        		.byte	0x1
 5063 0bed 0E03      		.word	0x30e
 5064 0bef 31        		.uleb128 0x31
 5065 0bf0 8305 0000 		.long	0x583
 5066 0bf4 0000 0000 		.long	.LBB82
 5067 0bf8 0000 0000 		.long	.LBE82
 5068 0bfc 01        		.byte	0x1
 5069 0bfd 3803      		.word	0x338
 5070 0bff 36        		.uleb128 0x36
 5071 0c00 8D05 0000 		.long	0x58d
 5072 0c04 0000 0000 		.long	.LBB84
GAS LISTING C:\Users\ADMINI~1\AppData\Local\Temp/ccSP7hgy.s 			page 92


 5073 0c08 0000 0000 		.long	.LBE84
 5074 0c0c 01        		.byte	0x1
 5075 0c0d 6E03      		.word	0x36e
 5076 0c0f 4A0C 0000 		.long	0xc4a
 5077 0c13 19        		.uleb128 0x19
 5078 0c14 9A05 0000 		.long	0x59a
 5079 0c18 2B        		.uleb128 0x2b
 5080 0c19 0000 0000 		.long	.LBB85
 5081 0c1d 0000 0000 		.long	.LBE85
 5082 0c21 37        		.uleb128 0x37
 5083 0c22 A505 0000 		.long	0x5a5
 5084 0c26 0000 0000 		.long	.LLST48
 5085 0c2a 33        		.uleb128 0x33
 5086 0c2b B005 0000 		.long	0x5b0
 5087 0c2f 34        		.uleb128 0x34
 5088 0c30 3C05 0000 		.long	0x53c
 5089 0c34 0000 0000 		.long	.LBB86
 5090 0c38 0000 0000 		.long	.LBE86
 5091 0c3c 03        		.byte	0x3
 5092 0c3d 7B        		.byte	0x7b
 5093 0c3e 21        		.uleb128 0x21
 5094 0c3f 4905 0000 		.long	0x549
 5095 0c43 0000 0000 		.long	.LLST49
 5096 0c47 00        		.byte	0x0
 5097 0c48 00        		.byte	0x0
 5098 0c49 00        		.byte	0x0
 5099 0c4a 36        		.uleb128 0x36
 5100 0c4b CF05 0000 		.long	0x5cf
 5101 0c4f 0000 0000 		.long	.LBB88
 5102 0c53 0000 0000 		.long	.LBE88
 5103 0c57 01        		.byte	0x1
 5104 0c58 9703      		.word	0x397
 5105 0c5a 860C 0000 		.long	0xc86
 5106 0c5e 19        		.uleb128 0x19
 5107 0c5f F605 0000 		.long	0x5f6
 5108 0c63 19        		.uleb128 0x19
 5109 0c64 EB05 0000 		.long	0x5eb
 5110 0c68 19        		.uleb128 0x19
 5111 0c69 E005 0000 		.long	0x5e0
 5112 0c6d 2B        		.uleb128 0x2b
 5113 0c6e 0000 0000 		.long	.LBB90
 5114 0c72 0000 0000 		.long	.LBE90
 5115 0c76 33        		.uleb128 0x33
 5116 0c77 0206 0000 		.long	0x602
 5117 0c7b 37        		.uleb128 0x37
 5118 0c7c 0E06 0000 		.long	0x60e
 5119 0c80 0000 0000 		.long	.LLST50
 5120 0c84 00        		.byte	0x0
 5121 0c85 00        		.byte	0x0
 5122 0c86 22        		.uleb128 0x22
 5123 0c87 8D05 0000 		.long	0x58d
 5124 0c8b 0000 0000 		.long	.LBB91
 5125 0c8f 0000 0000 		.long	.LBE91
 5126 0c93 01        		.byte	0x1
 5127 0c94 BF03      		.word	0x3bf
 5128 0c96 19        		.uleb128 0x19
 5129 0c97 9A05 0000 		.long	0x59a
GAS LISTING C:\Users\ADMINI~1\AppData\Local\Temp/ccSP7hgy.s 			page 93


 5130 0c9b 2B        		.uleb128 0x2b
 5131 0c9c 0000 0000 		.long	.LBB92
 5132 0ca0 0000 0000 		.long	.LBE92
 5133 0ca4 37        		.uleb128 0x37
 5134 0ca5 A505 0000 		.long	0x5a5
 5135 0ca9 0000 0000 		.long	.LLST51
 5136 0cad 33        		.uleb128 0x33
 5137 0cae B005 0000 		.long	0x5b0
 5138 0cb2 34        		.uleb128 0x34
 5139 0cb3 3C05 0000 		.long	0x53c
 5140 0cb7 0000 0000 		.long	.LBB93
 5141 0cbb 0000 0000 		.long	.LBE93
 5142 0cbf 03        		.byte	0x3
 5143 0cc0 7B        		.byte	0x7b
 5144 0cc1 21        		.uleb128 0x21
 5145 0cc2 4905 0000 		.long	0x549
 5146 0cc6 0000 0000 		.long	.LLST52
 5147 0cca 00        		.byte	0x0
 5148 0ccb 00        		.byte	0x0
 5149 0ccc 00        		.byte	0x0
 5150 0ccd 00        		.byte	0x0
 5151 0cce 2E        		.uleb128 0x2e
 5152 0ccf 6400 0000 		.long	0x64
 5153 0cd3 DE0C 0000 		.long	0xcde
 5154 0cd7 2F        		.uleb128 0x2f
 5155 0cd8 8208 0000 		.long	0x882
 5156 0cdc 02        		.byte	0x2
 5157 0cdd 00        		.byte	0x0
 5158 0cde 30        		.uleb128 0x30
 5159 0cdf 01        		.byte	0x1
 5160 0ce0 0000 0000 		.long	.LASF240
 5161 0ce4 01        		.byte	0x1
 5162 0ce5 1202      		.word	0x212
 5163 0ce7 01        		.byte	0x1
 5164 0ce8 0000 0000 		.long	.LFB38
 5165 0cec 0000 0000 		.long	.LFE38
 5166 0cf0 02        		.byte	0x2
 5167 0cf1 90        		.byte	0x90
 5168 0cf2 20        		.uleb128 0x20
 5169 0cf3 340D 0000 		.long	0xd34
 5170 0cf7 17        		.uleb128 0x17
 5171 0cf8 0000 0000 		.long	.LASF230
 5172 0cfc 01        		.byte	0x1
 5173 0cfd 1302      		.word	0x213
 5174 0cff 7200 0000 		.long	0x72
 5175 0d03 17        		.uleb128 0x17
 5176 0d04 0000 0000 		.long	.LASF228
 5177 0d08 01        		.byte	0x1
 5178 0d09 1402      		.word	0x214
 5179 0d0b 7D00 0000 		.long	0x7d
 5180 0d0f 27        		.uleb128 0x27
 5181 0d10 6B00      		.string	"k"
 5182 0d12 01        		.byte	0x1
 5183 0d13 1502      		.word	0x215
 5184 0d15 7200 0000 		.long	0x72
 5185 0d19 27        		.uleb128 0x27
 5186 0d1a 6A00      		.string	"j"
GAS LISTING C:\Users\ADMINI~1\AppData\Local\Temp/ccSP7hgy.s 			page 94


 5187 0d1c 01        		.byte	0x1
 5188 0d1d 1502      		.word	0x215
 5189 0d1f 7200 0000 		.long	0x72
 5190 0d23 31        		.uleb128 0x31
 5191 0d24 8305 0000 		.long	0x583
 5192 0d28 0000 0000 		.long	.LBB95
 5193 0d2c 0000 0000 		.long	.LBE95
 5194 0d30 01        		.byte	0x1
 5195 0d31 2302      		.word	0x223
 5196 0d33 00        		.byte	0x0
 5197 0d34 24        		.uleb128 0x24
 5198 0d35 01        		.byte	0x1
 5199 0d36 0000 0000 		.long	.LASF241
 5200 0d3a 01        		.byte	0x1
 5201 0d3b 0602      		.word	0x206
 5202 0d3d 01        		.byte	0x1
 5203 0d3e 0000 0000 		.long	.LFB37
 5204 0d42 0000 0000 		.long	.LFE37
 5205 0d46 02        		.byte	0x2
 5206 0d47 90        		.byte	0x90
 5207 0d48 20        		.uleb128 0x20
 5208 0d49 38        		.uleb128 0x38
 5209 0d4a 01        		.byte	0x1
 5210 0d4b 0000 0000 		.long	.LASF242
 5211 0d4f 01        		.byte	0x1
 5212 0d50 1C01      		.word	0x11c
 5213 0d52 01        		.byte	0x1
 5214 0d53 7200 0000 		.long	0x72
 5215 0d57 0000 0000 		.long	.LFB25
 5216 0d5b 0000 0000 		.long	.LFE25
 5217 0d5f 02        		.byte	0x2
 5218 0d60 90        		.byte	0x90
 5219 0d61 20        		.uleb128 0x20
 5220 0d62 FD0D 0000 		.long	0xdfd
 5221 0d66 26        		.uleb128 0x26
 5222 0d67 0000 0000 		.long	.LASF192
 5223 0d6b 01        		.byte	0x1
 5224 0d6c 1B01      		.word	0x11b
 5225 0d6e 7200 0000 		.long	0x72
 5226 0d72 0000 0000 		.long	.LLST56
 5227 0d76 26        		.uleb128 0x26
 5228 0d77 0000 0000 		.long	.LASF193
 5229 0d7b 01        		.byte	0x1
 5230 0d7c 1B01      		.word	0x11b
 5231 0d7e 7200 0000 		.long	0x72
 5232 0d82 0000 0000 		.long	.LLST57
 5233 0d86 26        		.uleb128 0x26
 5234 0d87 0000 0000 		.long	.LASF194
 5235 0d8b 01        		.byte	0x1
 5236 0d8c 1B01      		.word	0x11b
 5237 0d8e 7200 0000 		.long	0x72
 5238 0d92 0000 0000 		.long	.LLST58
 5239 0d96 2A        		.uleb128 0x2a
 5240 0d97 0000 0000 		.long	.LASF199
 5241 0d9b 01        		.byte	0x1
 5242 0d9c 1D01      		.word	0x11d
 5243 0d9e 7200 0000 		.long	0x72
GAS LISTING C:\Users\ADMINI~1\AppData\Local\Temp/ccSP7hgy.s 			page 95


 5244 0da2 01        		.byte	0x1
 5245 0da3 69        		.byte	0x69
 5246 0da4 36        		.uleb128 0x36
 5247 0da5 1C06 0000 		.long	0x61c
 5248 0da9 0000 0000 		.long	.LBB97
 5249 0dad 0000 0000 		.long	.LBE97
 5250 0db1 01        		.byte	0x1
 5251 0db2 2501      		.word	0x125
 5252 0db4 C80D 0000 		.long	0xdc8
 5253 0db8 19        		.uleb128 0x19
 5254 0db9 4606 0000 		.long	0x646
 5255 0dbd 19        		.uleb128 0x19
 5256 0dbe 3A06 0000 		.long	0x63a
 5257 0dc2 19        		.uleb128 0x19
 5258 0dc3 2E06 0000 		.long	0x62e
 5259 0dc7 00        		.byte	0x0
 5260 0dc8 22        		.uleb128 0x22
 5261 0dc9 CF05 0000 		.long	0x5cf
 5262 0dcd 0000 0000 		.long	.LBB98
 5263 0dd1 0000 0000 		.long	.LBE98
 5264 0dd5 01        		.byte	0x1
 5265 0dd6 2D01      		.word	0x12d
 5266 0dd8 19        		.uleb128 0x19
 5267 0dd9 F605 0000 		.long	0x5f6
 5268 0ddd 19        		.uleb128 0x19
 5269 0dde EB05 0000 		.long	0x5eb
 5270 0de2 19        		.uleb128 0x19
 5271 0de3 E005 0000 		.long	0x5e0
 5272 0de7 2B        		.uleb128 0x2b
 5273 0de8 0000 0000 		.long	.LBB100
 5274 0dec 0000 0000 		.long	.LBE100
 5275 0df0 33        		.uleb128 0x33
 5276 0df1 0206 0000 		.long	0x602
 5277 0df5 33        		.uleb128 0x33
 5278 0df6 0E06 0000 		.long	0x60e
 5279 0dfa 00        		.byte	0x0
 5280 0dfb 00        		.byte	0x0
 5281 0dfc 00        		.byte	0x0
 5282 0dfd 38        		.uleb128 0x38
 5283 0dfe 01        		.byte	0x1
 5284 0dff 0000 0000 		.long	.LASF243
 5285 0e03 01        		.byte	0x1
 5286 0e04 4402      		.word	0x244
 5287 0e06 01        		.byte	0x1
 5288 0e07 7200 0000 		.long	0x72
 5289 0e0b 0000 0000 		.long	.LFB40
 5290 0e0f 0000 0000 		.long	.LFE40
 5291 0e13 02        		.byte	0x2
 5292 0e14 90        		.byte	0x90
 5293 0e15 20        		.uleb128 0x20
 5294 0e16 4D0E 0000 		.long	0xe4d
 5295 0e1a 26        		.uleb128 0x26
 5296 0e1b 0000 0000 		.long	.LASF244
 5297 0e1f 01        		.byte	0x1
 5298 0e20 4402      		.word	0x244
 5299 0e22 7200 0000 		.long	0x72
 5300 0e26 0000 0000 		.long	.LLST60
GAS LISTING C:\Users\ADMINI~1\AppData\Local\Temp/ccSP7hgy.s 			page 96


 5301 0e2a 17        		.uleb128 0x17
 5302 0e2b 0000 0000 		.long	.LASF245
 5303 0e2f 01        		.byte	0x1
 5304 0e30 4702      		.word	0x247
 5305 0e32 7200 0000 		.long	0x72
 5306 0e36 22        		.uleb128 0x22
 5307 0e37 6305 0000 		.long	0x563
 5308 0e3b 0000 0000 		.long	.LBB101
 5309 0e3f 0000 0000 		.long	.LBE101
 5310 0e43 01        		.byte	0x1
 5311 0e44 4902      		.word	0x249
 5312 0e46 19        		.uleb128 0x19
 5313 0e47 5B07 0000 		.long	0x75b
 5314 0e4b 00        		.byte	0x0
 5315 0e4c 00        		.byte	0x0
 5316 0e4d 1C        		.uleb128 0x1c
 5317 0e4e 01        		.byte	0x1
 5318 0e4f 0000 0000 		.long	.LASF246
 5319 0e53 01        		.byte	0x1
 5320 0e54 C8        		.byte	0xc8
 5321 0e55 01        		.byte	0x1
 5322 0e56 0000 0000 		.long	.LFB17
 5323 0e5a 0000 0000 		.long	.LFE17
 5324 0e5e 02        		.byte	0x2
 5325 0e5f 90        		.byte	0x90
 5326 0e60 20        		.uleb128 0x20
 5327 0e61 840E 0000 		.long	0xe84
 5328 0e65 39        		.uleb128 0x39
 5329 0e66 5505 0000 		.long	0x555
 5330 0e6a 0000 0000 		.long	.LBB103
 5331 0e6e 0000 0000 		.long	.LBE103
 5332 0e72 01        		.byte	0x1
 5333 0e73 C9        		.byte	0xc9
 5334 0e74 39        		.uleb128 0x39
 5335 0e75 A006 0000 		.long	0x6a0
 5336 0e79 0000 0000 		.long	.LBB105
 5337 0e7d 0000 0000 		.long	.LBE105
 5338 0e81 01        		.byte	0x1
 5339 0e82 CA        		.byte	0xca
 5340 0e83 00        		.byte	0x0
 5341 0e84 1C        		.uleb128 0x1c
 5342 0e85 01        		.byte	0x1
 5343 0e86 0000 0000 		.long	.LASF247
 5344 0e8a 01        		.byte	0x1
 5345 0e8b 93        		.byte	0x93
 5346 0e8c 01        		.byte	0x1
 5347 0e8d 0000 0000 		.long	.LFB12
 5348 0e91 0000 0000 		.long	.LFE12
 5349 0e95 02        		.byte	0x2
 5350 0e96 90        		.byte	0x90
 5351 0e97 20        		.uleb128 0x20
 5352 0e98 AC0E 0000 		.long	0xeac
 5353 0e9c 39        		.uleb128 0x39
 5354 0e9d A906 0000 		.long	0x6a9
 5355 0ea1 0000 0000 		.long	.LBB107
 5356 0ea5 0000 0000 		.long	.LBE107
 5357 0ea9 01        		.byte	0x1
GAS LISTING C:\Users\ADMINI~1\AppData\Local\Temp/ccSP7hgy.s 			page 97


 5358 0eaa 94        		.byte	0x94
 5359 0eab 00        		.byte	0x0
 5360 0eac 1F        		.uleb128 0x1f
 5361 0ead 01        		.byte	0x1
 5362 0eae 0000 0000 		.long	.LASF248
 5363 0eb2 01        		.byte	0x1
 5364 0eb3 D8        		.byte	0xd8
 5365 0eb4 01        		.byte	0x1
 5366 0eb5 0000 0000 		.long	.LFB19
 5367 0eb9 0000 0000 		.long	.LFE19
 5368 0ebd 02        		.byte	0x2
 5369 0ebe 90        		.byte	0x90
 5370 0ebf 20        		.uleb128 0x20
 5371 0ec0 1F        		.uleb128 0x1f
 5372 0ec1 01        		.byte	0x1
 5373 0ec2 0000 0000 		.long	.LASF249
 5374 0ec6 01        		.byte	0x1
 5375 0ec7 E0        		.byte	0xe0
 5376 0ec8 01        		.byte	0x1
 5377 0ec9 0000 0000 		.long	.LFB20
 5378 0ecd 0000 0000 		.long	.LFE20
 5379 0ed1 02        		.byte	0x2
 5380 0ed2 90        		.byte	0x90
 5381 0ed3 20        		.uleb128 0x20
 5382 0ed4 1F        		.uleb128 0x1f
 5383 0ed5 01        		.byte	0x1
 5384 0ed6 0000 0000 		.long	.LASF250
 5385 0eda 01        		.byte	0x1
 5386 0edb B5        		.byte	0xb5
 5387 0edc 01        		.byte	0x1
 5388 0edd 0000 0000 		.long	.LFB16
 5389 0ee1 0000 0000 		.long	.LFE16
 5390 0ee5 02        		.byte	0x2
 5391 0ee6 90        		.byte	0x90
 5392 0ee7 20        		.uleb128 0x20
 5393 0ee8 3A        		.uleb128 0x3a
 5394 0ee9 0000 0000 		.long	.LASF251
 5395 0eed 01        		.byte	0x1
 5396 0eee 46        		.byte	0x46
 5397 0eef 7200 0000 		.long	0x72
 5398 0ef3 05        		.byte	0x5
 5399 0ef4 03        		.byte	0x3
 5400 0ef5 0000 0000 		.long	_isKeyMapping
 5401 0ef9 3A        		.uleb128 0x3a
 5402 0efa 0000 0000 		.long	.LASF252
 5403 0efe 01        		.byte	0x1
 5404 0eff 47        		.byte	0x47
 5405 0f00 7200 0000 		.long	0x72
 5406 0f04 05        		.byte	0x5
 5407 0f05 03        		.byte	0x3
 5408 0f06 0000 0000 		.long	enabledKeyMappingCount
 5409 0f0a 3A        		.uleb128 0x3a
 5410 0f0b 0000 0000 		.long	.LASF253
 5411 0f0f 01        		.byte	0x1
 5412 0f10 48        		.byte	0x48
 5413 0f11 6B00 0000 		.long	0x6b
 5414 0f15 05        		.byte	0x5
GAS LISTING C:\Users\ADMINI~1\AppData\Local\Temp/ccSP7hgy.s 			page 98


 5415 0f16 03        		.byte	0x3
 5416 0f17 0000 0000 		.long	keyMappingCount
 5417 0f1b 3A        		.uleb128 0x3a
 5418 0f1c 0000 0000 		.long	.LASF254
 5419 0f20 01        		.byte	0x1
 5420 0f21 49        		.byte	0x49
 5421 0f22 6B00 0000 		.long	0x6b
 5422 0f26 05        		.byte	0x5
 5423 0f27 03        		.byte	0x3
 5424 0f28 0000 0000 		.long	keyMappingCountMax
 5425 0f2c 3A        		.uleb128 0x3a
 5426 0f2d 0000 0000 		.long	.LASF255
 5427 0f31 01        		.byte	0x1
 5428 0f32 4A        		.byte	0x4a
 5429 0f33 7200 0000 		.long	0x72
 5430 0f37 05        		.byte	0x5
 5431 0f38 03        		.byte	0x3
 5432 0f39 0000 0000 		.long	_keyMappingOnBoot
 5433 0f3d 3A        		.uleb128 0x3a
 5434 0f3e 0000 0000 		.long	.LASF256
 5435 0f42 01        		.byte	0x1
 5436 0f43 54        		.byte	0x54
 5437 0f44 7200 0000 		.long	0x72
 5438 0f48 05        		.byte	0x5
 5439 0f49 03        		.byte	0x3
 5440 0f4a 0000 0000 		.long	_mode
 5441 0f4e 3A        		.uleb128 0x3a
 5442 0f4f 0000 0000 		.long	.LASF257
 5443 0f53 01        		.byte	0x1
 5444 0f54 55        		.byte	0x55
 5445 0f55 7200 0000 		.long	0x72
 5446 0f59 05        		.byte	0x5
 5447 0f5a 03        		.byte	0x3
 5448 0f5b 0000 0000 		.long	_step
 5449 0f5f 3A        		.uleb128 0x3a
 5450 0f60 0000 0000 		.long	.LASF258
 5451 0f64 01        		.byte	0x1
 5452 0f65 56        		.byte	0x56
 5453 0f66 7200 0000 		.long	0x72
 5454 0f6a 05        		.byte	0x5
 5455 0f6b 03        		.byte	0x3
 5456 0f6c 0000 0000 		.long	_stepAfterLayerSave
 5457 0f70 3A        		.uleb128 0x3a
 5458 0f71 0000 0000 		.long	.LASF259
 5459 0f75 01        		.byte	0x1
 5460 0f76 57        		.byte	0x57
 5461 0f77 7200 0000 		.long	0x72
 5462 0f7b 05        		.byte	0x5
 5463 0f7c 03        		.byte	0x3
 5464 0f7d 0000 0000 		.long	_wait
 5465 0f81 3A        		.uleb128 0x3a
 5466 0f82 0000 0000 		.long	.LASF260
 5467 0f86 01        		.byte	0x1
 5468 0f87 58        		.byte	0x58
 5469 0f88 7200 0000 		.long	0x72
 5470 0f8c 05        		.byte	0x5
 5471 0f8d 03        		.byte	0x3
GAS LISTING C:\Users\ADMINI~1\AppData\Local\Temp/ccSP7hgy.s 			page 99


 5472 0f8e 0000 0000 		.long	_col
 5473 0f92 3A        		.uleb128 0x3a
 5474 0f93 0000 0000 		.long	.LASF261
 5475 0f97 01        		.byte	0x1
 5476 0f98 58        		.byte	0x58
 5477 0f99 7200 0000 		.long	0x72
 5478 0f9d 05        		.byte	0x5
 5479 0f9e 03        		.byte	0x3
 5480 0f9f 0000 0000 		.long	_row
 5481 0fa3 2E        		.uleb128 0x2e
 5482 0fa4 7200 0000 		.long	0x72
 5483 0fa8 B30F 0000 		.long	0xfb3
 5484 0fac 2F        		.uleb128 0x2f
 5485 0fad 8208 0000 		.long	0x882
 5486 0fb1 02        		.byte	0x2
 5487 0fb2 00        		.byte	0x0
 5488 0fb3 3A        		.uleb128 0x3a
 5489 0fb4 0000 0000 		.long	.LASF262
 5490 0fb8 01        		.byte	0x1
 5491 0fb9 59        		.byte	0x59
 5492 0fba A30F 0000 		.long	0xfa3
 5493 0fbe 05        		.byte	0x5
 5494 0fbf 03        		.byte	0x3
 5495 0fc0 0000 0000 		.long	_buffer
 5496 0fc4 3A        		.uleb128 0x3a
 5497 0fc5 0000 0000 		.long	.LASF263
 5498 0fc9 01        		.byte	0x1
 5499 0fca 5A        		.byte	0x5a
 5500 0fcb 7200 0000 		.long	0x72
 5501 0fcf 05        		.byte	0x5
 5502 0fd0 03        		.byte	0x3
 5503 0fd1 0000 0000 		.long	_bufferIndex
 5504 0fd5 3A        		.uleb128 0x3a
 5505 0fd6 0000 0000 		.long	.LASF264
 5506 0fda 01        		.byte	0x1
 5507 0fdb 5B        		.byte	0x5b
 5508 0fdc 6B00 0000 		.long	0x6b
 5509 0fe0 05        		.byte	0x5
 5510 0fe1 03        		.byte	0x3
 5511 0fe2 0000 0000 		.long	_editCount
 5512 0fe6 3A        		.uleb128 0x3a
 5513 0fe7 0000 0000 		.long	.LASF265
 5514 0feb 01        		.byte	0x1
 5515 0fec 5C        		.byte	0x5c
 5516 0fed 7200 0000 		.long	0x72
 5517 0ff1 05        		.byte	0x5
 5518 0ff2 03        		.byte	0x3
 5519 0ff3 0000 0000 		.long	_isWorkingForEmpty
 5520 0ff7 3A        		.uleb128 0x3a
 5521 0ff8 0000 0000 		.long	.LASF266
 5522 0ffc 01        		.byte	0x1
 5523 0ffd 60        		.byte	0x60
 5524 0ffe 7200 0000 		.long	0x72
 5525 1002 05        		.byte	0x5
 5526 1003 03        		.byte	0x3
 5527 1004 0000 0000 		.long	_currentLayer
 5528 1008 3A        		.uleb128 0x3a
GAS LISTING C:\Users\ADMINI~1\AppData\Local\Temp/ccSP7hgy.s 			page 100


 5529 1009 0000 0000 		.long	.LASF267
 5530 100d 01        		.byte	0x1
 5531 100e 61        		.byte	0x61
 5532 100f 7200 0000 		.long	0x72
 5533 1013 05        		.byte	0x5
 5534 1014 03        		.byte	0x3
 5535 1015 0000 0000 		.long	_currentLayerAfter
 5536 1019 2E        		.uleb128 0x2e
 5537 101a 7200 0000 		.long	0x72
 5538 101e 2910 0000 		.long	0x1029
 5539 1022 2F        		.uleb128 0x2f
 5540 1023 8208 0000 		.long	0x882
 5541 1027 0A        		.byte	0xa
 5542 1028 00        		.byte	0x0
 5543 1029 3A        		.uleb128 0x3a
 5544 102a 0000 0000 		.long	.LASF268
 5545 102e 01        		.byte	0x1
 5546 102f 64        		.byte	0x64
 5547 1030 1910 0000 		.long	0x1019
 5548 1034 05        		.byte	0x5
 5549 1035 03        		.byte	0x3
 5550 1036 0000 0000 		.long	usingKeys
 5551 103a 2A        		.uleb128 0x2a
 5552 103b 0000 0000 		.long	.LASF269
 5553 103f 01        		.byte	0x1
 5554 1040 A102      		.word	0x2a1
 5555 1042 7200 0000 		.long	0x72
 5556 1046 05        		.byte	0x5
 5557 1047 03        		.byte	0x3
 5558 1048 0000 0000 		.long	_macroDownCount
 5559 104c 3B        		.uleb128 0x3b
 5560 104d 0000 0000 		.long	.LASF270
 5561 1051 07        		.byte	0x7
 5562 1052 3B        		.byte	0x3b
 5563 1053 7200 0000 		.long	0x72
 5564 1057 01        		.byte	0x1
 5565 1058 01        		.byte	0x1
 5566 1059 2E        		.uleb128 0x2e
 5567 105a 7200 0000 		.long	0x72
 5568 105e 7510 0000 		.long	0x1075
 5569 1062 2F        		.uleb128 0x2f
 5570 1063 8208 0000 		.long	0x882
 5571 1067 02        		.byte	0x2
 5572 1068 2F        		.uleb128 0x2f
 5573 1069 8208 0000 		.long	0x882
 5574 106d 10        		.byte	0x10
 5575 106e 2F        		.uleb128 0x2f
 5576 106f 8208 0000 		.long	0x882
 5577 1073 07        		.byte	0x7
 5578 1074 00        		.byte	0x0
 5579 1075 3B        		.uleb128 0x3b
 5580 1076 0000 0000 		.long	.LASF271
 5581 107a 05        		.byte	0x5
 5582 107b F1        		.byte	0xf1
 5583 107c 8210 0000 		.long	0x1082
 5584 1080 01        		.byte	0x1
 5585 1081 01        		.byte	0x1
GAS LISTING C:\Users\ADMINI~1\AppData\Local\Temp/ccSP7hgy.s 			page 101


 5586 1082 2D        		.uleb128 0x2d
 5587 1083 5910 0000 		.long	0x1059
 5588 1087 2E        		.uleb128 0x2e
 5589 1088 6400 0000 		.long	0x64
 5590 108c 9710 0000 		.long	0x1097
 5591 1090 2F        		.uleb128 0x2f
 5592 1091 8208 0000 		.long	0x882
 5593 1095 0B        		.byte	0xb
 5594 1096 00        		.byte	0x0
 5595 1097 3C        		.uleb128 0x3c
 5596 1098 0000 0000 		.long	.LASF272
 5597 109c 01        		.byte	0x1
 5598 109d 1A        		.byte	0x1a
 5599 109e A910 0000 		.long	0x10a9
 5600 10a2 01        		.byte	0x1
 5601 10a3 05        		.byte	0x5
 5602 10a4 03        		.byte	0x3
 5603 10a5 0000 0000 		.long	str_select_mode
 5604 10a9 2D        		.uleb128 0x2d
 5605 10aa 8710 0000 		.long	0x1087
 5606 10ae 2E        		.uleb128 0x2e
 5607 10af 6400 0000 		.long	0x64
 5608 10b3 BE10 0000 		.long	0x10be
 5609 10b7 2F        		.uleb128 0x2f
 5610 10b8 8208 0000 		.long	0x882
 5611 10bc 0D        		.byte	0xd
 5612 10bd 00        		.byte	0x0
 5613 10be 3C        		.uleb128 0x3c
 5614 10bf 0000 0000 		.long	.LASF273
 5615 10c3 01        		.byte	0x1
 5616 10c4 1B        		.byte	0x1b
 5617 10c5 D010 0000 		.long	0x10d0
 5618 10c9 01        		.byte	0x1
 5619 10ca 05        		.byte	0x5
 5620 10cb 03        		.byte	0x3
 5621 10cc 0000 0000 		.long	str_select_mode1
 5622 10d0 2D        		.uleb128 0x2d
 5623 10d1 AE10 0000 		.long	0x10ae
 5624 10d5 2E        		.uleb128 0x2e
 5625 10d6 6400 0000 		.long	0x64
 5626 10da E510 0000 		.long	0x10e5
 5627 10de 2F        		.uleb128 0x2f
 5628 10df 8208 0000 		.long	0x882
 5629 10e3 07        		.byte	0x7
 5630 10e4 00        		.byte	0x0
 5631 10e5 3C        		.uleb128 0x3c
 5632 10e6 0000 0000 		.long	.LASF274
 5633 10ea 01        		.byte	0x1
 5634 10eb 1C        		.byte	0x1c
 5635 10ec F710 0000 		.long	0x10f7
 5636 10f0 01        		.byte	0x1
 5637 10f1 05        		.byte	0x5
 5638 10f2 03        		.byte	0x3
 5639 10f3 0000 0000 		.long	str_select_mode2
 5640 10f7 2D        		.uleb128 0x2d
 5641 10f8 D510 0000 		.long	0x10d5
 5642 10fc 2E        		.uleb128 0x2e
GAS LISTING C:\Users\ADMINI~1\AppData\Local\Temp/ccSP7hgy.s 			page 102


 5643 10fd 6400 0000 		.long	0x64
 5644 1101 0C11 0000 		.long	0x110c
 5645 1105 2F        		.uleb128 0x2f
 5646 1106 8208 0000 		.long	0x882
 5647 110a 06        		.byte	0x6
 5648 110b 00        		.byte	0x0
 5649 110c 3C        		.uleb128 0x3c
 5650 110d 0000 0000 		.long	.LASF275
 5651 1111 01        		.byte	0x1
 5652 1112 1D        		.byte	0x1d
 5653 1113 1E11 0000 		.long	0x111e
 5654 1117 01        		.byte	0x1
 5655 1118 05        		.byte	0x5
 5656 1119 03        		.byte	0x3
 5657 111a 0000 0000 		.long	str_select_mode3
 5658 111e 2D        		.uleb128 0x2d
 5659 111f FC10 0000 		.long	0x10fc
 5660 1123 3C        		.uleb128 0x3c
 5661 1124 0000 0000 		.long	.LASF276
 5662 1128 01        		.byte	0x1
 5663 1129 1E        		.byte	0x1e
 5664 112a 3511 0000 		.long	0x1135
 5665 112e 01        		.byte	0x1
 5666 112f 05        		.byte	0x5
 5667 1130 03        		.byte	0x3
 5668 1131 0000 0000 		.long	str_select_mode4
 5669 1135 2D        		.uleb128 0x2d
 5670 1136 AE10 0000 		.long	0x10ae
 5671 113a 2E        		.uleb128 0x2e
 5672 113b 6400 0000 		.long	0x64
 5673 113f 4A11 0000 		.long	0x114a
 5674 1143 2F        		.uleb128 0x2f
 5675 1144 8208 0000 		.long	0x882
 5676 1148 09        		.byte	0x9
 5677 1149 00        		.byte	0x0
 5678 114a 3C        		.uleb128 0x3c
 5679 114b 0000 0000 		.long	.LASF277
 5680 114f 01        		.byte	0x1
 5681 1150 1F        		.byte	0x1f
 5682 1151 5C11 0000 		.long	0x115c
 5683 1155 01        		.byte	0x1
 5684 1156 05        		.byte	0x5
 5685 1157 03        		.byte	0x3
 5686 1158 0000 0000 		.long	str_exit
 5687 115c 2D        		.uleb128 0x2d
 5688 115d 3A11 0000 		.long	0x113a
 5689 1161 2E        		.uleb128 0x2e
 5690 1162 6400 0000 		.long	0x64
 5691 1166 7111 0000 		.long	0x1171
 5692 116a 2F        		.uleb128 0x2f
 5693 116b 8208 0000 		.long	0x882
 5694 116f 12        		.byte	0x12
 5695 1170 00        		.byte	0x0
 5696 1171 3C        		.uleb128 0x3c
 5697 1172 0000 0000 		.long	.LASF278
 5698 1176 01        		.byte	0x1
 5699 1177 20        		.byte	0x20
GAS LISTING C:\Users\ADMINI~1\AppData\Local\Temp/ccSP7hgy.s 			page 103


 5700 1178 8311 0000 		.long	0x1183
 5701 117c 01        		.byte	0x1
 5702 117d 05        		.byte	0x5
 5703 117e 03        		.byte	0x3
 5704 117f 0000 0000 		.long	str_boot_mapper
 5705 1183 2D        		.uleb128 0x2d
 5706 1184 6111 0000 		.long	0x1161
 5707 1188 2E        		.uleb128 0x2e
 5708 1189 6400 0000 		.long	0x64
 5709 118d 9811 0000 		.long	0x1198
 5710 1191 2F        		.uleb128 0x2f
 5711 1192 8208 0000 		.long	0x882
 5712 1196 05        		.byte	0x5
 5713 1197 00        		.byte	0x0
 5714 1198 3C        		.uleb128 0x3c
 5715 1199 0000 0000 		.long	.LASF279
 5716 119d 01        		.byte	0x1
 5717 119e 22        		.byte	0x22
 5718 119f AA11 0000 		.long	0x11aa
 5719 11a3 01        		.byte	0x1
 5720 11a4 05        		.byte	0x5
 5721 11a5 03        		.byte	0x3
 5722 11a6 0000 0000 		.long	str_macro_message
 5723 11aa 2D        		.uleb128 0x2d
 5724 11ab 8811 0000 		.long	0x1188
 5725 11af 2E        		.uleb128 0x2e
 5726 11b0 6400 0000 		.long	0x64
 5727 11b4 BF11 0000 		.long	0x11bf
 5728 11b8 2F        		.uleb128 0x2f
 5729 11b9 8208 0000 		.long	0x882
 5730 11bd 14        		.byte	0x14
 5731 11be 00        		.byte	0x0
 5732 11bf 3C        		.uleb128 0x3c
 5733 11c0 0000 0000 		.long	.LASF280
 5734 11c4 01        		.byte	0x1
 5735 11c5 23        		.byte	0x23
 5736 11c6 D111 0000 		.long	0x11d1
 5737 11ca 01        		.byte	0x1
 5738 11cb 05        		.byte	0x5
 5739 11cc 03        		.byte	0x3
 5740 11cd 0000 0000 		.long	str_macro_1
 5741 11d1 2D        		.uleb128 0x2d
 5742 11d2 AF11 0000 		.long	0x11af
 5743 11d6 3C        		.uleb128 0x3c
 5744 11d7 0000 0000 		.long	.LASF281
 5745 11db 01        		.byte	0x1
 5746 11dc 24        		.byte	0x24
 5747 11dd E811 0000 		.long	0x11e8
 5748 11e1 01        		.byte	0x1
 5749 11e2 05        		.byte	0x5
 5750 11e3 03        		.byte	0x3
 5751 11e4 0000 0000 		.long	str_macro_2
 5752 11e8 2D        		.uleb128 0x2d
 5753 11e9 FC10 0000 		.long	0x10fc
 5754 11ed 3C        		.uleb128 0x3c
 5755 11ee 0000 0000 		.long	.LASF282
 5756 11f2 01        		.byte	0x1
GAS LISTING C:\Users\ADMINI~1\AppData\Local\Temp/ccSP7hgy.s 			page 104


 5757 11f3 25        		.byte	0x25
 5758 11f4 FF11 0000 		.long	0x11ff
 5759 11f8 01        		.byte	0x1
 5760 11f9 05        		.byte	0x5
 5761 11fa 03        		.byte	0x3
 5762 11fb 0000 0000 		.long	str_macro_9
 5763 11ff 2D        		.uleb128 0x2d
 5764 1200 8710 0000 		.long	0x1087
 5765 1204 3C        		.uleb128 0x3c
 5766 1205 0000 0000 		.long	.LASF283
 5767 1209 01        		.byte	0x1
 5768 120a 27        		.byte	0x27
 5769 120b 1612 0000 		.long	0x1216
 5770 120f 01        		.byte	0x1
 5771 1210 05        		.byte	0x5
 5772 1211 03        		.byte	0x3
 5773 1212 0000 0000 		.long	str_back_6
 5774 1216 2D        		.uleb128 0x2d
 5775 1217 FC10 0000 		.long	0x10fc
 5776 121b 2E        		.uleb128 0x2e
 5777 121c 6400 0000 		.long	0x64
 5778 1220 2B12 0000 		.long	0x122b
 5779 1224 2F        		.uleb128 0x2f
 5780 1225 8208 0000 		.long	0x882
 5781 1229 0A        		.byte	0xa
 5782 122a 00        		.byte	0x0
 5783 122b 3C        		.uleb128 0x3c
 5784 122c 0000 0000 		.long	.LASF284
 5785 1230 01        		.byte	0x1
 5786 1231 29        		.byte	0x29
 5787 1232 3D12 0000 		.long	0x123d
 5788 1236 01        		.byte	0x1
 5789 1237 05        		.byte	0x5
 5790 1238 03        		.byte	0x3
 5791 1239 0000 0000 		.long	str_mapper_message
 5792 123d 2D        		.uleb128 0x2d
 5793 123e 1B12 0000 		.long	0x121b
 5794 1242 2E        		.uleb128 0x2e
 5795 1243 6400 0000 		.long	0x64
 5796 1247 5212 0000 		.long	0x1252
 5797 124b 2F        		.uleb128 0x2f
 5798 124c 8208 0000 		.long	0x882
 5799 1250 0E        		.byte	0xe
 5800 1251 00        		.byte	0x0
 5801 1252 3C        		.uleb128 0x3c
 5802 1253 0000 0000 		.long	.LASF285
 5803 1257 01        		.byte	0x1
 5804 1258 2A        		.byte	0x2a
 5805 1259 6412 0000 		.long	0x1264
 5806 125d 01        		.byte	0x1
 5807 125e 05        		.byte	0x5
 5808 125f 03        		.byte	0x3
 5809 1260 0000 0000 		.long	str_mapper_1
 5810 1264 2D        		.uleb128 0x2d
 5811 1265 4212 0000 		.long	0x1242
 5812 1269 2E        		.uleb128 0x2e
 5813 126a 6400 0000 		.long	0x64
GAS LISTING C:\Users\ADMINI~1\AppData\Local\Temp/ccSP7hgy.s 			page 105


 5814 126e 7912 0000 		.long	0x1279
 5815 1272 2F        		.uleb128 0x2f
 5816 1273 8208 0000 		.long	0x882
 5817 1277 1C        		.byte	0x1c
 5818 1278 00        		.byte	0x0
 5819 1279 3C        		.uleb128 0x3c
 5820 127a 0000 0000 		.long	.LASF286
 5821 127e 01        		.byte	0x1
 5822 127f 2B        		.byte	0x2b
 5823 1280 8B12 0000 		.long	0x128b
 5824 1284 01        		.byte	0x1
 5825 1285 05        		.byte	0x5
 5826 1286 03        		.byte	0x3
 5827 1287 0000 0000 		.long	str_mapper_2
 5828 128b 2D        		.uleb128 0x2d
 5829 128c 6912 0000 		.long	0x1269
 5830 1290 2E        		.uleb128 0x2e
 5831 1291 6400 0000 		.long	0x64
 5832 1295 A012 0000 		.long	0x12a0
 5833 1299 2F        		.uleb128 0x2f
 5834 129a 8208 0000 		.long	0x882
 5835 129e 0F        		.byte	0xf
 5836 129f 00        		.byte	0x0
 5837 12a0 3C        		.uleb128 0x3c
 5838 12a1 0000 0000 		.long	.LASF287
 5839 12a5 01        		.byte	0x1
 5840 12a6 2C        		.byte	0x2c
 5841 12a7 B212 0000 		.long	0x12b2
 5842 12ab 01        		.byte	0x1
 5843 12ac 05        		.byte	0x5
 5844 12ad 03        		.byte	0x3
 5845 12ae 0000 0000 		.long	str_mapper_3
 5846 12b2 2D        		.uleb128 0x2d
 5847 12b3 9012 0000 		.long	0x1290
 5848 12b7 2E        		.uleb128 0x2e
 5849 12b8 6400 0000 		.long	0x64
 5850 12bc C712 0000 		.long	0x12c7
 5851 12c0 2F        		.uleb128 0x2f
 5852 12c1 8208 0000 		.long	0x882
 5853 12c5 15        		.byte	0x15
 5854 12c6 00        		.byte	0x0
 5855 12c7 3C        		.uleb128 0x3c
 5856 12c8 0000 0000 		.long	.LASF288
 5857 12cc 01        		.byte	0x1
 5858 12cd 2D        		.byte	0x2d
 5859 12ce D912 0000 		.long	0x12d9
 5860 12d2 01        		.byte	0x1
 5861 12d3 05        		.byte	0x5
 5862 12d4 03        		.byte	0x3
 5863 12d5 0000 0000 		.long	str_mapper_4
 5864 12d9 2D        		.uleb128 0x2d
 5865 12da B712 0000 		.long	0x12b7
 5866 12de 2E        		.uleb128 0x2e
 5867 12df 6400 0000 		.long	0x64
 5868 12e3 EE12 0000 		.long	0x12ee
 5869 12e7 2F        		.uleb128 0x2f
 5870 12e8 8208 0000 		.long	0x882
GAS LISTING C:\Users\ADMINI~1\AppData\Local\Temp/ccSP7hgy.s 			page 106


 5871 12ec 22        		.byte	0x22
 5872 12ed 00        		.byte	0x0
 5873 12ee 3C        		.uleb128 0x3c
 5874 12ef 0000 0000 		.long	.LASF289
 5875 12f3 01        		.byte	0x1
 5876 12f4 2E        		.byte	0x2e
 5877 12f5 0013 0000 		.long	0x1300
 5878 12f9 01        		.byte	0x1
 5879 12fa 05        		.byte	0x5
 5880 12fb 03        		.byte	0x3
 5881 12fc 0000 0000 		.long	str_mapper_9
 5882 1300 2D        		.uleb128 0x2d
 5883 1301 DE12 0000 		.long	0x12de
 5884 1305 3C        		.uleb128 0x3c
 5885 1306 0000 0000 		.long	.LASF290
 5886 130a 01        		.byte	0x1
 5887 130b 30        		.byte	0x30
 5888 130c 1713 0000 		.long	0x1317
 5889 1310 01        		.byte	0x1
 5890 1311 05        		.byte	0x5
 5891 1312 03        		.byte	0x3
 5892 1313 0000 0000 		.long	str_prepare_message
 5893 1317 2D        		.uleb128 0x2d
 5894 1318 D510 0000 		.long	0x10d5
 5895 131c 2E        		.uleb128 0x2e
 5896 131d 6400 0000 		.long	0x64
 5897 1321 2C13 0000 		.long	0x132c
 5898 1325 2F        		.uleb128 0x2f
 5899 1326 8208 0000 		.long	0x882
 5900 132a 31        		.byte	0x31
 5901 132b 00        		.byte	0x0
 5902 132c 3C        		.uleb128 0x3c
 5903 132d 0000 0000 		.long	.LASF291
 5904 1331 01        		.byte	0x1
 5905 1332 31        		.byte	0x31
 5906 1333 3E13 0000 		.long	0x133e
 5907 1337 01        		.byte	0x1
 5908 1338 05        		.byte	0x5
 5909 1339 03        		.byte	0x3
 5910 133a 0000 0000 		.long	str_choose_layer
 5911 133e 2D        		.uleb128 0x2d
 5912 133f 1C13 0000 		.long	0x131c
 5913 1343 2E        		.uleb128 0x2e
 5914 1344 6400 0000 		.long	0x64
 5915 1348 5313 0000 		.long	0x1353
 5916 134c 2F        		.uleb128 0x2f
 5917 134d 8208 0000 		.long	0x882
 5918 1351 1E        		.byte	0x1e
 5919 1352 00        		.byte	0x0
 5920 1353 3C        		.uleb128 0x3c
 5921 1354 0000 0000 		.long	.LASF292
 5922 1358 01        		.byte	0x1
 5923 1359 32        		.byte	0x32
 5924 135a 6513 0000 		.long	0x1365
 5925 135e 01        		.byte	0x1
 5926 135f 05        		.byte	0x5
 5927 1360 03        		.byte	0x3
GAS LISTING C:\Users\ADMINI~1\AppData\Local\Temp/ccSP7hgy.s 			page 107


 5928 1361 0000 0000 		.long	str_choose_key
 5929 1365 2D        		.uleb128 0x2d
 5930 1366 4313 0000 		.long	0x1343
 5931 136a 2E        		.uleb128 0x2e
 5932 136b 6400 0000 		.long	0x64
 5933 136f 7A13 0000 		.long	0x137a
 5934 1373 2F        		.uleb128 0x2f
 5935 1374 8208 0000 		.long	0x882
 5936 1378 21        		.byte	0x21
 5937 1379 00        		.byte	0x0
 5938 137a 3C        		.uleb128 0x3c
 5939 137b 0000 0000 		.long	.LASF293
 5940 137f 01        		.byte	0x1
 5941 1380 33        		.byte	0x33
 5942 1381 8C13 0000 		.long	0x138c
 5943 1385 01        		.byte	0x1
 5944 1386 05        		.byte	0x5
 5945 1387 03        		.byte	0x3
 5946 1388 0000 0000 		.long	str_input_keycode
 5947 138c 2D        		.uleb128 0x2d
 5948 138d 6A13 0000 		.long	0x136a
 5949 1391 2E        		.uleb128 0x2e
 5950 1392 6400 0000 		.long	0x64
 5951 1396 A113 0000 		.long	0x13a1
 5952 139a 2F        		.uleb128 0x2f
 5953 139b 8208 0000 		.long	0x882
 5954 139f 17        		.byte	0x17
 5955 13a0 00        		.byte	0x0
 5956 13a1 3C        		.uleb128 0x3c
 5957 13a2 0000 0000 		.long	.LASF294
 5958 13a6 01        		.byte	0x1
 5959 13a7 34        		.byte	0x34
 5960 13a8 B313 0000 		.long	0x13b3
 5961 13ac 01        		.byte	0x1
 5962 13ad 05        		.byte	0x5
 5963 13ae 03        		.byte	0x3
 5964 13af 0000 0000 		.long	str_save_end_mapping
 5965 13b3 2D        		.uleb128 0x2d
 5966 13b4 9113 0000 		.long	0x1391
 5967 13b8 2E        		.uleb128 0x2e
 5968 13b9 6400 0000 		.long	0x64
 5969 13bd C813 0000 		.long	0x13c8
 5970 13c1 2F        		.uleb128 0x2f
 5971 13c2 8208 0000 		.long	0x882
 5972 13c6 23        		.byte	0x23
 5973 13c7 00        		.byte	0x0
 5974 13c8 3C        		.uleb128 0x3c
 5975 13c9 0000 0000 		.long	.LASF295
 5976 13cd 01        		.byte	0x1
 5977 13ce 35        		.byte	0x35
 5978 13cf DA13 0000 		.long	0x13da
 5979 13d3 01        		.byte	0x1
 5980 13d4 05        		.byte	0x5
 5981 13d5 03        		.byte	0x3
 5982 13d6 0000 0000 		.long	str_cancel_mapping
 5983 13da 2D        		.uleb128 0x2d
 5984 13db B813 0000 		.long	0x13b8
GAS LISTING C:\Users\ADMINI~1\AppData\Local\Temp/ccSP7hgy.s 			page 108


 5985 13df 3C        		.uleb128 0x3c
 5986 13e0 0000 0000 		.long	.LASF296
 5987 13e4 01        		.byte	0x1
 5988 13e5 36        		.byte	0x36
 5989 13e6 F113 0000 		.long	0x13f1
 5990 13ea 01        		.byte	0x1
 5991 13eb 05        		.byte	0x5
 5992 13ec 03        		.byte	0x3
 5993 13ed 0000 0000 		.long	str_reset_mapping
 5994 13f1 2D        		.uleb128 0x2d
 5995 13f2 4313 0000 		.long	0x1343
 5996 13f6 2E        		.uleb128 0x2e
 5997 13f7 6400 0000 		.long	0x64
 5998 13fb 0614 0000 		.long	0x1406
 5999 13ff 2F        		.uleb128 0x2f
 6000 1400 8208 0000 		.long	0x882
 6001 1404 16        		.byte	0x16
 6002 1405 00        		.byte	0x0
 6003 1406 3C        		.uleb128 0x3c
 6004 1407 0000 0000 		.long	.LASF297
 6005 140b 01        		.byte	0x1
 6006 140c 37        		.byte	0x37
 6007 140d 1814 0000 		.long	0x1418
 6008 1411 01        		.byte	0x1
 6009 1412 05        		.byte	0x5
 6010 1413 03        		.byte	0x3
 6011 1414 0000 0000 		.long	str_input_command
 6012 1418 2D        		.uleb128 0x2d
 6013 1419 F613 0000 		.long	0x13f6
 6014 141d 3C        		.uleb128 0x3c
 6015 141e 0000 0000 		.long	.LASF298
 6016 1422 01        		.byte	0x1
 6017 1423 38        		.byte	0x38
 6018 1424 2F14 0000 		.long	0x142f
 6019 1428 01        		.byte	0x1
 6020 1429 05        		.byte	0x5
 6021 142a 03        		.byte	0x3
 6022 142b 0000 0000 		.long	str_nothing
 6023 142f 2D        		.uleb128 0x2d
 6024 1430 D510 0000 		.long	0x10d5
 6025 1434 3C        		.uleb128 0x3c
 6026 1435 0000 0000 		.long	.LASF299
 6027 1439 01        		.byte	0x1
 6028 143a 39        		.byte	0x39
 6029 143b 4614 0000 		.long	0x1446
 6030 143f 01        		.byte	0x1
 6031 1440 05        		.byte	0x5
 6032 1441 03        		.byte	0x3
 6033 1442 0000 0000 		.long	str_save_layer
 6034 1446 2D        		.uleb128 0x2d
 6035 1447 6111 0000 		.long	0x1161
 6036 144b 3C        		.uleb128 0x3c
 6037 144c 0000 0000 		.long	.LASF300
 6038 1450 01        		.byte	0x1
 6039 1451 3A        		.byte	0x3a
 6040 1452 5D14 0000 		.long	0x145d
 6041 1456 01        		.byte	0x1
GAS LISTING C:\Users\ADMINI~1\AppData\Local\Temp/ccSP7hgy.s 			page 109


 6042 1457 05        		.byte	0x5
 6043 1458 03        		.byte	0x3
 6044 1459 0000 0000 		.long	str_load_layer
 6045 145d 2D        		.uleb128 0x2d
 6046 145e 6111 0000 		.long	0x1161
 6047 1462 3C        		.uleb128 0x3c
 6048 1463 0000 0000 		.long	.LASF301
 6049 1467 01        		.byte	0x1
 6050 1468 3B        		.byte	0x3b
 6051 1469 7414 0000 		.long	0x1474
 6052 146d 01        		.byte	0x1
 6053 146e 05        		.byte	0x5
 6054 146f 03        		.byte	0x3
 6055 1470 0000 0000 		.long	str_saving
 6056 1474 2D        		.uleb128 0x2d
 6057 1475 3A11 0000 		.long	0x113a
 6058 1479 3C        		.uleb128 0x3c
 6059 147a 0000 0000 		.long	.LASF302
 6060 147e 01        		.byte	0x1
 6061 147f 3C        		.byte	0x3c
 6062 1480 8B14 0000 		.long	0x148b
 6063 1484 01        		.byte	0x1
 6064 1485 05        		.byte	0x5
 6065 1486 03        		.byte	0x3
 6066 1487 0000 0000 		.long	str_col_row
 6067 148b 2D        		.uleb128 0x2d
 6068 148c 8710 0000 		.long	0x1087
 6069 1490 2E        		.uleb128 0x2e
 6070 1491 6400 0000 		.long	0x64
 6071 1495 A014 0000 		.long	0x14a0
 6072 1499 2F        		.uleb128 0x2f
 6073 149a 8208 0000 		.long	0x882
 6074 149e 1D        		.byte	0x1d
 6075 149f 00        		.byte	0x0
 6076 14a0 3C        		.uleb128 0x3c
 6077 14a1 0000 0000 		.long	.LASF303
 6078 14a5 01        		.byte	0x1
 6079 14a6 3D        		.byte	0x3d
 6080 14a7 B214 0000 		.long	0x14b2
 6081 14ab 01        		.byte	0x1
 6082 14ac 05        		.byte	0x5
 6083 14ad 03        		.byte	0x3
 6084 14ae 0000 0000 		.long	str_invalid_keycode
 6085 14b2 2D        		.uleb128 0x2d
 6086 14b3 9014 0000 		.long	0x1490
 6087 14b7 2E        		.uleb128 0x2e
 6088 14b8 6400 0000 		.long	0x64
 6089 14bc C714 0000 		.long	0x14c7
 6090 14c0 2F        		.uleb128 0x2f
 6091 14c1 8208 0000 		.long	0x882
 6092 14c5 2C        		.byte	0x2c
 6093 14c6 00        		.byte	0x0
 6094 14c7 3C        		.uleb128 0x3c
 6095 14c8 0000 0000 		.long	.LASF304
 6096 14cc 01        		.byte	0x1
 6097 14cd 3F        		.byte	0x3f
 6098 14ce D914 0000 		.long	0x14d9
GAS LISTING C:\Users\ADMINI~1\AppData\Local\Temp/ccSP7hgy.s 			page 110


 6099 14d2 01        		.byte	0x1
 6100 14d3 05        		.byte	0x5
 6101 14d4 03        		.byte	0x3
 6102 14d5 0000 0000 		.long	str_select_number
 6103 14d9 2D        		.uleb128 0x2d
 6104 14da B714 0000 		.long	0x14b7
 6105 14de 2E        		.uleb128 0x2e
 6106 14df 6400 0000 		.long	0x64
 6107 14e3 EE14 0000 		.long	0x14ee
 6108 14e7 2F        		.uleb128 0x2f
 6109 14e8 8208 0000 		.long	0x882
 6110 14ec 1A        		.byte	0x1a
 6111 14ed 00        		.byte	0x0
 6112 14ee 3C        		.uleb128 0x3c
 6113 14ef 0000 0000 		.long	.LASF305
 6114 14f3 01        		.byte	0x1
 6115 14f4 40        		.byte	0x40
 6116 14f5 0015 0000 		.long	0x1500
 6117 14f9 01        		.byte	0x1
 6118 14fa 05        		.byte	0x5
 6119 14fb 03        		.byte	0x3
 6120 14fc 0000 0000 		.long	str_exit_macro
 6121 1500 2D        		.uleb128 0x2d
 6122 1501 DE14 0000 		.long	0x14de
 6123 1505 2E        		.uleb128 0x2e
 6124 1506 6400 0000 		.long	0x64
 6125 150a 1515 0000 		.long	0x1515
 6126 150e 2F        		.uleb128 0x2f
 6127 150f 8208 0000 		.long	0x882
 6128 1513 36        		.byte	0x36
 6129 1514 00        		.byte	0x0
 6130 1515 3C        		.uleb128 0x3c
 6131 1516 0000 0000 		.long	.LASF306
 6132 151a 01        		.byte	0x1
 6133 151b 41        		.byte	0x41
 6134 151c 2715 0000 		.long	0x1527
 6135 1520 01        		.byte	0x1
 6136 1521 05        		.byte	0x5
 6137 1522 03        		.byte	0x3
 6138 1523 0000 0000 		.long	str_input_macro
 6139 1527 2D        		.uleb128 0x2d
 6140 1528 0515 0000 		.long	0x1505
 6141 152c 2E        		.uleb128 0x2e
 6142 152d 6400 0000 		.long	0x64
 6143 1531 3C15 0000 		.long	0x153c
 6144 1535 2F        		.uleb128 0x2f
 6145 1536 8208 0000 		.long	0x882
 6146 153a 1B        		.byte	0x1b
 6147 153b 00        		.byte	0x0
 6148 153c 3C        		.uleb128 0x3c
 6149 153d 0000 0000 		.long	.LASF307
 6150 1541 01        		.byte	0x1
 6151 1542 42        		.byte	0x42
 6152 1543 4E15 0000 		.long	0x154e
 6153 1547 01        		.byte	0x1
 6154 1548 05        		.byte	0x5
 6155 1549 03        		.byte	0x3
GAS LISTING C:\Users\ADMINI~1\AppData\Local\Temp/ccSP7hgy.s 			page 111


 6156 154a 0000 0000 		.long	str_invalid_macro_number
 6157 154e 2D        		.uleb128 0x2d
 6158 154f 2C15 0000 		.long	0x152c
 6159 1553 2E        		.uleb128 0x2e
 6160 1554 6400 0000 		.long	0x64
 6161 1558 6315 0000 		.long	0x1563
 6162 155c 2F        		.uleb128 0x2f
 6163 155d 8208 0000 		.long	0x882
 6164 1561 08        		.byte	0x8
 6165 1562 00        		.byte	0x0
 6166 1563 3C        		.uleb128 0x3c
 6167 1564 0000 0000 		.long	.LASF308
 6168 1568 01        		.byte	0x1
 6169 1569 43        		.byte	0x43
 6170 156a 7515 0000 		.long	0x1575
 6171 156e 01        		.byte	0x1
 6172 156f 05        		.byte	0x5
 6173 1570 03        		.byte	0x3
 6174 1571 0000 0000 		.long	str_clear_all_macro
 6175 1575 2D        		.uleb128 0x2d
 6176 1576 5315 0000 		.long	0x1553
 6177 157a 3C        		.uleb128 0x3c
 6178 157b 0000 0000 		.long	.LASF309
 6179 157f 01        		.byte	0x1
 6180 1580 4C        		.byte	0x4c
 6181 1581 7200 0000 		.long	0x72
 6182 1585 01        		.byte	0x1
 6183 1586 05        		.byte	0x5
 6184 1587 03        		.byte	0x3
 6185 1588 0000 0000 		.long	_macroIndex
 6186 158c 3C        		.uleb128 0x3c
 6187 158d 0000 0000 		.long	.LASF310
 6188 1591 01        		.byte	0x1
 6189 1592 4D        		.byte	0x4d
 6190 1593 7200 0000 		.long	0x72
 6191 1597 01        		.byte	0x1
 6192 1598 05        		.byte	0x5
 6193 1599 03        		.byte	0x3
 6194 159a 0000 0000 		.long	_macroBufferIndex
 6195 159e 2E        		.uleb128 0x2e
 6196 159f 7200 0000 		.long	0x72
 6197 15a3 AE15 0000 		.long	0x15ae
 6198 15a7 2F        		.uleb128 0x2f
 6199 15a8 8208 0000 		.long	0x882
 6200 15ac 17        		.byte	0x17
 6201 15ad 00        		.byte	0x0
 6202 15ae 3C        		.uleb128 0x3c
 6203 15af 0000 0000 		.long	.LASF311
 6204 15b3 01        		.byte	0x1
 6205 15b4 4E        		.byte	0x4e
 6206 15b5 9E15 0000 		.long	0x159e
 6207 15b9 01        		.byte	0x1
 6208 15ba 05        		.byte	0x5
 6209 15bb 03        		.byte	0x3
 6210 15bc 0000 0000 		.long	_macroPressedBuffer
 6211 15c0 3C        		.uleb128 0x3c
 6212 15c1 0000 0000 		.long	.LASF312
GAS LISTING C:\Users\ADMINI~1\AppData\Local\Temp/ccSP7hgy.s 			page 112


 6213 15c5 01        		.byte	0x1
 6214 15c6 4F        		.byte	0x4f
 6215 15c7 750A 0000 		.long	0xa75
 6216 15cb 01        		.byte	0x1
 6217 15cc 05        		.byte	0x5
 6218 15cd 03        		.byte	0x3
 6219 15ce 0000 0000 		.long	_macroInputBuffer
 6220 15d2 3C        		.uleb128 0x3c
 6221 15d3 0000 0000 		.long	.LASF313
 6222 15d7 01        		.byte	0x1
 6223 15d8 50        		.byte	0x50
 6224 15d9 6B00 0000 		.long	0x6b
 6225 15dd 01        		.byte	0x1
 6226 15de 05        		.byte	0x5
 6227 15df 03        		.byte	0x3
 6228 15e0 0000 0000 		.long	_pressedEscapeKeyCount
 6229 15e4 3C        		.uleb128 0x3c
 6230 15e5 0000 0000 		.long	.LASF314
 6231 15e9 01        		.byte	0x1
 6232 15ea 51        		.byte	0x51
 6233 15eb 7200 0000 		.long	0x72
 6234 15ef 01        		.byte	0x1
 6235 15f0 05        		.byte	0x5
 6236 15f1 03        		.byte	0x3
 6237 15f2 0000 0000 		.long	_isPressedEscapeKey
 6238 15f6 3C        		.uleb128 0x3c
 6239 15f7 0000 0000 		.long	.LASF315
 6240 15fb 01        		.byte	0x1
 6241 15fc 52        		.byte	0x52
 6242 15fd 7200 0000 		.long	0x72
 6243 1601 01        		.byte	0x1
 6244 1602 05        		.byte	0x5
 6245 1603 03        		.byte	0x3
 6246 1604 0000 0000 		.long	_isTiredEscapeKey
 6247 1608 2E        		.uleb128 0x2e
 6248 1609 7200 0000 		.long	0x72
 6249 160d 1E16 0000 		.long	0x161e
 6250 1611 2F        		.uleb128 0x2f
 6251 1612 8208 0000 		.long	0x882
 6252 1616 10        		.byte	0x10
 6253 1617 2F        		.uleb128 0x2f
 6254 1618 8208 0000 		.long	0x882
 6255 161c 07        		.byte	0x7
 6256 161d 00        		.byte	0x0
 6257 161e 3C        		.uleb128 0x3c
 6258 161f 0000 0000 		.long	.LASF316
 6259 1623 01        		.byte	0x1
 6260 1624 5E        		.byte	0x5e
 6261 1625 0816 0000 		.long	0x1608
 6262 1629 01        		.byte	0x1
 6263 162a 05        		.byte	0x5
 6264 162b 03        		.byte	0x3
 6265 162c 0000 0000 		.long	_newKeyMap
 6266 1630 00        		.byte	0x0
 6267               		.section	.debug_abbrev
 6268 0000 01        		.uleb128 0x1
 6269 0001 11        		.uleb128 0x11
GAS LISTING C:\Users\ADMINI~1\AppData\Local\Temp/ccSP7hgy.s 			page 113


 6270 0002 01        		.byte	0x1
 6271 0003 25        		.uleb128 0x25
 6272 0004 0E        		.uleb128 0xe
 6273 0005 13        		.uleb128 0x13
 6274 0006 0B        		.uleb128 0xb
 6275 0007 03        		.uleb128 0x3
 6276 0008 0E        		.uleb128 0xe
 6277 0009 1B        		.uleb128 0x1b
 6278 000a 0E        		.uleb128 0xe
 6279 000b 11        		.uleb128 0x11
 6280 000c 01        		.uleb128 0x1
 6281 000d 12        		.uleb128 0x12
 6282 000e 01        		.uleb128 0x1
 6283 000f 10        		.uleb128 0x10
 6284 0010 06        		.uleb128 0x6
 6285 0011 00        		.byte	0x0
 6286 0012 00        		.byte	0x0
 6287 0013 02        		.uleb128 0x2
 6288 0014 24        		.uleb128 0x24
 6289 0015 00        		.byte	0x0
 6290 0016 0B        		.uleb128 0xb
 6291 0017 0B        		.uleb128 0xb
 6292 0018 3E        		.uleb128 0x3e
 6293 0019 0B        		.uleb128 0xb
 6294 001a 03        		.uleb128 0x3
 6295 001b 0E        		.uleb128 0xe
 6296 001c 00        		.byte	0x0
 6297 001d 00        		.byte	0x0
 6298 001e 03        		.uleb128 0x3
 6299 001f 24        		.uleb128 0x24
 6300 0020 00        		.byte	0x0
 6301 0021 0B        		.uleb128 0xb
 6302 0022 0B        		.uleb128 0xb
 6303 0023 3E        		.uleb128 0x3e
 6304 0024 0B        		.uleb128 0xb
 6305 0025 03        		.uleb128 0x3
 6306 0026 08        		.uleb128 0x8
 6307 0027 00        		.byte	0x0
 6308 0028 00        		.byte	0x0
 6309 0029 04        		.uleb128 0x4
 6310 002a 16        		.uleb128 0x16
 6311 002b 00        		.byte	0x0
 6312 002c 03        		.uleb128 0x3
 6313 002d 0E        		.uleb128 0xe
 6314 002e 3A        		.uleb128 0x3a
 6315 002f 0B        		.uleb128 0xb
 6316 0030 3B        		.uleb128 0x3b
 6317 0031 0B        		.uleb128 0xb
 6318 0032 49        		.uleb128 0x49
 6319 0033 13        		.uleb128 0x13
 6320 0034 00        		.byte	0x0
 6321 0035 00        		.byte	0x0
 6322 0036 05        		.uleb128 0x5
 6323 0037 24        		.uleb128 0x24
 6324 0038 00        		.byte	0x0
 6325 0039 0B        		.uleb128 0xb
 6326 003a 0B        		.uleb128 0xb
GAS LISTING C:\Users\ADMINI~1\AppData\Local\Temp/ccSP7hgy.s 			page 114


 6327 003b 3E        		.uleb128 0x3e
 6328 003c 0B        		.uleb128 0xb
 6329 003d 00        		.byte	0x0
 6330 003e 00        		.byte	0x0
 6331 003f 06        		.uleb128 0x6
 6332 0040 0F        		.uleb128 0xf
 6333 0041 00        		.byte	0x0
 6334 0042 0B        		.uleb128 0xb
 6335 0043 0B        		.uleb128 0xb
 6336 0044 49        		.uleb128 0x49
 6337 0045 13        		.uleb128 0x13
 6338 0046 00        		.byte	0x0
 6339 0047 00        		.byte	0x0
 6340 0048 07        		.uleb128 0x7
 6341 0049 04        		.uleb128 0x4
 6342 004a 01        		.byte	0x1
 6343 004b 0B        		.uleb128 0xb
 6344 004c 0B        		.uleb128 0xb
 6345 004d 3A        		.uleb128 0x3a
 6346 004e 0B        		.uleb128 0xb
 6347 004f 3B        		.uleb128 0x3b
 6348 0050 0B        		.uleb128 0xb
 6349 0051 01        		.uleb128 0x1
 6350 0052 13        		.uleb128 0x13
 6351 0053 00        		.byte	0x0
 6352 0054 00        		.byte	0x0
 6353 0055 08        		.uleb128 0x8
 6354 0056 28        		.uleb128 0x28
 6355 0057 00        		.byte	0x0
 6356 0058 03        		.uleb128 0x3
 6357 0059 0E        		.uleb128 0xe
 6358 005a 1C        		.uleb128 0x1c
 6359 005b 0D        		.uleb128 0xd
 6360 005c 00        		.byte	0x0
 6361 005d 00        		.byte	0x0
 6362 005e 09        		.uleb128 0x9
 6363 005f 13        		.uleb128 0x13
 6364 0060 01        		.byte	0x1
 6365 0061 0B        		.uleb128 0xb
 6366 0062 0B        		.uleb128 0xb
 6367 0063 3A        		.uleb128 0x3a
 6368 0064 0B        		.uleb128 0xb
 6369 0065 3B        		.uleb128 0x3b
 6370 0066 0B        		.uleb128 0xb
 6371 0067 01        		.uleb128 0x1
 6372 0068 13        		.uleb128 0x13
 6373 0069 00        		.byte	0x0
 6374 006a 00        		.byte	0x0
 6375 006b 0A        		.uleb128 0xa
 6376 006c 0D        		.uleb128 0xd
 6377 006d 00        		.byte	0x0
 6378 006e 03        		.uleb128 0x3
 6379 006f 0E        		.uleb128 0xe
 6380 0070 3A        		.uleb128 0x3a
 6381 0071 0B        		.uleb128 0xb
 6382 0072 3B        		.uleb128 0x3b
 6383 0073 0B        		.uleb128 0xb
GAS LISTING C:\Users\ADMINI~1\AppData\Local\Temp/ccSP7hgy.s 			page 115


 6384 0074 49        		.uleb128 0x49
 6385 0075 13        		.uleb128 0x13
 6386 0076 38        		.uleb128 0x38
 6387 0077 0A        		.uleb128 0xa
 6388 0078 00        		.byte	0x0
 6389 0079 00        		.byte	0x0
 6390 007a 0B        		.uleb128 0xb
 6391 007b 16        		.uleb128 0x16
 6392 007c 00        		.byte	0x0
 6393 007d 03        		.uleb128 0x3
 6394 007e 08        		.uleb128 0x8
 6395 007f 3A        		.uleb128 0x3a
 6396 0080 0B        		.uleb128 0xb
 6397 0081 3B        		.uleb128 0x3b
 6398 0082 0B        		.uleb128 0xb
 6399 0083 49        		.uleb128 0x49
 6400 0084 13        		.uleb128 0x13
 6401 0085 00        		.byte	0x0
 6402 0086 00        		.byte	0x0
 6403 0087 0C        		.uleb128 0xc
 6404 0088 2E        		.uleb128 0x2e
 6405 0089 01        		.byte	0x1
 6406 008a 03        		.uleb128 0x3
 6407 008b 0E        		.uleb128 0xe
 6408 008c 3A        		.uleb128 0x3a
 6409 008d 0B        		.uleb128 0xb
 6410 008e 3B        		.uleb128 0x3b
 6411 008f 0B        		.uleb128 0xb
 6412 0090 27        		.uleb128 0x27
 6413 0091 0C        		.uleb128 0xc
 6414 0092 20        		.uleb128 0x20
 6415 0093 0B        		.uleb128 0xb
 6416 0094 01        		.uleb128 0x1
 6417 0095 13        		.uleb128 0x13
 6418 0096 00        		.byte	0x0
 6419 0097 00        		.byte	0x0
 6420 0098 0D        		.uleb128 0xd
 6421 0099 05        		.uleb128 0x5
 6422 009a 00        		.byte	0x0
 6423 009b 03        		.uleb128 0x3
 6424 009c 0E        		.uleb128 0xe
 6425 009d 3A        		.uleb128 0x3a
 6426 009e 0B        		.uleb128 0xb
 6427 009f 3B        		.uleb128 0x3b
 6428 00a0 0B        		.uleb128 0xb
 6429 00a1 49        		.uleb128 0x49
 6430 00a2 13        		.uleb128 0x13
 6431 00a3 00        		.byte	0x0
 6432 00a4 00        		.byte	0x0
 6433 00a5 0E        		.uleb128 0xe
 6434 00a6 2E        		.uleb128 0x2e
 6435 00a7 00        		.byte	0x0
 6436 00a8 3F        		.uleb128 0x3f
 6437 00a9 0C        		.uleb128 0xc
 6438 00aa 03        		.uleb128 0x3
 6439 00ab 0E        		.uleb128 0xe
 6440 00ac 3A        		.uleb128 0x3a
GAS LISTING C:\Users\ADMINI~1\AppData\Local\Temp/ccSP7hgy.s 			page 116


 6441 00ad 0B        		.uleb128 0xb
 6442 00ae 3B        		.uleb128 0x3b
 6443 00af 0B        		.uleb128 0xb
 6444 00b0 27        		.uleb128 0x27
 6445 00b1 0C        		.uleb128 0xc
 6446 00b2 49        		.uleb128 0x49
 6447 00b3 13        		.uleb128 0x13
 6448 00b4 20        		.uleb128 0x20
 6449 00b5 0B        		.uleb128 0xb
 6450 00b6 00        		.byte	0x0
 6451 00b7 00        		.byte	0x0
 6452 00b8 0F        		.uleb128 0xf
 6453 00b9 2E        		.uleb128 0x2e
 6454 00ba 01        		.byte	0x1
 6455 00bb 3F        		.uleb128 0x3f
 6456 00bc 0C        		.uleb128 0xc
 6457 00bd 03        		.uleb128 0x3
 6458 00be 0E        		.uleb128 0xe
 6459 00bf 3A        		.uleb128 0x3a
 6460 00c0 0B        		.uleb128 0xb
 6461 00c1 3B        		.uleb128 0x3b
 6462 00c2 05        		.uleb128 0x5
 6463 00c3 27        		.uleb128 0x27
 6464 00c4 0C        		.uleb128 0xc
 6465 00c5 49        		.uleb128 0x49
 6466 00c6 13        		.uleb128 0x13
 6467 00c7 20        		.uleb128 0x20
 6468 00c8 0B        		.uleb128 0xb
 6469 00c9 01        		.uleb128 0x1
 6470 00ca 13        		.uleb128 0x13
 6471 00cb 00        		.byte	0x0
 6472 00cc 00        		.byte	0x0
 6473 00cd 10        		.uleb128 0x10
 6474 00ce 05        		.uleb128 0x5
 6475 00cf 00        		.byte	0x0
 6476 00d0 03        		.uleb128 0x3
 6477 00d1 0E        		.uleb128 0xe
 6478 00d2 3A        		.uleb128 0x3a
 6479 00d3 0B        		.uleb128 0xb
 6480 00d4 3B        		.uleb128 0x3b
 6481 00d5 05        		.uleb128 0x5
 6482 00d6 49        		.uleb128 0x49
 6483 00d7 13        		.uleb128 0x13
 6484 00d8 00        		.byte	0x0
 6485 00d9 00        		.byte	0x0
 6486 00da 11        		.uleb128 0x11
 6487 00db 2E        		.uleb128 0x2e
 6488 00dc 00        		.byte	0x0
 6489 00dd 3F        		.uleb128 0x3f
 6490 00de 0C        		.uleb128 0xc
 6491 00df 03        		.uleb128 0x3
 6492 00e0 0E        		.uleb128 0xe
 6493 00e1 3A        		.uleb128 0x3a
 6494 00e2 0B        		.uleb128 0xb
 6495 00e3 3B        		.uleb128 0x3b
 6496 00e4 0B        		.uleb128 0xb
 6497 00e5 27        		.uleb128 0x27
GAS LISTING C:\Users\ADMINI~1\AppData\Local\Temp/ccSP7hgy.s 			page 117


 6498 00e6 0C        		.uleb128 0xc
 6499 00e7 20        		.uleb128 0x20
 6500 00e8 0B        		.uleb128 0xb
 6501 00e9 00        		.byte	0x0
 6502 00ea 00        		.byte	0x0
 6503 00eb 12        		.uleb128 0x12
 6504 00ec 34        		.uleb128 0x34
 6505 00ed 00        		.byte	0x0
 6506 00ee 03        		.uleb128 0x3
 6507 00ef 0E        		.uleb128 0xe
 6508 00f0 3A        		.uleb128 0x3a
 6509 00f1 0B        		.uleb128 0xb
 6510 00f2 3B        		.uleb128 0x3b
 6511 00f3 0B        		.uleb128 0xb
 6512 00f4 49        		.uleb128 0x49
 6513 00f5 13        		.uleb128 0x13
 6514 00f6 00        		.byte	0x0
 6515 00f7 00        		.byte	0x0
 6516 00f8 13        		.uleb128 0x13
 6517 00f9 0B        		.uleb128 0xb
 6518 00fa 00        		.byte	0x0
 6519 00fb 00        		.byte	0x0
 6520 00fc 00        		.byte	0x0
 6521 00fd 14        		.uleb128 0x14
 6522 00fe 2E        		.uleb128 0x2e
 6523 00ff 00        		.byte	0x0
 6524 0100 03        		.uleb128 0x3
 6525 0101 0E        		.uleb128 0xe
 6526 0102 3A        		.uleb128 0x3a
 6527 0103 0B        		.uleb128 0xb
 6528 0104 3B        		.uleb128 0x3b
 6529 0105 05        		.uleb128 0x5
 6530 0106 27        		.uleb128 0x27
 6531 0107 0C        		.uleb128 0xc
 6532 0108 20        		.uleb128 0x20
 6533 0109 0B        		.uleb128 0xb
 6534 010a 00        		.byte	0x0
 6535 010b 00        		.byte	0x0
 6536 010c 15        		.uleb128 0x15
 6537 010d 2E        		.uleb128 0x2e
 6538 010e 01        		.byte	0x1
 6539 010f 03        		.uleb128 0x3
 6540 0110 0E        		.uleb128 0xe
 6541 0111 3A        		.uleb128 0x3a
 6542 0112 0B        		.uleb128 0xb
 6543 0113 3B        		.uleb128 0x3b
 6544 0114 0B        		.uleb128 0xb
 6545 0115 27        		.uleb128 0x27
 6546 0116 0C        		.uleb128 0xc
 6547 0117 49        		.uleb128 0x49
 6548 0118 13        		.uleb128 0x13
 6549 0119 20        		.uleb128 0x20
 6550 011a 0B        		.uleb128 0xb
 6551 011b 01        		.uleb128 0x1
 6552 011c 13        		.uleb128 0x13
 6553 011d 00        		.byte	0x0
 6554 011e 00        		.byte	0x0
GAS LISTING C:\Users\ADMINI~1\AppData\Local\Temp/ccSP7hgy.s 			page 118


 6555 011f 16        		.uleb128 0x16
 6556 0120 0B        		.uleb128 0xb
 6557 0121 01        		.byte	0x1
 6558 0122 00        		.byte	0x0
 6559 0123 00        		.byte	0x0
 6560 0124 17        		.uleb128 0x17
 6561 0125 34        		.uleb128 0x34
 6562 0126 00        		.byte	0x0
 6563 0127 03        		.uleb128 0x3
 6564 0128 0E        		.uleb128 0xe
 6565 0129 3A        		.uleb128 0x3a
 6566 012a 0B        		.uleb128 0xb
 6567 012b 3B        		.uleb128 0x3b
 6568 012c 05        		.uleb128 0x5
 6569 012d 49        		.uleb128 0x49
 6570 012e 13        		.uleb128 0x13
 6571 012f 00        		.byte	0x0
 6572 0130 00        		.byte	0x0
 6573 0131 18        		.uleb128 0x18
 6574 0132 2E        		.uleb128 0x2e
 6575 0133 01        		.byte	0x1
 6576 0134 03        		.uleb128 0x3
 6577 0135 0E        		.uleb128 0xe
 6578 0136 3A        		.uleb128 0x3a
 6579 0137 0B        		.uleb128 0xb
 6580 0138 3B        		.uleb128 0x3b
 6581 0139 05        		.uleb128 0x5
 6582 013a 27        		.uleb128 0x27
 6583 013b 0C        		.uleb128 0xc
 6584 013c 49        		.uleb128 0x49
 6585 013d 13        		.uleb128 0x13
 6586 013e 20        		.uleb128 0x20
 6587 013f 0B        		.uleb128 0xb
 6588 0140 01        		.uleb128 0x1
 6589 0141 13        		.uleb128 0x13
 6590 0142 00        		.byte	0x0
 6591 0143 00        		.byte	0x0
 6592 0144 19        		.uleb128 0x19
 6593 0145 05        		.uleb128 0x5
 6594 0146 00        		.byte	0x0
 6595 0147 31        		.uleb128 0x31
 6596 0148 13        		.uleb128 0x13
 6597 0149 00        		.byte	0x0
 6598 014a 00        		.byte	0x0
 6599 014b 1A        		.uleb128 0x1a
 6600 014c 2E        		.uleb128 0x2e
 6601 014d 00        		.byte	0x0
 6602 014e 03        		.uleb128 0x3
 6603 014f 0E        		.uleb128 0xe
 6604 0150 3A        		.uleb128 0x3a
 6605 0151 0B        		.uleb128 0xb
 6606 0152 3B        		.uleb128 0x3b
 6607 0153 0B        		.uleb128 0xb
 6608 0154 27        		.uleb128 0x27
 6609 0155 0C        		.uleb128 0xc
 6610 0156 20        		.uleb128 0x20
 6611 0157 0B        		.uleb128 0xb
GAS LISTING C:\Users\ADMINI~1\AppData\Local\Temp/ccSP7hgy.s 			page 119


 6612 0158 00        		.byte	0x0
 6613 0159 00        		.byte	0x0
 6614 015a 1B        		.uleb128 0x1b
 6615 015b 2E        		.uleb128 0x2e
 6616 015c 00        		.byte	0x0
 6617 015d 31        		.uleb128 0x31
 6618 015e 13        		.uleb128 0x13
 6619 015f 11        		.uleb128 0x11
 6620 0160 01        		.uleb128 0x1
 6621 0161 12        		.uleb128 0x12
 6622 0162 01        		.uleb128 0x1
 6623 0163 40        		.uleb128 0x40
 6624 0164 0A        		.uleb128 0xa
 6625 0165 00        		.byte	0x0
 6626 0166 00        		.byte	0x0
 6627 0167 1C        		.uleb128 0x1c
 6628 0168 2E        		.uleb128 0x2e
 6629 0169 01        		.byte	0x1
 6630 016a 3F        		.uleb128 0x3f
 6631 016b 0C        		.uleb128 0xc
 6632 016c 03        		.uleb128 0x3
 6633 016d 0E        		.uleb128 0xe
 6634 016e 3A        		.uleb128 0x3a
 6635 016f 0B        		.uleb128 0xb
 6636 0170 3B        		.uleb128 0x3b
 6637 0171 0B        		.uleb128 0xb
 6638 0172 27        		.uleb128 0x27
 6639 0173 0C        		.uleb128 0xc
 6640 0174 11        		.uleb128 0x11
 6641 0175 01        		.uleb128 0x1
 6642 0176 12        		.uleb128 0x12
 6643 0177 01        		.uleb128 0x1
 6644 0178 40        		.uleb128 0x40
 6645 0179 0A        		.uleb128 0xa
 6646 017a 01        		.uleb128 0x1
 6647 017b 13        		.uleb128 0x13
 6648 017c 00        		.byte	0x0
 6649 017d 00        		.byte	0x0
 6650 017e 1D        		.uleb128 0x1d
 6651 017f 05        		.uleb128 0x5
 6652 0180 00        		.byte	0x0
 6653 0181 03        		.uleb128 0x3
 6654 0182 0E        		.uleb128 0xe
 6655 0183 3A        		.uleb128 0x3a
 6656 0184 0B        		.uleb128 0xb
 6657 0185 3B        		.uleb128 0x3b
 6658 0186 0B        		.uleb128 0xb
 6659 0187 49        		.uleb128 0x49
 6660 0188 13        		.uleb128 0x13
 6661 0189 02        		.uleb128 0x2
 6662 018a 06        		.uleb128 0x6
 6663 018b 00        		.byte	0x0
 6664 018c 00        		.byte	0x0
 6665 018d 1E        		.uleb128 0x1e
 6666 018e 2E        		.uleb128 0x2e
 6667 018f 00        		.byte	0x0
 6668 0190 3F        		.uleb128 0x3f
GAS LISTING C:\Users\ADMINI~1\AppData\Local\Temp/ccSP7hgy.s 			page 120


 6669 0191 0C        		.uleb128 0xc
 6670 0192 03        		.uleb128 0x3
 6671 0193 0E        		.uleb128 0xe
 6672 0194 3A        		.uleb128 0x3a
 6673 0195 0B        		.uleb128 0xb
 6674 0196 3B        		.uleb128 0x3b
 6675 0197 0B        		.uleb128 0xb
 6676 0198 27        		.uleb128 0x27
 6677 0199 0C        		.uleb128 0xc
 6678 019a 49        		.uleb128 0x49
 6679 019b 13        		.uleb128 0x13
 6680 019c 11        		.uleb128 0x11
 6681 019d 01        		.uleb128 0x1
 6682 019e 12        		.uleb128 0x12
 6683 019f 01        		.uleb128 0x1
 6684 01a0 40        		.uleb128 0x40
 6685 01a1 0A        		.uleb128 0xa
 6686 01a2 00        		.byte	0x0
 6687 01a3 00        		.byte	0x0
 6688 01a4 1F        		.uleb128 0x1f
 6689 01a5 2E        		.uleb128 0x2e
 6690 01a6 00        		.byte	0x0
 6691 01a7 3F        		.uleb128 0x3f
 6692 01a8 0C        		.uleb128 0xc
 6693 01a9 03        		.uleb128 0x3
 6694 01aa 0E        		.uleb128 0xe
 6695 01ab 3A        		.uleb128 0x3a
 6696 01ac 0B        		.uleb128 0xb
 6697 01ad 3B        		.uleb128 0x3b
 6698 01ae 0B        		.uleb128 0xb
 6699 01af 27        		.uleb128 0x27
 6700 01b0 0C        		.uleb128 0xc
 6701 01b1 11        		.uleb128 0x11
 6702 01b2 01        		.uleb128 0x1
 6703 01b3 12        		.uleb128 0x12
 6704 01b4 01        		.uleb128 0x1
 6705 01b5 40        		.uleb128 0x40
 6706 01b6 0A        		.uleb128 0xa
 6707 01b7 00        		.byte	0x0
 6708 01b8 00        		.byte	0x0
 6709 01b9 20        		.uleb128 0x20
 6710 01ba 2E        		.uleb128 0x2e
 6711 01bb 01        		.byte	0x1
 6712 01bc 31        		.uleb128 0x31
 6713 01bd 13        		.uleb128 0x13
 6714 01be 11        		.uleb128 0x11
 6715 01bf 01        		.uleb128 0x1
 6716 01c0 12        		.uleb128 0x12
 6717 01c1 01        		.uleb128 0x1
 6718 01c2 40        		.uleb128 0x40
 6719 01c3 0A        		.uleb128 0xa
 6720 01c4 01        		.uleb128 0x1
 6721 01c5 13        		.uleb128 0x13
 6722 01c6 00        		.byte	0x0
 6723 01c7 00        		.byte	0x0
 6724 01c8 21        		.uleb128 0x21
 6725 01c9 05        		.uleb128 0x5
GAS LISTING C:\Users\ADMINI~1\AppData\Local\Temp/ccSP7hgy.s 			page 121


 6726 01ca 00        		.byte	0x0
 6727 01cb 31        		.uleb128 0x31
 6728 01cc 13        		.uleb128 0x13
 6729 01cd 02        		.uleb128 0x2
 6730 01ce 06        		.uleb128 0x6
 6731 01cf 00        		.byte	0x0
 6732 01d0 00        		.byte	0x0
 6733 01d1 22        		.uleb128 0x22
 6734 01d2 1D        		.uleb128 0x1d
 6735 01d3 01        		.byte	0x1
 6736 01d4 31        		.uleb128 0x31
 6737 01d5 13        		.uleb128 0x13
 6738 01d6 11        		.uleb128 0x11
 6739 01d7 01        		.uleb128 0x1
 6740 01d8 12        		.uleb128 0x12
 6741 01d9 01        		.uleb128 0x1
 6742 01da 58        		.uleb128 0x58
 6743 01db 0B        		.uleb128 0xb
 6744 01dc 59        		.uleb128 0x59
 6745 01dd 05        		.uleb128 0x5
 6746 01de 00        		.byte	0x0
 6747 01df 00        		.byte	0x0
 6748 01e0 23        		.uleb128 0x23
 6749 01e1 2E        		.uleb128 0x2e
 6750 01e2 00        		.byte	0x0
 6751 01e3 03        		.uleb128 0x3
 6752 01e4 0E        		.uleb128 0xe
 6753 01e5 3A        		.uleb128 0x3a
 6754 01e6 0B        		.uleb128 0xb
 6755 01e7 3B        		.uleb128 0x3b
 6756 01e8 05        		.uleb128 0x5
 6757 01e9 27        		.uleb128 0x27
 6758 01ea 0C        		.uleb128 0xc
 6759 01eb 11        		.uleb128 0x11
 6760 01ec 01        		.uleb128 0x1
 6761 01ed 12        		.uleb128 0x12
 6762 01ee 01        		.uleb128 0x1
 6763 01ef 40        		.uleb128 0x40
 6764 01f0 0A        		.uleb128 0xa
 6765 01f1 00        		.byte	0x0
 6766 01f2 00        		.byte	0x0
 6767 01f3 24        		.uleb128 0x24
 6768 01f4 2E        		.uleb128 0x2e
 6769 01f5 00        		.byte	0x0
 6770 01f6 3F        		.uleb128 0x3f
 6771 01f7 0C        		.uleb128 0xc
 6772 01f8 03        		.uleb128 0x3
 6773 01f9 0E        		.uleb128 0xe
 6774 01fa 3A        		.uleb128 0x3a
 6775 01fb 0B        		.uleb128 0xb
 6776 01fc 3B        		.uleb128 0x3b
 6777 01fd 05        		.uleb128 0x5
 6778 01fe 27        		.uleb128 0x27
 6779 01ff 0C        		.uleb128 0xc
 6780 0200 11        		.uleb128 0x11
 6781 0201 01        		.uleb128 0x1
 6782 0202 12        		.uleb128 0x12
GAS LISTING C:\Users\ADMINI~1\AppData\Local\Temp/ccSP7hgy.s 			page 122


 6783 0203 01        		.uleb128 0x1
 6784 0204 40        		.uleb128 0x40
 6785 0205 0A        		.uleb128 0xa
 6786 0206 00        		.byte	0x0
 6787 0207 00        		.byte	0x0
 6788 0208 25        		.uleb128 0x25
 6789 0209 2E        		.uleb128 0x2e
 6790 020a 01        		.byte	0x1
 6791 020b 03        		.uleb128 0x3
 6792 020c 0E        		.uleb128 0xe
 6793 020d 3A        		.uleb128 0x3a
 6794 020e 0B        		.uleb128 0xb
 6795 020f 3B        		.uleb128 0x3b
 6796 0210 05        		.uleb128 0x5
 6797 0211 27        		.uleb128 0x27
 6798 0212 0C        		.uleb128 0xc
 6799 0213 11        		.uleb128 0x11
 6800 0214 01        		.uleb128 0x1
 6801 0215 12        		.uleb128 0x12
 6802 0216 01        		.uleb128 0x1
 6803 0217 40        		.uleb128 0x40
 6804 0218 0A        		.uleb128 0xa
 6805 0219 01        		.uleb128 0x1
 6806 021a 13        		.uleb128 0x13
 6807 021b 00        		.byte	0x0
 6808 021c 00        		.byte	0x0
 6809 021d 26        		.uleb128 0x26
 6810 021e 05        		.uleb128 0x5
 6811 021f 00        		.byte	0x0
 6812 0220 03        		.uleb128 0x3
 6813 0221 0E        		.uleb128 0xe
 6814 0222 3A        		.uleb128 0x3a
 6815 0223 0B        		.uleb128 0xb
 6816 0224 3B        		.uleb128 0x3b
 6817 0225 05        		.uleb128 0x5
 6818 0226 49        		.uleb128 0x49
 6819 0227 13        		.uleb128 0x13
 6820 0228 02        		.uleb128 0x2
 6821 0229 06        		.uleb128 0x6
 6822 022a 00        		.byte	0x0
 6823 022b 00        		.byte	0x0
 6824 022c 27        		.uleb128 0x27
 6825 022d 34        		.uleb128 0x34
 6826 022e 00        		.byte	0x0
 6827 022f 03        		.uleb128 0x3
 6828 0230 08        		.uleb128 0x8
 6829 0231 3A        		.uleb128 0x3a
 6830 0232 0B        		.uleb128 0xb
 6831 0233 3B        		.uleb128 0x3b
 6832 0234 05        		.uleb128 0x5
 6833 0235 49        		.uleb128 0x49
 6834 0236 13        		.uleb128 0x13
 6835 0237 00        		.byte	0x0
 6836 0238 00        		.byte	0x0
 6837 0239 28        		.uleb128 0x28
 6838 023a 05        		.uleb128 0x5
 6839 023b 00        		.byte	0x0
GAS LISTING C:\Users\ADMINI~1\AppData\Local\Temp/ccSP7hgy.s 			page 123


 6840 023c 03        		.uleb128 0x3
 6841 023d 08        		.uleb128 0x8
 6842 023e 3A        		.uleb128 0x3a
 6843 023f 0B        		.uleb128 0xb
 6844 0240 3B        		.uleb128 0x3b
 6845 0241 05        		.uleb128 0x5
 6846 0242 49        		.uleb128 0x49
 6847 0243 13        		.uleb128 0x13
 6848 0244 02        		.uleb128 0x2
 6849 0245 06        		.uleb128 0x6
 6850 0246 00        		.byte	0x0
 6851 0247 00        		.byte	0x0
 6852 0248 29        		.uleb128 0x29
 6853 0249 34        		.uleb128 0x34
 6854 024a 00        		.byte	0x0
 6855 024b 03        		.uleb128 0x3
 6856 024c 08        		.uleb128 0x8
 6857 024d 3A        		.uleb128 0x3a
 6858 024e 0B        		.uleb128 0xb
 6859 024f 3B        		.uleb128 0x3b
 6860 0250 05        		.uleb128 0x5
 6861 0251 49        		.uleb128 0x49
 6862 0252 13        		.uleb128 0x13
 6863 0253 02        		.uleb128 0x2
 6864 0254 06        		.uleb128 0x6
 6865 0255 00        		.byte	0x0
 6866 0256 00        		.byte	0x0
 6867 0257 2A        		.uleb128 0x2a
 6868 0258 34        		.uleb128 0x34
 6869 0259 00        		.byte	0x0
 6870 025a 03        		.uleb128 0x3
 6871 025b 0E        		.uleb128 0xe
 6872 025c 3A        		.uleb128 0x3a
 6873 025d 0B        		.uleb128 0xb
 6874 025e 3B        		.uleb128 0x3b
 6875 025f 05        		.uleb128 0x5
 6876 0260 49        		.uleb128 0x49
 6877 0261 13        		.uleb128 0x13
 6878 0262 02        		.uleb128 0x2
 6879 0263 0A        		.uleb128 0xa
 6880 0264 00        		.byte	0x0
 6881 0265 00        		.byte	0x0
 6882 0266 2B        		.uleb128 0x2b
 6883 0267 0B        		.uleb128 0xb
 6884 0268 01        		.byte	0x1
 6885 0269 11        		.uleb128 0x11
 6886 026a 01        		.uleb128 0x1
 6887 026b 12        		.uleb128 0x12
 6888 026c 01        		.uleb128 0x1
 6889 026d 00        		.byte	0x0
 6890 026e 00        		.byte	0x0
 6891 026f 2C        		.uleb128 0x2c
 6892 0270 34        		.uleb128 0x34
 6893 0271 00        		.byte	0x0
 6894 0272 03        		.uleb128 0x3
 6895 0273 0E        		.uleb128 0xe
 6896 0274 3A        		.uleb128 0x3a
GAS LISTING C:\Users\ADMINI~1\AppData\Local\Temp/ccSP7hgy.s 			page 124


 6897 0275 0B        		.uleb128 0xb
 6898 0276 3B        		.uleb128 0x3b
 6899 0277 05        		.uleb128 0x5
 6900 0278 49        		.uleb128 0x49
 6901 0279 13        		.uleb128 0x13
 6902 027a 02        		.uleb128 0x2
 6903 027b 06        		.uleb128 0x6
 6904 027c 00        		.byte	0x0
 6905 027d 00        		.byte	0x0
 6906 027e 2D        		.uleb128 0x2d
 6907 027f 26        		.uleb128 0x26
 6908 0280 00        		.byte	0x0
 6909 0281 49        		.uleb128 0x49
 6910 0282 13        		.uleb128 0x13
 6911 0283 00        		.byte	0x0
 6912 0284 00        		.byte	0x0
 6913 0285 2E        		.uleb128 0x2e
 6914 0286 01        		.uleb128 0x1
 6915 0287 01        		.byte	0x1
 6916 0288 49        		.uleb128 0x49
 6917 0289 13        		.uleb128 0x13
 6918 028a 01        		.uleb128 0x1
 6919 028b 13        		.uleb128 0x13
 6920 028c 00        		.byte	0x0
 6921 028d 00        		.byte	0x0
 6922 028e 2F        		.uleb128 0x2f
 6923 028f 21        		.uleb128 0x21
 6924 0290 00        		.byte	0x0
 6925 0291 49        		.uleb128 0x49
 6926 0292 13        		.uleb128 0x13
 6927 0293 2F        		.uleb128 0x2f
 6928 0294 0B        		.uleb128 0xb
 6929 0295 00        		.byte	0x0
 6930 0296 00        		.byte	0x0
 6931 0297 30        		.uleb128 0x30
 6932 0298 2E        		.uleb128 0x2e
 6933 0299 01        		.byte	0x1
 6934 029a 3F        		.uleb128 0x3f
 6935 029b 0C        		.uleb128 0xc
 6936 029c 03        		.uleb128 0x3
 6937 029d 0E        		.uleb128 0xe
 6938 029e 3A        		.uleb128 0x3a
 6939 029f 0B        		.uleb128 0xb
 6940 02a0 3B        		.uleb128 0x3b
 6941 02a1 05        		.uleb128 0x5
 6942 02a2 27        		.uleb128 0x27
 6943 02a3 0C        		.uleb128 0xc
 6944 02a4 11        		.uleb128 0x11
 6945 02a5 01        		.uleb128 0x1
 6946 02a6 12        		.uleb128 0x12
 6947 02a7 01        		.uleb128 0x1
 6948 02a8 40        		.uleb128 0x40
 6949 02a9 0A        		.uleb128 0xa
 6950 02aa 01        		.uleb128 0x1
 6951 02ab 13        		.uleb128 0x13
 6952 02ac 00        		.byte	0x0
 6953 02ad 00        		.byte	0x0
GAS LISTING C:\Users\ADMINI~1\AppData\Local\Temp/ccSP7hgy.s 			page 125


 6954 02ae 31        		.uleb128 0x31
 6955 02af 1D        		.uleb128 0x1d
 6956 02b0 00        		.byte	0x0
 6957 02b1 31        		.uleb128 0x31
 6958 02b2 13        		.uleb128 0x13
 6959 02b3 11        		.uleb128 0x11
 6960 02b4 01        		.uleb128 0x1
 6961 02b5 12        		.uleb128 0x12
 6962 02b6 01        		.uleb128 0x1
 6963 02b7 58        		.uleb128 0x58
 6964 02b8 0B        		.uleb128 0xb
 6965 02b9 59        		.uleb128 0x59
 6966 02ba 05        		.uleb128 0x5
 6967 02bb 00        		.byte	0x0
 6968 02bc 00        		.byte	0x0
 6969 02bd 32        		.uleb128 0x32
 6970 02be 34        		.uleb128 0x34
 6971 02bf 00        		.byte	0x0
 6972 02c0 31        		.uleb128 0x31
 6973 02c1 13        		.uleb128 0x13
 6974 02c2 02        		.uleb128 0x2
 6975 02c3 0A        		.uleb128 0xa
 6976 02c4 00        		.byte	0x0
 6977 02c5 00        		.byte	0x0
 6978 02c6 33        		.uleb128 0x33
 6979 02c7 34        		.uleb128 0x34
 6980 02c8 00        		.byte	0x0
 6981 02c9 31        		.uleb128 0x31
 6982 02ca 13        		.uleb128 0x13
 6983 02cb 00        		.byte	0x0
 6984 02cc 00        		.byte	0x0
 6985 02cd 34        		.uleb128 0x34
 6986 02ce 1D        		.uleb128 0x1d
 6987 02cf 01        		.byte	0x1
 6988 02d0 31        		.uleb128 0x31
 6989 02d1 13        		.uleb128 0x13
 6990 02d2 11        		.uleb128 0x11
 6991 02d3 01        		.uleb128 0x1
 6992 02d4 12        		.uleb128 0x12
 6993 02d5 01        		.uleb128 0x1
 6994 02d6 58        		.uleb128 0x58
 6995 02d7 0B        		.uleb128 0xb
 6996 02d8 59        		.uleb128 0x59
 6997 02d9 0B        		.uleb128 0xb
 6998 02da 00        		.byte	0x0
 6999 02db 00        		.byte	0x0
 7000 02dc 35        		.uleb128 0x35
 7001 02dd 05        		.uleb128 0x5
 7002 02de 00        		.byte	0x0
 7003 02df 31        		.uleb128 0x31
 7004 02e0 13        		.uleb128 0x13
 7005 02e1 02        		.uleb128 0x2
 7006 02e2 0A        		.uleb128 0xa
 7007 02e3 00        		.byte	0x0
 7008 02e4 00        		.byte	0x0
 7009 02e5 36        		.uleb128 0x36
 7010 02e6 1D        		.uleb128 0x1d
GAS LISTING C:\Users\ADMINI~1\AppData\Local\Temp/ccSP7hgy.s 			page 126


 7011 02e7 01        		.byte	0x1
 7012 02e8 31        		.uleb128 0x31
 7013 02e9 13        		.uleb128 0x13
 7014 02ea 11        		.uleb128 0x11
 7015 02eb 01        		.uleb128 0x1
 7016 02ec 12        		.uleb128 0x12
 7017 02ed 01        		.uleb128 0x1
 7018 02ee 58        		.uleb128 0x58
 7019 02ef 0B        		.uleb128 0xb
 7020 02f0 59        		.uleb128 0x59
 7021 02f1 05        		.uleb128 0x5
 7022 02f2 01        		.uleb128 0x1
 7023 02f3 13        		.uleb128 0x13
 7024 02f4 00        		.byte	0x0
 7025 02f5 00        		.byte	0x0
 7026 02f6 37        		.uleb128 0x37
 7027 02f7 34        		.uleb128 0x34
 7028 02f8 00        		.byte	0x0
 7029 02f9 31        		.uleb128 0x31
 7030 02fa 13        		.uleb128 0x13
 7031 02fb 02        		.uleb128 0x2
 7032 02fc 06        		.uleb128 0x6
 7033 02fd 00        		.byte	0x0
 7034 02fe 00        		.byte	0x0
 7035 02ff 38        		.uleb128 0x38
 7036 0300 2E        		.uleb128 0x2e
 7037 0301 01        		.byte	0x1
 7038 0302 3F        		.uleb128 0x3f
 7039 0303 0C        		.uleb128 0xc
 7040 0304 03        		.uleb128 0x3
 7041 0305 0E        		.uleb128 0xe
 7042 0306 3A        		.uleb128 0x3a
 7043 0307 0B        		.uleb128 0xb
 7044 0308 3B        		.uleb128 0x3b
 7045 0309 05        		.uleb128 0x5
 7046 030a 27        		.uleb128 0x27
 7047 030b 0C        		.uleb128 0xc
 7048 030c 49        		.uleb128 0x49
 7049 030d 13        		.uleb128 0x13
 7050 030e 11        		.uleb128 0x11
 7051 030f 01        		.uleb128 0x1
 7052 0310 12        		.uleb128 0x12
 7053 0311 01        		.uleb128 0x1
 7054 0312 40        		.uleb128 0x40
 7055 0313 0A        		.uleb128 0xa
 7056 0314 01        		.uleb128 0x1
 7057 0315 13        		.uleb128 0x13
 7058 0316 00        		.byte	0x0
 7059 0317 00        		.byte	0x0
 7060 0318 39        		.uleb128 0x39
 7061 0319 1D        		.uleb128 0x1d
 7062 031a 00        		.byte	0x0
 7063 031b 31        		.uleb128 0x31
 7064 031c 13        		.uleb128 0x13
 7065 031d 11        		.uleb128 0x11
 7066 031e 01        		.uleb128 0x1
 7067 031f 12        		.uleb128 0x12
GAS LISTING C:\Users\ADMINI~1\AppData\Local\Temp/ccSP7hgy.s 			page 127


 7068 0320 01        		.uleb128 0x1
 7069 0321 58        		.uleb128 0x58
 7070 0322 0B        		.uleb128 0xb
 7071 0323 59        		.uleb128 0x59
 7072 0324 0B        		.uleb128 0xb
 7073 0325 00        		.byte	0x0
 7074 0326 00        		.byte	0x0
 7075 0327 3A        		.uleb128 0x3a
 7076 0328 34        		.uleb128 0x34
 7077 0329 00        		.byte	0x0
 7078 032a 03        		.uleb128 0x3
 7079 032b 0E        		.uleb128 0xe
 7080 032c 3A        		.uleb128 0x3a
 7081 032d 0B        		.uleb128 0xb
 7082 032e 3B        		.uleb128 0x3b
 7083 032f 0B        		.uleb128 0xb
 7084 0330 49        		.uleb128 0x49
 7085 0331 13        		.uleb128 0x13
 7086 0332 02        		.uleb128 0x2
 7087 0333 0A        		.uleb128 0xa
 7088 0334 00        		.byte	0x0
 7089 0335 00        		.byte	0x0
 7090 0336 3B        		.uleb128 0x3b
 7091 0337 34        		.uleb128 0x34
 7092 0338 00        		.byte	0x0
 7093 0339 03        		.uleb128 0x3
 7094 033a 0E        		.uleb128 0xe
 7095 033b 3A        		.uleb128 0x3a
 7096 033c 0B        		.uleb128 0xb
 7097 033d 3B        		.uleb128 0x3b
 7098 033e 0B        		.uleb128 0xb
 7099 033f 49        		.uleb128 0x49
 7100 0340 13        		.uleb128 0x13
 7101 0341 3F        		.uleb128 0x3f
 7102 0342 0C        		.uleb128 0xc
 7103 0343 3C        		.uleb128 0x3c
 7104 0344 0C        		.uleb128 0xc
 7105 0345 00        		.byte	0x0
 7106 0346 00        		.byte	0x0
 7107 0347 3C        		.uleb128 0x3c
 7108 0348 34        		.uleb128 0x34
 7109 0349 00        		.byte	0x0
 7110 034a 03        		.uleb128 0x3
 7111 034b 0E        		.uleb128 0xe
 7112 034c 3A        		.uleb128 0x3a
 7113 034d 0B        		.uleb128 0xb
 7114 034e 3B        		.uleb128 0x3b
 7115 034f 0B        		.uleb128 0xb
 7116 0350 49        		.uleb128 0x49
 7117 0351 13        		.uleb128 0x13
 7118 0352 3F        		.uleb128 0x3f
 7119 0353 0C        		.uleb128 0xc
 7120 0354 02        		.uleb128 0x2
 7121 0355 0A        		.uleb128 0xa
 7122 0356 00        		.byte	0x0
 7123 0357 00        		.byte	0x0
 7124 0358 00        		.byte	0x0
GAS LISTING C:\Users\ADMINI~1\AppData\Local\Temp/ccSP7hgy.s 			page 128


 7125               		.section	.debug_pubnames,"",@progbits
 7126 0000 3306 0000 		.long	0x633
 7127 0004 0200      		.word	0x2
 7128 0006 0000 0000 		.long	.Ldebug_info0
 7129 000a 3116 0000 		.long	0x1631
 7130 000e B306 0000 		.long	0x6b3
 7131 0012 7365 7457 		.string	"setWillStartKeyMapping"
 7131      696C 6C53 
 7131      7461 7274 
 7131      4B65 794D 
 7131      6170 7069 
 7132 0029 C306 0000 		.long	0x6c3
 7133 002d 6973 4B65 		.string	"isKeyMapping"
 7133      794D 6170 
 7133      7069 6E67 
 7133      00
 7134 003a D306 0000 		.long	0x6d3
 7135 003e 6973 4465 		.string	"isDeepKeyMapping"
 7135      6570 4B65 
 7135      794D 6170 
 7135      7069 6E67 
 7135      00
 7136 004f E306 0000 		.long	0x6e3
 7137 0053 6170 706C 		.string	"applyKeyMapping"
 7137      794B 6579 
 7137      4D61 7070 
 7137      696E 6700 
 7138 0063 0B07 0000 		.long	0x70b
 7139 0067 6973 5265 		.string	"isReadyKeyMappingOnBoot"
 7139      6164 794B 
 7139      6579 4D61 
 7139      7070 696E 
 7139      674F 6E42 
 7140 007f 2307 0000 		.long	0x723
 7141 0083 7265 6164 		.string	"readyKeyMappingOnBoot"
 7141      794B 6579 
 7141      4D61 7070 
 7141      696E 674F 
 7141      6E42 6F6F 
 7142 0099 3707 0000 		.long	0x737
 7143 009d 7374 6F70 		.string	"stopKeyMapping"
 7143      4B65 794D 
 7143      6170 7069 
 7143      6E67 00
 7144 00ac 4707 0000 		.long	0x747
 7145 00b0 6973 4D61 		.string	"isMacroKey"
 7145      6372 6F4B 
 7145      6579 00
 7146 00bb 6507 0000 		.long	0x765
 7147 00bf 6573 6361 		.string	"escapeMacroKeycode"
 7147      7065 4D61 
 7147      6372 6F4B 
 7147      6579 636F 
 7147      6465 00
 7148 00d2 AD07 0000 		.long	0x7ad
 7149 00d6 7265 7365 		.string	"resetMacroInput"
 7149      744D 6163 
GAS LISTING C:\Users\ADMINI~1\AppData\Local\Temp/ccSP7hgy.s 			page 129


 7149      726F 496E 
 7149      7075 7400 
 7150 00e6 8508 0000 		.long	0x885
 7151 00ea 7265 7365 		.string	"resetCurrentLayer"
 7151      7443 7572 
 7151      7265 6E74 
 7151      4C61 7965 
 7151      7200 
 7152 00fc B308 0000 		.long	0x8b3
 7153 0100 636C 6561 		.string	"clearMacro"
 7153      724D 6163 
 7153      726F 00
 7154 010b C808 0000 		.long	0x8c8
 7155 010f 7361 7665 		.string	"saveCurrentLayer"
 7155      4375 7272 
 7155      656E 744C 
 7155      6179 6572 
 7155      00
 7156 0120 F208 0000 		.long	0x8f2
 7157 0124 7072 696E 		.string	"printPrepareString"
 7157      7450 7265 
 7157      7061 7265 
 7157      5374 7269 
 7157      6E67 00
 7158 0137 0709 0000 		.long	0x907
 7159 013b 7072 696E 		.string	"printMacroMessage"
 7159      744D 6163 
 7159      726F 4D65 
 7159      7373 6167 
 7159      6500 
 7160 014d 1C09 0000 		.long	0x91c
 7161 0151 7072 696E 		.string	"printString"
 7161      7453 7472 
 7161      696E 6700 
 7162 015d D309 0000 		.long	0x9d3
 7163 0161 7072 696E 		.string	"printMapperMessageAfter"
 7163      744D 6170 
 7163      7065 724D 
 7163      6573 7361 
 7163      6765 4166 
 7164 0179 E809 0000 		.long	0x9e8
 7165 017d 7072 696E 		.string	"printSelectMode"
 7165      7453 656C 
 7165      6563 744D 
 7165      6F64 6500 
 7166 018d FD09 0000 		.long	0x9fd
 7167 0191 636C 6561 		.string	"clearMacroAfter"
 7167      724D 6163 
 7167      726F 4166 
 7167      7465 7200 
 7168 01a1 2D0A 0000 		.long	0xa2d
 7169 01a5 7361 7665 		.string	"saveMacro"
 7169      4D61 6372 
 7169      6F00 
 7170 01af 850A 0000 		.long	0xa85
 7171 01b3 7265 6164 		.string	"readMacro"
 7171      4D61 6372 
GAS LISTING C:\Users\ADMINI~1\AppData\Local\Temp/ccSP7hgy.s 			page 130


 7171      6F00 
 7172 01bd E10A 0000 		.long	0xae1
 7173 01c1 6C6F 6164 		.string	"loadCurrentLayer"
 7173      4375 7272 
 7173      656E 744C 
 7173      6179 6572 
 7173      00
 7174 01d2 1B0B 0000 		.long	0xb1b
 7175 01d6 7075 744B 		.string	"putKeyCode"
 7175      6579 436F 
 7175      6465 00
 7176 01e1 DE0C 0000 		.long	0xcde
 7177 01e5 7361 7665 		.string	"saveCurrentLayerAfter"
 7177      4375 7272 
 7177      656E 744C 
 7177      6179 6572 
 7177      4166 7465 
 7178 01fb 340D 0000 		.long	0xd34
 7179 01ff 7072 6570 		.string	"prepareKeyMapper"
 7179      6172 654B 
 7179      6579 4D61 
 7179      7070 6572 
 7179      00
 7180 0210 490D 0000 		.long	0xd49
 7181 0214 6765 7443 		.string	"getCurrentKeycode"
 7181      7572 7265 
 7181      6E74 4B65 
 7181      7963 6F64 
 7181      6500 
 7182 0226 FD0D 0000 		.long	0xdfd
 7183 022a 6170 706C 		.string	"applyMacro"
 7183      794D 6163 
 7183      726F 00
 7184 0235 4D0E 0000 		.long	0xe4d
 7185 0239 7374 6172 		.string	"startKeyMapping"
 7185      744B 6579 
 7185      4D61 7070 
 7185      696E 6700 
 7186 0249 840E 0000 		.long	0xe84
 7187 024d 7072 6570 		.string	"prepareKeyMapping"
 7187      6172 654B 
 7187      6579 4D61 
 7187      7070 696E 
 7187      6700 
 7188 025f AC0E 0000 		.long	0xeac
 7189 0263 636F 756E 		.string	"countKeyMappingEnabled"
 7189      744B 6579 
 7189      4D61 7070 
 7189      696E 6745 
 7189      6E61 626C 
 7190 027a C00E 0000 		.long	0xec0
 7191 027e 656E 7465 		.string	"enterFrameForMapper"
 7191      7246 7261 
 7191      6D65 466F 
 7191      724D 6170 
 7191      7065 7200 
 7192 0292 D40E 0000 		.long	0xed4
GAS LISTING C:\Users\ADMINI~1\AppData\Local\Temp/ccSP7hgy.s 			page 131


 7193 0296 7374 6172 		.string	"startKeyMappingOnBoot"
 7193      744B 6579 
 7193      4D61 7070 
 7193      696E 674F 
 7193      6E42 6F6F 
 7194 02ac 9710 0000 		.long	0x1097
 7195 02b0 7374 725F 		.string	"str_select_mode"
 7195      7365 6C65 
 7195      6374 5F6D 
 7195      6F64 6500 
 7196 02c0 BE10 0000 		.long	0x10be
 7197 02c4 7374 725F 		.string	"str_select_mode1"
 7197      7365 6C65 
 7197      6374 5F6D 
 7197      6F64 6531 
 7197      00
 7198 02d5 E510 0000 		.long	0x10e5
 7199 02d9 7374 725F 		.string	"str_select_mode2"
 7199      7365 6C65 
 7199      6374 5F6D 
 7199      6F64 6532 
 7199      00
 7200 02ea 0C11 0000 		.long	0x110c
 7201 02ee 7374 725F 		.string	"str_select_mode3"
 7201      7365 6C65 
 7201      6374 5F6D 
 7201      6F64 6533 
 7201      00
 7202 02ff 2311 0000 		.long	0x1123
 7203 0303 7374 725F 		.string	"str_select_mode4"
 7203      7365 6C65 
 7203      6374 5F6D 
 7203      6F64 6534 
 7203      00
 7204 0314 4A11 0000 		.long	0x114a
 7205 0318 7374 725F 		.string	"str_exit"
 7205      6578 6974 
 7205      00
 7206 0321 7111 0000 		.long	0x1171
 7207 0325 7374 725F 		.string	"str_boot_mapper"
 7207      626F 6F74 
 7207      5F6D 6170 
 7207      7065 7200 
 7208 0335 9811 0000 		.long	0x1198
 7209 0339 7374 725F 		.string	"str_macro_message"
 7209      6D61 6372 
 7209      6F5F 6D65 
 7209      7373 6167 
 7209      6500 
 7210 034b BF11 0000 		.long	0x11bf
 7211 034f 7374 725F 		.string	"str_macro_1"
 7211      6D61 6372 
 7211      6F5F 3100 
 7212 035b D611 0000 		.long	0x11d6
 7213 035f 7374 725F 		.string	"str_macro_2"
 7213      6D61 6372 
 7213      6F5F 3200 
GAS LISTING C:\Users\ADMINI~1\AppData\Local\Temp/ccSP7hgy.s 			page 132


 7214 036b ED11 0000 		.long	0x11ed
 7215 036f 7374 725F 		.string	"str_macro_9"
 7215      6D61 6372 
 7215      6F5F 3900 
 7216 037b 0412 0000 		.long	0x1204
 7217 037f 7374 725F 		.string	"str_back_6"
 7217      6261 636B 
 7217      5F36 00
 7218 038a 2B12 0000 		.long	0x122b
 7219 038e 7374 725F 		.string	"str_mapper_message"
 7219      6D61 7070 
 7219      6572 5F6D 
 7219      6573 7361 
 7219      6765 00
 7220 03a1 5212 0000 		.long	0x1252
 7221 03a5 7374 725F 		.string	"str_mapper_1"
 7221      6D61 7070 
 7221      6572 5F31 
 7221      00
 7222 03b2 7912 0000 		.long	0x1279
 7223 03b6 7374 725F 		.string	"str_mapper_2"
 7223      6D61 7070 
 7223      6572 5F32 
 7223      00
 7224 03c3 A012 0000 		.long	0x12a0
 7225 03c7 7374 725F 		.string	"str_mapper_3"
 7225      6D61 7070 
 7225      6572 5F33 
 7225      00
 7226 03d4 C712 0000 		.long	0x12c7
 7227 03d8 7374 725F 		.string	"str_mapper_4"
 7227      6D61 7070 
 7227      6572 5F34 
 7227      00
 7228 03e5 EE12 0000 		.long	0x12ee
 7229 03e9 7374 725F 		.string	"str_mapper_9"
 7229      6D61 7070 
 7229      6572 5F39 
 7229      00
 7230 03f6 0513 0000 		.long	0x1305
 7231 03fa 7374 725F 		.string	"str_prepare_message"
 7231      7072 6570 
 7231      6172 655F 
 7231      6D65 7373 
 7231      6167 6500 
 7232 040e 2C13 0000 		.long	0x132c
 7233 0412 7374 725F 		.string	"str_choose_layer"
 7233      6368 6F6F 
 7233      7365 5F6C 
 7233      6179 6572 
 7233      00
 7234 0423 5313 0000 		.long	0x1353
 7235 0427 7374 725F 		.string	"str_choose_key"
 7235      6368 6F6F 
 7235      7365 5F6B 
 7235      6579 00
 7236 0436 7A13 0000 		.long	0x137a
GAS LISTING C:\Users\ADMINI~1\AppData\Local\Temp/ccSP7hgy.s 			page 133


 7237 043a 7374 725F 		.string	"str_input_keycode"
 7237      696E 7075 
 7237      745F 6B65 
 7237      7963 6F64 
 7237      6500 
 7238 044c A113 0000 		.long	0x13a1
 7239 0450 7374 725F 		.string	"str_save_end_mapping"
 7239      7361 7665 
 7239      5F65 6E64 
 7239      5F6D 6170 
 7239      7069 6E67 
 7240 0465 C813 0000 		.long	0x13c8
 7241 0469 7374 725F 		.string	"str_cancel_mapping"
 7241      6361 6E63 
 7241      656C 5F6D 
 7241      6170 7069 
 7241      6E67 00
 7242 047c DF13 0000 		.long	0x13df
 7243 0480 7374 725F 		.string	"str_reset_mapping"
 7243      7265 7365 
 7243      745F 6D61 
 7243      7070 696E 
 7243      6700 
 7244 0492 0614 0000 		.long	0x1406
 7245 0496 7374 725F 		.string	"str_input_command"
 7245      696E 7075 
 7245      745F 636F 
 7245      6D6D 616E 
 7245      6400 
 7246 04a8 1D14 0000 		.long	0x141d
 7247 04ac 7374 725F 		.string	"str_nothing"
 7247      6E6F 7468 
 7247      696E 6700 
 7248 04b8 3414 0000 		.long	0x1434
 7249 04bc 7374 725F 		.string	"str_save_layer"
 7249      7361 7665 
 7249      5F6C 6179 
 7249      6572 00
 7250 04cb 4B14 0000 		.long	0x144b
 7251 04cf 7374 725F 		.string	"str_load_layer"
 7251      6C6F 6164 
 7251      5F6C 6179 
 7251      6572 00
 7252 04de 6214 0000 		.long	0x1462
 7253 04e2 7374 725F 		.string	"str_saving"
 7253      7361 7669 
 7253      6E67 00
 7254 04ed 7914 0000 		.long	0x1479
 7255 04f1 7374 725F 		.string	"str_col_row"
 7255      636F 6C5F 
 7255      726F 7700 
 7256 04fd A014 0000 		.long	0x14a0
 7257 0501 7374 725F 		.string	"str_invalid_keycode"
 7257      696E 7661 
 7257      6C69 645F 
 7257      6B65 7963 
 7257      6F64 6500 
GAS LISTING C:\Users\ADMINI~1\AppData\Local\Temp/ccSP7hgy.s 			page 134


 7258 0515 C714 0000 		.long	0x14c7
 7259 0519 7374 725F 		.string	"str_select_number"
 7259      7365 6C65 
 7259      6374 5F6E 
 7259      756D 6265 
 7259      7200 
 7260 052b EE14 0000 		.long	0x14ee
 7261 052f 7374 725F 		.string	"str_exit_macro"
 7261      6578 6974 
 7261      5F6D 6163 
 7261      726F 00
 7262 053e 1515 0000 		.long	0x1515
 7263 0542 7374 725F 		.string	"str_input_macro"
 7263      696E 7075 
 7263      745F 6D61 
 7263      6372 6F00 
 7264 0552 3C15 0000 		.long	0x153c
 7265 0556 7374 725F 		.string	"str_invalid_macro_number"
 7265      696E 7661 
 7265      6C69 645F 
 7265      6D61 6372 
 7265      6F5F 6E75 
 7266 056f 6315 0000 		.long	0x1563
 7267 0573 7374 725F 		.string	"str_clear_all_macro"
 7267      636C 6561 
 7267      725F 616C 
 7267      6C5F 6D61 
 7267      6372 6F00 
 7268 0587 7A15 0000 		.long	0x157a
 7269 058b 5F6D 6163 		.string	"_macroIndex"
 7269      726F 496E 
 7269      6465 7800 
 7270 0597 8C15 0000 		.long	0x158c
 7271 059b 5F6D 6163 		.string	"_macroBufferIndex"
 7271      726F 4275 
 7271      6666 6572 
 7271      496E 6465 
 7271      7800 
 7272 05ad AE15 0000 		.long	0x15ae
 7273 05b1 5F6D 6163 		.string	"_macroPressedBuffer"
 7273      726F 5072 
 7273      6573 7365 
 7273      6442 7566 
 7273      6665 7200 
 7274 05c5 C015 0000 		.long	0x15c0
 7275 05c9 5F6D 6163 		.string	"_macroInputBuffer"
 7275      726F 496E 
 7275      7075 7442 
 7275      7566 6665 
 7275      7200 
 7276 05db D215 0000 		.long	0x15d2
 7277 05df 5F70 7265 		.string	"_pressedEscapeKeyCount"
 7277      7373 6564 
 7277      4573 6361 
 7277      7065 4B65 
 7277      7943 6F75 
 7278 05f6 E415 0000 		.long	0x15e4
GAS LISTING C:\Users\ADMINI~1\AppData\Local\Temp/ccSP7hgy.s 			page 135


 7279 05fa 5F69 7350 		.string	"_isPressedEscapeKey"
 7279      7265 7373 
 7279      6564 4573 
 7279      6361 7065 
 7279      4B65 7900 
 7280 060e F615 0000 		.long	0x15f6
 7281 0612 5F69 7354 		.string	"_isTiredEscapeKey"
 7281      6972 6564 
 7281      4573 6361 
 7281      7065 4B65 
 7281      7900 
 7282 0624 1E16 0000 		.long	0x161e
 7283 0628 5F6E 6577 		.string	"_newKeyMap"
 7283      4B65 794D 
 7283      6170 00
 7284 0633 0000 0000 		.long	0x0
 7285               		.section	.debug_aranges,"",@progbits
 7286 0000 1C00 0000 		.long	0x1c
 7287 0004 0200      		.word	0x2
 7288 0006 0000 0000 		.long	.Ldebug_info0
 7289 000a 04        		.byte	0x4
 7290 000b 00        		.byte	0x0
 7291 000c 0000      		.word	0x0
 7292 000e 0000      		.word	0x0
 7293 0010 0000 0000 		.long	.Ltext0
 7294 0014 0E0E 0000 		.long	.Letext0-.Ltext0
 7295 0018 0000 0000 		.long	0x0
 7296 001c 0000 0000 		.long	0x0
 7297               		.section	.debug_line
 7298 0000 D40E 0000 		.long	.LELT0-.LSLT0
 7299               	.LSLT0:
 7300 0004 0200      		.word	0x2
 7301 0006 DF00 0000 		.long	.LELTP0-.LASLTP0
 7302               	.LASLTP0:
 7303 000a 01        		.byte	0x1
 7304 000b 01        		.byte	0x1
 7305 000c F6        		.byte	0xf6
 7306 000d F5        		.byte	0xf5
 7307 000e 0A        		.byte	0xa
 7308 000f 00        		.byte	0x0
 7309 0010 01        		.byte	0x1
 7310 0011 01        		.byte	0x1
 7311 0012 01        		.byte	0x1
 7312 0013 01        		.byte	0x1
 7313 0014 00        		.byte	0x0
 7314 0015 00        		.byte	0x0
 7315 0016 00        		.byte	0x0
 7316 0017 01        		.byte	0x1
 7317 0018 633A 2F77 		.ascii	"c:/winavr-20100110/lib/gcc/../../avr/include"
 7317      696E 6176 
 7317      722D 3230 
 7317      3130 3031 
 7317      3130 2F6C 
 7318 0044 00        		.byte	0
 7319 0045 633A 2F77 		.ascii	"c:/winavr-20100110/lib/gcc/../../avr/include/util"
 7319      696E 6176 
 7319      722D 3230 
GAS LISTING C:\Users\ADMINI~1\AppData\Local\Temp/ccSP7hgy.s 			page 136


 7319      3130 3031 
 7319      3130 2F6C 
 7320 0076 00        		.byte	0
 7321 0077 00        		.byte	0x0
 7322 0078 6B65 796D 		.string	"keymapper.c"
 7322      6170 7065 
 7322      722E 6300 
 7323 0084 00        		.uleb128 0x0
 7324 0085 00        		.uleb128 0x0
 7325 0086 00        		.uleb128 0x0
 7326 0087 7574 696C 		.string	"util/delay_basic.h"
 7326      2F64 656C 
 7326      6179 5F62 
 7326      6173 6963 
 7326      2E68 00
 7327 009a 01        		.uleb128 0x1
 7328 009b 00        		.uleb128 0x0
 7329 009c 00        		.uleb128 0x0
 7330 009d 7574 696C 		.string	"util/delay.h"
 7330      2F64 656C 
 7330      6179 2E68 
 7330      00
 7331 00aa 01        		.uleb128 0x1
 7332 00ab 00        		.uleb128 0x0
 7333 00ac 00        		.uleb128 0x0
 7334 00ad 7374 6469 		.string	"stdint.h"
 7334      6E74 2E68 
 7334      00
 7335 00b6 01        		.uleb128 0x1
 7336 00b7 00        		.uleb128 0x0
 7337 00b8 00        		.uleb128 0x0
 7338 00b9 6B65 796D 		.string	"keymap.h"
 7338      6170 2E68 
 7338      00
 7339 00c2 00        		.uleb128 0x0
 7340 00c3 00        		.uleb128 0x0
 7341 00c4 00        		.uleb128 0x0
 7342 00c5 6D61 6372 		.string	"macrobuffer.h"
 7342      6F62 7566 
 7342      6665 722E 
 7342      6800 
 7343 00d3 00        		.uleb128 0x0
 7344 00d4 00        		.uleb128 0x0
 7345 00d5 00        		.uleb128 0x0
 7346 00d6 6861 7264 		.string	"hardwareinfo.h"
 7346      7761 7265 
 7346      696E 666F 
 7346      2E68 00
 7347 00e5 00        		.uleb128 0x0
 7348 00e6 00        		.uleb128 0x0
 7349 00e7 00        		.uleb128 0x0
 7350 00e8 00        		.byte	0x0
 7351               	.LELTP0:
 7352 00e9 00        		.byte	0x0
 7353 00ea 05        		.uleb128 0x5
 7354 00eb 02        		.byte	0x2
 7355 00ec 0000 0000 		.long	.LM1
GAS LISTING C:\Users\ADMINI~1\AppData\Local\Temp/ccSP7hgy.s 			page 137


 7356 00f0 86        		.byte	0x86
 7357 00f1 00        		.byte	0x0
 7358 00f2 05        		.uleb128 0x5
 7359 00f3 02        		.byte	0x2
 7360 00f4 0000 0000 		.long	.LM2
 7361 00f8 15        		.byte	0x15
 7362 00f9 00        		.byte	0x0
 7363 00fa 05        		.uleb128 0x5
 7364 00fb 02        		.byte	0x2
 7365 00fc 0000 0000 		.long	.LM3
 7366 0100 15        		.byte	0x15
 7367 0101 00        		.byte	0x0
 7368 0102 05        		.uleb128 0x5
 7369 0103 02        		.byte	0x2
 7370 0104 0000 0000 		.long	.LM4
 7371 0108 16        		.byte	0x16
 7372 0109 00        		.byte	0x0
 7373 010a 05        		.uleb128 0x5
 7374 010b 02        		.byte	0x2
 7375 010c 0000 0000 		.long	.LM5
 7376 0110 01        		.byte	0x1
 7377 0111 00        		.byte	0x0
 7378 0112 05        		.uleb128 0x5
 7379 0113 02        		.byte	0x2
 7380 0114 0000 0000 		.long	.LM6
 7381 0118 16        		.byte	0x16
 7382 0119 00        		.byte	0x0
 7383 011a 05        		.uleb128 0x5
 7384 011b 02        		.byte	0x2
 7385 011c 0000 0000 		.long	.LM7
 7386 0120 15        		.byte	0x15
 7387 0121 00        		.byte	0x0
 7388 0122 05        		.uleb128 0x5
 7389 0123 02        		.byte	0x2
 7390 0124 0000 0000 		.long	.LM8
 7391 0128 01        		.byte	0x1
 7392 0129 00        		.byte	0x0
 7393 012a 05        		.uleb128 0x5
 7394 012b 02        		.byte	0x2
 7395 012c 0000 0000 		.long	.LM9
 7396 0130 16        		.byte	0x16
 7397 0131 00        		.byte	0x0
 7398 0132 05        		.uleb128 0x5
 7399 0133 02        		.byte	0x2
 7400 0134 0000 0000 		.long	.LM10
 7401 0138 16        		.byte	0x16
 7402 0139 00        		.byte	0x0
 7403 013a 05        		.uleb128 0x5
 7404 013b 02        		.byte	0x2
 7405 013c 0000 0000 		.long	.LM11
 7406 0140 15        		.byte	0x15
 7407 0141 00        		.byte	0x0
 7408 0142 05        		.uleb128 0x5
 7409 0143 02        		.byte	0x2
 7410 0144 0000 0000 		.long	.LM12
 7411 0148 18        		.byte	0x18
 7412 0149 00        		.byte	0x0
GAS LISTING C:\Users\ADMINI~1\AppData\Local\Temp/ccSP7hgy.s 			page 138


 7413 014a 05        		.uleb128 0x5
 7414 014b 02        		.byte	0x2
 7415 014c 0000 0000 		.long	.LM13
 7416 0150 15        		.byte	0x15
 7417 0151 00        		.byte	0x0
 7418 0152 05        		.uleb128 0x5
 7419 0153 02        		.byte	0x2
 7420 0154 0000 0000 		.long	.LM14
 7421 0158 15        		.byte	0x15
 7422 0159 00        		.byte	0x0
 7423 015a 05        		.uleb128 0x5
 7424 015b 02        		.byte	0x2
 7425 015c 0000 0000 		.long	.LM15
 7426 0160 16        		.byte	0x16
 7427 0161 00        		.byte	0x0
 7428 0162 05        		.uleb128 0x5
 7429 0163 02        		.byte	0x2
 7430 0164 0000 0000 		.long	.LM16
 7431 0168 15        		.byte	0x15
 7432 0169 00        		.byte	0x0
 7433 016a 05        		.uleb128 0x5
 7434 016b 02        		.byte	0x2
 7435 016c 0000 0000 		.long	.LM17
 7436 0170 17        		.byte	0x17
 7437 0171 00        		.byte	0x0
 7438 0172 05        		.uleb128 0x5
 7439 0173 02        		.byte	0x2
 7440 0174 0000 0000 		.long	.LM18
 7441 0178 15        		.byte	0x15
 7442 0179 00        		.byte	0x0
 7443 017a 05        		.uleb128 0x5
 7444 017b 02        		.byte	0x2
 7445 017c 0000 0000 		.long	.LM19
 7446 0180 31        		.byte	0x31
 7447 0181 00        		.byte	0x0
 7448 0182 05        		.uleb128 0x5
 7449 0183 02        		.byte	0x2
 7450 0184 0000 0000 		.long	.LM20
 7451 0188 16        		.byte	0x16
 7452 0189 00        		.byte	0x0
 7453 018a 05        		.uleb128 0x5
 7454 018b 02        		.byte	0x2
 7455 018c 0000 0000 		.long	.LM21
 7456 0190 18        		.byte	0x18
 7457 0191 00        		.byte	0x0
 7458 0192 05        		.uleb128 0x5
 7459 0193 02        		.byte	0x2
 7460 0194 0000 0000 		.long	.LM22
 7461 0198 15        		.byte	0x15
 7462 0199 00        		.byte	0x0
 7463 019a 05        		.uleb128 0x5
 7464 019b 02        		.byte	0x2
 7465 019c 0000 0000 		.long	.LM23
 7466 01a0 16        		.byte	0x16
 7467 01a1 00        		.byte	0x0
 7468 01a2 05        		.uleb128 0x5
 7469 01a3 02        		.byte	0x2
GAS LISTING C:\Users\ADMINI~1\AppData\Local\Temp/ccSP7hgy.s 			page 139


 7470 01a4 0000 0000 		.long	.LM24
 7471 01a8 33        		.byte	0x33
 7472 01a9 00        		.byte	0x0
 7473 01aa 05        		.uleb128 0x5
 7474 01ab 02        		.byte	0x2
 7475 01ac 0000 0000 		.long	.LM25
 7476 01b0 15        		.byte	0x15
 7477 01b1 00        		.byte	0x0
 7478 01b2 05        		.uleb128 0x5
 7479 01b3 02        		.byte	0x2
 7480 01b4 0000 0000 		.long	.LM26
 7481 01b8 15        		.byte	0x15
 7482 01b9 00        		.byte	0x0
 7483 01ba 05        		.uleb128 0x5
 7484 01bb 02        		.byte	0x2
 7485 01bc 0000 0000 		.long	.LM27
 7486 01c0 16        		.byte	0x16
 7487 01c1 00        		.byte	0x0
 7488 01c2 05        		.uleb128 0x5
 7489 01c3 02        		.byte	0x2
 7490 01c4 0000 0000 		.long	.LM28
 7491 01c8 4B        		.byte	0x4b
 7492 01c9 00        		.byte	0x0
 7493 01ca 05        		.uleb128 0x5
 7494 01cb 02        		.byte	0x2
 7495 01cc 0000 0000 		.long	.LM29
 7496 01d0 01        		.byte	0x1
 7497 01d1 00        		.byte	0x0
 7498 01d2 05        		.uleb128 0x5
 7499 01d3 02        		.byte	0x2
 7500 01d4 0000 0000 		.long	.LM30
 7501 01d8 1A        		.byte	0x1a
 7502 01d9 00        		.byte	0x0
 7503 01da 05        		.uleb128 0x5
 7504 01db 02        		.byte	0x2
 7505 01dc 0000 0000 		.long	.LM31
 7506 01e0 16        		.byte	0x16
 7507 01e1 00        		.byte	0x0
 7508 01e2 05        		.uleb128 0x5
 7509 01e3 02        		.byte	0x2
 7510 01e4 0000 0000 		.long	.LM32
 7511 01e8 0D        		.byte	0xd
 7512 01e9 00        		.byte	0x0
 7513 01ea 05        		.uleb128 0x5
 7514 01eb 02        		.byte	0x2
 7515 01ec 0000 0000 		.long	.LM33
 7516 01f0 20        		.byte	0x20
 7517 01f1 00        		.byte	0x0
 7518 01f2 05        		.uleb128 0x5
 7519 01f3 02        		.byte	0x2
 7520 01f4 0000 0000 		.long	.LM34
 7521 01f8 47        		.byte	0x47
 7522 01f9 00        		.byte	0x0
 7523 01fa 05        		.uleb128 0x5
 7524 01fb 02        		.byte	0x2
 7525 01fc 0000 0000 		.long	.LM35
 7526 0200 15        		.byte	0x15
GAS LISTING C:\Users\ADMINI~1\AppData\Local\Temp/ccSP7hgy.s 			page 140


 7527 0201 00        		.byte	0x0
 7528 0202 05        		.uleb128 0x5
 7529 0203 02        		.byte	0x2
 7530 0204 0000 0000 		.long	.LM36
 7531 0208 15        		.byte	0x15
 7532 0209 00        		.byte	0x0
 7533 020a 05        		.uleb128 0x5
 7534 020b 02        		.byte	0x2
 7535 020c 0000 0000 		.long	.LM37
 7536 0210 15        		.byte	0x15
 7537 0211 00        		.byte	0x0
 7538 0212 05        		.uleb128 0x5
 7539 0213 02        		.byte	0x2
 7540 0214 0000 0000 		.long	.LM38
 7541 0218 03        		.byte	0x3
 7542 0219 D302      		.sleb128 339
 7543 021b 01        		.byte	0x1
 7544 021c 00        		.byte	0x0
 7545 021d 05        		.uleb128 0x5
 7546 021e 02        		.byte	0x2
 7547 021f 0000 0000 		.long	.LM39
 7548 0223 15        		.byte	0x15
 7549 0224 00        		.byte	0x0
 7550 0225 05        		.uleb128 0x5
 7551 0226 02        		.byte	0x2
 7552 0227 0000 0000 		.long	.LM40
 7553 022b 15        		.byte	0x15
 7554 022c 00        		.byte	0x0
 7555 022d 05        		.uleb128 0x5
 7556 022e 02        		.byte	0x2
 7557 022f 0000 0000 		.long	.LM41
 7558 0233 15        		.byte	0x15
 7559 0234 00        		.byte	0x0
 7560 0235 05        		.uleb128 0x5
 7561 0236 02        		.byte	0x2
 7562 0237 0000 0000 		.long	.LM42
 7563 023b 15        		.byte	0x15
 7564 023c 00        		.byte	0x0
 7565 023d 05        		.uleb128 0x5
 7566 023e 02        		.byte	0x2
 7567 023f 0000 0000 		.long	.LM43
 7568 0243 15        		.byte	0x15
 7569 0244 00        		.byte	0x0
 7570 0245 05        		.uleb128 0x5
 7571 0246 02        		.byte	0x2
 7572 0247 0000 0000 		.long	.LM44
 7573 024b 03        		.byte	0x3
 7574 024c 927D      		.sleb128 -366
 7575 024e 01        		.byte	0x1
 7576 024f 00        		.byte	0x0
 7577 0250 05        		.uleb128 0x5
 7578 0251 02        		.byte	0x2
 7579 0252 0000 0000 		.long	.LM45
 7580 0256 18        		.byte	0x18
 7581 0257 00        		.byte	0x0
 7582 0258 05        		.uleb128 0x5
 7583 0259 02        		.byte	0x2
GAS LISTING C:\Users\ADMINI~1\AppData\Local\Temp/ccSP7hgy.s 			page 141


 7584 025a 0000 0000 		.long	.LM46
 7585 025e 15        		.byte	0x15
 7586 025f 00        		.byte	0x0
 7587 0260 05        		.uleb128 0x5
 7588 0261 02        		.byte	0x2
 7589 0262 0000 0000 		.long	.LM47
 7590 0266 15        		.byte	0x15
 7591 0267 00        		.byte	0x0
 7592 0268 05        		.uleb128 0x5
 7593 0269 02        		.byte	0x2
 7594 026a 0000 0000 		.long	.LM48
 7595 026e 16        		.byte	0x16
 7596 026f 00        		.byte	0x0
 7597 0270 05        		.uleb128 0x5
 7598 0271 02        		.byte	0x2
 7599 0272 0000 0000 		.long	.LM49
 7600 0276 15        		.byte	0x15
 7601 0277 00        		.byte	0x0
 7602 0278 05        		.uleb128 0x5
 7603 0279 02        		.byte	0x2
 7604 027a 0000 0000 		.long	.LM50
 7605 027e 16        		.byte	0x16
 7606 027f 00        		.byte	0x0
 7607 0280 05        		.uleb128 0x5
 7608 0281 02        		.byte	0x2
 7609 0282 0000 0000 		.long	.LM51
 7610 0286 15        		.byte	0x15
 7611 0287 00        		.byte	0x0
 7612 0288 05        		.uleb128 0x5
 7613 0289 02        		.byte	0x2
 7614 028a 0000 0000 		.long	.LM52
 7615 028e 17        		.byte	0x17
 7616 028f 00        		.byte	0x0
 7617 0290 05        		.uleb128 0x5
 7618 0291 02        		.byte	0x2
 7619 0292 0000 0000 		.long	.LM53
 7620 0296 2C        		.byte	0x2c
 7621 0297 00        		.byte	0x0
 7622 0298 05        		.uleb128 0x5
 7623 0299 02        		.byte	0x2
 7624 029a 0000 0000 		.long	.LM54
 7625 029e 18        		.byte	0x18
 7626 029f 00        		.byte	0x0
 7627 02a0 05        		.uleb128 0x5
 7628 02a1 02        		.byte	0x2
 7629 02a2 0000 0000 		.long	.LM55
 7630 02a6 16        		.byte	0x16
 7631 02a7 00        		.byte	0x0
 7632 02a8 05        		.uleb128 0x5
 7633 02a9 02        		.byte	0x2
 7634 02aa 0000 0000 		.long	.LM56
 7635 02ae 15        		.byte	0x15
 7636 02af 00        		.byte	0x0
 7637 02b0 05        		.uleb128 0x5
 7638 02b1 02        		.byte	0x2
 7639 02b2 0000 0000 		.long	.LM57
 7640 02b6 13        		.byte	0x13
GAS LISTING C:\Users\ADMINI~1\AppData\Local\Temp/ccSP7hgy.s 			page 142


 7641 02b7 00        		.byte	0x0
 7642 02b8 05        		.uleb128 0x5
 7643 02b9 02        		.byte	0x2
 7644 02ba 0000 0000 		.long	.LM58
 7645 02be 15        		.byte	0x15
 7646 02bf 00        		.byte	0x0
 7647 02c0 05        		.uleb128 0x5
 7648 02c1 02        		.byte	0x2
 7649 02c2 0000 0000 		.long	.LM59
 7650 02c6 12        		.byte	0x12
 7651 02c7 00        		.byte	0x0
 7652 02c8 05        		.uleb128 0x5
 7653 02c9 02        		.byte	0x2
 7654 02ca 0000 0000 		.long	.LM60
 7655 02ce 18        		.byte	0x18
 7656 02cf 00        		.byte	0x0
 7657 02d0 05        		.uleb128 0x5
 7658 02d1 02        		.byte	0x2
 7659 02d2 0000 0000 		.long	.LM61
 7660 02d6 03        		.byte	0x3
 7661 02d7 A902      		.sleb128 297
 7662 02d9 01        		.byte	0x1
 7663 02da 00        		.byte	0x0
 7664 02db 05        		.uleb128 0x5
 7665 02dc 02        		.byte	0x2
 7666 02dd 0000 0000 		.long	.LM62
 7667 02e1 15        		.byte	0x15
 7668 02e2 00        		.byte	0x0
 7669 02e3 05        		.uleb128 0x5
 7670 02e4 02        		.byte	0x2
 7671 02e5 0000 0000 		.long	.LM63
 7672 02e9 15        		.byte	0x15
 7673 02ea 00        		.byte	0x0
 7674 02eb 05        		.uleb128 0x5
 7675 02ec 02        		.byte	0x2
 7676 02ed 0000 0000 		.long	.LM64
 7677 02f1 1A        		.byte	0x1a
 7678 02f2 00        		.byte	0x0
 7679 02f3 05        		.uleb128 0x5
 7680 02f4 02        		.byte	0x2
 7681 02f5 0000 0000 		.long	.LM65
 7682 02f9 12        		.byte	0x12
 7683 02fa 00        		.byte	0x0
 7684 02fb 05        		.uleb128 0x5
 7685 02fc 02        		.byte	0x2
 7686 02fd 0000 0000 		.long	.LM66
 7687 0301 13        		.byte	0x13
 7688 0302 00        		.byte	0x0
 7689 0303 05        		.uleb128 0x5
 7690 0304 02        		.byte	0x2
 7691 0305 0000 0000 		.long	.LM67
 7692 0309 1A        		.byte	0x1a
 7693 030a 00        		.byte	0x0
 7694 030b 05        		.uleb128 0x5
 7695 030c 02        		.byte	0x2
 7696 030d 0000 0000 		.long	.LM68
 7697 0311 16        		.byte	0x16
GAS LISTING C:\Users\ADMINI~1\AppData\Local\Temp/ccSP7hgy.s 			page 143


 7698 0312 00        		.byte	0x0
 7699 0313 05        		.uleb128 0x5
 7700 0314 02        		.byte	0x2
 7701 0315 0000 0000 		.long	.LM69
 7702 0319 03        		.byte	0x3
 7703 031a 68        		.sleb128 -24
 7704 031b 01        		.byte	0x1
 7705 031c 00        		.byte	0x0
 7706 031d 05        		.uleb128 0x5
 7707 031e 02        		.byte	0x2
 7708 031f 0000 0000 		.long	.LM70
 7709 0323 15        		.byte	0x15
 7710 0324 00        		.byte	0x0
 7711 0325 05        		.uleb128 0x5
 7712 0326 02        		.byte	0x2
 7713 0327 0000 0000 		.long	.LM71
 7714 032b 15        		.byte	0x15
 7715 032c 00        		.byte	0x0
 7716 032d 05        		.uleb128 0x5
 7717 032e 02        		.byte	0x2
 7718 032f 0000 0000 		.long	.LM72
 7719 0333 16        		.byte	0x16
 7720 0334 00        		.byte	0x0
 7721 0335 05        		.uleb128 0x5
 7722 0336 02        		.byte	0x2
 7723 0337 0000 0000 		.long	.LM73
 7724 033b 16        		.byte	0x16
 7725 033c 00        		.byte	0x0
 7726 033d 05        		.uleb128 0x5
 7727 033e 02        		.byte	0x2
 7728 033f 0000 0000 		.long	.LM74
 7729 0343 15        		.byte	0x15
 7730 0344 00        		.byte	0x0
 7731 0345 05        		.uleb128 0x5
 7732 0346 02        		.byte	0x2
 7733 0347 0000 0000 		.long	.LM75
 7734 034b 15        		.byte	0x15
 7735 034c 00        		.byte	0x0
 7736 034d 05        		.uleb128 0x5
 7737 034e 02        		.byte	0x2
 7738 034f 0000 0000 		.long	.LM76
 7739 0353 03        		.byte	0x3
 7740 0354 A47F      		.sleb128 -92
 7741 0356 01        		.byte	0x1
 7742 0357 00        		.byte	0x0
 7743 0358 05        		.uleb128 0x5
 7744 0359 02        		.byte	0x2
 7745 035a 0000 0000 		.long	.LM77
 7746 035e 15        		.byte	0x15
 7747 035f 00        		.byte	0x0
 7748 0360 05        		.uleb128 0x5
 7749 0361 02        		.byte	0x2
 7750 0362 0000 0000 		.long	.LM78
 7751 0366 03        		.byte	0x3
 7752 0367 9E7D      		.sleb128 -354
 7753 0369 01        		.byte	0x1
 7754 036a 00        		.byte	0x0
GAS LISTING C:\Users\ADMINI~1\AppData\Local\Temp/ccSP7hgy.s 			page 144


 7755 036b 05        		.uleb128 0x5
 7756 036c 02        		.byte	0x2
 7757 036d 0000 0000 		.long	.LM79
 7758 0371 15        		.byte	0x15
 7759 0372 00        		.byte	0x0
 7760 0373 05        		.uleb128 0x5
 7761 0374 02        		.byte	0x2
 7762 0375 0000 0000 		.long	.LM80
 7763 0379 03        		.byte	0x3
 7764 037a E602      		.sleb128 358
 7765 037c 01        		.byte	0x1
 7766 037d 00        		.byte	0x0
 7767 037e 05        		.uleb128 0x5
 7768 037f 02        		.byte	0x2
 7769 0380 0000 0000 		.long	.LM81
 7770 0384 15        		.byte	0x15
 7771 0385 00        		.byte	0x0
 7772 0386 05        		.uleb128 0x5
 7773 0387 02        		.byte	0x2
 7774 0388 0000 0000 		.long	.LM82
 7775 038c 16        		.byte	0x16
 7776 038d 00        		.byte	0x0
 7777 038e 05        		.uleb128 0x5
 7778 038f 02        		.byte	0x2
 7779 0390 0000 0000 		.long	.LM83
 7780 0394 16        		.byte	0x16
 7781 0395 00        		.byte	0x0
 7782 0396 05        		.uleb128 0x5
 7783 0397 02        		.byte	0x2
 7784 0398 0000 0000 		.long	.LM84
 7785 039c 15        		.byte	0x15
 7786 039d 00        		.byte	0x0
 7787 039e 05        		.uleb128 0x5
 7788 039f 02        		.byte	0x2
 7789 03a0 0000 0000 		.long	.LM85
 7790 03a4 15        		.byte	0x15
 7791 03a5 00        		.byte	0x0
 7792 03a6 05        		.uleb128 0x5
 7793 03a7 02        		.byte	0x2
 7794 03a8 0000 0000 		.long	.LM86
 7795 03ac 03        		.byte	0x3
 7796 03ad B27F      		.sleb128 -78
 7797 03af 01        		.byte	0x1
 7798 03b0 00        		.byte	0x0
 7799 03b1 05        		.uleb128 0x5
 7800 03b2 02        		.byte	0x2
 7801 03b3 0000 0000 		.long	.LM87
 7802 03b7 15        		.byte	0x15
 7803 03b8 00        		.byte	0x0
 7804 03b9 05        		.uleb128 0x5
 7805 03ba 02        		.byte	0x2
 7806 03bb 0000 0000 		.long	.LM88
 7807 03bf 15        		.byte	0x15
 7808 03c0 00        		.byte	0x0
 7809 03c1 05        		.uleb128 0x5
 7810 03c2 02        		.byte	0x2
 7811 03c3 0000 0000 		.long	.LM89
GAS LISTING C:\Users\ADMINI~1\AppData\Local\Temp/ccSP7hgy.s 			page 145


 7812 03c7 15        		.byte	0x15
 7813 03c8 00        		.byte	0x0
 7814 03c9 05        		.uleb128 0x5
 7815 03ca 02        		.byte	0x2
 7816 03cb 0000 0000 		.long	.LM90
 7817 03cf 03        		.byte	0x3
 7818 03d0 6D        		.sleb128 -19
 7819 03d1 01        		.byte	0x1
 7820 03d2 00        		.byte	0x0
 7821 03d3 05        		.uleb128 0x5
 7822 03d4 02        		.byte	0x2
 7823 03d5 0000 0000 		.long	.LM91
 7824 03d9 15        		.byte	0x15
 7825 03da 00        		.byte	0x0
 7826 03db 05        		.uleb128 0x5
 7827 03dc 02        		.byte	0x2
 7828 03dd 0000 0000 		.long	.LM92
 7829 03e1 15        		.byte	0x15
 7830 03e2 00        		.byte	0x0
 7831 03e3 05        		.uleb128 0x5
 7832 03e4 02        		.byte	0x2
 7833 03e5 0000 0000 		.long	.LM93
 7834 03e9 15        		.byte	0x15
 7835 03ea 00        		.byte	0x0
 7836 03eb 05        		.uleb128 0x5
 7837 03ec 02        		.byte	0x2
 7838 03ed 0000 0000 		.long	.LM94
 7839 03f1 15        		.byte	0x15
 7840 03f2 00        		.byte	0x0
 7841 03f3 05        		.uleb128 0x5
 7842 03f4 02        		.byte	0x2
 7843 03f5 0000 0000 		.long	.LM95
 7844 03f9 15        		.byte	0x15
 7845 03fa 00        		.byte	0x0
 7846 03fb 05        		.uleb128 0x5
 7847 03fc 02        		.byte	0x2
 7848 03fd 0000 0000 		.long	.LM96
 7849 0401 15        		.byte	0x15
 7850 0402 00        		.byte	0x0
 7851 0403 05        		.uleb128 0x5
 7852 0404 02        		.byte	0x2
 7853 0405 0000 0000 		.long	.LM97
 7854 0409 15        		.byte	0x15
 7855 040a 00        		.byte	0x0
 7856 040b 05        		.uleb128 0x5
 7857 040c 02        		.byte	0x2
 7858 040d 0000 0000 		.long	.LM98
 7859 0411 15        		.byte	0x15
 7860 0412 00        		.byte	0x0
 7861 0413 05        		.uleb128 0x5
 7862 0414 02        		.byte	0x2
 7863 0415 0000 0000 		.long	.LM99
 7864 0419 15        		.byte	0x15
 7865 041a 00        		.byte	0x0
 7866 041b 05        		.uleb128 0x5
 7867 041c 02        		.byte	0x2
 7868 041d 0000 0000 		.long	.LM100
GAS LISTING C:\Users\ADMINI~1\AppData\Local\Temp/ccSP7hgy.s 			page 146


 7869 0421 15        		.byte	0x15
 7870 0422 00        		.byte	0x0
 7871 0423 05        		.uleb128 0x5
 7872 0424 02        		.byte	0x2
 7873 0425 0000 0000 		.long	.LM101
 7874 0429 15        		.byte	0x15
 7875 042a 00        		.byte	0x0
 7876 042b 05        		.uleb128 0x5
 7877 042c 02        		.byte	0x2
 7878 042d 0000 0000 		.long	.LM102
 7879 0431 16        		.byte	0x16
 7880 0432 00        		.byte	0x0
 7881 0433 05        		.uleb128 0x5
 7882 0434 02        		.byte	0x2
 7883 0435 0000 0000 		.long	.LM103
 7884 0439 15        		.byte	0x15
 7885 043a 00        		.byte	0x0
 7886 043b 05        		.uleb128 0x5
 7887 043c 02        		.byte	0x2
 7888 043d 0000 0000 		.long	.LM104
 7889 0441 03        		.byte	0x3
 7890 0442 E27E      		.sleb128 -158
 7891 0444 01        		.byte	0x1
 7892 0445 00        		.byte	0x0
 7893 0446 05        		.uleb128 0x5
 7894 0447 02        		.byte	0x2
 7895 0448 0000 0000 		.long	.LM105
 7896 044c 01        		.byte	0x1
 7897 044d 00        		.byte	0x0
 7898 044e 05        		.uleb128 0x5
 7899 044f 02        		.byte	0x2
 7900 0450 0000 0000 		.long	.LM106
 7901 0454 1C        		.byte	0x1c
 7902 0455 00        		.byte	0x0
 7903 0456 05        		.uleb128 0x5
 7904 0457 02        		.byte	0x2
 7905 0458 0000 0000 		.long	.LM107
 7906 045c 15        		.byte	0x15
 7907 045d 00        		.byte	0x0
 7908 045e 05        		.uleb128 0x5
 7909 045f 02        		.byte	0x2
 7910 0460 0000 0000 		.long	.LM108
 7911 0464 10        		.byte	0x10
 7912 0465 00        		.byte	0x0
 7913 0466 05        		.uleb128 0x5
 7914 0467 02        		.byte	0x2
 7915 0468 0000 0000 		.long	.LM109
 7916 046c 1B        		.byte	0x1b
 7917 046d 00        		.byte	0x0
 7918 046e 05        		.uleb128 0x5
 7919 046f 02        		.byte	0x2
 7920 0470 0000 0000 		.long	.LM110
 7921 0474 22        		.byte	0x22
 7922 0475 00        		.byte	0x0
 7923 0476 05        		.uleb128 0x5
 7924 0477 02        		.byte	0x2
 7925 0478 0000 0000 		.long	.LM111
GAS LISTING C:\Users\ADMINI~1\AppData\Local\Temp/ccSP7hgy.s 			page 147


 7926 047c 18        		.byte	0x18
 7927 047d 00        		.byte	0x0
 7928 047e 05        		.uleb128 0x5
 7929 047f 02        		.byte	0x2
 7930 0480 0000 0000 		.long	.LM112
 7931 0484 15        		.byte	0x15
 7932 0485 00        		.byte	0x0
 7933 0486 05        		.uleb128 0x5
 7934 0487 02        		.byte	0x2
 7935 0488 0000 0000 		.long	.LM113
 7936 048c 17        		.byte	0x17
 7937 048d 00        		.byte	0x0
 7938 048e 05        		.uleb128 0x5
 7939 048f 02        		.byte	0x2
 7940 0490 0000 0000 		.long	.LM114
 7941 0494 16        		.byte	0x16
 7942 0495 00        		.byte	0x0
 7943 0496 05        		.uleb128 0x5
 7944 0497 02        		.byte	0x2
 7945 0498 0000 0000 		.long	.LM115
 7946 049c 18        		.byte	0x18
 7947 049d 00        		.byte	0x0
 7948 049e 05        		.uleb128 0x5
 7949 049f 02        		.byte	0x2
 7950 04a0 0000 0000 		.long	.LM116
 7951 04a4 18        		.byte	0x18
 7952 04a5 00        		.byte	0x0
 7953 04a6 05        		.uleb128 0x5
 7954 04a7 02        		.byte	0x2
 7955 04a8 0000 0000 		.long	.LM117
 7956 04ac 17        		.byte	0x17
 7957 04ad 00        		.byte	0x0
 7958 04ae 05        		.uleb128 0x5
 7959 04af 02        		.byte	0x2
 7960 04b0 0000 0000 		.long	.LM118
 7961 04b4 19        		.byte	0x19
 7962 04b5 00        		.byte	0x0
 7963 04b6 05        		.uleb128 0x5
 7964 04b7 02        		.byte	0x2
 7965 04b8 0000 0000 		.long	.LM119
 7966 04bc 19        		.byte	0x19
 7967 04bd 00        		.byte	0x0
 7968 04be 05        		.uleb128 0x5
 7969 04bf 02        		.byte	0x2
 7970 04c0 0000 0000 		.long	.LM120
 7971 04c4 18        		.byte	0x18
 7972 04c5 00        		.byte	0x0
 7973 04c6 05        		.uleb128 0x5
 7974 04c7 02        		.byte	0x2
 7975 04c8 0000 0000 		.long	.LM121
 7976 04cc 17        		.byte	0x17
 7977 04cd 00        		.byte	0x0
 7978 04ce 05        		.uleb128 0x5
 7979 04cf 02        		.byte	0x2
 7980 04d0 0000 0000 		.long	.LM122
 7981 04d4 17        		.byte	0x17
 7982 04d5 00        		.byte	0x0
GAS LISTING C:\Users\ADMINI~1\AppData\Local\Temp/ccSP7hgy.s 			page 148


 7983 04d6 05        		.uleb128 0x5
 7984 04d7 02        		.byte	0x2
 7985 04d8 0000 0000 		.long	.LM123
 7986 04dc 19        		.byte	0x19
 7987 04dd 00        		.byte	0x0
 7988 04de 05        		.uleb128 0x5
 7989 04df 02        		.byte	0x2
 7990 04e0 0000 0000 		.long	.LM124
 7991 04e4 15        		.byte	0x15
 7992 04e5 00        		.byte	0x0
 7993 04e6 05        		.uleb128 0x5
 7994 04e7 02        		.byte	0x2
 7995 04e8 0000 0000 		.long	.LM125
 7996 04ec 17        		.byte	0x17
 7997 04ed 00        		.byte	0x0
 7998 04ee 05        		.uleb128 0x5
 7999 04ef 02        		.byte	0x2
 8000 04f0 0000 0000 		.long	.LM126
 8001 04f4 15        		.byte	0x15
 8002 04f5 00        		.byte	0x0
 8003 04f6 05        		.uleb128 0x5
 8004 04f7 02        		.byte	0x2
 8005 04f8 0000 0000 		.long	.LM127
 8006 04fc 15        		.byte	0x15
 8007 04fd 00        		.byte	0x0
 8008 04fe 05        		.uleb128 0x5
 8009 04ff 02        		.byte	0x2
 8010 0500 0000 0000 		.long	.LM128
 8011 0504 15        		.byte	0x15
 8012 0505 00        		.byte	0x0
 8013 0506 05        		.uleb128 0x5
 8014 0507 02        		.byte	0x2
 8015 0508 0000 0000 		.long	.LM129
 8016 050c 17        		.byte	0x17
 8017 050d 00        		.byte	0x0
 8018 050e 05        		.uleb128 0x5
 8019 050f 02        		.byte	0x2
 8020 0510 0000 0000 		.long	.LM130
 8021 0514 15        		.byte	0x15
 8022 0515 00        		.byte	0x0
 8023 0516 05        		.uleb128 0x5
 8024 0517 02        		.byte	0x2
 8025 0518 0000 0000 		.long	.LM131
 8026 051c 15        		.byte	0x15
 8027 051d 00        		.byte	0x0
 8028 051e 05        		.uleb128 0x5
 8029 051f 02        		.byte	0x2
 8030 0520 0000 0000 		.long	.LM132
 8031 0524 17        		.byte	0x17
 8032 0525 00        		.byte	0x0
 8033 0526 05        		.uleb128 0x5
 8034 0527 02        		.byte	0x2
 8035 0528 0000 0000 		.long	.LM133
 8036 052c 04        		.byte	0x4
 8037 052d 02        		.uleb128 0x2
 8038 052e 03        		.byte	0x3
 8039 052f C07D      		.sleb128 -320
GAS LISTING C:\Users\ADMINI~1\AppData\Local\Temp/ccSP7hgy.s 			page 149


 8040 0531 01        		.byte	0x1
 8041 0532 00        		.byte	0x0
 8042 0533 05        		.uleb128 0x5
 8043 0534 02        		.byte	0x2
 8044 0535 0000 0000 		.long	.LM134
 8045 0539 04        		.byte	0x4
 8046 053a 03        		.uleb128 0x3
 8047 053b 27        		.byte	0x27
 8048 053c 00        		.byte	0x0
 8049 053d 05        		.uleb128 0x5
 8050 053e 02        		.byte	0x2
 8051 053f 0000 0000 		.long	.LM135
 8052 0543 10        		.byte	0x10
 8053 0544 00        		.byte	0x0
 8054 0545 05        		.uleb128 0x5
 8055 0546 02        		.byte	0x2
 8056 0547 0000 0000 		.long	.LM136
 8057 054b 04        		.byte	0x4
 8058 054c 01        		.uleb128 0x1
 8059 054d 03        		.byte	0x3
 8060 054e B902      		.sleb128 313
 8061 0550 01        		.byte	0x1
 8062 0551 00        		.byte	0x0
 8063 0552 05        		.uleb128 0x5
 8064 0553 02        		.byte	0x2
 8065 0554 0000 0000 		.long	.LM137
 8066 0558 28        		.byte	0x28
 8067 0559 00        		.byte	0x0
 8068 055a 05        		.uleb128 0x5
 8069 055b 02        		.byte	0x2
 8070 055c 0000 0000 		.long	.LM138
 8071 0560 15        		.byte	0x15
 8072 0561 00        		.byte	0x0
 8073 0562 05        		.uleb128 0x5
 8074 0563 02        		.byte	0x2
 8075 0564 0000 0000 		.long	.LM139
 8076 0568 15        		.byte	0x15
 8077 0569 00        		.byte	0x0
 8078 056a 05        		.uleb128 0x5
 8079 056b 02        		.byte	0x2
 8080 056c 0000 0000 		.long	.LM140
 8081 0570 15        		.byte	0x15
 8082 0571 00        		.byte	0x0
 8083 0572 05        		.uleb128 0x5
 8084 0573 02        		.byte	0x2
 8085 0574 0000 0000 		.long	.LM141
 8086 0578 15        		.byte	0x15
 8087 0579 00        		.byte	0x0
 8088 057a 05        		.uleb128 0x5
 8089 057b 02        		.byte	0x2
 8090 057c 0000 0000 		.long	.LM142
 8091 0580 15        		.byte	0x15
 8092 0581 00        		.byte	0x0
 8093 0582 05        		.uleb128 0x5
 8094 0583 02        		.byte	0x2
 8095 0584 0000 0000 		.long	.LM143
 8096 0588 15        		.byte	0x15
GAS LISTING C:\Users\ADMINI~1\AppData\Local\Temp/ccSP7hgy.s 			page 150


 8097 0589 00        		.byte	0x0
 8098 058a 05        		.uleb128 0x5
 8099 058b 02        		.byte	0x2
 8100 058c 0000 0000 		.long	.LM144
 8101 0590 15        		.byte	0x15
 8102 0591 00        		.byte	0x0
 8103 0592 05        		.uleb128 0x5
 8104 0593 02        		.byte	0x2
 8105 0594 0000 0000 		.long	.LM145
 8106 0598 15        		.byte	0x15
 8107 0599 00        		.byte	0x0
 8108 059a 05        		.uleb128 0x5
 8109 059b 02        		.byte	0x2
 8110 059c 0000 0000 		.long	.LM146
 8111 05a0 15        		.byte	0x15
 8112 05a1 00        		.byte	0x0
 8113 05a2 05        		.uleb128 0x5
 8114 05a3 02        		.byte	0x2
 8115 05a4 0000 0000 		.long	.LM147
 8116 05a8 16        		.byte	0x16
 8117 05a9 00        		.byte	0x0
 8118 05aa 05        		.uleb128 0x5
 8119 05ab 02        		.byte	0x2
 8120 05ac 0000 0000 		.long	.LM148
 8121 05b0 15        		.byte	0x15
 8122 05b1 00        		.byte	0x0
 8123 05b2 05        		.uleb128 0x5
 8124 05b3 02        		.byte	0x2
 8125 05b4 0000 0000 		.long	.LM149
 8126 05b8 16        		.byte	0x16
 8127 05b9 00        		.byte	0x0
 8128 05ba 05        		.uleb128 0x5
 8129 05bb 02        		.byte	0x2
 8130 05bc 0000 0000 		.long	.LM150
 8131 05c0 03        		.byte	0x3
 8132 05c1 60        		.sleb128 -32
 8133 05c2 01        		.byte	0x1
 8134 05c3 00        		.byte	0x0
 8135 05c4 05        		.uleb128 0x5
 8136 05c5 02        		.byte	0x2
 8137 05c6 0000 0000 		.long	.LM151
 8138 05ca 15        		.byte	0x15
 8139 05cb 00        		.byte	0x0
 8140 05cc 05        		.uleb128 0x5
 8141 05cd 02        		.byte	0x2
 8142 05ce 0000 0000 		.long	.LM152
 8143 05d2 15        		.byte	0x15
 8144 05d3 00        		.byte	0x0
 8145 05d4 05        		.uleb128 0x5
 8146 05d5 02        		.byte	0x2
 8147 05d6 0000 0000 		.long	.LM153
 8148 05da 15        		.byte	0x15
 8149 05db 00        		.byte	0x0
 8150 05dc 05        		.uleb128 0x5
 8151 05dd 02        		.byte	0x2
 8152 05de 0000 0000 		.long	.LM154
 8153 05e2 15        		.byte	0x15
GAS LISTING C:\Users\ADMINI~1\AppData\Local\Temp/ccSP7hgy.s 			page 151


 8154 05e3 00        		.byte	0x0
 8155 05e4 05        		.uleb128 0x5
 8156 05e5 02        		.byte	0x2
 8157 05e6 0000 0000 		.long	.LM155
 8158 05ea 15        		.byte	0x15
 8159 05eb 00        		.byte	0x0
 8160 05ec 05        		.uleb128 0x5
 8161 05ed 02        		.byte	0x2
 8162 05ee 0000 0000 		.long	.LM156
 8163 05f2 15        		.byte	0x15
 8164 05f3 00        		.byte	0x0
 8165 05f4 05        		.uleb128 0x5
 8166 05f5 02        		.byte	0x2
 8167 05f6 0000 0000 		.long	.LM157
 8168 05fa 15        		.byte	0x15
 8169 05fb 00        		.byte	0x0
 8170 05fc 05        		.uleb128 0x5
 8171 05fd 02        		.byte	0x2
 8172 05fe 0000 0000 		.long	.LM158
 8173 0602 15        		.byte	0x15
 8174 0603 00        		.byte	0x0
 8175 0604 05        		.uleb128 0x5
 8176 0605 02        		.byte	0x2
 8177 0606 0000 0000 		.long	.LM159
 8178 060a 15        		.byte	0x15
 8179 060b 00        		.byte	0x0
 8180 060c 05        		.uleb128 0x5
 8181 060d 02        		.byte	0x2
 8182 060e 0000 0000 		.long	.LM160
 8183 0612 15        		.byte	0x15
 8184 0613 00        		.byte	0x0
 8185 0614 05        		.uleb128 0x5
 8186 0615 02        		.byte	0x2
 8187 0616 0000 0000 		.long	.LM161
 8188 061a 15        		.byte	0x15
 8189 061b 00        		.byte	0x0
 8190 061c 05        		.uleb128 0x5
 8191 061d 02        		.byte	0x2
 8192 061e 0000 0000 		.long	.LM162
 8193 0622 16        		.byte	0x16
 8194 0623 00        		.byte	0x0
 8195 0624 05        		.uleb128 0x5
 8196 0625 02        		.byte	0x2
 8197 0626 0000 0000 		.long	.LM163
 8198 062a 15        		.byte	0x15
 8199 062b 00        		.byte	0x0
 8200 062c 05        		.uleb128 0x5
 8201 062d 02        		.byte	0x2
 8202 062e 0000 0000 		.long	.LM164
 8203 0632 15        		.byte	0x15
 8204 0633 00        		.byte	0x0
 8205 0634 05        		.uleb128 0x5
 8206 0635 02        		.byte	0x2
 8207 0636 0000 0000 		.long	.LM165
 8208 063a CB        		.byte	0xcb
 8209 063b 00        		.byte	0x0
 8210 063c 05        		.uleb128 0x5
GAS LISTING C:\Users\ADMINI~1\AppData\Local\Temp/ccSP7hgy.s 			page 152


 8211 063d 02        		.byte	0x2
 8212 063e 0000 0000 		.long	.LM166
 8213 0642 01        		.byte	0x1
 8214 0643 00        		.byte	0x0
 8215 0644 05        		.uleb128 0x5
 8216 0645 02        		.byte	0x2
 8217 0646 0000 0000 		.long	.LM167
 8218 064a 19        		.byte	0x19
 8219 064b 00        		.byte	0x0
 8220 064c 05        		.uleb128 0x5
 8221 064d 02        		.byte	0x2
 8222 064e 0000 0000 		.long	.LM168
 8223 0652 12        		.byte	0x12
 8224 0653 00        		.byte	0x0
 8225 0654 05        		.uleb128 0x5
 8226 0655 02        		.byte	0x2
 8227 0656 0000 0000 		.long	.LM169
 8228 065a 1A        		.byte	0x1a
 8229 065b 00        		.byte	0x0
 8230 065c 05        		.uleb128 0x5
 8231 065d 02        		.byte	0x2
 8232 065e 0000 0000 		.long	.LM170
 8233 0662 15        		.byte	0x15
 8234 0663 00        		.byte	0x0
 8235 0664 05        		.uleb128 0x5
 8236 0665 02        		.byte	0x2
 8237 0666 0000 0000 		.long	.LM171
 8238 066a 15        		.byte	0x15
 8239 066b 00        		.byte	0x0
 8240 066c 05        		.uleb128 0x5
 8241 066d 02        		.byte	0x2
 8242 066e 0000 0000 		.long	.LM172
 8243 0672 03        		.byte	0x3
 8244 0673 62        		.sleb128 -30
 8245 0674 01        		.byte	0x1
 8246 0675 00        		.byte	0x0
 8247 0676 05        		.uleb128 0x5
 8248 0677 02        		.byte	0x2
 8249 0678 0000 0000 		.long	.LM173
 8250 067c 15        		.byte	0x15
 8251 067d 00        		.byte	0x0
 8252 067e 05        		.uleb128 0x5
 8253 067f 02        		.byte	0x2
 8254 0680 0000 0000 		.long	.LM174
 8255 0684 1F        		.byte	0x1f
 8256 0685 00        		.byte	0x0
 8257 0686 05        		.uleb128 0x5
 8258 0687 02        		.byte	0x2
 8259 0688 0000 0000 		.long	.LM175
 8260 068c 10        		.byte	0x10
 8261 068d 00        		.byte	0x0
 8262 068e 05        		.uleb128 0x5
 8263 068f 02        		.byte	0x2
 8264 0690 0000 0000 		.long	.LM176
 8265 0694 1C        		.byte	0x1c
 8266 0695 00        		.byte	0x0
 8267 0696 05        		.uleb128 0x5
GAS LISTING C:\Users\ADMINI~1\AppData\Local\Temp/ccSP7hgy.s 			page 153


 8268 0697 02        		.byte	0x2
 8269 0698 0000 0000 		.long	.LM177
 8270 069c 15        		.byte	0x15
 8271 069d 00        		.byte	0x0
 8272 069e 05        		.uleb128 0x5
 8273 069f 02        		.byte	0x2
 8274 06a0 0000 0000 		.long	.LM178
 8275 06a4 03        		.byte	0x3
 8276 06a5 5C        		.sleb128 -36
 8277 06a6 01        		.byte	0x1
 8278 06a7 00        		.byte	0x0
 8279 06a8 05        		.uleb128 0x5
 8280 06a9 02        		.byte	0x2
 8281 06aa 0000 0000 		.long	.LM179
 8282 06ae 15        		.byte	0x15
 8283 06af 00        		.byte	0x0
 8284 06b0 05        		.uleb128 0x5
 8285 06b1 02        		.byte	0x2
 8286 06b2 0000 0000 		.long	.LM180
 8287 06b6 1C        		.byte	0x1c
 8288 06b7 00        		.byte	0x0
 8289 06b8 05        		.uleb128 0x5
 8290 06b9 02        		.byte	0x2
 8291 06ba 0000 0000 		.long	.LM181
 8292 06be 13        		.byte	0x13
 8293 06bf 00        		.byte	0x0
 8294 06c0 05        		.uleb128 0x5
 8295 06c1 02        		.byte	0x2
 8296 06c2 0000 0000 		.long	.LM182
 8297 06c6 16        		.byte	0x16
 8298 06c7 00        		.byte	0x0
 8299 06c8 05        		.uleb128 0x5
 8300 06c9 02        		.byte	0x2
 8301 06ca 0000 0000 		.long	.LM183
 8302 06ce 16        		.byte	0x16
 8303 06cf 00        		.byte	0x0
 8304 06d0 05        		.uleb128 0x5
 8305 06d1 02        		.byte	0x2
 8306 06d2 0000 0000 		.long	.LM184
 8307 06d6 15        		.byte	0x15
 8308 06d7 00        		.byte	0x0
 8309 06d8 05        		.uleb128 0x5
 8310 06d9 02        		.byte	0x2
 8311 06da 0000 0000 		.long	.LM185
 8312 06de 0F        		.byte	0xf
 8313 06df 00        		.byte	0x0
 8314 06e0 05        		.uleb128 0x5
 8315 06e1 02        		.byte	0x2
 8316 06e2 0000 0000 		.long	.LM186
 8317 06e6 1D        		.byte	0x1d
 8318 06e7 00        		.byte	0x0
 8319 06e8 05        		.uleb128 0x5
 8320 06e9 02        		.byte	0x2
 8321 06ea 0000 0000 		.long	.LM187
 8322 06ee 03        		.byte	0x3
 8323 06ef 947F      		.sleb128 -108
 8324 06f1 01        		.byte	0x1
GAS LISTING C:\Users\ADMINI~1\AppData\Local\Temp/ccSP7hgy.s 			page 154


 8325 06f2 00        		.byte	0x0
 8326 06f3 05        		.uleb128 0x5
 8327 06f4 02        		.byte	0x2
 8328 06f5 0000 0000 		.long	.LM188
 8329 06f9 01        		.byte	0x1
 8330 06fa 00        		.byte	0x0
 8331 06fb 05        		.uleb128 0x5
 8332 06fc 02        		.byte	0x2
 8333 06fd 0000 0000 		.long	.LM189
 8334 0701 1B        		.byte	0x1b
 8335 0702 00        		.byte	0x0
 8336 0703 05        		.uleb128 0x5
 8337 0704 02        		.byte	0x2
 8338 0705 0000 0000 		.long	.LM190
 8339 0709 11        		.byte	0x11
 8340 070a 00        		.byte	0x0
 8341 070b 05        		.uleb128 0x5
 8342 070c 02        		.byte	0x2
 8343 070d 0000 0000 		.long	.LM191
 8344 0711 13        		.byte	0x13
 8345 0712 00        		.byte	0x0
 8346 0713 05        		.uleb128 0x5
 8347 0714 02        		.byte	0x2
 8348 0715 0000 0000 		.long	.LM192
 8349 0719 1B        		.byte	0x1b
 8350 071a 00        		.byte	0x0
 8351 071b 05        		.uleb128 0x5
 8352 071c 02        		.byte	0x2
 8353 071d 0000 0000 		.long	.LM193
 8354 0721 15        		.byte	0x15
 8355 0722 00        		.byte	0x0
 8356 0723 05        		.uleb128 0x5
 8357 0724 02        		.byte	0x2
 8358 0725 0000 0000 		.long	.LM194
 8359 0729 BA        		.byte	0xba
 8360 072a 00        		.byte	0x0
 8361 072b 05        		.uleb128 0x5
 8362 072c 02        		.byte	0x2
 8363 072d 0000 0000 		.long	.LM195
 8364 0731 16        		.byte	0x16
 8365 0732 00        		.byte	0x0
 8366 0733 05        		.uleb128 0x5
 8367 0734 02        		.byte	0x2
 8368 0735 0000 0000 		.long	.LM196
 8369 0739 18        		.byte	0x18
 8370 073a 00        		.byte	0x0
 8371 073b 05        		.uleb128 0x5
 8372 073c 02        		.byte	0x2
 8373 073d 0000 0000 		.long	.LM197
 8374 0741 1D        		.byte	0x1d
 8375 0742 00        		.byte	0x0
 8376 0743 05        		.uleb128 0x5
 8377 0744 02        		.byte	0x2
 8378 0745 0000 0000 		.long	.LM198
 8379 0749 16        		.byte	0x16
 8380 074a 00        		.byte	0x0
 8381 074b 05        		.uleb128 0x5
GAS LISTING C:\Users\ADMINI~1\AppData\Local\Temp/ccSP7hgy.s 			page 155


 8382 074c 02        		.byte	0x2
 8383 074d 0000 0000 		.long	.LM199
 8384 0751 15        		.byte	0x15
 8385 0752 00        		.byte	0x0
 8386 0753 05        		.uleb128 0x5
 8387 0754 02        		.byte	0x2
 8388 0755 0000 0000 		.long	.LM200
 8389 0759 15        		.byte	0x15
 8390 075a 00        		.byte	0x0
 8391 075b 05        		.uleb128 0x5
 8392 075c 02        		.byte	0x2
 8393 075d 0000 0000 		.long	.LM201
 8394 0761 15        		.byte	0x15
 8395 0762 00        		.byte	0x0
 8396 0763 05        		.uleb128 0x5
 8397 0764 02        		.byte	0x2
 8398 0765 0000 0000 		.long	.LM202
 8399 0769 16        		.byte	0x16
 8400 076a 00        		.byte	0x0
 8401 076b 05        		.uleb128 0x5
 8402 076c 02        		.byte	0x2
 8403 076d 0000 0000 		.long	.LM203
 8404 0771 16        		.byte	0x16
 8405 0772 00        		.byte	0x0
 8406 0773 05        		.uleb128 0x5
 8407 0774 02        		.byte	0x2
 8408 0775 0000 0000 		.long	.LM204
 8409 0779 15        		.byte	0x15
 8410 077a 00        		.byte	0x0
 8411 077b 05        		.uleb128 0x5
 8412 077c 02        		.byte	0x2
 8413 077d 0000 0000 		.long	.LM205
 8414 0781 15        		.byte	0x15
 8415 0782 00        		.byte	0x0
 8416 0783 05        		.uleb128 0x5
 8417 0784 02        		.byte	0x2
 8418 0785 0000 0000 		.long	.LM206
 8419 0789 1B        		.byte	0x1b
 8420 078a 00        		.byte	0x0
 8421 078b 05        		.uleb128 0x5
 8422 078c 02        		.byte	0x2
 8423 078d 0000 0000 		.long	.LM207
 8424 0791 15        		.byte	0x15
 8425 0792 00        		.byte	0x0
 8426 0793 05        		.uleb128 0x5
 8427 0794 02        		.byte	0x2
 8428 0795 0000 0000 		.long	.LM208
 8429 0799 17        		.byte	0x17
 8430 079a 00        		.byte	0x0
 8431 079b 05        		.uleb128 0x5
 8432 079c 02        		.byte	0x2
 8433 079d 0000 0000 		.long	.LM209
 8434 07a1 17        		.byte	0x17
 8435 07a2 00        		.byte	0x0
 8436 07a3 05        		.uleb128 0x5
 8437 07a4 02        		.byte	0x2
 8438 07a5 0000 0000 		.long	.LM210
GAS LISTING C:\Users\ADMINI~1\AppData\Local\Temp/ccSP7hgy.s 			page 156


 8439 07a9 17        		.byte	0x17
 8440 07aa 00        		.byte	0x0
 8441 07ab 05        		.uleb128 0x5
 8442 07ac 02        		.byte	0x2
 8443 07ad 0000 0000 		.long	.LM211
 8444 07b1 15        		.byte	0x15
 8445 07b2 00        		.byte	0x0
 8446 07b3 05        		.uleb128 0x5
 8447 07b4 02        		.byte	0x2
 8448 07b5 0000 0000 		.long	.LM212
 8449 07b9 16        		.byte	0x16
 8450 07ba 00        		.byte	0x0
 8451 07bb 05        		.uleb128 0x5
 8452 07bc 02        		.byte	0x2
 8453 07bd 0000 0000 		.long	.LM213
 8454 07c1 17        		.byte	0x17
 8455 07c2 00        		.byte	0x0
 8456 07c3 05        		.uleb128 0x5
 8457 07c4 02        		.byte	0x2
 8458 07c5 0000 0000 		.long	.LM214
 8459 07c9 18        		.byte	0x18
 8460 07ca 00        		.byte	0x0
 8461 07cb 05        		.uleb128 0x5
 8462 07cc 02        		.byte	0x2
 8463 07cd 0000 0000 		.long	.LM215
 8464 07d1 15        		.byte	0x15
 8465 07d2 00        		.byte	0x0
 8466 07d3 05        		.uleb128 0x5
 8467 07d4 02        		.byte	0x2
 8468 07d5 0000 0000 		.long	.LM216
 8469 07d9 16        		.byte	0x16
 8470 07da 00        		.byte	0x0
 8471 07db 05        		.uleb128 0x5
 8472 07dc 02        		.byte	0x2
 8473 07dd 0000 0000 		.long	.LM217
 8474 07e1 19        		.byte	0x19
 8475 07e2 00        		.byte	0x0
 8476 07e3 05        		.uleb128 0x5
 8477 07e4 02        		.byte	0x2
 8478 07e5 0000 0000 		.long	.LM218
 8479 07e9 15        		.byte	0x15
 8480 07ea 00        		.byte	0x0
 8481 07eb 05        		.uleb128 0x5
 8482 07ec 02        		.byte	0x2
 8483 07ed 0000 0000 		.long	.LM219
 8484 07f1 17        		.byte	0x17
 8485 07f2 00        		.byte	0x0
 8486 07f3 05        		.uleb128 0x5
 8487 07f4 02        		.byte	0x2
 8488 07f5 0000 0000 		.long	.LM220
 8489 07f9 1B        		.byte	0x1b
 8490 07fa 00        		.byte	0x0
 8491 07fb 05        		.uleb128 0x5
 8492 07fc 02        		.byte	0x2
 8493 07fd 0000 0000 		.long	.LM221
 8494 0801 16        		.byte	0x16
 8495 0802 00        		.byte	0x0
GAS LISTING C:\Users\ADMINI~1\AppData\Local\Temp/ccSP7hgy.s 			page 157


 8496 0803 05        		.uleb128 0x5
 8497 0804 02        		.byte	0x2
 8498 0805 0000 0000 		.long	.LM222
 8499 0809 15        		.byte	0x15
 8500 080a 00        		.byte	0x0
 8501 080b 05        		.uleb128 0x5
 8502 080c 02        		.byte	0x2
 8503 080d 0000 0000 		.long	.LM223
 8504 0811 16        		.byte	0x16
 8505 0812 00        		.byte	0x0
 8506 0813 05        		.uleb128 0x5
 8507 0814 02        		.byte	0x2
 8508 0815 0000 0000 		.long	.LM224
 8509 0819 15        		.byte	0x15
 8510 081a 00        		.byte	0x0
 8511 081b 05        		.uleb128 0x5
 8512 081c 02        		.byte	0x2
 8513 081d 0000 0000 		.long	.LM225
 8514 0821 1D        		.byte	0x1d
 8515 0822 00        		.byte	0x0
 8516 0823 05        		.uleb128 0x5
 8517 0824 02        		.byte	0x2
 8518 0825 0000 0000 		.long	.LM226
 8519 0829 15        		.byte	0x15
 8520 082a 00        		.byte	0x0
 8521 082b 05        		.uleb128 0x5
 8522 082c 02        		.byte	0x2
 8523 082d 0000 0000 		.long	.LM227
 8524 0831 15        		.byte	0x15
 8525 0832 00        		.byte	0x0
 8526 0833 05        		.uleb128 0x5
 8527 0834 02        		.byte	0x2
 8528 0835 0000 0000 		.long	.LM228
 8529 0839 16        		.byte	0x16
 8530 083a 00        		.byte	0x0
 8531 083b 05        		.uleb128 0x5
 8532 083c 02        		.byte	0x2
 8533 083d 0000 0000 		.long	.LM229
 8534 0841 15        		.byte	0x15
 8535 0842 00        		.byte	0x0
 8536 0843 05        		.uleb128 0x5
 8537 0844 02        		.byte	0x2
 8538 0845 0000 0000 		.long	.LM230
 8539 0849 15        		.byte	0x15
 8540 084a 00        		.byte	0x0
 8541 084b 05        		.uleb128 0x5
 8542 084c 02        		.byte	0x2
 8543 084d 0000 0000 		.long	.LM231
 8544 0851 17        		.byte	0x17
 8545 0852 00        		.byte	0x0
 8546 0853 05        		.uleb128 0x5
 8547 0854 02        		.byte	0x2
 8548 0855 0000 0000 		.long	.LM232
 8549 0859 16        		.byte	0x16
 8550 085a 00        		.byte	0x0
 8551 085b 05        		.uleb128 0x5
 8552 085c 02        		.byte	0x2
GAS LISTING C:\Users\ADMINI~1\AppData\Local\Temp/ccSP7hgy.s 			page 158


 8553 085d 0000 0000 		.long	.LM233
 8554 0861 15        		.byte	0x15
 8555 0862 00        		.byte	0x0
 8556 0863 05        		.uleb128 0x5
 8557 0864 02        		.byte	0x2
 8558 0865 0000 0000 		.long	.LM234
 8559 0869 15        		.byte	0x15
 8560 086a 00        		.byte	0x0
 8561 086b 05        		.uleb128 0x5
 8562 086c 02        		.byte	0x2
 8563 086d 0000 0000 		.long	.LM235
 8564 0871 03        		.byte	0x3
 8565 0872 C97D      		.sleb128 -311
 8566 0874 01        		.byte	0x1
 8567 0875 00        		.byte	0x0
 8568 0876 05        		.uleb128 0x5
 8569 0877 02        		.byte	0x2
 8570 0878 0000 0000 		.long	.LM236
 8571 087c 15        		.byte	0x15
 8572 087d 00        		.byte	0x0
 8573 087e 05        		.uleb128 0x5
 8574 087f 02        		.byte	0x2
 8575 0880 0000 0000 		.long	.LM237
 8576 0884 15        		.byte	0x15
 8577 0885 00        		.byte	0x0
 8578 0886 05        		.uleb128 0x5
 8579 0887 02        		.byte	0x2
 8580 0888 0000 0000 		.long	.LM238
 8581 088c 15        		.byte	0x15
 8582 088d 00        		.byte	0x0
 8583 088e 05        		.uleb128 0x5
 8584 088f 02        		.byte	0x2
 8585 0890 0000 0000 		.long	.LM239
 8586 0894 15        		.byte	0x15
 8587 0895 00        		.byte	0x0
 8588 0896 05        		.uleb128 0x5
 8589 0897 02        		.byte	0x2
 8590 0898 0000 0000 		.long	.LM240
 8591 089c 15        		.byte	0x15
 8592 089d 00        		.byte	0x0
 8593 089e 05        		.uleb128 0x5
 8594 089f 02        		.byte	0x2
 8595 08a0 0000 0000 		.long	.LM241
 8596 08a4 17        		.byte	0x17
 8597 08a5 00        		.byte	0x0
 8598 08a6 05        		.uleb128 0x5
 8599 08a7 02        		.byte	0x2
 8600 08a8 0000 0000 		.long	.LM242
 8601 08ac 15        		.byte	0x15
 8602 08ad 00        		.byte	0x0
 8603 08ae 05        		.uleb128 0x5
 8604 08af 02        		.byte	0x2
 8605 08b0 0000 0000 		.long	.LM243
 8606 08b4 15        		.byte	0x15
 8607 08b5 00        		.byte	0x0
 8608 08b6 05        		.uleb128 0x5
 8609 08b7 02        		.byte	0x2
GAS LISTING C:\Users\ADMINI~1\AppData\Local\Temp/ccSP7hgy.s 			page 159


 8610 08b8 0000 0000 		.long	.LM244
 8611 08bc 03        		.byte	0x3
 8612 08bd AF02      		.sleb128 303
 8613 08bf 01        		.byte	0x1
 8614 08c0 00        		.byte	0x0
 8615 08c1 05        		.uleb128 0x5
 8616 08c2 02        		.byte	0x2
 8617 08c3 0000 0000 		.long	.LM245
 8618 08c7 15        		.byte	0x15
 8619 08c8 00        		.byte	0x0
 8620 08c9 05        		.uleb128 0x5
 8621 08ca 02        		.byte	0x2
 8622 08cb 0000 0000 		.long	.LM246
 8623 08cf 15        		.byte	0x15
 8624 08d0 00        		.byte	0x0
 8625 08d1 05        		.uleb128 0x5
 8626 08d2 02        		.byte	0x2
 8627 08d3 0000 0000 		.long	.LM247
 8628 08d7 15        		.byte	0x15
 8629 08d8 00        		.byte	0x0
 8630 08d9 05        		.uleb128 0x5
 8631 08da 02        		.byte	0x2
 8632 08db 0000 0000 		.long	.LM248
 8633 08df 15        		.byte	0x15
 8634 08e0 00        		.byte	0x0
 8635 08e1 05        		.uleb128 0x5
 8636 08e2 02        		.byte	0x2
 8637 08e3 0000 0000 		.long	.LM249
 8638 08e7 15        		.byte	0x15
 8639 08e8 00        		.byte	0x0
 8640 08e9 05        		.uleb128 0x5
 8641 08ea 02        		.byte	0x2
 8642 08eb 0000 0000 		.long	.LM250
 8643 08ef 16        		.byte	0x16
 8644 08f0 00        		.byte	0x0
 8645 08f1 05        		.uleb128 0x5
 8646 08f2 02        		.byte	0x2
 8647 08f3 0000 0000 		.long	.LM251
 8648 08f7 15        		.byte	0x15
 8649 08f8 00        		.byte	0x0
 8650 08f9 05        		.uleb128 0x5
 8651 08fa 02        		.byte	0x2
 8652 08fb 0000 0000 		.long	.LM252
 8653 08ff 15        		.byte	0x15
 8654 0900 00        		.byte	0x0
 8655 0901 05        		.uleb128 0x5
 8656 0902 02        		.byte	0x2
 8657 0903 0000 0000 		.long	.LM253
 8658 0907 18        		.byte	0x18
 8659 0908 00        		.byte	0x0
 8660 0909 05        		.uleb128 0x5
 8661 090a 02        		.byte	0x2
 8662 090b 0000 0000 		.long	.LM254
 8663 090f 15        		.byte	0x15
 8664 0910 00        		.byte	0x0
 8665 0911 05        		.uleb128 0x5
 8666 0912 02        		.byte	0x2
GAS LISTING C:\Users\ADMINI~1\AppData\Local\Temp/ccSP7hgy.s 			page 160


 8667 0913 0000 0000 		.long	.LM255
 8668 0917 17        		.byte	0x17
 8669 0918 00        		.byte	0x0
 8670 0919 05        		.uleb128 0x5
 8671 091a 02        		.byte	0x2
 8672 091b 0000 0000 		.long	.LM256
 8673 091f 15        		.byte	0x15
 8674 0920 00        		.byte	0x0
 8675 0921 05        		.uleb128 0x5
 8676 0922 02        		.byte	0x2
 8677 0923 0000 0000 		.long	.LM257
 8678 0927 16        		.byte	0x16
 8679 0928 00        		.byte	0x0
 8680 0929 05        		.uleb128 0x5
 8681 092a 02        		.byte	0x2
 8682 092b 0000 0000 		.long	.LM258
 8683 092f 15        		.byte	0x15
 8684 0930 00        		.byte	0x0
 8685 0931 05        		.uleb128 0x5
 8686 0932 02        		.byte	0x2
 8687 0933 0000 0000 		.long	.LM259
 8688 0937 15        		.byte	0x15
 8689 0938 00        		.byte	0x0
 8690 0939 05        		.uleb128 0x5
 8691 093a 02        		.byte	0x2
 8692 093b 0000 0000 		.long	.LM260
 8693 093f 15        		.byte	0x15
 8694 0940 00        		.byte	0x0
 8695 0941 05        		.uleb128 0x5
 8696 0942 02        		.byte	0x2
 8697 0943 0000 0000 		.long	.LM261
 8698 0947 17        		.byte	0x17
 8699 0948 00        		.byte	0x0
 8700 0949 05        		.uleb128 0x5
 8701 094a 02        		.byte	0x2
 8702 094b 0000 0000 		.long	.LM262
 8703 094f 15        		.byte	0x15
 8704 0950 00        		.byte	0x0
 8705 0951 05        		.uleb128 0x5
 8706 0952 02        		.byte	0x2
 8707 0953 0000 0000 		.long	.LM263
 8708 0957 15        		.byte	0x15
 8709 0958 00        		.byte	0x0
 8710 0959 05        		.uleb128 0x5
 8711 095a 02        		.byte	0x2
 8712 095b 0000 0000 		.long	.LM264
 8713 095f 17        		.byte	0x17
 8714 0960 00        		.byte	0x0
 8715 0961 05        		.uleb128 0x5
 8716 0962 02        		.byte	0x2
 8717 0963 0000 0000 		.long	.LM265
 8718 0967 16        		.byte	0x16
 8719 0968 00        		.byte	0x0
 8720 0969 05        		.uleb128 0x5
 8721 096a 02        		.byte	0x2
 8722 096b 0000 0000 		.long	.LM266
 8723 096f 17        		.byte	0x17
GAS LISTING C:\Users\ADMINI~1\AppData\Local\Temp/ccSP7hgy.s 			page 161


 8724 0970 00        		.byte	0x0
 8725 0971 05        		.uleb128 0x5
 8726 0972 02        		.byte	0x2
 8727 0973 0000 0000 		.long	.LM267
 8728 0977 15        		.byte	0x15
 8729 0978 00        		.byte	0x0
 8730 0979 05        		.uleb128 0x5
 8731 097a 02        		.byte	0x2
 8732 097b 0000 0000 		.long	.LM268
 8733 097f 15        		.byte	0x15
 8734 0980 00        		.byte	0x0
 8735 0981 05        		.uleb128 0x5
 8736 0982 02        		.byte	0x2
 8737 0983 0000 0000 		.long	.LM269
 8738 0987 15        		.byte	0x15
 8739 0988 00        		.byte	0x0
 8740 0989 05        		.uleb128 0x5
 8741 098a 02        		.byte	0x2
 8742 098b 0000 0000 		.long	.LM270
 8743 098f 15        		.byte	0x15
 8744 0990 00        		.byte	0x0
 8745 0991 05        		.uleb128 0x5
 8746 0992 02        		.byte	0x2
 8747 0993 0000 0000 		.long	.LM271
 8748 0997 03        		.byte	0x3
 8749 0998 9B7B      		.sleb128 -613
 8750 099a 01        		.byte	0x1
 8751 099b 00        		.byte	0x0
 8752 099c 05        		.uleb128 0x5
 8753 099d 02        		.byte	0x2
 8754 099e 0000 0000 		.long	.LM272
 8755 09a2 15        		.byte	0x15
 8756 09a3 00        		.byte	0x0
 8757 09a4 05        		.uleb128 0x5
 8758 09a5 02        		.byte	0x2
 8759 09a6 0000 0000 		.long	.LM273
 8760 09aa 03        		.byte	0x3
 8761 09ab E604      		.sleb128 614
 8762 09ad 01        		.byte	0x1
 8763 09ae 00        		.byte	0x0
 8764 09af 05        		.uleb128 0x5
 8765 09b0 02        		.byte	0x2
 8766 09b1 0000 0000 		.long	.LM274
 8767 09b5 15        		.byte	0x15
 8768 09b6 00        		.byte	0x0
 8769 09b7 05        		.uleb128 0x5
 8770 09b8 02        		.byte	0x2
 8771 09b9 0000 0000 		.long	.LM275
 8772 09bd 15        		.byte	0x15
 8773 09be 00        		.byte	0x0
 8774 09bf 05        		.uleb128 0x5
 8775 09c0 02        		.byte	0x2
 8776 09c1 0000 0000 		.long	.LM276
 8777 09c5 1E        		.byte	0x1e
 8778 09c6 00        		.byte	0x0
 8779 09c7 05        		.uleb128 0x5
 8780 09c8 02        		.byte	0x2
GAS LISTING C:\Users\ADMINI~1\AppData\Local\Temp/ccSP7hgy.s 			page 162


 8781 09c9 0000 0000 		.long	.LM277
 8782 09cd 16        		.byte	0x16
 8783 09ce 00        		.byte	0x0
 8784 09cf 05        		.uleb128 0x5
 8785 09d0 02        		.byte	0x2
 8786 09d1 0000 0000 		.long	.LM278
 8787 09d5 16        		.byte	0x16
 8788 09d6 00        		.byte	0x0
 8789 09d7 05        		.uleb128 0x5
 8790 09d8 02        		.byte	0x2
 8791 09d9 0000 0000 		.long	.LM279
 8792 09dd 15        		.byte	0x15
 8793 09de 00        		.byte	0x0
 8794 09df 05        		.uleb128 0x5
 8795 09e0 02        		.byte	0x2
 8796 09e1 0000 0000 		.long	.LM280
 8797 09e5 16        		.byte	0x16
 8798 09e6 00        		.byte	0x0
 8799 09e7 05        		.uleb128 0x5
 8800 09e8 02        		.byte	0x2
 8801 09e9 0000 0000 		.long	.LM281
 8802 09ed 15        		.byte	0x15
 8803 09ee 00        		.byte	0x0
 8804 09ef 05        		.uleb128 0x5
 8805 09f0 02        		.byte	0x2
 8806 09f1 0000 0000 		.long	.LM282
 8807 09f5 1D        		.byte	0x1d
 8808 09f6 00        		.byte	0x0
 8809 09f7 05        		.uleb128 0x5
 8810 09f8 02        		.byte	0x2
 8811 09f9 0000 0000 		.long	.LM283
 8812 09fd 16        		.byte	0x16
 8813 09fe 00        		.byte	0x0
 8814 09ff 05        		.uleb128 0x5
 8815 0a00 02        		.byte	0x2
 8816 0a01 0000 0000 		.long	.LM284
 8817 0a05 16        		.byte	0x16
 8818 0a06 00        		.byte	0x0
 8819 0a07 05        		.uleb128 0x5
 8820 0a08 02        		.byte	0x2
 8821 0a09 0000 0000 		.long	.LM285
 8822 0a0d 16        		.byte	0x16
 8823 0a0e 00        		.byte	0x0
 8824 0a0f 05        		.uleb128 0x5
 8825 0a10 02        		.byte	0x2
 8826 0a11 0000 0000 		.long	.LM286
 8827 0a15 16        		.byte	0x16
 8828 0a16 00        		.byte	0x0
 8829 0a17 05        		.uleb128 0x5
 8830 0a18 02        		.byte	0x2
 8831 0a19 0000 0000 		.long	.LM287
 8832 0a1d 17        		.byte	0x17
 8833 0a1e 00        		.byte	0x0
 8834 0a1f 05        		.uleb128 0x5
 8835 0a20 02        		.byte	0x2
 8836 0a21 0000 0000 		.long	.LM288
 8837 0a25 15        		.byte	0x15
GAS LISTING C:\Users\ADMINI~1\AppData\Local\Temp/ccSP7hgy.s 			page 163


 8838 0a26 00        		.byte	0x0
 8839 0a27 05        		.uleb128 0x5
 8840 0a28 02        		.byte	0x2
 8841 0a29 0000 0000 		.long	.LM289
 8842 0a2d 15        		.byte	0x15
 8843 0a2e 00        		.byte	0x0
 8844 0a2f 05        		.uleb128 0x5
 8845 0a30 02        		.byte	0x2
 8846 0a31 0000 0000 		.long	.LM290
 8847 0a35 15        		.byte	0x15
 8848 0a36 00        		.byte	0x0
 8849 0a37 05        		.uleb128 0x5
 8850 0a38 02        		.byte	0x2
 8851 0a39 0000 0000 		.long	.LM291
 8852 0a3d 16        		.byte	0x16
 8853 0a3e 00        		.byte	0x0
 8854 0a3f 05        		.uleb128 0x5
 8855 0a40 02        		.byte	0x2
 8856 0a41 0000 0000 		.long	.LM292
 8857 0a45 15        		.byte	0x15
 8858 0a46 00        		.byte	0x0
 8859 0a47 05        		.uleb128 0x5
 8860 0a48 02        		.byte	0x2
 8861 0a49 0000 0000 		.long	.LM293
 8862 0a4d 1E        		.byte	0x1e
 8863 0a4e 00        		.byte	0x0
 8864 0a4f 05        		.uleb128 0x5
 8865 0a50 02        		.byte	0x2
 8866 0a51 0000 0000 		.long	.LM294
 8867 0a55 04        		.byte	0x4
 8868 0a56 02        		.uleb128 0x2
 8869 0a57 03        		.byte	0x3
 8870 0a58 F879      		.sleb128 -776
 8871 0a5a 01        		.byte	0x1
 8872 0a5b 00        		.byte	0x0
 8873 0a5c 05        		.uleb128 0x5
 8874 0a5d 02        		.byte	0x2
 8875 0a5e 0000 0000 		.long	.LM295
 8876 0a62 04        		.byte	0x4
 8877 0a63 03        		.uleb128 0x3
 8878 0a64 27        		.byte	0x27
 8879 0a65 00        		.byte	0x0
 8880 0a66 05        		.uleb128 0x5
 8881 0a67 02        		.byte	0x2
 8882 0a68 0000 0000 		.long	.LM296
 8883 0a6c 10        		.byte	0x10
 8884 0a6d 00        		.byte	0x0
 8885 0a6e 05        		.uleb128 0x5
 8886 0a6f 02        		.byte	0x2
 8887 0a70 0000 0000 		.long	.LM297
 8888 0a74 04        		.byte	0x4
 8889 0a75 01        		.uleb128 0x1
 8890 0a76 03        		.byte	0x3
 8891 0a77 FC05      		.sleb128 764
 8892 0a79 01        		.byte	0x1
 8893 0a7a 00        		.byte	0x0
 8894 0a7b 05        		.uleb128 0x5
GAS LISTING C:\Users\ADMINI~1\AppData\Local\Temp/ccSP7hgy.s 			page 164


 8895 0a7c 02        		.byte	0x2
 8896 0a7d 0000 0000 		.long	.LM298
 8897 0a81 16        		.byte	0x16
 8898 0a82 00        		.byte	0x0
 8899 0a83 05        		.uleb128 0x5
 8900 0a84 02        		.byte	0x2
 8901 0a85 0000 0000 		.long	.LM299
 8902 0a89 12        		.byte	0x12
 8903 0a8a 00        		.byte	0x0
 8904 0a8b 05        		.uleb128 0x5
 8905 0a8c 02        		.byte	0x2
 8906 0a8d 0000 0000 		.long	.LM300
 8907 0a91 16        		.byte	0x16
 8908 0a92 00        		.byte	0x0
 8909 0a93 05        		.uleb128 0x5
 8910 0a94 02        		.byte	0x2
 8911 0a95 0000 0000 		.long	.LM301
 8912 0a99 15        		.byte	0x15
 8913 0a9a 00        		.byte	0x0
 8914 0a9b 05        		.uleb128 0x5
 8915 0a9c 02        		.byte	0x2
 8916 0a9d 0000 0000 		.long	.LM302
 8917 0aa1 15        		.byte	0x15
 8918 0aa2 00        		.byte	0x0
 8919 0aa3 05        		.uleb128 0x5
 8920 0aa4 02        		.byte	0x2
 8921 0aa5 0000 0000 		.long	.LM303
 8922 0aa9 15        		.byte	0x15
 8923 0aaa 00        		.byte	0x0
 8924 0aab 05        		.uleb128 0x5
 8925 0aac 02        		.byte	0x2
 8926 0aad 0000 0000 		.long	.LM304
 8927 0ab1 15        		.byte	0x15
 8928 0ab2 00        		.byte	0x0
 8929 0ab3 05        		.uleb128 0x5
 8930 0ab4 02        		.byte	0x2
 8931 0ab5 0000 0000 		.long	.LM305
 8932 0ab9 15        		.byte	0x15
 8933 0aba 00        		.byte	0x0
 8934 0abb 05        		.uleb128 0x5
 8935 0abc 02        		.byte	0x2
 8936 0abd 0000 0000 		.long	.LM306
 8937 0ac1 15        		.byte	0x15
 8938 0ac2 00        		.byte	0x0
 8939 0ac3 05        		.uleb128 0x5
 8940 0ac4 02        		.byte	0x2
 8941 0ac5 0000 0000 		.long	.LM307
 8942 0ac9 16        		.byte	0x16
 8943 0aca 00        		.byte	0x0
 8944 0acb 05        		.uleb128 0x5
 8945 0acc 02        		.byte	0x2
 8946 0acd 0000 0000 		.long	.LM308
 8947 0ad1 15        		.byte	0x15
 8948 0ad2 00        		.byte	0x0
 8949 0ad3 05        		.uleb128 0x5
 8950 0ad4 02        		.byte	0x2
 8951 0ad5 0000 0000 		.long	.LM309
GAS LISTING C:\Users\ADMINI~1\AppData\Local\Temp/ccSP7hgy.s 			page 165


 8952 0ad9 15        		.byte	0x15
 8953 0ada 00        		.byte	0x0
 8954 0adb 05        		.uleb128 0x5
 8955 0adc 02        		.byte	0x2
 8956 0add 0000 0000 		.long	.LM310
 8957 0ae1 15        		.byte	0x15
 8958 0ae2 00        		.byte	0x0
 8959 0ae3 05        		.uleb128 0x5
 8960 0ae4 02        		.byte	0x2
 8961 0ae5 0000 0000 		.long	.LM311
 8962 0ae9 15        		.byte	0x15
 8963 0aea 00        		.byte	0x0
 8964 0aeb 05        		.uleb128 0x5
 8965 0aec 02        		.byte	0x2
 8966 0aed 0000 0000 		.long	.LM312
 8967 0af1 15        		.byte	0x15
 8968 0af2 00        		.byte	0x0
 8969 0af3 05        		.uleb128 0x5
 8970 0af4 02        		.byte	0x2
 8971 0af5 0000 0000 		.long	.LM313
 8972 0af9 17        		.byte	0x17
 8973 0afa 00        		.byte	0x0
 8974 0afb 05        		.uleb128 0x5
 8975 0afc 02        		.byte	0x2
 8976 0afd 0000 0000 		.long	.LM314
 8977 0b01 15        		.byte	0x15
 8978 0b02 00        		.byte	0x0
 8979 0b03 05        		.uleb128 0x5
 8980 0b04 02        		.byte	0x2
 8981 0b05 0000 0000 		.long	.LM315
 8982 0b09 1B        		.byte	0x1b
 8983 0b0a 00        		.byte	0x0
 8984 0b0b 05        		.uleb128 0x5
 8985 0b0c 02        		.byte	0x2
 8986 0b0d 0000 0000 		.long	.LM316
 8987 0b11 15        		.byte	0x15
 8988 0b12 00        		.byte	0x0
 8989 0b13 05        		.uleb128 0x5
 8990 0b14 02        		.byte	0x2
 8991 0b15 0000 0000 		.long	.LM317
 8992 0b19 15        		.byte	0x15
 8993 0b1a 00        		.byte	0x0
 8994 0b1b 05        		.uleb128 0x5
 8995 0b1c 02        		.byte	0x2
 8996 0b1d 0000 0000 		.long	.LM318
 8997 0b21 15        		.byte	0x15
 8998 0b22 00        		.byte	0x0
 8999 0b23 05        		.uleb128 0x5
 9000 0b24 02        		.byte	0x2
 9001 0b25 0000 0000 		.long	.LM319
 9002 0b29 15        		.byte	0x15
 9003 0b2a 00        		.byte	0x0
 9004 0b2b 05        		.uleb128 0x5
 9005 0b2c 02        		.byte	0x2
 9006 0b2d 0000 0000 		.long	.LM320
 9007 0b31 15        		.byte	0x15
 9008 0b32 00        		.byte	0x0
GAS LISTING C:\Users\ADMINI~1\AppData\Local\Temp/ccSP7hgy.s 			page 166


 9009 0b33 05        		.uleb128 0x5
 9010 0b34 02        		.byte	0x2
 9011 0b35 0000 0000 		.long	.LM321
 9012 0b39 15        		.byte	0x15
 9013 0b3a 00        		.byte	0x0
 9014 0b3b 05        		.uleb128 0x5
 9015 0b3c 02        		.byte	0x2
 9016 0b3d 0000 0000 		.long	.LM322
 9017 0b41 15        		.byte	0x15
 9018 0b42 00        		.byte	0x0
 9019 0b43 05        		.uleb128 0x5
 9020 0b44 02        		.byte	0x2
 9021 0b45 0000 0000 		.long	.LM323
 9022 0b49 15        		.byte	0x15
 9023 0b4a 00        		.byte	0x0
 9024 0b4b 05        		.uleb128 0x5
 9025 0b4c 02        		.byte	0x2
 9026 0b4d 0000 0000 		.long	.LM324
 9027 0b51 03        		.byte	0x3
 9028 0b52 EA7A      		.sleb128 -662
 9029 0b54 01        		.byte	0x1
 9030 0b55 00        		.byte	0x0
 9031 0b56 05        		.uleb128 0x5
 9032 0b57 02        		.byte	0x2
 9033 0b58 0000 0000 		.long	.LM325
 9034 0b5c 03        		.byte	0x3
 9035 0b5d 9805      		.sleb128 664
 9036 0b5f 01        		.byte	0x1
 9037 0b60 00        		.byte	0x0
 9038 0b61 05        		.uleb128 0x5
 9039 0b62 02        		.byte	0x2
 9040 0b63 0000 0000 		.long	.LM326
 9041 0b67 15        		.byte	0x15
 9042 0b68 00        		.byte	0x0
 9043 0b69 05        		.uleb128 0x5
 9044 0b6a 02        		.byte	0x2
 9045 0b6b 0000 0000 		.long	.LM327
 9046 0b6f 16        		.byte	0x16
 9047 0b70 00        		.byte	0x0
 9048 0b71 05        		.uleb128 0x5
 9049 0b72 02        		.byte	0x2
 9050 0b73 0000 0000 		.long	.LM328
 9051 0b77 15        		.byte	0x15
 9052 0b78 00        		.byte	0x0
 9053 0b79 05        		.uleb128 0x5
 9054 0b7a 02        		.byte	0x2
 9055 0b7b 0000 0000 		.long	.LM329
 9056 0b7f 15        		.byte	0x15
 9057 0b80 00        		.byte	0x0
 9058 0b81 05        		.uleb128 0x5
 9059 0b82 02        		.byte	0x2
 9060 0b83 0000 0000 		.long	.LM330
 9061 0b87 16        		.byte	0x16
 9062 0b88 00        		.byte	0x0
 9063 0b89 05        		.uleb128 0x5
 9064 0b8a 02        		.byte	0x2
 9065 0b8b 0000 0000 		.long	.LM331
GAS LISTING C:\Users\ADMINI~1\AppData\Local\Temp/ccSP7hgy.s 			page 167


 9066 0b8f 16        		.byte	0x16
 9067 0b90 00        		.byte	0x0
 9068 0b91 05        		.uleb128 0x5
 9069 0b92 02        		.byte	0x2
 9070 0b93 0000 0000 		.long	.LM332
 9071 0b97 18        		.byte	0x18
 9072 0b98 00        		.byte	0x0
 9073 0b99 05        		.uleb128 0x5
 9074 0b9a 02        		.byte	0x2
 9075 0b9b 0000 0000 		.long	.LM333
 9076 0b9f 16        		.byte	0x16
 9077 0ba0 00        		.byte	0x0
 9078 0ba1 05        		.uleb128 0x5
 9079 0ba2 02        		.byte	0x2
 9080 0ba3 0000 0000 		.long	.LM334
 9081 0ba7 16        		.byte	0x16
 9082 0ba8 00        		.byte	0x0
 9083 0ba9 05        		.uleb128 0x5
 9084 0baa 02        		.byte	0x2
 9085 0bab 0000 0000 		.long	.LM335
 9086 0baf 17        		.byte	0x17
 9087 0bb0 00        		.byte	0x0
 9088 0bb1 05        		.uleb128 0x5
 9089 0bb2 02        		.byte	0x2
 9090 0bb3 0000 0000 		.long	.LM336
 9091 0bb7 19        		.byte	0x19
 9092 0bb8 00        		.byte	0x0
 9093 0bb9 05        		.uleb128 0x5
 9094 0bba 02        		.byte	0x2
 9095 0bbb 0000 0000 		.long	.LM337
 9096 0bbf 15        		.byte	0x15
 9097 0bc0 00        		.byte	0x0
 9098 0bc1 05        		.uleb128 0x5
 9099 0bc2 02        		.byte	0x2
 9100 0bc3 0000 0000 		.long	.LM338
 9101 0bc7 15        		.byte	0x15
 9102 0bc8 00        		.byte	0x0
 9103 0bc9 05        		.uleb128 0x5
 9104 0bca 02        		.byte	0x2
 9105 0bcb 0000 0000 		.long	.LM339
 9106 0bcf 15        		.byte	0x15
 9107 0bd0 00        		.byte	0x0
 9108 0bd1 05        		.uleb128 0x5
 9109 0bd2 02        		.byte	0x2
 9110 0bd3 0000 0000 		.long	.LM340
 9111 0bd7 17        		.byte	0x17
 9112 0bd8 00        		.byte	0x0
 9113 0bd9 05        		.uleb128 0x5
 9114 0bda 02        		.byte	0x2
 9115 0bdb 0000 0000 		.long	.LM341
 9116 0bdf 15        		.byte	0x15
 9117 0be0 00        		.byte	0x0
 9118 0be1 05        		.uleb128 0x5
 9119 0be2 02        		.byte	0x2
 9120 0be3 0000 0000 		.long	.LM342
 9121 0be7 17        		.byte	0x17
 9122 0be8 00        		.byte	0x0
GAS LISTING C:\Users\ADMINI~1\AppData\Local\Temp/ccSP7hgy.s 			page 168


 9123 0be9 05        		.uleb128 0x5
 9124 0bea 02        		.byte	0x2
 9125 0beb 0000 0000 		.long	.LM343
 9126 0bef 15        		.byte	0x15
 9127 0bf0 00        		.byte	0x0
 9128 0bf1 05        		.uleb128 0x5
 9129 0bf2 02        		.byte	0x2
 9130 0bf3 0000 0000 		.long	.LM344
 9131 0bf7 15        		.byte	0x15
 9132 0bf8 00        		.byte	0x0
 9133 0bf9 05        		.uleb128 0x5
 9134 0bfa 02        		.byte	0x2
 9135 0bfb 0000 0000 		.long	.LM345
 9136 0bff 04        		.byte	0x4
 9137 0c00 02        		.uleb128 0x2
 9138 0c01 03        		.byte	0x3
 9139 0c02 AC79      		.sleb128 -852
 9140 0c04 01        		.byte	0x1
 9141 0c05 00        		.byte	0x0
 9142 0c06 05        		.uleb128 0x5
 9143 0c07 02        		.byte	0x2
 9144 0c08 0000 0000 		.long	.LM346
 9145 0c0c 04        		.byte	0x4
 9146 0c0d 03        		.uleb128 0x3
 9147 0c0e 27        		.byte	0x27
 9148 0c0f 00        		.byte	0x0
 9149 0c10 05        		.uleb128 0x5
 9150 0c11 02        		.byte	0x2
 9151 0c12 0000 0000 		.long	.LM347
 9152 0c16 10        		.byte	0x10
 9153 0c17 00        		.byte	0x0
 9154 0c18 05        		.uleb128 0x5
 9155 0c19 02        		.byte	0x2
 9156 0c1a 0000 0000 		.long	.LM348
 9157 0c1e 04        		.byte	0x4
 9158 0c1f 01        		.uleb128 0x1
 9159 0c20 03        		.byte	0x3
 9160 0c21 CD06      		.sleb128 845
 9161 0c23 01        		.byte	0x1
 9162 0c24 00        		.byte	0x0
 9163 0c25 05        		.uleb128 0x5
 9164 0c26 02        		.byte	0x2
 9165 0c27 0000 0000 		.long	.LM349
 9166 0c2b 17        		.byte	0x17
 9167 0c2c 00        		.byte	0x0
 9168 0c2d 05        		.uleb128 0x5
 9169 0c2e 02        		.byte	0x2
 9170 0c2f 0000 0000 		.long	.LM350
 9171 0c33 03        		.byte	0x3
 9172 0c34 CA7C      		.sleb128 -438
 9173 0c36 01        		.byte	0x1
 9174 0c37 00        		.byte	0x0
 9175 0c38 05        		.uleb128 0x5
 9176 0c39 02        		.byte	0x2
 9177 0c3a 0000 0000 		.long	.LM351
 9178 0c3e 01        		.byte	0x1
 9179 0c3f 00        		.byte	0x0
GAS LISTING C:\Users\ADMINI~1\AppData\Local\Temp/ccSP7hgy.s 			page 169


 9180 0c40 05        		.uleb128 0x5
 9181 0c41 02        		.byte	0x2
 9182 0c42 0000 0000 		.long	.LM352
 9183 0c46 1D        		.byte	0x1d
 9184 0c47 00        		.byte	0x0
 9185 0c48 05        		.uleb128 0x5
 9186 0c49 02        		.byte	0x2
 9187 0c4a 0000 0000 		.long	.LM353
 9188 0c4e 10        		.byte	0x10
 9189 0c4f 00        		.byte	0x0
 9190 0c50 05        		.uleb128 0x5
 9191 0c51 02        		.byte	0x2
 9192 0c52 0000 0000 		.long	.LM354
 9193 0c56 13        		.byte	0x13
 9194 0c57 00        		.byte	0x0
 9195 0c58 05        		.uleb128 0x5
 9196 0c59 02        		.byte	0x2
 9197 0c5a 0000 0000 		.long	.LM355
 9198 0c5e 1C        		.byte	0x1c
 9199 0c5f 00        		.byte	0x0
 9200 0c60 05        		.uleb128 0x5
 9201 0c61 02        		.byte	0x2
 9202 0c62 0000 0000 		.long	.LM356
 9203 0c66 16        		.byte	0x16
 9204 0c67 00        		.byte	0x0
 9205 0c68 05        		.uleb128 0x5
 9206 0c69 02        		.byte	0x2
 9207 0c6a 0000 0000 		.long	.LM357
 9208 0c6e 16        		.byte	0x16
 9209 0c6f 00        		.byte	0x0
 9210 0c70 05        		.uleb128 0x5
 9211 0c71 02        		.byte	0x2
 9212 0c72 0000 0000 		.long	.LM358
 9213 0c76 03        		.byte	0x3
 9214 0c77 B07D      		.sleb128 -336
 9215 0c79 01        		.byte	0x1
 9216 0c7a 00        		.byte	0x0
 9217 0c7b 05        		.uleb128 0x5
 9218 0c7c 02        		.byte	0x2
 9219 0c7d 0000 0000 		.long	.LM359
 9220 0c81 15        		.byte	0x15
 9221 0c82 00        		.byte	0x0
 9222 0c83 05        		.uleb128 0x5
 9223 0c84 02        		.byte	0x2
 9224 0c85 0000 0000 		.long	.LM360
 9225 0c89 03        		.byte	0x3
 9226 0c8a D102      		.sleb128 337
 9227 0c8c 01        		.byte	0x1
 9228 0c8d 00        		.byte	0x0
 9229 0c8e 05        		.uleb128 0x5
 9230 0c8f 02        		.byte	0x2
 9231 0c90 0000 0000 		.long	.LM361
 9232 0c94 16        		.byte	0x16
 9233 0c95 00        		.byte	0x0
 9234 0c96 05        		.uleb128 0x5
 9235 0c97 02        		.byte	0x2
 9236 0c98 0000 0000 		.long	.LM362
GAS LISTING C:\Users\ADMINI~1\AppData\Local\Temp/ccSP7hgy.s 			page 170


 9237 0c9c 15        		.byte	0x15
 9238 0c9d 00        		.byte	0x0
 9239 0c9e 05        		.uleb128 0x5
 9240 0c9f 02        		.byte	0x2
 9241 0ca0 0000 0000 		.long	.LM363
 9242 0ca4 15        		.byte	0x15
 9243 0ca5 00        		.byte	0x0
 9244 0ca6 05        		.uleb128 0x5
 9245 0ca7 02        		.byte	0x2
 9246 0ca8 0000 0000 		.long	.LM364
 9247 0cac 15        		.byte	0x15
 9248 0cad 00        		.byte	0x0
 9249 0cae 05        		.uleb128 0x5
 9250 0caf 02        		.byte	0x2
 9251 0cb0 0000 0000 		.long	.LM365
 9252 0cb4 15        		.byte	0x15
 9253 0cb5 00        		.byte	0x0
 9254 0cb6 05        		.uleb128 0x5
 9255 0cb7 02        		.byte	0x2
 9256 0cb8 0000 0000 		.long	.LM366
 9257 0cbc 15        		.byte	0x15
 9258 0cbd 00        		.byte	0x0
 9259 0cbe 05        		.uleb128 0x5
 9260 0cbf 02        		.byte	0x2
 9261 0cc0 0000 0000 		.long	.LM367
 9262 0cc4 18        		.byte	0x18
 9263 0cc5 00        		.byte	0x0
 9264 0cc6 05        		.uleb128 0x5
 9265 0cc7 02        		.byte	0x2
 9266 0cc8 0000 0000 		.long	.LM368
 9267 0ccc 15        		.byte	0x15
 9268 0ccd 00        		.byte	0x0
 9269 0cce 05        		.uleb128 0x5
 9270 0ccf 02        		.byte	0x2
 9271 0cd0 0000 0000 		.long	.LM369
 9272 0cd4 03        		.byte	0x3
 9273 0cd5 56        		.sleb128 -42
 9274 0cd6 01        		.byte	0x1
 9275 0cd7 00        		.byte	0x0
 9276 0cd8 05        		.uleb128 0x5
 9277 0cd9 02        		.byte	0x2
 9278 0cda 0000 0000 		.long	.LM370
 9279 0cde 15        		.byte	0x15
 9280 0cdf 00        		.byte	0x0
 9281 0ce0 05        		.uleb128 0x5
 9282 0ce1 02        		.byte	0x2
 9283 0ce2 0000 0000 		.long	.LM371
 9284 0ce6 15        		.byte	0x15
 9285 0ce7 00        		.byte	0x0
 9286 0ce8 05        		.uleb128 0x5
 9287 0ce9 02        		.byte	0x2
 9288 0cea 0000 0000 		.long	.LM372
 9289 0cee 15        		.byte	0x15
 9290 0cef 00        		.byte	0x0
 9291 0cf0 05        		.uleb128 0x5
 9292 0cf1 02        		.byte	0x2
 9293 0cf2 0000 0000 		.long	.LM373
GAS LISTING C:\Users\ADMINI~1\AppData\Local\Temp/ccSP7hgy.s 			page 171


 9294 0cf6 15        		.byte	0x15
 9295 0cf7 00        		.byte	0x0
 9296 0cf8 05        		.uleb128 0x5
 9297 0cf9 02        		.byte	0x2
 9298 0cfa 0000 0000 		.long	.LM374
 9299 0cfe 16        		.byte	0x16
 9300 0cff 00        		.byte	0x0
 9301 0d00 05        		.uleb128 0x5
 9302 0d01 02        		.byte	0x2
 9303 0d02 0000 0000 		.long	.LM375
 9304 0d06 16        		.byte	0x16
 9305 0d07 00        		.byte	0x0
 9306 0d08 05        		.uleb128 0x5
 9307 0d09 02        		.byte	0x2
 9308 0d0a 0000 0000 		.long	.LM376
 9309 0d0e 15        		.byte	0x15
 9310 0d0f 00        		.byte	0x0
 9311 0d10 05        		.uleb128 0x5
 9312 0d11 02        		.byte	0x2
 9313 0d12 0000 0000 		.long	.LM377
 9314 0d16 03        		.byte	0x3
 9315 0d17 8D7E      		.sleb128 -243
 9316 0d19 01        		.byte	0x1
 9317 0d1a 00        		.byte	0x0
 9318 0d1b 05        		.uleb128 0x5
 9319 0d1c 02        		.byte	0x2
 9320 0d1d 0000 0000 		.long	.LM378
 9321 0d21 16        		.byte	0x16
 9322 0d22 00        		.byte	0x0
 9323 0d23 05        		.uleb128 0x5
 9324 0d24 02        		.byte	0x2
 9325 0d25 0000 0000 		.long	.LM379
 9326 0d29 03        		.byte	0x3
 9327 0d2a 6A        		.sleb128 -22
 9328 0d2b 01        		.byte	0x1
 9329 0d2c 00        		.byte	0x0
 9330 0d2d 05        		.uleb128 0x5
 9331 0d2e 02        		.byte	0x2
 9332 0d2f 0000 0000 		.long	.LM380
 9333 0d33 38        		.byte	0x38
 9334 0d34 00        		.byte	0x0
 9335 0d35 05        		.uleb128 0x5
 9336 0d36 02        		.byte	0x2
 9337 0d37 0000 0000 		.long	.LM381
 9338 0d3b 03        		.byte	0x3
 9339 0d3c 54        		.sleb128 -44
 9340 0d3d 01        		.byte	0x1
 9341 0d3e 00        		.byte	0x0
 9342 0d3f 05        		.uleb128 0x5
 9343 0d40 02        		.byte	0x2
 9344 0d41 0000 0000 		.long	.LM382
 9345 0d45 45        		.byte	0x45
 9346 0d46 00        		.byte	0x0
 9347 0d47 05        		.uleb128 0x5
 9348 0d48 02        		.byte	0x2
 9349 0d49 0000 0000 		.long	.LM383
 9350 0d4d 03        		.byte	0x3
GAS LISTING C:\Users\ADMINI~1\AppData\Local\Temp/ccSP7hgy.s 			page 172


 9351 0d4e 9302      		.sleb128 275
 9352 0d50 01        		.byte	0x1
 9353 0d51 00        		.byte	0x0
 9354 0d52 05        		.uleb128 0x5
 9355 0d53 02        		.byte	0x2
 9356 0d54 0000 0000 		.long	.LM384
 9357 0d58 15        		.byte	0x15
 9358 0d59 00        		.byte	0x0
 9359 0d5a 05        		.uleb128 0x5
 9360 0d5b 02        		.byte	0x2
 9361 0d5c 0000 0000 		.long	.LM385
 9362 0d60 03        		.byte	0x3
 9363 0d61 C87D      		.sleb128 -312
 9364 0d63 01        		.byte	0x1
 9365 0d64 00        		.byte	0x0
 9366 0d65 05        		.uleb128 0x5
 9367 0d66 02        		.byte	0x2
 9368 0d67 0000 0000 		.long	.LM386
 9369 0d6b 03        		.byte	0x3
 9370 0d6c BC02      		.sleb128 316
 9371 0d6e 01        		.byte	0x1
 9372 0d6f 00        		.byte	0x0
 9373 0d70 05        		.uleb128 0x5
 9374 0d71 02        		.byte	0x2
 9375 0d72 0000 0000 		.long	.LM387
 9376 0d76 16        		.byte	0x16
 9377 0d77 00        		.byte	0x0
 9378 0d78 05        		.uleb128 0x5
 9379 0d79 02        		.byte	0x2
 9380 0d7a 0000 0000 		.long	.LM388
 9381 0d7e 15        		.byte	0x15
 9382 0d7f 00        		.byte	0x0
 9383 0d80 05        		.uleb128 0x5
 9384 0d81 02        		.byte	0x2
 9385 0d82 0000 0000 		.long	.LM389
 9386 0d86 16        		.byte	0x16
 9387 0d87 00        		.byte	0x0
 9388 0d88 05        		.uleb128 0x5
 9389 0d89 02        		.byte	0x2
 9390 0d8a 0000 0000 		.long	.LM390
 9391 0d8e 17        		.byte	0x17
 9392 0d8f 00        		.byte	0x0
 9393 0d90 05        		.uleb128 0x5
 9394 0d91 02        		.byte	0x2
 9395 0d92 0000 0000 		.long	.LM391
 9396 0d96 03        		.byte	0x3
 9397 0d97 F77C      		.sleb128 -393
 9398 0d99 01        		.byte	0x1
 9399 0d9a 00        		.byte	0x0
 9400 0d9b 05        		.uleb128 0x5
 9401 0d9c 02        		.byte	0x2
 9402 0d9d 0000 0000 		.long	.LM392
 9403 0da1 03        		.byte	0x3
 9404 0da2 B07F      		.sleb128 -80
 9405 0da4 01        		.byte	0x1
 9406 0da5 00        		.byte	0x0
 9407 0da6 05        		.uleb128 0x5
GAS LISTING C:\Users\ADMINI~1\AppData\Local\Temp/ccSP7hgy.s 			page 173


 9408 0da7 02        		.byte	0x2
 9409 0da8 0000 0000 		.long	.LM393
 9410 0dac 65        		.byte	0x65
 9411 0dad 00        		.byte	0x0
 9412 0dae 05        		.uleb128 0x5
 9413 0daf 02        		.byte	0x2
 9414 0db0 0000 0000 		.long	.LM394
 9415 0db4 03        		.byte	0x3
 9416 0db5 5B        		.sleb128 -37
 9417 0db6 01        		.byte	0x1
 9418 0db7 00        		.byte	0x0
 9419 0db8 05        		.uleb128 0x5
 9420 0db9 02        		.byte	0x2
 9421 0dba 0000 0000 		.long	.LM395
 9422 0dbe 16        		.byte	0x16
 9423 0dbf 00        		.byte	0x0
 9424 0dc0 05        		.uleb128 0x5
 9425 0dc1 02        		.byte	0x2
 9426 0dc2 0000 0000 		.long	.LM396
 9427 0dc6 03        		.byte	0x3
 9428 0dc7 6D        		.sleb128 -19
 9429 0dc8 01        		.byte	0x1
 9430 0dc9 00        		.byte	0x0
 9431 0dca 05        		.uleb128 0x5
 9432 0dcb 02        		.byte	0x2
 9433 0dcc 0000 0000 		.long	.LM397
 9434 0dd0 03        		.byte	0x3
 9435 0dd1 61        		.sleb128 -31
 9436 0dd2 01        		.byte	0x1
 9437 0dd3 00        		.byte	0x0
 9438 0dd4 05        		.uleb128 0x5
 9439 0dd5 02        		.byte	0x2
 9440 0dd6 0000 0000 		.long	.LM398
 9441 0dda 37        		.byte	0x37
 9442 0ddb 00        		.byte	0x0
 9443 0ddc 05        		.uleb128 0x5
 9444 0ddd 02        		.byte	0x2
 9445 0dde 0000 0000 		.long	.LM399
 9446 0de2 15        		.byte	0x15
 9447 0de3 00        		.byte	0x0
 9448 0de4 05        		.uleb128 0x5
 9449 0de5 02        		.byte	0x2
 9450 0de6 0000 0000 		.long	.LM400
 9451 0dea 16        		.byte	0x16
 9452 0deb 00        		.byte	0x0
 9453 0dec 05        		.uleb128 0x5
 9454 0ded 02        		.byte	0x2
 9455 0dee 0000 0000 		.long	.LM401
 9456 0df2 15        		.byte	0x15
 9457 0df3 00        		.byte	0x0
 9458 0df4 05        		.uleb128 0x5
 9459 0df5 02        		.byte	0x2
 9460 0df6 0000 0000 		.long	.LM402
 9461 0dfa 18        		.byte	0x18
 9462 0dfb 00        		.byte	0x0
 9463 0dfc 05        		.uleb128 0x5
 9464 0dfd 02        		.byte	0x2
GAS LISTING C:\Users\ADMINI~1\AppData\Local\Temp/ccSP7hgy.s 			page 174


 9465 0dfe 0000 0000 		.long	.LM403
 9466 0e02 16        		.byte	0x16
 9467 0e03 00        		.byte	0x0
 9468 0e04 05        		.uleb128 0x5
 9469 0e05 02        		.byte	0x2
 9470 0e06 0000 0000 		.long	.LM404
 9471 0e0a 4B        		.byte	0x4b
 9472 0e0b 00        		.byte	0x0
 9473 0e0c 05        		.uleb128 0x5
 9474 0e0d 02        		.byte	0x2
 9475 0e0e 0000 0000 		.long	.LM405
 9476 0e12 15        		.byte	0x15
 9477 0e13 00        		.byte	0x0
 9478 0e14 05        		.uleb128 0x5
 9479 0e15 02        		.byte	0x2
 9480 0e16 0000 0000 		.long	.LM406
 9481 0e1a 15        		.byte	0x15
 9482 0e1b 00        		.byte	0x0
 9483 0e1c 05        		.uleb128 0x5
 9484 0e1d 02        		.byte	0x2
 9485 0e1e 0000 0000 		.long	.LM407
 9486 0e22 15        		.byte	0x15
 9487 0e23 00        		.byte	0x0
 9488 0e24 05        		.uleb128 0x5
 9489 0e25 02        		.byte	0x2
 9490 0e26 0000 0000 		.long	.LM408
 9491 0e2a 19        		.byte	0x19
 9492 0e2b 00        		.byte	0x0
 9493 0e2c 05        		.uleb128 0x5
 9494 0e2d 02        		.byte	0x2
 9495 0e2e 0000 0000 		.long	.LM409
 9496 0e32 15        		.byte	0x15
 9497 0e33 00        		.byte	0x0
 9498 0e34 05        		.uleb128 0x5
 9499 0e35 02        		.byte	0x2
 9500 0e36 0000 0000 		.long	.LM410
 9501 0e3a 16        		.byte	0x16
 9502 0e3b 00        		.byte	0x0
 9503 0e3c 05        		.uleb128 0x5
 9504 0e3d 02        		.byte	0x2
 9505 0e3e 0000 0000 		.long	.LM411
 9506 0e42 15        		.byte	0x15
 9507 0e43 00        		.byte	0x0
 9508 0e44 05        		.uleb128 0x5
 9509 0e45 02        		.byte	0x2
 9510 0e46 0000 0000 		.long	.LM412
 9511 0e4a 17        		.byte	0x17
 9512 0e4b 00        		.byte	0x0
 9513 0e4c 05        		.uleb128 0x5
 9514 0e4d 02        		.byte	0x2
 9515 0e4e 0000 0000 		.long	.LM413
 9516 0e52 15        		.byte	0x15
 9517 0e53 00        		.byte	0x0
 9518 0e54 05        		.uleb128 0x5
 9519 0e55 02        		.byte	0x2
 9520 0e56 0000 0000 		.long	.LM414
 9521 0e5a 16        		.byte	0x16
GAS LISTING C:\Users\ADMINI~1\AppData\Local\Temp/ccSP7hgy.s 			page 175


 9522 0e5b 00        		.byte	0x0
 9523 0e5c 05        		.uleb128 0x5
 9524 0e5d 02        		.byte	0x2
 9525 0e5e 0000 0000 		.long	.LM415
 9526 0e62 15        		.byte	0x15
 9527 0e63 00        		.byte	0x0
 9528 0e64 05        		.uleb128 0x5
 9529 0e65 02        		.byte	0x2
 9530 0e66 0000 0000 		.long	.LM416
 9531 0e6a 16        		.byte	0x16
 9532 0e6b 00        		.byte	0x0
 9533 0e6c 05        		.uleb128 0x5
 9534 0e6d 02        		.byte	0x2
 9535 0e6e 0000 0000 		.long	.LM417
 9536 0e72 15        		.byte	0x15
 9537 0e73 00        		.byte	0x0
 9538 0e74 05        		.uleb128 0x5
 9539 0e75 02        		.byte	0x2
 9540 0e76 0000 0000 		.long	.LM418
 9541 0e7a 17        		.byte	0x17
 9542 0e7b 00        		.byte	0x0
 9543 0e7c 05        		.uleb128 0x5
 9544 0e7d 02        		.byte	0x2
 9545 0e7e 0000 0000 		.long	.LM419
 9546 0e82 16        		.byte	0x16
 9547 0e83 00        		.byte	0x0
 9548 0e84 05        		.uleb128 0x5
 9549 0e85 02        		.byte	0x2
 9550 0e86 0000 0000 		.long	.LM420
 9551 0e8a 17        		.byte	0x17
 9552 0e8b 00        		.byte	0x0
 9553 0e8c 05        		.uleb128 0x5
 9554 0e8d 02        		.byte	0x2
 9555 0e8e 0000 0000 		.long	.LM421
 9556 0e92 15        		.byte	0x15
 9557 0e93 00        		.byte	0x0
 9558 0e94 05        		.uleb128 0x5
 9559 0e95 02        		.byte	0x2
 9560 0e96 0000 0000 		.long	.LM422
 9561 0e9a 15        		.byte	0x15
 9562 0e9b 00        		.byte	0x0
 9563 0e9c 05        		.uleb128 0x5
 9564 0e9d 02        		.byte	0x2
 9565 0e9e 0000 0000 		.long	.LM423
 9566 0ea2 03        		.byte	0x3
 9567 0ea3 BD7F      		.sleb128 -67
 9568 0ea5 01        		.byte	0x1
 9569 0ea6 00        		.byte	0x0
 9570 0ea7 05        		.uleb128 0x5
 9571 0ea8 02        		.byte	0x2
 9572 0ea9 0000 0000 		.long	.LM424
 9573 0ead 17        		.byte	0x17
 9574 0eae 00        		.byte	0x0
 9575 0eaf 05        		.uleb128 0x5
 9576 0eb0 02        		.byte	0x2
 9577 0eb1 0000 0000 		.long	.LM425
 9578 0eb5 15        		.byte	0x15
GAS LISTING C:\Users\ADMINI~1\AppData\Local\Temp/ccSP7hgy.s 			page 176


 9579 0eb6 00        		.byte	0x0
 9580 0eb7 05        		.uleb128 0x5
 9581 0eb8 02        		.byte	0x2
 9582 0eb9 0000 0000 		.long	.LM426
 9583 0ebd 19        		.byte	0x19
 9584 0ebe 00        		.byte	0x0
 9585 0ebf 05        		.uleb128 0x5
 9586 0ec0 02        		.byte	0x2
 9587 0ec1 0000 0000 		.long	.LM427
 9588 0ec5 16        		.byte	0x16
 9589 0ec6 00        		.byte	0x0
 9590 0ec7 05        		.uleb128 0x5
 9591 0ec8 02        		.byte	0x2
 9592 0ec9 0000 0000 		.long	.LM428
 9593 0ecd 15        		.byte	0x15
 9594 0ece 00        		.byte	0x0
 9595 0ecf 05        		.uleb128 0x5
 9596 0ed0 02        		.byte	0x2
 9597 0ed1 0000 0000 		.long	.Letext0
 9598 0ed5 00        		.byte	0x0
 9599 0ed6 01        		.uleb128 0x1
 9600 0ed7 01        		.byte	0x1
 9601               	.LELT0:
 9602 0ed8 1600 0000 		.section	.debug_str,"MS",@progbits,1
 9602      0200 1000 
 9602      0000 0101 
 9602      FB0E 0A00 
 9602      0101 0101 
 9603               	.LASF195:
 9604 0000 5F5F 6164 		.string	"__addr16"
 9604      6472 3136 
 9604      00
 9605               	.LASF214:
 9606 0009 7072 696E 		.string	"printStringFromFlash"
 9606      7453 7472 
 9606      696E 6746 
 9606      726F 6D46 
 9606      6C61 7368 
 9607               	.LASF266:
 9608 001e 5F63 7572 		.string	"_currentLayer"
 9608      7265 6E74 
 9608      4C61 7965 
 9608      7200 
 9609               	.LASF95:
 9610 002c 4B45 595F 		.string	"KEY_SCRLCK"
 9610      5343 524C 
 9610      434B 00
 9611               	.LASF262:
 9612 0037 5F62 7566 		.string	"_buffer"
 9612      6665 7200 
 9613               	.LASF268:
 9614 003f 7573 696E 		.string	"usingKeys"
 9614      674B 6579 
 9614      7300 
 9615               	.LASF159:
 9616 0049 4B45 595F 		.string	"KEY_REC"
 9616      5245 4300 
GAS LISTING C:\Users\ADMINI~1\AppData\Local\Temp/ccSP7hgy.s 			page 177


 9617               	.LASF295:
 9618 0051 7374 725F 		.string	"str_cancel_mapping"
 9618      6361 6E63 
 9618      656C 5F6D 
 9618      6170 7069 
 9618      6E67 00
 9619               	.LASF225:
 9620 0064 7072 696E 		.string	"printMapperMessageAfter"
 9620      744D 6170 
 9620      7065 724D 
 9620      6573 7361 
 9620      6765 4166 
 9621               	.LASF299:
 9622 007c 7374 725F 		.string	"str_save_layer"
 9622      7361 7665 
 9622      5F6C 6179 
 9622      6572 00
 9623               	.LASF284:
 9624 008b 7374 725F 		.string	"str_mapper_message"
 9624      6D61 7070 
 9624      6572 5F6D 
 9624      6573 7361 
 9624      6765 00
 9625               	.LASF232:
 9626 009e 7265 6164 		.string	"readMacro"
 9626      4D61 6372 
 9626      6F00 
 9627               	.LASF260:
 9628 00a8 5F63 6F6C 		.string	"_col"
 9628      00
 9629               	.LASF273:
 9630 00ad 7374 725F 		.string	"str_select_mode1"
 9630      7365 6C65 
 9630      6374 5F6D 
 9630      6F64 6531 
 9630      00
 9631               	.LASF274:
 9632 00be 7374 725F 		.string	"str_select_mode2"
 9632      7365 6C65 
 9632      6374 5F6D 
 9632      6F64 6532 
 9632      00
 9633               	.LASF132:
 9634 00cf 4B45 595F 		.string	"KEY_RSHIFT"
 9634      5253 4849 
 9634      4654 00
 9635               	.LASF219:
 9636 00da 7361 7665 		.string	"saveCurrentLayer"
 9636      4375 7272 
 9636      656E 744C 
 9636      6179 6572 
 9636      00
 9637               	.LASF165:
 9638 00eb 4B45 595F 		.string	"KEY_HANJA"
 9638      4841 4E4A 
 9638      4100 
 9639               	.LASF241:
GAS LISTING C:\Users\ADMINI~1\AppData\Local\Temp/ccSP7hgy.s 			page 178


 9640 00f5 7072 6570 		.string	"prepareKeyMapper"
 9640      6172 654B 
 9640      6579 4D61 
 9640      7070 6572 
 9640      00
 9641               	.LASF145:
 9642 0106 4B45 595F 		.string	"KEY_WWW_STOP"
 9642      5757 575F 
 9642      5354 4F50 
 9642      00
 9643               	.LASF117:
 9644 0113 4B45 595F 		.string	"KEY_KP_5"
 9644      4B50 5F35 
 9644      00
 9645               	.LASF158:
 9646 011c 4B45 595F 		.string	"KEY_SCREENSAVE"
 9646      5343 5245 
 9646      454E 5341 
 9646      5645 00
 9647               	.LASF151:
 9648 012b 4B45 595F 		.string	"KEY_PLAY"
 9648      504C 4159 
 9648      00
 9649               	.LASF8:
 9650 0134 756E 7369 		.string	"unsigned int"
 9650      676E 6564 
 9650      2069 6E74 
 9650      00
 9651               	.LASF161:
 9652 0141 4B45 595F 		.string	"KEY_MINIMIZE"
 9652      4D49 4E49 
 9652      4D49 5A45 
 9652      00
 9653               	.LASF133:
 9654 014e 4B45 595F 		.string	"KEY_RALT"
 9654      5241 4C54 
 9654      00
 9655               	.LASF292:
 9656 0157 7374 725F 		.string	"str_choose_key"
 9656      6368 6F6F 
 9656      7365 5F6B 
 9656      6579 00
 9657               	.LASF160:
 9658 0166 4B45 595F 		.string	"KEY_REWIND"
 9658      5245 5749 
 9658      4E44 00
 9659               	.LASF107:
 9660 0171 4B45 595F 		.string	"KEY_NUMLOCK"
 9660      4E55 4D4C 
 9660      4F43 4B00 
 9661               	.LASF252:
 9662 017d 656E 6162 		.string	"enabledKeyMappingCount"
 9662      6C65 644B 
 9662      6579 4D61 
 9662      7070 696E 
 9662      6743 6F75 
 9663               	.LASF237:
GAS LISTING C:\Users\ADMINI~1\AppData\Local\Temp/ccSP7hgy.s 			page 179


 9664 0194 674C 6179 		.string	"gLayer"
 9664      6572 00
 9665               	.LASF168:
 9666 019b 4B45 595F 		.string	"KEY_KP_EQUAL"
 9666      4B50 5F45 
 9666      5155 414C 
 9666      00
 9667               	.LASF207:
 9668 01a8 7374 6F70 		.string	"stopKeyMapping"
 9668      4B65 794D 
 9668      6170 7069 
 9668      6E67 00
 9669               	.LASF296:
 9670 01b7 7374 725F 		.string	"str_reset_mapping"
 9670      7265 7365 
 9670      745F 6D61 
 9670      7070 696E 
 9670      6700 
 9671               	.LASF271:
 9672 01c9 6B65 796D 		.string	"keymap_code"
 9672      6170 5F63 
 9672      6F64 6500 
 9673               	.LASF149:
 9674 01d5 4B45 595F 		.string	"KEY_PREV_TRK"
 9674      5052 4556 
 9674      5F54 524B 
 9674      00
 9675               	.LASF249:
 9676 01e2 656E 7465 		.string	"enterFrameForMapper"
 9676      7246 7261 
 9676      6D65 466F 
 9676      724D 6170 
 9676      7065 7200 
 9677               	.LASF157:
 9678 01f6 4B45 595F 		.string	"KEY_MYCOM"
 9678      4D59 434F 
 9678      4D00 
 9679               	.LASF134:
 9680 0200 4B45 595F 		.string	"KEY_RGUI"
 9680      5247 5549 
 9680      00
 9681               	.LASF79:
 9682 0209 4B45 595F 		.string	"KEY_DOT"
 9682      444F 5400 
 9683               	.LASF182:
 9684 0211 6D6F 6465 		.string	"mode"
 9684      00
 9685               	.LASF136:
 9686 0216 4B45 595F 		.string	"KEY_Multimedia"
 9686      4D75 6C74 
 9686      696D 6564 
 9686      6961 00
 9687               	.LASF291:
 9688 0225 7374 725F 		.string	"str_choose_layer"
 9688      6368 6F6F 
 9688      7365 5F6C 
 9688      6179 6572 
GAS LISTING C:\Users\ADMINI~1\AppData\Local\Temp/ccSP7hgy.s 			page 180


 9688      00
 9689               	.LASF184:
 9690 0236 5F5F 636F 		.string	"__count"
 9690      756E 7400 
 9691               	.LASF265:
 9692 023e 5F69 7357 		.string	"_isWorkingForEmpty"
 9692      6F72 6B69 
 9692      6E67 466F 
 9692      7245 6D70 
 9692      7479 00
 9693               	.LASF198:
 9694 0251 6765 744D 		.string	"getMappingKeyCode"
 9694      6170 7069 
 9694      6E67 4B65 
 9694      7943 6F64 
 9694      6500 
 9695               	.LASF313:
 9696 0263 5F70 7265 		.string	"_pressedEscapeKeyCount"
 9696      7373 6564 
 9696      4573 6361 
 9696      7065 4B65 
 9696      7943 6F75 
 9697               	.LASF185:
 9698 027a 784B 6579 		.string	"xKeyCode"
 9698      436F 6465 
 9698      00
 9699               	.LASF251:
 9700 0283 5F69 734B 		.string	"_isKeyMapping"
 9700      6579 4D61 
 9700      7070 696E 
 9700      6700 
 9701               	.LASF155:
 9702 0291 4B45 595F 		.string	"KEY_MEDIA"
 9702      4D45 4449 
 9702      4100 
 9703               	.LASF135:
 9704 029b 4B45 595F 		.string	"KEY_Modifiers_end"
 9704      4D6F 6469 
 9704      6669 6572 
 9704      735F 656E 
 9704      6400 
 9705               	.LASF227:
 9706 02ad 636C 6561 		.string	"clearMacroAfter"
 9706      724D 6163 
 9706      726F 4166 
 9706      7465 7200 
 9707               	.LASF229:
 9708 02bd 7361 7665 		.string	"saveMacro"
 9708      4D61 6372 
 9708      6F00 
 9709               	.LASF309:
 9710 02c7 5F6D 6163 		.string	"_macroIndex"
 9710      726F 496E 
 9710      6465 7800 
 9711               	.LASF122:
 9712 02d3 4B45 595F 		.string	"KEY_KP_0"
 9712      4B50 5F30 
GAS LISTING C:\Users\ADMINI~1\AppData\Local\Temp/ccSP7hgy.s 			page 181


 9712      00
 9713               	.LASF113:
 9714 02dc 4B45 595F 		.string	"KEY_KP_1"
 9714      4B50 5F31 
 9714      00
 9715               	.LASF114:
 9716 02e5 4B45 595F 		.string	"KEY_KP_2"
 9716      4B50 5F32 
 9716      00
 9717               	.LASF48:
 9718 02ee 4B45 595F 		.string	"KEY_U"
 9718      5500 
 9719               	.LASF116:
 9720 02f4 4B45 595F 		.string	"KEY_KP_4"
 9720      4B50 5F34 
 9720      00
 9721               	.LASF63:
 9722 02fd 4B45 595F 		.string	"KEY_0"
 9722      3000 
 9723               	.LASF54:
 9724 0303 4B45 595F 		.string	"KEY_1"
 9724      3100 
 9725               	.LASF55:
 9726 0309 4B45 595F 		.string	"KEY_2"
 9726      3200 
 9727               	.LASF56:
 9728 030f 4B45 595F 		.string	"KEY_3"
 9728      3300 
 9729               	.LASF57:
 9730 0315 4B45 595F 		.string	"KEY_4"
 9730      3400 
 9731               	.LASF58:
 9732 031b 4B45 595F 		.string	"KEY_5"
 9732      3500 
 9733               	.LASF59:
 9734 0321 4B45 595F 		.string	"KEY_6"
 9734      3600 
 9735               	.LASF60:
 9736 0327 4B45 595F 		.string	"KEY_7"
 9736      3700 
 9737               	.LASF61:
 9738 032d 4B45 595F 		.string	"KEY_8"
 9738      3800 
 9739               	.LASF62:
 9740 0333 4B45 595F 		.string	"KEY_9"
 9740      3900 
 9741               	.LASF248:
 9742 0339 636F 756E 		.string	"countKeyMappingEnabled"
 9742      744B 6579 
 9742      4D61 7070 
 9742      696E 6745 
 9742      6E61 626C 
 9743               	.LASF300:
 9744 0350 7374 725F 		.string	"str_load_layer"
 9744      6C6F 6164 
 9744      5F6C 6179 
 9744      6572 00
GAS LISTING C:\Users\ADMINI~1\AppData\Local\Temp/ccSP7hgy.s 			page 182


 9745               	.LASF28:
 9746 035f 4B45 595F 		.string	"KEY_A"
 9746      4100 
 9747               	.LASF29:
 9748 0365 4B45 595F 		.string	"KEY_B"
 9748      4200 
 9749               	.LASF30:
 9750 036b 4B45 595F 		.string	"KEY_C"
 9750      4300 
 9751               	.LASF31:
 9752 0371 4B45 595F 		.string	"KEY_D"
 9752      4400 
 9753               	.LASF32:
 9754 0377 4B45 595F 		.string	"KEY_E"
 9754      4500 
 9755               	.LASF33:
 9756 037d 4B45 595F 		.string	"KEY_F"
 9756      4600 
 9757               	.LASF34:
 9758 0383 4B45 595F 		.string	"KEY_G"
 9758      4700 
 9759               	.LASF35:
 9760 0389 4B45 595F 		.string	"KEY_H"
 9760      4800 
 9761               	.LASF36:
 9762 038f 4B45 595F 		.string	"KEY_I"
 9762      4900 
 9763               	.LASF37:
 9764 0395 4B45 595F 		.string	"KEY_J"
 9764      4A00 
 9765               	.LASF38:
 9766 039b 4B45 595F 		.string	"KEY_K"
 9766      4B00 
 9767               	.LASF39:
 9768 03a1 4B45 595F 		.string	"KEY_L"
 9768      4C00 
 9769               	.LASF40:
 9770 03a7 4B45 595F 		.string	"KEY_M"
 9770      4D00 
 9771               	.LASF41:
 9772 03ad 4B45 595F 		.string	"KEY_N"
 9772      4E00 
 9773               	.LASF42:
 9774 03b3 4B45 595F 		.string	"KEY_O"
 9774      4F00 
 9775               	.LASF43:
 9776 03b9 4B45 595F 		.string	"KEY_P"
 9776      5000 
 9777               	.LASF44:
 9778 03bf 4B45 595F 		.string	"KEY_Q"
 9778      5100 
 9779               	.LASF45:
 9780 03c5 4B45 595F 		.string	"KEY_R"
 9780      5200 
 9781               	.LASF46:
 9782 03cb 4B45 595F 		.string	"KEY_S"
 9782      5300 
GAS LISTING C:\Users\ADMINI~1\AppData\Local\Temp/ccSP7hgy.s 			page 183


 9783               	.LASF47:
 9784 03d1 4B45 595F 		.string	"KEY_T"
 9784      5400 
 9785               	.LASF6:
 9786 03d7 6C6F 6E67 		.string	"long long unsigned int"
 9786      206C 6F6E 
 9786      6720 756E 
 9786      7369 676E 
 9786      6564 2069 
 9787               	.LASF49:
 9788 03ee 4B45 595F 		.string	"KEY_V"
 9788      5600 
 9789               	.LASF50:
 9790 03f4 4B45 595F 		.string	"KEY_W"
 9790      5700 
 9791               	.LASF51:
 9792 03fa 4B45 595F 		.string	"KEY_X"
 9792      5800 
 9793               	.LASF52:
 9794 0400 4B45 595F 		.string	"KEY_Y"
 9794      5900 
 9795               	.LASF53:
 9796 0406 4B45 595F 		.string	"KEY_Z"
 9796      5A00 
 9797               	.LASF68:
 9798 040c 4B45 595F 		.string	"KEY_SPACE"
 9798      5350 4143 
 9798      4500 
 9799               	.LASF294:
 9800 0416 7374 725F 		.string	"str_save_end_mapping"
 9800      7361 7665 
 9800      5F65 6E64 
 9800      5F6D 6170 
 9800      7069 6E67 
 9801               	.LASF285:
 9802 042b 7374 725F 		.string	"str_mapper_1"
 9802      6D61 7070 
 9802      6572 5F31 
 9802      00
 9803               	.LASF288:
 9804 0438 7374 725F 		.string	"str_mapper_4"
 9804      6D61 7070 
 9804      6572 5F34 
 9804      00
 9805               	.LASF126:
 9806 0445 4B45 595F 		.string	"KEY_Modifiers"
 9806      4D6F 6469 
 9806      6669 6572 
 9806      7300 
 9807               	.LASF66:
 9808 0453 4B45 595F 		.string	"KEY_BKSP"
 9808      424B 5350 
 9808      00
 9809               	.LASF105:
 9810 045c 4B45 595F 		.string	"KEY_DOWN"
 9810      444F 574E 
 9810      00
GAS LISTING C:\Users\ADMINI~1\AppData\Local\Temp/ccSP7hgy.s 			page 184


 9811               	.LASF319:
 9812 0465 443A 5C67 		.string	"D:\\git\\ps2avrU\\source"
 9812      6974 5C70 
 9812      7332 6176 
 9812      7255 5C73 
 9812      6F75 7263 
 9813               	.LASF289:
 9814 047b 7374 725F 		.string	"str_mapper_9"
 9814      6D61 7070 
 9814      6572 5F39 
 9814      00
 9815               	.LASF206:
 9816 0488 7374 6172 		.string	"startKeyMappingDeep"
 9816      744B 6579 
 9816      4D61 7070 
 9816      696E 6744 
 9816      6565 7000 
 9817               	.LASF21:
 9818 049c 4B45 595F 		.string	"KEY_MAC10"
 9818      4D41 4331 
 9818      3000 
 9819               	.LASF22:
 9820 04a6 4B45 595F 		.string	"KEY_MAC11"
 9820      4D41 4331 
 9820      3100 
 9821               	.LASF23:
 9822 04b0 4B45 595F 		.string	"KEY_MAC12"
 9822      4D41 4331 
 9822      3200 
 9823               	.LASF103:
 9824 04ba 4B45 595F 		.string	"KEY_RIGHT"
 9824      5249 4748 
 9824      5400 
 9825               	.LASF166:
 9826 04c4 4B45 595F 		.string	"KEY_HANGLE"
 9826      4841 4E47 
 9826      4C45 00
 9827               	.LASF228:
 9828 04cf 6741 6464 		.string	"gAddress"
 9828      7265 7373 
 9828      00
 9829               	.LASF192:
 9830 04d8 784C 6179 		.string	"xLayer"
 9830      6572 00
 9831               	.LASF188:
 9832 04df 5F5F 6D73 		.string	"__ms"
 9832      00
 9833               	.LASF27:
 9834 04e4 4B45 595F 		.string	"KEY_ErrorUndefined"
 9834      4572 726F 
 9834      7255 6E64 
 9834      6566 696E 
 9834      6564 00
 9835               	.LASF148:
 9836 04f7 4B45 595F 		.string	"KEY_NEXT_TRK"
 9836      4E45 5854 
 9836      5F54 524B 
GAS LISTING C:\Users\ADMINI~1\AppData\Local\Temp/ccSP7hgy.s 			page 185


 9836      00
 9837               	.LASF212:
 9838 0504 7853 7472 		.string	"xStr"
 9838      00
 9839               	.LASF311:
 9840 0509 5F6D 6163 		.string	"_macroPressedBuffer"
 9840      726F 5072 
 9840      6573 7365 
 9840      6442 7566 
 9840      6665 7200 
 9841               	.LASF111:
 9842 051d 4B45 595F 		.string	"KEY_KP_PLUS"
 9842      4B50 5F50 
 9842      4C55 5300 
 9843               	.LASF234:
 9844 0529 6C6F 6164 		.string	"loadCurrentLayer"
 9844      4375 7272 
 9844      656E 744C 
 9844      6179 6572 
 9844      00
 9845               	.LASF233:
 9846 053a 784D 6163 		.string	"xMacroIndex"
 9846      726F 496E 
 9846      6465 7800 
 9847               	.LASF236:
 9848 0546 7849 7344 		.string	"xIsDown"
 9848      6F77 6E00 
 9849               	.LASF197:
 9850 054e 6765 7444 		.string	"getDefaultKeyCode"
 9850      6566 6175 
 9850      6C74 4B65 
 9850      7943 6F64 
 9850      6500 
 9851               	.LASF235:
 9852 0560 7075 744B 		.string	"putKeyCode"
 9852      6579 436F 
 9852      6465 00
 9853               	.LASF150:
 9854 056b 4B45 595F 		.string	"KEY_STOP"
 9854      5354 4F50 
 9854      00
 9855               	.LASF263:
 9856 0574 5F62 7566 		.string	"_bufferIndex"
 9856      6665 7249 
 9856      6E64 6578 
 9856      00
 9857               	.LASF259:
 9858 0581 5F77 6169 		.string	"_wait"
 9858      7400 
 9859               	.LASF247:
 9860 0587 7072 6570 		.string	"prepareKeyMapping"
 9860      6172 654B 
 9860      6579 4D61 
 9860      7070 696E 
 9860      6700 
 9861               	.LASF321:
 9862 0599 7072 696E 		.string	"printEnter"
GAS LISTING C:\Users\ADMINI~1\AppData\Local\Temp/ccSP7hgy.s 			page 186


 9862      7445 6E74 
 9862      6572 00
 9863               	.LASF316:
 9864 05a4 5F6E 6577 		.string	"_newKeyMap"
 9864      4B65 794D 
 9864      6170 00
 9865               	.LASF156:
 9866 05af 4B45 595F 		.string	"KEY_CALC"
 9866      4341 4C43 
 9866      00
 9867               	.LASF9:
 9868 05b8 6368 6172 		.string	"char"
 9868      00
 9869               	.LASF75:
 9870 05bd 4B45 595F 		.string	"KEY_COLON"
 9870      434F 4C4F 
 9870      4E00 
 9871               	.LASF256:
 9872 05c7 5F6D 6F64 		.string	"_mode"
 9872      6500 
 9873               	.LASF128:
 9874 05cd 4B45 595F 		.string	"KEY_LSHIFT"
 9874      4C53 4849 
 9874      4654 00
 9875               	.LASF147:
 9876 05d8 4B45 595F 		.string	"KEY_WWW_FAVORITE"
 9876      5757 575F 
 9876      4641 564F 
 9876      5249 5445 
 9876      00
 9877               	.LASF306:
 9878 05e9 7374 725F 		.string	"str_input_macro"
 9878      696E 7075 
 9878      745F 6D61 
 9878      6372 6F00 
 9879               	.LASF272:
 9880 05f9 7374 725F 		.string	"str_select_mode"
 9880      7365 6C65 
 9880      6374 5F6D 
 9880      6F64 6500 
 9881               	.LASF142:
 9882 0609 4B45 595F 		.string	"KEY_WWW_HOME"
 9882      5757 575F 
 9882      484F 4D45 
 9882      00
 9883               	.LASF215:
 9884 0616 6743 6861 		.string	"gChar"
 9884      7200 
 9885               	.LASF24:
 9886 061c 4B45 595F 		.string	"KEY_NONE"
 9886      4E4F 4E45 
 9886      00
 9887               	.LASF245:
 9888 0625 674D 6163 		.string	"gMacroIndex"
 9888      726F 496E 
 9888      6465 7800 
 9889               	.LASF94:
GAS LISTING C:\Users\ADMINI~1\AppData\Local\Temp/ccSP7hgy.s 			page 187


 9890 0631 4B45 595F 		.string	"KEY_PRNSCR"
 9890      5052 4E53 
 9890      4352 00
 9891               	.LASF304:
 9892 063c 7374 725F 		.string	"str_select_number"
 9892      7365 6C65 
 9892      6374 5F6E 
 9892      756D 6265 
 9892      7200 
 9893               	.LASF297:
 9894 064e 7374 725F 		.string	"str_input_command"
 9894      696E 7075 
 9894      745F 636F 
 9894      6D6D 616E 
 9894      6400 
 9895               	.LASF101:
 9896 0660 4B45 595F 		.string	"KEY_END"
 9896      454E 4400 
 9897               	.LASF10:
 9898 0668 7569 6E74 		.string	"uint8_t"
 9898      385F 7400 
 9899               	.LASF154:
 9900 0670 4B45 595F 		.string	"KEY_VOL_DOWN"
 9900      564F 4C5F 
 9900      444F 574E 
 9900      00
 9901               	.LASF71:
 9902 067d 4B45 595F 		.string	"KEY_LBR"
 9902      4C42 5200 
 9903               	.LASF216:
 9904 0685 6170 706C 		.string	"applyKeyMapping"
 9904      794B 6579 
 9904      4D61 7070 
 9904      696E 6700 
 9905               	.LASF100:
 9906 0695 4B45 595F 		.string	"KEY_DEL"
 9906      4445 4C00 
 9907               	.LASF283:
 9908 069d 7374 725F 		.string	"str_back_6"
 9908      6261 636B 
 9908      5F36 00
 9909               	.LASF217:
 9910 06a8 7265 7365 		.string	"resetCurrentLayer"
 9910      7443 7572 
 9910      7265 6E74 
 9910      4C61 7965 
 9910      7200 
 9911               	.LASF125:
 9912 06ba 4B45 595F 		.string	"KEY_APPS"
 9912      4150 5053 
 9912      00
 9913               	.LASF189:
 9914 06c3 5F5F 7469 		.string	"__ticks"
 9914      636B 7300 
 9915               	.LASF224:
 9916 06cb 7072 696E 		.string	"printPrompt"
 9916      7450 726F 
GAS LISTING C:\Users\ADMINI~1\AppData\Local\Temp/ccSP7hgy.s 			page 188


 9916      6D70 7400 
 9917               	.LASF115:
 9918 06d7 4B45 595F 		.string	"KEY_KP_3"
 9918      4B50 5F33 
 9918      00
 9919               	.LASF279:
 9920 06e0 7374 725F 		.string	"str_macro_message"
 9920      6D61 6372 
 9920      6F5F 6D65 
 9920      7373 6167 
 9920      6500 
 9921               	.LASF7:
 9922 06f2 6C6F 6E67 		.string	"long long int"
 9922      206C 6F6E 
 9922      6720 696E 
 9922      7400 
 9923               	.LASF118:
 9924 0700 4B45 595F 		.string	"KEY_KP_6"
 9924      4B50 5F36 
 9924      00
 9925               	.LASF119:
 9926 0709 4B45 595F 		.string	"KEY_KP_7"
 9926      4B50 5F37 
 9926      00
 9927               	.LASF120:
 9928 0712 4B45 595F 		.string	"KEY_KP_8"
 9928      4B50 5F38 
 9928      00
 9929               	.LASF121:
 9930 071b 4B45 595F 		.string	"KEY_KP_9"
 9930      4B50 5F39 
 9930      00
 9931               	.LASF76:
 9932 0724 4B45 595F 		.string	"KEY_QUOTE"
 9932      5155 4F54 
 9932      4500 
 9933               	.LASF200:
 9934 072e 6749 6478 		.string	"gIdx"
 9934      00
 9935               	.LASF243:
 9936 0733 6170 706C 		.string	"applyMacro"
 9936      794D 6163 
 9936      726F 00
 9937               	.LASF70:
 9938 073e 4B45 595F 		.string	"KEY_EQUAL"
 9938      4551 5541 
 9938      4C00 
 9939               	.LASF254:
 9940 0748 6B65 794D 		.string	"keyMappingCountMax"
 9940      6170 7069 
 9940      6E67 436F 
 9940      756E 744D 
 9940      6178 00
 9941               	.LASF240:
 9942 075b 7361 7665 		.string	"saveCurrentLayerAfter"
 9942      4375 7272 
 9942      656E 744C 
GAS LISTING C:\Users\ADMINI~1\AppData\Local\Temp/ccSP7hgy.s 			page 189


 9942      6179 6572 
 9942      4166 7465 
 9943               	.LASF218:
 9944 0771 636C 6561 		.string	"clearMacro"
 9944      724D 6163 
 9944      726F 00
 9945               	.LASF221:
 9946 077c 7072 696E 		.string	"printMacroMessage"
 9946      744D 6163 
 9946      726F 4D65 
 9946      7373 6167 
 9946      6500 
 9947               	.LASF67:
 9948 078e 4B45 595F 		.string	"KEY_TAB"
 9948      5441 4200 
 9949               	.LASF308:
 9950 0796 7374 725F 		.string	"str_clear_all_macro"
 9950      636C 6561 
 9950      725F 616C 
 9950      6C5F 6D61 
 9950      6372 6F00 
 9951               	.LASF315:
 9952 07aa 5F69 7354 		.string	"_isTiredEscapeKey"
 9952      6972 6564 
 9952      4573 6361 
 9952      7065 4B65 
 9952      7900 
 9953               	.LASF167:
 9954 07bc 4B45 595F 		.string	"KEY_KBD_POWER"
 9954      4B42 445F 
 9954      504F 5745 
 9954      5200 
 9955               	.LASF12:
 9956 07ca 4B45 595F 		.string	"KEY_MAC1"
 9956      4D41 4331 
 9956      00
 9957               	.LASF13:
 9958 07d3 4B45 595F 		.string	"KEY_MAC2"
 9958      4D41 4332 
 9958      00
 9959               	.LASF14:
 9960 07dc 4B45 595F 		.string	"KEY_MAC3"
 9960      4D41 4333 
 9960      00
 9961               	.LASF15:
 9962 07e5 4B45 595F 		.string	"KEY_MAC4"
 9962      4D41 4334 
 9962      00
 9963               	.LASF16:
 9964 07ee 4B45 595F 		.string	"KEY_MAC5"
 9964      4D41 4335 
 9964      00
 9965               	.LASF17:
 9966 07f7 4B45 595F 		.string	"KEY_MAC6"
 9966      4D41 4336 
 9966      00
 9967               	.LASF18:
GAS LISTING C:\Users\ADMINI~1\AppData\Local\Temp/ccSP7hgy.s 			page 190


 9968 0800 4B45 595F 		.string	"KEY_MAC7"
 9968      4D41 4337 
 9968      00
 9969               	.LASF19:
 9970 0809 4B45 595F 		.string	"KEY_MAC8"
 9970      4D41 4338 
 9970      00
 9971               	.LASF20:
 9972 0812 4B45 595F 		.string	"KEY_MAC9"
 9972      4D41 4339 
 9972      00
 9973               	.LASF108:
 9974 081b 4B45 595F 		.string	"KEY_KP_SLASH"
 9974      4B50 5F53 
 9974      4C41 5348 
 9974      00
 9975               	.LASF82:
 9976 0828 4B45 595F 		.string	"KEY_F1"
 9976      4631 00
 9977               	.LASF83:
 9978 082f 4B45 595F 		.string	"KEY_F2"
 9978      4632 00
 9979               	.LASF84:
 9980 0836 4B45 595F 		.string	"KEY_F3"
 9980      4633 00
 9981               	.LASF85:
 9982 083d 4B45 595F 		.string	"KEY_F4"
 9982      4634 00
 9983               	.LASF86:
 9984 0844 4B45 595F 		.string	"KEY_F5"
 9984      4635 00
 9985               	.LASF87:
 9986 084b 4B45 595F 		.string	"KEY_F6"
 9986      4636 00
 9987               	.LASF88:
 9988 0852 4B45 595F 		.string	"KEY_F7"
 9988      4637 00
 9989               	.LASF89:
 9990 0859 4B45 595F 		.string	"KEY_F8"
 9990      4638 00
 9991               	.LASF90:
 9992 0860 4B45 595F 		.string	"KEY_F9"
 9992      4639 00
 9993               	.LASF137:
 9994 0867 4B45 595F 		.string	"KEY_POWER"
 9994      504F 5745 
 9994      5200 
 9995               	.LASF187:
 9996 0871 5F64 656C 		.string	"_delay_ms"
 9996      6179 5F6D 
 9996      7300 
 9997               	.LASF181:
 9998 087b 4B45 595F 		.string	"KEY_extend_end"
 9998      6578 7465 
 9998      6E64 5F65 
 9998      6E64 00
 9999               	.LASF106:
GAS LISTING C:\Users\ADMINI~1\AppData\Local\Temp/ccSP7hgy.s 			page 191


 10000 088a 4B45 595F 		.string	"KEY_UP"
 10000      5550 00
 10001               	.LASF312:
 10002 0891 5F6D 6163 		.string	"_macroInputBuffer"
 10002      726F 496E 
 10002      7075 7442 
 10002      7566 6665 
 10002      7200 
 10003               	.LASF211:
 10004 08a3 784D 6F64 		.string	"xModi"
 10004      6900 
 10005               	.LASF213:
 10006 08a9 7075 7368 		.string	"pushCharacter"
 10006      4368 6172 
 10006      6163 7465 
 10006      7200 
 10007               	.LASF238:
 10008 08b7 6753 7472 		.string	"gStr"
 10008      00
 10009               	.LASF275:
 10010 08bc 7374 725F 		.string	"str_select_mode3"
 10010      7365 6C65 
 10010      6374 5F6D 
 10010      6F64 6533 
 10010      00
 10011               	.LASF276:
 10012 08cd 7374 725F 		.string	"str_select_mode4"
 10012      7365 6C65 
 10012      6374 5F6D 
 10012      6F64 6534 
 10012      00
 10013               	.LASF193:
 10014 08de 7852 6F77 		.string	"xRow"
 10014      00
 10015               	.LASF129:
 10016 08e3 4B45 595F 		.string	"KEY_LALT"
 10016      4C41 4C54 
 10016      00
 10017               	.LASF317:
 10018 08ec 474E 5520 		.string	"GNU C 4.3.3"
 10018      4320 342E 
 10018      332E 3300 
 10019               	.LASF96:
 10020 08f8 4B45 595F 		.string	"KEY_PAUSE"
 10020      5041 5553 
 10020      4500 
 10021               	.LASF11:
 10022 0902 7569 6E74 		.string	"uint16_t"
 10022      3136 5F74 
 10022      00
 10023               	.LASF250:
 10024 090b 7374 6172 		.string	"startKeyMappingOnBoot"
 10024      744B 6579 
 10024      4D61 7070 
 10024      696E 674F 
 10024      6E42 6F6F 
 10025               	.LASF163:
GAS LISTING C:\Users\ADMINI~1\AppData\Local\Temp/ccSP7hgy.s 			page 192


 10026 0921 4B45 595F 		.string	"KEY_Multimedia_end"
 10026      4D75 6C74 
 10026      696D 6564 
 10026      6961 5F65 
 10026      6E64 00
 10027               	.LASF152:
 10028 0934 4B45 595F 		.string	"KEY_MUTE"
 10028      4D55 5445 
 10028      00
 10029               	.LASF226:
 10030 093d 7072 696E 		.string	"printSelectMode"
 10030      7453 656C 
 10030      6563 744D 
 10030      6F64 6500 
 10031               	.LASF110:
 10032 094d 4B45 595F 		.string	"KEY_KP_MINUS"
 10032      4B50 5F4D 
 10032      494E 5553 
 10032      00
 10033               	.LASF196:
 10034 095a 5F5F 7265 		.string	"__result"
 10034      7375 6C74 
 10034      00
 10035               	.LASF220:
 10036 0963 7072 696E 		.string	"printPrepareString"
 10036      7450 7265 
 10036      7061 7265 
 10036      5374 7269 
 10036      6E67 00
 10037               	.LASF194:
 10038 0976 7843 6F6C 		.string	"xCol"
 10038      00
 10039               	.LASF69:
 10040 097b 4B45 595F 		.string	"KEY_MINUS"
 10040      4D49 4E55 
 10040      5300 
 10041               	.LASF186:
 10042 0985 5F64 656C 		.string	"_delay_loop_2"
 10042      6179 5F6C 
 10042      6F6F 705F 
 10042      3200 
 10043               	.LASF64:
 10044 0993 4B45 595F 		.string	"KEY_ENTER"
 10044      454E 5445 
 10044      5200 
 10045               	.LASF298:
 10046 099d 7374 725F 		.string	"str_nothing"
 10046      6E6F 7468 
 10046      696E 6700 
 10047               	.LASF78:
 10048 09a9 4B45 595F 		.string	"KEY_COMMA"
 10048      434F 4D4D 
 10048      4100 
 10049               	.LASF255:
 10050 09b3 5F6B 6579 		.string	"_keyMappingOnBoot"
 10050      4D61 7070 
 10050      696E 674F 
GAS LISTING C:\Users\ADMINI~1\AppData\Local\Temp/ccSP7hgy.s 			page 193


 10050      6E42 6F6F 
 10050      7400 
 10051               	.LASF3:
 10052 09c5 7368 6F72 		.string	"short int"
 10052      7420 696E 
 10052      7400 
 10053               	.LASF5:
 10054 09cf 6C6F 6E67 		.string	"long int"
 10054      2069 6E74 
 10054      00
 10055               	.LASF81:
 10056 09d8 4B45 595F 		.string	"KEY_CAPS"
 10056      4341 5053 
 10056      00
 10057               	.LASF264:
 10058 09e1 5F65 6469 		.string	"_editCount"
 10058      7443 6F75 
 10058      6E74 00
 10059               	.LASF277:
 10060 09ec 7374 725F 		.string	"str_exit"
 10060      6578 6974 
 10060      00
 10061               	.LASF222:
 10062 09f5 7072 696E 		.string	"printString"
 10062      7453 7472 
 10062      696E 6700 
 10063               	.LASF314:
 10064 0a01 5F69 7350 		.string	"_isPressedEscapeKey"
 10064      7265 7373 
 10064      6564 4573 
 10064      6361 7065 
 10064      4B65 7900 
 10065               	.LASF112:
 10066 0a15 4B45 595F 		.string	"KEY_KP_ENTER"
 10066      4B50 5F45 
 10066      4E54 4552 
 10066      00
 10067               	.LASF305:
 10068 0a22 7374 725F 		.string	"str_exit_macro"
 10068      6578 6974 
 10068      5F6D 6163 
 10068      726F 00
 10069               	.LASF123:
 10070 0a31 4B45 595F 		.string	"KEY_KP_DOT"
 10070      4B50 5F44 
 10070      4F54 00
 10071               	.LASF209:
 10072 0a3c 7265 6164 		.string	"readyKeyMappingOnBoot"
 10072      794B 6579 
 10072      4D61 7070 
 10072      696E 674F 
 10072      6E42 6F6F 
 10073               	.LASF127:
 10074 0a52 4B45 595F 		.string	"KEY_LCTRL"
 10074      4C43 5452 
 10074      4C00 
 10075               	.LASF280:
GAS LISTING C:\Users\ADMINI~1\AppData\Local\Temp/ccSP7hgy.s 			page 194


 10076 0a5c 7374 725F 		.string	"str_macro_1"
 10076      6D61 6372 
 10076      6F5F 3100 
 10077               	.LASF281:
 10078 0a68 7374 725F 		.string	"str_macro_2"
 10078      6D61 6372 
 10078      6F5F 3200 
 10079               	.LASF210:
 10080 0a74 7265 7365 		.string	"resetMacroInput"
 10080      744D 6163 
 10080      726F 496E 
 10080      7075 7400 
 10081               	.LASF244:
 10082 0a84 784B 6579 		.string	"xKeyidx"
 10082      6964 7800 
 10083               	.LASF130:
 10084 0a8c 4B45 595F 		.string	"KEY_LGUI"
 10084      4C47 5549 
 10084      00
 10085               	.LASF282:
 10086 0a95 7374 725F 		.string	"str_macro_9"
 10086      6D61 6372 
 10086      6F5F 3900 
 10087               	.LASF246:
 10088 0aa1 7374 6172 		.string	"startKeyMapping"
 10088      744B 6579 
 10088      4D61 7070 
 10088      696E 6700 
 10089               	.LASF25:
 10090 0ab1 4B45 595F 		.string	"KEY_ErrorRollOver"
 10090      4572 726F 
 10090      7252 6F6C 
 10090      6C4F 7665 
 10090      7200 
 10091               	.LASF73:
 10092 0ac3 4B45 595F 		.string	"KEY_BKSLASH"
 10092      424B 534C 
 10092      4153 4800 
 10093               	.LASF77:
 10094 0acf 4B45 595F 		.string	"KEY_HASH"
 10094      4841 5348 
 10094      00
 10095               	.LASF164:
 10096 0ad8 4B45 595F 		.string	"KEY_extend"
 10096      6578 7465 
 10096      6E64 00
 10097               	.LASF242:
 10098 0ae3 6765 7443 		.string	"getCurrentKeycode"
 10098      7572 7265 
 10098      6E74 4B65 
 10098      7963 6F64 
 10098      6500 
 10099               	.LASF102:
 10100 0af5 4B45 595F 		.string	"KEY_PGDN"
 10100      5047 444E 
 10100      00
 10101               	.LASF65:
GAS LISTING C:\Users\ADMINI~1\AppData\Local\Temp/ccSP7hgy.s 			page 195


 10102 0afe 4B45 595F 		.string	"KEY_ESC"
 10102      4553 4300 
 10103               	.LASF4:
 10104 0b06 6C6F 6E67 		.string	"long unsigned int"
 10104      2075 6E73 
 10104      6967 6E65 
 10104      6420 696E 
 10104      7400 
 10105               	.LASF140:
 10106 0b18 4B45 595F 		.string	"KEY_EMAIL"
 10106      454D 4149 
 10106      4C00 
 10107               	.LASF104:
 10108 0b22 4B45 595F 		.string	"KEY_LEFT"
 10108      4C45 4654 
 10108      00
 10109               	.LASF267:
 10110 0b2b 5F63 7572 		.string	"_currentLayerAfter"
 10110      7265 6E74 
 10110      4C61 7965 
 10110      7241 6674 
 10110      6572 00
 10111               	.LASF302:
 10112 0b3e 7374 725F 		.string	"str_col_row"
 10112      636F 6C5F 
 10112      726F 7700 
 10113               	.LASF278:
 10114 0b4a 7374 725F 		.string	"str_boot_mapper"
 10114      626F 6F74 
 10114      5F6D 6170 
 10114      7065 7200 
 10115               	.LASF310:
 10116 0b5a 5F6D 6163 		.string	"_macroBufferIndex"
 10116      726F 4275 
 10116      6666 6572 
 10116      496E 6465 
 10116      7800 
 10117               	.LASF141:
 10118 0b6c 4B45 595F 		.string	"KEY_WWW_SEARCH"
 10118      5757 575F 
 10118      5345 4152 
 10118      4348 00
 10119               	.LASF293:
 10120 0b7b 7374 725F 		.string	"str_input_keycode"
 10120      696E 7075 
 10120      745F 6B65 
 10120      7963 6F64 
 10120      6500 
 10121               	.LASF0:
 10122 0b8d 756E 7369 		.string	"unsigned char"
 10122      676E 6564 
 10122      2063 6861 
 10122      7200 
 10123               	.LASF205:
 10124 0b9b 7072 696E 		.string	"printMapperMessage"
 10124      744D 6170 
 10124      7065 724D 
GAS LISTING C:\Users\ADMINI~1\AppData\Local\Temp/ccSP7hgy.s 			page 196


 10124      6573 7361 
 10124      6765 00
 10125               	.LASF72:
 10126 0bae 4B45 595F 		.string	"KEY_RBR"
 10126      5242 5200 
 10127               	.LASF204:
 10128 0bb6 6973 4465 		.string	"isDeepKeyMapping"
 10128      6570 4B65 
 10128      794D 6170 
 10128      7069 6E67 
 10128      00
 10129               	.LASF269:
 10130 0bc7 5F6D 6163 		.string	"_macroDownCount"
 10130      726F 446F 
 10130      776E 436F 
 10130      756E 7400 
 10131               	.LASF199:
 10132 0bd7 674B 6579 		.string	"gKeyIndex"
 10132      496E 6465 
 10132      7800 
 10133               	.LASF230:
 10134 0be1 674B 6579 		.string	"gKeyCode"
 10134      436F 6465 
 10134      00
 10135               	.LASF138:
 10136 0bea 4B45 595F 		.string	"KEY_SLEEP"
 10136      534C 4545 
 10136      5000 
 10137               	.LASF253:
 10138 0bf4 6B65 794D 		.string	"keyMappingCount"
 10138      6170 7069 
 10138      6E67 436F 
 10138      756E 7400 
 10139               	.LASF320:
 10140 0c04 6973 5265 		.string	"isReadyKeyMappingOnBoot"
 10140      6164 794B 
 10140      6579 4D61 
 10140      7070 696E 
 10140      674F 6E42 
 10141               	.LASF239:
 10142 0c1c 674C 656E 		.string	"gLen"
 10142      00
 10143               	.LASF162:
 10144 0c21 4B45 595F 		.string	"KEY_EJECT"
 10144      454A 4543 
 10144      5400 
 10145               	.LASF109:
 10146 0c2b 4B45 595F 		.string	"KEY_KP_AST"
 10146      4B50 5F41 
 10146      5354 00
 10147               	.LASF139:
 10148 0c36 4B45 595F 		.string	"KEY_WAKE"
 10148      5741 4B45 
 10148      00
 10149               	.LASF290:
 10150 0c3f 7374 725F 		.string	"str_prepare_message"
 10150      7072 6570 
GAS LISTING C:\Users\ADMINI~1\AppData\Local\Temp/ccSP7hgy.s 			page 197


 10150      6172 655F 
 10150      6D65 7373 
 10150      6167 6500 
 10151               	.LASF231:
 10152 0c53 6275 6666 		.string	"buffers"
 10152      6572 7300 
 10153               	.LASF99:
 10154 0c5b 4B45 595F 		.string	"KEY_PGUP"
 10154      5047 5550 
 10154      00
 10155               	.LASF208:
 10156 0c64 7365 7457 		.string	"setWillStartKeyMapping"
 10156      696C 6C53 
 10156      7461 7274 
 10156      4B65 794D 
 10156      6170 7069 
 10157               	.LASF223:
 10158 0c7b 7853 7472 		.string	"xString"
 10158      696E 6700 
 10159               	.LASF146:
 10160 0c83 4B45 595F 		.string	"KEY_WWW_REFRESH"
 10160      5757 575F 
 10160      5245 4652 
 10160      4553 4800 
 10161               	.LASF153:
 10162 0c93 4B45 595F 		.string	"KEY_VOL_UP"
 10162      564F 4C5F 
 10162      5550 00
 10163               	.LASF301:
 10164 0c9e 7374 725F 		.string	"str_saving"
 10164      7361 7669 
 10164      6E67 00
 10165               	.LASF97:
 10166 0ca9 4B45 595F 		.string	"KEY_INSERT"
 10166      494E 5345 
 10166      5254 00
 10167               	.LASF26:
 10168 0cb4 4B45 595F 		.string	"KEY_POSTFail"
 10168      504F 5354 
 10168      4661 696C 
 10168      00
 10169               	.LASF1:
 10170 0cc1 7369 676E 		.string	"signed char"
 10170      6564 2063 
 10170      6861 7200 
 10171               	.LASF98:
 10172 0ccd 4B45 595F 		.string	"KEY_HOME"
 10172      484F 4D45 
 10172      00
 10173               	.LASF2:
 10174 0cd6 7368 6F72 		.string	"short unsigned int"
 10174      7420 756E 
 10174      7369 676E 
 10174      6564 2069 
 10174      6E74 00
 10175               	.LASF202:
 10176 0ce9 6573 6361 		.string	"escapeMacroKeycode"
GAS LISTING C:\Users\ADMINI~1\AppData\Local\Temp/ccSP7hgy.s 			page 198


 10176      7065 4D61 
 10176      6372 6F4B 
 10176      6579 636F 
 10176      6465 00
 10177               	.LASF143:
 10178 0cfc 4B45 595F 		.string	"KEY_WWW_BACK"
 10178      5757 575F 
 10178      4241 434B 
 10178      00
 10179               	.LASF286:
 10180 0d09 7374 725F 		.string	"str_mapper_2"
 10180      6D61 7070 
 10180      6572 5F32 
 10180      00
 10181               	.LASF287:
 10182 0d16 7374 725F 		.string	"str_mapper_3"
 10182      6D61 7070 
 10182      6572 5F33 
 10182      00
 10183               	.LASF190:
 10184 0d23 5F5F 746D 		.string	"__tmp"
 10184      7000 
 10185               	.LASF91:
 10186 0d29 4B45 595F 		.string	"KEY_F10"
 10186      4631 3000 
 10187               	.LASF92:
 10188 0d31 4B45 595F 		.string	"KEY_F11"
 10188      4631 3100 
 10189               	.LASF93:
 10190 0d39 4B45 595F 		.string	"KEY_F12"
 10190      4631 3200 
 10191               	.LASF169:
 10192 0d41 4B45 595F 		.string	"KEY_F13"
 10192      4631 3300 
 10193               	.LASF170:
 10194 0d49 4B45 595F 		.string	"KEY_F14"
 10194      4631 3400 
 10195               	.LASF171:
 10196 0d51 4B45 595F 		.string	"KEY_F15"
 10196      4631 3500 
 10197               	.LASF172:
 10198 0d59 4B45 595F 		.string	"KEY_F16"
 10198      4631 3600 
 10199               	.LASF173:
 10200 0d61 4B45 595F 		.string	"KEY_F17"
 10200      4631 3700 
 10201               	.LASF174:
 10202 0d69 4B45 595F 		.string	"KEY_F18"
 10202      4631 3800 
 10203               	.LASF175:
 10204 0d71 4B45 595F 		.string	"KEY_F19"
 10204      4631 3900 
 10205               	.LASF257:
 10206 0d79 5F73 7465 		.string	"_step"
 10206      7000 
 10207               	.LASF191:
 10208 0d7f 646F 7562 		.string	"double"
GAS LISTING C:\Users\ADMINI~1\AppData\Local\Temp/ccSP7hgy.s 			page 199


 10208      6C65 00
 10209               	.LASF144:
 10210 0d86 4B45 595F 		.string	"KEY_WWW_FORWARD"
 10210      5757 575F 
 10210      464F 5257 
 10210      4152 4400 
 10211               	.LASF303:
 10212 0d96 7374 725F 		.string	"str_invalid_keycode"
 10212      696E 7661 
 10212      6C69 645F 
 10212      6B65 7963 
 10212      6F64 6500 
 10213               	.LASF270:
 10214 0daa 494E 5445 		.string	"INTERFACE"
 10214      5246 4143 
 10214      4500 
 10215               	.LASF131:
 10216 0db4 4B45 595F 		.string	"KEY_RCTRL"
 10216      5243 5452 
 10216      4C00 
 10217               	.LASF183:
 10218 0dbe 6B65 7963 		.string	"keycode"
 10218      6F64 6500 
 10219               	.LASF307:
 10220 0dc6 7374 725F 		.string	"str_invalid_macro_number"
 10220      696E 7661 
 10220      6C69 645F 
 10220      6D61 6372 
 10220      6F5F 6E75 
 10221               	.LASF258:
 10222 0ddf 5F73 7465 		.string	"_stepAfterLayerSave"
 10222      7041 6674 
 10222      6572 4C61 
 10222      7965 7253 
 10222      6176 6500 
 10223               	.LASF261:
 10224 0df3 5F72 6F77 		.string	"_row"
 10224      00
 10225               	.LASF74:
 10226 0df8 4B45 595F 		.string	"KEY_Europe1"
 10226      4575 726F 
 10226      7065 3100 
 10227               	.LASF124:
 10228 0e04 4B45 595F 		.string	"KEY_Europe2"
 10228      4575 726F 
 10228      7065 3200 
 10229               	.LASF203:
 10230 0e10 6973 4B65 		.string	"isKeyMapping"
 10230      794D 6170 
 10230      7069 6E67 
 10230      00
 10231               	.LASF318:
 10232 0e1d 6B65 796D 		.string	"keymapper.c"
 10232      6170 7065 
 10232      722E 6300 
 10233               	.LASF201:
 10234 0e29 6973 4D61 		.string	"isMacroKey"
GAS LISTING C:\Users\ADMINI~1\AppData\Local\Temp/ccSP7hgy.s 			page 200


 10234      6372 6F4B 
 10234      6579 00
 10235               	.LASF176:
 10236 0e34 4B45 595F 		.string	"KEY_F20"
 10236      4632 3000 
 10237               	.LASF177:
 10238 0e3c 4B45 595F 		.string	"KEY_F21"
 10238      4632 3100 
 10239               	.LASF178:
 10240 0e44 4B45 595F 		.string	"KEY_F22"
 10240      4632 3200 
 10241               	.LASF179:
 10242 0e4c 4B45 595F 		.string	"KEY_F23"
 10242      4632 3300 
 10243               	.LASF180:
 10244 0e54 4B45 595F 		.string	"KEY_F24"
 10244      4632 3400 
 10245               	.LASF80:
 10246 0e5c 4B45 595F 		.string	"KEY_SLASH"
 10246      534C 4153 
 10246      4800 
 10247               	.global __do_copy_data
 10248               	.global __do_clear_bss
GAS LISTING C:\Users\ADMINI~1\AppData\Local\Temp/ccSP7hgy.s 			page 201


DEFINED SYMBOLS
                            *ABS*:00000000 keymapper.c
C:\Users\ADMINI~1\AppData\Local\Temp/ccSP7hgy.s:2      *ABS*:0000003f __SREG__
C:\Users\ADMINI~1\AppData\Local\Temp/ccSP7hgy.s:3      *ABS*:0000003e __SP_H__
C:\Users\ADMINI~1\AppData\Local\Temp/ccSP7hgy.s:4      *ABS*:0000003d __SP_L__
C:\Users\ADMINI~1\AppData\Local\Temp/ccSP7hgy.s:5      *ABS*:00000034 __CCP__
C:\Users\ADMINI~1\AppData\Local\Temp/ccSP7hgy.s:6      *ABS*:00000000 __tmp_reg__
C:\Users\ADMINI~1\AppData\Local\Temp/ccSP7hgy.s:7      *ABS*:00000001 __zero_reg__
C:\Users\ADMINI~1\AppData\Local\Temp/ccSP7hgy.s:18     .text:00000000 setWillStartKeyMapping
C:\Users\ADMINI~1\AppData\Local\Temp/ccSP7hgy.s:2788   .bss:00000006 _isKeyMapping
C:\Users\ADMINI~1\AppData\Local\Temp/ccSP7hgy.s:34     .text:0000000c isKeyMapping
C:\Users\ADMINI~1\AppData\Local\Temp/ccSP7hgy.s:49     .text:00000014 isDeepKeyMapping
C:\Users\ADMINI~1\AppData\Local\Temp/ccSP7hgy.s:64     .text:0000001c applyKeyMapping
C:\Users\ADMINI~1\AppData\Local\Temp/ccSP7hgy.s:2790   .bss:00000008 keyMappingCount
C:\Users\ADMINI~1\AppData\Local\Temp/ccSP7hgy.s:2789   .bss:00000007 enabledKeyMappingCount
C:\Users\ADMINI~1\AppData\Local\Temp/ccSP7hgy.s:2794   .data:00000033 keyMappingCountMax
C:\Users\ADMINI~1\AppData\Local\Temp/ccSP7hgy.s:109    .text:0000005c isReadyKeyMappingOnBoot
C:\Users\ADMINI~1\AppData\Local\Temp/ccSP7hgy.s:2791   .bss:0000000a _keyMappingOnBoot
C:\Users\ADMINI~1\AppData\Local\Temp/ccSP7hgy.s:122    .text:00000062 readyKeyMappingOnBoot
C:\Users\ADMINI~1\AppData\Local\Temp/ccSP7hgy.s:137    .text:0000006a stopKeyMapping
C:\Users\ADMINI~1\AppData\Local\Temp/ccSP7hgy.s:2799   .bss:0000000e _wait
C:\Users\ADMINI~1\AppData\Local\Temp/ccSP7hgy.s:153    .text:00000074 isMacroKey
C:\Users\ADMINI~1\AppData\Local\Temp/ccSP7hgy.s:175    .text:00000082 escapeMacroKeycode
C:\Users\ADMINI~1\AppData\Local\Temp/ccSP7hgy.s:200    .text:00000090 printEnter
C:\Users\ADMINI~1\AppData\Local\Temp/ccSP7hgy.s:218    .text:0000009e resetMacroInput
                            *COM*:00000030 _macroInputBuffer
                            *COM*:00000001 _macroBufferIndex
                            *COM*:00000018 _macroPressedBuffer
C:\Users\ADMINI~1\AppData\Local\Temp/ccSP7hgy.s:2772   .bss:00000005 _macroDownCount
C:\Users\ADMINI~1\AppData\Local\Temp/ccSP7hgy.s:249    .text:000000c4 pushCharacter
C:\Users\ADMINI~1\AppData\Local\Temp/ccSP7hgy.s:302    .text:000000f8 printStringFromFlash
C:\Users\ADMINI~1\AppData\Local\Temp/ccSP7hgy.s:411    .text:00000188 resetCurrentLayer
C:\Users\ADMINI~1\AppData\Local\Temp/ccSP7hgy.s:2691   .progmem.data:000001c0 str_reset_mapping
                            *COM*:00000088 _newKeyMap
C:\Users\ADMINI~1\AppData\Local\Temp/ccSP7hgy.s:2804   .bss:00000015 _editCount
C:\Users\ADMINI~1\AppData\Local\Temp/ccSP7hgy.s:465    .text:000001d4 clearMacro
C:\Users\ADMINI~1\AppData\Local\Temp/ccSP7hgy.s:2751   .progmem.data:000002f3 str_clear_all_macro
                             .bss:00000004 _isWorkingForEmpty
C:\Users\ADMINI~1\AppData\Local\Temp/ccSP7hgy.s:2797   .bss:0000000c _step
C:\Users\ADMINI~1\AppData\Local\Temp/ccSP7hgy.s:491    .text:000001f2 saveCurrentLayer
C:\Users\ADMINI~1\AppData\Local\Temp/ccSP7hgy.s:2716   .progmem.data:00000224 str_saving
C:\Users\ADMINI~1\AppData\Local\Temp/ccSP7hgy.s:2798   .bss:0000000d _stepAfterLayerSave
C:\Users\ADMINI~1\AppData\Local\Temp/ccSP7hgy.s:533    .text:0000022e printPrepareString
C:\Users\ADMINI~1\AppData\Local\Temp/ccSP7hgy.s:2661   .progmem.data:00000109 str_prepare_message
C:\Users\ADMINI~1\AppData\Local\Temp/ccSP7hgy.s:551    .text:0000023c printMacroMessage
C:\Users\ADMINI~1\AppData\Local\Temp/ccSP7hgy.s:2606   .progmem.data:00000054 str_macro_message
C:\Users\ADMINI~1\AppData\Local\Temp/ccSP7hgy.s:2611   .progmem.data:0000005a str_macro_1
C:\Users\ADMINI~1\AppData\Local\Temp/ccSP7hgy.s:2616   .progmem.data:0000006f str_macro_2
C:\Users\ADMINI~1\AppData\Local\Temp/ccSP7hgy.s:2626   .progmem.data:00000082 str_back_6
C:\Users\ADMINI~1\AppData\Local\Temp/ccSP7hgy.s:2621   .progmem.data:00000076 str_macro_9
C:\Users\ADMINI~1\AppData\Local\Temp/ccSP7hgy.s:598    .text:00000284 printString
C:\Users\ADMINI~1\AppData\Local\Temp/ccSP7hgy.s:701    .text:0000032a printPrompt
C:\Users\ADMINI~1\AppData\Local\Temp/ccSP7hgy.s:2666   .progmem.data:00000111 str_choose_layer
C:\Users\ADMINI~1\AppData\Local\Temp/ccSP7hgy.s:2805   .bss:00000017 _currentLayer
C:\Users\ADMINI~1\AppData\Local\Temp/ccSP7hgy.s:2671   .progmem.data:00000143 str_choose_key
C:\Users\ADMINI~1\AppData\Local\Temp/ccSP7hgy.s:2676   .progmem.data:00000162 str_input_keycode
C:\Users\ADMINI~1\AppData\Local\Temp/ccSP7hgy.s:2681   .progmem.data:00000184 str_save_end_mapping
GAS LISTING C:\Users\ADMINI~1\AppData\Local\Temp/ccSP7hgy.s 			page 202


C:\Users\ADMINI~1\AppData\Local\Temp/ccSP7hgy.s:2686   .progmem.data:0000019c str_cancel_mapping
C:\Users\ADMINI~1\AppData\Local\Temp/ccSP7hgy.s:2696   .progmem.data:000001df str_input_command
C:\Users\ADMINI~1\AppData\Local\Temp/ccSP7hgy.s:2731   .progmem.data:00000258 str_select_number
C:\Users\ADMINI~1\AppData\Local\Temp/ccSP7hgy.s:2736   .progmem.data:00000285 str_exit_macro
C:\Users\ADMINI~1\AppData\Local\Temp/ccSP7hgy.s:2741   .progmem.data:000002a0 str_input_macro
C:\Users\ADMINI~1\AppData\Local\Temp/ccSP7hgy.s:2601   .progmem.data:00000041 str_boot_mapper
C:\Users\ADMINI~1\AppData\Local\Temp/ccSP7hgy.s:2596   .progmem.data:00000037 str_exit
C:\Users\ADMINI~1\AppData\Local\Temp/ccSP7hgy.s:918    .text:0000045a printSelectMode
C:\Users\ADMINI~1\AppData\Local\Temp/ccSP7hgy.s:875    .text:0000041a printMapperMessageAfter
C:\Users\ADMINI~1\AppData\Local\Temp/ccSP7hgy.s:2646   .progmem.data:000000c0 str_mapper_3
C:\Users\ADMINI~1\AppData\Local\Temp/ccSP7hgy.s:2651   .progmem.data:000000d0 str_mapper_4
C:\Users\ADMINI~1\AppData\Local\Temp/ccSP7hgy.s:2656   .progmem.data:000000e6 str_mapper_9
C:\Users\ADMINI~1\AppData\Local\Temp/ccSP7hgy.s:2571   .progmem.data:00000000 str_select_mode
C:\Users\ADMINI~1\AppData\Local\Temp/ccSP7hgy.s:2576   .progmem.data:0000000c str_select_mode1
C:\Users\ADMINI~1\AppData\Local\Temp/ccSP7hgy.s:2581   .progmem.data:0000001a str_select_mode2
C:\Users\ADMINI~1\AppData\Local\Temp/ccSP7hgy.s:2586   .progmem.data:00000022 str_select_mode3
C:\Users\ADMINI~1\AppData\Local\Temp/ccSP7hgy.s:2591   .progmem.data:00000029 str_select_mode4
C:\Users\ADMINI~1\AppData\Local\Temp/ccSP7hgy.s:967    .text:000004a6 clearMacroAfter
C:\Users\ADMINI~1\AppData\Local\Temp/ccSP7hgy.s:1002   .text:000004d0 saveMacro
                            *COM*:00000001 _macroIndex
C:\Users\ADMINI~1\AppData\Local\Temp/ccSP7hgy.s:1051   .text:00000518 readMacro
C:\Users\ADMINI~1\AppData\Local\Temp/ccSP7hgy.s:1113   .text:00000560 loadCurrentLayer
C:\Users\ADMINI~1\AppData\Local\Temp/ccSP7hgy.s:1210   .text:000005e8 putKeyCode
C:\Users\ADMINI~1\AppData\Local\Temp/ccSP7hgy.s:2776   .data:00000028 usingKeys
C:\Users\ADMINI~1\AppData\Local\Temp/ccSP7hgy.s:2770   .bss:00000003 _isTiredEscapeKey
C:\Users\ADMINI~1\AppData\Local\Temp/ccSP7hgy.s:2764   .bss:00000002 _isPressedEscapeKey
C:\Users\ADMINI~1\AppData\Local\Temp/ccSP7hgy.s:2758   .bss:00000000 _pressedEscapeKeyCount
C:\Users\ADMINI~1\AppData\Local\Temp/ccSP7hgy.s:2803   .bss:00000014 _bufferIndex
C:\Users\ADMINI~1\AppData\Local\Temp/ccSP7hgy.s:2802   .bss:00000011 _buffer
C:\Users\ADMINI~1\AppData\Local\Temp/ccSP7hgy.s:2796   .bss:0000000b _mode
C:\Users\ADMINI~1\AppData\Local\Temp/ccSP7hgy.s:2631   .progmem.data:00000089 str_mapper_message
C:\Users\ADMINI~1\AppData\Local\Temp/ccSP7hgy.s:2636   .progmem.data:00000094 str_mapper_1
C:\Users\ADMINI~1\AppData\Local\Temp/ccSP7hgy.s:2641   .progmem.data:000000a3 str_mapper_2
C:\Users\ADMINI~1\AppData\Local\Temp/ccSP7hgy.s:2746   .progmem.data:000002d7 str_invalid_macro_number
C:\Users\ADMINI~1\AppData\Local\Temp/ccSP7hgy.s:2706   .progmem.data:000001fe str_save_layer
C:\Users\ADMINI~1\AppData\Local\Temp/ccSP7hgy.s:2806   .bss:00000018 _currentLayerAfter
C:\Users\ADMINI~1\AppData\Local\Temp/ccSP7hgy.s:2711   .progmem.data:00000211 str_load_layer
C:\Users\ADMINI~1\AppData\Local\Temp/ccSP7hgy.s:2800   .bss:0000000f _col
C:\Users\ADMINI~1\AppData\Local\Temp/ccSP7hgy.s:2801   .bss:00000010 _row
C:\Users\ADMINI~1\AppData\Local\Temp/ccSP7hgy.s:2721   .progmem.data:0000022e str_col_row
C:\Users\ADMINI~1\AppData\Local\Temp/ccSP7hgy.s:2726   .progmem.data:0000023a str_invalid_keycode
C:\Users\ADMINI~1\AppData\Local\Temp/ccSP7hgy.s:2058   .text:00000b4e saveCurrentLayerAfter
C:\Users\ADMINI~1\AppData\Local\Temp/ccSP7hgy.s:2182   .text:00000c1c prepareKeyMapper
C:\Users\ADMINI~1\AppData\Local\Temp/ccSP7hgy.s:2212   .text:00000c40 getCurrentKeycode
C:\Users\ADMINI~1\AppData\Local\Temp/ccSP7hgy.s:2316   .text:00000cb6 applyMacro
C:\Users\ADMINI~1\AppData\Local\Temp/ccSP7hgy.s:2363   .text:00000ce6 startKeyMapping
C:\Users\ADMINI~1\AppData\Local\Temp/ccSP7hgy.s:2398   .text:00000d0a prepareKeyMapping
C:\Users\ADMINI~1\AppData\Local\Temp/ccSP7hgy.s:2437   .text:00000d3a countKeyMappingEnabled
C:\Users\ADMINI~1\AppData\Local\Temp/ccSP7hgy.s:2469   .text:00000d74 enterFrameForMapper
C:\Users\ADMINI~1\AppData\Local\Temp/ccSP7hgy.s:2542   .text:00000dee startKeyMappingOnBoot
C:\Users\ADMINI~1\AppData\Local\Temp/ccSP7hgy.s:2701   .progmem.data:000001f6 str_nothing

UNDEFINED SYMBOLS
INTERFACE
pushM
charToKey
sprintf
GAS LISTING C:\Users\ADMINI~1\AppData\Local\Temp/ccSP7hgy.s 			page 203


toString
setToBootMapper
__eewr_byte_m32
__eerd_byte_m32
findIndex
append
delete
keymap_code
isEmptyM
clearMacroPressedBuffer
isAllKeyRelease
prepareKeyMappingUsb
prepareKeyMappingPs2
isMacroProcessEnd
isBootMapper
__do_copy_data
__do_clear_bss
