GAS LISTING C:\Users\ADMINI~1\AppData\Local\Temp/cc3eqS1j.s 			page 1


   1               		.file	"keysta.c"
   2               	__SREG__ = 0x3f
   3               	__SP_H__ = 0x3e
   4               	__SP_L__ = 0x3d
   5               	__CCP__  = 0x34
   6               	__tmp_reg__ = 0
   7               	__zero_reg__ = 1
   8               		.section	.debug_abbrev,"",@progbits
   9               	.Ldebug_abbrev0:
  10               		.section	.debug_info,"",@progbits
  11               	.Ldebug_info0:
  12               		.section	.debug_line,"",@progbits
  13               	.Ldebug_line0:
  14               		.text
  15               	.Ltext0:
  16               	.global	kbd_set_tx
  17               		.type	kbd_set_tx, @function
  18               	kbd_set_tx:
  19               	.LFB7:
  20               	.LM1:
  21               	.LVL0:
  22               	/* prologue: function */
  23               	/* frame size = 0 */
  24               	.LM2:
  25 0000 8093 0000 		sts tx_byte,r24
  26               	.LM3:
  27               	/* #APP */
  28               	 ;  106 "keysta.c" 1
  29 0004 F894      		cli
  30               	 ;  0 "" 2
  31               	.LM4:
  32               	/* #NOAPP */
  33 0006 8091 0000 		lds r24,kbd_flags
  34               	.LVL1:
  35 000a 8F7E      		andi r24,lo8(-17)
  36 000c 8093 0000 		sts kbd_flags,r24
  37               	.LM5:
  38 0010 8091 0000 		lds r24,kbd_flags
  39 0014 8860      		ori r24,lo8(8)
  40 0016 8093 0000 		sts kbd_flags,r24
  41               	.LM6:
  42               	/* #APP */
  43               	 ;  109 "keysta.c" 1
  44 001a 7894      		sei
  45               	 ;  0 "" 2
  46               	/* epilogue start */
  47               	.LM7:
  48               	/* #NOAPP */
  49 001c 0895      		ret
  50               	.LFE7:
  51               		.size	kbd_set_tx, .-kbd_set_tx
  52               	.global	kbd_get_rx_char
  53               		.type	kbd_get_rx_char, @function
  54               	kbd_get_rx_char:
  55               	.LFB8:
  56               	.LM8:
  57               	/* prologue: function */
GAS LISTING C:\Users\ADMINI~1\AppData\Local\Temp/cc3eqS1j.s 			page 2


  58               	/* frame size = 0 */
  59               	.LM9:
  60               	/* #APP */
  61               	 ;  115 "keysta.c" 1
  62 001e F894      		cli
  63               	 ;  0 "" 2
  64               	.LM10:
  65               	/* #NOAPP */
  66 0020 8091 0000 		lds r24,kbd_flags
  67 0024 8B7F      		andi r24,lo8(-5)
  68 0026 8093 0000 		sts kbd_flags,r24
  69               	.LM11:
  70               	/* #APP */
  71               	 ;  117 "keysta.c" 1
  72 002a 7894      		sei
  73               	 ;  0 "" 2
  74               	.LM12:
  75               	/* #NOAPP */
  76 002c 8091 0000 		lds r24,rx_byte
  77               	/* epilogue start */
  78               	.LM13:
  79 0030 0895      		ret
  80               	.LFE8:
  81               		.size	kbd_get_rx_char, .-kbd_get_rx_char
  82               		.type	timerAction, @function
  83               	timerAction:
  84               	.LFB9:
  85               	.LM14:
  86               	/* prologue: function */
  87               	/* frame size = 0 */
  88               	.LM15:
  89 0032 8FEC      		ldi r24,lo8(-49)
  90 0034 84BD      		out 68-32,r24
  91               	.LM16:
  92 0036 8091 0000 		lds r24,kbd_state
  93 003a 8330      		cpi r24,lo8(3)
  94 003c 00F4      		brsh .L6
  95               	.LBB38:
  96               	.LBB39:
  97               	.LM17:
  98 003e 8B98      		cbi 49-32,3
  99               	.LM18:
 100 0040 939A      		sbi 50-32,3
 101               	.LBE39:
 102               	.LBE38:
 103               	.LM19:
 104 0042 8091 0000 		lds r24,kbd_flags
 105 0046 80FF      		sbrs r24,0
 106 0048 00C0      		rjmp .L45
 107               	.L7:
 108               	.LM20:
 109 004a 829B      		sbis 48-32,2
 110 004c 00C0      		rjmp .L48
 111               	.L9:
 112               	.LM21:
 113 004e 8091 0000 		lds r24,kbd_state
 114 0052 8130      		cpi r24,lo8(1)
GAS LISTING C:\Users\ADMINI~1\AppData\Local\Temp/cc3eqS1j.s 			page 3


 115 0054 01F0      		breq .L11
 116 0056 8130      		cpi r24,lo8(1)
 117 0058 00F0      		brlo .L13
 118 005a 8230      		cpi r24,lo8(2)
 119 005c 01F0      		breq .+2
 120 005e 00C0      		rjmp .L41
 121 0060 00C0      		rjmp .L49
 122               	.L11:
 123               	.LM22:
 124 0062 8399      		sbic 48-32,3
 125 0064 00C0      		rjmp .L13
 126               	.LM23:
 127 0066 8DE0      		ldi r24,lo8(13)
 128 0068 00C0      		rjmp .L44
 129               	.L13:
 130               	.LM24:
 131 006a 82E0      		ldi r24,lo8(2)
 132 006c 00C0      		rjmp .L44
 133               	.L49:
 134               	.LM25:
 135 006e 8091 0000 		lds r24,kbd_flags
 136 0072 83FF      		sbrs r24,3
 137 0074 00C0      		rjmp .L41
 138               	.LBB40:
 139               	.LBB41:
 140               	.LM26:
 141 0076 9398      		cbi 50-32,3
 142               	.LM27:
 143 0078 8B9A      		sbi 49-32,3
 144               	.LBE41:
 145               	.LBE40:
 146               	.LM28:
 147 007a 84E2      		ldi r24,lo8(36)
 148 007c 00C0      		rjmp .L44
 149               	.L6:
 150               	.LM29:
 151 007e 8091 0000 		lds r24,kbd_state
 152 0082 8A31      		cpi r24,lo8(26)
 153 0084 00F0      		brlo .+2
 154 0086 00C0      		rjmp .L14
 155               	.LM30:
 156 0088 8091 0000 		lds r24,kbd_flags
 157 008c 80FD      		sbrc r24,0
 158 008e 00C0      		rjmp .L15
 159               	.L45:
 160               	.LM31:
 161 0090 8091 0000 		lds r24,kbd_flags
 162 0094 8160      		ori r24,lo8(1)
 163 0096 8093 0000 		sts kbd_flags,r24
 164               	.LBB42:
 165               	.LBB43:
 166               	.LM32:
 167 009a 8A98      		cbi 49-32,2
 168               	.LM33:
 169 009c 929A      		sbi 50-32,2
 170 009e 0895      		ret
 171               	.L15:
GAS LISTING C:\Users\ADMINI~1\AppData\Local\Temp/cc3eqS1j.s 			page 4


 172               	.LBE43:
 173               	.LBE42:
 174               	.LM34:
 175 00a0 829B      		sbis 48-32,2
 176 00a2 00C0      		rjmp .L47
 177               	.L16:
 178               	.LM35:
 179 00a4 8091 0000 		lds r24,kbd_state
 180 00a8 8731      		cpi r24,lo8(23)
 181 00aa 00F4      		brsh .L24
 182 00ac 8031      		cpi r24,lo8(16)
 183 00ae 00F4      		brsh .L20
 184 00b0 8D30      		cpi r24,lo8(13)
 185 00b2 01F0      		breq .L18
 186 00b4 8F30      		cpi r24,lo8(15)
 187 00b6 01F0      		breq .+2
 188 00b8 00C0      		rjmp .L17
 189 00ba 00C0      		rjmp .L50
 190               	.L24:
 191 00bc 8831      		cpi r24,lo8(24)
 192 00be 01F0      		breq .L22
 193 00c0 8831      		cpi r24,lo8(24)
 194 00c2 00F0      		brlo .L21
 195 00c4 8931      		cpi r24,lo8(25)
 196 00c6 01F0      		breq .+2
 197 00c8 00C0      		rjmp .L17
 198 00ca 00C0      		rjmp .L51
 199               	.L18:
 200               	.LM36:
 201 00cc 8091 0000 		lds r24,kbd_flags
 202 00d0 8D7F      		andi r24,lo8(-3)
 203 00d2 00C0      		rjmp .L46
 204               	.L50:
 205               	.LM37:
 206 00d4 8091 0000 		lds r24,kbd_flags
 207 00d8 8B7F      		andi r24,lo8(-5)
 208 00da 8093 0000 		sts kbd_flags,r24
 209               	.LM38:
 210 00de 839B      		sbis 48-32,3
 211 00e0 00C0      		rjmp .L25
 212               	.LM39:
 213 00e2 80E8      		ldi r24,lo8(-128)
 214 00e4 8093 0000 		sts rx_byte,r24
 215               	.LM40:
 216 00e8 81E0      		ldi r24,lo8(1)
 217 00ea 00C0      		rjmp .L43
 218               	.L25:
 219               	.LM41:
 220 00ec 1092 0000 		sts parity,__zero_reg__
 221               	.LM42:
 222 00f0 1092 0000 		sts rx_byte,__zero_reg__
 223 00f4 00C0      		rjmp .L17
 224               	.L20:
 225               	.LM43:
 226 00f6 8091 0000 		lds r24,rx_byte
 227 00fa 8695      		lsr r24
 228 00fc 8093 0000 		sts rx_byte,r24
GAS LISTING C:\Users\ADMINI~1\AppData\Local\Temp/cc3eqS1j.s 			page 5


 229               	.LM44:
 230 0100 839B      		sbis 48-32,3
 231 0102 00C0      		rjmp .L17
 232               	.LM45:
 233 0104 8091 0000 		lds r24,rx_byte
 234 0108 8068      		ori r24,lo8(-128)
 235 010a 8093 0000 		sts rx_byte,r24
 236               	.LM46:
 237 010e 8091 0000 		lds r24,parity
 238 0112 8F5F      		subi r24,lo8(-(1))
 239               	.L43:
 240 0114 8093 0000 		sts parity,r24
 241 0118 00C0      		rjmp .L17
 242               	.L21:
 243               	.LM47:
 244 011a 839B      		sbis 48-32,3
 245 011c 00C0      		rjmp .L26
 246               	.LM48:
 247 011e 8091 0000 		lds r24,parity
 248 0122 8F5F      		subi r24,lo8(-(1))
 249 0124 8093 0000 		sts parity,r24
 250               	.L26:
 251               	.LM49:
 252 0128 8091 0000 		lds r24,parity
 253 012c 80FD      		sbrc r24,0
 254 012e 00C0      		rjmp .L17
 255               	.LM50:
 256 0130 8091 0000 		lds r24,kbd_flags
 257 0134 8260      		ori r24,lo8(2)
 258 0136 00C0      		rjmp .L42
 259               	.L22:
 260               	.LM51:
 261 0138 8399      		sbic 48-32,3
 262 013a 00C0      		rjmp .L27
 263               	.LM52:
 264 013c 8091 0000 		lds r24,kbd_flags
 265 0140 8260      		ori r24,lo8(2)
 266 0142 8093 0000 		sts kbd_flags,r24
 267               	.L27:
 268               	.LM53:
 269 0146 8091 0000 		lds r24,kbd_flags
 270 014a 81FD      		sbrc r24,1
 271 014c 00C0      		rjmp .L17
 272               	.LBB44:
 273               	.LBB45:
 274               	.LM54:
 275 014e 9398      		cbi 50-32,3
 276               	.LM55:
 277 0150 8B9A      		sbi 49-32,3
 278               	.LBE45:
 279               	.LBE44:
 280               	.LM56:
 281 0152 8091 0000 		lds r24,kbd_flags
 282 0156 8460      		ori r24,lo8(4)
 283               	.L42:
 284 0158 8093 0000 		sts kbd_flags,r24
 285 015c 00C0      		rjmp .L17
GAS LISTING C:\Users\ADMINI~1\AppData\Local\Temp/cc3eqS1j.s 			page 6


 286               	.L51:
 287               	.LBB46:
 288               	.LBB47:
 289               	.LM57:
 290 015e 8B98      		cbi 49-32,3
 291               	.LM58:
 292 0160 939A      		sbi 50-32,3
 293 0162 00C0      		rjmp .L35
 294               	.L17:
 295               	.LBE47:
 296               	.LBE46:
 297               	.LBB48:
 298               	.LBB49:
 299               	.LM59:
 300 0164 9298      		cbi 50-32,2
 301               	.LM60:
 302 0166 8A9A      		sbi 49-32,2
 303               	.LBE49:
 304               	.LBE48:
 305               	.LM61:
 306 0168 8091 0000 		lds r24,kbd_flags
 307 016c 8E7F      		andi r24,lo8(-2)
 308               	.L46:
 309 016e 8093 0000 		sts kbd_flags,r24
 310               	.LM62:
 311 0172 8091 0000 		lds r24,kbd_state
 312 0176 8F5F      		subi r24,lo8(-(1))
 313 0178 00C0      		rjmp .L44
 314               	.L14:
 315               	.LM63:
 316 017a 8091 0000 		lds r24,kbd_state
 317 017e 8F32      		cpi r24,lo8(47)
 318 0180 00F0      		brlo .+2
 319 0182 00C0      		rjmp .L41
 320               	.LM64:
 321 0184 8091 0000 		lds r24,kbd_flags
 322 0188 80FF      		sbrs r24,0
 323 018a 00C0      		rjmp .L28
 324               	.LM65:
 325 018c 8299      		sbic 48-32,2
 326 018e 00C0      		rjmp .L29
 327               	.L47:
 328               	.LBB50:
 329               	.LBB51:
 330               	.LM66:
 331 0190 8B98      		cbi 49-32,3
 332               	.LM67:
 333 0192 939A      		sbi 50-32,3
 334               	.L48:
 335               	.LBE51:
 336               	.LBE50:
 337               	.LM68:
 338 0194 81E0      		ldi r24,lo8(1)
 339               	.L44:
 340 0196 8093 0000 		sts kbd_state,r24
 341 019a 0895      		ret
 342               	.L29:
GAS LISTING C:\Users\ADMINI~1\AppData\Local\Temp/cc3eqS1j.s 			page 7


 343               	.LM69:
 344 019c 8091 0000 		lds r24,kbd_flags
 345 01a0 8E7F      		andi r24,lo8(-2)
 346 01a2 8093 0000 		sts kbd_flags,r24
 347               	.LBB52:
 348               	.LBB53:
 349               	.LM70:
 350 01a6 9298      		cbi 50-32,2
 351               	.LM71:
 352 01a8 8A9A      		sbi 49-32,2
 353 01aa 0895      		ret
 354               	.L28:
 355               	.LBE53:
 356               	.LBE52:
 357               	.LM72:
 358 01ac 8091 0000 		lds r24,kbd_flags
 359 01b0 8160      		ori r24,lo8(1)
 360 01b2 8093 0000 		sts kbd_flags,r24
 361               	.LBB54:
 362               	.LBB55:
 363               	.LM73:
 364 01b6 8A98      		cbi 49-32,2
 365               	.LM74:
 366 01b8 929A      		sbi 50-32,2
 367               	.LBE55:
 368               	.LBE54:
 369               	.LM75:
 370 01ba 8091 0000 		lds r24,kbd_state
 371 01be 8C32      		cpi r24,lo8(44)
 372 01c0 00F4      		brsh .L36
 373 01c2 8532      		cpi r24,lo8(37)
 374 01c4 00F4      		brsh .L32
 375 01c6 8432      		cpi r24,lo8(36)
 376 01c8 01F4      		brne .L30
 377 01ca 00C0      		rjmp .L52
 378               	.L36:
 379 01cc 8D32      		cpi r24,lo8(45)
 380 01ce 01F0      		breq .L34
 381 01d0 8D32      		cpi r24,lo8(45)
 382 01d2 00F0      		brlo .L33
 383 01d4 8E32      		cpi r24,lo8(46)
 384 01d6 01F4      		brne .L30
 385 01d8 00C0      		rjmp .L35
 386               	.L52:
 387               	.LM76:
 388 01da 8091 0000 		lds r24,tx_byte
 389 01de 8093 0000 		sts tx_shift,r24
 390               	.LM77:
 391 01e2 1092 0000 		sts parity,__zero_reg__
 392               	.L32:
 393               	.LM78:
 394 01e6 8091 0000 		lds r24,tx_shift
 395 01ea 80FF      		sbrs r24,0
 396 01ec 00C0      		rjmp .L37
 397               	.LBB56:
 398               	.LBB57:
 399               	.LM79:
GAS LISTING C:\Users\ADMINI~1\AppData\Local\Temp/cc3eqS1j.s 			page 8


 400 01ee 8B98      		cbi 49-32,3
 401               	.LM80:
 402 01f0 939A      		sbi 50-32,3
 403               	.LBE57:
 404               	.LBE56:
 405               	.LM81:
 406 01f2 8091 0000 		lds r24,parity
 407 01f6 8F5F      		subi r24,lo8(-(1))
 408 01f8 8093 0000 		sts parity,r24
 409 01fc 00C0      		rjmp .L38
 410               	.L37:
 411               	.LBB58:
 412               	.LBB59:
 413               	.LM82:
 414 01fe 9398      		cbi 50-32,3
 415               	.LM83:
 416 0200 8B9A      		sbi 49-32,3
 417               	.L38:
 418               	.LBE59:
 419               	.LBE58:
 420               	.LM84:
 421 0202 8091 0000 		lds r24,tx_shift
 422 0206 8695      		lsr r24
 423 0208 8093 0000 		sts tx_shift,r24
 424 020c 00C0      		rjmp .L30
 425               	.L33:
 426               	.LM85:
 427 020e 8091 0000 		lds r24,parity
 428 0212 80FF      		sbrs r24,0
 429 0214 00C0      		rjmp .L39
 430               	.LBB60:
 431               	.LBB61:
 432               	.LM86:
 433 0216 9398      		cbi 50-32,3
 434               	.LM87:
 435 0218 8B9A      		sbi 49-32,3
 436 021a 00C0      		rjmp .L40
 437               	.L39:
 438               	.LBE61:
 439               	.LBE60:
 440               	.LBB62:
 441               	.LBB63:
 442               	.LM88:
 443 021c 8B98      		cbi 49-32,3
 444               	.LM89:
 445 021e 939A      		sbi 50-32,3
 446               	.L40:
 447               	.LBE63:
 448               	.LBE62:
 449               	.LM90:
 450 0220 8091 0000 		lds r24,kbd_flags
 451 0224 877F      		andi r24,lo8(-9)
 452 0226 8093 0000 		sts kbd_flags,r24
 453               	.LM91:
 454 022a 8091 0000 		lds r24,kbd_flags
 455 022e 8061      		ori r24,lo8(16)
 456 0230 8093 0000 		sts kbd_flags,r24
GAS LISTING C:\Users\ADMINI~1\AppData\Local\Temp/cc3eqS1j.s 			page 9


 457 0234 00C0      		rjmp .L30
 458               	.L34:
 459               	.LBB64:
 460               	.LBB65:
 461               	.LM92:
 462 0236 8B98      		cbi 49-32,3
 463               	.LM93:
 464 0238 939A      		sbi 50-32,3
 465 023a 00C0      		rjmp .L30
 466               	.L35:
 467               	.LBE65:
 468               	.LBE64:
 469               	.LM94:
 470 023c 1092 0000 		sts kbd_state,__zero_reg__
 471 0240 0895      		ret
 472               	.L30:
 473               	.LM95:
 474 0242 8091 0000 		lds r24,kbd_state
 475 0246 8F5F      		subi r24,lo8(-(1))
 476 0248 8093 0000 		sts kbd_state,r24
 477               	.L41:
 478 024c 0895      		ret
 479               	.LFE9:
 480               		.size	timerAction, .-timerAction
 481               	.global	kbd_init
 482               		.type	kbd_init, @function
 483               	kbd_init:
 484               	.LFB6:
 485               	.LM96:
 486               	/* prologue: function */
 487               	/* frame size = 0 */
 488               	.LM97:
 489 024e 1092 0000 		sts kbd_state,__zero_reg__
 490               	.LM98:
 491 0252 81E1      		ldi r24,lo8(17)
 492 0254 8093 0000 		sts kbd_flags,r24
 493               	.LBB66:
 494               	.LBB67:
 495               	.LM99:
 496 0258 8A98      		cbi 49-32,2
 497               	.LM100:
 498 025a 929A      		sbi 50-32,2
 499               	.LBE67:
 500               	.LBE66:
 501               	.LBB68:
 502               	.LBB69:
 503               	.LM101:
 504 025c 8B98      		cbi 49-32,3
 505               	.LM102:
 506 025e 939A      		sbi 50-32,3
 507               	.LBE69:
 508               	.LBE68:
 509               	.LM103:
 510 0260 0E94 0000 		call timer2Init
 511               	.LM104:
 512 0264 82E0      		ldi r24,lo8(2)
 513 0266 0E94 0000 		call timer2SetPrescaler
GAS LISTING C:\Users\ADMINI~1\AppData\Local\Temp/cc3eqS1j.s 			page 10


 514               	.LM105:
 515 026a 85E0      		ldi r24,lo8(5)
 516 026c 60E0      		ldi r22,lo8(gs(timerAction))
 517 026e 70E0      		ldi r23,hi8(gs(timerAction))
 518 0270 0E94 0000 		call timerAttach
 519               	.LM106:
 520 0274 8FEC      		ldi r24,lo8(-49)
 521 0276 84BD      		out 68-32,r24
 522               	/* epilogue start */
 523               	.LM107:
 524 0278 0895      		ret
 525               	.LFE6:
 526               		.size	kbd_init, .-kbd_init
 527               		.lcomm rx_byte,1
 528               		.lcomm tx_byte,1
 529               		.lcomm tx_shift,1
 530               		.lcomm parity,1
 531               		.comm kbd_flags,1,1
 532               		.comm kbd_state,1,1
 533               		.section	.debug_frame,"",@progbits
 534               	.Lframe0:
 535 0000 0C00 0000 		.long	.LECIE0-.LSCIE0
 536               	.LSCIE0:
 537 0004 FFFF FFFF 		.long	0xffffffff
 538 0008 01        		.byte	0x1
 539 0009 00        		.string	""
 540 000a 01        		.uleb128 0x1
 541 000b 7F        		.sleb128 -1
 542 000c 24        		.byte	0x24
 543 000d 0C        		.byte	0xc
 544 000e 20        		.uleb128 0x20
 545 000f 00        		.uleb128 0x0
 546               		.p2align	2
 547               	.LECIE0:
 548               	.LSFDE0:
 549 0010 0C00 0000 		.long	.LEFDE0-.LASFDE0
 550               	.LASFDE0:
 551 0014 0000 0000 		.long	.Lframe0
 552 0018 0000 0000 		.long	.LFB7
 553 001c 1E00 0000 		.long	.LFE7-.LFB7
 554               		.p2align	2
 555               	.LEFDE0:
 556               	.LSFDE2:
 557 0020 0C00 0000 		.long	.LEFDE2-.LASFDE2
 558               	.LASFDE2:
 559 0024 0000 0000 		.long	.Lframe0
 560 0028 0000 0000 		.long	.LFB8
 561 002c 1400 0000 		.long	.LFE8-.LFB8
 562               		.p2align	2
 563               	.LEFDE2:
 564               	.LSFDE4:
 565 0030 0C00 0000 		.long	.LEFDE4-.LASFDE4
 566               	.LASFDE4:
 567 0034 0000 0000 		.long	.Lframe0
 568 0038 0000 0000 		.long	.LFB9
 569 003c 1C02 0000 		.long	.LFE9-.LFB9
 570               		.p2align	2
GAS LISTING C:\Users\ADMINI~1\AppData\Local\Temp/cc3eqS1j.s 			page 11


 571               	.LEFDE4:
 572               	.LSFDE6:
 573 0040 0C00 0000 		.long	.LEFDE6-.LASFDE6
 574               	.LASFDE6:
 575 0044 0000 0000 		.long	.Lframe0
 576 0048 0000 0000 		.long	.LFB6
 577 004c 2C00 0000 		.long	.LFE6-.LFB6
 578               		.p2align	2
 579               	.LEFDE6:
 580               		.text
 581               	.Letext0:
 582               		.section	.debug_loc,"",@progbits
 583               	.Ldebug_loc0:
 584               	.LLST1:
 585 0000 0000 0000 		.long	.LVL0-.Ltext0
 586 0004 0A00 0000 		.long	.LVL1-.Ltext0
 587 0008 0100      		.word	0x1
 588 000a 68        		.byte	0x68
 589 000b 0000 0000 		.long	0x0
 590 000f 0000 0000 		.long	0x0
 591               		.section	.debug_info
 592 0000 2703 0000 		.long	0x327
 593 0004 0200      		.word	0x2
 594 0006 0000 0000 		.long	.Ldebug_abbrev0
 595 000a 04        		.byte	0x4
 596 000b 01        		.uleb128 0x1
 597 000c 0000 0000 		.long	.LASF52
 598 0010 01        		.byte	0x1
 599 0011 0000 0000 		.long	.LASF53
 600 0015 0000 0000 		.long	.LASF54
 601 0019 0000 0000 		.long	.Ltext0
 602 001d 0000 0000 		.long	.Letext0
 603 0021 0000 0000 		.long	.Ldebug_line0
 604 0025 02        		.uleb128 0x2
 605 0026 01        		.byte	0x1
 606 0027 06        		.byte	0x6
 607 0028 0000 0000 		.long	.LASF0
 608 002c 02        		.uleb128 0x2
 609 002d 01        		.byte	0x1
 610 002e 08        		.byte	0x8
 611 002f 0000 0000 		.long	.LASF1
 612 0033 03        		.uleb128 0x3
 613 0034 02        		.byte	0x2
 614 0035 05        		.byte	0x5
 615 0036 696E 7400 		.string	"int"
 616 003a 02        		.uleb128 0x2
 617 003b 02        		.byte	0x2
 618 003c 07        		.byte	0x7
 619 003d 0000 0000 		.long	.LASF2
 620 0041 02        		.uleb128 0x2
 621 0042 04        		.byte	0x4
 622 0043 05        		.byte	0x5
 623 0044 0000 0000 		.long	.LASF3
 624 0048 02        		.uleb128 0x2
 625 0049 04        		.byte	0x4
 626 004a 07        		.byte	0x7
 627 004b 0000 0000 		.long	.LASF4
GAS LISTING C:\Users\ADMINI~1\AppData\Local\Temp/cc3eqS1j.s 			page 12


 628 004f 02        		.uleb128 0x2
 629 0050 08        		.byte	0x8
 630 0051 05        		.byte	0x5
 631 0052 0000 0000 		.long	.LASF5
 632 0056 02        		.uleb128 0x2
 633 0057 08        		.byte	0x8
 634 0058 07        		.byte	0x7
 635 0059 0000 0000 		.long	.LASF6
 636 005d 02        		.uleb128 0x2
 637 005e 02        		.byte	0x2
 638 005f 07        		.byte	0x7
 639 0060 0000 0000 		.long	.LASF7
 640 0064 02        		.uleb128 0x2
 641 0065 02        		.byte	0x2
 642 0066 05        		.byte	0x5
 643 0067 0000 0000 		.long	.LASF8
 644 006b 02        		.uleb128 0x2
 645 006c 01        		.byte	0x1
 646 006d 06        		.byte	0x6
 647 006e 0000 0000 		.long	.LASF9
 648 0072 04        		.uleb128 0x4
 649 0073 0000 0000 		.long	.LASF55
 650 0077 02        		.byte	0x2
 651 0078 01        		.byte	0x1
 652 0079 43        		.byte	0x43
 653 007a 3301 0000 		.long	0x133
 654 007e 05        		.uleb128 0x5
 655 007f 0000 0000 		.long	.LASF10
 656 0083 00        		.sleb128 0
 657 0084 05        		.uleb128 0x5
 658 0085 0000 0000 		.long	.LASF11
 659 0089 01        		.sleb128 1
 660 008a 05        		.uleb128 0x5
 661 008b 0000 0000 		.long	.LASF12
 662 008f 02        		.sleb128 2
 663 0090 05        		.uleb128 0x5
 664 0091 0000 0000 		.long	.LASF13
 665 0095 03        		.sleb128 3
 666 0096 05        		.uleb128 0x5
 667 0097 0000 0000 		.long	.LASF14
 668 009b 0D        		.sleb128 13
 669 009c 05        		.uleb128 0x5
 670 009d 0000 0000 		.long	.LASF15
 671 00a1 0E        		.sleb128 14
 672 00a2 05        		.uleb128 0x5
 673 00a3 0000 0000 		.long	.LASF16
 674 00a7 0F        		.sleb128 15
 675 00a8 05        		.uleb128 0x5
 676 00a9 0000 0000 		.long	.LASF17
 677 00ad 10        		.sleb128 16
 678 00ae 05        		.uleb128 0x5
 679 00af 0000 0000 		.long	.LASF18
 680 00b3 11        		.sleb128 17
 681 00b4 05        		.uleb128 0x5
 682 00b5 0000 0000 		.long	.LASF19
 683 00b9 12        		.sleb128 18
 684 00ba 05        		.uleb128 0x5
GAS LISTING C:\Users\ADMINI~1\AppData\Local\Temp/cc3eqS1j.s 			page 13


 685 00bb 0000 0000 		.long	.LASF20
 686 00bf 13        		.sleb128 19
 687 00c0 05        		.uleb128 0x5
 688 00c1 0000 0000 		.long	.LASF21
 689 00c5 14        		.sleb128 20
 690 00c6 05        		.uleb128 0x5
 691 00c7 0000 0000 		.long	.LASF22
 692 00cb 15        		.sleb128 21
 693 00cc 05        		.uleb128 0x5
 694 00cd 0000 0000 		.long	.LASF23
 695 00d1 16        		.sleb128 22
 696 00d2 05        		.uleb128 0x5
 697 00d3 0000 0000 		.long	.LASF24
 698 00d7 17        		.sleb128 23
 699 00d8 05        		.uleb128 0x5
 700 00d9 0000 0000 		.long	.LASF25
 701 00dd 18        		.sleb128 24
 702 00de 05        		.uleb128 0x5
 703 00df 0000 0000 		.long	.LASF26
 704 00e3 19        		.sleb128 25
 705 00e4 05        		.uleb128 0x5
 706 00e5 0000 0000 		.long	.LASF27
 707 00e9 1A        		.sleb128 26
 708 00ea 05        		.uleb128 0x5
 709 00eb 0000 0000 		.long	.LASF28
 710 00ef 24        		.sleb128 36
 711 00f0 05        		.uleb128 0x5
 712 00f1 0000 0000 		.long	.LASF29
 713 00f5 25        		.sleb128 37
 714 00f6 05        		.uleb128 0x5
 715 00f7 0000 0000 		.long	.LASF30
 716 00fb 26        		.sleb128 38
 717 00fc 05        		.uleb128 0x5
 718 00fd 0000 0000 		.long	.LASF31
 719 0101 27        		.sleb128 39
 720 0102 05        		.uleb128 0x5
 721 0103 0000 0000 		.long	.LASF32
 722 0107 28        		.sleb128 40
 723 0108 05        		.uleb128 0x5
 724 0109 0000 0000 		.long	.LASF33
 725 010d 29        		.sleb128 41
 726 010e 05        		.uleb128 0x5
 727 010f 0000 0000 		.long	.LASF34
 728 0113 2A        		.sleb128 42
 729 0114 05        		.uleb128 0x5
 730 0115 0000 0000 		.long	.LASF35
 731 0119 2B        		.sleb128 43
 732 011a 05        		.uleb128 0x5
 733 011b 0000 0000 		.long	.LASF36
 734 011f 2C        		.sleb128 44
 735 0120 05        		.uleb128 0x5
 736 0121 0000 0000 		.long	.LASF37
 737 0125 2D        		.sleb128 45
 738 0126 05        		.uleb128 0x5
 739 0127 0000 0000 		.long	.LASF38
 740 012b 2E        		.sleb128 46
 741 012c 05        		.uleb128 0x5
GAS LISTING C:\Users\ADMINI~1\AppData\Local\Temp/cc3eqS1j.s 			page 14


 742 012d 0000 0000 		.long	.LASF39
 743 0131 2F        		.sleb128 47
 744 0132 00        		.byte	0x0
 745 0133 06        		.uleb128 0x6
 746 0134 0000 0000 		.long	.LASF40
 747 0138 01        		.byte	0x1
 748 0139 33        		.byte	0x33
 749 013a 01        		.byte	0x1
 750 013b 01        		.byte	0x1
 751 013c 06        		.uleb128 0x6
 752 013d 0000 0000 		.long	.LASF41
 753 0141 01        		.byte	0x1
 754 0142 27        		.byte	0x27
 755 0143 01        		.byte	0x1
 756 0144 01        		.byte	0x1
 757 0145 06        		.uleb128 0x6
 758 0146 0000 0000 		.long	.LASF42
 759 014a 01        		.byte	0x1
 760 014b 39        		.byte	0x39
 761 014c 01        		.byte	0x1
 762 014d 01        		.byte	0x1
 763 014e 06        		.uleb128 0x6
 764 014f 0000 0000 		.long	.LASF43
 765 0153 01        		.byte	0x1
 766 0154 2D        		.byte	0x2d
 767 0155 01        		.byte	0x1
 768 0156 01        		.byte	0x1
 769 0157 07        		.uleb128 0x7
 770 0158 01        		.byte	0x1
 771 0159 0000 0000 		.long	.LASF44
 772 015d 01        		.byte	0x1
 773 015e 68        		.byte	0x68
 774 015f 01        		.byte	0x1
 775 0160 0000 0000 		.long	.LFB7
 776 0164 0000 0000 		.long	.LFE7
 777 0168 02        		.byte	0x2
 778 0169 90        		.byte	0x90
 779 016a 20        		.uleb128 0x20
 780 016b 7F01 0000 		.long	0x17f
 781 016f 08        		.uleb128 0x8
 782 0170 0000 0000 		.long	.LASF56
 783 0174 01        		.byte	0x1
 784 0175 67        		.byte	0x67
 785 0176 2C00 0000 		.long	0x2c
 786 017a 0000 0000 		.long	.LLST1
 787 017e 00        		.byte	0x0
 788 017f 09        		.uleb128 0x9
 789 0180 01        		.byte	0x1
 790 0181 0000 0000 		.long	.LASF57
 791 0185 01        		.byte	0x1
 792 0186 72        		.byte	0x72
 793 0187 01        		.byte	0x1
 794 0188 2C00 0000 		.long	0x2c
 795 018c 0000 0000 		.long	.LFB8
 796 0190 0000 0000 		.long	.LFE8
 797 0194 02        		.byte	0x2
 798 0195 90        		.byte	0x90
GAS LISTING C:\Users\ADMINI~1\AppData\Local\Temp/cc3eqS1j.s 			page 15


 799 0196 20        		.uleb128 0x20
 800 0197 0A        		.uleb128 0xa
 801 0198 0000 0000 		.long	.LASF58
 802 019c 01        		.byte	0x1
 803 019d 7A        		.byte	0x7a
 804 019e 01        		.byte	0x1
 805 019f 0000 0000 		.long	.LFB9
 806 01a3 0000 0000 		.long	.LFE9
 807 01a7 02        		.byte	0x2
 808 01a8 90        		.byte	0x90
 809 01a9 20        		.uleb128 0x20
 810 01aa 8602 0000 		.long	0x286
 811 01ae 0B        		.uleb128 0xb
 812 01af 3301 0000 		.long	0x133
 813 01b3 0000 0000 		.long	.LBB38
 814 01b7 0000 0000 		.long	.LBE38
 815 01bb 01        		.byte	0x1
 816 01bc 7F        		.byte	0x7f
 817 01bd 0B        		.uleb128 0xb
 818 01be 4501 0000 		.long	0x145
 819 01c2 0000 0000 		.long	.LBB40
 820 01c6 0000 0000 		.long	.LBE40
 821 01ca 01        		.byte	0x1
 822 01cb 99        		.byte	0x99
 823 01cc 0B        		.uleb128 0xb
 824 01cd 3C01 0000 		.long	0x13c
 825 01d1 0000 0000 		.long	.LBB42
 826 01d5 0000 0000 		.long	.LBE42
 827 01d9 01        		.byte	0x1
 828 01da A3        		.byte	0xa3
 829 01db 0B        		.uleb128 0xb
 830 01dc 4501 0000 		.long	0x145
 831 01e0 0000 0000 		.long	.LBB44
 832 01e4 0000 0000 		.long	.LBE44
 833 01e8 01        		.byte	0x1
 834 01e9 DD        		.byte	0xdd
 835 01ea 0B        		.uleb128 0xb
 836 01eb 3301 0000 		.long	0x133
 837 01ef 0000 0000 		.long	.LBB46
 838 01f3 0000 0000 		.long	.LBE46
 839 01f7 01        		.byte	0x1
 840 01f8 E2        		.byte	0xe2
 841 01f9 0B        		.uleb128 0xb
 842 01fa 4E01 0000 		.long	0x14e
 843 01fe 0000 0000 		.long	.LBB48
 844 0202 0000 0000 		.long	.LBE48
 845 0206 01        		.byte	0x1
 846 0207 E7        		.byte	0xe7
 847 0208 0B        		.uleb128 0xb
 848 0209 3301 0000 		.long	0x133
 849 020d 0000 0000 		.long	.LBB50
 850 0211 0000 0000 		.long	.LBE50
 851 0215 01        		.byte	0x1
 852 0216 F0        		.byte	0xf0
 853 0217 0B        		.uleb128 0xb
 854 0218 4E01 0000 		.long	0x14e
 855 021c 0000 0000 		.long	.LBB52
GAS LISTING C:\Users\ADMINI~1\AppData\Local\Temp/cc3eqS1j.s 			page 16


 856 0220 0000 0000 		.long	.LBE52
 857 0224 01        		.byte	0x1
 858 0225 F5        		.byte	0xf5
 859 0226 0B        		.uleb128 0xb
 860 0227 3C01 0000 		.long	0x13c
 861 022b 0000 0000 		.long	.LBB54
 862 022f 0000 0000 		.long	.LBE54
 863 0233 01        		.byte	0x1
 864 0234 FB        		.byte	0xfb
 865 0235 0C        		.uleb128 0xc
 866 0236 3301 0000 		.long	0x133
 867 023a 0000 0000 		.long	.LBB56
 868 023e 0000 0000 		.long	.LBE56
 869 0242 01        		.byte	0x1
 870 0243 0801      		.word	0x108
 871 0245 0C        		.uleb128 0xc
 872 0246 4501 0000 		.long	0x145
 873 024a 0000 0000 		.long	.LBB58
 874 024e 0000 0000 		.long	.LBE58
 875 0252 01        		.byte	0x1
 876 0253 0B01      		.word	0x10b
 877 0255 0C        		.uleb128 0xc
 878 0256 4501 0000 		.long	0x145
 879 025a 0000 0000 		.long	.LBB60
 880 025e 0000 0000 		.long	.LBE60
 881 0262 01        		.byte	0x1
 882 0263 1201      		.word	0x112
 883 0265 0C        		.uleb128 0xc
 884 0266 3301 0000 		.long	0x133
 885 026a 0000 0000 		.long	.LBB62
 886 026e 0000 0000 		.long	.LBE62
 887 0272 01        		.byte	0x1
 888 0273 1401      		.word	0x114
 889 0275 0C        		.uleb128 0xc
 890 0276 3301 0000 		.long	0x133
 891 027a 0000 0000 		.long	.LBB64
 892 027e 0000 0000 		.long	.LBE64
 893 0282 01        		.byte	0x1
 894 0283 1A01      		.word	0x11a
 895 0285 00        		.byte	0x0
 896 0286 07        		.uleb128 0x7
 897 0287 01        		.byte	0x1
 898 0288 0000 0000 		.long	.LASF45
 899 028c 01        		.byte	0x1
 900 028d 59        		.byte	0x59
 901 028e 01        		.byte	0x1
 902 028f 0000 0000 		.long	.LFB6
 903 0293 0000 0000 		.long	.LFE6
 904 0297 02        		.byte	0x2
 905 0298 90        		.byte	0x90
 906 0299 20        		.uleb128 0x20
 907 029a BD02 0000 		.long	0x2bd
 908 029e 0B        		.uleb128 0xb
 909 029f 3C01 0000 		.long	0x13c
 910 02a3 0000 0000 		.long	.LBB66
 911 02a7 0000 0000 		.long	.LBE66
 912 02ab 01        		.byte	0x1
GAS LISTING C:\Users\ADMINI~1\AppData\Local\Temp/cc3eqS1j.s 			page 17


 913 02ac 5D        		.byte	0x5d
 914 02ad 0B        		.uleb128 0xb
 915 02ae 3301 0000 		.long	0x133
 916 02b2 0000 0000 		.long	.LBB68
 917 02b6 0000 0000 		.long	.LBE68
 918 02ba 01        		.byte	0x1
 919 02bb 5E        		.byte	0x5e
 920 02bc 00        		.byte	0x0
 921 02bd 0D        		.uleb128 0xd
 922 02be 0000 0000 		.long	.LASF46
 923 02c2 01        		.byte	0x1
 924 02c3 52        		.byte	0x52
 925 02c4 CE02 0000 		.long	0x2ce
 926 02c8 05        		.byte	0x5
 927 02c9 03        		.byte	0x3
 928 02ca 0000 0000 		.long	rx_byte
 929 02ce 0E        		.uleb128 0xe
 930 02cf 2C00 0000 		.long	0x2c
 931 02d3 0D        		.uleb128 0xd
 932 02d4 0000 0000 		.long	.LASF47
 933 02d8 01        		.byte	0x1
 934 02d9 53        		.byte	0x53
 935 02da CE02 0000 		.long	0x2ce
 936 02de 05        		.byte	0x5
 937 02df 03        		.byte	0x3
 938 02e0 0000 0000 		.long	tx_byte
 939 02e4 0D        		.uleb128 0xd
 940 02e5 0000 0000 		.long	.LASF48
 941 02e9 01        		.byte	0x1
 942 02ea 54        		.byte	0x54
 943 02eb CE02 0000 		.long	0x2ce
 944 02ef 05        		.byte	0x5
 945 02f0 03        		.byte	0x3
 946 02f1 0000 0000 		.long	tx_shift
 947 02f5 0D        		.uleb128 0xd
 948 02f6 0000 0000 		.long	.LASF49
 949 02fa 01        		.byte	0x1
 950 02fb 55        		.byte	0x55
 951 02fc CE02 0000 		.long	0x2ce
 952 0300 05        		.byte	0x5
 953 0301 03        		.byte	0x3
 954 0302 0000 0000 		.long	parity
 955 0306 0F        		.uleb128 0xf
 956 0307 0000 0000 		.long	.LASF50
 957 030b 01        		.byte	0x1
 958 030c 41        		.byte	0x41
 959 030d CE02 0000 		.long	0x2ce
 960 0311 01        		.byte	0x1
 961 0312 05        		.byte	0x5
 962 0313 03        		.byte	0x3
 963 0314 0000 0000 		.long	kbd_flags
 964 0318 0F        		.uleb128 0xf
 965 0319 0000 0000 		.long	.LASF51
 966 031d 01        		.byte	0x1
 967 031e 50        		.byte	0x50
 968 031f CE02 0000 		.long	0x2ce
 969 0323 01        		.byte	0x1
GAS LISTING C:\Users\ADMINI~1\AppData\Local\Temp/cc3eqS1j.s 			page 18


 970 0324 05        		.byte	0x5
 971 0325 03        		.byte	0x3
 972 0326 0000 0000 		.long	kbd_state
 973 032a 00        		.byte	0x0
 974               		.section	.debug_abbrev
 975 0000 01        		.uleb128 0x1
 976 0001 11        		.uleb128 0x11
 977 0002 01        		.byte	0x1
 978 0003 25        		.uleb128 0x25
 979 0004 0E        		.uleb128 0xe
 980 0005 13        		.uleb128 0x13
 981 0006 0B        		.uleb128 0xb
 982 0007 03        		.uleb128 0x3
 983 0008 0E        		.uleb128 0xe
 984 0009 1B        		.uleb128 0x1b
 985 000a 0E        		.uleb128 0xe
 986 000b 11        		.uleb128 0x11
 987 000c 01        		.uleb128 0x1
 988 000d 12        		.uleb128 0x12
 989 000e 01        		.uleb128 0x1
 990 000f 10        		.uleb128 0x10
 991 0010 06        		.uleb128 0x6
 992 0011 00        		.byte	0x0
 993 0012 00        		.byte	0x0
 994 0013 02        		.uleb128 0x2
 995 0014 24        		.uleb128 0x24
 996 0015 00        		.byte	0x0
 997 0016 0B        		.uleb128 0xb
 998 0017 0B        		.uleb128 0xb
 999 0018 3E        		.uleb128 0x3e
 1000 0019 0B        		.uleb128 0xb
 1001 001a 03        		.uleb128 0x3
 1002 001b 0E        		.uleb128 0xe
 1003 001c 00        		.byte	0x0
 1004 001d 00        		.byte	0x0
 1005 001e 03        		.uleb128 0x3
 1006 001f 24        		.uleb128 0x24
 1007 0020 00        		.byte	0x0
 1008 0021 0B        		.uleb128 0xb
 1009 0022 0B        		.uleb128 0xb
 1010 0023 3E        		.uleb128 0x3e
 1011 0024 0B        		.uleb128 0xb
 1012 0025 03        		.uleb128 0x3
 1013 0026 08        		.uleb128 0x8
 1014 0027 00        		.byte	0x0
 1015 0028 00        		.byte	0x0
 1016 0029 04        		.uleb128 0x4
 1017 002a 04        		.uleb128 0x4
 1018 002b 01        		.byte	0x1
 1019 002c 03        		.uleb128 0x3
 1020 002d 0E        		.uleb128 0xe
 1021 002e 0B        		.uleb128 0xb
 1022 002f 0B        		.uleb128 0xb
 1023 0030 3A        		.uleb128 0x3a
 1024 0031 0B        		.uleb128 0xb
 1025 0032 3B        		.uleb128 0x3b
 1026 0033 0B        		.uleb128 0xb
GAS LISTING C:\Users\ADMINI~1\AppData\Local\Temp/cc3eqS1j.s 			page 19


 1027 0034 01        		.uleb128 0x1
 1028 0035 13        		.uleb128 0x13
 1029 0036 00        		.byte	0x0
 1030 0037 00        		.byte	0x0
 1031 0038 05        		.uleb128 0x5
 1032 0039 28        		.uleb128 0x28
 1033 003a 00        		.byte	0x0
 1034 003b 03        		.uleb128 0x3
 1035 003c 0E        		.uleb128 0xe
 1036 003d 1C        		.uleb128 0x1c
 1037 003e 0D        		.uleb128 0xd
 1038 003f 00        		.byte	0x0
 1039 0040 00        		.byte	0x0
 1040 0041 06        		.uleb128 0x6
 1041 0042 2E        		.uleb128 0x2e
 1042 0043 00        		.byte	0x0
 1043 0044 03        		.uleb128 0x3
 1044 0045 0E        		.uleb128 0xe
 1045 0046 3A        		.uleb128 0x3a
 1046 0047 0B        		.uleb128 0xb
 1047 0048 3B        		.uleb128 0x3b
 1048 0049 0B        		.uleb128 0xb
 1049 004a 27        		.uleb128 0x27
 1050 004b 0C        		.uleb128 0xc
 1051 004c 20        		.uleb128 0x20
 1052 004d 0B        		.uleb128 0xb
 1053 004e 00        		.byte	0x0
 1054 004f 00        		.byte	0x0
 1055 0050 07        		.uleb128 0x7
 1056 0051 2E        		.uleb128 0x2e
 1057 0052 01        		.byte	0x1
 1058 0053 3F        		.uleb128 0x3f
 1059 0054 0C        		.uleb128 0xc
 1060 0055 03        		.uleb128 0x3
 1061 0056 0E        		.uleb128 0xe
 1062 0057 3A        		.uleb128 0x3a
 1063 0058 0B        		.uleb128 0xb
 1064 0059 3B        		.uleb128 0x3b
 1065 005a 0B        		.uleb128 0xb
 1066 005b 27        		.uleb128 0x27
 1067 005c 0C        		.uleb128 0xc
 1068 005d 11        		.uleb128 0x11
 1069 005e 01        		.uleb128 0x1
 1070 005f 12        		.uleb128 0x12
 1071 0060 01        		.uleb128 0x1
 1072 0061 40        		.uleb128 0x40
 1073 0062 0A        		.uleb128 0xa
 1074 0063 01        		.uleb128 0x1
 1075 0064 13        		.uleb128 0x13
 1076 0065 00        		.byte	0x0
 1077 0066 00        		.byte	0x0
 1078 0067 08        		.uleb128 0x8
 1079 0068 05        		.uleb128 0x5
 1080 0069 00        		.byte	0x0
 1081 006a 03        		.uleb128 0x3
 1082 006b 0E        		.uleb128 0xe
 1083 006c 3A        		.uleb128 0x3a
GAS LISTING C:\Users\ADMINI~1\AppData\Local\Temp/cc3eqS1j.s 			page 20


 1084 006d 0B        		.uleb128 0xb
 1085 006e 3B        		.uleb128 0x3b
 1086 006f 0B        		.uleb128 0xb
 1087 0070 49        		.uleb128 0x49
 1088 0071 13        		.uleb128 0x13
 1089 0072 02        		.uleb128 0x2
 1090 0073 06        		.uleb128 0x6
 1091 0074 00        		.byte	0x0
 1092 0075 00        		.byte	0x0
 1093 0076 09        		.uleb128 0x9
 1094 0077 2E        		.uleb128 0x2e
 1095 0078 00        		.byte	0x0
 1096 0079 3F        		.uleb128 0x3f
 1097 007a 0C        		.uleb128 0xc
 1098 007b 03        		.uleb128 0x3
 1099 007c 0E        		.uleb128 0xe
 1100 007d 3A        		.uleb128 0x3a
 1101 007e 0B        		.uleb128 0xb
 1102 007f 3B        		.uleb128 0x3b
 1103 0080 0B        		.uleb128 0xb
 1104 0081 27        		.uleb128 0x27
 1105 0082 0C        		.uleb128 0xc
 1106 0083 49        		.uleb128 0x49
 1107 0084 13        		.uleb128 0x13
 1108 0085 11        		.uleb128 0x11
 1109 0086 01        		.uleb128 0x1
 1110 0087 12        		.uleb128 0x12
 1111 0088 01        		.uleb128 0x1
 1112 0089 40        		.uleb128 0x40
 1113 008a 0A        		.uleb128 0xa
 1114 008b 00        		.byte	0x0
 1115 008c 00        		.byte	0x0
 1116 008d 0A        		.uleb128 0xa
 1117 008e 2E        		.uleb128 0x2e
 1118 008f 01        		.byte	0x1
 1119 0090 03        		.uleb128 0x3
 1120 0091 0E        		.uleb128 0xe
 1121 0092 3A        		.uleb128 0x3a
 1122 0093 0B        		.uleb128 0xb
 1123 0094 3B        		.uleb128 0x3b
 1124 0095 0B        		.uleb128 0xb
 1125 0096 27        		.uleb128 0x27
 1126 0097 0C        		.uleb128 0xc
 1127 0098 11        		.uleb128 0x11
 1128 0099 01        		.uleb128 0x1
 1129 009a 12        		.uleb128 0x12
 1130 009b 01        		.uleb128 0x1
 1131 009c 40        		.uleb128 0x40
 1132 009d 0A        		.uleb128 0xa
 1133 009e 01        		.uleb128 0x1
 1134 009f 13        		.uleb128 0x13
 1135 00a0 00        		.byte	0x0
 1136 00a1 00        		.byte	0x0
 1137 00a2 0B        		.uleb128 0xb
 1138 00a3 1D        		.uleb128 0x1d
 1139 00a4 00        		.byte	0x0
 1140 00a5 31        		.uleb128 0x31
GAS LISTING C:\Users\ADMINI~1\AppData\Local\Temp/cc3eqS1j.s 			page 21


 1141 00a6 13        		.uleb128 0x13
 1142 00a7 11        		.uleb128 0x11
 1143 00a8 01        		.uleb128 0x1
 1144 00a9 12        		.uleb128 0x12
 1145 00aa 01        		.uleb128 0x1
 1146 00ab 58        		.uleb128 0x58
 1147 00ac 0B        		.uleb128 0xb
 1148 00ad 59        		.uleb128 0x59
 1149 00ae 0B        		.uleb128 0xb
 1150 00af 00        		.byte	0x0
 1151 00b0 00        		.byte	0x0
 1152 00b1 0C        		.uleb128 0xc
 1153 00b2 1D        		.uleb128 0x1d
 1154 00b3 00        		.byte	0x0
 1155 00b4 31        		.uleb128 0x31
 1156 00b5 13        		.uleb128 0x13
 1157 00b6 11        		.uleb128 0x11
 1158 00b7 01        		.uleb128 0x1
 1159 00b8 12        		.uleb128 0x12
 1160 00b9 01        		.uleb128 0x1
 1161 00ba 58        		.uleb128 0x58
 1162 00bb 0B        		.uleb128 0xb
 1163 00bc 59        		.uleb128 0x59
 1164 00bd 05        		.uleb128 0x5
 1165 00be 00        		.byte	0x0
 1166 00bf 00        		.byte	0x0
 1167 00c0 0D        		.uleb128 0xd
 1168 00c1 34        		.uleb128 0x34
 1169 00c2 00        		.byte	0x0
 1170 00c3 03        		.uleb128 0x3
 1171 00c4 0E        		.uleb128 0xe
 1172 00c5 3A        		.uleb128 0x3a
 1173 00c6 0B        		.uleb128 0xb
 1174 00c7 3B        		.uleb128 0x3b
 1175 00c8 0B        		.uleb128 0xb
 1176 00c9 49        		.uleb128 0x49
 1177 00ca 13        		.uleb128 0x13
 1178 00cb 02        		.uleb128 0x2
 1179 00cc 0A        		.uleb128 0xa
 1180 00cd 00        		.byte	0x0
 1181 00ce 00        		.byte	0x0
 1182 00cf 0E        		.uleb128 0xe
 1183 00d0 35        		.uleb128 0x35
 1184 00d1 00        		.byte	0x0
 1185 00d2 49        		.uleb128 0x49
 1186 00d3 13        		.uleb128 0x13
 1187 00d4 00        		.byte	0x0
 1188 00d5 00        		.byte	0x0
 1189 00d6 0F        		.uleb128 0xf
 1190 00d7 34        		.uleb128 0x34
 1191 00d8 00        		.byte	0x0
 1192 00d9 03        		.uleb128 0x3
 1193 00da 0E        		.uleb128 0xe
 1194 00db 3A        		.uleb128 0x3a
 1195 00dc 0B        		.uleb128 0xb
 1196 00dd 3B        		.uleb128 0x3b
 1197 00de 0B        		.uleb128 0xb
GAS LISTING C:\Users\ADMINI~1\AppData\Local\Temp/cc3eqS1j.s 			page 22


 1198 00df 49        		.uleb128 0x49
 1199 00e0 13        		.uleb128 0x13
 1200 00e1 3F        		.uleb128 0x3f
 1201 00e2 0C        		.uleb128 0xc
 1202 00e3 02        		.uleb128 0x2
 1203 00e4 0A        		.uleb128 0xa
 1204 00e5 00        		.byte	0x0
 1205 00e6 00        		.byte	0x0
 1206 00e7 00        		.byte	0x0
 1207               		.section	.debug_pubnames,"",@progbits
 1208 0000 5A00 0000 		.long	0x5a
 1209 0004 0200      		.word	0x2
 1210 0006 0000 0000 		.long	.Ldebug_info0
 1211 000a 2B03 0000 		.long	0x32b
 1212 000e 5701 0000 		.long	0x157
 1213 0012 6B62 645F 		.string	"kbd_set_tx"
 1213      7365 745F 
 1213      7478 00
 1214 001d 7F01 0000 		.long	0x17f
 1215 0021 6B62 645F 		.string	"kbd_get_rx_char"
 1215      6765 745F 
 1215      7278 5F63 
 1215      6861 7200 
 1216 0031 8602 0000 		.long	0x286
 1217 0035 6B62 645F 		.string	"kbd_init"
 1217      696E 6974 
 1217      00
 1218 003e 0603 0000 		.long	0x306
 1219 0042 6B62 645F 		.string	"kbd_flags"
 1219      666C 6167 
 1219      7300 
 1220 004c 1803 0000 		.long	0x318
 1221 0050 6B62 645F 		.string	"kbd_state"
 1221      7374 6174 
 1221      6500 
 1222 005a 0000 0000 		.long	0x0
 1223               		.section	.debug_aranges,"",@progbits
 1224 0000 1C00 0000 		.long	0x1c
 1225 0004 0200      		.word	0x2
 1226 0006 0000 0000 		.long	.Ldebug_info0
 1227 000a 04        		.byte	0x4
 1228 000b 00        		.byte	0x0
 1229 000c 0000      		.word	0x0
 1230 000e 0000      		.word	0x0
 1231 0010 0000 0000 		.long	.Ltext0
 1232 0014 7A02 0000 		.long	.Letext0-.Ltext0
 1233 0018 0000 0000 		.long	0x0
 1234 001c 0000 0000 		.long	0x0
 1235               		.section	.debug_line
 1236 0000 AD03 0000 		.long	.LELT0-.LSLT0
 1237               	.LSLT0:
 1238 0004 0200      		.word	0x2
 1239 0006 1C00 0000 		.long	.LELTP0-.LASLTP0
 1240               	.LASLTP0:
 1241 000a 01        		.byte	0x1
 1242 000b 01        		.byte	0x1
 1243 000c F6        		.byte	0xf6
GAS LISTING C:\Users\ADMINI~1\AppData\Local\Temp/cc3eqS1j.s 			page 23


 1244 000d F5        		.byte	0xf5
 1245 000e 0A        		.byte	0xa
 1246 000f 00        		.byte	0x0
 1247 0010 01        		.byte	0x1
 1248 0011 01        		.byte	0x1
 1249 0012 01        		.byte	0x1
 1250 0013 01        		.byte	0x1
 1251 0014 00        		.byte	0x0
 1252 0015 00        		.byte	0x0
 1253 0016 00        		.byte	0x0
 1254 0017 01        		.byte	0x1
 1255 0018 00        		.byte	0x0
 1256 0019 6B65 7973 		.string	"keysta.c"
 1256      7461 2E63 
 1256      00
 1257 0022 00        		.uleb128 0x0
 1258 0023 00        		.uleb128 0x0
 1259 0024 00        		.uleb128 0x0
 1260 0025 00        		.byte	0x0
 1261               	.LELTP0:
 1262 0026 00        		.byte	0x0
 1263 0027 05        		.uleb128 0x5
 1264 0028 02        		.byte	0x2
 1265 0029 0000 0000 		.long	.LM1
 1266 002d 7B        		.byte	0x7b
 1267 002e 00        		.byte	0x0
 1268 002f 05        		.uleb128 0x5
 1269 0030 02        		.byte	0x2
 1270 0031 0000 0000 		.long	.LM2
 1271 0035 15        		.byte	0x15
 1272 0036 00        		.byte	0x0
 1273 0037 05        		.uleb128 0x5
 1274 0038 02        		.byte	0x2
 1275 0039 0000 0000 		.long	.LM3
 1276 003d 15        		.byte	0x15
 1277 003e 00        		.byte	0x0
 1278 003f 05        		.uleb128 0x5
 1279 0040 02        		.byte	0x2
 1280 0041 0000 0000 		.long	.LM4
 1281 0045 15        		.byte	0x15
 1282 0046 00        		.byte	0x0
 1283 0047 05        		.uleb128 0x5
 1284 0048 02        		.byte	0x2
 1285 0049 0000 0000 		.long	.LM5
 1286 004d 15        		.byte	0x15
 1287 004e 00        		.byte	0x0
 1288 004f 05        		.uleb128 0x5
 1289 0050 02        		.byte	0x2
 1290 0051 0000 0000 		.long	.LM6
 1291 0055 15        		.byte	0x15
 1292 0056 00        		.byte	0x0
 1293 0057 05        		.uleb128 0x5
 1294 0058 02        		.byte	0x2
 1295 0059 0000 0000 		.long	.LM7
 1296 005d 15        		.byte	0x15
 1297 005e 00        		.byte	0x0
 1298 005f 05        		.uleb128 0x5
GAS LISTING C:\Users\ADMINI~1\AppData\Local\Temp/cc3eqS1j.s 			page 24


 1299 0060 02        		.byte	0x2
 1300 0061 0000 0000 		.long	.LM8
 1301 0065 18        		.byte	0x18
 1302 0066 00        		.byte	0x0
 1303 0067 05        		.uleb128 0x5
 1304 0068 02        		.byte	0x2
 1305 0069 0000 0000 		.long	.LM9
 1306 006d 15        		.byte	0x15
 1307 006e 00        		.byte	0x0
 1308 006f 05        		.uleb128 0x5
 1309 0070 02        		.byte	0x2
 1310 0071 0000 0000 		.long	.LM10
 1311 0075 15        		.byte	0x15
 1312 0076 00        		.byte	0x0
 1313 0077 05        		.uleb128 0x5
 1314 0078 02        		.byte	0x2
 1315 0079 0000 0000 		.long	.LM11
 1316 007d 15        		.byte	0x15
 1317 007e 00        		.byte	0x0
 1318 007f 05        		.uleb128 0x5
 1319 0080 02        		.byte	0x2
 1320 0081 0000 0000 		.long	.LM12
 1321 0085 15        		.byte	0x15
 1322 0086 00        		.byte	0x0
 1323 0087 05        		.uleb128 0x5
 1324 0088 02        		.byte	0x2
 1325 0089 0000 0000 		.long	.LM13
 1326 008d 15        		.byte	0x15
 1327 008e 00        		.byte	0x0
 1328 008f 05        		.uleb128 0x5
 1329 0090 02        		.byte	0x2
 1330 0091 0000 0000 		.long	.LM14
 1331 0095 17        		.byte	0x17
 1332 0096 00        		.byte	0x0
 1333 0097 05        		.uleb128 0x5
 1334 0098 02        		.byte	0x2
 1335 0099 0000 0000 		.long	.LM15
 1336 009d 16        		.byte	0x16
 1337 009e 00        		.byte	0x0
 1338 009f 05        		.uleb128 0x5
 1339 00a0 02        		.byte	0x2
 1340 00a1 0000 0000 		.long	.LM16
 1341 00a5 16        		.byte	0x16
 1342 00a6 00        		.byte	0x0
 1343 00a7 05        		.uleb128 0x5
 1344 00a8 02        		.byte	0x2
 1345 00a9 0000 0000 		.long	.LM17
 1346 00ad 03        		.byte	0x3
 1347 00ae B67F      		.sleb128 -74
 1348 00b0 01        		.byte	0x1
 1349 00b1 00        		.byte	0x0
 1350 00b2 05        		.uleb128 0x5
 1351 00b3 02        		.byte	0x2
 1352 00b4 0000 0000 		.long	.LM18
 1353 00b8 15        		.byte	0x15
 1354 00b9 00        		.byte	0x0
 1355 00ba 05        		.uleb128 0x5
GAS LISTING C:\Users\ADMINI~1\AppData\Local\Temp/cc3eqS1j.s 			page 25


 1356 00bb 02        		.byte	0x2
 1357 00bc 0000 0000 		.long	.LM19
 1358 00c0 5F        		.byte	0x5f
 1359 00c1 00        		.byte	0x0
 1360 00c2 05        		.uleb128 0x5
 1361 00c3 02        		.byte	0x2
 1362 00c4 0000 0000 		.long	.LM20
 1363 00c8 1A        		.byte	0x1a
 1364 00c9 00        		.byte	0x0
 1365 00ca 05        		.uleb128 0x5
 1366 00cb 02        		.byte	0x2
 1367 00cc 0000 0000 		.long	.LM21
 1368 00d0 18        		.byte	0x18
 1369 00d1 00        		.byte	0x0
 1370 00d2 05        		.uleb128 0x5
 1371 00d3 02        		.byte	0x2
 1372 00d4 0000 0000 		.long	.LM22
 1373 00d8 19        		.byte	0x19
 1374 00d9 00        		.byte	0x0
 1375 00da 05        		.uleb128 0x5
 1376 00db 02        		.byte	0x2
 1377 00dc 0000 0000 		.long	.LM23
 1378 00e0 16        		.byte	0x16
 1379 00e1 00        		.byte	0x0
 1380 00e2 05        		.uleb128 0x5
 1381 00e3 02        		.byte	0x2
 1382 00e4 0000 0000 		.long	.LM24
 1383 00e8 18        		.byte	0x18
 1384 00e9 00        		.byte	0x0
 1385 00ea 05        		.uleb128 0x5
 1386 00eb 02        		.byte	0x2
 1387 00ec 0000 0000 		.long	.LM25
 1388 00f0 17        		.byte	0x17
 1389 00f1 00        		.byte	0x0
 1390 00f2 05        		.uleb128 0x5
 1391 00f3 02        		.byte	0x2
 1392 00f4 0000 0000 		.long	.LM26
 1393 00f8 03        		.byte	0x3
 1394 00f9 A27F      		.sleb128 -94
 1395 00fb 01        		.byte	0x1
 1396 00fc 00        		.byte	0x0
 1397 00fd 05        		.uleb128 0x5
 1398 00fe 02        		.byte	0x2
 1399 00ff 0000 0000 		.long	.LM27
 1400 0103 15        		.byte	0x15
 1401 0104 00        		.byte	0x0
 1402 0105 05        		.uleb128 0x5
 1403 0106 02        		.byte	0x2
 1404 0107 0000 0000 		.long	.LM28
 1405 010b 73        		.byte	0x73
 1406 010c 00        		.byte	0x0
 1407 010d 05        		.uleb128 0x5
 1408 010e 02        		.byte	0x2
 1409 010f 0000 0000 		.long	.LM29
 1410 0113 1A        		.byte	0x1a
 1411 0114 00        		.byte	0x0
 1412 0115 05        		.uleb128 0x5
GAS LISTING C:\Users\ADMINI~1\AppData\Local\Temp/cc3eqS1j.s 			page 26


 1413 0116 02        		.byte	0x2
 1414 0117 0000 0000 		.long	.LM30
 1415 011b 15        		.byte	0x15
 1416 011c 00        		.byte	0x0
 1417 011d 05        		.uleb128 0x5
 1418 011e 02        		.byte	0x2
 1419 011f 0000 0000 		.long	.LM31
 1420 0123 15        		.byte	0x15
 1421 0124 00        		.byte	0x0
 1422 0125 05        		.uleb128 0x5
 1423 0126 02        		.byte	0x2
 1424 0127 0000 0000 		.long	.LM32
 1425 012b 03        		.byte	0x3
 1426 012c 867F      		.sleb128 -122
 1427 012e 01        		.byte	0x1
 1428 012f 00        		.byte	0x0
 1429 0130 05        		.uleb128 0x5
 1430 0131 02        		.byte	0x2
 1431 0132 0000 0000 		.long	.LM33
 1432 0136 15        		.byte	0x15
 1433 0137 00        		.byte	0x0
 1434 0138 05        		.uleb128 0x5
 1435 0139 02        		.byte	0x2
 1436 013a 0000 0000 		.long	.LM34
 1437 013e 92        		.byte	0x92
 1438 013f 00        		.byte	0x0
 1439 0140 05        		.uleb128 0x5
 1440 0141 02        		.byte	0x2
 1441 0142 0000 0000 		.long	.LM35
 1442 0146 1A        		.byte	0x1a
 1443 0147 00        		.byte	0x0
 1444 0148 05        		.uleb128 0x5
 1445 0149 02        		.byte	0x2
 1446 014a 0000 0000 		.long	.LM36
 1447 014e 18        		.byte	0x18
 1448 014f 00        		.byte	0x0
 1449 0150 05        		.uleb128 0x5
 1450 0151 02        		.byte	0x2
 1451 0152 0000 0000 		.long	.LM37
 1452 0156 1B        		.byte	0x1b
 1453 0157 00        		.byte	0x0
 1454 0158 05        		.uleb128 0x5
 1455 0159 02        		.byte	0x2
 1456 015a 0000 0000 		.long	.LM38
 1457 015e 15        		.byte	0x15
 1458 015f 00        		.byte	0x0
 1459 0160 05        		.uleb128 0x5
 1460 0161 02        		.byte	0x2
 1461 0162 0000 0000 		.long	.LM39
 1462 0166 15        		.byte	0x15
 1463 0167 00        		.byte	0x0
 1464 0168 05        		.uleb128 0x5
 1465 0169 02        		.byte	0x2
 1466 016a 0000 0000 		.long	.LM40
 1467 016e 15        		.byte	0x15
 1468 016f 00        		.byte	0x0
 1469 0170 05        		.uleb128 0x5
GAS LISTING C:\Users\ADMINI~1\AppData\Local\Temp/cc3eqS1j.s 			page 27


 1470 0171 02        		.byte	0x2
 1471 0172 0000 0000 		.long	.LM41
 1472 0176 16        		.byte	0x16
 1473 0177 00        		.byte	0x0
 1474 0178 05        		.uleb128 0x5
 1475 0179 02        		.byte	0x2
 1476 017a 0000 0000 		.long	.LM42
 1477 017e 15        		.byte	0x15
 1478 017f 00        		.byte	0x0
 1479 0180 05        		.uleb128 0x5
 1480 0181 02        		.byte	0x2
 1481 0182 0000 0000 		.long	.LM43
 1482 0186 1E        		.byte	0x1e
 1483 0187 00        		.byte	0x0
 1484 0188 05        		.uleb128 0x5
 1485 0189 02        		.byte	0x2
 1486 018a 0000 0000 		.long	.LM44
 1487 018e 15        		.byte	0x15
 1488 018f 00        		.byte	0x0
 1489 0190 05        		.uleb128 0x5
 1490 0191 02        		.byte	0x2
 1491 0192 0000 0000 		.long	.LM45
 1492 0196 15        		.byte	0x15
 1493 0197 00        		.byte	0x0
 1494 0198 05        		.uleb128 0x5
 1495 0199 02        		.byte	0x2
 1496 019a 0000 0000 		.long	.LM46
 1497 019e 15        		.byte	0x15
 1498 019f 00        		.byte	0x0
 1499 01a0 05        		.uleb128 0x5
 1500 01a1 02        		.byte	0x2
 1501 01a2 0000 0000 		.long	.LM47
 1502 01a6 18        		.byte	0x18
 1503 01a7 00        		.byte	0x0
 1504 01a8 05        		.uleb128 0x5
 1505 01a9 02        		.byte	0x2
 1506 01aa 0000 0000 		.long	.LM48
 1507 01ae 15        		.byte	0x15
 1508 01af 00        		.byte	0x0
 1509 01b0 05        		.uleb128 0x5
 1510 01b1 02        		.byte	0x2
 1511 01b2 0000 0000 		.long	.LM49
 1512 01b6 16        		.byte	0x16
 1513 01b7 00        		.byte	0x0
 1514 01b8 05        		.uleb128 0x5
 1515 01b9 02        		.byte	0x2
 1516 01ba 0000 0000 		.long	.LM50
 1517 01be 16        		.byte	0x16
 1518 01bf 00        		.byte	0x0
 1519 01c0 05        		.uleb128 0x5
 1520 01c1 02        		.byte	0x2
 1521 01c2 0000 0000 		.long	.LM51
 1522 01c6 18        		.byte	0x18
 1523 01c7 00        		.byte	0x0
 1524 01c8 05        		.uleb128 0x5
 1525 01c9 02        		.byte	0x2
 1526 01ca 0000 0000 		.long	.LM52
GAS LISTING C:\Users\ADMINI~1\AppData\Local\Temp/cc3eqS1j.s 			page 28


 1527 01ce 16        		.byte	0x16
 1528 01cf 00        		.byte	0x0
 1529 01d0 05        		.uleb128 0x5
 1530 01d1 02        		.byte	0x2
 1531 01d2 0000 0000 		.long	.LM53
 1532 01d6 16        		.byte	0x16
 1533 01d7 00        		.byte	0x0
 1534 01d8 05        		.uleb128 0x5
 1535 01d9 02        		.byte	0x2
 1536 01da 0000 0000 		.long	.LM54
 1537 01de 03        		.byte	0x3
 1538 01df DE7E      		.sleb128 -162
 1539 01e1 01        		.byte	0x1
 1540 01e2 00        		.byte	0x0
 1541 01e3 05        		.uleb128 0x5
 1542 01e4 02        		.byte	0x2
 1543 01e5 0000 0000 		.long	.LM55
 1544 01e9 15        		.byte	0x15
 1545 01ea 00        		.byte	0x0
 1546 01eb 05        		.uleb128 0x5
 1547 01ec 02        		.byte	0x2
 1548 01ed 0000 0000 		.long	.LM56
 1549 01f1 B7        		.byte	0xb7
 1550 01f2 00        		.byte	0x0
 1551 01f3 05        		.uleb128 0x5
 1552 01f4 02        		.byte	0x2
 1553 01f5 0000 0000 		.long	.LM57
 1554 01f9 03        		.byte	0x3
 1555 01fa D67E      		.sleb128 -170
 1556 01fc 01        		.byte	0x1
 1557 01fd 00        		.byte	0x0
 1558 01fe 05        		.uleb128 0x5
 1559 01ff 02        		.byte	0x2
 1560 0200 0000 0000 		.long	.LM58
 1561 0204 15        		.byte	0x15
 1562 0205 00        		.byte	0x0
 1563 0206 05        		.uleb128 0x5
 1564 0207 02        		.byte	0x2
 1565 0208 0000 0000 		.long	.LM59
 1566 020c 0D        		.byte	0xd
 1567 020d 00        		.byte	0x0
 1568 020e 05        		.uleb128 0x5
 1569 020f 02        		.byte	0x2
 1570 0210 0000 0000 		.long	.LM60
 1571 0214 15        		.byte	0x15
 1572 0215 00        		.byte	0x0
 1573 0216 05        		.uleb128 0x5
 1574 0217 02        		.byte	0x2
 1575 0218 0000 0000 		.long	.LM61
 1576 021c CD        		.byte	0xcd
 1577 021d 00        		.byte	0x0
 1578 021e 05        		.uleb128 0x5
 1579 021f 02        		.byte	0x2
 1580 0220 0000 0000 		.long	.LM62
 1581 0224 15        		.byte	0x15
 1582 0225 00        		.byte	0x0
 1583 0226 05        		.uleb128 0x5
GAS LISTING C:\Users\ADMINI~1\AppData\Local\Temp/cc3eqS1j.s 			page 29


 1584 0227 02        		.byte	0x2
 1585 0228 0000 0000 		.long	.LM63
 1586 022c 17        		.byte	0x17
 1587 022d 00        		.byte	0x0
 1588 022e 05        		.uleb128 0x5
 1589 022f 02        		.byte	0x2
 1590 0230 0000 0000 		.long	.LM64
 1591 0234 15        		.byte	0x15
 1592 0235 00        		.byte	0x0
 1593 0236 05        		.uleb128 0x5
 1594 0237 02        		.byte	0x2
 1595 0238 0000 0000 		.long	.LM65
 1596 023c 15        		.byte	0x15
 1597 023d 00        		.byte	0x0
 1598 023e 05        		.uleb128 0x5
 1599 023f 02        		.byte	0x2
 1600 0240 0000 0000 		.long	.LM66
 1601 0244 03        		.byte	0x3
 1602 0245 C67E      		.sleb128 -186
 1603 0247 01        		.byte	0x1
 1604 0248 00        		.byte	0x0
 1605 0249 05        		.uleb128 0x5
 1606 024a 02        		.byte	0x2
 1607 024b 0000 0000 		.long	.LM67
 1608 024f 15        		.byte	0x15
 1609 0250 00        		.byte	0x0
 1610 0251 05        		.uleb128 0x5
 1611 0252 02        		.byte	0x2
 1612 0253 0000 0000 		.long	.LM68
 1613 0257 D0        		.byte	0xd0
 1614 0258 00        		.byte	0x0
 1615 0259 05        		.uleb128 0x5
 1616 025a 02        		.byte	0x2
 1617 025b 0000 0000 		.long	.LM69
 1618 025f 17        		.byte	0x17
 1619 0260 00        		.byte	0x0
 1620 0261 05        		.uleb128 0x5
 1621 0262 02        		.byte	0x2
 1622 0263 0000 0000 		.long	.LM70
 1623 0267 03        		.byte	0x3
 1624 0268 BA7E      		.sleb128 -198
 1625 026a 01        		.byte	0x1
 1626 026b 00        		.byte	0x0
 1627 026c 05        		.uleb128 0x5
 1628 026d 02        		.byte	0x2
 1629 026e 0000 0000 		.long	.LM71
 1630 0272 15        		.byte	0x15
 1631 0273 00        		.byte	0x0
 1632 0274 05        		.uleb128 0x5
 1633 0275 02        		.byte	0x2
 1634 0276 0000 0000 		.long	.LM72
 1635 027a DF        		.byte	0xdf
 1636 027b 00        		.byte	0x0
 1637 027c 05        		.uleb128 0x5
 1638 027d 02        		.byte	0x2
 1639 027e 0000 0000 		.long	.LM73
 1640 0282 03        		.byte	0x3
GAS LISTING C:\Users\ADMINI~1\AppData\Local\Temp/cc3eqS1j.s 			page 30


 1641 0283 AE7E      		.sleb128 -210
 1642 0285 01        		.byte	0x1
 1643 0286 00        		.byte	0x0
 1644 0287 05        		.uleb128 0x5
 1645 0288 02        		.byte	0x2
 1646 0289 0000 0000 		.long	.LM74
 1647 028d 15        		.byte	0x15
 1648 028e 00        		.byte	0x0
 1649 028f 05        		.uleb128 0x5
 1650 0290 02        		.byte	0x2
 1651 0291 0000 0000 		.long	.LM75
 1652 0295 E7        		.byte	0xe7
 1653 0296 00        		.byte	0x0
 1654 0297 05        		.uleb128 0x5
 1655 0298 02        		.byte	0x2
 1656 0299 0000 0000 		.long	.LM76
 1657 029d 16        		.byte	0x16
 1658 029e 00        		.byte	0x0
 1659 029f 05        		.uleb128 0x5
 1660 02a0 02        		.byte	0x2
 1661 02a1 0000 0000 		.long	.LM77
 1662 02a5 15        		.byte	0x15
 1663 02a6 00        		.byte	0x0
 1664 02a7 05        		.uleb128 0x5
 1665 02a8 02        		.byte	0x2
 1666 02a9 0000 0000 		.long	.LM78
 1667 02ad 1C        		.byte	0x1c
 1668 02ae 00        		.byte	0x0
 1669 02af 05        		.uleb128 0x5
 1670 02b0 02        		.byte	0x2
 1671 02b1 0000 0000 		.long	.LM79
 1672 02b5 03        		.byte	0x3
 1673 02b6 AD7E      		.sleb128 -211
 1674 02b8 01        		.byte	0x1
 1675 02b9 00        		.byte	0x0
 1676 02ba 05        		.uleb128 0x5
 1677 02bb 02        		.byte	0x2
 1678 02bc 0000 0000 		.long	.LM80
 1679 02c0 15        		.byte	0x15
 1680 02c1 00        		.byte	0x0
 1681 02c2 05        		.uleb128 0x5
 1682 02c3 02        		.byte	0x2
 1683 02c4 0000 0000 		.long	.LM81
 1684 02c8 E8        		.byte	0xe8
 1685 02c9 00        		.byte	0x0
 1686 02ca 05        		.uleb128 0x5
 1687 02cb 02        		.byte	0x2
 1688 02cc 0000 0000 		.long	.LM82
 1689 02d0 03        		.byte	0x3
 1690 02d1 B17E      		.sleb128 -207
 1691 02d3 01        		.byte	0x1
 1692 02d4 00        		.byte	0x0
 1693 02d5 05        		.uleb128 0x5
 1694 02d6 02        		.byte	0x2
 1695 02d7 0000 0000 		.long	.LM83
 1696 02db 15        		.byte	0x15
 1697 02dc 00        		.byte	0x0
GAS LISTING C:\Users\ADMINI~1\AppData\Local\Temp/cc3eqS1j.s 			page 31


 1698 02dd 05        		.uleb128 0x5
 1699 02de 02        		.byte	0x2
 1700 02df 0000 0000 		.long	.LM84
 1701 02e3 E6        		.byte	0xe6
 1702 02e4 00        		.byte	0x0
 1703 02e5 05        		.uleb128 0x5
 1704 02e6 02        		.byte	0x2
 1705 02e7 0000 0000 		.long	.LM85
 1706 02eb 18        		.byte	0x18
 1707 02ec 00        		.byte	0x0
 1708 02ed 05        		.uleb128 0x5
 1709 02ee 02        		.byte	0x2
 1710 02ef 0000 0000 		.long	.LM86
 1711 02f3 03        		.byte	0x3
 1712 02f4 A97E      		.sleb128 -215
 1713 02f6 01        		.byte	0x1
 1714 02f7 00        		.byte	0x0
 1715 02f8 05        		.uleb128 0x5
 1716 02f9 02        		.byte	0x2
 1717 02fa 0000 0000 		.long	.LM87
 1718 02fe 15        		.byte	0x15
 1719 02ff 00        		.byte	0x0
 1720 0300 05        		.uleb128 0x5
 1721 0301 02        		.byte	0x2
 1722 0302 0000 0000 		.long	.LM88
 1723 0306 0D        		.byte	0xd
 1724 0307 00        		.byte	0x0
 1725 0308 05        		.uleb128 0x5
 1726 0309 02        		.byte	0x2
 1727 030a 0000 0000 		.long	.LM89
 1728 030e 15        		.byte	0x15
 1729 030f 00        		.byte	0x0
 1730 0310 05        		.uleb128 0x5
 1731 0311 02        		.byte	0x2
 1732 0312 0000 0000 		.long	.LM90
 1733 0316 F5        		.byte	0xf5
 1734 0317 00        		.byte	0x0
 1735 0318 05        		.uleb128 0x5
 1736 0319 02        		.byte	0x2
 1737 031a 0000 0000 		.long	.LM91
 1738 031e 15        		.byte	0x15
 1739 031f 00        		.byte	0x0
 1740 0320 05        		.uleb128 0x5
 1741 0321 02        		.byte	0x2
 1742 0322 0000 0000 		.long	.LM92
 1743 0326 03        		.byte	0x3
 1744 0327 9D7E      		.sleb128 -227
 1745 0329 01        		.byte	0x1
 1746 032a 00        		.byte	0x0
 1747 032b 05        		.uleb128 0x5
 1748 032c 02        		.byte	0x2
 1749 032d 0000 0000 		.long	.LM93
 1750 0331 15        		.byte	0x15
 1751 0332 00        		.byte	0x0
 1752 0333 05        		.uleb128 0x5
 1753 0334 02        		.byte	0x2
 1754 0335 0000 0000 		.long	.LM94
GAS LISTING C:\Users\ADMINI~1\AppData\Local\Temp/cc3eqS1j.s 			page 32


 1755 0339 FC        		.byte	0xfc
 1756 033a 00        		.byte	0x0
 1757 033b 05        		.uleb128 0x5
 1758 033c 02        		.byte	0x2
 1759 033d 0000 0000 		.long	.LM95
 1760 0341 18        		.byte	0x18
 1761 0342 00        		.byte	0x0
 1762 0343 05        		.uleb128 0x5
 1763 0344 02        		.byte	0x2
 1764 0345 0000 0000 		.long	.LM96
 1765 0349 03        		.byte	0x3
 1766 034a B87E      		.sleb128 -200
 1767 034c 01        		.byte	0x1
 1768 034d 00        		.byte	0x0
 1769 034e 05        		.uleb128 0x5
 1770 034f 02        		.byte	0x2
 1771 0350 0000 0000 		.long	.LM97
 1772 0354 15        		.byte	0x15
 1773 0355 00        		.byte	0x0
 1774 0356 05        		.uleb128 0x5
 1775 0357 02        		.byte	0x2
 1776 0358 0000 0000 		.long	.LM98
 1777 035c 15        		.byte	0x15
 1778 035d 00        		.byte	0x0
 1779 035e 05        		.uleb128 0x5
 1780 035f 02        		.byte	0x2
 1781 0360 0000 0000 		.long	.LM99
 1782 0364 03        		.byte	0x3
 1783 0365 4D        		.sleb128 -51
 1784 0366 01        		.byte	0x1
 1785 0367 00        		.byte	0x0
 1786 0368 05        		.uleb128 0x5
 1787 0369 02        		.byte	0x2
 1788 036a 0000 0000 		.long	.LM100
 1789 036e 15        		.byte	0x15
 1790 036f 00        		.byte	0x0
 1791 0370 05        		.uleb128 0x5
 1792 0371 02        		.byte	0x2
 1793 0372 0000 0000 		.long	.LM101
 1794 0376 1F        		.byte	0x1f
 1795 0377 00        		.byte	0x0
 1796 0378 05        		.uleb128 0x5
 1797 0379 02        		.byte	0x2
 1798 037a 0000 0000 		.long	.LM102
 1799 037e 15        		.byte	0x15
 1800 037f 00        		.byte	0x0
 1801 0380 05        		.uleb128 0x5
 1802 0381 02        		.byte	0x2
 1803 0382 0000 0000 		.long	.LM103
 1804 0386 3F        		.byte	0x3f
 1805 0387 00        		.byte	0x0
 1806 0388 05        		.uleb128 0x5
 1807 0389 02        		.byte	0x2
 1808 038a 0000 0000 		.long	.LM104
 1809 038e 15        		.byte	0x15
 1810 038f 00        		.byte	0x0
 1811 0390 05        		.uleb128 0x5
GAS LISTING C:\Users\ADMINI~1\AppData\Local\Temp/cc3eqS1j.s 			page 33


 1812 0391 02        		.byte	0x2
 1813 0392 0000 0000 		.long	.LM105
 1814 0396 15        		.byte	0x15
 1815 0397 00        		.byte	0x0
 1816 0398 05        		.uleb128 0x5
 1817 0399 02        		.byte	0x2
 1818 039a 0000 0000 		.long	.LM106
 1819 039e 15        		.byte	0x15
 1820 039f 00        		.byte	0x0
 1821 03a0 05        		.uleb128 0x5
 1822 03a1 02        		.byte	0x2
 1823 03a2 0000 0000 		.long	.LM107
 1824 03a6 15        		.byte	0x15
 1825 03a7 00        		.byte	0x0
 1826 03a8 05        		.uleb128 0x5
 1827 03a9 02        		.byte	0x2
 1828 03aa 0000 0000 		.long	.Letext0
 1829 03ae 00        		.byte	0x0
 1830 03af 01        		.uleb128 0x1
 1831 03b0 01        		.byte	0x1
 1832               	.LELT0:
 1833 03b1 1600 0000 		.section	.debug_str,"MS",@progbits,1
 1833      0200 1000 
 1833      0000 0101 
 1833      FB0E 0A00 
 1833      0101 0101 
 1834               	.LASF37:
 1835 0000 5458 5F53 		.string	"TX_STOP"
 1835      544F 5000 
 1836               	.LASF15:
 1837 0008 5258 5F52 		.string	"RX_RELCLK"
 1837      454C 434C 
 1837      4B00 
 1838               	.LASF14:
 1839 0012 5258 5F53 		.string	"RX_START"
 1839      5441 5254 
 1839      00
 1840               	.LASF52:
 1841 001b 474E 5520 		.string	"GNU C 4.3.3"
 1841      4320 342E 
 1841      332E 3300 
 1842               	.LASF44:
 1843 0027 6B62 645F 		.string	"kbd_set_tx"
 1843      7365 745F 
 1843      7478 00
 1844               	.LASF13:
 1845 0032 4944 4C45 		.string	"IDLE_END"
 1845      5F45 4E44 
 1845      00
 1846               	.LASF56:
 1847 003b 7478 6368 		.string	"txchar"
 1847      6172 00
 1848               	.LASF8:
 1849 0042 7368 6F72 		.string	"short int"
 1849      7420 696E 
 1849      7400 
 1850               	.LASF58:
GAS LISTING C:\Users\ADMINI~1\AppData\Local\Temp/cc3eqS1j.s 			page 34


 1851 004c 7469 6D65 		.string	"timerAction"
 1851      7241 6374 
 1851      696F 6E00 
 1852               	.LASF29:
 1853 0058 5458 5F44 		.string	"TX_DATA1"
 1853      4154 4131 
 1853      00
 1854               	.LASF30:
 1855 0061 5458 5F44 		.string	"TX_DATA2"
 1855      4154 4132 
 1855      00
 1856               	.LASF31:
 1857 006a 5458 5F44 		.string	"TX_DATA3"
 1857      4154 4133 
 1857      00
 1858               	.LASF32:
 1859 0073 5458 5F44 		.string	"TX_DATA4"
 1859      4154 4134 
 1859      00
 1860               	.LASF33:
 1861 007c 5458 5F44 		.string	"TX_DATA5"
 1861      4154 4135 
 1861      00
 1862               	.LASF34:
 1863 0085 5458 5F44 		.string	"TX_DATA6"
 1863      4154 4136 
 1863      00
 1864               	.LASF35:
 1865 008e 5458 5F44 		.string	"TX_DATA7"
 1865      4154 4137 
 1865      00
 1866               	.LASF28:
 1867 0097 5458 5F53 		.string	"TX_START"
 1867      5441 5254 
 1867      00
 1868               	.LASF11:
 1869 00a0 4944 4C45 		.string	"IDLE_WAIT_REL"
 1869      5F57 4149 
 1869      545F 5245 
 1869      4C00 
 1870               	.LASF53:
 1871 00ae 6B65 7973 		.string	"keysta.c"
 1871      7461 2E63 
 1871      00
 1872               	.LASF51:
 1873 00b7 6B62 645F 		.string	"kbd_state"
 1873      7374 6174 
 1873      6500 
 1874               	.LASF41:
 1875 00c1 636C 6F63 		.string	"clockHigh"
 1875      6B48 6967 
 1875      6800 
 1876               	.LASF43:
 1877 00cb 636C 6F63 		.string	"clockLow"
 1877      6B4C 6F77 
 1877      00
 1878               	.LASF54:
GAS LISTING C:\Users\ADMINI~1\AppData\Local\Temp/cc3eqS1j.s 			page 35


 1879 00d4 443A 5C67 		.string	"D:\\git2\\ps2avrU\\.git\\source"
 1879      6974 325C 
 1879      7073 3261 
 1879      7672 555C 
 1879      2E67 6974 
 1880               	.LASF5:
 1881 00f0 6C6F 6E67 		.string	"long long int"
 1881      206C 6F6E 
 1881      6720 696E 
 1881      7400 
 1882               	.LASF3:
 1883 00fe 6C6F 6E67 		.string	"long int"
 1883      2069 6E74 
 1883      00
 1884               	.LASF47:
 1885 0107 7478 5F62 		.string	"tx_byte"
 1885      7974 6500 
 1886               	.LASF49:
 1887 010f 7061 7269 		.string	"parity"
 1887      7479 00
 1888               	.LASF1:
 1889 0116 756E 7369 		.string	"unsigned char"
 1889      676E 6564 
 1889      2063 6861 
 1889      7200 
 1890               	.LASF0:
 1891 0124 7369 676E 		.string	"signed char"
 1891      6564 2063 
 1891      6861 7200 
 1892               	.LASF6:
 1893 0130 6C6F 6E67 		.string	"long long unsigned int"
 1893      206C 6F6E 
 1893      6720 756E 
 1893      7369 676E 
 1893      6564 2069 
 1894               	.LASF2:
 1895 0147 756E 7369 		.string	"unsigned int"
 1895      676E 6564 
 1895      2069 6E74 
 1895      00
 1896               	.LASF40:
 1897 0154 6461 7461 		.string	"dataHigh"
 1897      4869 6768 
 1897      00
 1898               	.LASF19:
 1899 015d 5258 5F44 		.string	"RX_DATA3"
 1899      4154 4133 
 1899      00
 1900               	.LASF7:
 1901 0166 7368 6F72 		.string	"short unsigned int"
 1901      7420 756E 
 1901      7369 676E 
 1901      6564 2069 
 1901      6E74 00
 1902               	.LASF20:
 1903 0179 5258 5F44 		.string	"RX_DATA4"
 1903      4154 4134 
GAS LISTING C:\Users\ADMINI~1\AppData\Local\Temp/cc3eqS1j.s 			page 36


 1903      00
 1904               	.LASF9:
 1905 0182 6368 6172 		.string	"char"
 1905      00
 1906               	.LASF26:
 1907 0187 5258 5F53 		.string	"RX_SENT_ACK"
 1907      454E 545F 
 1907      4143 4B00 
 1908               	.LASF12:
 1909 0193 4944 4C45 		.string	"IDLE_OK_TO_TX"
 1909      5F4F 4B5F 
 1909      544F 5F54 
 1909      5800 
 1910               	.LASF24:
 1911 01a1 5258 5F50 		.string	"RX_PARITY"
 1911      4152 4954 
 1911      5900 
 1912               	.LASF46:
 1913 01ab 7278 5F62 		.string	"rx_byte"
 1913      7974 6500 
 1914               	.LASF42:
 1915 01b3 6461 7461 		.string	"dataLow"
 1915      4C6F 7700 
 1916               	.LASF36:
 1917 01bb 5458 5F50 		.string	"TX_PARITY"
 1917      4152 4954 
 1917      5900 
 1918               	.LASF4:
 1919 01c5 6C6F 6E67 		.string	"long unsigned int"
 1919      2075 6E73 
 1919      6967 6E65 
 1919      6420 696E 
 1919      7400 
 1920               	.LASF50:
 1921 01d7 6B62 645F 		.string	"kbd_flags"
 1921      666C 6167 
 1921      7300 
 1922               	.LASF38:
 1923 01e1 5458 5F41 		.string	"TX_AFTER_STOP"
 1923      4654 4552 
 1923      5F53 544F 
 1923      5000 
 1924               	.LASF48:
 1925 01ef 7478 5F73 		.string	"tx_shift"
 1925      6869 6674 
 1925      00
 1926               	.LASF39:
 1927 01f8 5458 5F45 		.string	"TX_END"
 1927      4E44 00
 1928               	.LASF45:
 1929 01ff 6B62 645F 		.string	"kbd_init"
 1929      696E 6974 
 1929      00
 1930               	.LASF27:
 1931 0208 5258 5F45 		.string	"RX_END"
 1931      4E44 00
 1932               	.LASF25:
GAS LISTING C:\Users\ADMINI~1\AppData\Local\Temp/cc3eqS1j.s 			page 37


 1933 020f 5258 5F53 		.string	"RX_STOP"
 1933      544F 5000 
 1934               	.LASF57:
 1935 0217 6B62 645F 		.string	"kbd_get_rx_char"
 1935      6765 745F 
 1935      7278 5F63 
 1935      6861 7200 
 1936               	.LASF16:
 1937 0227 5258 5F44 		.string	"RX_DATA0"
 1937      4154 4130 
 1937      00
 1938               	.LASF17:
 1939 0230 5258 5F44 		.string	"RX_DATA1"
 1939      4154 4131 
 1939      00
 1940               	.LASF18:
 1941 0239 5258 5F44 		.string	"RX_DATA2"
 1941      4154 4132 
 1941      00
 1942               	.LASF55:
 1943 0242 656E 756D 		.string	"enum_state"
 1943      5F73 7461 
 1943      7465 00
 1944               	.LASF10:
 1945 024d 4944 4C45 		.string	"IDLE_START"
 1945      5F53 5441 
 1945      5254 00
 1946               	.LASF21:
 1947 0258 5258 5F44 		.string	"RX_DATA5"
 1947      4154 4135 
 1947      00
 1948               	.LASF22:
 1949 0261 5258 5F44 		.string	"RX_DATA6"
 1949      4154 4136 
 1949      00
 1950               	.LASF23:
 1951 026a 5258 5F44 		.string	"RX_DATA7"
 1951      4154 4137 
 1951      00
 1952               	.global __do_clear_bss
GAS LISTING C:\Users\ADMINI~1\AppData\Local\Temp/cc3eqS1j.s 			page 38


DEFINED SYMBOLS
                            *ABS*:00000000 keysta.c
C:\Users\ADMINI~1\AppData\Local\Temp/cc3eqS1j.s:2      *ABS*:0000003f __SREG__
C:\Users\ADMINI~1\AppData\Local\Temp/cc3eqS1j.s:3      *ABS*:0000003e __SP_H__
C:\Users\ADMINI~1\AppData\Local\Temp/cc3eqS1j.s:4      *ABS*:0000003d __SP_L__
C:\Users\ADMINI~1\AppData\Local\Temp/cc3eqS1j.s:5      *ABS*:00000034 __CCP__
C:\Users\ADMINI~1\AppData\Local\Temp/cc3eqS1j.s:6      *ABS*:00000000 __tmp_reg__
C:\Users\ADMINI~1\AppData\Local\Temp/cc3eqS1j.s:7      *ABS*:00000001 __zero_reg__
C:\Users\ADMINI~1\AppData\Local\Temp/cc3eqS1j.s:18     .text:00000000 kbd_set_tx
C:\Users\ADMINI~1\AppData\Local\Temp/cc3eqS1j.s:527    .bss:00000001 tx_byte
                            *COM*:00000001 kbd_flags
C:\Users\ADMINI~1\AppData\Local\Temp/cc3eqS1j.s:54     .text:0000001e kbd_get_rx_char
                             .bss:00000000 rx_byte
C:\Users\ADMINI~1\AppData\Local\Temp/cc3eqS1j.s:83     .text:00000032 timerAction
                            *COM*:00000001 kbd_state
C:\Users\ADMINI~1\AppData\Local\Temp/cc3eqS1j.s:529    .bss:00000003 parity
C:\Users\ADMINI~1\AppData\Local\Temp/cc3eqS1j.s:528    .bss:00000002 tx_shift
C:\Users\ADMINI~1\AppData\Local\Temp/cc3eqS1j.s:483    .text:0000024e kbd_init

UNDEFINED SYMBOLS
timer2Init
timer2SetPrescaler
timerAttach
__do_clear_bss
