GAS LISTING C:\Users\ADMINI~1\AppData\Local\Temp/cceAp3VH.s 			page 1


   1               		.file	"keysta.c"
   2               	__SREG__ = 0x3f
   3               	__SP_H__ = 0x3e
   4               	__SP_L__ = 0x3d
   5               	__CCP__  = 0x34
   6               	__tmp_reg__ = 0
   7               	__zero_reg__ = 1
   8               		.section	.debug_abbrev,"",@progbits
   9               	.Ldebug_abbrev0:
  10               		.section	.debug_info,"",@progbits
  11               	.Ldebug_info0:
  12               		.section	.debug_line,"",@progbits
  13               	.Ldebug_line0:
  14               		.text
  15               	.Ltext0:
  16               	.global	kbd_set_tx
  17               		.type	kbd_set_tx, @function
  18               	kbd_set_tx:
  19               	.LFB7:
  20               	.LM1:
  21               	.LVL0:
  22               	/* prologue: function */
  23               	/* frame size = 0 */
  24               	.LM2:
  25 0000 8093 0000 		sts tx_byte,r24
  26               	.LM3:
  27               	/* #APP */
  28               	 ;  106 "keysta.c" 1
  29 0004 F894      		cli
  30               	 ;  0 "" 2
  31               	.LM4:
  32               	/* #NOAPP */
  33 0006 8091 0000 		lds r24,kbd_flags
  34               	.LVL1:
  35 000a 8F7E      		andi r24,lo8(-17)
  36 000c 8093 0000 		sts kbd_flags,r24
  37               	.LM5:
  38 0010 8091 0000 		lds r24,kbd_flags
  39 0014 8860      		ori r24,lo8(8)
  40 0016 8093 0000 		sts kbd_flags,r24
  41               	.LM6:
  42               	/* #APP */
  43               	 ;  109 "keysta.c" 1
  44 001a 7894      		sei
  45               	 ;  0 "" 2
  46               	/* epilogue start */
  47               	.LM7:
  48               	/* #NOAPP */
  49 001c 0895      		ret
  50               	.LFE7:
  51               		.size	kbd_set_tx, .-kbd_set_tx
  52               	.global	kbd_get_rx_char
  53               		.type	kbd_get_rx_char, @function
  54               	kbd_get_rx_char:
  55               	.LFB8:
  56               	.LM8:
  57               	/* prologue: function */
GAS LISTING C:\Users\ADMINI~1\AppData\Local\Temp/cceAp3VH.s 			page 2


  58               	/* frame size = 0 */
  59               	.LM9:
  60               	/* #APP */
  61               	 ;  115 "keysta.c" 1
  62 001e F894      		cli
  63               	 ;  0 "" 2
  64               	.LM10:
  65               	/* #NOAPP */
  66 0020 8091 0000 		lds r24,kbd_flags
  67 0024 8B7F      		andi r24,lo8(-5)
  68 0026 8093 0000 		sts kbd_flags,r24
  69               	.LM11:
  70               	/* #APP */
  71               	 ;  117 "keysta.c" 1
  72 002a 7894      		sei
  73               	 ;  0 "" 2
  74               	.LM12:
  75               	/* #NOAPP */
  76 002c 8091 0000 		lds r24,rx_byte
  77               	/* epilogue start */
  78               	.LM13:
  79 0030 0895      		ret
  80               	.LFE8:
  81               		.size	kbd_get_rx_char, .-kbd_get_rx_char
  82               		.type	timerAction, @function
  83               	timerAction:
  84               	.LFB9:
  85               	.LM14:
  86               	/* prologue: function */
  87               	/* frame size = 0 */
  88               	.LM15:
  89 0032 8FEC      		ldi r24,lo8(-49)
  90 0034 84BD      		out 68-32,r24
  91               	.LM16:
  92 0036 8091 0000 		lds r24,kbd_state
  93 003a 8330      		cpi r24,lo8(3)
  94 003c 00F4      		brsh .L6
  95               	.LBB38:
  96               	.LBB39:
  97               	.LM17:
  98 003e 8898      		cbi 49-32,0
  99               	.LM18:
 100 0040 909A      		sbi 50-32,0
 101               	.LBE39:
 102               	.LBE38:
 103               	.LM19:
 104 0042 8091 0000 		lds r24,kbd_flags
 105 0046 80FF      		sbrs r24,0
 106 0048 00C0      		rjmp .L40
 107               	.L7:
 108               	.LM20:
 109 004a 829B      		sbis 48-32,2
 110 004c 00C0      		rjmp .L41
 111               	.L9:
 112               	.LM21:
 113 004e 8091 0000 		lds r24,kbd_state
 114 0052 8130      		cpi r24,lo8(1)
GAS LISTING C:\Users\ADMINI~1\AppData\Local\Temp/cceAp3VH.s 			page 3


 115 0054 01F0      		breq .L11
 116 0056 8130      		cpi r24,lo8(1)
 117 0058 00F0      		brlo .L10
 118 005a 8230      		cpi r24,lo8(2)
 119 005c 01F0      		breq .+2
 120 005e 00C0      		rjmp .L37
 121 0060 00C0      		rjmp .L44
 122               	.L10:
 123               	.LM22:
 124 0062 82E0      		ldi r24,lo8(2)
 125 0064 00C0      		rjmp .L39
 126               	.L11:
 127               	.LM23:
 128 0066 80B3      		in r24,48-32
 129               	.LM24:
 130 0068 8DE0      		ldi r24,lo8(13)
 131 006a 00C0      		rjmp .L39
 132               	.L44:
 133               	.LM25:
 134 006c 8091 0000 		lds r24,kbd_flags
 135 0070 83FF      		sbrs r24,3
 136 0072 00C0      		rjmp .L37
 137               	.LBB40:
 138               	.LBB41:
 139               	.LM26:
 140 0074 9098      		cbi 50-32,0
 141               	.LM27:
 142 0076 889A      		sbi 49-32,0
 143               	.LBE41:
 144               	.LBE40:
 145               	.LM28:
 146 0078 84E2      		ldi r24,lo8(36)
 147 007a 00C0      		rjmp .L39
 148               	.L6:
 149               	.LM29:
 150 007c 8091 0000 		lds r24,kbd_state
 151 0080 8A31      		cpi r24,lo8(26)
 152 0082 00F0      		brlo .+2
 153 0084 00C0      		rjmp .L13
 154               	.LM30:
 155 0086 8091 0000 		lds r24,kbd_flags
 156 008a 80FD      		sbrc r24,0
 157 008c 00C0      		rjmp .L14
 158               	.L40:
 159               	.LM31:
 160 008e 8091 0000 		lds r24,kbd_flags
 161 0092 8160      		ori r24,lo8(1)
 162 0094 8093 0000 		sts kbd_flags,r24
 163               	.LBB42:
 164               	.LBB43:
 165               	.LM32:
 166 0098 8A98      		cbi 49-32,2
 167               	.LM33:
 168 009a 929A      		sbi 50-32,2
 169 009c 0895      		ret
 170               	.L14:
 171               	.LBE43:
GAS LISTING C:\Users\ADMINI~1\AppData\Local\Temp/cceAp3VH.s 			page 4


 172               	.LBE42:
 173               	.LM34:
 174 009e 829B      		sbis 48-32,2
 175 00a0 00C0      		rjmp .L43
 176               	.L15:
 177               	.LM35:
 178 00a2 8091 0000 		lds r24,kbd_state
 179 00a6 8731      		cpi r24,lo8(23)
 180 00a8 00F4      		brsh .L23
 181 00aa 8031      		cpi r24,lo8(16)
 182 00ac 00F4      		brsh .L19
 183 00ae 8D30      		cpi r24,lo8(13)
 184 00b0 01F0      		breq .L17
 185 00b2 8F30      		cpi r24,lo8(15)
 186 00b4 01F4      		brne .L16
 187 00b6 00C0      		rjmp .L45
 188               	.L23:
 189 00b8 8831      		cpi r24,lo8(24)
 190 00ba 01F0      		breq .L21
 191 00bc 8831      		cpi r24,lo8(24)
 192 00be 00F0      		brlo .L20
 193 00c0 8931      		cpi r24,lo8(25)
 194 00c2 01F4      		brne .L16
 195 00c4 00C0      		rjmp .L46
 196               	.L17:
 197               	.LM36:
 198 00c6 8091 0000 		lds r24,kbd_flags
 199 00ca 8D7F      		andi r24,lo8(-3)
 200 00cc 00C0      		rjmp .L42
 201               	.L45:
 202               	.LM37:
 203 00ce 8091 0000 		lds r24,kbd_flags
 204 00d2 8B7F      		andi r24,lo8(-5)
 205 00d4 8093 0000 		sts kbd_flags,r24
 206               	.LM38:
 207 00d8 80B3      		in r24,48-32
 208               	.LM39:
 209 00da 1092 0000 		sts parity,__zero_reg__
 210               	.LM40:
 211 00de 1092 0000 		sts rx_byte,__zero_reg__
 212 00e2 00C0      		rjmp .L16
 213               	.L19:
 214               	.LM41:
 215 00e4 8091 0000 		lds r24,rx_byte
 216 00e8 8695      		lsr r24
 217 00ea 8093 0000 		sts rx_byte,r24
 218               	.LM42:
 219 00ee 80B3      		in r24,48-32
 220 00f0 00C0      		rjmp .L16
 221               	.L20:
 222               	.LM43:
 223 00f2 80B3      		in r24,48-32
 224               	.LM44:
 225 00f4 8091 0000 		lds r24,parity
 226 00f8 80FD      		sbrc r24,0
 227 00fa 00C0      		rjmp .L16
 228               	.LM45:
GAS LISTING C:\Users\ADMINI~1\AppData\Local\Temp/cceAp3VH.s 			page 5


 229 00fc 8091 0000 		lds r24,kbd_flags
 230 0100 8260      		ori r24,lo8(2)
 231 0102 00C0      		rjmp .L38
 232               	.L21:
 233               	.LM46:
 234 0104 80B3      		in r24,48-32
 235               	.LM47:
 236 0106 8091 0000 		lds r24,kbd_flags
 237 010a 8260      		ori r24,lo8(2)
 238 010c 8093 0000 		sts kbd_flags,r24
 239               	.LM48:
 240 0110 8091 0000 		lds r24,kbd_flags
 241 0114 81FD      		sbrc r24,1
 242 0116 00C0      		rjmp .L16
 243               	.LBB44:
 244               	.LBB45:
 245               	.LM49:
 246 0118 9098      		cbi 50-32,0
 247               	.LM50:
 248 011a 889A      		sbi 49-32,0
 249               	.LBE45:
 250               	.LBE44:
 251               	.LM51:
 252 011c 8091 0000 		lds r24,kbd_flags
 253 0120 8460      		ori r24,lo8(4)
 254               	.L38:
 255 0122 8093 0000 		sts kbd_flags,r24
 256 0126 00C0      		rjmp .L16
 257               	.L46:
 258               	.LBB46:
 259               	.LBB47:
 260               	.LM52:
 261 0128 8898      		cbi 49-32,0
 262               	.LM53:
 263 012a 909A      		sbi 50-32,0
 264 012c 00C0      		rjmp .L31
 265               	.L16:
 266               	.LBE47:
 267               	.LBE46:
 268               	.LBB48:
 269               	.LBB49:
 270               	.LM54:
 271 012e 9298      		cbi 50-32,2
 272               	.LM55:
 273 0130 8A9A      		sbi 49-32,2
 274               	.LBE49:
 275               	.LBE48:
 276               	.LM56:
 277 0132 8091 0000 		lds r24,kbd_flags
 278 0136 8E7F      		andi r24,lo8(-2)
 279               	.L42:
 280 0138 8093 0000 		sts kbd_flags,r24
 281               	.LM57:
 282 013c 8091 0000 		lds r24,kbd_state
 283 0140 8F5F      		subi r24,lo8(-(1))
 284 0142 00C0      		rjmp .L39
 285               	.L13:
GAS LISTING C:\Users\ADMINI~1\AppData\Local\Temp/cceAp3VH.s 			page 6


 286               	.LM58:
 287 0144 8091 0000 		lds r24,kbd_state
 288 0148 8F32      		cpi r24,lo8(47)
 289 014a 00F0      		brlo .+2
 290 014c 00C0      		rjmp .L37
 291               	.LM59:
 292 014e 8091 0000 		lds r24,kbd_flags
 293 0152 80FF      		sbrs r24,0
 294 0154 00C0      		rjmp .L24
 295               	.LM60:
 296 0156 8299      		sbic 48-32,2
 297 0158 00C0      		rjmp .L25
 298               	.L43:
 299               	.LBB50:
 300               	.LBB51:
 301               	.LM61:
 302 015a 8898      		cbi 49-32,0
 303               	.LM62:
 304 015c 909A      		sbi 50-32,0
 305               	.L41:
 306               	.LBE51:
 307               	.LBE50:
 308               	.LM63:
 309 015e 81E0      		ldi r24,lo8(1)
 310               	.L39:
 311 0160 8093 0000 		sts kbd_state,r24
 312 0164 0895      		ret
 313               	.L25:
 314               	.LM64:
 315 0166 8091 0000 		lds r24,kbd_flags
 316 016a 8E7F      		andi r24,lo8(-2)
 317 016c 8093 0000 		sts kbd_flags,r24
 318               	.LBB52:
 319               	.LBB53:
 320               	.LM65:
 321 0170 9298      		cbi 50-32,2
 322               	.LM66:
 323 0172 8A9A      		sbi 49-32,2
 324 0174 0895      		ret
 325               	.L24:
 326               	.LBE53:
 327               	.LBE52:
 328               	.LM67:
 329 0176 8091 0000 		lds r24,kbd_flags
 330 017a 8160      		ori r24,lo8(1)
 331 017c 8093 0000 		sts kbd_flags,r24
 332               	.LBB54:
 333               	.LBB55:
 334               	.LM68:
 335 0180 8A98      		cbi 49-32,2
 336               	.LM69:
 337 0182 929A      		sbi 50-32,2
 338               	.LBE55:
 339               	.LBE54:
 340               	.LM70:
 341 0184 8091 0000 		lds r24,kbd_state
 342 0188 8C32      		cpi r24,lo8(44)
GAS LISTING C:\Users\ADMINI~1\AppData\Local\Temp/cceAp3VH.s 			page 7


 343 018a 00F4      		brsh .L32
 344 018c 8532      		cpi r24,lo8(37)
 345 018e 00F4      		brsh .L28
 346 0190 8432      		cpi r24,lo8(36)
 347 0192 01F4      		brne .L26
 348 0194 00C0      		rjmp .L47
 349               	.L32:
 350 0196 8D32      		cpi r24,lo8(45)
 351 0198 01F0      		breq .L30
 352 019a 8D32      		cpi r24,lo8(45)
 353 019c 00F0      		brlo .L29
 354 019e 8E32      		cpi r24,lo8(46)
 355 01a0 01F4      		brne .L26
 356 01a2 00C0      		rjmp .L31
 357               	.L47:
 358               	.LM71:
 359 01a4 8091 0000 		lds r24,tx_byte
 360 01a8 8093 0000 		sts tx_shift,r24
 361               	.LM72:
 362 01ac 1092 0000 		sts parity,__zero_reg__
 363               	.L28:
 364               	.LM73:
 365 01b0 8091 0000 		lds r24,tx_shift
 366 01b4 80FF      		sbrs r24,0
 367 01b6 00C0      		rjmp .L33
 368               	.LBB56:
 369               	.LBB57:
 370               	.LM74:
 371 01b8 8898      		cbi 49-32,0
 372               	.LM75:
 373 01ba 909A      		sbi 50-32,0
 374               	.LBE57:
 375               	.LBE56:
 376               	.LM76:
 377 01bc 8091 0000 		lds r24,parity
 378 01c0 8F5F      		subi r24,lo8(-(1))
 379 01c2 8093 0000 		sts parity,r24
 380 01c6 00C0      		rjmp .L34
 381               	.L33:
 382               	.LBB58:
 383               	.LBB59:
 384               	.LM77:
 385 01c8 9098      		cbi 50-32,0
 386               	.LM78:
 387 01ca 889A      		sbi 49-32,0
 388               	.L34:
 389               	.LBE59:
 390               	.LBE58:
 391               	.LM79:
 392 01cc 8091 0000 		lds r24,tx_shift
 393 01d0 8695      		lsr r24
 394 01d2 8093 0000 		sts tx_shift,r24
 395 01d6 00C0      		rjmp .L26
 396               	.L29:
 397               	.LM80:
 398 01d8 8091 0000 		lds r24,parity
 399 01dc 80FF      		sbrs r24,0
GAS LISTING C:\Users\ADMINI~1\AppData\Local\Temp/cceAp3VH.s 			page 8


 400 01de 00C0      		rjmp .L35
 401               	.LBB60:
 402               	.LBB61:
 403               	.LM81:
 404 01e0 9098      		cbi 50-32,0
 405               	.LM82:
 406 01e2 889A      		sbi 49-32,0
 407 01e4 00C0      		rjmp .L36
 408               	.L35:
 409               	.LBE61:
 410               	.LBE60:
 411               	.LBB62:
 412               	.LBB63:
 413               	.LM83:
 414 01e6 8898      		cbi 49-32,0
 415               	.LM84:
 416 01e8 909A      		sbi 50-32,0
 417               	.L36:
 418               	.LBE63:
 419               	.LBE62:
 420               	.LM85:
 421 01ea 8091 0000 		lds r24,kbd_flags
 422 01ee 877F      		andi r24,lo8(-9)
 423 01f0 8093 0000 		sts kbd_flags,r24
 424               	.LM86:
 425 01f4 8091 0000 		lds r24,kbd_flags
 426 01f8 8061      		ori r24,lo8(16)
 427 01fa 8093 0000 		sts kbd_flags,r24
 428 01fe 00C0      		rjmp .L26
 429               	.L30:
 430               	.LBB64:
 431               	.LBB65:
 432               	.LM87:
 433 0200 8898      		cbi 49-32,0
 434               	.LM88:
 435 0202 909A      		sbi 50-32,0
 436 0204 00C0      		rjmp .L26
 437               	.L31:
 438               	.LBE65:
 439               	.LBE64:
 440               	.LM89:
 441 0206 1092 0000 		sts kbd_state,__zero_reg__
 442 020a 0895      		ret
 443               	.L26:
 444               	.LM90:
 445 020c 8091 0000 		lds r24,kbd_state
 446 0210 8F5F      		subi r24,lo8(-(1))
 447 0212 8093 0000 		sts kbd_state,r24
 448               	.L37:
 449 0216 0895      		ret
 450               	.LFE9:
 451               		.size	timerAction, .-timerAction
 452               	.global	kbd_init
 453               		.type	kbd_init, @function
 454               	kbd_init:
 455               	.LFB6:
 456               	.LM91:
GAS LISTING C:\Users\ADMINI~1\AppData\Local\Temp/cceAp3VH.s 			page 9


 457               	/* prologue: function */
 458               	/* frame size = 0 */
 459               	.LM92:
 460 0218 1092 0000 		sts kbd_state,__zero_reg__
 461               	.LM93:
 462 021c 81E1      		ldi r24,lo8(17)
 463 021e 8093 0000 		sts kbd_flags,r24
 464               	.LBB66:
 465               	.LBB67:
 466               	.LM94:
 467 0222 8A98      		cbi 49-32,2
 468               	.LM95:
 469 0224 929A      		sbi 50-32,2
 470               	.LBE67:
 471               	.LBE66:
 472               	.LBB68:
 473               	.LBB69:
 474               	.LM96:
 475 0226 8898      		cbi 49-32,0
 476               	.LM97:
 477 0228 909A      		sbi 50-32,0
 478               	.LBE69:
 479               	.LBE68:
 480               	.LM98:
 481 022a 0E94 0000 		call timer2Init
 482               	.LM99:
 483 022e 82E0      		ldi r24,lo8(2)
 484 0230 0E94 0000 		call timer2SetPrescaler
 485               	.LM100:
 486 0234 85E0      		ldi r24,lo8(5)
 487 0236 60E0      		ldi r22,lo8(gs(timerAction))
 488 0238 70E0      		ldi r23,hi8(gs(timerAction))
 489 023a 0E94 0000 		call timerAttach
 490               	.LM101:
 491 023e 8FEC      		ldi r24,lo8(-49)
 492 0240 84BD      		out 68-32,r24
 493               	/* epilogue start */
 494               	.LM102:
 495 0242 0895      		ret
 496               	.LFE6:
 497               		.size	kbd_init, .-kbd_init
 498               		.lcomm rx_byte,1
 499               		.lcomm tx_byte,1
 500               		.lcomm tx_shift,1
 501               		.lcomm parity,1
 502               		.comm kbd_flags,1,1
 503               		.comm kbd_state,1,1
 504               		.section	.debug_frame,"",@progbits
 505               	.Lframe0:
 506 0000 0C00 0000 		.long	.LECIE0-.LSCIE0
 507               	.LSCIE0:
 508 0004 FFFF FFFF 		.long	0xffffffff
 509 0008 01        		.byte	0x1
 510 0009 00        		.string	""
 511 000a 01        		.uleb128 0x1
 512 000b 7F        		.sleb128 -1
 513 000c 24        		.byte	0x24
GAS LISTING C:\Users\ADMINI~1\AppData\Local\Temp/cceAp3VH.s 			page 10


 514 000d 0C        		.byte	0xc
 515 000e 20        		.uleb128 0x20
 516 000f 00        		.uleb128 0x0
 517               		.p2align	2
 518               	.LECIE0:
 519               	.LSFDE0:
 520 0010 0C00 0000 		.long	.LEFDE0-.LASFDE0
 521               	.LASFDE0:
 522 0014 0000 0000 		.long	.Lframe0
 523 0018 0000 0000 		.long	.LFB7
 524 001c 1E00 0000 		.long	.LFE7-.LFB7
 525               		.p2align	2
 526               	.LEFDE0:
 527               	.LSFDE2:
 528 0020 0C00 0000 		.long	.LEFDE2-.LASFDE2
 529               	.LASFDE2:
 530 0024 0000 0000 		.long	.Lframe0
 531 0028 0000 0000 		.long	.LFB8
 532 002c 1400 0000 		.long	.LFE8-.LFB8
 533               		.p2align	2
 534               	.LEFDE2:
 535               	.LSFDE4:
 536 0030 0C00 0000 		.long	.LEFDE4-.LASFDE4
 537               	.LASFDE4:
 538 0034 0000 0000 		.long	.Lframe0
 539 0038 0000 0000 		.long	.LFB9
 540 003c E601 0000 		.long	.LFE9-.LFB9
 541               		.p2align	2
 542               	.LEFDE4:
 543               	.LSFDE6:
 544 0040 0C00 0000 		.long	.LEFDE6-.LASFDE6
 545               	.LASFDE6:
 546 0044 0000 0000 		.long	.Lframe0
 547 0048 0000 0000 		.long	.LFB6
 548 004c 2C00 0000 		.long	.LFE6-.LFB6
 549               		.p2align	2
 550               	.LEFDE6:
 551               		.text
 552               	.Letext0:
 553               		.section	.debug_loc,"",@progbits
 554               	.Ldebug_loc0:
 555               	.LLST1:
 556 0000 0000 0000 		.long	.LVL0-.Ltext0
 557 0004 0A00 0000 		.long	.LVL1-.Ltext0
 558 0008 0100      		.word	0x1
 559 000a 68        		.byte	0x68
 560 000b 0000 0000 		.long	0x0
 561 000f 0000 0000 		.long	0x0
 562               		.section	.debug_info
 563 0000 2703 0000 		.long	0x327
 564 0004 0200      		.word	0x2
 565 0006 0000 0000 		.long	.Ldebug_abbrev0
 566 000a 04        		.byte	0x4
 567 000b 01        		.uleb128 0x1
 568 000c 0000 0000 		.long	.LASF52
 569 0010 01        		.byte	0x1
 570 0011 0000 0000 		.long	.LASF53
GAS LISTING C:\Users\ADMINI~1\AppData\Local\Temp/cceAp3VH.s 			page 11


 571 0015 0000 0000 		.long	.LASF54
 572 0019 0000 0000 		.long	.Ltext0
 573 001d 0000 0000 		.long	.Letext0
 574 0021 0000 0000 		.long	.Ldebug_line0
 575 0025 02        		.uleb128 0x2
 576 0026 01        		.byte	0x1
 577 0027 06        		.byte	0x6
 578 0028 0000 0000 		.long	.LASF0
 579 002c 02        		.uleb128 0x2
 580 002d 01        		.byte	0x1
 581 002e 08        		.byte	0x8
 582 002f 0000 0000 		.long	.LASF1
 583 0033 03        		.uleb128 0x3
 584 0034 02        		.byte	0x2
 585 0035 05        		.byte	0x5
 586 0036 696E 7400 		.string	"int"
 587 003a 02        		.uleb128 0x2
 588 003b 02        		.byte	0x2
 589 003c 07        		.byte	0x7
 590 003d 0000 0000 		.long	.LASF2
 591 0041 02        		.uleb128 0x2
 592 0042 04        		.byte	0x4
 593 0043 05        		.byte	0x5
 594 0044 0000 0000 		.long	.LASF3
 595 0048 02        		.uleb128 0x2
 596 0049 04        		.byte	0x4
 597 004a 07        		.byte	0x7
 598 004b 0000 0000 		.long	.LASF4
 599 004f 02        		.uleb128 0x2
 600 0050 08        		.byte	0x8
 601 0051 05        		.byte	0x5
 602 0052 0000 0000 		.long	.LASF5
 603 0056 02        		.uleb128 0x2
 604 0057 08        		.byte	0x8
 605 0058 07        		.byte	0x7
 606 0059 0000 0000 		.long	.LASF6
 607 005d 02        		.uleb128 0x2
 608 005e 02        		.byte	0x2
 609 005f 07        		.byte	0x7
 610 0060 0000 0000 		.long	.LASF7
 611 0064 02        		.uleb128 0x2
 612 0065 02        		.byte	0x2
 613 0066 05        		.byte	0x5
 614 0067 0000 0000 		.long	.LASF8
 615 006b 02        		.uleb128 0x2
 616 006c 01        		.byte	0x1
 617 006d 06        		.byte	0x6
 618 006e 0000 0000 		.long	.LASF9
 619 0072 04        		.uleb128 0x4
 620 0073 0000 0000 		.long	.LASF55
 621 0077 02        		.byte	0x2
 622 0078 01        		.byte	0x1
 623 0079 43        		.byte	0x43
 624 007a 3301 0000 		.long	0x133
 625 007e 05        		.uleb128 0x5
 626 007f 0000 0000 		.long	.LASF10
 627 0083 00        		.sleb128 0
GAS LISTING C:\Users\ADMINI~1\AppData\Local\Temp/cceAp3VH.s 			page 12


 628 0084 05        		.uleb128 0x5
 629 0085 0000 0000 		.long	.LASF11
 630 0089 01        		.sleb128 1
 631 008a 05        		.uleb128 0x5
 632 008b 0000 0000 		.long	.LASF12
 633 008f 02        		.sleb128 2
 634 0090 05        		.uleb128 0x5
 635 0091 0000 0000 		.long	.LASF13
 636 0095 03        		.sleb128 3
 637 0096 05        		.uleb128 0x5
 638 0097 0000 0000 		.long	.LASF14
 639 009b 0D        		.sleb128 13
 640 009c 05        		.uleb128 0x5
 641 009d 0000 0000 		.long	.LASF15
 642 00a1 0E        		.sleb128 14
 643 00a2 05        		.uleb128 0x5
 644 00a3 0000 0000 		.long	.LASF16
 645 00a7 0F        		.sleb128 15
 646 00a8 05        		.uleb128 0x5
 647 00a9 0000 0000 		.long	.LASF17
 648 00ad 10        		.sleb128 16
 649 00ae 05        		.uleb128 0x5
 650 00af 0000 0000 		.long	.LASF18
 651 00b3 11        		.sleb128 17
 652 00b4 05        		.uleb128 0x5
 653 00b5 0000 0000 		.long	.LASF19
 654 00b9 12        		.sleb128 18
 655 00ba 05        		.uleb128 0x5
 656 00bb 0000 0000 		.long	.LASF20
 657 00bf 13        		.sleb128 19
 658 00c0 05        		.uleb128 0x5
 659 00c1 0000 0000 		.long	.LASF21
 660 00c5 14        		.sleb128 20
 661 00c6 05        		.uleb128 0x5
 662 00c7 0000 0000 		.long	.LASF22
 663 00cb 15        		.sleb128 21
 664 00cc 05        		.uleb128 0x5
 665 00cd 0000 0000 		.long	.LASF23
 666 00d1 16        		.sleb128 22
 667 00d2 05        		.uleb128 0x5
 668 00d3 0000 0000 		.long	.LASF24
 669 00d7 17        		.sleb128 23
 670 00d8 05        		.uleb128 0x5
 671 00d9 0000 0000 		.long	.LASF25
 672 00dd 18        		.sleb128 24
 673 00de 05        		.uleb128 0x5
 674 00df 0000 0000 		.long	.LASF26
 675 00e3 19        		.sleb128 25
 676 00e4 05        		.uleb128 0x5
 677 00e5 0000 0000 		.long	.LASF27
 678 00e9 1A        		.sleb128 26
 679 00ea 05        		.uleb128 0x5
 680 00eb 0000 0000 		.long	.LASF28
 681 00ef 24        		.sleb128 36
 682 00f0 05        		.uleb128 0x5
 683 00f1 0000 0000 		.long	.LASF29
 684 00f5 25        		.sleb128 37
GAS LISTING C:\Users\ADMINI~1\AppData\Local\Temp/cceAp3VH.s 			page 13


 685 00f6 05        		.uleb128 0x5
 686 00f7 0000 0000 		.long	.LASF30
 687 00fb 26        		.sleb128 38
 688 00fc 05        		.uleb128 0x5
 689 00fd 0000 0000 		.long	.LASF31
 690 0101 27        		.sleb128 39
 691 0102 05        		.uleb128 0x5
 692 0103 0000 0000 		.long	.LASF32
 693 0107 28        		.sleb128 40
 694 0108 05        		.uleb128 0x5
 695 0109 0000 0000 		.long	.LASF33
 696 010d 29        		.sleb128 41
 697 010e 05        		.uleb128 0x5
 698 010f 0000 0000 		.long	.LASF34
 699 0113 2A        		.sleb128 42
 700 0114 05        		.uleb128 0x5
 701 0115 0000 0000 		.long	.LASF35
 702 0119 2B        		.sleb128 43
 703 011a 05        		.uleb128 0x5
 704 011b 0000 0000 		.long	.LASF36
 705 011f 2C        		.sleb128 44
 706 0120 05        		.uleb128 0x5
 707 0121 0000 0000 		.long	.LASF37
 708 0125 2D        		.sleb128 45
 709 0126 05        		.uleb128 0x5
 710 0127 0000 0000 		.long	.LASF38
 711 012b 2E        		.sleb128 46
 712 012c 05        		.uleb128 0x5
 713 012d 0000 0000 		.long	.LASF39
 714 0131 2F        		.sleb128 47
 715 0132 00        		.byte	0x0
 716 0133 06        		.uleb128 0x6
 717 0134 0000 0000 		.long	.LASF40
 718 0138 01        		.byte	0x1
 719 0139 33        		.byte	0x33
 720 013a 01        		.byte	0x1
 721 013b 01        		.byte	0x1
 722 013c 06        		.uleb128 0x6
 723 013d 0000 0000 		.long	.LASF41
 724 0141 01        		.byte	0x1
 725 0142 27        		.byte	0x27
 726 0143 01        		.byte	0x1
 727 0144 01        		.byte	0x1
 728 0145 06        		.uleb128 0x6
 729 0146 0000 0000 		.long	.LASF42
 730 014a 01        		.byte	0x1
 731 014b 39        		.byte	0x39
 732 014c 01        		.byte	0x1
 733 014d 01        		.byte	0x1
 734 014e 06        		.uleb128 0x6
 735 014f 0000 0000 		.long	.LASF43
 736 0153 01        		.byte	0x1
 737 0154 2D        		.byte	0x2d
 738 0155 01        		.byte	0x1
 739 0156 01        		.byte	0x1
 740 0157 07        		.uleb128 0x7
 741 0158 01        		.byte	0x1
GAS LISTING C:\Users\ADMINI~1\AppData\Local\Temp/cceAp3VH.s 			page 14


 742 0159 0000 0000 		.long	.LASF44
 743 015d 01        		.byte	0x1
 744 015e 68        		.byte	0x68
 745 015f 01        		.byte	0x1
 746 0160 0000 0000 		.long	.LFB7
 747 0164 0000 0000 		.long	.LFE7
 748 0168 02        		.byte	0x2
 749 0169 90        		.byte	0x90
 750 016a 20        		.uleb128 0x20
 751 016b 7F01 0000 		.long	0x17f
 752 016f 08        		.uleb128 0x8
 753 0170 0000 0000 		.long	.LASF56
 754 0174 01        		.byte	0x1
 755 0175 67        		.byte	0x67
 756 0176 2C00 0000 		.long	0x2c
 757 017a 0000 0000 		.long	.LLST1
 758 017e 00        		.byte	0x0
 759 017f 09        		.uleb128 0x9
 760 0180 01        		.byte	0x1
 761 0181 0000 0000 		.long	.LASF57
 762 0185 01        		.byte	0x1
 763 0186 72        		.byte	0x72
 764 0187 01        		.byte	0x1
 765 0188 2C00 0000 		.long	0x2c
 766 018c 0000 0000 		.long	.LFB8
 767 0190 0000 0000 		.long	.LFE8
 768 0194 02        		.byte	0x2
 769 0195 90        		.byte	0x90
 770 0196 20        		.uleb128 0x20
 771 0197 0A        		.uleb128 0xa
 772 0198 0000 0000 		.long	.LASF58
 773 019c 01        		.byte	0x1
 774 019d 7A        		.byte	0x7a
 775 019e 01        		.byte	0x1
 776 019f 0000 0000 		.long	.LFB9
 777 01a3 0000 0000 		.long	.LFE9
 778 01a7 02        		.byte	0x2
 779 01a8 90        		.byte	0x90
 780 01a9 20        		.uleb128 0x20
 781 01aa 8602 0000 		.long	0x286
 782 01ae 0B        		.uleb128 0xb
 783 01af 3301 0000 		.long	0x133
 784 01b3 0000 0000 		.long	.LBB38
 785 01b7 0000 0000 		.long	.LBE38
 786 01bb 01        		.byte	0x1
 787 01bc 7F        		.byte	0x7f
 788 01bd 0B        		.uleb128 0xb
 789 01be 4501 0000 		.long	0x145
 790 01c2 0000 0000 		.long	.LBB40
 791 01c6 0000 0000 		.long	.LBE40
 792 01ca 01        		.byte	0x1
 793 01cb 99        		.byte	0x99
 794 01cc 0B        		.uleb128 0xb
 795 01cd 3C01 0000 		.long	0x13c
 796 01d1 0000 0000 		.long	.LBB42
 797 01d5 0000 0000 		.long	.LBE42
 798 01d9 01        		.byte	0x1
GAS LISTING C:\Users\ADMINI~1\AppData\Local\Temp/cceAp3VH.s 			page 15


 799 01da A3        		.byte	0xa3
 800 01db 0B        		.uleb128 0xb
 801 01dc 4501 0000 		.long	0x145
 802 01e0 0000 0000 		.long	.LBB44
 803 01e4 0000 0000 		.long	.LBE44
 804 01e8 01        		.byte	0x1
 805 01e9 DD        		.byte	0xdd
 806 01ea 0B        		.uleb128 0xb
 807 01eb 3301 0000 		.long	0x133
 808 01ef 0000 0000 		.long	.LBB46
 809 01f3 0000 0000 		.long	.LBE46
 810 01f7 01        		.byte	0x1
 811 01f8 E2        		.byte	0xe2
 812 01f9 0B        		.uleb128 0xb
 813 01fa 4E01 0000 		.long	0x14e
 814 01fe 0000 0000 		.long	.LBB48
 815 0202 0000 0000 		.long	.LBE48
 816 0206 01        		.byte	0x1
 817 0207 E7        		.byte	0xe7
 818 0208 0B        		.uleb128 0xb
 819 0209 3301 0000 		.long	0x133
 820 020d 0000 0000 		.long	.LBB50
 821 0211 0000 0000 		.long	.LBE50
 822 0215 01        		.byte	0x1
 823 0216 F0        		.byte	0xf0
 824 0217 0B        		.uleb128 0xb
 825 0218 4E01 0000 		.long	0x14e
 826 021c 0000 0000 		.long	.LBB52
 827 0220 0000 0000 		.long	.LBE52
 828 0224 01        		.byte	0x1
 829 0225 F5        		.byte	0xf5
 830 0226 0B        		.uleb128 0xb
 831 0227 3C01 0000 		.long	0x13c
 832 022b 0000 0000 		.long	.LBB54
 833 022f 0000 0000 		.long	.LBE54
 834 0233 01        		.byte	0x1
 835 0234 FB        		.byte	0xfb
 836 0235 0C        		.uleb128 0xc
 837 0236 3301 0000 		.long	0x133
 838 023a 0000 0000 		.long	.LBB56
 839 023e 0000 0000 		.long	.LBE56
 840 0242 01        		.byte	0x1
 841 0243 0801      		.word	0x108
 842 0245 0C        		.uleb128 0xc
 843 0246 4501 0000 		.long	0x145
 844 024a 0000 0000 		.long	.LBB58
 845 024e 0000 0000 		.long	.LBE58
 846 0252 01        		.byte	0x1
 847 0253 0B01      		.word	0x10b
 848 0255 0C        		.uleb128 0xc
 849 0256 4501 0000 		.long	0x145
 850 025a 0000 0000 		.long	.LBB60
 851 025e 0000 0000 		.long	.LBE60
 852 0262 01        		.byte	0x1
 853 0263 1201      		.word	0x112
 854 0265 0C        		.uleb128 0xc
 855 0266 3301 0000 		.long	0x133
GAS LISTING C:\Users\ADMINI~1\AppData\Local\Temp/cceAp3VH.s 			page 16


 856 026a 0000 0000 		.long	.LBB62
 857 026e 0000 0000 		.long	.LBE62
 858 0272 01        		.byte	0x1
 859 0273 1401      		.word	0x114
 860 0275 0C        		.uleb128 0xc
 861 0276 3301 0000 		.long	0x133
 862 027a 0000 0000 		.long	.LBB64
 863 027e 0000 0000 		.long	.LBE64
 864 0282 01        		.byte	0x1
 865 0283 1A01      		.word	0x11a
 866 0285 00        		.byte	0x0
 867 0286 07        		.uleb128 0x7
 868 0287 01        		.byte	0x1
 869 0288 0000 0000 		.long	.LASF45
 870 028c 01        		.byte	0x1
 871 028d 59        		.byte	0x59
 872 028e 01        		.byte	0x1
 873 028f 0000 0000 		.long	.LFB6
 874 0293 0000 0000 		.long	.LFE6
 875 0297 02        		.byte	0x2
 876 0298 90        		.byte	0x90
 877 0299 20        		.uleb128 0x20
 878 029a BD02 0000 		.long	0x2bd
 879 029e 0B        		.uleb128 0xb
 880 029f 3C01 0000 		.long	0x13c
 881 02a3 0000 0000 		.long	.LBB66
 882 02a7 0000 0000 		.long	.LBE66
 883 02ab 01        		.byte	0x1
 884 02ac 5D        		.byte	0x5d
 885 02ad 0B        		.uleb128 0xb
 886 02ae 3301 0000 		.long	0x133
 887 02b2 0000 0000 		.long	.LBB68
 888 02b6 0000 0000 		.long	.LBE68
 889 02ba 01        		.byte	0x1
 890 02bb 5E        		.byte	0x5e
 891 02bc 00        		.byte	0x0
 892 02bd 0D        		.uleb128 0xd
 893 02be 0000 0000 		.long	.LASF46
 894 02c2 01        		.byte	0x1
 895 02c3 52        		.byte	0x52
 896 02c4 CE02 0000 		.long	0x2ce
 897 02c8 05        		.byte	0x5
 898 02c9 03        		.byte	0x3
 899 02ca 0000 0000 		.long	rx_byte
 900 02ce 0E        		.uleb128 0xe
 901 02cf 2C00 0000 		.long	0x2c
 902 02d3 0D        		.uleb128 0xd
 903 02d4 0000 0000 		.long	.LASF47
 904 02d8 01        		.byte	0x1
 905 02d9 53        		.byte	0x53
 906 02da CE02 0000 		.long	0x2ce
 907 02de 05        		.byte	0x5
 908 02df 03        		.byte	0x3
 909 02e0 0000 0000 		.long	tx_byte
 910 02e4 0D        		.uleb128 0xd
 911 02e5 0000 0000 		.long	.LASF48
 912 02e9 01        		.byte	0x1
GAS LISTING C:\Users\ADMINI~1\AppData\Local\Temp/cceAp3VH.s 			page 17


 913 02ea 54        		.byte	0x54
 914 02eb CE02 0000 		.long	0x2ce
 915 02ef 05        		.byte	0x5
 916 02f0 03        		.byte	0x3
 917 02f1 0000 0000 		.long	tx_shift
 918 02f5 0D        		.uleb128 0xd
 919 02f6 0000 0000 		.long	.LASF49
 920 02fa 01        		.byte	0x1
 921 02fb 55        		.byte	0x55
 922 02fc CE02 0000 		.long	0x2ce
 923 0300 05        		.byte	0x5
 924 0301 03        		.byte	0x3
 925 0302 0000 0000 		.long	parity
 926 0306 0F        		.uleb128 0xf
 927 0307 0000 0000 		.long	.LASF50
 928 030b 01        		.byte	0x1
 929 030c 41        		.byte	0x41
 930 030d CE02 0000 		.long	0x2ce
 931 0311 01        		.byte	0x1
 932 0312 05        		.byte	0x5
 933 0313 03        		.byte	0x3
 934 0314 0000 0000 		.long	kbd_flags
 935 0318 0F        		.uleb128 0xf
 936 0319 0000 0000 		.long	.LASF51
 937 031d 01        		.byte	0x1
 938 031e 50        		.byte	0x50
 939 031f CE02 0000 		.long	0x2ce
 940 0323 01        		.byte	0x1
 941 0324 05        		.byte	0x5
 942 0325 03        		.byte	0x3
 943 0326 0000 0000 		.long	kbd_state
 944 032a 00        		.byte	0x0
 945               		.section	.debug_abbrev
 946 0000 01        		.uleb128 0x1
 947 0001 11        		.uleb128 0x11
 948 0002 01        		.byte	0x1
 949 0003 25        		.uleb128 0x25
 950 0004 0E        		.uleb128 0xe
 951 0005 13        		.uleb128 0x13
 952 0006 0B        		.uleb128 0xb
 953 0007 03        		.uleb128 0x3
 954 0008 0E        		.uleb128 0xe
 955 0009 1B        		.uleb128 0x1b
 956 000a 0E        		.uleb128 0xe
 957 000b 11        		.uleb128 0x11
 958 000c 01        		.uleb128 0x1
 959 000d 12        		.uleb128 0x12
 960 000e 01        		.uleb128 0x1
 961 000f 10        		.uleb128 0x10
 962 0010 06        		.uleb128 0x6
 963 0011 00        		.byte	0x0
 964 0012 00        		.byte	0x0
 965 0013 02        		.uleb128 0x2
 966 0014 24        		.uleb128 0x24
 967 0015 00        		.byte	0x0
 968 0016 0B        		.uleb128 0xb
 969 0017 0B        		.uleb128 0xb
GAS LISTING C:\Users\ADMINI~1\AppData\Local\Temp/cceAp3VH.s 			page 18


 970 0018 3E        		.uleb128 0x3e
 971 0019 0B        		.uleb128 0xb
 972 001a 03        		.uleb128 0x3
 973 001b 0E        		.uleb128 0xe
 974 001c 00        		.byte	0x0
 975 001d 00        		.byte	0x0
 976 001e 03        		.uleb128 0x3
 977 001f 24        		.uleb128 0x24
 978 0020 00        		.byte	0x0
 979 0021 0B        		.uleb128 0xb
 980 0022 0B        		.uleb128 0xb
 981 0023 3E        		.uleb128 0x3e
 982 0024 0B        		.uleb128 0xb
 983 0025 03        		.uleb128 0x3
 984 0026 08        		.uleb128 0x8
 985 0027 00        		.byte	0x0
 986 0028 00        		.byte	0x0
 987 0029 04        		.uleb128 0x4
 988 002a 04        		.uleb128 0x4
 989 002b 01        		.byte	0x1
 990 002c 03        		.uleb128 0x3
 991 002d 0E        		.uleb128 0xe
 992 002e 0B        		.uleb128 0xb
 993 002f 0B        		.uleb128 0xb
 994 0030 3A        		.uleb128 0x3a
 995 0031 0B        		.uleb128 0xb
 996 0032 3B        		.uleb128 0x3b
 997 0033 0B        		.uleb128 0xb
 998 0034 01        		.uleb128 0x1
 999 0035 13        		.uleb128 0x13
 1000 0036 00        		.byte	0x0
 1001 0037 00        		.byte	0x0
 1002 0038 05        		.uleb128 0x5
 1003 0039 28        		.uleb128 0x28
 1004 003a 00        		.byte	0x0
 1005 003b 03        		.uleb128 0x3
 1006 003c 0E        		.uleb128 0xe
 1007 003d 1C        		.uleb128 0x1c
 1008 003e 0D        		.uleb128 0xd
 1009 003f 00        		.byte	0x0
 1010 0040 00        		.byte	0x0
 1011 0041 06        		.uleb128 0x6
 1012 0042 2E        		.uleb128 0x2e
 1013 0043 00        		.byte	0x0
 1014 0044 03        		.uleb128 0x3
 1015 0045 0E        		.uleb128 0xe
 1016 0046 3A        		.uleb128 0x3a
 1017 0047 0B        		.uleb128 0xb
 1018 0048 3B        		.uleb128 0x3b
 1019 0049 0B        		.uleb128 0xb
 1020 004a 27        		.uleb128 0x27
 1021 004b 0C        		.uleb128 0xc
 1022 004c 20        		.uleb128 0x20
 1023 004d 0B        		.uleb128 0xb
 1024 004e 00        		.byte	0x0
 1025 004f 00        		.byte	0x0
 1026 0050 07        		.uleb128 0x7
GAS LISTING C:\Users\ADMINI~1\AppData\Local\Temp/cceAp3VH.s 			page 19


 1027 0051 2E        		.uleb128 0x2e
 1028 0052 01        		.byte	0x1
 1029 0053 3F        		.uleb128 0x3f
 1030 0054 0C        		.uleb128 0xc
 1031 0055 03        		.uleb128 0x3
 1032 0056 0E        		.uleb128 0xe
 1033 0057 3A        		.uleb128 0x3a
 1034 0058 0B        		.uleb128 0xb
 1035 0059 3B        		.uleb128 0x3b
 1036 005a 0B        		.uleb128 0xb
 1037 005b 27        		.uleb128 0x27
 1038 005c 0C        		.uleb128 0xc
 1039 005d 11        		.uleb128 0x11
 1040 005e 01        		.uleb128 0x1
 1041 005f 12        		.uleb128 0x12
 1042 0060 01        		.uleb128 0x1
 1043 0061 40        		.uleb128 0x40
 1044 0062 0A        		.uleb128 0xa
 1045 0063 01        		.uleb128 0x1
 1046 0064 13        		.uleb128 0x13
 1047 0065 00        		.byte	0x0
 1048 0066 00        		.byte	0x0
 1049 0067 08        		.uleb128 0x8
 1050 0068 05        		.uleb128 0x5
 1051 0069 00        		.byte	0x0
 1052 006a 03        		.uleb128 0x3
 1053 006b 0E        		.uleb128 0xe
 1054 006c 3A        		.uleb128 0x3a
 1055 006d 0B        		.uleb128 0xb
 1056 006e 3B        		.uleb128 0x3b
 1057 006f 0B        		.uleb128 0xb
 1058 0070 49        		.uleb128 0x49
 1059 0071 13        		.uleb128 0x13
 1060 0072 02        		.uleb128 0x2
 1061 0073 06        		.uleb128 0x6
 1062 0074 00        		.byte	0x0
 1063 0075 00        		.byte	0x0
 1064 0076 09        		.uleb128 0x9
 1065 0077 2E        		.uleb128 0x2e
 1066 0078 00        		.byte	0x0
 1067 0079 3F        		.uleb128 0x3f
 1068 007a 0C        		.uleb128 0xc
 1069 007b 03        		.uleb128 0x3
 1070 007c 0E        		.uleb128 0xe
 1071 007d 3A        		.uleb128 0x3a
 1072 007e 0B        		.uleb128 0xb
 1073 007f 3B        		.uleb128 0x3b
 1074 0080 0B        		.uleb128 0xb
 1075 0081 27        		.uleb128 0x27
 1076 0082 0C        		.uleb128 0xc
 1077 0083 49        		.uleb128 0x49
 1078 0084 13        		.uleb128 0x13
 1079 0085 11        		.uleb128 0x11
 1080 0086 01        		.uleb128 0x1
 1081 0087 12        		.uleb128 0x12
 1082 0088 01        		.uleb128 0x1
 1083 0089 40        		.uleb128 0x40
GAS LISTING C:\Users\ADMINI~1\AppData\Local\Temp/cceAp3VH.s 			page 20


 1084 008a 0A        		.uleb128 0xa
 1085 008b 00        		.byte	0x0
 1086 008c 00        		.byte	0x0
 1087 008d 0A        		.uleb128 0xa
 1088 008e 2E        		.uleb128 0x2e
 1089 008f 01        		.byte	0x1
 1090 0090 03        		.uleb128 0x3
 1091 0091 0E        		.uleb128 0xe
 1092 0092 3A        		.uleb128 0x3a
 1093 0093 0B        		.uleb128 0xb
 1094 0094 3B        		.uleb128 0x3b
 1095 0095 0B        		.uleb128 0xb
 1096 0096 27        		.uleb128 0x27
 1097 0097 0C        		.uleb128 0xc
 1098 0098 11        		.uleb128 0x11
 1099 0099 01        		.uleb128 0x1
 1100 009a 12        		.uleb128 0x12
 1101 009b 01        		.uleb128 0x1
 1102 009c 40        		.uleb128 0x40
 1103 009d 0A        		.uleb128 0xa
 1104 009e 01        		.uleb128 0x1
 1105 009f 13        		.uleb128 0x13
 1106 00a0 00        		.byte	0x0
 1107 00a1 00        		.byte	0x0
 1108 00a2 0B        		.uleb128 0xb
 1109 00a3 1D        		.uleb128 0x1d
 1110 00a4 00        		.byte	0x0
 1111 00a5 31        		.uleb128 0x31
 1112 00a6 13        		.uleb128 0x13
 1113 00a7 11        		.uleb128 0x11
 1114 00a8 01        		.uleb128 0x1
 1115 00a9 12        		.uleb128 0x12
 1116 00aa 01        		.uleb128 0x1
 1117 00ab 58        		.uleb128 0x58
 1118 00ac 0B        		.uleb128 0xb
 1119 00ad 59        		.uleb128 0x59
 1120 00ae 0B        		.uleb128 0xb
 1121 00af 00        		.byte	0x0
 1122 00b0 00        		.byte	0x0
 1123 00b1 0C        		.uleb128 0xc
 1124 00b2 1D        		.uleb128 0x1d
 1125 00b3 00        		.byte	0x0
 1126 00b4 31        		.uleb128 0x31
 1127 00b5 13        		.uleb128 0x13
 1128 00b6 11        		.uleb128 0x11
 1129 00b7 01        		.uleb128 0x1
 1130 00b8 12        		.uleb128 0x12
 1131 00b9 01        		.uleb128 0x1
 1132 00ba 58        		.uleb128 0x58
 1133 00bb 0B        		.uleb128 0xb
 1134 00bc 59        		.uleb128 0x59
 1135 00bd 05        		.uleb128 0x5
 1136 00be 00        		.byte	0x0
 1137 00bf 00        		.byte	0x0
 1138 00c0 0D        		.uleb128 0xd
 1139 00c1 34        		.uleb128 0x34
 1140 00c2 00        		.byte	0x0
GAS LISTING C:\Users\ADMINI~1\AppData\Local\Temp/cceAp3VH.s 			page 21


 1141 00c3 03        		.uleb128 0x3
 1142 00c4 0E        		.uleb128 0xe
 1143 00c5 3A        		.uleb128 0x3a
 1144 00c6 0B        		.uleb128 0xb
 1145 00c7 3B        		.uleb128 0x3b
 1146 00c8 0B        		.uleb128 0xb
 1147 00c9 49        		.uleb128 0x49
 1148 00ca 13        		.uleb128 0x13
 1149 00cb 02        		.uleb128 0x2
 1150 00cc 0A        		.uleb128 0xa
 1151 00cd 00        		.byte	0x0
 1152 00ce 00        		.byte	0x0
 1153 00cf 0E        		.uleb128 0xe
 1154 00d0 35        		.uleb128 0x35
 1155 00d1 00        		.byte	0x0
 1156 00d2 49        		.uleb128 0x49
 1157 00d3 13        		.uleb128 0x13
 1158 00d4 00        		.byte	0x0
 1159 00d5 00        		.byte	0x0
 1160 00d6 0F        		.uleb128 0xf
 1161 00d7 34        		.uleb128 0x34
 1162 00d8 00        		.byte	0x0
 1163 00d9 03        		.uleb128 0x3
 1164 00da 0E        		.uleb128 0xe
 1165 00db 3A        		.uleb128 0x3a
 1166 00dc 0B        		.uleb128 0xb
 1167 00dd 3B        		.uleb128 0x3b
 1168 00de 0B        		.uleb128 0xb
 1169 00df 49        		.uleb128 0x49
 1170 00e0 13        		.uleb128 0x13
 1171 00e1 3F        		.uleb128 0x3f
 1172 00e2 0C        		.uleb128 0xc
 1173 00e3 02        		.uleb128 0x2
 1174 00e4 0A        		.uleb128 0xa
 1175 00e5 00        		.byte	0x0
 1176 00e6 00        		.byte	0x0
 1177 00e7 00        		.byte	0x0
 1178               		.section	.debug_pubnames,"",@progbits
 1179 0000 5A00 0000 		.long	0x5a
 1180 0004 0200      		.word	0x2
 1181 0006 0000 0000 		.long	.Ldebug_info0
 1182 000a 2B03 0000 		.long	0x32b
 1183 000e 5701 0000 		.long	0x157
 1184 0012 6B62 645F 		.string	"kbd_set_tx"
 1184      7365 745F 
 1184      7478 00
 1185 001d 7F01 0000 		.long	0x17f
 1186 0021 6B62 645F 		.string	"kbd_get_rx_char"
 1186      6765 745F 
 1186      7278 5F63 
 1186      6861 7200 
 1187 0031 8602 0000 		.long	0x286
 1188 0035 6B62 645F 		.string	"kbd_init"
 1188      696E 6974 
 1188      00
 1189 003e 0603 0000 		.long	0x306
 1190 0042 6B62 645F 		.string	"kbd_flags"
GAS LISTING C:\Users\ADMINI~1\AppData\Local\Temp/cceAp3VH.s 			page 22


 1190      666C 6167 
 1190      7300 
 1191 004c 1803 0000 		.long	0x318
 1192 0050 6B62 645F 		.string	"kbd_state"
 1192      7374 6174 
 1192      6500 
 1193 005a 0000 0000 		.long	0x0
 1194               		.section	.debug_aranges,"",@progbits
 1195 0000 1C00 0000 		.long	0x1c
 1196 0004 0200      		.word	0x2
 1197 0006 0000 0000 		.long	.Ldebug_info0
 1198 000a 04        		.byte	0x4
 1199 000b 00        		.byte	0x0
 1200 000c 0000      		.word	0x0
 1201 000e 0000      		.word	0x0
 1202 0010 0000 0000 		.long	.Ltext0
 1203 0014 4402 0000 		.long	.Letext0-.Ltext0
 1204 0018 0000 0000 		.long	0x0
 1205 001c 0000 0000 		.long	0x0
 1206               		.section	.debug_line
 1207 0000 8503 0000 		.long	.LELT0-.LSLT0
 1208               	.LSLT0:
 1209 0004 0200      		.word	0x2
 1210 0006 1C00 0000 		.long	.LELTP0-.LASLTP0
 1211               	.LASLTP0:
 1212 000a 01        		.byte	0x1
 1213 000b 01        		.byte	0x1
 1214 000c F6        		.byte	0xf6
 1215 000d F5        		.byte	0xf5
 1216 000e 0A        		.byte	0xa
 1217 000f 00        		.byte	0x0
 1218 0010 01        		.byte	0x1
 1219 0011 01        		.byte	0x1
 1220 0012 01        		.byte	0x1
 1221 0013 01        		.byte	0x1
 1222 0014 00        		.byte	0x0
 1223 0015 00        		.byte	0x0
 1224 0016 00        		.byte	0x0
 1225 0017 01        		.byte	0x1
 1226 0018 00        		.byte	0x0
 1227 0019 6B65 7973 		.string	"keysta.c"
 1227      7461 2E63 
 1227      00
 1228 0022 00        		.uleb128 0x0
 1229 0023 00        		.uleb128 0x0
 1230 0024 00        		.uleb128 0x0
 1231 0025 00        		.byte	0x0
 1232               	.LELTP0:
 1233 0026 00        		.byte	0x0
 1234 0027 05        		.uleb128 0x5
 1235 0028 02        		.byte	0x2
 1236 0029 0000 0000 		.long	.LM1
 1237 002d 7B        		.byte	0x7b
 1238 002e 00        		.byte	0x0
 1239 002f 05        		.uleb128 0x5
 1240 0030 02        		.byte	0x2
 1241 0031 0000 0000 		.long	.LM2
GAS LISTING C:\Users\ADMINI~1\AppData\Local\Temp/cceAp3VH.s 			page 23


 1242 0035 15        		.byte	0x15
 1243 0036 00        		.byte	0x0
 1244 0037 05        		.uleb128 0x5
 1245 0038 02        		.byte	0x2
 1246 0039 0000 0000 		.long	.LM3
 1247 003d 15        		.byte	0x15
 1248 003e 00        		.byte	0x0
 1249 003f 05        		.uleb128 0x5
 1250 0040 02        		.byte	0x2
 1251 0041 0000 0000 		.long	.LM4
 1252 0045 15        		.byte	0x15
 1253 0046 00        		.byte	0x0
 1254 0047 05        		.uleb128 0x5
 1255 0048 02        		.byte	0x2
 1256 0049 0000 0000 		.long	.LM5
 1257 004d 15        		.byte	0x15
 1258 004e 00        		.byte	0x0
 1259 004f 05        		.uleb128 0x5
 1260 0050 02        		.byte	0x2
 1261 0051 0000 0000 		.long	.LM6
 1262 0055 15        		.byte	0x15
 1263 0056 00        		.byte	0x0
 1264 0057 05        		.uleb128 0x5
 1265 0058 02        		.byte	0x2
 1266 0059 0000 0000 		.long	.LM7
 1267 005d 15        		.byte	0x15
 1268 005e 00        		.byte	0x0
 1269 005f 05        		.uleb128 0x5
 1270 0060 02        		.byte	0x2
 1271 0061 0000 0000 		.long	.LM8
 1272 0065 18        		.byte	0x18
 1273 0066 00        		.byte	0x0
 1274 0067 05        		.uleb128 0x5
 1275 0068 02        		.byte	0x2
 1276 0069 0000 0000 		.long	.LM9
 1277 006d 15        		.byte	0x15
 1278 006e 00        		.byte	0x0
 1279 006f 05        		.uleb128 0x5
 1280 0070 02        		.byte	0x2
 1281 0071 0000 0000 		.long	.LM10
 1282 0075 15        		.byte	0x15
 1283 0076 00        		.byte	0x0
 1284 0077 05        		.uleb128 0x5
 1285 0078 02        		.byte	0x2
 1286 0079 0000 0000 		.long	.LM11
 1287 007d 15        		.byte	0x15
 1288 007e 00        		.byte	0x0
 1289 007f 05        		.uleb128 0x5
 1290 0080 02        		.byte	0x2
 1291 0081 0000 0000 		.long	.LM12
 1292 0085 15        		.byte	0x15
 1293 0086 00        		.byte	0x0
 1294 0087 05        		.uleb128 0x5
 1295 0088 02        		.byte	0x2
 1296 0089 0000 0000 		.long	.LM13
 1297 008d 15        		.byte	0x15
 1298 008e 00        		.byte	0x0
GAS LISTING C:\Users\ADMINI~1\AppData\Local\Temp/cceAp3VH.s 			page 24


 1299 008f 05        		.uleb128 0x5
 1300 0090 02        		.byte	0x2
 1301 0091 0000 0000 		.long	.LM14
 1302 0095 17        		.byte	0x17
 1303 0096 00        		.byte	0x0
 1304 0097 05        		.uleb128 0x5
 1305 0098 02        		.byte	0x2
 1306 0099 0000 0000 		.long	.LM15
 1307 009d 16        		.byte	0x16
 1308 009e 00        		.byte	0x0
 1309 009f 05        		.uleb128 0x5
 1310 00a0 02        		.byte	0x2
 1311 00a1 0000 0000 		.long	.LM16
 1312 00a5 16        		.byte	0x16
 1313 00a6 00        		.byte	0x0
 1314 00a7 05        		.uleb128 0x5
 1315 00a8 02        		.byte	0x2
 1316 00a9 0000 0000 		.long	.LM17
 1317 00ad 03        		.byte	0x3
 1318 00ae B67F      		.sleb128 -74
 1319 00b0 01        		.byte	0x1
 1320 00b1 00        		.byte	0x0
 1321 00b2 05        		.uleb128 0x5
 1322 00b3 02        		.byte	0x2
 1323 00b4 0000 0000 		.long	.LM18
 1324 00b8 15        		.byte	0x15
 1325 00b9 00        		.byte	0x0
 1326 00ba 05        		.uleb128 0x5
 1327 00bb 02        		.byte	0x2
 1328 00bc 0000 0000 		.long	.LM19
 1329 00c0 5F        		.byte	0x5f
 1330 00c1 00        		.byte	0x0
 1331 00c2 05        		.uleb128 0x5
 1332 00c3 02        		.byte	0x2
 1333 00c4 0000 0000 		.long	.LM20
 1334 00c8 1A        		.byte	0x1a
 1335 00c9 00        		.byte	0x0
 1336 00ca 05        		.uleb128 0x5
 1337 00cb 02        		.byte	0x2
 1338 00cc 0000 0000 		.long	.LM21
 1339 00d0 18        		.byte	0x18
 1340 00d1 00        		.byte	0x0
 1341 00d2 05        		.uleb128 0x5
 1342 00d3 02        		.byte	0x2
 1343 00d4 0000 0000 		.long	.LM22
 1344 00d8 16        		.byte	0x16
 1345 00d9 00        		.byte	0x0
 1346 00da 05        		.uleb128 0x5
 1347 00db 02        		.byte	0x2
 1348 00dc 0000 0000 		.long	.LM23
 1349 00e0 17        		.byte	0x17
 1350 00e1 00        		.byte	0x0
 1351 00e2 05        		.uleb128 0x5
 1352 00e3 02        		.byte	0x2
 1353 00e4 0000 0000 		.long	.LM24
 1354 00e8 16        		.byte	0x16
 1355 00e9 00        		.byte	0x0
GAS LISTING C:\Users\ADMINI~1\AppData\Local\Temp/cceAp3VH.s 			page 25


 1356 00ea 05        		.uleb128 0x5
 1357 00eb 02        		.byte	0x2
 1358 00ec 0000 0000 		.long	.LM25
 1359 00f0 1B        		.byte	0x1b
 1360 00f1 00        		.byte	0x0
 1361 00f2 05        		.uleb128 0x5
 1362 00f3 02        		.byte	0x2
 1363 00f4 0000 0000 		.long	.LM26
 1364 00f8 03        		.byte	0x3
 1365 00f9 A27F      		.sleb128 -94
 1366 00fb 01        		.byte	0x1
 1367 00fc 00        		.byte	0x0
 1368 00fd 05        		.uleb128 0x5
 1369 00fe 02        		.byte	0x2
 1370 00ff 0000 0000 		.long	.LM27
 1371 0103 15        		.byte	0x15
 1372 0104 00        		.byte	0x0
 1373 0105 05        		.uleb128 0x5
 1374 0106 02        		.byte	0x2
 1375 0107 0000 0000 		.long	.LM28
 1376 010b 73        		.byte	0x73
 1377 010c 00        		.byte	0x0
 1378 010d 05        		.uleb128 0x5
 1379 010e 02        		.byte	0x2
 1380 010f 0000 0000 		.long	.LM29
 1381 0113 1A        		.byte	0x1a
 1382 0114 00        		.byte	0x0
 1383 0115 05        		.uleb128 0x5
 1384 0116 02        		.byte	0x2
 1385 0117 0000 0000 		.long	.LM30
 1386 011b 15        		.byte	0x15
 1387 011c 00        		.byte	0x0
 1388 011d 05        		.uleb128 0x5
 1389 011e 02        		.byte	0x2
 1390 011f 0000 0000 		.long	.LM31
 1391 0123 15        		.byte	0x15
 1392 0124 00        		.byte	0x0
 1393 0125 05        		.uleb128 0x5
 1394 0126 02        		.byte	0x2
 1395 0127 0000 0000 		.long	.LM32
 1396 012b 03        		.byte	0x3
 1397 012c 867F      		.sleb128 -122
 1398 012e 01        		.byte	0x1
 1399 012f 00        		.byte	0x0
 1400 0130 05        		.uleb128 0x5
 1401 0131 02        		.byte	0x2
 1402 0132 0000 0000 		.long	.LM33
 1403 0136 15        		.byte	0x15
 1404 0137 00        		.byte	0x0
 1405 0138 05        		.uleb128 0x5
 1406 0139 02        		.byte	0x2
 1407 013a 0000 0000 		.long	.LM34
 1408 013e 92        		.byte	0x92
 1409 013f 00        		.byte	0x0
 1410 0140 05        		.uleb128 0x5
 1411 0141 02        		.byte	0x2
 1412 0142 0000 0000 		.long	.LM35
GAS LISTING C:\Users\ADMINI~1\AppData\Local\Temp/cceAp3VH.s 			page 26


 1413 0146 1A        		.byte	0x1a
 1414 0147 00        		.byte	0x0
 1415 0148 05        		.uleb128 0x5
 1416 0149 02        		.byte	0x2
 1417 014a 0000 0000 		.long	.LM36
 1418 014e 18        		.byte	0x18
 1419 014f 00        		.byte	0x0
 1420 0150 05        		.uleb128 0x5
 1421 0151 02        		.byte	0x2
 1422 0152 0000 0000 		.long	.LM37
 1423 0156 1B        		.byte	0x1b
 1424 0157 00        		.byte	0x0
 1425 0158 05        		.uleb128 0x5
 1426 0159 02        		.byte	0x2
 1427 015a 0000 0000 		.long	.LM38
 1428 015e 15        		.byte	0x15
 1429 015f 00        		.byte	0x0
 1430 0160 05        		.uleb128 0x5
 1431 0161 02        		.byte	0x2
 1432 0162 0000 0000 		.long	.LM39
 1433 0166 18        		.byte	0x18
 1434 0167 00        		.byte	0x0
 1435 0168 05        		.uleb128 0x5
 1436 0169 02        		.byte	0x2
 1437 016a 0000 0000 		.long	.LM40
 1438 016e 15        		.byte	0x15
 1439 016f 00        		.byte	0x0
 1440 0170 05        		.uleb128 0x5
 1441 0171 02        		.byte	0x2
 1442 0172 0000 0000 		.long	.LM41
 1443 0176 1E        		.byte	0x1e
 1444 0177 00        		.byte	0x0
 1445 0178 05        		.uleb128 0x5
 1446 0179 02        		.byte	0x2
 1447 017a 0000 0000 		.long	.LM42
 1448 017e 15        		.byte	0x15
 1449 017f 00        		.byte	0x0
 1450 0180 05        		.uleb128 0x5
 1451 0181 02        		.byte	0x2
 1452 0182 0000 0000 		.long	.LM43
 1453 0186 1A        		.byte	0x1a
 1454 0187 00        		.byte	0x0
 1455 0188 05        		.uleb128 0x5
 1456 0189 02        		.byte	0x2
 1457 018a 0000 0000 		.long	.LM44
 1458 018e 17        		.byte	0x17
 1459 018f 00        		.byte	0x0
 1460 0190 05        		.uleb128 0x5
 1461 0191 02        		.byte	0x2
 1462 0192 0000 0000 		.long	.LM45
 1463 0196 16        		.byte	0x16
 1464 0197 00        		.byte	0x0
 1465 0198 05        		.uleb128 0x5
 1466 0199 02        		.byte	0x2
 1467 019a 0000 0000 		.long	.LM46
 1468 019e 18        		.byte	0x18
 1469 019f 00        		.byte	0x0
GAS LISTING C:\Users\ADMINI~1\AppData\Local\Temp/cceAp3VH.s 			page 27


 1470 01a0 05        		.uleb128 0x5
 1471 01a1 02        		.byte	0x2
 1472 01a2 0000 0000 		.long	.LM47
 1473 01a6 16        		.byte	0x16
 1474 01a7 00        		.byte	0x0
 1475 01a8 05        		.uleb128 0x5
 1476 01a9 02        		.byte	0x2
 1477 01aa 0000 0000 		.long	.LM48
 1478 01ae 16        		.byte	0x16
 1479 01af 00        		.byte	0x0
 1480 01b0 05        		.uleb128 0x5
 1481 01b1 02        		.byte	0x2
 1482 01b2 0000 0000 		.long	.LM49
 1483 01b6 03        		.byte	0x3
 1484 01b7 DE7E      		.sleb128 -162
 1485 01b9 01        		.byte	0x1
 1486 01ba 00        		.byte	0x0
 1487 01bb 05        		.uleb128 0x5
 1488 01bc 02        		.byte	0x2
 1489 01bd 0000 0000 		.long	.LM50
 1490 01c1 15        		.byte	0x15
 1491 01c2 00        		.byte	0x0
 1492 01c3 05        		.uleb128 0x5
 1493 01c4 02        		.byte	0x2
 1494 01c5 0000 0000 		.long	.LM51
 1495 01c9 B7        		.byte	0xb7
 1496 01ca 00        		.byte	0x0
 1497 01cb 05        		.uleb128 0x5
 1498 01cc 02        		.byte	0x2
 1499 01cd 0000 0000 		.long	.LM52
 1500 01d1 03        		.byte	0x3
 1501 01d2 D67E      		.sleb128 -170
 1502 01d4 01        		.byte	0x1
 1503 01d5 00        		.byte	0x0
 1504 01d6 05        		.uleb128 0x5
 1505 01d7 02        		.byte	0x2
 1506 01d8 0000 0000 		.long	.LM53
 1507 01dc 15        		.byte	0x15
 1508 01dd 00        		.byte	0x0
 1509 01de 05        		.uleb128 0x5
 1510 01df 02        		.byte	0x2
 1511 01e0 0000 0000 		.long	.LM54
 1512 01e4 0D        		.byte	0xd
 1513 01e5 00        		.byte	0x0
 1514 01e6 05        		.uleb128 0x5
 1515 01e7 02        		.byte	0x2
 1516 01e8 0000 0000 		.long	.LM55
 1517 01ec 15        		.byte	0x15
 1518 01ed 00        		.byte	0x0
 1519 01ee 05        		.uleb128 0x5
 1520 01ef 02        		.byte	0x2
 1521 01f0 0000 0000 		.long	.LM56
 1522 01f4 CD        		.byte	0xcd
 1523 01f5 00        		.byte	0x0
 1524 01f6 05        		.uleb128 0x5
 1525 01f7 02        		.byte	0x2
 1526 01f8 0000 0000 		.long	.LM57
GAS LISTING C:\Users\ADMINI~1\AppData\Local\Temp/cceAp3VH.s 			page 28


 1527 01fc 15        		.byte	0x15
 1528 01fd 00        		.byte	0x0
 1529 01fe 05        		.uleb128 0x5
 1530 01ff 02        		.byte	0x2
 1531 0200 0000 0000 		.long	.LM58
 1532 0204 17        		.byte	0x17
 1533 0205 00        		.byte	0x0
 1534 0206 05        		.uleb128 0x5
 1535 0207 02        		.byte	0x2
 1536 0208 0000 0000 		.long	.LM59
 1537 020c 15        		.byte	0x15
 1538 020d 00        		.byte	0x0
 1539 020e 05        		.uleb128 0x5
 1540 020f 02        		.byte	0x2
 1541 0210 0000 0000 		.long	.LM60
 1542 0214 15        		.byte	0x15
 1543 0215 00        		.byte	0x0
 1544 0216 05        		.uleb128 0x5
 1545 0217 02        		.byte	0x2
 1546 0218 0000 0000 		.long	.LM61
 1547 021c 03        		.byte	0x3
 1548 021d C67E      		.sleb128 -186
 1549 021f 01        		.byte	0x1
 1550 0220 00        		.byte	0x0
 1551 0221 05        		.uleb128 0x5
 1552 0222 02        		.byte	0x2
 1553 0223 0000 0000 		.long	.LM62
 1554 0227 15        		.byte	0x15
 1555 0228 00        		.byte	0x0
 1556 0229 05        		.uleb128 0x5
 1557 022a 02        		.byte	0x2
 1558 022b 0000 0000 		.long	.LM63
 1559 022f D0        		.byte	0xd0
 1560 0230 00        		.byte	0x0
 1561 0231 05        		.uleb128 0x5
 1562 0232 02        		.byte	0x2
 1563 0233 0000 0000 		.long	.LM64
 1564 0237 17        		.byte	0x17
 1565 0238 00        		.byte	0x0
 1566 0239 05        		.uleb128 0x5
 1567 023a 02        		.byte	0x2
 1568 023b 0000 0000 		.long	.LM65
 1569 023f 03        		.byte	0x3
 1570 0240 BA7E      		.sleb128 -198
 1571 0242 01        		.byte	0x1
 1572 0243 00        		.byte	0x0
 1573 0244 05        		.uleb128 0x5
 1574 0245 02        		.byte	0x2
 1575 0246 0000 0000 		.long	.LM66
 1576 024a 15        		.byte	0x15
 1577 024b 00        		.byte	0x0
 1578 024c 05        		.uleb128 0x5
 1579 024d 02        		.byte	0x2
 1580 024e 0000 0000 		.long	.LM67
 1581 0252 DF        		.byte	0xdf
 1582 0253 00        		.byte	0x0
 1583 0254 05        		.uleb128 0x5
GAS LISTING C:\Users\ADMINI~1\AppData\Local\Temp/cceAp3VH.s 			page 29


 1584 0255 02        		.byte	0x2
 1585 0256 0000 0000 		.long	.LM68
 1586 025a 03        		.byte	0x3
 1587 025b AE7E      		.sleb128 -210
 1588 025d 01        		.byte	0x1
 1589 025e 00        		.byte	0x0
 1590 025f 05        		.uleb128 0x5
 1591 0260 02        		.byte	0x2
 1592 0261 0000 0000 		.long	.LM69
 1593 0265 15        		.byte	0x15
 1594 0266 00        		.byte	0x0
 1595 0267 05        		.uleb128 0x5
 1596 0268 02        		.byte	0x2
 1597 0269 0000 0000 		.long	.LM70
 1598 026d E7        		.byte	0xe7
 1599 026e 00        		.byte	0x0
 1600 026f 05        		.uleb128 0x5
 1601 0270 02        		.byte	0x2
 1602 0271 0000 0000 		.long	.LM71
 1603 0275 16        		.byte	0x16
 1604 0276 00        		.byte	0x0
 1605 0277 05        		.uleb128 0x5
 1606 0278 02        		.byte	0x2
 1607 0279 0000 0000 		.long	.LM72
 1608 027d 15        		.byte	0x15
 1609 027e 00        		.byte	0x0
 1610 027f 05        		.uleb128 0x5
 1611 0280 02        		.byte	0x2
 1612 0281 0000 0000 		.long	.LM73
 1613 0285 1C        		.byte	0x1c
 1614 0286 00        		.byte	0x0
 1615 0287 05        		.uleb128 0x5
 1616 0288 02        		.byte	0x2
 1617 0289 0000 0000 		.long	.LM74
 1618 028d 03        		.byte	0x3
 1619 028e AD7E      		.sleb128 -211
 1620 0290 01        		.byte	0x1
 1621 0291 00        		.byte	0x0
 1622 0292 05        		.uleb128 0x5
 1623 0293 02        		.byte	0x2
 1624 0294 0000 0000 		.long	.LM75
 1625 0298 15        		.byte	0x15
 1626 0299 00        		.byte	0x0
 1627 029a 05        		.uleb128 0x5
 1628 029b 02        		.byte	0x2
 1629 029c 0000 0000 		.long	.LM76
 1630 02a0 E8        		.byte	0xe8
 1631 02a1 00        		.byte	0x0
 1632 02a2 05        		.uleb128 0x5
 1633 02a3 02        		.byte	0x2
 1634 02a4 0000 0000 		.long	.LM77
 1635 02a8 03        		.byte	0x3
 1636 02a9 B17E      		.sleb128 -207
 1637 02ab 01        		.byte	0x1
 1638 02ac 00        		.byte	0x0
 1639 02ad 05        		.uleb128 0x5
 1640 02ae 02        		.byte	0x2
GAS LISTING C:\Users\ADMINI~1\AppData\Local\Temp/cceAp3VH.s 			page 30


 1641 02af 0000 0000 		.long	.LM78
 1642 02b3 15        		.byte	0x15
 1643 02b4 00        		.byte	0x0
 1644 02b5 05        		.uleb128 0x5
 1645 02b6 02        		.byte	0x2
 1646 02b7 0000 0000 		.long	.LM79
 1647 02bb E6        		.byte	0xe6
 1648 02bc 00        		.byte	0x0
 1649 02bd 05        		.uleb128 0x5
 1650 02be 02        		.byte	0x2
 1651 02bf 0000 0000 		.long	.LM80
 1652 02c3 18        		.byte	0x18
 1653 02c4 00        		.byte	0x0
 1654 02c5 05        		.uleb128 0x5
 1655 02c6 02        		.byte	0x2
 1656 02c7 0000 0000 		.long	.LM81
 1657 02cb 03        		.byte	0x3
 1658 02cc A97E      		.sleb128 -215
 1659 02ce 01        		.byte	0x1
 1660 02cf 00        		.byte	0x0
 1661 02d0 05        		.uleb128 0x5
 1662 02d1 02        		.byte	0x2
 1663 02d2 0000 0000 		.long	.LM82
 1664 02d6 15        		.byte	0x15
 1665 02d7 00        		.byte	0x0
 1666 02d8 05        		.uleb128 0x5
 1667 02d9 02        		.byte	0x2
 1668 02da 0000 0000 		.long	.LM83
 1669 02de 0D        		.byte	0xd
 1670 02df 00        		.byte	0x0
 1671 02e0 05        		.uleb128 0x5
 1672 02e1 02        		.byte	0x2
 1673 02e2 0000 0000 		.long	.LM84
 1674 02e6 15        		.byte	0x15
 1675 02e7 00        		.byte	0x0
 1676 02e8 05        		.uleb128 0x5
 1677 02e9 02        		.byte	0x2
 1678 02ea 0000 0000 		.long	.LM85
 1679 02ee F5        		.byte	0xf5
 1680 02ef 00        		.byte	0x0
 1681 02f0 05        		.uleb128 0x5
 1682 02f1 02        		.byte	0x2
 1683 02f2 0000 0000 		.long	.LM86
 1684 02f6 15        		.byte	0x15
 1685 02f7 00        		.byte	0x0
 1686 02f8 05        		.uleb128 0x5
 1687 02f9 02        		.byte	0x2
 1688 02fa 0000 0000 		.long	.LM87
 1689 02fe 03        		.byte	0x3
 1690 02ff 9D7E      		.sleb128 -227
 1691 0301 01        		.byte	0x1
 1692 0302 00        		.byte	0x0
 1693 0303 05        		.uleb128 0x5
 1694 0304 02        		.byte	0x2
 1695 0305 0000 0000 		.long	.LM88
 1696 0309 15        		.byte	0x15
 1697 030a 00        		.byte	0x0
GAS LISTING C:\Users\ADMINI~1\AppData\Local\Temp/cceAp3VH.s 			page 31


 1698 030b 05        		.uleb128 0x5
 1699 030c 02        		.byte	0x2
 1700 030d 0000 0000 		.long	.LM89
 1701 0311 FC        		.byte	0xfc
 1702 0312 00        		.byte	0x0
 1703 0313 05        		.uleb128 0x5
 1704 0314 02        		.byte	0x2
 1705 0315 0000 0000 		.long	.LM90
 1706 0319 18        		.byte	0x18
 1707 031a 00        		.byte	0x0
 1708 031b 05        		.uleb128 0x5
 1709 031c 02        		.byte	0x2
 1710 031d 0000 0000 		.long	.LM91
 1711 0321 03        		.byte	0x3
 1712 0322 B87E      		.sleb128 -200
 1713 0324 01        		.byte	0x1
 1714 0325 00        		.byte	0x0
 1715 0326 05        		.uleb128 0x5
 1716 0327 02        		.byte	0x2
 1717 0328 0000 0000 		.long	.LM92
 1718 032c 15        		.byte	0x15
 1719 032d 00        		.byte	0x0
 1720 032e 05        		.uleb128 0x5
 1721 032f 02        		.byte	0x2
 1722 0330 0000 0000 		.long	.LM93
 1723 0334 15        		.byte	0x15
 1724 0335 00        		.byte	0x0
 1725 0336 05        		.uleb128 0x5
 1726 0337 02        		.byte	0x2
 1727 0338 0000 0000 		.long	.LM94
 1728 033c 03        		.byte	0x3
 1729 033d 4D        		.sleb128 -51
 1730 033e 01        		.byte	0x1
 1731 033f 00        		.byte	0x0
 1732 0340 05        		.uleb128 0x5
 1733 0341 02        		.byte	0x2
 1734 0342 0000 0000 		.long	.LM95
 1735 0346 15        		.byte	0x15
 1736 0347 00        		.byte	0x0
 1737 0348 05        		.uleb128 0x5
 1738 0349 02        		.byte	0x2
 1739 034a 0000 0000 		.long	.LM96
 1740 034e 1F        		.byte	0x1f
 1741 034f 00        		.byte	0x0
 1742 0350 05        		.uleb128 0x5
 1743 0351 02        		.byte	0x2
 1744 0352 0000 0000 		.long	.LM97
 1745 0356 15        		.byte	0x15
 1746 0357 00        		.byte	0x0
 1747 0358 05        		.uleb128 0x5
 1748 0359 02        		.byte	0x2
 1749 035a 0000 0000 		.long	.LM98
 1750 035e 3F        		.byte	0x3f
 1751 035f 00        		.byte	0x0
 1752 0360 05        		.uleb128 0x5
 1753 0361 02        		.byte	0x2
 1754 0362 0000 0000 		.long	.LM99
GAS LISTING C:\Users\ADMINI~1\AppData\Local\Temp/cceAp3VH.s 			page 32


 1755 0366 15        		.byte	0x15
 1756 0367 00        		.byte	0x0
 1757 0368 05        		.uleb128 0x5
 1758 0369 02        		.byte	0x2
 1759 036a 0000 0000 		.long	.LM100
 1760 036e 15        		.byte	0x15
 1761 036f 00        		.byte	0x0
 1762 0370 05        		.uleb128 0x5
 1763 0371 02        		.byte	0x2
 1764 0372 0000 0000 		.long	.LM101
 1765 0376 15        		.byte	0x15
 1766 0377 00        		.byte	0x0
 1767 0378 05        		.uleb128 0x5
 1768 0379 02        		.byte	0x2
 1769 037a 0000 0000 		.long	.LM102
 1770 037e 15        		.byte	0x15
 1771 037f 00        		.byte	0x0
 1772 0380 05        		.uleb128 0x5
 1773 0381 02        		.byte	0x2
 1774 0382 0000 0000 		.long	.Letext0
 1775 0386 00        		.byte	0x0
 1776 0387 01        		.uleb128 0x1
 1777 0388 01        		.byte	0x1
 1778               	.LELT0:
 1779 0389 1600 0000 		.section	.debug_str,"MS",@progbits,1
 1779      0200 1000 
 1779      0000 0101 
 1779      FB0E 0A00 
 1779      0101 0101 
 1780               	.LASF37:
 1781 0000 5458 5F53 		.string	"TX_STOP"
 1781      544F 5000 
 1782               	.LASF15:
 1783 0008 5258 5F52 		.string	"RX_RELCLK"
 1783      454C 434C 
 1783      4B00 
 1784               	.LASF14:
 1785 0012 5258 5F53 		.string	"RX_START"
 1785      5441 5254 
 1785      00
 1786               	.LASF52:
 1787 001b 474E 5520 		.string	"GNU C 4.3.3"
 1787      4320 342E 
 1787      332E 3300 
 1788               	.LASF44:
 1789 0027 6B62 645F 		.string	"kbd_set_tx"
 1789      7365 745F 
 1789      7478 00
 1790               	.LASF13:
 1791 0032 4944 4C45 		.string	"IDLE_END"
 1791      5F45 4E44 
 1791      00
 1792               	.LASF56:
 1793 003b 7478 6368 		.string	"txchar"
 1793      6172 00
 1794               	.LASF8:
 1795 0042 7368 6F72 		.string	"short int"
GAS LISTING C:\Users\ADMINI~1\AppData\Local\Temp/cceAp3VH.s 			page 33


 1795      7420 696E 
 1795      7400 
 1796               	.LASF58:
 1797 004c 7469 6D65 		.string	"timerAction"
 1797      7241 6374 
 1797      696F 6E00 
 1798               	.LASF29:
 1799 0058 5458 5F44 		.string	"TX_DATA1"
 1799      4154 4131 
 1799      00
 1800               	.LASF30:
 1801 0061 5458 5F44 		.string	"TX_DATA2"
 1801      4154 4132 
 1801      00
 1802               	.LASF31:
 1803 006a 5458 5F44 		.string	"TX_DATA3"
 1803      4154 4133 
 1803      00
 1804               	.LASF32:
 1805 0073 5458 5F44 		.string	"TX_DATA4"
 1805      4154 4134 
 1805      00
 1806               	.LASF33:
 1807 007c 5458 5F44 		.string	"TX_DATA5"
 1807      4154 4135 
 1807      00
 1808               	.LASF34:
 1809 0085 5458 5F44 		.string	"TX_DATA6"
 1809      4154 4136 
 1809      00
 1810               	.LASF35:
 1811 008e 5458 5F44 		.string	"TX_DATA7"
 1811      4154 4137 
 1811      00
 1812               	.LASF28:
 1813 0097 5458 5F53 		.string	"TX_START"
 1813      5441 5254 
 1813      00
 1814               	.LASF11:
 1815 00a0 4944 4C45 		.string	"IDLE_WAIT_REL"
 1815      5F57 4149 
 1815      545F 5245 
 1815      4C00 
 1816               	.LASF53:
 1817 00ae 6B65 7973 		.string	"keysta.c"
 1817      7461 2E63 
 1817      00
 1818               	.LASF51:
 1819 00b7 6B62 645F 		.string	"kbd_state"
 1819      7374 6174 
 1819      6500 
 1820               	.LASF41:
 1821 00c1 636C 6F63 		.string	"clockHigh"
 1821      6B48 6967 
 1821      6800 
 1822               	.LASF43:
 1823 00cb 636C 6F63 		.string	"clockLow"
GAS LISTING C:\Users\ADMINI~1\AppData\Local\Temp/cceAp3VH.s 			page 34


 1823      6B4C 6F77 
 1823      00
 1824               	.LASF40:
 1825 00d4 6461 7461 		.string	"dataHigh"
 1825      4869 6768 
 1825      00
 1826               	.LASF5:
 1827 00dd 6C6F 6E67 		.string	"long long int"
 1827      206C 6F6E 
 1827      6720 696E 
 1827      7400 
 1828               	.LASF54:
 1829 00eb 443A 5C67 		.string	"D:\\git\\ps2avrU\\source"
 1829      6974 5C70 
 1829      7332 6176 
 1829      7255 5C73 
 1829      6F75 7263 
 1830               	.LASF3:
 1831 0101 6C6F 6E67 		.string	"long int"
 1831      2069 6E74 
 1831      00
 1832               	.LASF49:
 1833 010a 7061 7269 		.string	"parity"
 1833      7479 00
 1834               	.LASF1:
 1835 0111 756E 7369 		.string	"unsigned char"
 1835      676E 6564 
 1835      2063 6861 
 1835      7200 
 1836               	.LASF0:
 1837 011f 7369 676E 		.string	"signed char"
 1837      6564 2063 
 1837      6861 7200 
 1838               	.LASF6:
 1839 012b 6C6F 6E67 		.string	"long long unsigned int"
 1839      206C 6F6E 
 1839      6720 756E 
 1839      7369 676E 
 1839      6564 2069 
 1840               	.LASF2:
 1841 0142 756E 7369 		.string	"unsigned int"
 1841      676E 6564 
 1841      2069 6E74 
 1841      00
 1842               	.LASF47:
 1843 014f 7478 5F62 		.string	"tx_byte"
 1843      7974 6500 
 1844               	.LASF19:
 1845 0157 5258 5F44 		.string	"RX_DATA3"
 1845      4154 4133 
 1845      00
 1846               	.LASF7:
 1847 0160 7368 6F72 		.string	"short unsigned int"
 1847      7420 756E 
 1847      7369 676E 
 1847      6564 2069 
 1847      6E74 00
GAS LISTING C:\Users\ADMINI~1\AppData\Local\Temp/cceAp3VH.s 			page 35


 1848               	.LASF20:
 1849 0173 5258 5F44 		.string	"RX_DATA4"
 1849      4154 4134 
 1849      00
 1850               	.LASF9:
 1851 017c 6368 6172 		.string	"char"
 1851      00
 1852               	.LASF26:
 1853 0181 5258 5F53 		.string	"RX_SENT_ACK"
 1853      454E 545F 
 1853      4143 4B00 
 1854               	.LASF12:
 1855 018d 4944 4C45 		.string	"IDLE_OK_TO_TX"
 1855      5F4F 4B5F 
 1855      544F 5F54 
 1855      5800 
 1856               	.LASF24:
 1857 019b 5258 5F50 		.string	"RX_PARITY"
 1857      4152 4954 
 1857      5900 
 1858               	.LASF46:
 1859 01a5 7278 5F62 		.string	"rx_byte"
 1859      7974 6500 
 1860               	.LASF42:
 1861 01ad 6461 7461 		.string	"dataLow"
 1861      4C6F 7700 
 1862               	.LASF36:
 1863 01b5 5458 5F50 		.string	"TX_PARITY"
 1863      4152 4954 
 1863      5900 
 1864               	.LASF4:
 1865 01bf 6C6F 6E67 		.string	"long unsigned int"
 1865      2075 6E73 
 1865      6967 6E65 
 1865      6420 696E 
 1865      7400 
 1866               	.LASF50:
 1867 01d1 6B62 645F 		.string	"kbd_flags"
 1867      666C 6167 
 1867      7300 
 1868               	.LASF38:
 1869 01db 5458 5F41 		.string	"TX_AFTER_STOP"
 1869      4654 4552 
 1869      5F53 544F 
 1869      5000 
 1870               	.LASF48:
 1871 01e9 7478 5F73 		.string	"tx_shift"
 1871      6869 6674 
 1871      00
 1872               	.LASF39:
 1873 01f2 5458 5F45 		.string	"TX_END"
 1873      4E44 00
 1874               	.LASF45:
 1875 01f9 6B62 645F 		.string	"kbd_init"
 1875      696E 6974 
 1875      00
 1876               	.LASF27:
GAS LISTING C:\Users\ADMINI~1\AppData\Local\Temp/cceAp3VH.s 			page 36


 1877 0202 5258 5F45 		.string	"RX_END"
 1877      4E44 00
 1878               	.LASF25:
 1879 0209 5258 5F53 		.string	"RX_STOP"
 1879      544F 5000 
 1880               	.LASF57:
 1881 0211 6B62 645F 		.string	"kbd_get_rx_char"
 1881      6765 745F 
 1881      7278 5F63 
 1881      6861 7200 
 1882               	.LASF16:
 1883 0221 5258 5F44 		.string	"RX_DATA0"
 1883      4154 4130 
 1883      00
 1884               	.LASF17:
 1885 022a 5258 5F44 		.string	"RX_DATA1"
 1885      4154 4131 
 1885      00
 1886               	.LASF18:
 1887 0233 5258 5F44 		.string	"RX_DATA2"
 1887      4154 4132 
 1887      00
 1888               	.LASF55:
 1889 023c 656E 756D 		.string	"enum_state"
 1889      5F73 7461 
 1889      7465 00
 1890               	.LASF10:
 1891 0247 4944 4C45 		.string	"IDLE_START"
 1891      5F53 5441 
 1891      5254 00
 1892               	.LASF21:
 1893 0252 5258 5F44 		.string	"RX_DATA5"
 1893      4154 4135 
 1893      00
 1894               	.LASF22:
 1895 025b 5258 5F44 		.string	"RX_DATA6"
 1895      4154 4136 
 1895      00
 1896               	.LASF23:
 1897 0264 5258 5F44 		.string	"RX_DATA7"
 1897      4154 4137 
 1897      00
 1898               	.global __do_clear_bss
GAS LISTING C:\Users\ADMINI~1\AppData\Local\Temp/cceAp3VH.s 			page 37


DEFINED SYMBOLS
                            *ABS*:00000000 keysta.c
C:\Users\ADMINI~1\AppData\Local\Temp/cceAp3VH.s:2      *ABS*:0000003f __SREG__
C:\Users\ADMINI~1\AppData\Local\Temp/cceAp3VH.s:3      *ABS*:0000003e __SP_H__
C:\Users\ADMINI~1\AppData\Local\Temp/cceAp3VH.s:4      *ABS*:0000003d __SP_L__
C:\Users\ADMINI~1\AppData\Local\Temp/cceAp3VH.s:5      *ABS*:00000034 __CCP__
C:\Users\ADMINI~1\AppData\Local\Temp/cceAp3VH.s:6      *ABS*:00000000 __tmp_reg__
C:\Users\ADMINI~1\AppData\Local\Temp/cceAp3VH.s:7      *ABS*:00000001 __zero_reg__
C:\Users\ADMINI~1\AppData\Local\Temp/cceAp3VH.s:18     .text:00000000 kbd_set_tx
C:\Users\ADMINI~1\AppData\Local\Temp/cceAp3VH.s:498    .bss:00000001 tx_byte
                            *COM*:00000001 kbd_flags
C:\Users\ADMINI~1\AppData\Local\Temp/cceAp3VH.s:54     .text:0000001e kbd_get_rx_char
                             .bss:00000000 rx_byte
C:\Users\ADMINI~1\AppData\Local\Temp/cceAp3VH.s:83     .text:00000032 timerAction
                            *COM*:00000001 kbd_state
C:\Users\ADMINI~1\AppData\Local\Temp/cceAp3VH.s:500    .bss:00000003 parity
C:\Users\ADMINI~1\AppData\Local\Temp/cceAp3VH.s:499    .bss:00000002 tx_shift
C:\Users\ADMINI~1\AppData\Local\Temp/cceAp3VH.s:454    .text:00000218 kbd_init

UNDEFINED SYMBOLS
timer2Init
timer2SetPrescaler
timerAttach
__do_clear_bss
