GAS LISTING C:\Users\ADMINI~1\AppData\Local\Temp/cce2Fewp.s 			page 1


   1               		.file	"ledrender.c"
   2               	__SREG__ = 0x3f
   3               	__SP_H__ = 0x3e
   4               	__SP_L__ = 0x3d
   5               	__CCP__  = 0x34
   6               	__tmp_reg__ = 0
   7               	__zero_reg__ = 1
   8               		.section	.debug_abbrev,"",@progbits
   9               	.Ldebug_abbrev0:
  10               		.section	.debug_info,"",@progbits
  11               	.Ldebug_info0:
  12               		.section	.debug_line,"",@progbits
  13               	.Ldebug_line0:
  14               		.text
  15               	.Ltext0:
  16               	.global	setLEDState
  17               		.type	setLEDState, @function
  18               	setLEDState:
  19               	.LFB8:
  20               	.LM1:
  21               	.LVL0:
  22               	/* prologue: function */
  23               	/* frame size = 0 */
  24               	.LM2:
  25 0000 8093 0000 		sts LEDstate,r24
  26               	/* epilogue start */
  27               	.LM3:
  28 0004 0895      		ret
  29               	.LFE8:
  30               		.size	setLEDState, .-setLEDState
  31               	.global	getLEDState
  32               		.type	getLEDState, @function
  33               	getLEDState:
  34               	.LFB9:
  35               	.LM4:
  36               	/* prologue: function */
  37               	/* frame size = 0 */
  38               	.LM5:
  39 0006 8091 0000 		lds r24,LEDstate
  40               	/* epilogue start */
  41 000a 0895      		ret
  42               	.LFE9:
  43               		.size	getLEDState, .-getLEDState
  44               	.global	clearLEDInited
  45               		.type	clearLEDInited, @function
  46               	clearLEDInited:
  47               	.LFB14:
  48               	.LM6:
  49               	/* prologue: function */
  50               	/* frame size = 0 */
  51               	.LM7:
  52 000c 1092 0000 		sts ledInited,__zero_reg__
  53               	/* epilogue start */
  54               	.LM8:
  55 0010 0895      		ret
  56               	.LFE14:
  57               		.size	clearLEDInited, .-clearLEDInited
GAS LISTING C:\Users\ADMINI~1\AppData\Local\Temp/cce2Fewp.s 			page 2


  58               	.global	setLEDIndicate
  59               		.type	setLEDIndicate, @function
  60               	setLEDIndicate:
  61               	.LFB16:
  62               	.LM9:
  63               	/* prologue: function */
  64               	/* frame size = 0 */
  65               	.LM10:
  66 0012 8091 0000 		lds r24,LEDstate
  67 0016 90E0      		ldi r25,lo8(0)
  68 0018 80FF      		sbrs r24,0
  69 001a 00C0      		rjmp .L8
  70               	.LM11:
  71 001c 909A      		sbi 50-32,0
  72 001e 00C0      		rjmp .L9
  73               	.L8:
  74               	.LM12:
  75 0020 9098      		cbi 50-32,0
  76               	.L9:
  77               	.LM13:
  78 0022 AC01      		movw r20,r24
  79 0024 4270      		andi r20,lo8(2)
  80 0026 5070      		andi r21,hi8(2)
  81 0028 81FF      		sbrs r24,1
  82 002a 00C0      		rjmp .L10
  83               	.LM14:
  84 002c 919A      		sbi 50-32,1
  85 002e 00C0      		rjmp .L11
  86               	.L10:
  87               	.LM15:
  88 0030 9198      		cbi 50-32,1
  89               	.L11:
  90 0032 2091 0000 		lds r18,prevSCRLED.1857
  91               	.LM16:
  92 0036 82FF      		sbrs r24,2
  93 0038 00C0      		rjmp .L12
  94               	.LM17:
  95 003a 969A      		sbi 50-32,6
  96               	.LM18:
  97 003c 2223      		tst r18
  98 003e 01F4      		brne .L18
  99 0040 00C0      		rjmp .L21
 100               	.L12:
 101               	.LM19:
 102 0042 9698      		cbi 50-32,6
 103               	.LM20:
 104 0044 2130      		cpi r18,lo8(1)
 105 0046 01F4      		brne .L18
 106 0048 00C0      		rjmp .L22
 107               	.L21:
 108               	.LM21:
 109 004a 81E0      		ldi r24,lo8(1)
 110 004c 8093 0000 		sts prevSCRLED.1857,r24
 111               	.LM22:
 112 0050 452B      		or r20,r21
 113 0052 01F4      		brne .L16
 114               	.LM23:
GAS LISTING C:\Users\ADMINI~1\AppData\Local\Temp/cce2Fewp.s 			page 3


 115 0054 85E0      		ldi r24,lo8(5)
 116 0056 00C0      		rjmp .L20
 117               	.L16:
 118               	.LM24:
 119 0058 84E0      		ldi r24,lo8(4)
 120 005a 00C0      		rjmp .L20
 121               	.L22:
 122               	.LM25:
 123 005c 1092 0000 		sts prevSCRLED.1857,__zero_reg__
 124               	.LM26:
 125 0060 452B      		or r20,r21
 126 0062 01F4      		brne .L17
 127               	.LM27:
 128 0064 83E0      		ldi r24,lo8(3)
 129               	.L20:
 130 0066 8093 0000 		sts scrollLockLED,r24
 131 006a 0895      		ret
 132               	.L17:
 133               	.LM28:
 134 006c 82E0      		ldi r24,lo8(2)
 135 006e 8093 0000 		sts scrollLockLED,r24
 136               	.L18:
 137 0072 0895      		ret
 138               	.LFE16:
 139               		.size	setLEDIndicate, .-setLEDIndicate
 140               	.global	applyKeyDownForFullLED
 141               		.type	applyKeyDownForFullLED, @function
 142               	applyKeyDownForFullLED:
 143               	.LFB17:
 144               	.LM29:
 145               	/* prologue: function */
 146               	/* frame size = 0 */
 147               	.LM30:
 148 0074 8091 0000 		lds r24,_fullLEDMode
 149 0078 8330      		cpi r24,lo8(3)
 150 007a 01F4      		brne .L24
 151               	.LM31:
 152 007c 8FEF      		ldi r24,lo8(511)
 153 007e 91E0      		ldi r25,hi8(511)
 154 0080 9093 0000 		sts (downLevelStay)+1,r25
 155 0084 8093 0000 		sts downLevelStay,r24
 156               	.LM32:
 157 0088 8091 0000 		lds r24,downLevel
 158 008c 8C30      		cpi r24,lo8(12)
 159 008e 00F4      		brsh .L26
 160               	.LM33:
 161 0090 8F5F      		subi r24,lo8(-(1))
 162 0092 8093 0000 		sts downLevel,r24
 163               	.LM34:
 164 0096 9FEF      		ldi r25,lo8(-1)
 165 0098 899F      		mul r24,r25
 166 009a C001      		movw r24,r0
 167 009c 1124      		clr r1
 168 009e 6CE0      		ldi r22,lo8(12)
 169 00a0 70E0      		ldi r23,hi8(12)
 170 00a2 0E94 0000 		call __divmodhi4
 171 00a6 6093 0000 		sts downLevelLife,r22
GAS LISTING C:\Users\ADMINI~1\AppData\Local\Temp/cce2Fewp.s 			page 4


 172 00aa 0895      		ret
 173               	.L24:
 174               	.LM35:
 175 00ac 8430      		cpi r24,lo8(4)
 176 00ae 01F4      		brne .L26
 177               	.LM36:
 178 00b0 8FEF      		ldi r24,lo8(511)
 179 00b2 91E0      		ldi r25,hi8(511)
 180 00b4 9093 0000 		sts (downLevelStay)+1,r25
 181 00b8 8093 0000 		sts downLevelStay,r24
 182               	.LM37:
 183 00bc 8091 0000 		lds r24,downLevel
 184 00c0 8823      		tst r24
 185 00c2 01F0      		breq .L26
 186               	.LM38:
 187 00c4 8150      		subi r24,lo8(-(-1))
 188 00c6 8093 0000 		sts downLevel,r24
 189               	.LM39:
 190 00ca 9FEF      		ldi r25,lo8(-1)
 191 00cc 899F      		mul r24,r25
 192 00ce C001      		movw r24,r0
 193 00d0 1124      		clr r1
 194 00d2 6CE0      		ldi r22,lo8(12)
 195 00d4 70E0      		ldi r23,hi8(12)
 196 00d6 0E94 0000 		call __divmodhi4
 197 00da 6093 0000 		sts downLevelLife,r22
 198               	.L26:
 199 00de 0895      		ret
 200               	.LFE17:
 201               		.size	applyKeyDownForFullLED, .-applyKeyDownForFullLED
 202               		.type	getBrightness, @function
 203               	getBrightness:
 204               	.LFB19:
 205               	.LM40:
 206               	.LVL1:
 207               	/* prologue: function */
 208               	/* frame size = 0 */
 209               	.LM41:
 210 00e0 2091 0000 		lds r18,_ledBrightnessMax
 211 00e4 30E0      		ldi r19,lo8(0)
 212 00e6 AC01      		movw r20,r24
 213 00e8 429F      		mul r20,r18
 214 00ea C001      		movw r24,r0
 215 00ec 439F      		mul r20,r19
 216 00ee 900D      		add r25,r0
 217 00f0 529F      		mul r21,r18
 218 00f2 900D      		add r25,r0
 219 00f4 1124      		clr r1
 220               	.LVL2:
 221 00f6 6FEF      		ldi r22,lo8(255)
 222 00f8 70E0      		ldi r23,hi8(255)
 223 00fa 0E94 0000 		call __divmodhi4
 224 00fe CB01      		movw r24,r22
 225               	/* epilogue start */
 226               	.LM42:
 227 0100 0895      		ret
 228               	.LFE19:
GAS LISTING C:\Users\ADMINI~1\AppData\Local\Temp/cce2Fewp.s 			page 5


 229               		.size	getBrightness, .-getBrightness
 230               	.global	sleepLED
 231               		.type	sleepLED, @function
 232               	sleepLED:
 233               	.LFB23:
 234               	.LM43:
 235               	/* prologue: function */
 236               	/* frame size = 0 */
 237               	.LM44:
 238 0102 9098      		cbi 50-32,0
 239               	.LM45:
 240 0104 9198      		cbi 50-32,1
 241               	.LM46:
 242 0106 9698      		cbi 50-32,6
 243               	.LM47:
 244 0108 8091 0000 		lds r24,_fullLEDMode
 245 010c 8230      		cpi r24,lo8(2)
 246 010e 01F0      		breq .L30
 247 0110 8430      		cpi r24,lo8(4)
 248 0112 01F4      		brne .L31
 249               	.L30:
 250               	.LM48:
 251 0114 1092 0000 		sts (pwmCounter)+1,__zero_reg__
 252 0118 1092 0000 		sts pwmCounter,__zero_reg__
 253 011c 00C0      		rjmp .L34
 254               	.L31:
 255               	.LM49:
 256 011e 8823      		tst r24
 257 0120 01F0      		breq .L33
 258 0122 8330      		cpi r24,lo8(3)
 259 0124 01F4      		brne .L34
 260               	.L33:
 261               	.LM50:
 262 0126 81E0      		ldi r24,lo8(1)
 263 0128 8093 0000 		sts _isDidSleep,r24
 264 012c 0895      		ret
 265               	.L34:
 266               	.LM51:
 267 012e 1092 0000 		sts _isDidSleep,__zero_reg__
 268 0132 0895      		ret
 269               	.LFE23:
 270               		.size	sleepLED, .-sleepLED
 271               	.global	doSleep
 272               		.type	doSleep, @function
 273               	doSleep:
 274               	.LFB25:
 275               	.LM52:
 276               	/* prologue: function */
 277               	/* frame size = 0 */
 278               	.LM53:
 279 0134 8091 0000 		lds r24,_isDidSleep
 280 0138 8130      		cpi r24,lo8(1)
 281 013a 01F0      		breq .L39
 282               	.LM54:
 283 013c 8091 0000 		lds r24,pwmCounter
 284 0140 9091 0000 		lds r25,(pwmCounter)+1
 285 0144 68E0      		ldi r22,lo8(8)
GAS LISTING C:\Users\ADMINI~1\AppData\Local\Temp/cce2Fewp.s 			page 6


 286 0146 70E0      		ldi r23,hi8(8)
 287 0148 0E94 0000 		call __divmodhi4
 288 014c CB01      		movw r24,r22
 289 014e 9095      		com r25
 290 0150 8195      		neg r24
 291 0152 9F4F      		sbci r25,lo8(-1)
 292 0154 8150      		subi r24,lo8(-(255))
 293 0156 9F4F      		sbci r25,hi8(-(255))
 294 0158 0E94 0000 		call getBrightness
 295 015c 0E94 0000 		call timer1PWMBSet
 296               	.LM55:
 297 0160 8091 0000 		lds r24,pwmCounter
 298 0164 9091 0000 		lds r25,(pwmCounter)+1
 299 0168 885F      		subi r24,lo8(2040)
 300 016a 9740      		sbci r25,hi8(2040)
 301 016c 04F0      		brlt .L38
 302               	.LM56:
 303 016e 80E0      		ldi r24,lo8(0)
 304 0170 90E0      		ldi r25,hi8(0)
 305 0172 0E94 0000 		call timer1PWMBSet
 306               	.LM57:
 307 0176 9498      		cbi 50-32,4
 308               	.LM58:
 309 0178 81E0      		ldi r24,lo8(1)
 310 017a 8093 0000 		sts _isDidSleep,r24
 311               	.L38:
 312               	.LM59:
 313 017e 8091 0000 		lds r24,pwmCounter
 314 0182 9091 0000 		lds r25,(pwmCounter)+1
 315 0186 0196      		adiw r24,1
 316 0188 9093 0000 		sts (pwmCounter)+1,r25
 317 018c 8093 0000 		sts pwmCounter,r24
 318               	.L39:
 319 0190 0895      		ret
 320               	.LFE25:
 321               		.size	doSleep, .-doSleep
 322               	.global	renderLED
 323               		.type	renderLED, @function
 324               	renderLED:
 325               	.LFB26:
 326               	.LM60:
 327               	.LVL3:
 328 0192 1F93      		push r17
 329               	/* prologue: function */
 330               	/* frame size = 0 */
 331 0194 182F      		mov r17,r24
 332               	.LM61:
 333 0196 8091 0000 		lds r24,ledInited
 334               	.LVL4:
 335 019a 8823      		tst r24
 336 019c 01F4      		brne .+2
 337 019e 00C0      		rjmp .L72
 338               	.LM62:
 339 01a0 0E94 0000 		call isSleep
 340 01a4 8823      		tst r24
 341 01a6 01F0      		breq .L42
 342               	.LM63:
GAS LISTING C:\Users\ADMINI~1\AppData\Local\Temp/cce2Fewp.s 			page 7


 343 01a8 0E94 0000 		call doSleep
 344 01ac 00C0      		rjmp .L72
 345               	.L42:
 346               	.LBB28:
 347               	.LBB29:
 348               	.LM64:
 349 01ae 1130      		cpi r17,lo8(1)
 350 01b0 01F4      		brne .L43
 351               	.LM65:
 352 01b2 8091 0000 		lds r24,beyondFNDelayCounter.1945
 353 01b6 9091 0000 		lds r25,(beyondFNDelayCounter.1945)+1
 354 01ba 0196      		adiw r24,1
 355 01bc 9093 0000 		sts (beyondFNDelayCounter.1945)+1,r25
 356 01c0 8093 0000 		sts beyondFNDelayCounter.1945,r24
 357               	.LM66:
 358 01c4 8558      		subi r24,lo8(901)
 359 01c6 9340      		sbci r25,hi8(901)
 360 01c8 04F0      		brlt .L44
 361               	.LM67:
 362 01ca 8091 0000 		lds r24,beyondFNCounter.1944
 363 01ce 9091 0000 		lds r25,(beyondFNCounter.1944)+1
 364 01d2 0196      		adiw r24,1
 365 01d4 9093 0000 		sts (beyondFNCounter.1944)+1,r25
 366 01d8 8093 0000 		sts beyondFNCounter.1944,r24
 367               	.LM68:
 368 01dc 893C      		cpi r24,201
 369 01de 9105      		cpc r25,__zero_reg__
 370 01e0 04F0      		brlt .L44
 371               	.LBE29:
 372               	.LM69:
 373 01e2 8091 0000 		lds r24,LEDstate
 374 01e6 9091 0000 		lds r25,beyondFNLEDState.1946
 375 01ea 80FF      		sbrs r24,0
 376 01ec 00C0      		rjmp .L45
 377               	.LBB30:
 378               	.LM70:
 379 01ee 9130      		cpi r25,lo8(1)
 380 01f0 01F4      		brne .L46
 381               	.LM71:
 382 01f2 9098      		cbi 50-32,0
 383 01f4 00C0      		rjmp .L47
 384               	.L46:
 385               	.LM72:
 386 01f6 909A      		sbi 50-32,0
 387 01f8 00C0      		rjmp .L73
 388               	.L45:
 389               	.LM73:
 390 01fa 9130      		cpi r25,lo8(1)
 391 01fc 01F4      		brne .L48
 392               	.LM74:
 393 01fe 909A      		sbi 50-32,0
 394 0200 00C0      		rjmp .L47
 395               	.L48:
 396               	.LM75:
 397 0202 9098      		cbi 50-32,0
 398               	.L73:
 399               	.LM76:
GAS LISTING C:\Users\ADMINI~1\AppData\Local\Temp/cce2Fewp.s 			page 8


 400 0204 1092 0000 		sts (beyondFNDelayCounter.1945)+1,__zero_reg__
 401 0208 1092 0000 		sts beyondFNDelayCounter.1945,__zero_reg__
 402               	.L47:
 403               	.LM77:
 404 020c 8091 0000 		lds r24,beyondFNLEDState.1946
 405 0210 91E0      		ldi r25,lo8(1)
 406 0212 8927      		eor r24,r25
 407 0214 8093 0000 		sts beyondFNLEDState.1946,r24
 408               	.LM78:
 409 0218 1092 0000 		sts (beyondFNCounter.1944)+1,__zero_reg__
 410 021c 1092 0000 		sts beyondFNCounter.1944,__zero_reg__
 411 0220 00C0      		rjmp .L44
 412               	.L43:
 413               	.LM79:
 414 0222 1092 0000 		sts (beyondFNCounter.1944)+1,__zero_reg__
 415 0226 1092 0000 		sts beyondFNCounter.1944,__zero_reg__
 416               	.LM80:
 417 022a 81E0      		ldi r24,lo8(1)
 418 022c 8093 0000 		sts beyondFNLEDState.1946,r24
 419               	.L44:
 420               	.LBE30:
 421               	.LBE28:
 422               	.LBB31:
 423               	.LBB32:
 424               	.LM81:
 425 0230 2091 0000 		lds r18,scrollLockLED
 426 0234 2223      		tst r18
 427 0236 01F0      		breq .L49
 428               	.LM82:
 429 0238 8091 0000 		lds r24,counter.1971
 430 023c 9091 0000 		lds r25,(counter.1971)+1
 431 0240 0196      		adiw r24,1
 432 0242 9093 0000 		sts (counter.1971)+1,r25
 433 0246 8093 0000 		sts counter.1971,r24
 434               	.LM83:
 435 024a 8536      		cpi r24,101
 436 024c 9105      		cpc r25,__zero_reg__
 437 024e 04F0      		brlt .L50
 438               	.LM84:
 439 0250 2530      		cpi r18,lo8(5)
 440 0252 01F0      		breq .L74
 441 0254 2330      		cpi r18,lo8(3)
 442 0256 01F0      		breq .L74
 443               	.L52:
 444               	.LM85:
 445 0258 2430      		cpi r18,lo8(4)
 446 025a 01F0      		breq .L54
 447 025c 2230      		cpi r18,lo8(2)
 448 025e 01F4      		brne .L55
 449               	.L54:
 450               	.LM86:
 451 0260 9198      		cbi 50-32,1
 452 0262 00C0      		rjmp .L53
 453               	.L55:
 454               	.LM87:
 455 0264 8091 0000 		lds r24,LEDstate
 456 0268 81FD      		sbrc r24,1
GAS LISTING C:\Users\ADMINI~1\AppData\Local\Temp/cce2Fewp.s 			page 9


 457               	.L74:
 458               	.LM88:
 459 026a 919A      		sbi 50-32,1
 460               	.L53:
 461               	.LM89:
 462 026c 1092 0000 		sts (counter.1971)+1,__zero_reg__
 463 0270 1092 0000 		sts counter.1971,__zero_reg__
 464               	.LM90:
 465 0274 2150      		subi r18,lo8(-(-1))
 466 0276 2093 0000 		sts scrollLockLED,r18
 467 027a 00C0      		rjmp .L50
 468               	.L49:
 469               	.LM91:
 470 027c 1092 0000 		sts (counter.1971)+1,__zero_reg__
 471 0280 1092 0000 		sts counter.1971,__zero_reg__
 472               	.L50:
 473               	.LBE32:
 474               	.LBE31:
 475               	.LBB33:
 476               	.LBB34:
 477               	.LM92:
 478 0284 8091 0000 		lds r24,ledStateCount
 479 0288 9091 0000 		lds r25,(ledStateCount)+1
 480 028c 1816      		cp __zero_reg__,r24
 481 028e 1906      		cpc __zero_reg__,r25
 482 0290 04F4      		brge .L56
 483 0292 0196      		adiw r24,1
 484 0294 9093 0000 		sts (ledStateCount)+1,r25
 485 0298 8093 0000 		sts ledStateCount,r24
 486 029c 885E      		subi r24,lo8(1000)
 487 029e 9340      		sbci r25,hi8(1000)
 488 02a0 01F4      		brne .L56
 489               	.LM93:
 490 02a2 1092 0000 		sts (ledStateCount)+1,__zero_reg__
 491 02a6 1092 0000 		sts ledStateCount,__zero_reg__
 492               	.LM94:
 493 02aa 6091 0000 		lds r22,_fullLEDMode
 494 02ae 8091 0000 		lds r24,_fullLEDMode_saved
 495 02b2 6817      		cp r22,r24
 496 02b4 01F0      		breq .L57
 497               	.LM95:
 498 02b6 6093 0000 		sts _fullLEDMode_saved,r22
 499               	.LM96:
 500 02ba 8BE0      		ldi r24,lo8(11)
 501 02bc 90E0      		ldi r25,hi8(11)
 502 02be 0E94 0000 		call __eewr_byte_m32
 503               	.L57:
 504               	.LM97:
 505 02c2 6091 0000 		lds r22,_ledBrightnessMax
 506 02c6 8091 0000 		lds r24,_ledBrightnessMax_saved
 507 02ca 8617      		cp r24,r22
 508 02cc 01F0      		breq .L56
 509               	.LM98:
 510 02ce 6093 0000 		sts _ledBrightnessMax_saved,r22
 511               	.LM99:
 512 02d2 89E0      		ldi r24,lo8(9)
 513 02d4 90E0      		ldi r25,hi8(9)
GAS LISTING C:\Users\ADMINI~1\AppData\Local\Temp/cce2Fewp.s 			page 10


 514 02d6 0E94 0000 		call __eewr_byte_m32
 515               	.L56:
 516               	.LBE34:
 517               	.LBE33:
 518               	.LBB35:
 519               	.LBB36:
 520               	.LM100:
 521 02da 8091 0000 		lds r24,_fullLEDMode
 522 02de 8130      		cpi r24,lo8(1)
 523 02e0 01F0      		breq .+2
 524 02e2 00C0      		rjmp .L58
 525               	.LM101:
 526 02e4 8091 0000 		lds r24,pwmDir
 527 02e8 9091 0000 		lds r25,(pwmDir)+1
 528 02ec 0097      		sbiw r24,0
 529 02ee 01F4      		brne .L59
 530               	.LBE36:
 531               	.LM102:
 532 02f0 8091 0000 		lds r24,pwmCounter
 533 02f4 9091 0000 		lds r25,(pwmCounter)+1
 534 02f8 68E0      		ldi r22,lo8(8)
 535 02fa 70E0      		ldi r23,hi8(8)
 536 02fc 0E94 0000 		call __divmodhi4
 537 0300 CB01      		movw r24,r22
 538 0302 0E94 0000 		call getBrightness
 539 0306 00C0      		rjmp .L75
 540               	.L59:
 541               	.LBB37:
 542               	.LM103:
 543 0308 8230      		cpi r24,2
 544 030a 9105      		cpc r25,__zero_reg__
 545 030c 01F4      		brne .L61
 546               	.LBE37:
 547               	.LM104:
 548 030e 8091 0000 		lds r24,pwmCounter
 549 0312 9091 0000 		lds r25,(pwmCounter)+1
 550 0316 68E0      		ldi r22,lo8(8)
 551 0318 70E0      		ldi r23,hi8(8)
 552 031a 0E94 0000 		call __divmodhi4
 553 031e CB01      		movw r24,r22
 554 0320 9095      		com r25
 555 0322 8195      		neg r24
 556 0324 9F4F      		sbci r25,lo8(-1)
 557 0326 8150      		subi r24,lo8(-(255))
 558 0328 9F4F      		sbci r25,hi8(-(255))
 559 032a 0E94 0000 		call getBrightness
 560               	.L75:
 561               	.LBB38:
 562 032e 0E94 0000 		call timer1PWMBSet
 563 0332 00C0      		rjmp .L60
 564               	.L61:
 565               	.LM105:
 566 0334 8130      		cpi r24,1
 567 0336 9105      		cpc r25,__zero_reg__
 568 0338 01F0      		breq .L62
 569 033a 0397      		sbiw r24,3
 570 033c 01F4      		brne .L60
GAS LISTING C:\Users\ADMINI~1\AppData\Local\Temp/cce2Fewp.s 			page 11


 571               	.L62:
 572               	.LM106:
 573 033e 8091 0000 		lds r24,pwmCounter
 574 0342 9091 0000 		lds r25,(pwmCounter)+1
 575 0346 0196      		adiw r24,1
 576 0348 9093 0000 		sts (pwmCounter)+1,r25
 577 034c 8093 0000 		sts pwmCounter,r24
 578               	.L60:
 579               	.LM107:
 580 0350 8091 0000 		lds r24,pwmCounter
 581 0354 9091 0000 		lds r25,(pwmCounter)+1
 582 0358 885F      		subi r24,lo8(2040)
 583 035a 9740      		sbci r25,hi8(2040)
 584 035c 04F0      		brlt .L63
 585               	.LM108:
 586 035e 1092 0000 		sts (pwmCounter)+1,__zero_reg__
 587 0362 1092 0000 		sts pwmCounter,__zero_reg__
 588               	.LM109:
 589 0366 8091 0000 		lds r24,pwmDir
 590 036a 9091 0000 		lds r25,(pwmDir)+1
 591 036e 0196      		adiw r24,1
 592 0370 64E0      		ldi r22,lo8(4)
 593 0372 70E0      		ldi r23,hi8(4)
 594 0374 0E94 0000 		call __divmodhi4
 595 0378 9093 0000 		sts (pwmDir)+1,r25
 596 037c 8093 0000 		sts pwmDir,r24
 597               	.L63:
 598               	.LM110:
 599 0380 8091 0000 		lds r24,pwmCounter
 600 0384 9091 0000 		lds r25,(pwmCounter)+1
 601 0388 0196      		adiw r24,1
 602 038a 9093 0000 		sts (pwmCounter)+1,r25
 603 038e 8093 0000 		sts pwmCounter,r24
 604 0392 00C0      		rjmp .L72
 605               	.L58:
 606               	.LM111:
 607 0394 8330      		cpi r24,lo8(3)
 608 0396 01F4      		brne .L64
 609               	.LM112:
 610 0398 8091 0000 		lds r24,downLevelStay
 611 039c 9091 0000 		lds r25,(downLevelStay)+1
 612 03a0 0097      		sbiw r24,0
 613 03a2 01F0      		breq .L65
 614               	.LM113:
 615 03a4 0197      		sbiw r24,1
 616 03a6 9093 0000 		sts (downLevelStay)+1,r25
 617 03aa 8093 0000 		sts downLevelStay,r24
 618 03ae 00C0      		rjmp .L66
 619               	.L65:
 620               	.LM114:
 621 03b0 2091 0000 		lds r18,downLevelLife
 622 03b4 2223      		tst r18
 623 03b6 01F0      		breq .L67
 624               	.LM115:
 625 03b8 8091 0000 		lds r24,pwmCounter
 626 03bc 9091 0000 		lds r25,(pwmCounter)+1
 627 03c0 0196      		adiw r24,1
GAS LISTING C:\Users\ADMINI~1\AppData\Local\Temp/cce2Fewp.s 			page 12


 628 03c2 9093 0000 		sts (pwmCounter)+1,r25
 629 03c6 8093 0000 		sts pwmCounter,r24
 630               	.LM116:
 631 03ca 0897      		sbiw r24,8
 632 03cc 04F0      		brlt .L66
 633               	.LM117:
 634 03ce 1092 0000 		sts (pwmCounter)+1,__zero_reg__
 635 03d2 1092 0000 		sts pwmCounter,__zero_reg__
 636               	.LM118:
 637 03d6 2150      		subi r18,lo8(-(-1))
 638 03d8 2093 0000 		sts downLevelLife,r18
 639               	.LM119:
 640 03dc 8FEF      		ldi r24,lo8(255)
 641 03de 90E0      		ldi r25,hi8(255)
 642 03e0 821B      		sub r24,r18
 643 03e2 9109      		sbc r25,__zero_reg__
 644 03e4 6BEE      		ldi r22,lo8(-21)
 645 03e6 7FEF      		ldi r23,hi8(-21)
 646 03e8 0E94 0000 		call __divmodhi4
 647 03ec 645F      		subi r22,lo8(-(12))
 648 03ee 6093 0000 		sts downLevel,r22
 649 03f2 00C0      		rjmp .L66
 650               	.L67:
 651               	.LM120:
 652 03f4 1092 0000 		sts downLevel,__zero_reg__
 653               	.LM121:
 654 03f8 1092 0000 		sts (pwmCounter)+1,__zero_reg__
 655 03fc 1092 0000 		sts pwmCounter,__zero_reg__
 656               	.L66:
 657               	.LBE38:
 658               	.LM122:
 659 0400 8091 0000 		lds r24,downLevelLife
 660 0404 90E0      		ldi r25,lo8(0)
 661 0406 0E94 0000 		call getBrightness
 662 040a 00C0      		rjmp .L76
 663               	.L64:
 664               	.LBB39:
 665               	.LM123:
 666 040c 8430      		cpi r24,lo8(4)
 667 040e 01F4      		brne .L68
 668               	.LM124:
 669 0410 8091 0000 		lds r24,downLevelStay
 670 0414 9091 0000 		lds r25,(downLevelStay)+1
 671 0418 0097      		sbiw r24,0
 672 041a 01F0      		breq .L69
 673               	.LM125:
 674 041c 0197      		sbiw r24,1
 675 041e 9093 0000 		sts (downLevelStay)+1,r25
 676 0422 8093 0000 		sts downLevelStay,r24
 677 0426 00C0      		rjmp .L70
 678               	.L69:
 679               	.LM126:
 680 0428 2091 0000 		lds r18,downLevelLife
 681 042c 2F3F      		cpi r18,lo8(-1)
 682 042e 01F0      		breq .L71
 683               	.LM127:
 684 0430 8091 0000 		lds r24,pwmCounter
GAS LISTING C:\Users\ADMINI~1\AppData\Local\Temp/cce2Fewp.s 			page 13


 685 0434 9091 0000 		lds r25,(pwmCounter)+1
 686 0438 0196      		adiw r24,1
 687 043a 9093 0000 		sts (pwmCounter)+1,r25
 688 043e 8093 0000 		sts pwmCounter,r24
 689               	.LM128:
 690 0442 0897      		sbiw r24,8
 691 0444 04F0      		brlt .L70
 692               	.LM129:
 693 0446 1092 0000 		sts (pwmCounter)+1,__zero_reg__
 694 044a 1092 0000 		sts pwmCounter,__zero_reg__
 695               	.LM130:
 696 044e 2F5F      		subi r18,lo8(-(1))
 697 0450 2093 0000 		sts downLevelLife,r18
 698               	.LM131:
 699 0454 8FEF      		ldi r24,lo8(255)
 700 0456 90E0      		ldi r25,hi8(255)
 701 0458 821B      		sub r24,r18
 702 045a 9109      		sbc r25,__zero_reg__
 703 045c 6BEE      		ldi r22,lo8(-21)
 704 045e 7FEF      		ldi r23,hi8(-21)
 705 0460 0E94 0000 		call __divmodhi4
 706 0464 645F      		subi r22,lo8(-(12))
 707 0466 6093 0000 		sts downLevel,r22
 708 046a 00C0      		rjmp .L70
 709               	.L71:
 710               	.LM132:
 711 046c 8CE0      		ldi r24,lo8(12)
 712 046e 8093 0000 		sts downLevel,r24
 713               	.LM133:
 714 0472 1092 0000 		sts (pwmCounter)+1,__zero_reg__
 715 0476 1092 0000 		sts pwmCounter,__zero_reg__
 716               	.L70:
 717               	.LBE39:
 718               	.LM134:
 719 047a 8091 0000 		lds r24,downLevelLife
 720 047e 90E0      		ldi r25,lo8(0)
 721 0480 0E94 0000 		call getBrightness
 722               	.L76:
 723               	.LBB40:
 724 0484 0E94 0000 		call timer1PWMBSet
 725 0488 00C0      		rjmp .L72
 726               	.L68:
 727               	.LM135:
 728 048a 1092 0000 		sts (pwmCounter)+1,__zero_reg__
 729 048e 1092 0000 		sts pwmCounter,__zero_reg__
 730               	.LM136:
 731 0492 83E0      		ldi r24,lo8(3)
 732 0494 90E0      		ldi r25,hi8(3)
 733 0496 9093 0000 		sts (pwmDir)+1,r25
 734 049a 8093 0000 		sts pwmDir,r24
 735               	.L72:
 736               	/* epilogue start */
 737               	.LBE40:
 738               	.LBE35:
 739               	.LM137:
 740 049e 1F91      		pop r17
 741               	.LVL5:
GAS LISTING C:\Users\ADMINI~1\AppData\Local\Temp/cce2Fewp.s 			page 14


 742 04a0 0895      		ret
 743               	.LFE26:
 744               		.size	renderLED, .-renderLED
 745               		.type	setFullLEDState, @function
 746               	setFullLEDState:
 747               	.LFB10:
 748               	.LM138:
 749               	/* prologue: function */
 750               	/* frame size = 0 */
 751               	.LM139:
 752 04a2 9091 0000 		lds r25,_fullLEDMode
 753 04a6 9923      		tst r25
 754 04a8 01F4      		brne .L78
 755               	.LM140:
 756 04aa 80E0      		ldi r24,lo8(0)
 757 04ac 90E0      		ldi r25,hi8(0)
 758 04ae 00C0      		rjmp .L84
 759               	.L78:
 760               	.LM141:
 761 04b0 9130      		cpi r25,lo8(1)
 762 04b2 01F4      		brne .L80
 763               	.LM142:
 764 04b4 1092 0000 		sts (pwmCounter)+1,__zero_reg__
 765 04b8 1092 0000 		sts pwmCounter,__zero_reg__
 766               	.LM143:
 767 04bc 1092 0000 		sts (pwmDir)+1,__zero_reg__
 768 04c0 1092 0000 		sts pwmDir,__zero_reg__
 769 04c4 0895      		ret
 770               	.L80:
 771               	.LM144:
 772 04c6 9230      		cpi r25,lo8(2)
 773 04c8 01F4      		brne .L81
 774               	.LM145:
 775 04ca 8091 0000 		lds r24,_ledBrightnessMax
 776 04ce 90E0      		ldi r25,lo8(0)
 777               	.L84:
 778 04d0 0E94 0000 		call timer1PWMBSet
 779 04d4 0895      		ret
 780               	.L81:
 781               	.LM146:
 782 04d6 892F      		mov r24,r25
 783 04d8 8350      		subi r24,lo8(-(-3))
 784 04da 8230      		cpi r24,lo8(2)
 785 04dc 00F4      		brsh .L83
 786               	.LM147:
 787 04de 83E0      		ldi r24,lo8(3)
 788 04e0 8093 0000 		sts downLevel,r24
 789               	.LM148:
 790 04e4 9430      		cpi r25,lo8(4)
 791 04e6 01F4      		brne .L82
 792 04e8 81E0      		ldi r24,lo8(1)
 793 04ea 8093 0000 		sts downLevel,r24
 794               	.L82:
 795               	.LM149:
 796 04ee 8091 0000 		lds r24,downLevel
 797 04f2 9FEF      		ldi r25,lo8(-1)
 798 04f4 899F      		mul r24,r25
GAS LISTING C:\Users\ADMINI~1\AppData\Local\Temp/cce2Fewp.s 			page 15


 799 04f6 C001      		movw r24,r0
 800 04f8 1124      		clr r1
 801 04fa 6CE0      		ldi r22,lo8(12)
 802 04fc 70E0      		ldi r23,hi8(12)
 803 04fe 0E94 0000 		call __divmodhi4
 804 0502 6093 0000 		sts downLevelLife,r22
 805               	.L83:
 806 0506 0895      		ret
 807               	.LFE10:
 808               		.size	setFullLEDState, .-setFullLEDState
 809               	.global	wakeUpLED
 810               		.type	wakeUpLED, @function
 811               	wakeUpLED:
 812               	.LFB24:
 813               	.LM150:
 814               	/* prologue: function */
 815               	/* frame size = 0 */
 816               	.LM151:
 817 0508 0E94 0000 		call setLEDIndicate
 818               	.LM152:
 819 050c 0E94 0000 		call setFullLEDState
 820               	/* epilogue start */
 821               	.LM153:
 822 0510 0895      		ret
 823               	.LFE24:
 824               		.size	wakeUpLED, .-wakeUpLED
 825               	.global	changeFullLedState
 826               		.type	changeFullLedState, @function
 827               	changeFullLedState:
 828               	.LFB13:
 829               	.LM154:
 830               	/* prologue: function */
 831               	/* frame size = 0 */
 832               	.LM155:
 833 0512 8091 0000 		lds r24,_fullLEDMode
 834 0516 90E0      		ldi r25,lo8(0)
 835 0518 0196      		adiw r24,1
 836 051a 65E0      		ldi r22,lo8(5)
 837 051c 70E0      		ldi r23,hi8(5)
 838 051e 0E94 0000 		call __divmodhi4
 839 0522 8093 0000 		sts _fullLEDMode,r24
 840               	.LM156:
 841 0526 81E0      		ldi r24,lo8(1)
 842 0528 90E0      		ldi r25,hi8(1)
 843 052a 9093 0000 		sts (ledStateCount)+1,r25
 844 052e 8093 0000 		sts ledStateCount,r24
 845               	.LM157:
 846 0532 0E94 0000 		call setFullLEDState
 847               	/* epilogue start */
 848               	.LM158:
 849 0536 0895      		ret
 850               	.LFE13:
 851               		.size	changeFullLedState, .-changeFullLedState
 852               	.global	reduceLedBrightness
 853               		.type	reduceLedBrightness, @function
 854               	reduceLedBrightness:
 855               	.LFB12:
GAS LISTING C:\Users\ADMINI~1\AppData\Local\Temp/cce2Fewp.s 			page 16


 856               	.LM159:
 857               	/* prologue: function */
 858               	/* frame size = 0 */
 859               	.LM160:
 860 0538 8091 0000 		lds r24,_ledBrightnessMax
 861 053c 8E31      		cpi r24,lo8(30)
 862 053e 01F0      		breq .L93
 863               	.LM161:
 864 0540 8951      		subi r24,lo8(-(-25))
 865 0542 8093 0000 		sts _ledBrightnessMax,r24
 866               	.LM162:
 867 0546 8E31      		cpi r24,lo8(30)
 868 0548 00F4      		brsh .L91
 869               	.LM163:
 870 054a 8EE1      		ldi r24,lo8(30)
 871 054c 8093 0000 		sts _ledBrightnessMax,r24
 872               	.L91:
 873               	.LM164:
 874 0550 8091 0000 		lds r24,_fullLEDMode
 875 0554 8230      		cpi r24,lo8(2)
 876 0556 01F4      		brne .L92
 877               	.LM165:
 878 0558 0E94 0000 		call setFullLEDState
 879               	.L92:
 880               	.LM166:
 881 055c 81E0      		ldi r24,lo8(1)
 882 055e 90E0      		ldi r25,hi8(1)
 883 0560 9093 0000 		sts (ledStateCount)+1,r25
 884 0564 8093 0000 		sts ledStateCount,r24
 885               	.L93:
 886 0568 0895      		ret
 887               	.LFE12:
 888               		.size	reduceLedBrightness, .-reduceLedBrightness
 889               	.global	increaseLedBrightness
 890               		.type	increaseLedBrightness, @function
 891               	increaseLedBrightness:
 892               	.LFB11:
 893               	.LM167:
 894               	/* prologue: function */
 895               	/* frame size = 0 */
 896               	.LM168:
 897 056a 8091 0000 		lds r24,_ledBrightnessMax
 898 056e 8F3F      		cpi r24,lo8(-1)
 899 0570 01F0      		breq .L99
 900               	.LM169:
 901 0572 90E0      		ldi r25,lo8(0)
 902               	.LVL6:
 903 0574 4996      		adiw r24,25
 904               	.LVL7:
 905               	.LM170:
 906 0576 8F3F      		cpi r24,255
 907 0578 9105      		cpc r25,__zero_reg__
 908 057a 01F0      		breq .L96
 909 057c 04F0      		brlt .L96
 910               	.LM171:
 911 057e 8FEF      		ldi r24,lo8(-1)
 912               	.LVL8:
GAS LISTING C:\Users\ADMINI~1\AppData\Local\Temp/cce2Fewp.s 			page 17


 913               	.L96:
 914               	.LM172:
 915 0580 8093 0000 		sts _ledBrightnessMax,r24
 916               	.LM173:
 917 0584 8091 0000 		lds r24,_fullLEDMode
 918               	.LVL9:
 919 0588 8230      		cpi r24,lo8(2)
 920 058a 01F4      		brne .L98
 921               	.LM174:
 922 058c 0E94 0000 		call setFullLEDState
 923               	.LVL10:
 924               	.L98:
 925               	.LM175:
 926 0590 81E0      		ldi r24,lo8(1)
 927 0592 90E0      		ldi r25,hi8(1)
 928 0594 9093 0000 		sts (ledStateCount)+1,r25
 929 0598 8093 0000 		sts ledStateCount,r24
 930               	.L99:
 931 059c 0895      		ret
 932               	.LFE11:
 933               		.size	increaseLedBrightness, .-increaseLedBrightness
 934               	.global	initFullLEDState
 935               		.type	initFullLEDState, @function
 936               	initFullLEDState:
 937               	.LFB15:
 938               	.LM176:
 939               	/* prologue: function */
 940               	/* frame size = 0 */
 941               	.LM177:
 942 059e 8091 0000 		lds r24,ledInited
 943 05a2 8823      		tst r24
 944 05a4 01F4      		brne .L103
 945               	.LM178:
 946 05a6 81E0      		ldi r24,lo8(1)
 947 05a8 8093 0000 		sts ledInited,r24
 948               	.LM179:
 949 05ac 0E94 0000 		call timer1Init
 950               	.LM180:
 951 05b0 88E0      		ldi r24,lo8(8)
 952 05b2 0E94 0000 		call timer1PWMInit
 953               	.LM181:
 954 05b6 0E94 0000 		call timer1PWMBOn
 955               	.LM182:
 956 05ba 89E0      		ldi r24,lo8(9)
 957 05bc 90E0      		ldi r25,hi8(9)
 958 05be 0E94 0000 		call __eerd_byte_m32
 959 05c2 8093 0000 		sts _ledBrightnessMax,r24
 960               	.LM183:
 961 05c6 8093 0000 		sts _ledBrightnessMax_saved,r24
 962               	.LM184:
 963 05ca 8BE0      		ldi r24,lo8(11)
 964 05cc 90E0      		ldi r25,hi8(11)
 965 05ce 0E94 0000 		call __eerd_byte_m32
 966 05d2 8093 0000 		sts _fullLEDMode,r24
 967               	.LM185:
 968 05d6 8F3F      		cpi r24,lo8(-1)
 969 05d8 01F4      		brne .L102
GAS LISTING C:\Users\ADMINI~1\AppData\Local\Temp/cce2Fewp.s 			page 18


 970               	.LM186:
 971 05da 1092 0000 		sts _fullLEDMode,__zero_reg__
 972               	.L102:
 973               	.LM187:
 974 05de 8091 0000 		lds r24,_fullLEDMode
 975 05e2 8093 0000 		sts _fullLEDMode_saved,r24
 976               	.LM188:
 977 05e6 0E94 0000 		call setFullLEDState
 978               	.L103:
 979 05ea 0895      		ret
 980               	.LFE15:
 981               		.size	initFullLEDState, .-initFullLEDState
 982               		.lcomm ledInited,1
 983               		.data
 984               		.type	beyondFNLEDState.1946, @object
 985               		.size	beyondFNLEDState.1946, 1
 986               	beyondFNLEDState.1946:
 987 0000 01        		.byte	1
 988               		.lcomm beyondFNDelayCounter.1945,2
 989               		.lcomm beyondFNCounter.1944,2
 990               		.lcomm scrollLockLED,1
 991               		.lcomm counter.1971,2
 992               		.lcomm ledStateCount,2
 993               		.lcomm _fullLEDMode,1
 994               		.lcomm _fullLEDMode_saved,1
 995               		.lcomm _ledBrightnessMax_saved,1
 996               		.type	_ledBrightnessMax, @object
 997               		.size	_ledBrightnessMax, 1
 998               	_ledBrightnessMax:
 999 0001 FF        		.byte	-1
 1000               		.lcomm pwmDir,2
 1001               		.lcomm pwmCounter,2
 1002               		.lcomm downLevelStay,2
 1003               		.lcomm downLevelLife,1
 1004               		.lcomm downLevel,1
 1005               		.lcomm _isDidSleep,1
 1006               		.lcomm LEDstate,1
 1007               		.lcomm prevSCRLED.1857,1
 1008               		.section	.debug_frame,"",@progbits
 1009               	.Lframe0:
 1010 0000 0C00 0000 		.long	.LECIE0-.LSCIE0
 1011               	.LSCIE0:
 1012 0004 FFFF FFFF 		.long	0xffffffff
 1013 0008 01        		.byte	0x1
 1014 0009 00        		.string	""
 1015 000a 01        		.uleb128 0x1
 1016 000b 7F        		.sleb128 -1
 1017 000c 24        		.byte	0x24
 1018 000d 0C        		.byte	0xc
 1019 000e 20        		.uleb128 0x20
 1020 000f 00        		.uleb128 0x0
 1021               		.p2align	2
 1022               	.LECIE0:
 1023               	.LSFDE0:
 1024 0010 0C00 0000 		.long	.LEFDE0-.LASFDE0
 1025               	.LASFDE0:
 1026 0014 0000 0000 		.long	.Lframe0
GAS LISTING C:\Users\ADMINI~1\AppData\Local\Temp/cce2Fewp.s 			page 19


 1027 0018 0000 0000 		.long	.LFB8
 1028 001c 0600 0000 		.long	.LFE8-.LFB8
 1029               		.p2align	2
 1030               	.LEFDE0:
 1031               	.LSFDE2:
 1032 0020 0C00 0000 		.long	.LEFDE2-.LASFDE2
 1033               	.LASFDE2:
 1034 0024 0000 0000 		.long	.Lframe0
 1035 0028 0000 0000 		.long	.LFB9
 1036 002c 0600 0000 		.long	.LFE9-.LFB9
 1037               		.p2align	2
 1038               	.LEFDE2:
 1039               	.LSFDE4:
 1040 0030 0C00 0000 		.long	.LEFDE4-.LASFDE4
 1041               	.LASFDE4:
 1042 0034 0000 0000 		.long	.Lframe0
 1043 0038 0000 0000 		.long	.LFB14
 1044 003c 0600 0000 		.long	.LFE14-.LFB14
 1045               		.p2align	2
 1046               	.LEFDE4:
 1047               	.LSFDE6:
 1048 0040 0C00 0000 		.long	.LEFDE6-.LASFDE6
 1049               	.LASFDE6:
 1050 0044 0000 0000 		.long	.Lframe0
 1051 0048 0000 0000 		.long	.LFB16
 1052 004c 6200 0000 		.long	.LFE16-.LFB16
 1053               		.p2align	2
 1054               	.LEFDE6:
 1055               	.LSFDE8:
 1056 0050 0C00 0000 		.long	.LEFDE8-.LASFDE8
 1057               	.LASFDE8:
 1058 0054 0000 0000 		.long	.Lframe0
 1059 0058 0000 0000 		.long	.LFB17
 1060 005c 6C00 0000 		.long	.LFE17-.LFB17
 1061               		.p2align	2
 1062               	.LEFDE8:
 1063               	.LSFDE10:
 1064 0060 0C00 0000 		.long	.LEFDE10-.LASFDE10
 1065               	.LASFDE10:
 1066 0064 0000 0000 		.long	.Lframe0
 1067 0068 0000 0000 		.long	.LFB19
 1068 006c 2200 0000 		.long	.LFE19-.LFB19
 1069               		.p2align	2
 1070               	.LEFDE10:
 1071               	.LSFDE12:
 1072 0070 0C00 0000 		.long	.LEFDE12-.LASFDE12
 1073               	.LASFDE12:
 1074 0074 0000 0000 		.long	.Lframe0
 1075 0078 0000 0000 		.long	.LFB23
 1076 007c 3200 0000 		.long	.LFE23-.LFB23
 1077               		.p2align	2
 1078               	.LEFDE12:
 1079               	.LSFDE14:
 1080 0080 0C00 0000 		.long	.LEFDE14-.LASFDE14
 1081               	.LASFDE14:
 1082 0084 0000 0000 		.long	.Lframe0
 1083 0088 0000 0000 		.long	.LFB25
GAS LISTING C:\Users\ADMINI~1\AppData\Local\Temp/cce2Fewp.s 			page 20


 1084 008c 5E00 0000 		.long	.LFE25-.LFB25
 1085               		.p2align	2
 1086               	.LEFDE14:
 1087               	.LSFDE16:
 1088 0090 0C00 0000 		.long	.LEFDE16-.LASFDE16
 1089               	.LASFDE16:
 1090 0094 0000 0000 		.long	.Lframe0
 1091 0098 0000 0000 		.long	.LFB26
 1092 009c 1003 0000 		.long	.LFE26-.LFB26
 1093               		.p2align	2
 1094               	.LEFDE16:
 1095               	.LSFDE18:
 1096 00a0 0C00 0000 		.long	.LEFDE18-.LASFDE18
 1097               	.LASFDE18:
 1098 00a4 0000 0000 		.long	.Lframe0
 1099 00a8 0000 0000 		.long	.LFB10
 1100 00ac 6600 0000 		.long	.LFE10-.LFB10
 1101               		.p2align	2
 1102               	.LEFDE18:
 1103               	.LSFDE20:
 1104 00b0 0C00 0000 		.long	.LEFDE20-.LASFDE20
 1105               	.LASFDE20:
 1106 00b4 0000 0000 		.long	.Lframe0
 1107 00b8 0000 0000 		.long	.LFB24
 1108 00bc 0A00 0000 		.long	.LFE24-.LFB24
 1109               		.p2align	2
 1110               	.LEFDE20:
 1111               	.LSFDE22:
 1112 00c0 0C00 0000 		.long	.LEFDE22-.LASFDE22
 1113               	.LASFDE22:
 1114 00c4 0000 0000 		.long	.Lframe0
 1115 00c8 0000 0000 		.long	.LFB13
 1116 00cc 2600 0000 		.long	.LFE13-.LFB13
 1117               		.p2align	2
 1118               	.LEFDE22:
 1119               	.LSFDE24:
 1120 00d0 0C00 0000 		.long	.LEFDE24-.LASFDE24
 1121               	.LASFDE24:
 1122 00d4 0000 0000 		.long	.Lframe0
 1123 00d8 0000 0000 		.long	.LFB12
 1124 00dc 3200 0000 		.long	.LFE12-.LFB12
 1125               		.p2align	2
 1126               	.LEFDE24:
 1127               	.LSFDE26:
 1128 00e0 0C00 0000 		.long	.LEFDE26-.LASFDE26
 1129               	.LASFDE26:
 1130 00e4 0000 0000 		.long	.Lframe0
 1131 00e8 0000 0000 		.long	.LFB11
 1132 00ec 3400 0000 		.long	.LFE11-.LFB11
 1133               		.p2align	2
 1134               	.LEFDE26:
 1135               	.LSFDE28:
 1136 00f0 0C00 0000 		.long	.LEFDE28-.LASFDE28
 1137               	.LASFDE28:
 1138 00f4 0000 0000 		.long	.Lframe0
 1139 00f8 0000 0000 		.long	.LFB15
 1140 00fc 4E00 0000 		.long	.LFE15-.LFB15
GAS LISTING C:\Users\ADMINI~1\AppData\Local\Temp/cce2Fewp.s 			page 21


 1141               		.p2align	2
 1142               	.LEFDE28:
 1143               		.text
 1144               	.Letext0:
 1145               		.section	.debug_loc,"",@progbits
 1146               	.Ldebug_loc0:
 1147               	.LLST6:
 1148 0000 E000 0000 		.long	.LVL1-.Ltext0
 1149 0004 F600 0000 		.long	.LVL2-.Ltext0
 1150 0008 0600      		.word	0x6
 1151 000a 68        		.byte	0x68
 1152 000b 93        		.byte	0x93
 1153 000c 01        		.uleb128 0x1
 1154 000d 69        		.byte	0x69
 1155 000e 93        		.byte	0x93
 1156 000f 01        		.uleb128 0x1
 1157 0010 0000 0000 		.long	0x0
 1158 0014 0000 0000 		.long	0x0
 1159               	.LLST10:
 1160 0018 9201 0000 		.long	.LVL3-.Ltext0
 1161 001c 9A01 0000 		.long	.LVL4-.Ltext0
 1162 0020 0100      		.word	0x1
 1163 0022 68        		.byte	0x68
 1164 0023 9A01 0000 		.long	.LVL4-.Ltext0
 1165 0027 A004 0000 		.long	.LVL5-.Ltext0
 1166 002b 0100      		.word	0x1
 1167 002d 61        		.byte	0x61
 1168 002e 0000 0000 		.long	0x0
 1169 0032 0000 0000 		.long	0x0
 1170               	.LLST16:
 1171 0036 7605 0000 		.long	.LVL7-.Ltext0
 1172 003a 8005 0000 		.long	.LVL8-.Ltext0
 1173 003e 0600      		.word	0x6
 1174 0040 68        		.byte	0x68
 1175 0041 93        		.byte	0x93
 1176 0042 01        		.uleb128 0x1
 1177 0043 69        		.byte	0x69
 1178 0044 93        		.byte	0x93
 1179 0045 01        		.uleb128 0x1
 1180 0046 8005 0000 		.long	.LVL8-.Ltext0
 1181 004a 8805 0000 		.long	.LVL9-.Ltext0
 1182 004e 0600      		.word	0x6
 1183 0050 68        		.byte	0x68
 1184 0051 93        		.byte	0x93
 1185 0052 01        		.uleb128 0x1
 1186 0053 69        		.byte	0x69
 1187 0054 93        		.byte	0x93
 1188 0055 01        		.uleb128 0x1
 1189 0056 0000 0000 		.long	0x0
 1190 005a 0000 0000 		.long	0x0
 1191               		.section	.debug_info
 1192 0000 9B04 0000 		.long	0x49b
 1193 0004 0200      		.word	0x2
 1194 0006 0000 0000 		.long	.Ldebug_abbrev0
 1195 000a 04        		.byte	0x4
 1196 000b 01        		.uleb128 0x1
 1197 000c 0000 0000 		.long	.LASF58
GAS LISTING C:\Users\ADMINI~1\AppData\Local\Temp/cce2Fewp.s 			page 22


 1198 0010 01        		.byte	0x1
 1199 0011 0000 0000 		.long	.LASF59
 1200 0015 0000 0000 		.long	.LASF60
 1201 0019 0000 0000 		.long	.Ltext0
 1202 001d 0000 0000 		.long	.Letext0
 1203 0021 0000 0000 		.long	.Ldebug_line0
 1204 0025 02        		.uleb128 0x2
 1205 0026 01        		.byte	0x1
 1206 0027 08        		.byte	0x8
 1207 0028 0000 0000 		.long	.LASF0
 1208 002c 02        		.uleb128 0x2
 1209 002d 01        		.byte	0x1
 1210 002e 06        		.byte	0x6
 1211 002f 0000 0000 		.long	.LASF1
 1212 0033 02        		.uleb128 0x2
 1213 0034 02        		.byte	0x2
 1214 0035 07        		.byte	0x7
 1215 0036 0000 0000 		.long	.LASF2
 1216 003a 02        		.uleb128 0x2
 1217 003b 02        		.byte	0x2
 1218 003c 05        		.byte	0x5
 1219 003d 0000 0000 		.long	.LASF3
 1220 0041 02        		.uleb128 0x2
 1221 0042 04        		.byte	0x4
 1222 0043 07        		.byte	0x7
 1223 0044 0000 0000 		.long	.LASF4
 1224 0048 02        		.uleb128 0x2
 1225 0049 04        		.byte	0x4
 1226 004a 05        		.byte	0x5
 1227 004b 0000 0000 		.long	.LASF5
 1228 004f 02        		.uleb128 0x2
 1229 0050 08        		.byte	0x8
 1230 0051 07        		.byte	0x7
 1231 0052 0000 0000 		.long	.LASF6
 1232 0056 02        		.uleb128 0x2
 1233 0057 08        		.byte	0x8
 1234 0058 05        		.byte	0x5
 1235 0059 0000 0000 		.long	.LASF7
 1236 005d 02        		.uleb128 0x2
 1237 005e 02        		.byte	0x2
 1238 005f 07        		.byte	0x7
 1239 0060 0000 0000 		.long	.LASF8
 1240 0064 02        		.uleb128 0x2
 1241 0065 01        		.byte	0x1
 1242 0066 06        		.byte	0x6
 1243 0067 0000 0000 		.long	.LASF9
 1244 006b 03        		.uleb128 0x3
 1245 006c 02        		.byte	0x2
 1246 006d 05        		.byte	0x5
 1247 006e 696E 7400 		.string	"int"
 1248 0072 04        		.uleb128 0x4
 1249 0073 0000 0000 		.long	.LASF10
 1250 0077 02        		.byte	0x2
 1251 0078 7A        		.byte	0x7a
 1252 0079 2500 0000 		.long	0x25
 1253 007d 04        		.uleb128 0x4
 1254 007e 0000 0000 		.long	.LASF11
GAS LISTING C:\Users\ADMINI~1\AppData\Local\Temp/cce2Fewp.s 			page 23


 1255 0082 02        		.byte	0x2
 1256 0083 7C        		.byte	0x7c
 1257 0084 5D00 0000 		.long	0x5d
 1258 0088 05        		.uleb128 0x5
 1259 0089 01        		.byte	0x1
 1260 008a 06        		.byte	0x6
 1261 008b 05        		.uleb128 0x5
 1262 008c 01        		.byte	0x1
 1263 008d 08        		.byte	0x8
 1264 008e 06        		.uleb128 0x6
 1265 008f 01        		.byte	0x1
 1266 0090 0000 0000 		.long	.LASF61
 1267 0094 01        		.byte	0x1
 1268 0095 2F        		.byte	0x2f
 1269 0096 01        		.byte	0x1
 1270 0097 7200 0000 		.long	0x72
 1271 009b 01        		.byte	0x1
 1272 009c 07        		.uleb128 0x7
 1273 009d 0000 0000 		.long	.LASF17
 1274 00a1 01        		.byte	0x1
 1275 00a2 3A01      		.word	0x13a
 1276 00a4 01        		.byte	0x1
 1277 00a5 01        		.byte	0x1
 1278 00a6 0601 0000 		.long	0x106
 1279 00aa 08        		.uleb128 0x8
 1280 00ab 0000 0000 		.long	.LASF33
 1281 00af 01        		.byte	0x1
 1282 00b0 3A01      		.word	0x13a
 1283 00b2 7200 0000 		.long	0x72
 1284 00b6 09        		.uleb128 0x9
 1285 00b7 0000 0000 		.long	.LASF12
 1286 00bb 01        		.byte	0x1
 1287 00bc 3F01      		.word	0x13f
 1288 00be 0601 0000 		.long	0x106
 1289 00c2 09        		.uleb128 0x9
 1290 00c3 0000 0000 		.long	.LASF13
 1291 00c7 01        		.byte	0x1
 1292 00c8 4001      		.word	0x140
 1293 00ca 0601 0000 		.long	0x106
 1294 00ce 0A        		.uleb128 0xa
 1295 00cf 0B        		.uleb128 0xb
 1296 00d0 0000 0000 		.long	.LASF14
 1297 00d4 01        		.byte	0x1
 1298 00d5 3C01      		.word	0x13c
 1299 00d7 6B00 0000 		.long	0x6b
 1300 00db 05        		.byte	0x5
 1301 00dc 03        		.byte	0x3
 1302 00dd 0000 0000 		.long	beyondFNCounter.1944
 1303 00e1 0B        		.uleb128 0xb
 1304 00e2 0000 0000 		.long	.LASF15
 1305 00e6 01        		.byte	0x1
 1306 00e7 3D01      		.word	0x13d
 1307 00e9 6B00 0000 		.long	0x6b
 1308 00ed 05        		.byte	0x5
 1309 00ee 03        		.byte	0x3
 1310 00ef 0000 0000 		.long	beyondFNDelayCounter.1945
 1311 00f3 0B        		.uleb128 0xb
GAS LISTING C:\Users\ADMINI~1\AppData\Local\Temp/cce2Fewp.s 			page 24


 1312 00f4 0000 0000 		.long	.LASF16
 1313 00f8 01        		.byte	0x1
 1314 00f9 3E01      		.word	0x13e
 1315 00fb 7200 0000 		.long	0x72
 1316 00ff 05        		.byte	0x5
 1317 0100 03        		.byte	0x3
 1318 0101 0000 0000 		.long	beyondFNLEDState.1946
 1319 0105 00        		.byte	0x0
 1320 0106 0C        		.uleb128 0xc
 1321 0107 6B00 0000 		.long	0x6b
 1322 010b 07        		.uleb128 0x7
 1323 010c 0000 0000 		.long	.LASF18
 1324 0110 01        		.byte	0x1
 1325 0111 6101      		.word	0x161
 1326 0113 01        		.byte	0x1
 1327 0114 01        		.byte	0x1
 1328 0115 3901 0000 		.long	0x139
 1329 0119 09        		.uleb128 0x9
 1330 011a 0000 0000 		.long	.LASF19
 1331 011e 01        		.byte	0x1
 1332 011f 6401      		.word	0x164
 1333 0121 0601 0000 		.long	0x106
 1334 0125 0A        		.uleb128 0xa
 1335 0126 0B        		.uleb128 0xb
 1336 0127 0000 0000 		.long	.LASF20
 1337 012b 01        		.byte	0x1
 1338 012c 6301      		.word	0x163
 1339 012e 6B00 0000 		.long	0x6b
 1340 0132 05        		.byte	0x5
 1341 0133 03        		.byte	0x3
 1342 0134 0000 0000 		.long	counter.1971
 1343 0138 00        		.byte	0x0
 1344 0139 0D        		.uleb128 0xd
 1345 013a 0000 0000 		.long	.LASF21
 1346 013e 01        		.byte	0x1
 1347 013f D3        		.byte	0xd3
 1348 0140 01        		.byte	0x1
 1349 0141 01        		.byte	0x1
 1350 0142 5201 0000 		.long	0x152
 1351 0146 0E        		.uleb128 0xe
 1352 0147 0000 0000 		.long	.LASF19
 1353 014b 01        		.byte	0x1
 1354 014c D5        		.byte	0xd5
 1355 014d 0601 0000 		.long	0x106
 1356 0151 00        		.byte	0x0
 1357 0152 0F        		.uleb128 0xf
 1358 0153 01        		.byte	0x1
 1359 0154 0000 0000 		.long	.LASF22
 1360 0158 01        		.byte	0x1
 1361 0159 2C        		.byte	0x2c
 1362 015a 01        		.byte	0x1
 1363 015b 0000 0000 		.long	.LFB8
 1364 015f 0000 0000 		.long	.LFE8
 1365 0163 02        		.byte	0x2
 1366 0164 90        		.byte	0x90
 1367 0165 20        		.uleb128 0x20
 1368 0166 7801 0000 		.long	0x178
GAS LISTING C:\Users\ADMINI~1\AppData\Local\Temp/cce2Fewp.s 			page 25


 1369 016a 10        		.uleb128 0x10
 1370 016b 0000 0000 		.long	.LASF27
 1371 016f 01        		.byte	0x1
 1372 0170 2C        		.byte	0x2c
 1373 0171 7200 0000 		.long	0x72
 1374 0175 01        		.byte	0x1
 1375 0176 68        		.byte	0x68
 1376 0177 00        		.byte	0x0
 1377 0178 11        		.uleb128 0x11
 1378 0179 8E00 0000 		.long	0x8e
 1379 017d 0000 0000 		.long	.LFB9
 1380 0181 0000 0000 		.long	.LFE9
 1381 0185 02        		.byte	0x2
 1382 0186 90        		.byte	0x90
 1383 0187 20        		.uleb128 0x20
 1384 0188 12        		.uleb128 0x12
 1385 0189 01        		.byte	0x1
 1386 018a 0000 0000 		.long	.LASF25
 1387 018e 01        		.byte	0x1
 1388 018f 6C        		.byte	0x6c
 1389 0190 01        		.byte	0x1
 1390 0191 0000 0000 		.long	.LFB14
 1391 0195 0000 0000 		.long	.LFE14
 1392 0199 02        		.byte	0x2
 1393 019a 90        		.byte	0x90
 1394 019b 20        		.uleb128 0x20
 1395 019c 0F        		.uleb128 0xf
 1396 019d 01        		.byte	0x1
 1397 019e 0000 0000 		.long	.LASF23
 1398 01a2 01        		.byte	0x1
 1399 01a3 91        		.byte	0x91
 1400 01a4 01        		.byte	0x1
 1401 01a5 0000 0000 		.long	.LFB16
 1402 01a9 0000 0000 		.long	.LFE16
 1403 01ad 02        		.byte	0x2
 1404 01ae 90        		.byte	0x90
 1405 01af 20        		.uleb128 0x20
 1406 01b0 C601 0000 		.long	0x1c6
 1407 01b4 13        		.uleb128 0x13
 1408 01b5 0000 0000 		.long	.LASF24
 1409 01b9 01        		.byte	0x1
 1410 01ba A5        		.byte	0xa5
 1411 01bb 7200 0000 		.long	0x72
 1412 01bf 05        		.byte	0x5
 1413 01c0 03        		.byte	0x3
 1414 01c1 0000 0000 		.long	prevSCRLED.1857
 1415 01c5 00        		.byte	0x0
 1416 01c6 12        		.uleb128 0x12
 1417 01c7 01        		.byte	0x1
 1418 01c8 0000 0000 		.long	.LASF26
 1419 01cc 01        		.byte	0x1
 1420 01cd BE        		.byte	0xbe
 1421 01ce 01        		.byte	0x1
 1422 01cf 0000 0000 		.long	.LFB17
 1423 01d3 0000 0000 		.long	.LFE17
 1424 01d7 02        		.byte	0x2
 1425 01d8 90        		.byte	0x90
GAS LISTING C:\Users\ADMINI~1\AppData\Local\Temp/cce2Fewp.s 			page 26


 1426 01d9 20        		.uleb128 0x20
 1427 01da 14        		.uleb128 0x14
 1428 01db 0000 0000 		.long	.LASF62
 1429 01df 01        		.byte	0x1
 1430 01e0 E8        		.byte	0xe8
 1431 01e1 01        		.byte	0x1
 1432 01e2 6B00 0000 		.long	0x6b
 1433 01e6 0000 0000 		.long	.LFB19
 1434 01ea 0000 0000 		.long	.LFE19
 1435 01ee 02        		.byte	0x2
 1436 01ef 90        		.byte	0x90
 1437 01f0 20        		.uleb128 0x20
 1438 01f1 1002 0000 		.long	0x210
 1439 01f5 15        		.uleb128 0x15
 1440 01f6 0000 0000 		.long	.LASF28
 1441 01fa 01        		.byte	0x1
 1442 01fb E8        		.byte	0xe8
 1443 01fc 6B00 0000 		.long	0x6b
 1444 0200 0000 0000 		.long	.LLST6
 1445 0204 0E        		.uleb128 0xe
 1446 0205 0000 0000 		.long	.LASF29
 1447 0209 01        		.byte	0x1
 1448 020a E9        		.byte	0xe9
 1449 020b 6B00 0000 		.long	0x6b
 1450 020f 00        		.byte	0x0
 1451 0210 16        		.uleb128 0x16
 1452 0211 01        		.byte	0x1
 1453 0212 0000 0000 		.long	.LASF30
 1454 0216 01        		.byte	0x1
 1455 0217 7C01      		.word	0x17c
 1456 0219 01        		.byte	0x1
 1457 021a 0000 0000 		.long	.LFB23
 1458 021e 0000 0000 		.long	.LFE23
 1459 0222 02        		.byte	0x2
 1460 0223 90        		.byte	0x90
 1461 0224 20        		.uleb128 0x20
 1462 0225 16        		.uleb128 0x16
 1463 0226 01        		.byte	0x1
 1464 0227 0000 0000 		.long	.LASF31
 1465 022b 01        		.byte	0x1
 1466 022c 9401      		.word	0x194
 1467 022e 01        		.byte	0x1
 1468 022f 0000 0000 		.long	.LFB25
 1469 0233 0000 0000 		.long	.LFE25
 1470 0237 02        		.byte	0x2
 1471 0238 90        		.byte	0x90
 1472 0239 20        		.uleb128 0x20
 1473 023a 17        		.uleb128 0x17
 1474 023b 0000 0000 		.long	.LASF63
 1475 023f 01        		.byte	0x1
 1476 0240 EF        		.byte	0xef
 1477 0241 01        		.byte	0x1
 1478 0242 01        		.byte	0x1
 1479 0243 18        		.uleb128 0x18
 1480 0244 01        		.byte	0x1
 1481 0245 0000 0000 		.long	.LASF32
 1482 0249 01        		.byte	0x1
GAS LISTING C:\Users\ADMINI~1\AppData\Local\Temp/cce2Fewp.s 			page 27


 1483 024a A001      		.word	0x1a0
 1484 024c 01        		.byte	0x1
 1485 024d 0000 0000 		.long	.LFB26
 1486 0251 0000 0000 		.long	.LFE26
 1487 0255 02        		.byte	0x2
 1488 0256 90        		.byte	0x90
 1489 0257 20        		.uleb128 0x20
 1490 0258 EF02 0000 		.long	0x2ef
 1491 025c 19        		.uleb128 0x19
 1492 025d 0000 0000 		.long	.LASF33
 1493 0261 01        		.byte	0x1
 1494 0262 A001      		.word	0x1a0
 1495 0264 7200 0000 		.long	0x72
 1496 0268 0000 0000 		.long	.LLST10
 1497 026c 1A        		.uleb128 0x1a
 1498 026d 9C00 0000 		.long	0x9c
 1499 0271 0000 0000 		.long	.LBB28
 1500 0275 0000 0000 		.long	.LBE28
 1501 0279 01        		.byte	0x1
 1502 027a A801      		.word	0x1a8
 1503 027c 9602 0000 		.long	0x296
 1504 0280 1B        		.uleb128 0x1b
 1505 0281 AA00 0000 		.long	0xaa
 1506 0285 1C        		.uleb128 0x1c
 1507 0286 0000 0000 		.long	.Ldebug_ranges0+0x0
 1508 028a 1D        		.uleb128 0x1d
 1509 028b B600 0000 		.long	0xb6
 1510 028f 1D        		.uleb128 0x1d
 1511 0290 C200 0000 		.long	0xc2
 1512 0294 00        		.byte	0x0
 1513 0295 00        		.byte	0x0
 1514 0296 1A        		.uleb128 0x1a
 1515 0297 0B01 0000 		.long	0x10b
 1516 029b 0000 0000 		.long	.LBB31
 1517 029f 0000 0000 		.long	.LBE31
 1518 02a3 01        		.byte	0x1
 1519 02a4 AB01      		.word	0x1ab
 1520 02a6 BA02 0000 		.long	0x2ba
 1521 02aa 1E        		.uleb128 0x1e
 1522 02ab 0000 0000 		.long	.LBB32
 1523 02af 0000 0000 		.long	.LBE32
 1524 02b3 1D        		.uleb128 0x1d
 1525 02b4 1901 0000 		.long	0x119
 1526 02b8 00        		.byte	0x0
 1527 02b9 00        		.byte	0x0
 1528 02ba 1A        		.uleb128 0x1a
 1529 02bb 3901 0000 		.long	0x139
 1530 02bf 0000 0000 		.long	.LBB33
 1531 02c3 0000 0000 		.long	.LBE33
 1532 02c7 01        		.byte	0x1
 1533 02c8 AE01      		.word	0x1ae
 1534 02ca DE02 0000 		.long	0x2de
 1535 02ce 1E        		.uleb128 0x1e
 1536 02cf 0000 0000 		.long	.LBB34
 1537 02d3 0000 0000 		.long	.LBE34
 1538 02d7 1D        		.uleb128 0x1d
 1539 02d8 4601 0000 		.long	0x146
GAS LISTING C:\Users\ADMINI~1\AppData\Local\Temp/cce2Fewp.s 			page 28


 1540 02dc 00        		.byte	0x0
 1541 02dd 00        		.byte	0x0
 1542 02de 1F        		.uleb128 0x1f
 1543 02df 3A02 0000 		.long	0x23a
 1544 02e3 0000 0000 		.long	.LBB35
 1545 02e7 0000 0000 		.long	.LBE35
 1546 02eb 01        		.byte	0x1
 1547 02ec B101      		.word	0x1b1
 1548 02ee 00        		.byte	0x0
 1549 02ef 20        		.uleb128 0x20
 1550 02f0 0000 0000 		.long	.LASF64
 1551 02f4 01        		.byte	0x1
 1552 02f5 33        		.byte	0x33
 1553 02f6 01        		.byte	0x1
 1554 02f7 0000 0000 		.long	.LFB10
 1555 02fb 0000 0000 		.long	.LFE10
 1556 02ff 02        		.byte	0x2
 1557 0300 90        		.byte	0x90
 1558 0301 20        		.uleb128 0x20
 1559 0302 16        		.uleb128 0x16
 1560 0303 01        		.byte	0x1
 1561 0304 0000 0000 		.long	.LASF34
 1562 0308 01        		.byte	0x1
 1563 0309 8E01      		.word	0x18e
 1564 030b 01        		.byte	0x1
 1565 030c 0000 0000 		.long	.LFB24
 1566 0310 0000 0000 		.long	.LFE24
 1567 0314 02        		.byte	0x2
 1568 0315 90        		.byte	0x90
 1569 0316 20        		.uleb128 0x20
 1570 0317 12        		.uleb128 0x12
 1571 0318 01        		.byte	0x1
 1572 0319 0000 0000 		.long	.LASF35
 1573 031d 01        		.byte	0x1
 1574 031e 64        		.byte	0x64
 1575 031f 01        		.byte	0x1
 1576 0320 0000 0000 		.long	.LFB13
 1577 0324 0000 0000 		.long	.LFE13
 1578 0328 02        		.byte	0x2
 1579 0329 90        		.byte	0x90
 1580 032a 20        		.uleb128 0x20
 1581 032b 12        		.uleb128 0x12
 1582 032c 01        		.byte	0x1
 1583 032d 0000 0000 		.long	.LASF36
 1584 0331 01        		.byte	0x1
 1585 0332 58        		.byte	0x58
 1586 0333 01        		.byte	0x1
 1587 0334 0000 0000 		.long	.LFB12
 1588 0338 0000 0000 		.long	.LFE12
 1589 033c 02        		.byte	0x2
 1590 033d 90        		.byte	0x90
 1591 033e 20        		.uleb128 0x20
 1592 033f 0F        		.uleb128 0xf
 1593 0340 01        		.byte	0x1
 1594 0341 0000 0000 		.long	.LASF37
 1595 0345 01        		.byte	0x1
 1596 0346 4A        		.byte	0x4a
GAS LISTING C:\Users\ADMINI~1\AppData\Local\Temp/cce2Fewp.s 			page 29


 1597 0347 01        		.byte	0x1
 1598 0348 0000 0000 		.long	.LFB11
 1599 034c 0000 0000 		.long	.LFE11
 1600 0350 02        		.byte	0x2
 1601 0351 90        		.byte	0x90
 1602 0352 20        		.uleb128 0x20
 1603 0353 6703 0000 		.long	0x367
 1604 0357 21        		.uleb128 0x21
 1605 0358 0000 0000 		.long	.LASF38
 1606 035c 01        		.byte	0x1
 1607 035d 4D        		.byte	0x4d
 1608 035e 6B00 0000 		.long	0x6b
 1609 0362 0000 0000 		.long	.LLST16
 1610 0366 00        		.byte	0x0
 1611 0367 12        		.uleb128 0x12
 1612 0368 01        		.byte	0x1
 1613 0369 0000 0000 		.long	.LASF39
 1614 036d 01        		.byte	0x1
 1615 036e 70        		.byte	0x70
 1616 036f 01        		.byte	0x1
 1617 0370 0000 0000 		.long	.LFB15
 1618 0374 0000 0000 		.long	.LFE15
 1619 0378 02        		.byte	0x2
 1620 0379 90        		.byte	0x90
 1621 037a 20        		.uleb128 0x20
 1622 037b 13        		.uleb128 0x13
 1623 037c 0000 0000 		.long	.LASF40
 1624 0380 01        		.byte	0x1
 1625 0381 14        		.byte	0x14
 1626 0382 7D00 0000 		.long	0x7d
 1627 0386 05        		.byte	0x5
 1628 0387 03        		.byte	0x3
 1629 0388 0000 0000 		.long	downLevelStay
 1630 038c 13        		.uleb128 0x13
 1631 038d 0000 0000 		.long	.LASF41
 1632 0391 01        		.byte	0x1
 1633 0392 15        		.byte	0x15
 1634 0393 7200 0000 		.long	0x72
 1635 0397 05        		.byte	0x5
 1636 0398 03        		.byte	0x3
 1637 0399 0000 0000 		.long	downLevel
 1638 039d 22        		.uleb128 0x22
 1639 039e 0000 0000 		.long	.LASF42
 1640 03a2 01        		.byte	0x1
 1641 03a3 16        		.byte	0x16
 1642 03a4 A903 0000 		.long	0x3a9
 1643 03a8 0C        		.byte	0xc
 1644 03a9 0C        		.uleb128 0xc
 1645 03aa 7200 0000 		.long	0x72
 1646 03ae 13        		.uleb128 0x13
 1647 03af 0000 0000 		.long	.LASF43
 1648 03b3 01        		.byte	0x1
 1649 03b4 17        		.byte	0x17
 1650 03b5 7200 0000 		.long	0x72
 1651 03b9 05        		.byte	0x5
 1652 03ba 03        		.byte	0x3
 1653 03bb 0000 0000 		.long	downLevelLife
GAS LISTING C:\Users\ADMINI~1\AppData\Local\Temp/cce2Fewp.s 			page 30


 1654 03bf 13        		.uleb128 0x13
 1655 03c0 0000 0000 		.long	.LASF44
 1656 03c4 01        		.byte	0x1
 1657 03c5 19        		.byte	0x19
 1658 03c6 7200 0000 		.long	0x72
 1659 03ca 05        		.byte	0x5
 1660 03cb 03        		.byte	0x3
 1661 03cc 0000 0000 		.long	ledInited
 1662 03d0 13        		.uleb128 0x13
 1663 03d1 0000 0000 		.long	.LASF45
 1664 03d5 01        		.byte	0x1
 1665 03d6 1A        		.byte	0x1a
 1666 03d7 7200 0000 		.long	0x72
 1667 03db 05        		.byte	0x5
 1668 03dc 03        		.byte	0x3
 1669 03dd 0000 0000 		.long	LEDstate
 1670 03e1 13        		.uleb128 0x13
 1671 03e2 0000 0000 		.long	.LASF46
 1672 03e6 01        		.byte	0x1
 1673 03e7 1B        		.byte	0x1b
 1674 03e8 7200 0000 		.long	0x72
 1675 03ec 05        		.byte	0x5
 1676 03ed 03        		.byte	0x3
 1677 03ee 0000 0000 		.long	scrollLockLED
 1678 03f2 13        		.uleb128 0x13
 1679 03f3 0000 0000 		.long	.LASF47
 1680 03f7 01        		.byte	0x1
 1681 03f8 1D        		.byte	0x1d
 1682 03f9 7200 0000 		.long	0x72
 1683 03fd 05        		.byte	0x5
 1684 03fe 03        		.byte	0x3
 1685 03ff 0000 0000 		.long	_fullLEDMode
 1686 0403 13        		.uleb128 0x13
 1687 0404 0000 0000 		.long	.LASF48
 1688 0408 01        		.byte	0x1
 1689 0409 1E        		.byte	0x1e
 1690 040a 7200 0000 		.long	0x72
 1691 040e 05        		.byte	0x5
 1692 040f 03        		.byte	0x3
 1693 0410 0000 0000 		.long	_fullLEDMode_saved
 1694 0414 13        		.uleb128 0x13
 1695 0415 0000 0000 		.long	.LASF49
 1696 0419 01        		.byte	0x1
 1697 041a 20        		.byte	0x20
 1698 041b 6B00 0000 		.long	0x6b
 1699 041f 05        		.byte	0x5
 1700 0420 03        		.byte	0x3
 1701 0421 0000 0000 		.long	pwmCounter
 1702 0425 13        		.uleb128 0x13
 1703 0426 0000 0000 		.long	.LASF50
 1704 042a 01        		.byte	0x1
 1705 042b 21        		.byte	0x21
 1706 042c 6B00 0000 		.long	0x6b
 1707 0430 05        		.byte	0x5
 1708 0431 03        		.byte	0x3
 1709 0432 0000 0000 		.long	pwmDir
 1710 0436 22        		.uleb128 0x22
GAS LISTING C:\Users\ADMINI~1\AppData\Local\Temp/cce2Fewp.s 			page 31


 1711 0437 0000 0000 		.long	.LASF51
 1712 043b 01        		.byte	0x1
 1713 043c 22        		.byte	0x22
 1714 043d A903 0000 		.long	0x3a9
 1715 0441 08        		.byte	0x8
 1716 0442 13        		.uleb128 0x13
 1717 0443 0000 0000 		.long	.LASF52
 1718 0447 01        		.byte	0x1
 1719 0448 23        		.byte	0x23
 1720 0449 7200 0000 		.long	0x72
 1721 044d 05        		.byte	0x5
 1722 044e 03        		.byte	0x3
 1723 044f 0000 0000 		.long	_isDidSleep
 1724 0453 13        		.uleb128 0x13
 1725 0454 0000 0000 		.long	.LASF53
 1726 0458 01        		.byte	0x1
 1727 0459 25        		.byte	0x25
 1728 045a 6B00 0000 		.long	0x6b
 1729 045e 05        		.byte	0x5
 1730 045f 03        		.byte	0x3
 1731 0460 0000 0000 		.long	ledStateCount
 1732 0464 13        		.uleb128 0x13
 1733 0465 0000 0000 		.long	.LASF54
 1734 0469 01        		.byte	0x1
 1735 046a 27        		.byte	0x27
 1736 046b 7200 0000 		.long	0x72
 1737 046f 05        		.byte	0x5
 1738 0470 03        		.byte	0x3
 1739 0471 0000 0000 		.long	_ledBrightnessMax
 1740 0475 13        		.uleb128 0x13
 1741 0476 0000 0000 		.long	.LASF55
 1742 047a 01        		.byte	0x1
 1743 047b 28        		.byte	0x28
 1744 047c 7200 0000 		.long	0x72
 1745 0480 05        		.byte	0x5
 1746 0481 03        		.byte	0x3
 1747 0482 0000 0000 		.long	_ledBrightnessMax_saved
 1748 0486 22        		.uleb128 0x22
 1749 0487 0000 0000 		.long	.LASF56
 1750 048b 01        		.byte	0x1
 1751 048c 29        		.byte	0x29
 1752 048d A903 0000 		.long	0x3a9
 1753 0491 1E        		.byte	0x1e
 1754 0492 22        		.uleb128 0x22
 1755 0493 0000 0000 		.long	.LASF57
 1756 0497 01        		.byte	0x1
 1757 0498 2A        		.byte	0x2a
 1758 0499 A903 0000 		.long	0x3a9
 1759 049d 19        		.byte	0x19
 1760 049e 00        		.byte	0x0
 1761               		.section	.debug_abbrev
 1762 0000 01        		.uleb128 0x1
 1763 0001 11        		.uleb128 0x11
 1764 0002 01        		.byte	0x1
 1765 0003 25        		.uleb128 0x25
 1766 0004 0E        		.uleb128 0xe
 1767 0005 13        		.uleb128 0x13
GAS LISTING C:\Users\ADMINI~1\AppData\Local\Temp/cce2Fewp.s 			page 32


 1768 0006 0B        		.uleb128 0xb
 1769 0007 03        		.uleb128 0x3
 1770 0008 0E        		.uleb128 0xe
 1771 0009 1B        		.uleb128 0x1b
 1772 000a 0E        		.uleb128 0xe
 1773 000b 11        		.uleb128 0x11
 1774 000c 01        		.uleb128 0x1
 1775 000d 12        		.uleb128 0x12
 1776 000e 01        		.uleb128 0x1
 1777 000f 10        		.uleb128 0x10
 1778 0010 06        		.uleb128 0x6
 1779 0011 00        		.byte	0x0
 1780 0012 00        		.byte	0x0
 1781 0013 02        		.uleb128 0x2
 1782 0014 24        		.uleb128 0x24
 1783 0015 00        		.byte	0x0
 1784 0016 0B        		.uleb128 0xb
 1785 0017 0B        		.uleb128 0xb
 1786 0018 3E        		.uleb128 0x3e
 1787 0019 0B        		.uleb128 0xb
 1788 001a 03        		.uleb128 0x3
 1789 001b 0E        		.uleb128 0xe
 1790 001c 00        		.byte	0x0
 1791 001d 00        		.byte	0x0
 1792 001e 03        		.uleb128 0x3
 1793 001f 24        		.uleb128 0x24
 1794 0020 00        		.byte	0x0
 1795 0021 0B        		.uleb128 0xb
 1796 0022 0B        		.uleb128 0xb
 1797 0023 3E        		.uleb128 0x3e
 1798 0024 0B        		.uleb128 0xb
 1799 0025 03        		.uleb128 0x3
 1800 0026 08        		.uleb128 0x8
 1801 0027 00        		.byte	0x0
 1802 0028 00        		.byte	0x0
 1803 0029 04        		.uleb128 0x4
 1804 002a 16        		.uleb128 0x16
 1805 002b 00        		.byte	0x0
 1806 002c 03        		.uleb128 0x3
 1807 002d 0E        		.uleb128 0xe
 1808 002e 3A        		.uleb128 0x3a
 1809 002f 0B        		.uleb128 0xb
 1810 0030 3B        		.uleb128 0x3b
 1811 0031 0B        		.uleb128 0xb
 1812 0032 49        		.uleb128 0x49
 1813 0033 13        		.uleb128 0x13
 1814 0034 00        		.byte	0x0
 1815 0035 00        		.byte	0x0
 1816 0036 05        		.uleb128 0x5
 1817 0037 24        		.uleb128 0x24
 1818 0038 00        		.byte	0x0
 1819 0039 0B        		.uleb128 0xb
 1820 003a 0B        		.uleb128 0xb
 1821 003b 3E        		.uleb128 0x3e
 1822 003c 0B        		.uleb128 0xb
 1823 003d 00        		.byte	0x0
 1824 003e 00        		.byte	0x0
GAS LISTING C:\Users\ADMINI~1\AppData\Local\Temp/cce2Fewp.s 			page 33


 1825 003f 06        		.uleb128 0x6
 1826 0040 2E        		.uleb128 0x2e
 1827 0041 00        		.byte	0x0
 1828 0042 3F        		.uleb128 0x3f
 1829 0043 0C        		.uleb128 0xc
 1830 0044 03        		.uleb128 0x3
 1831 0045 0E        		.uleb128 0xe
 1832 0046 3A        		.uleb128 0x3a
 1833 0047 0B        		.uleb128 0xb
 1834 0048 3B        		.uleb128 0x3b
 1835 0049 0B        		.uleb128 0xb
 1836 004a 27        		.uleb128 0x27
 1837 004b 0C        		.uleb128 0xc
 1838 004c 49        		.uleb128 0x49
 1839 004d 13        		.uleb128 0x13
 1840 004e 20        		.uleb128 0x20
 1841 004f 0B        		.uleb128 0xb
 1842 0050 00        		.byte	0x0
 1843 0051 00        		.byte	0x0
 1844 0052 07        		.uleb128 0x7
 1845 0053 2E        		.uleb128 0x2e
 1846 0054 01        		.byte	0x1
 1847 0055 03        		.uleb128 0x3
 1848 0056 0E        		.uleb128 0xe
 1849 0057 3A        		.uleb128 0x3a
 1850 0058 0B        		.uleb128 0xb
 1851 0059 3B        		.uleb128 0x3b
 1852 005a 05        		.uleb128 0x5
 1853 005b 27        		.uleb128 0x27
 1854 005c 0C        		.uleb128 0xc
 1855 005d 20        		.uleb128 0x20
 1856 005e 0B        		.uleb128 0xb
 1857 005f 01        		.uleb128 0x1
 1858 0060 13        		.uleb128 0x13
 1859 0061 00        		.byte	0x0
 1860 0062 00        		.byte	0x0
 1861 0063 08        		.uleb128 0x8
 1862 0064 05        		.uleb128 0x5
 1863 0065 00        		.byte	0x0
 1864 0066 03        		.uleb128 0x3
 1865 0067 0E        		.uleb128 0xe
 1866 0068 3A        		.uleb128 0x3a
 1867 0069 0B        		.uleb128 0xb
 1868 006a 3B        		.uleb128 0x3b
 1869 006b 05        		.uleb128 0x5
 1870 006c 49        		.uleb128 0x49
 1871 006d 13        		.uleb128 0x13
 1872 006e 00        		.byte	0x0
 1873 006f 00        		.byte	0x0
 1874 0070 09        		.uleb128 0x9
 1875 0071 34        		.uleb128 0x34
 1876 0072 00        		.byte	0x0
 1877 0073 03        		.uleb128 0x3
 1878 0074 0E        		.uleb128 0xe
 1879 0075 3A        		.uleb128 0x3a
 1880 0076 0B        		.uleb128 0xb
 1881 0077 3B        		.uleb128 0x3b
GAS LISTING C:\Users\ADMINI~1\AppData\Local\Temp/cce2Fewp.s 			page 34


 1882 0078 05        		.uleb128 0x5
 1883 0079 49        		.uleb128 0x49
 1884 007a 13        		.uleb128 0x13
 1885 007b 00        		.byte	0x0
 1886 007c 00        		.byte	0x0
 1887 007d 0A        		.uleb128 0xa
 1888 007e 0B        		.uleb128 0xb
 1889 007f 00        		.byte	0x0
 1890 0080 00        		.byte	0x0
 1891 0081 00        		.byte	0x0
 1892 0082 0B        		.uleb128 0xb
 1893 0083 34        		.uleb128 0x34
 1894 0084 00        		.byte	0x0
 1895 0085 03        		.uleb128 0x3
 1896 0086 0E        		.uleb128 0xe
 1897 0087 3A        		.uleb128 0x3a
 1898 0088 0B        		.uleb128 0xb
 1899 0089 3B        		.uleb128 0x3b
 1900 008a 05        		.uleb128 0x5
 1901 008b 49        		.uleb128 0x49
 1902 008c 13        		.uleb128 0x13
 1903 008d 02        		.uleb128 0x2
 1904 008e 0A        		.uleb128 0xa
 1905 008f 00        		.byte	0x0
 1906 0090 00        		.byte	0x0
 1907 0091 0C        		.uleb128 0xc
 1908 0092 26        		.uleb128 0x26
 1909 0093 00        		.byte	0x0
 1910 0094 49        		.uleb128 0x49
 1911 0095 13        		.uleb128 0x13
 1912 0096 00        		.byte	0x0
 1913 0097 00        		.byte	0x0
 1914 0098 0D        		.uleb128 0xd
 1915 0099 2E        		.uleb128 0x2e
 1916 009a 01        		.byte	0x1
 1917 009b 03        		.uleb128 0x3
 1918 009c 0E        		.uleb128 0xe
 1919 009d 3A        		.uleb128 0x3a
 1920 009e 0B        		.uleb128 0xb
 1921 009f 3B        		.uleb128 0x3b
 1922 00a0 0B        		.uleb128 0xb
 1923 00a1 27        		.uleb128 0x27
 1924 00a2 0C        		.uleb128 0xc
 1925 00a3 20        		.uleb128 0x20
 1926 00a4 0B        		.uleb128 0xb
 1927 00a5 01        		.uleb128 0x1
 1928 00a6 13        		.uleb128 0x13
 1929 00a7 00        		.byte	0x0
 1930 00a8 00        		.byte	0x0
 1931 00a9 0E        		.uleb128 0xe
 1932 00aa 34        		.uleb128 0x34
 1933 00ab 00        		.byte	0x0
 1934 00ac 03        		.uleb128 0x3
 1935 00ad 0E        		.uleb128 0xe
 1936 00ae 3A        		.uleb128 0x3a
 1937 00af 0B        		.uleb128 0xb
 1938 00b0 3B        		.uleb128 0x3b
GAS LISTING C:\Users\ADMINI~1\AppData\Local\Temp/cce2Fewp.s 			page 35


 1939 00b1 0B        		.uleb128 0xb
 1940 00b2 49        		.uleb128 0x49
 1941 00b3 13        		.uleb128 0x13
 1942 00b4 00        		.byte	0x0
 1943 00b5 00        		.byte	0x0
 1944 00b6 0F        		.uleb128 0xf
 1945 00b7 2E        		.uleb128 0x2e
 1946 00b8 01        		.byte	0x1
 1947 00b9 3F        		.uleb128 0x3f
 1948 00ba 0C        		.uleb128 0xc
 1949 00bb 03        		.uleb128 0x3
 1950 00bc 0E        		.uleb128 0xe
 1951 00bd 3A        		.uleb128 0x3a
 1952 00be 0B        		.uleb128 0xb
 1953 00bf 3B        		.uleb128 0x3b
 1954 00c0 0B        		.uleb128 0xb
 1955 00c1 27        		.uleb128 0x27
 1956 00c2 0C        		.uleb128 0xc
 1957 00c3 11        		.uleb128 0x11
 1958 00c4 01        		.uleb128 0x1
 1959 00c5 12        		.uleb128 0x12
 1960 00c6 01        		.uleb128 0x1
 1961 00c7 40        		.uleb128 0x40
 1962 00c8 0A        		.uleb128 0xa
 1963 00c9 01        		.uleb128 0x1
 1964 00ca 13        		.uleb128 0x13
 1965 00cb 00        		.byte	0x0
 1966 00cc 00        		.byte	0x0
 1967 00cd 10        		.uleb128 0x10
 1968 00ce 05        		.uleb128 0x5
 1969 00cf 00        		.byte	0x0
 1970 00d0 03        		.uleb128 0x3
 1971 00d1 0E        		.uleb128 0xe
 1972 00d2 3A        		.uleb128 0x3a
 1973 00d3 0B        		.uleb128 0xb
 1974 00d4 3B        		.uleb128 0x3b
 1975 00d5 0B        		.uleb128 0xb
 1976 00d6 49        		.uleb128 0x49
 1977 00d7 13        		.uleb128 0x13
 1978 00d8 02        		.uleb128 0x2
 1979 00d9 0A        		.uleb128 0xa
 1980 00da 00        		.byte	0x0
 1981 00db 00        		.byte	0x0
 1982 00dc 11        		.uleb128 0x11
 1983 00dd 2E        		.uleb128 0x2e
 1984 00de 00        		.byte	0x0
 1985 00df 31        		.uleb128 0x31
 1986 00e0 13        		.uleb128 0x13
 1987 00e1 11        		.uleb128 0x11
 1988 00e2 01        		.uleb128 0x1
 1989 00e3 12        		.uleb128 0x12
 1990 00e4 01        		.uleb128 0x1
 1991 00e5 40        		.uleb128 0x40
 1992 00e6 0A        		.uleb128 0xa
 1993 00e7 00        		.byte	0x0
 1994 00e8 00        		.byte	0x0
 1995 00e9 12        		.uleb128 0x12
GAS LISTING C:\Users\ADMINI~1\AppData\Local\Temp/cce2Fewp.s 			page 36


 1996 00ea 2E        		.uleb128 0x2e
 1997 00eb 00        		.byte	0x0
 1998 00ec 3F        		.uleb128 0x3f
 1999 00ed 0C        		.uleb128 0xc
 2000 00ee 03        		.uleb128 0x3
 2001 00ef 0E        		.uleb128 0xe
 2002 00f0 3A        		.uleb128 0x3a
 2003 00f1 0B        		.uleb128 0xb
 2004 00f2 3B        		.uleb128 0x3b
 2005 00f3 0B        		.uleb128 0xb
 2006 00f4 27        		.uleb128 0x27
 2007 00f5 0C        		.uleb128 0xc
 2008 00f6 11        		.uleb128 0x11
 2009 00f7 01        		.uleb128 0x1
 2010 00f8 12        		.uleb128 0x12
 2011 00f9 01        		.uleb128 0x1
 2012 00fa 40        		.uleb128 0x40
 2013 00fb 0A        		.uleb128 0xa
 2014 00fc 00        		.byte	0x0
 2015 00fd 00        		.byte	0x0
 2016 00fe 13        		.uleb128 0x13
 2017 00ff 34        		.uleb128 0x34
 2018 0100 00        		.byte	0x0
 2019 0101 03        		.uleb128 0x3
 2020 0102 0E        		.uleb128 0xe
 2021 0103 3A        		.uleb128 0x3a
 2022 0104 0B        		.uleb128 0xb
 2023 0105 3B        		.uleb128 0x3b
 2024 0106 0B        		.uleb128 0xb
 2025 0107 49        		.uleb128 0x49
 2026 0108 13        		.uleb128 0x13
 2027 0109 02        		.uleb128 0x2
 2028 010a 0A        		.uleb128 0xa
 2029 010b 00        		.byte	0x0
 2030 010c 00        		.byte	0x0
 2031 010d 14        		.uleb128 0x14
 2032 010e 2E        		.uleb128 0x2e
 2033 010f 01        		.byte	0x1
 2034 0110 03        		.uleb128 0x3
 2035 0111 0E        		.uleb128 0xe
 2036 0112 3A        		.uleb128 0x3a
 2037 0113 0B        		.uleb128 0xb
 2038 0114 3B        		.uleb128 0x3b
 2039 0115 0B        		.uleb128 0xb
 2040 0116 27        		.uleb128 0x27
 2041 0117 0C        		.uleb128 0xc
 2042 0118 49        		.uleb128 0x49
 2043 0119 13        		.uleb128 0x13
 2044 011a 11        		.uleb128 0x11
 2045 011b 01        		.uleb128 0x1
 2046 011c 12        		.uleb128 0x12
 2047 011d 01        		.uleb128 0x1
 2048 011e 40        		.uleb128 0x40
 2049 011f 0A        		.uleb128 0xa
 2050 0120 01        		.uleb128 0x1
 2051 0121 13        		.uleb128 0x13
 2052 0122 00        		.byte	0x0
GAS LISTING C:\Users\ADMINI~1\AppData\Local\Temp/cce2Fewp.s 			page 37


 2053 0123 00        		.byte	0x0
 2054 0124 15        		.uleb128 0x15
 2055 0125 05        		.uleb128 0x5
 2056 0126 00        		.byte	0x0
 2057 0127 03        		.uleb128 0x3
 2058 0128 0E        		.uleb128 0xe
 2059 0129 3A        		.uleb128 0x3a
 2060 012a 0B        		.uleb128 0xb
 2061 012b 3B        		.uleb128 0x3b
 2062 012c 0B        		.uleb128 0xb
 2063 012d 49        		.uleb128 0x49
 2064 012e 13        		.uleb128 0x13
 2065 012f 02        		.uleb128 0x2
 2066 0130 06        		.uleb128 0x6
 2067 0131 00        		.byte	0x0
 2068 0132 00        		.byte	0x0
 2069 0133 16        		.uleb128 0x16
 2070 0134 2E        		.uleb128 0x2e
 2071 0135 00        		.byte	0x0
 2072 0136 3F        		.uleb128 0x3f
 2073 0137 0C        		.uleb128 0xc
 2074 0138 03        		.uleb128 0x3
 2075 0139 0E        		.uleb128 0xe
 2076 013a 3A        		.uleb128 0x3a
 2077 013b 0B        		.uleb128 0xb
 2078 013c 3B        		.uleb128 0x3b
 2079 013d 05        		.uleb128 0x5
 2080 013e 27        		.uleb128 0x27
 2081 013f 0C        		.uleb128 0xc
 2082 0140 11        		.uleb128 0x11
 2083 0141 01        		.uleb128 0x1
 2084 0142 12        		.uleb128 0x12
 2085 0143 01        		.uleb128 0x1
 2086 0144 40        		.uleb128 0x40
 2087 0145 0A        		.uleb128 0xa
 2088 0146 00        		.byte	0x0
 2089 0147 00        		.byte	0x0
 2090 0148 17        		.uleb128 0x17
 2091 0149 2E        		.uleb128 0x2e
 2092 014a 00        		.byte	0x0
 2093 014b 03        		.uleb128 0x3
 2094 014c 0E        		.uleb128 0xe
 2095 014d 3A        		.uleb128 0x3a
 2096 014e 0B        		.uleb128 0xb
 2097 014f 3B        		.uleb128 0x3b
 2098 0150 0B        		.uleb128 0xb
 2099 0151 27        		.uleb128 0x27
 2100 0152 0C        		.uleb128 0xc
 2101 0153 20        		.uleb128 0x20
 2102 0154 0B        		.uleb128 0xb
 2103 0155 00        		.byte	0x0
 2104 0156 00        		.byte	0x0
 2105 0157 18        		.uleb128 0x18
 2106 0158 2E        		.uleb128 0x2e
 2107 0159 01        		.byte	0x1
 2108 015a 3F        		.uleb128 0x3f
 2109 015b 0C        		.uleb128 0xc
GAS LISTING C:\Users\ADMINI~1\AppData\Local\Temp/cce2Fewp.s 			page 38


 2110 015c 03        		.uleb128 0x3
 2111 015d 0E        		.uleb128 0xe
 2112 015e 3A        		.uleb128 0x3a
 2113 015f 0B        		.uleb128 0xb
 2114 0160 3B        		.uleb128 0x3b
 2115 0161 05        		.uleb128 0x5
 2116 0162 27        		.uleb128 0x27
 2117 0163 0C        		.uleb128 0xc
 2118 0164 11        		.uleb128 0x11
 2119 0165 01        		.uleb128 0x1
 2120 0166 12        		.uleb128 0x12
 2121 0167 01        		.uleb128 0x1
 2122 0168 40        		.uleb128 0x40
 2123 0169 0A        		.uleb128 0xa
 2124 016a 01        		.uleb128 0x1
 2125 016b 13        		.uleb128 0x13
 2126 016c 00        		.byte	0x0
 2127 016d 00        		.byte	0x0
 2128 016e 19        		.uleb128 0x19
 2129 016f 05        		.uleb128 0x5
 2130 0170 00        		.byte	0x0
 2131 0171 03        		.uleb128 0x3
 2132 0172 0E        		.uleb128 0xe
 2133 0173 3A        		.uleb128 0x3a
 2134 0174 0B        		.uleb128 0xb
 2135 0175 3B        		.uleb128 0x3b
 2136 0176 05        		.uleb128 0x5
 2137 0177 49        		.uleb128 0x49
 2138 0178 13        		.uleb128 0x13
 2139 0179 02        		.uleb128 0x2
 2140 017a 06        		.uleb128 0x6
 2141 017b 00        		.byte	0x0
 2142 017c 00        		.byte	0x0
 2143 017d 1A        		.uleb128 0x1a
 2144 017e 1D        		.uleb128 0x1d
 2145 017f 01        		.byte	0x1
 2146 0180 31        		.uleb128 0x31
 2147 0181 13        		.uleb128 0x13
 2148 0182 11        		.uleb128 0x11
 2149 0183 01        		.uleb128 0x1
 2150 0184 12        		.uleb128 0x12
 2151 0185 01        		.uleb128 0x1
 2152 0186 58        		.uleb128 0x58
 2153 0187 0B        		.uleb128 0xb
 2154 0188 59        		.uleb128 0x59
 2155 0189 05        		.uleb128 0x5
 2156 018a 01        		.uleb128 0x1
 2157 018b 13        		.uleb128 0x13
 2158 018c 00        		.byte	0x0
 2159 018d 00        		.byte	0x0
 2160 018e 1B        		.uleb128 0x1b
 2161 018f 05        		.uleb128 0x5
 2162 0190 00        		.byte	0x0
 2163 0191 31        		.uleb128 0x31
 2164 0192 13        		.uleb128 0x13
 2165 0193 00        		.byte	0x0
 2166 0194 00        		.byte	0x0
GAS LISTING C:\Users\ADMINI~1\AppData\Local\Temp/cce2Fewp.s 			page 39


 2167 0195 1C        		.uleb128 0x1c
 2168 0196 0B        		.uleb128 0xb
 2169 0197 01        		.byte	0x1
 2170 0198 55        		.uleb128 0x55
 2171 0199 06        		.uleb128 0x6
 2172 019a 00        		.byte	0x0
 2173 019b 00        		.byte	0x0
 2174 019c 1D        		.uleb128 0x1d
 2175 019d 34        		.uleb128 0x34
 2176 019e 00        		.byte	0x0
 2177 019f 31        		.uleb128 0x31
 2178 01a0 13        		.uleb128 0x13
 2179 01a1 00        		.byte	0x0
 2180 01a2 00        		.byte	0x0
 2181 01a3 1E        		.uleb128 0x1e
 2182 01a4 0B        		.uleb128 0xb
 2183 01a5 01        		.byte	0x1
 2184 01a6 11        		.uleb128 0x11
 2185 01a7 01        		.uleb128 0x1
 2186 01a8 12        		.uleb128 0x12
 2187 01a9 01        		.uleb128 0x1
 2188 01aa 00        		.byte	0x0
 2189 01ab 00        		.byte	0x0
 2190 01ac 1F        		.uleb128 0x1f
 2191 01ad 1D        		.uleb128 0x1d
 2192 01ae 00        		.byte	0x0
 2193 01af 31        		.uleb128 0x31
 2194 01b0 13        		.uleb128 0x13
 2195 01b1 11        		.uleb128 0x11
 2196 01b2 01        		.uleb128 0x1
 2197 01b3 12        		.uleb128 0x12
 2198 01b4 01        		.uleb128 0x1
 2199 01b5 58        		.uleb128 0x58
 2200 01b6 0B        		.uleb128 0xb
 2201 01b7 59        		.uleb128 0x59
 2202 01b8 05        		.uleb128 0x5
 2203 01b9 00        		.byte	0x0
 2204 01ba 00        		.byte	0x0
 2205 01bb 20        		.uleb128 0x20
 2206 01bc 2E        		.uleb128 0x2e
 2207 01bd 00        		.byte	0x0
 2208 01be 03        		.uleb128 0x3
 2209 01bf 0E        		.uleb128 0xe
 2210 01c0 3A        		.uleb128 0x3a
 2211 01c1 0B        		.uleb128 0xb
 2212 01c2 3B        		.uleb128 0x3b
 2213 01c3 0B        		.uleb128 0xb
 2214 01c4 27        		.uleb128 0x27
 2215 01c5 0C        		.uleb128 0xc
 2216 01c6 11        		.uleb128 0x11
 2217 01c7 01        		.uleb128 0x1
 2218 01c8 12        		.uleb128 0x12
 2219 01c9 01        		.uleb128 0x1
 2220 01ca 40        		.uleb128 0x40
 2221 01cb 0A        		.uleb128 0xa
 2222 01cc 00        		.byte	0x0
 2223 01cd 00        		.byte	0x0
GAS LISTING C:\Users\ADMINI~1\AppData\Local\Temp/cce2Fewp.s 			page 40


 2224 01ce 21        		.uleb128 0x21
 2225 01cf 34        		.uleb128 0x34
 2226 01d0 00        		.byte	0x0
 2227 01d1 03        		.uleb128 0x3
 2228 01d2 0E        		.uleb128 0xe
 2229 01d3 3A        		.uleb128 0x3a
 2230 01d4 0B        		.uleb128 0xb
 2231 01d5 3B        		.uleb128 0x3b
 2232 01d6 0B        		.uleb128 0xb
 2233 01d7 49        		.uleb128 0x49
 2234 01d8 13        		.uleb128 0x13
 2235 01d9 02        		.uleb128 0x2
 2236 01da 06        		.uleb128 0x6
 2237 01db 00        		.byte	0x0
 2238 01dc 00        		.byte	0x0
 2239 01dd 22        		.uleb128 0x22
 2240 01de 34        		.uleb128 0x34
 2241 01df 00        		.byte	0x0
 2242 01e0 03        		.uleb128 0x3
 2243 01e1 0E        		.uleb128 0xe
 2244 01e2 3A        		.uleb128 0x3a
 2245 01e3 0B        		.uleb128 0xb
 2246 01e4 3B        		.uleb128 0x3b
 2247 01e5 0B        		.uleb128 0xb
 2248 01e6 49        		.uleb128 0x49
 2249 01e7 13        		.uleb128 0x13
 2250 01e8 1C        		.uleb128 0x1c
 2251 01e9 0B        		.uleb128 0xb
 2252 01ea 00        		.byte	0x0
 2253 01eb 00        		.byte	0x0
 2254 01ec 00        		.byte	0x0
 2255               		.section	.debug_pubnames,"",@progbits
 2256 0000 0201 0000 		.long	0x102
 2257 0004 0200      		.word	0x2
 2258 0006 0000 0000 		.long	.Ldebug_info0
 2259 000a 9F04 0000 		.long	0x49f
 2260 000e 5201 0000 		.long	0x152
 2261 0012 7365 744C 		.string	"setLEDState"
 2261      4544 5374 
 2261      6174 6500 
 2262 001e 7801 0000 		.long	0x178
 2263 0022 6765 744C 		.string	"getLEDState"
 2263      4544 5374 
 2263      6174 6500 
 2264 002e 8801 0000 		.long	0x188
 2265 0032 636C 6561 		.string	"clearLEDInited"
 2265      724C 4544 
 2265      496E 6974 
 2265      6564 00
 2266 0041 9C01 0000 		.long	0x19c
 2267 0045 7365 744C 		.string	"setLEDIndicate"
 2267      4544 496E 
 2267      6469 6361 
 2267      7465 00
 2268 0054 C601 0000 		.long	0x1c6
 2269 0058 6170 706C 		.string	"applyKeyDownForFullLED"
 2269      794B 6579 
GAS LISTING C:\Users\ADMINI~1\AppData\Local\Temp/cce2Fewp.s 			page 41


 2269      446F 776E 
 2269      466F 7246 
 2269      756C 6C4C 
 2270 006f 1002 0000 		.long	0x210
 2271 0073 736C 6565 		.string	"sleepLED"
 2271      704C 4544 
 2271      00
 2272 007c 2502 0000 		.long	0x225
 2273 0080 646F 536C 		.string	"doSleep"
 2273      6565 7000 
 2274 0088 4302 0000 		.long	0x243
 2275 008c 7265 6E64 		.string	"renderLED"
 2275      6572 4C45 
 2275      4400 
 2276 0096 0203 0000 		.long	0x302
 2277 009a 7761 6B65 		.string	"wakeUpLED"
 2277      5570 4C45 
 2277      4400 
 2278 00a4 1703 0000 		.long	0x317
 2279 00a8 6368 616E 		.string	"changeFullLedState"
 2279      6765 4675 
 2279      6C6C 4C65 
 2279      6453 7461 
 2279      7465 00
 2280 00bb 2B03 0000 		.long	0x32b
 2281 00bf 7265 6475 		.string	"reduceLedBrightness"
 2281      6365 4C65 
 2281      6442 7269 
 2281      6768 746E 
 2281      6573 7300 
 2282 00d3 3F03 0000 		.long	0x33f
 2283 00d7 696E 6372 		.string	"increaseLedBrightness"
 2283      6561 7365 
 2283      4C65 6442 
 2283      7269 6768 
 2283      746E 6573 
 2284 00ed 6703 0000 		.long	0x367
 2285 00f1 696E 6974 		.string	"initFullLEDState"
 2285      4675 6C6C 
 2285      4C45 4453 
 2285      7461 7465 
 2285      00
 2286 0102 0000 0000 		.long	0x0
 2287               		.section	.debug_aranges,"",@progbits
 2288 0000 1C00 0000 		.long	0x1c
 2289 0004 0200      		.word	0x2
 2290 0006 0000 0000 		.long	.Ldebug_info0
 2291 000a 04        		.byte	0x4
 2292 000b 00        		.byte	0x0
 2293 000c 0000      		.word	0x0
 2294 000e 0000      		.word	0x0
 2295 0010 0000 0000 		.long	.Ltext0
 2296 0014 EC05 0000 		.long	.Letext0-.Ltext0
 2297 0018 0000 0000 		.long	0x0
 2298 001c 0000 0000 		.long	0x0
 2299               		.section	.debug_ranges,"",@progbits
 2300               	.Ldebug_ranges0:
GAS LISTING C:\Users\ADMINI~1\AppData\Local\Temp/cce2Fewp.s 			page 42


 2301 0000 AE01 0000 		.long	.LBB29-.Ltext0
 2302 0004 E201 0000 		.long	.LBE29-.Ltext0
 2303 0008 EE01 0000 		.long	.LBB30-.Ltext0
 2304 000c 3002 0000 		.long	.LBE30-.Ltext0
 2305 0010 0000 0000 		.long	0x0
 2306 0014 0000 0000 		.long	0x0
 2307               		.section	.debug_line
 2308 0000 5B06 0000 		.long	.LELT0-.LSLT0
 2309               	.LSLT0:
 2310 0004 0200      		.word	0x2
 2311 0006 5800 0000 		.long	.LELTP0-.LASLTP0
 2312               	.LASLTP0:
 2313 000a 01        		.byte	0x1
 2314 000b 01        		.byte	0x1
 2315 000c F6        		.byte	0xf6
 2316 000d F5        		.byte	0xf5
 2317 000e 0A        		.byte	0xa
 2318 000f 00        		.byte	0x0
 2319 0010 01        		.byte	0x1
 2320 0011 01        		.byte	0x1
 2321 0012 01        		.byte	0x1
 2322 0013 01        		.byte	0x1
 2323 0014 00        		.byte	0x0
 2324 0015 00        		.byte	0x0
 2325 0016 00        		.byte	0x0
 2326 0017 01        		.byte	0x1
 2327 0018 633A 2F77 		.ascii	"c:/winavr-20100110/lib/gcc/../../avr/include"
 2327      696E 6176 
 2327      722D 3230 
 2327      3130 3031 
 2327      3130 2F6C 
 2328 0044 00        		.byte	0
 2329 0045 00        		.byte	0x0
 2330 0046 6C65 6472 		.string	"ledrender.c"
 2330      656E 6465 
 2330      722E 6300 
 2331 0052 00        		.uleb128 0x0
 2332 0053 00        		.uleb128 0x0
 2333 0054 00        		.uleb128 0x0
 2334 0055 7374 6469 		.string	"stdint.h"
 2334      6E74 2E68 
 2334      00
 2335 005e 01        		.uleb128 0x1
 2336 005f 00        		.uleb128 0x0
 2337 0060 00        		.uleb128 0x0
 2338 0061 00        		.byte	0x0
 2339               	.LELTP0:
 2340 0062 00        		.byte	0x0
 2341 0063 05        		.uleb128 0x5
 2342 0064 02        		.byte	0x2
 2343 0065 0000 0000 		.long	.LM1
 2344 0069 3F        		.byte	0x3f
 2345 006a 00        		.byte	0x0
 2346 006b 05        		.uleb128 0x5
 2347 006c 02        		.byte	0x2
 2348 006d 0000 0000 		.long	.LM2
 2349 0071 15        		.byte	0x15
GAS LISTING C:\Users\ADMINI~1\AppData\Local\Temp/cce2Fewp.s 			page 43


 2350 0072 00        		.byte	0x0
 2351 0073 05        		.uleb128 0x5
 2352 0074 02        		.byte	0x2
 2353 0075 0000 0000 		.long	.LM3
 2354 0079 15        		.byte	0x15
 2355 007a 00        		.byte	0x0
 2356 007b 05        		.uleb128 0x5
 2357 007c 02        		.byte	0x2
 2358 007d 0000 0000 		.long	.LM4
 2359 0081 15        		.byte	0x15
 2360 0082 00        		.byte	0x0
 2361 0083 05        		.uleb128 0x5
 2362 0084 02        		.byte	0x2
 2363 0085 0000 0000 		.long	.LM5
 2364 0089 16        		.byte	0x16
 2365 008a 00        		.byte	0x0
 2366 008b 05        		.uleb128 0x5
 2367 008c 02        		.byte	0x2
 2368 008d 0000 0000 		.long	.LM6
 2369 0091 4F        		.byte	0x4f
 2370 0092 00        		.byte	0x0
 2371 0093 05        		.uleb128 0x5
 2372 0094 02        		.byte	0x2
 2373 0095 0000 0000 		.long	.LM7
 2374 0099 15        		.byte	0x15
 2375 009a 00        		.byte	0x0
 2376 009b 05        		.uleb128 0x5
 2377 009c 02        		.byte	0x2
 2378 009d 0000 0000 		.long	.LM8
 2379 00a1 15        		.byte	0x15
 2380 00a2 00        		.byte	0x0
 2381 00a3 05        		.uleb128 0x5
 2382 00a4 02        		.byte	0x2
 2383 00a5 0000 0000 		.long	.LM9
 2384 00a9 37        		.byte	0x37
 2385 00aa 00        		.byte	0x0
 2386 00ab 05        		.uleb128 0x5
 2387 00ac 02        		.byte	0x2
 2388 00ad 0000 0000 		.long	.LM10
 2389 00b1 15        		.byte	0x15
 2390 00b2 00        		.byte	0x0
 2391 00b3 05        		.uleb128 0x5
 2392 00b4 02        		.byte	0x2
 2393 00b5 0000 0000 		.long	.LM11
 2394 00b9 15        		.byte	0x15
 2395 00ba 00        		.byte	0x0
 2396 00bb 05        		.uleb128 0x5
 2397 00bc 02        		.byte	0x2
 2398 00bd 0000 0000 		.long	.LM12
 2399 00c1 16        		.byte	0x16
 2400 00c2 00        		.byte	0x0
 2401 00c3 05        		.uleb128 0x5
 2402 00c4 02        		.byte	0x2
 2403 00c5 0000 0000 		.long	.LM13
 2404 00c9 16        		.byte	0x16
 2405 00ca 00        		.byte	0x0
 2406 00cb 05        		.uleb128 0x5
GAS LISTING C:\Users\ADMINI~1\AppData\Local\Temp/cce2Fewp.s 			page 44


 2407 00cc 02        		.byte	0x2
 2408 00cd 0000 0000 		.long	.LM14
 2409 00d1 15        		.byte	0x15
 2410 00d2 00        		.byte	0x0
 2411 00d3 05        		.uleb128 0x5
 2412 00d4 02        		.byte	0x2
 2413 00d5 0000 0000 		.long	.LM15
 2414 00d9 16        		.byte	0x16
 2415 00da 00        		.byte	0x0
 2416 00db 05        		.uleb128 0x5
 2417 00dc 02        		.byte	0x2
 2418 00dd 0000 0000 		.long	.LM16
 2419 00e1 18        		.byte	0x18
 2420 00e2 00        		.byte	0x0
 2421 00e3 05        		.uleb128 0x5
 2422 00e4 02        		.byte	0x2
 2423 00e5 0000 0000 		.long	.LM17
 2424 00e9 15        		.byte	0x15
 2425 00ea 00        		.byte	0x0
 2426 00eb 05        		.uleb128 0x5
 2427 00ec 02        		.byte	0x2
 2428 00ed 0000 0000 		.long	.LM18
 2429 00f1 1B        		.byte	0x1b
 2430 00f2 00        		.byte	0x0
 2431 00f3 05        		.uleb128 0x5
 2432 00f4 02        		.byte	0x2
 2433 00f5 0000 0000 		.long	.LM19
 2434 00f9 0F        		.byte	0xf
 2435 00fa 00        		.byte	0x0
 2436 00fb 05        		.uleb128 0x5
 2437 00fc 02        		.byte	0x2
 2438 00fd 0000 0000 		.long	.LM20
 2439 0101 24        		.byte	0x24
 2440 0102 00        		.byte	0x0
 2441 0103 05        		.uleb128 0x5
 2442 0104 02        		.byte	0x2
 2443 0105 0000 0000 		.long	.LM21
 2444 0109 0B        		.byte	0xb
 2445 010a 00        		.byte	0x0
 2446 010b 05        		.uleb128 0x5
 2447 010c 02        		.byte	0x2
 2448 010d 0000 0000 		.long	.LM22
 2449 0111 17        		.byte	0x17
 2450 0112 00        		.byte	0x0
 2451 0113 05        		.uleb128 0x5
 2452 0114 02        		.byte	0x2
 2453 0115 0000 0000 		.long	.LM23
 2454 0119 15        		.byte	0x15
 2455 011a 00        		.byte	0x0
 2456 011b 05        		.uleb128 0x5
 2457 011c 02        		.byte	0x2
 2458 011d 0000 0000 		.long	.LM24
 2459 0121 16        		.byte	0x16
 2460 0122 00        		.byte	0x0
 2461 0123 05        		.uleb128 0x5
 2462 0124 02        		.byte	0x2
 2463 0125 0000 0000 		.long	.LM25
GAS LISTING C:\Users\ADMINI~1\AppData\Local\Temp/cce2Fewp.s 			page 45


 2464 0129 19        		.byte	0x19
 2465 012a 00        		.byte	0x0
 2466 012b 05        		.uleb128 0x5
 2467 012c 02        		.byte	0x2
 2468 012d 0000 0000 		.long	.LM26
 2469 0131 15        		.byte	0x15
 2470 0132 00        		.byte	0x0
 2471 0133 05        		.uleb128 0x5
 2472 0134 02        		.byte	0x2
 2473 0135 0000 0000 		.long	.LM27
 2474 0139 15        		.byte	0x15
 2475 013a 00        		.byte	0x0
 2476 013b 05        		.uleb128 0x5
 2477 013c 02        		.byte	0x2
 2478 013d 0000 0000 		.long	.LM28
 2479 0141 16        		.byte	0x16
 2480 0142 00        		.byte	0x0
 2481 0143 05        		.uleb128 0x5
 2482 0144 02        		.byte	0x2
 2483 0145 0000 0000 		.long	.LM29
 2484 0149 1B        		.byte	0x1b
 2485 014a 00        		.byte	0x0
 2486 014b 05        		.uleb128 0x5
 2487 014c 02        		.byte	0x2
 2488 014d 0000 0000 		.long	.LM30
 2489 0151 15        		.byte	0x15
 2490 0152 00        		.byte	0x0
 2491 0153 05        		.uleb128 0x5
 2492 0154 02        		.byte	0x2
 2493 0155 0000 0000 		.long	.LM31
 2494 0159 16        		.byte	0x16
 2495 015a 00        		.byte	0x0
 2496 015b 05        		.uleb128 0x5
 2497 015c 02        		.byte	0x2
 2498 015d 0000 0000 		.long	.LM32
 2499 0161 15        		.byte	0x15
 2500 0162 00        		.byte	0x0
 2501 0163 05        		.uleb128 0x5
 2502 0164 02        		.byte	0x2
 2503 0165 0000 0000 		.long	.LM33
 2504 0169 15        		.byte	0x15
 2505 016a 00        		.byte	0x0
 2506 016b 05        		.uleb128 0x5
 2507 016c 02        		.byte	0x2
 2508 016d 0000 0000 		.long	.LM34
 2509 0171 15        		.byte	0x15
 2510 0172 00        		.byte	0x0
 2511 0173 05        		.uleb128 0x5
 2512 0174 02        		.byte	0x2
 2513 0175 0000 0000 		.long	.LM35
 2514 0179 17        		.byte	0x17
 2515 017a 00        		.byte	0x0
 2516 017b 05        		.uleb128 0x5
 2517 017c 02        		.byte	0x2
 2518 017d 0000 0000 		.long	.LM36
 2519 0181 16        		.byte	0x16
 2520 0182 00        		.byte	0x0
GAS LISTING C:\Users\ADMINI~1\AppData\Local\Temp/cce2Fewp.s 			page 46


 2521 0183 05        		.uleb128 0x5
 2522 0184 02        		.byte	0x2
 2523 0185 0000 0000 		.long	.LM37
 2524 0189 15        		.byte	0x15
 2525 018a 00        		.byte	0x0
 2526 018b 05        		.uleb128 0x5
 2527 018c 02        		.byte	0x2
 2528 018d 0000 0000 		.long	.LM38
 2529 0191 15        		.byte	0x15
 2530 0192 00        		.byte	0x0
 2531 0193 05        		.uleb128 0x5
 2532 0194 02        		.byte	0x2
 2533 0195 0000 0000 		.long	.LM39
 2534 0199 15        		.byte	0x15
 2535 019a 00        		.byte	0x0
 2536 019b 05        		.uleb128 0x5
 2537 019c 02        		.byte	0x2
 2538 019d 0000 0000 		.long	.LM40
 2539 01a1 30        		.byte	0x30
 2540 01a2 00        		.byte	0x0
 2541 01a3 05        		.uleb128 0x5
 2542 01a4 02        		.byte	0x2
 2543 01a5 0000 0000 		.long	.LM41
 2544 01a9 01        		.byte	0x1
 2545 01aa 00        		.byte	0x0
 2546 01ab 05        		.uleb128 0x5
 2547 01ac 02        		.byte	0x2
 2548 01ad 0000 0000 		.long	.LM42
 2549 01b1 18        		.byte	0x18
 2550 01b2 00        		.byte	0x0
 2551 01b3 05        		.uleb128 0x5
 2552 01b4 02        		.byte	0x2
 2553 01b5 0000 0000 		.long	.LM43
 2554 01b9 A4        		.byte	0xa4
 2555 01ba 00        		.byte	0x0
 2556 01bb 05        		.uleb128 0x5
 2557 01bc 02        		.byte	0x2
 2558 01bd 0000 0000 		.long	.LM44
 2559 01c1 16        		.byte	0x16
 2560 01c2 00        		.byte	0x0
 2561 01c3 05        		.uleb128 0x5
 2562 01c4 02        		.byte	0x2
 2563 01c5 0000 0000 		.long	.LM45
 2564 01c9 15        		.byte	0x15
 2565 01ca 00        		.byte	0x0
 2566 01cb 05        		.uleb128 0x5
 2567 01cc 02        		.byte	0x2
 2568 01cd 0000 0000 		.long	.LM46
 2569 01d1 15        		.byte	0x15
 2570 01d2 00        		.byte	0x0
 2571 01d3 05        		.uleb128 0x5
 2572 01d4 02        		.byte	0x2
 2573 01d5 0000 0000 		.long	.LM47
 2574 01d9 15        		.byte	0x15
 2575 01da 00        		.byte	0x0
 2576 01db 05        		.uleb128 0x5
 2577 01dc 02        		.byte	0x2
GAS LISTING C:\Users\ADMINI~1\AppData\Local\Temp/cce2Fewp.s 			page 47


 2578 01dd 0000 0000 		.long	.LM48
 2579 01e1 16        		.byte	0x16
 2580 01e2 00        		.byte	0x0
 2581 01e3 05        		.uleb128 0x5
 2582 01e4 02        		.byte	0x2
 2583 01e5 0000 0000 		.long	.LM49
 2584 01e9 16        		.byte	0x16
 2585 01ea 00        		.byte	0x0
 2586 01eb 05        		.uleb128 0x5
 2587 01ec 02        		.byte	0x2
 2588 01ed 0000 0000 		.long	.LM50
 2589 01f1 16        		.byte	0x16
 2590 01f2 00        		.byte	0x0
 2591 01f3 05        		.uleb128 0x5
 2592 01f4 02        		.byte	0x2
 2593 01f5 0000 0000 		.long	.LM51
 2594 01f9 17        		.byte	0x17
 2595 01fa 00        		.byte	0x0
 2596 01fb 05        		.uleb128 0x5
 2597 01fc 02        		.byte	0x2
 2598 01fd 0000 0000 		.long	.LM52
 2599 0201 1E        		.byte	0x1e
 2600 0202 00        		.byte	0x0
 2601 0203 05        		.uleb128 0x5
 2602 0204 02        		.byte	0x2
 2603 0205 0000 0000 		.long	.LM53
 2604 0209 15        		.byte	0x15
 2605 020a 00        		.byte	0x0
 2606 020b 05        		.uleb128 0x5
 2607 020c 02        		.byte	0x2
 2608 020d 0000 0000 		.long	.LM54
 2609 0211 16        		.byte	0x16
 2610 0212 00        		.byte	0x0
 2611 0213 05        		.uleb128 0x5
 2612 0214 02        		.byte	0x2
 2613 0215 0000 0000 		.long	.LM55
 2614 0219 15        		.byte	0x15
 2615 021a 00        		.byte	0x0
 2616 021b 05        		.uleb128 0x5
 2617 021c 02        		.byte	0x2
 2618 021d 0000 0000 		.long	.LM56
 2619 0221 15        		.byte	0x15
 2620 0222 00        		.byte	0x0
 2621 0223 05        		.uleb128 0x5
 2622 0224 02        		.byte	0x2
 2623 0225 0000 0000 		.long	.LM57
 2624 0229 15        		.byte	0x15
 2625 022a 00        		.byte	0x0
 2626 022b 05        		.uleb128 0x5
 2627 022c 02        		.byte	0x2
 2628 022d 0000 0000 		.long	.LM58
 2629 0231 15        		.byte	0x15
 2630 0232 00        		.byte	0x0
 2631 0233 05        		.uleb128 0x5
 2632 0234 02        		.byte	0x2
 2633 0235 0000 0000 		.long	.LM59
 2634 0239 16        		.byte	0x16
GAS LISTING C:\Users\ADMINI~1\AppData\Local\Temp/cce2Fewp.s 			page 48


 2635 023a 00        		.byte	0x0
 2636 023b 05        		.uleb128 0x5
 2637 023c 02        		.byte	0x2
 2638 023d 0000 0000 		.long	.LM60
 2639 0241 17        		.byte	0x17
 2640 0242 00        		.byte	0x0
 2641 0243 05        		.uleb128 0x5
 2642 0244 02        		.byte	0x2
 2643 0245 0000 0000 		.long	.LM61
 2644 0249 15        		.byte	0x15
 2645 024a 00        		.byte	0x0
 2646 024b 05        		.uleb128 0x5
 2647 024c 02        		.byte	0x2
 2648 024d 0000 0000 		.long	.LM62
 2649 0251 15        		.byte	0x15
 2650 0252 00        		.byte	0x0
 2651 0253 05        		.uleb128 0x5
 2652 0254 02        		.byte	0x2
 2653 0255 0000 0000 		.long	.LM63
 2654 0259 15        		.byte	0x15
 2655 025a 00        		.byte	0x0
 2656 025b 05        		.uleb128 0x5
 2657 025c 02        		.byte	0x2
 2658 025d 0000 0000 		.long	.LM64
 2659 0261 03        		.byte	0x3
 2660 0262 9F7F      		.sleb128 -97
 2661 0264 01        		.byte	0x1
 2662 0265 00        		.byte	0x0
 2663 0266 05        		.uleb128 0x5
 2664 0267 02        		.byte	0x2
 2665 0268 0000 0000 		.long	.LM65
 2666 026c 15        		.byte	0x15
 2667 026d 00        		.byte	0x0
 2668 026e 05        		.uleb128 0x5
 2669 026f 02        		.byte	0x2
 2670 0270 0000 0000 		.long	.LM66
 2671 0274 15        		.byte	0x15
 2672 0275 00        		.byte	0x0
 2673 0276 05        		.uleb128 0x5
 2674 0277 02        		.byte	0x2
 2675 0278 0000 0000 		.long	.LM67
 2676 027c 15        		.byte	0x15
 2677 027d 00        		.byte	0x0
 2678 027e 05        		.uleb128 0x5
 2679 027f 02        		.byte	0x2
 2680 0280 0000 0000 		.long	.LM68
 2681 0284 15        		.byte	0x15
 2682 0285 00        		.byte	0x0
 2683 0286 05        		.uleb128 0x5
 2684 0287 02        		.byte	0x2
 2685 0288 0000 0000 		.long	.LM69
 2686 028c 15        		.byte	0x15
 2687 028d 00        		.byte	0x0
 2688 028e 05        		.uleb128 0x5
 2689 028f 02        		.byte	0x2
 2690 0290 0000 0000 		.long	.LM70
 2691 0294 15        		.byte	0x15
GAS LISTING C:\Users\ADMINI~1\AppData\Local\Temp/cce2Fewp.s 			page 49


 2692 0295 00        		.byte	0x0
 2693 0296 05        		.uleb128 0x5
 2694 0297 02        		.byte	0x2
 2695 0298 0000 0000 		.long	.LM71
 2696 029c 15        		.byte	0x15
 2697 029d 00        		.byte	0x0
 2698 029e 05        		.uleb128 0x5
 2699 029f 02        		.byte	0x2
 2700 02a0 0000 0000 		.long	.LM72
 2701 02a4 16        		.byte	0x16
 2702 02a5 00        		.byte	0x0
 2703 02a6 05        		.uleb128 0x5
 2704 02a7 02        		.byte	0x2
 2705 02a8 0000 0000 		.long	.LM73
 2706 02ac 18        		.byte	0x18
 2707 02ad 00        		.byte	0x0
 2708 02ae 05        		.uleb128 0x5
 2709 02af 02        		.byte	0x2
 2710 02b0 0000 0000 		.long	.LM74
 2711 02b4 15        		.byte	0x15
 2712 02b5 00        		.byte	0x0
 2713 02b6 05        		.uleb128 0x5
 2714 02b7 02        		.byte	0x2
 2715 02b8 0000 0000 		.long	.LM75
 2716 02bc 16        		.byte	0x16
 2717 02bd 00        		.byte	0x0
 2718 02be 05        		.uleb128 0x5
 2719 02bf 02        		.byte	0x2
 2720 02c0 0000 0000 		.long	.LM76
 2721 02c4 15        		.byte	0x15
 2722 02c5 00        		.byte	0x0
 2723 02c6 05        		.uleb128 0x5
 2724 02c7 02        		.byte	0x2
 2725 02c8 0000 0000 		.long	.LM77
 2726 02cc 17        		.byte	0x17
 2727 02cd 00        		.byte	0x0
 2728 02ce 05        		.uleb128 0x5
 2729 02cf 02        		.byte	0x2
 2730 02d0 0000 0000 		.long	.LM78
 2731 02d4 15        		.byte	0x15
 2732 02d5 00        		.byte	0x0
 2733 02d6 05        		.uleb128 0x5
 2734 02d7 02        		.byte	0x2
 2735 02d8 0000 0000 		.long	.LM79
 2736 02dc 18        		.byte	0x18
 2737 02dd 00        		.byte	0x0
 2738 02de 05        		.uleb128 0x5
 2739 02df 02        		.byte	0x2
 2740 02e0 0000 0000 		.long	.LM80
 2741 02e4 15        		.byte	0x15
 2742 02e5 00        		.byte	0x0
 2743 02e6 05        		.uleb128 0x5
 2744 02e7 02        		.byte	0x2
 2745 02e8 0000 0000 		.long	.LM81
 2746 02ec 1E        		.byte	0x1e
 2747 02ed 00        		.byte	0x0
 2748 02ee 05        		.uleb128 0x5
GAS LISTING C:\Users\ADMINI~1\AppData\Local\Temp/cce2Fewp.s 			page 50


 2749 02ef 02        		.byte	0x2
 2750 02f0 0000 0000 		.long	.LM82
 2751 02f4 15        		.byte	0x15
 2752 02f5 00        		.byte	0x0
 2753 02f6 05        		.uleb128 0x5
 2754 02f7 02        		.byte	0x2
 2755 02f8 0000 0000 		.long	.LM83
 2756 02fc 15        		.byte	0x15
 2757 02fd 00        		.byte	0x0
 2758 02fe 05        		.uleb128 0x5
 2759 02ff 02        		.byte	0x2
 2760 0300 0000 0000 		.long	.LM84
 2761 0304 15        		.byte	0x15
 2762 0305 00        		.byte	0x0
 2763 0306 05        		.uleb128 0x5
 2764 0307 02        		.byte	0x2
 2765 0308 0000 0000 		.long	.LM85
 2766 030c 16        		.byte	0x16
 2767 030d 00        		.byte	0x0
 2768 030e 05        		.uleb128 0x5
 2769 030f 02        		.byte	0x2
 2770 0310 0000 0000 		.long	.LM86
 2771 0314 15        		.byte	0x15
 2772 0315 00        		.byte	0x0
 2773 0316 05        		.uleb128 0x5
 2774 0317 02        		.byte	0x2
 2775 0318 0000 0000 		.long	.LM87
 2776 031c 17        		.byte	0x17
 2777 031d 00        		.byte	0x0
 2778 031e 05        		.uleb128 0x5
 2779 031f 02        		.byte	0x2
 2780 0320 0000 0000 		.long	.LM88
 2781 0324 15        		.byte	0x15
 2782 0325 00        		.byte	0x0
 2783 0326 05        		.uleb128 0x5
 2784 0327 02        		.byte	0x2
 2785 0328 0000 0000 		.long	.LM89
 2786 032c 17        		.byte	0x17
 2787 032d 00        		.byte	0x0
 2788 032e 05        		.uleb128 0x5
 2789 032f 02        		.byte	0x2
 2790 0330 0000 0000 		.long	.LM90
 2791 0334 16        		.byte	0x16
 2792 0335 00        		.byte	0x0
 2793 0336 05        		.uleb128 0x5
 2794 0337 02        		.byte	0x2
 2795 0338 0000 0000 		.long	.LM91
 2796 033c 17        		.byte	0x17
 2797 033d 00        		.byte	0x0
 2798 033e 05        		.uleb128 0x5
 2799 033f 02        		.byte	0x2
 2800 0340 0000 0000 		.long	.LM92
 2801 0344 03        		.byte	0x3
 2802 0345 DE7E      		.sleb128 -162
 2803 0347 01        		.byte	0x1
 2804 0348 00        		.byte	0x0
 2805 0349 05        		.uleb128 0x5
GAS LISTING C:\Users\ADMINI~1\AppData\Local\Temp/cce2Fewp.s 			page 51


 2806 034a 02        		.byte	0x2
 2807 034b 0000 0000 		.long	.LM93
 2808 034f 16        		.byte	0x16
 2809 0350 00        		.byte	0x0
 2810 0351 05        		.uleb128 0x5
 2811 0352 02        		.byte	0x2
 2812 0353 0000 0000 		.long	.LM94
 2813 0357 15        		.byte	0x15
 2814 0358 00        		.byte	0x0
 2815 0359 05        		.uleb128 0x5
 2816 035a 02        		.byte	0x2
 2817 035b 0000 0000 		.long	.LM95
 2818 035f 15        		.byte	0x15
 2819 0360 00        		.byte	0x0
 2820 0361 05        		.uleb128 0x5
 2821 0362 02        		.byte	0x2
 2822 0363 0000 0000 		.long	.LM96
 2823 0367 15        		.byte	0x15
 2824 0368 00        		.byte	0x0
 2825 0369 05        		.uleb128 0x5
 2826 036a 02        		.byte	0x2
 2827 036b 0000 0000 		.long	.LM97
 2828 036f 19        		.byte	0x19
 2829 0370 00        		.byte	0x0
 2830 0371 05        		.uleb128 0x5
 2831 0372 02        		.byte	0x2
 2832 0373 0000 0000 		.long	.LM98
 2833 0377 15        		.byte	0x15
 2834 0378 00        		.byte	0x0
 2835 0379 05        		.uleb128 0x5
 2836 037a 02        		.byte	0x2
 2837 037b 0000 0000 		.long	.LM99
 2838 037f 15        		.byte	0x15
 2839 0380 00        		.byte	0x0
 2840 0381 05        		.uleb128 0x5
 2841 0382 02        		.byte	0x2
 2842 0383 0000 0000 		.long	.LM100
 2843 0387 23        		.byte	0x23
 2844 0388 00        		.byte	0x0
 2845 0389 05        		.uleb128 0x5
 2846 038a 02        		.byte	0x2
 2847 038b 0000 0000 		.long	.LM101
 2848 038f 16        		.byte	0x16
 2849 0390 00        		.byte	0x0
 2850 0391 05        		.uleb128 0x5
 2851 0392 02        		.byte	0x2
 2852 0393 0000 0000 		.long	.LM102
 2853 0397 15        		.byte	0x15
 2854 0398 00        		.byte	0x0
 2855 0399 05        		.uleb128 0x5
 2856 039a 02        		.byte	0x2
 2857 039b 0000 0000 		.long	.LM103
 2858 039f 15        		.byte	0x15
 2859 03a0 00        		.byte	0x0
 2860 03a1 05        		.uleb128 0x5
 2861 03a2 02        		.byte	0x2
 2862 03a3 0000 0000 		.long	.LM104
GAS LISTING C:\Users\ADMINI~1\AppData\Local\Temp/cce2Fewp.s 			page 52


 2863 03a7 15        		.byte	0x15
 2864 03a8 00        		.byte	0x0
 2865 03a9 05        		.uleb128 0x5
 2866 03aa 02        		.byte	0x2
 2867 03ab 0000 0000 		.long	.LM105
 2868 03af 15        		.byte	0x15
 2869 03b0 00        		.byte	0x0
 2870 03b1 05        		.uleb128 0x5
 2871 03b2 02        		.byte	0x2
 2872 03b3 0000 0000 		.long	.LM106
 2873 03b7 15        		.byte	0x15
 2874 03b8 00        		.byte	0x0
 2875 03b9 05        		.uleb128 0x5
 2876 03ba 02        		.byte	0x2
 2877 03bb 0000 0000 		.long	.LM107
 2878 03bf 17        		.byte	0x17
 2879 03c0 00        		.byte	0x0
 2880 03c1 05        		.uleb128 0x5
 2881 03c2 02        		.byte	0x2
 2882 03c3 0000 0000 		.long	.LM108
 2883 03c7 15        		.byte	0x15
 2884 03c8 00        		.byte	0x0
 2885 03c9 05        		.uleb128 0x5
 2886 03ca 02        		.byte	0x2
 2887 03cb 0000 0000 		.long	.LM109
 2888 03cf 15        		.byte	0x15
 2889 03d0 00        		.byte	0x0
 2890 03d1 05        		.uleb128 0x5
 2891 03d2 02        		.byte	0x2
 2892 03d3 0000 0000 		.long	.LM110
 2893 03d7 16        		.byte	0x16
 2894 03d8 00        		.byte	0x0
 2895 03d9 05        		.uleb128 0x5
 2896 03da 02        		.byte	0x2
 2897 03db 0000 0000 		.long	.LM111
 2898 03df 1D        		.byte	0x1d
 2899 03e0 00        		.byte	0x0
 2900 03e1 05        		.uleb128 0x5
 2901 03e2 02        		.byte	0x2
 2902 03e3 0000 0000 		.long	.LM112
 2903 03e7 17        		.byte	0x17
 2904 03e8 00        		.byte	0x0
 2905 03e9 05        		.uleb128 0x5
 2906 03ea 02        		.byte	0x2
 2907 03eb 0000 0000 		.long	.LM113
 2908 03ef 15        		.byte	0x15
 2909 03f0 00        		.byte	0x0
 2910 03f1 05        		.uleb128 0x5
 2911 03f2 02        		.byte	0x2
 2912 03f3 0000 0000 		.long	.LM114
 2913 03f7 17        		.byte	0x17
 2914 03f8 00        		.byte	0x0
 2915 03f9 05        		.uleb128 0x5
 2916 03fa 02        		.byte	0x2
 2917 03fb 0000 0000 		.long	.LM115
 2918 03ff 15        		.byte	0x15
 2919 0400 00        		.byte	0x0
GAS LISTING C:\Users\ADMINI~1\AppData\Local\Temp/cce2Fewp.s 			page 53


 2920 0401 05        		.uleb128 0x5
 2921 0402 02        		.byte	0x2
 2922 0403 0000 0000 		.long	.LM116
 2923 0407 15        		.byte	0x15
 2924 0408 00        		.byte	0x0
 2925 0409 05        		.uleb128 0x5
 2926 040a 02        		.byte	0x2
 2927 040b 0000 0000 		.long	.LM117
 2928 040f 15        		.byte	0x15
 2929 0410 00        		.byte	0x0
 2930 0411 05        		.uleb128 0x5
 2931 0412 02        		.byte	0x2
 2932 0413 0000 0000 		.long	.LM118
 2933 0417 15        		.byte	0x15
 2934 0418 00        		.byte	0x0
 2935 0419 05        		.uleb128 0x5
 2936 041a 02        		.byte	0x2
 2937 041b 0000 0000 		.long	.LM119
 2938 041f 15        		.byte	0x15
 2939 0420 00        		.byte	0x0
 2940 0421 05        		.uleb128 0x5
 2941 0422 02        		.byte	0x2
 2942 0423 0000 0000 		.long	.LM120
 2943 0427 17        		.byte	0x17
 2944 0428 00        		.byte	0x0
 2945 0429 05        		.uleb128 0x5
 2946 042a 02        		.byte	0x2
 2947 042b 0000 0000 		.long	.LM121
 2948 042f 15        		.byte	0x15
 2949 0430 00        		.byte	0x0
 2950 0431 05        		.uleb128 0x5
 2951 0432 02        		.byte	0x2
 2952 0433 0000 0000 		.long	.LM122
 2953 0437 17        		.byte	0x17
 2954 0438 00        		.byte	0x0
 2955 0439 05        		.uleb128 0x5
 2956 043a 02        		.byte	0x2
 2957 043b 0000 0000 		.long	.LM123
 2958 043f 16        		.byte	0x16
 2959 0440 00        		.byte	0x0
 2960 0441 05        		.uleb128 0x5
 2961 0442 02        		.byte	0x2
 2962 0443 0000 0000 		.long	.LM124
 2963 0447 16        		.byte	0x16
 2964 0448 00        		.byte	0x0
 2965 0449 05        		.uleb128 0x5
 2966 044a 02        		.byte	0x2
 2967 044b 0000 0000 		.long	.LM125
 2968 044f 15        		.byte	0x15
 2969 0450 00        		.byte	0x0
 2970 0451 05        		.uleb128 0x5
 2971 0452 02        		.byte	0x2
 2972 0453 0000 0000 		.long	.LM126
 2973 0457 17        		.byte	0x17
 2974 0458 00        		.byte	0x0
 2975 0459 05        		.uleb128 0x5
 2976 045a 02        		.byte	0x2
GAS LISTING C:\Users\ADMINI~1\AppData\Local\Temp/cce2Fewp.s 			page 54


 2977 045b 0000 0000 		.long	.LM127
 2978 045f 15        		.byte	0x15
 2979 0460 00        		.byte	0x0
 2980 0461 05        		.uleb128 0x5
 2981 0462 02        		.byte	0x2
 2982 0463 0000 0000 		.long	.LM128
 2983 0467 15        		.byte	0x15
 2984 0468 00        		.byte	0x0
 2985 0469 05        		.uleb128 0x5
 2986 046a 02        		.byte	0x2
 2987 046b 0000 0000 		.long	.LM129
 2988 046f 15        		.byte	0x15
 2989 0470 00        		.byte	0x0
 2990 0471 05        		.uleb128 0x5
 2991 0472 02        		.byte	0x2
 2992 0473 0000 0000 		.long	.LM130
 2993 0477 15        		.byte	0x15
 2994 0478 00        		.byte	0x0
 2995 0479 05        		.uleb128 0x5
 2996 047a 02        		.byte	0x2
 2997 047b 0000 0000 		.long	.LM131
 2998 047f 15        		.byte	0x15
 2999 0480 00        		.byte	0x0
 3000 0481 05        		.uleb128 0x5
 3001 0482 02        		.byte	0x2
 3002 0483 0000 0000 		.long	.LM132
 3003 0487 17        		.byte	0x17
 3004 0488 00        		.byte	0x0
 3005 0489 05        		.uleb128 0x5
 3006 048a 02        		.byte	0x2
 3007 048b 0000 0000 		.long	.LM133
 3008 048f 15        		.byte	0x15
 3009 0490 00        		.byte	0x0
 3010 0491 05        		.uleb128 0x5
 3011 0492 02        		.byte	0x2
 3012 0493 0000 0000 		.long	.LM134
 3013 0497 17        		.byte	0x17
 3014 0498 00        		.byte	0x0
 3015 0499 05        		.uleb128 0x5
 3016 049a 02        		.byte	0x2
 3017 049b 0000 0000 		.long	.LM135
 3018 049f 19        		.byte	0x19
 3019 04a0 00        		.byte	0x0
 3020 04a1 05        		.uleb128 0x5
 3021 04a2 02        		.byte	0x2
 3022 04a3 0000 0000 		.long	.LM136
 3023 04a7 15        		.byte	0x15
 3024 04a8 00        		.byte	0x0
 3025 04a9 05        		.uleb128 0x5
 3026 04aa 02        		.byte	0x2
 3027 04ab 0000 0000 		.long	.LM137
 3028 04af 92        		.byte	0x92
 3029 04b0 00        		.byte	0x0
 3030 04b1 05        		.uleb128 0x5
 3031 04b2 02        		.byte	0x2
 3032 04b3 0000 0000 		.long	.LM138
 3033 04b7 03        		.byte	0x3
GAS LISTING C:\Users\ADMINI~1\AppData\Local\Temp/cce2Fewp.s 			page 55


 3034 04b8 807D      		.sleb128 -384
 3035 04ba 01        		.byte	0x1
 3036 04bb 00        		.byte	0x0
 3037 04bc 05        		.uleb128 0x5
 3038 04bd 02        		.byte	0x2
 3039 04be 0000 0000 		.long	.LM139
 3040 04c2 1C        		.byte	0x1c
 3041 04c3 00        		.byte	0x0
 3042 04c4 05        		.uleb128 0x5
 3043 04c5 02        		.byte	0x2
 3044 04c6 0000 0000 		.long	.LM140
 3045 04ca 15        		.byte	0x15
 3046 04cb 00        		.byte	0x0
 3047 04cc 05        		.uleb128 0x5
 3048 04cd 02        		.byte	0x2
 3049 04ce 0000 0000 		.long	.LM141
 3050 04d2 15        		.byte	0x15
 3051 04d3 00        		.byte	0x0
 3052 04d4 05        		.uleb128 0x5
 3053 04d5 02        		.byte	0x2
 3054 04d6 0000 0000 		.long	.LM142
 3055 04da 15        		.byte	0x15
 3056 04db 00        		.byte	0x0
 3057 04dc 05        		.uleb128 0x5
 3058 04dd 02        		.byte	0x2
 3059 04de 0000 0000 		.long	.LM143
 3060 04e2 15        		.byte	0x15
 3061 04e3 00        		.byte	0x0
 3062 04e4 05        		.uleb128 0x5
 3063 04e5 02        		.byte	0x2
 3064 04e6 0000 0000 		.long	.LM144
 3065 04ea 16        		.byte	0x16
 3066 04eb 00        		.byte	0x0
 3067 04ec 05        		.uleb128 0x5
 3068 04ed 02        		.byte	0x2
 3069 04ee 0000 0000 		.long	.LM145
 3070 04f2 15        		.byte	0x15
 3071 04f3 00        		.byte	0x0
 3072 04f4 05        		.uleb128 0x5
 3073 04f5 02        		.byte	0x2
 3074 04f6 0000 0000 		.long	.LM146
 3075 04fa 15        		.byte	0x15
 3076 04fb 00        		.byte	0x0
 3077 04fc 05        		.uleb128 0x5
 3078 04fd 02        		.byte	0x2
 3079 04fe 0000 0000 		.long	.LM147
 3080 0502 15        		.byte	0x15
 3081 0503 00        		.byte	0x0
 3082 0504 05        		.uleb128 0x5
 3083 0505 02        		.byte	0x2
 3084 0506 0000 0000 		.long	.LM148
 3085 050a 15        		.byte	0x15
 3086 050b 00        		.byte	0x0
 3087 050c 05        		.uleb128 0x5
 3088 050d 02        		.byte	0x2
 3089 050e 0000 0000 		.long	.LM149
 3090 0512 15        		.byte	0x15
GAS LISTING C:\Users\ADMINI~1\AppData\Local\Temp/cce2Fewp.s 			page 56


 3091 0513 00        		.byte	0x0
 3092 0514 05        		.uleb128 0x5
 3093 0515 02        		.byte	0x2
 3094 0516 0000 0000 		.long	.LM150
 3095 051a 03        		.byte	0x3
 3096 051b C802      		.sleb128 328
 3097 051d 01        		.byte	0x1
 3098 051e 00        		.byte	0x0
 3099 051f 05        		.uleb128 0x5
 3100 0520 02        		.byte	0x2
 3101 0521 0000 0000 		.long	.LM151
 3102 0525 16        		.byte	0x16
 3103 0526 00        		.byte	0x0
 3104 0527 05        		.uleb128 0x5
 3105 0528 02        		.byte	0x2
 3106 0529 0000 0000 		.long	.LM152
 3107 052d 15        		.byte	0x15
 3108 052e 00        		.byte	0x0
 3109 052f 05        		.uleb128 0x5
 3110 0530 02        		.byte	0x2
 3111 0531 0000 0000 		.long	.LM153
 3112 0535 15        		.byte	0x15
 3113 0536 00        		.byte	0x0
 3114 0537 05        		.uleb128 0x5
 3115 0538 02        		.byte	0x2
 3116 0539 0000 0000 		.long	.LM154
 3117 053d 03        		.byte	0x3
 3118 053e D27D      		.sleb128 -302
 3119 0540 01        		.byte	0x1
 3120 0541 00        		.byte	0x0
 3121 0542 05        		.uleb128 0x5
 3122 0543 02        		.byte	0x2
 3123 0544 0000 0000 		.long	.LM155
 3124 0548 16        		.byte	0x16
 3125 0549 00        		.byte	0x0
 3126 054a 05        		.uleb128 0x5
 3127 054b 02        		.byte	0x2
 3128 054c 0000 0000 		.long	.LM156
 3129 0550 15        		.byte	0x15
 3130 0551 00        		.byte	0x0
 3131 0552 05        		.uleb128 0x5
 3132 0553 02        		.byte	0x2
 3133 0554 0000 0000 		.long	.LM157
 3134 0558 16        		.byte	0x16
 3135 0559 00        		.byte	0x0
 3136 055a 05        		.uleb128 0x5
 3137 055b 02        		.byte	0x2
 3138 055c 0000 0000 		.long	.LM158
 3139 0560 15        		.byte	0x15
 3140 0561 00        		.byte	0x0
 3141 0562 05        		.uleb128 0x5
 3142 0563 02        		.byte	0x2
 3143 0564 0000 0000 		.long	.LM159
 3144 0568 03        		.byte	0x3
 3145 0569 6E        		.sleb128 -18
 3146 056a 01        		.byte	0x1
 3147 056b 00        		.byte	0x0
GAS LISTING C:\Users\ADMINI~1\AppData\Local\Temp/cce2Fewp.s 			page 57


 3148 056c 05        		.uleb128 0x5
 3149 056d 02        		.byte	0x2
 3150 056e 0000 0000 		.long	.LM160
 3151 0572 15        		.byte	0x15
 3152 0573 00        		.byte	0x0
 3153 0574 05        		.uleb128 0x5
 3154 0575 02        		.byte	0x2
 3155 0576 0000 0000 		.long	.LM161
 3156 057a 16        		.byte	0x16
 3157 057b 00        		.byte	0x0
 3158 057c 05        		.uleb128 0x5
 3159 057d 02        		.byte	0x2
 3160 057e 0000 0000 		.long	.LM162
 3161 0582 15        		.byte	0x15
 3162 0583 00        		.byte	0x0
 3163 0584 05        		.uleb128 0x5
 3164 0585 02        		.byte	0x2
 3165 0586 0000 0000 		.long	.LM163
 3166 058a 15        		.byte	0x15
 3167 058b 00        		.byte	0x0
 3168 058c 05        		.uleb128 0x5
 3169 058d 02        		.byte	0x2
 3170 058e 0000 0000 		.long	.LM164
 3171 0592 16        		.byte	0x16
 3172 0593 00        		.byte	0x0
 3173 0594 05        		.uleb128 0x5
 3174 0595 02        		.byte	0x2
 3175 0596 0000 0000 		.long	.LM165
 3176 059a 15        		.byte	0x15
 3177 059b 00        		.byte	0x0
 3178 059c 05        		.uleb128 0x5
 3179 059d 02        		.byte	0x2
 3180 059e 0000 0000 		.long	.LM166
 3181 05a2 16        		.byte	0x16
 3182 05a3 00        		.byte	0x0
 3183 05a4 05        		.uleb128 0x5
 3184 05a5 02        		.byte	0x2
 3185 05a6 0000 0000 		.long	.LM167
 3186 05aa 03        		.byte	0x3
 3187 05ab 68        		.sleb128 -24
 3188 05ac 01        		.byte	0x1
 3189 05ad 00        		.byte	0x0
 3190 05ae 05        		.uleb128 0x5
 3191 05af 02        		.byte	0x2
 3192 05b0 0000 0000 		.long	.LM168
 3193 05b4 15        		.byte	0x15
 3194 05b5 00        		.byte	0x0
 3195 05b6 05        		.uleb128 0x5
 3196 05b7 02        		.byte	0x2
 3197 05b8 0000 0000 		.long	.LM169
 3198 05bc 16        		.byte	0x16
 3199 05bd 00        		.byte	0x0
 3200 05be 05        		.uleb128 0x5
 3201 05bf 02        		.byte	0x2
 3202 05c0 0000 0000 		.long	.LM170
 3203 05c4 15        		.byte	0x15
 3204 05c5 00        		.byte	0x0
GAS LISTING C:\Users\ADMINI~1\AppData\Local\Temp/cce2Fewp.s 			page 58


 3205 05c6 05        		.uleb128 0x5
 3206 05c7 02        		.byte	0x2
 3207 05c8 0000 0000 		.long	.LM171
 3208 05cc 15        		.byte	0x15
 3209 05cd 00        		.byte	0x0
 3210 05ce 05        		.uleb128 0x5
 3211 05cf 02        		.byte	0x2
 3212 05d0 0000 0000 		.long	.LM172
 3213 05d4 16        		.byte	0x16
 3214 05d5 00        		.byte	0x0
 3215 05d6 05        		.uleb128 0x5
 3216 05d7 02        		.byte	0x2
 3217 05d8 0000 0000 		.long	.LM173
 3218 05dc 16        		.byte	0x16
 3219 05dd 00        		.byte	0x0
 3220 05de 05        		.uleb128 0x5
 3221 05df 02        		.byte	0x2
 3222 05e0 0000 0000 		.long	.LM174
 3223 05e4 15        		.byte	0x15
 3224 05e5 00        		.byte	0x0
 3225 05e6 05        		.uleb128 0x5
 3226 05e7 02        		.byte	0x2
 3227 05e8 0000 0000 		.long	.LM175
 3228 05ec 16        		.byte	0x16
 3229 05ed 00        		.byte	0x0
 3230 05ee 05        		.uleb128 0x5
 3231 05ef 02        		.byte	0x2
 3232 05f0 0000 0000 		.long	.LM176
 3233 05f4 2E        		.byte	0x2e
 3234 05f5 00        		.byte	0x0
 3235 05f6 05        		.uleb128 0x5
 3236 05f7 02        		.byte	0x2
 3237 05f8 0000 0000 		.long	.LM177
 3238 05fc 16        		.byte	0x16
 3239 05fd 00        		.byte	0x0
 3240 05fe 05        		.uleb128 0x5
 3241 05ff 02        		.byte	0x2
 3242 0600 0000 0000 		.long	.LM178
 3243 0604 15        		.byte	0x15
 3244 0605 00        		.byte	0x0
 3245 0606 05        		.uleb128 0x5
 3246 0607 02        		.byte	0x2
 3247 0608 0000 0000 		.long	.LM179
 3248 060c 1A        		.byte	0x1a
 3249 060d 00        		.byte	0x0
 3250 060e 05        		.uleb128 0x5
 3251 060f 02        		.byte	0x2
 3252 0610 0000 0000 		.long	.LM180
 3253 0614 18        		.byte	0x18
 3254 0615 00        		.byte	0x0
 3255 0616 05        		.uleb128 0x5
 3256 0617 02        		.byte	0x2
 3257 0618 0000 0000 		.long	.LM181
 3258 061c 15        		.byte	0x15
 3259 061d 00        		.byte	0x0
 3260 061e 05        		.uleb128 0x5
 3261 061f 02        		.byte	0x2
GAS LISTING C:\Users\ADMINI~1\AppData\Local\Temp/cce2Fewp.s 			page 59


 3262 0620 0000 0000 		.long	.LM182
 3263 0624 19        		.byte	0x19
 3264 0625 00        		.byte	0x0
 3265 0626 05        		.uleb128 0x5
 3266 0627 02        		.byte	0x2
 3267 0628 0000 0000 		.long	.LM183
 3268 062c 15        		.byte	0x15
 3269 062d 00        		.byte	0x0
 3270 062e 05        		.uleb128 0x5
 3271 062f 02        		.byte	0x2
 3272 0630 0000 0000 		.long	.LM184
 3273 0634 16        		.byte	0x16
 3274 0635 00        		.byte	0x0
 3275 0636 05        		.uleb128 0x5
 3276 0637 02        		.byte	0x2
 3277 0638 0000 0000 		.long	.LM185
 3278 063c 15        		.byte	0x15
 3279 063d 00        		.byte	0x0
 3280 063e 05        		.uleb128 0x5
 3281 063f 02        		.byte	0x2
 3282 0640 0000 0000 		.long	.LM186
 3283 0644 15        		.byte	0x15
 3284 0645 00        		.byte	0x0
 3285 0646 05        		.uleb128 0x5
 3286 0647 02        		.byte	0x2
 3287 0648 0000 0000 		.long	.LM187
 3288 064c 16        		.byte	0x16
 3289 064d 00        		.byte	0x0
 3290 064e 05        		.uleb128 0x5
 3291 064f 02        		.byte	0x2
 3292 0650 0000 0000 		.long	.LM188
 3293 0654 16        		.byte	0x16
 3294 0655 00        		.byte	0x0
 3295 0656 05        		.uleb128 0x5
 3296 0657 02        		.byte	0x2
 3297 0658 0000 0000 		.long	.Letext0
 3298 065c 00        		.byte	0x0
 3299 065d 01        		.uleb128 0x1
 3300 065e 01        		.byte	0x1
 3301               	.LELT0:
 3302 065f 1600 0000 		.section	.debug_str,"MS",@progbits,1
 3302      0200 1000 
 3302      0000 0101 
 3302      FB0E 0A00 
 3302      0101 0101 
 3303               	.LASF58:
 3304 0000 474E 5520 		.string	"GNU C 4.3.3"
 3304      4320 342E 
 3304      332E 3300 
 3305               	.LASF56:
 3306 000c 6C65 6442 		.string	"ledBrightnessMin"
 3306      7269 6768 
 3306      746E 6573 
 3306      734D 696E 
 3306      00
 3307               	.LASF46:
 3308 001d 7363 726F 		.string	"scrollLockLED"
GAS LISTING C:\Users\ADMINI~1\AppData\Local\Temp/cce2Fewp.s 			page 60


 3308      6C6C 4C6F 
 3308      636B 4C45 
 3308      4400 
 3309               	.LASF15:
 3310 002b 6265 796F 		.string	"beyondFNDelayCounter"
 3310      6E64 464E 
 3310      4465 6C61 
 3310      7943 6F75 
 3310      6E74 6572 
 3311               	.LASF3:
 3312 0040 7368 6F72 		.string	"short int"
 3312      7420 696E 
 3312      7400 
 3313               	.LASF24:
 3314 004a 7072 6576 		.string	"prevSCRLED"
 3314      5343 524C 
 3314      4544 00
 3315               	.LASF43:
 3316 0055 646F 776E 		.string	"downLevelLife"
 3316      4C65 7665 
 3316      6C4C 6966 
 3316      6500 
 3317               	.LASF50:
 3318 0063 7077 6D44 		.string	"pwmDir"
 3318      6972 00
 3319               	.LASF22:
 3320 006a 7365 744C 		.string	"setLEDState"
 3320      4544 5374 
 3320      6174 6500 
 3321               	.LASF38:
 3322 0076 674C 6564 		.string	"gLedBrightness"
 3322      4272 6967 
 3322      6874 6E65 
 3322      7373 00
 3323               	.LASF42:
 3324 0085 646F 776E 		.string	"downLevelMax"
 3324      4C65 7665 
 3324      6C4D 6178 
 3324      00
 3325               	.LASF26:
 3326 0092 6170 706C 		.string	"applyKeyDownForFullLED"
 3326      794B 6579 
 3326      446F 776E 
 3326      466F 7246 
 3326      756C 6C4C 
 3327               	.LASF10:
 3328 00a9 7569 6E74 		.string	"uint8_t"
 3328      385F 7400 
 3329               	.LASF41:
 3330 00b1 646F 776E 		.string	"downLevel"
 3330      4C65 7665 
 3330      6C00 
 3331               	.LASF32:
 3332 00bb 7265 6E64 		.string	"renderLED"
 3332      6572 4C45 
 3332      4400 
 3333               	.LASF45:
GAS LISTING C:\Users\ADMINI~1\AppData\Local\Temp/cce2Fewp.s 			page 61


 3334 00c5 4C45 4473 		.string	"LEDstate"
 3334      7461 7465 
 3334      00
 3335               	.LASF34:
 3336 00ce 7761 6B65 		.string	"wakeUpLED"
 3336      5570 4C45 
 3336      4400 
 3337               	.LASF27:
 3338 00d8 7853 7461 		.string	"xState"
 3338      7465 00
 3339               	.LASF60:
 3340 00df 443A 5C67 		.string	"D:\\git2\\ps2avrU\\.git\\source"
 3340      6974 325C 
 3340      7073 3261 
 3340      7672 555C 
 3340      2E67 6974 
 3341               	.LASF59:
 3342 00fb 6C65 6472 		.string	"ledrender.c"
 3342      656E 6465 
 3342      722E 6300 
 3343               	.LASF61:
 3344 0107 6765 744C 		.string	"getLEDState"
 3344      4544 5374 
 3344      6174 6500 
 3345               	.LASF7:
 3346 0113 6C6F 6E67 		.string	"long long int"
 3346      206C 6F6E 
 3346      6720 696E 
 3346      7400 
 3347               	.LASF5:
 3348 0121 6C6F 6E67 		.string	"long int"
 3348      2069 6E74 
 3348      00
 3349               	.LASF53:
 3350 012a 6C65 6453 		.string	"ledStateCount"
 3350      7461 7465 
 3350      436F 756E 
 3350      7400 
 3351               	.LASF25:
 3352 0138 636C 6561 		.string	"clearLEDInited"
 3352      724C 4544 
 3352      496E 6974 
 3352      6564 00
 3353               	.LASF36:
 3354 0147 7265 6475 		.string	"reduceLedBrightness"
 3354      6365 4C65 
 3354      6442 7269 
 3354      6768 746E 
 3354      6573 7300 
 3355               	.LASF28:
 3356 015b 7856 616C 		.string	"xValue"
 3356      7565 00
 3357               	.LASF16:
 3358 0162 6265 796F 		.string	"beyondFNLEDState"
 3358      6E64 464E 
 3358      4C45 4453 
 3358      7461 7465 
GAS LISTING C:\Users\ADMINI~1\AppData\Local\Temp/cce2Fewp.s 			page 62


 3358      00
 3359               	.LASF13:
 3360 0173 6265 796F 		.string	"beyondFNCountDelay"
 3360      6E64 464E 
 3360      436F 756E 
 3360      7444 656C 
 3360      6179 00
 3361               	.LASF0:
 3362 0186 756E 7369 		.string	"unsigned char"
 3362      676E 6564 
 3362      2063 6861 
 3362      7200 
 3363               	.LASF40:
 3364 0194 646F 776E 		.string	"downLevelStay"
 3364      4C65 7665 
 3364      6C53 7461 
 3364      7900 
 3365               	.LASF20:
 3366 01a2 636F 756E 		.string	"counter"
 3366      7465 7200 
 3367               	.LASF12:
 3368 01aa 6265 796F 		.string	"beyondFNCountMAX"
 3368      6E64 464E 
 3368      436F 756E 
 3368      744D 4158 
 3368      00
 3369               	.LASF47:
 3370 01bb 5F66 756C 		.string	"_fullLEDMode"
 3370      6C4C 4544 
 3370      4D6F 6465 
 3370      00
 3371               	.LASF33:
 3372 01c8 7849 7342 		.string	"xIsBeyondFN"
 3372      6579 6F6E 
 3372      6446 4E00 
 3373               	.LASF17:
 3374 01d4 626C 696E 		.string	"blinkBeyondFNLED"
 3374      6B42 6579 
 3374      6F6E 6446 
 3374      4E4C 4544 
 3374      00
 3375               	.LASF39:
 3376 01e5 696E 6974 		.string	"initFullLEDState"
 3376      4675 6C6C 
 3376      4C45 4453 
 3376      7461 7465 
 3376      00
 3377               	.LASF1:
 3378 01f6 7369 676E 		.string	"signed char"
 3378      6564 2063 
 3378      6861 7200 
 3379               	.LASF6:
 3380 0202 6C6F 6E67 		.string	"long long unsigned int"
 3380      206C 6F6E 
 3380      6720 756E 
 3380      7369 676E 
 3380      6564 2069 
GAS LISTING C:\Users\ADMINI~1\AppData\Local\Temp/cce2Fewp.s 			page 63


 3381               	.LASF19:
 3382 0219 636F 756E 		.string	"countMAX"
 3382      744D 4158 
 3382      00
 3383               	.LASF35:
 3384 0222 6368 616E 		.string	"changeFullLedState"
 3384      6765 4675 
 3384      6C6C 4C65 
 3384      6453 7461 
 3384      7465 00
 3385               	.LASF8:
 3386 0235 756E 7369 		.string	"unsigned int"
 3386      676E 6564 
 3386      2069 6E74 
 3386      00
 3387               	.LASF11:
 3388 0242 7569 6E74 		.string	"uint16_t"
 3388      3136 5F74 
 3388      00
 3389               	.LASF48:
 3390 024b 5F66 756C 		.string	"_fullLEDMode_saved"
 3390      6C4C 4544 
 3390      4D6F 6465 
 3390      5F73 6176 
 3390      6564 00
 3391               	.LASF51:
 3392 025e 7370 6565 		.string	"speed"
 3392      6400 
 3393               	.LASF49:
 3394 0264 7077 6D43 		.string	"pwmCounter"
 3394      6F75 6E74 
 3394      6572 00
 3395               	.LASF64:
 3396 026f 7365 7446 		.string	"setFullLEDState"
 3396      756C 6C4C 
 3396      4544 5374 
 3396      6174 6500 
 3397               	.LASF2:
 3398 027f 7368 6F72 		.string	"short unsigned int"
 3398      7420 756E 
 3398      7369 676E 
 3398      6564 2069 
 3398      6E74 00
 3399               	.LASF14:
 3400 0292 6265 796F 		.string	"beyondFNCounter"
 3400      6E64 464E 
 3400      436F 756E 
 3400      7465 7200 
 3401               	.LASF37:
 3402 02a2 696E 6372 		.string	"increaseLedBrightness"
 3402      6561 7365 
 3402      4C65 6442 
 3402      7269 6768 
 3402      746E 6573 
 3403               	.LASF9:
 3404 02b8 6368 6172 		.string	"char"
 3404      00
GAS LISTING C:\Users\ADMINI~1\AppData\Local\Temp/cce2Fewp.s 			page 64


 3405               	.LASF54:
 3406 02bd 5F6C 6564 		.string	"_ledBrightnessMax"
 3406      4272 6967 
 3406      6874 6E65 
 3406      7373 4D61 
 3406      7800 
 3407               	.LASF44:
 3408 02cf 6C65 6449 		.string	"ledInited"
 3408      6E69 7465 
 3408      6400 
 3409               	.LASF21:
 3410 02d9 7772 6974 		.string	"writeLEDMode"
 3410      654C 4544 
 3410      4D6F 6465 
 3410      00
 3411               	.LASF29:
 3412 02e6 6756 616C 		.string	"gVal"
 3412      00
 3413               	.LASF52:
 3414 02eb 5F69 7344 		.string	"_isDidSleep"
 3414      6964 536C 
 3414      6565 7000 
 3415               	.LASF4:
 3416 02f7 6C6F 6E67 		.string	"long unsigned int"
 3416      2075 6E73 
 3416      6967 6E65 
 3416      6420 696E 
 3416      7400 
 3417               	.LASF23:
 3418 0309 7365 744C 		.string	"setLEDIndicate"
 3418      4544 496E 
 3418      6469 6361 
 3418      7465 00
 3419               	.LASF63:
 3420 0318 6661 6465 		.string	"fadeLED"
 3420      4C45 4400 
 3421               	.LASF31:
 3422 0320 646F 536C 		.string	"doSleep"
 3422      6565 7000 
 3423               	.LASF62:
 3424 0328 6765 7442 		.string	"getBrightness"
 3424      7269 6768 
 3424      746E 6573 
 3424      7300 
 3425               	.LASF55:
 3426 0336 5F6C 6564 		.string	"_ledBrightnessMax_saved"
 3426      4272 6967 
 3426      6874 6E65 
 3426      7373 4D61 
 3426      785F 7361 
 3427               	.LASF30:
 3428 034e 736C 6565 		.string	"sleepLED"
 3428      704C 4544 
 3428      00
 3429               	.LASF18:
 3430 0357 626C 696E 		.string	"blinkScrollLockLED"
 3430      6B53 6372 
GAS LISTING C:\Users\ADMINI~1\AppData\Local\Temp/cce2Fewp.s 			page 65


 3430      6F6C 6C4C 
 3430      6F63 6B4C 
 3430      4544 00
 3431               	.LASF57:
 3432 036a 6C65 6442 		.string	"ledBrightnessStep"
 3432      7269 6768 
 3432      746E 6573 
 3432      7353 7465 
 3432      7000 
 3433               	.global __do_copy_data
 3434               	.global __do_clear_bss
GAS LISTING C:\Users\ADMINI~1\AppData\Local\Temp/cce2Fewp.s 			page 66


DEFINED SYMBOLS
                            *ABS*:00000000 ledrender.c
C:\Users\ADMINI~1\AppData\Local\Temp/cce2Fewp.s:2      *ABS*:0000003f __SREG__
C:\Users\ADMINI~1\AppData\Local\Temp/cce2Fewp.s:3      *ABS*:0000003e __SP_H__
C:\Users\ADMINI~1\AppData\Local\Temp/cce2Fewp.s:4      *ABS*:0000003d __SP_L__
C:\Users\ADMINI~1\AppData\Local\Temp/cce2Fewp.s:5      *ABS*:00000034 __CCP__
C:\Users\ADMINI~1\AppData\Local\Temp/cce2Fewp.s:6      *ABS*:00000000 __tmp_reg__
C:\Users\ADMINI~1\AppData\Local\Temp/cce2Fewp.s:7      *ABS*:00000001 __zero_reg__
C:\Users\ADMINI~1\AppData\Local\Temp/cce2Fewp.s:18     .text:00000000 setLEDState
C:\Users\ADMINI~1\AppData\Local\Temp/cce2Fewp.s:1005   .bss:00000016 LEDstate
C:\Users\ADMINI~1\AppData\Local\Temp/cce2Fewp.s:33     .text:00000006 getLEDState
C:\Users\ADMINI~1\AppData\Local\Temp/cce2Fewp.s:46     .text:0000000c clearLEDInited
                             .bss:00000000 ledInited
C:\Users\ADMINI~1\AppData\Local\Temp/cce2Fewp.s:60     .text:00000012 setLEDIndicate
C:\Users\ADMINI~1\AppData\Local\Temp/cce2Fewp.s:1006   .bss:00000017 prevSCRLED.1857
C:\Users\ADMINI~1\AppData\Local\Temp/cce2Fewp.s:989    .bss:00000005 scrollLockLED
C:\Users\ADMINI~1\AppData\Local\Temp/cce2Fewp.s:142    .text:00000074 applyKeyDownForFullLED
C:\Users\ADMINI~1\AppData\Local\Temp/cce2Fewp.s:992    .bss:0000000a _fullLEDMode
C:\Users\ADMINI~1\AppData\Local\Temp/cce2Fewp.s:1001   .bss:00000011 downLevelStay
C:\Users\ADMINI~1\AppData\Local\Temp/cce2Fewp.s:1003   .bss:00000014 downLevel
C:\Users\ADMINI~1\AppData\Local\Temp/cce2Fewp.s:1002   .bss:00000013 downLevelLife
C:\Users\ADMINI~1\AppData\Local\Temp/cce2Fewp.s:203    .text:000000e0 getBrightness
C:\Users\ADMINI~1\AppData\Local\Temp/cce2Fewp.s:998    .data:00000001 _ledBrightnessMax
C:\Users\ADMINI~1\AppData\Local\Temp/cce2Fewp.s:232    .text:00000102 sleepLED
C:\Users\ADMINI~1\AppData\Local\Temp/cce2Fewp.s:1000   .bss:0000000f pwmCounter
C:\Users\ADMINI~1\AppData\Local\Temp/cce2Fewp.s:1004   .bss:00000015 _isDidSleep
C:\Users\ADMINI~1\AppData\Local\Temp/cce2Fewp.s:273    .text:00000134 doSleep
C:\Users\ADMINI~1\AppData\Local\Temp/cce2Fewp.s:324    .text:00000192 renderLED
C:\Users\ADMINI~1\AppData\Local\Temp/cce2Fewp.s:982    .bss:00000001 beyondFNDelayCounter.1945
C:\Users\ADMINI~1\AppData\Local\Temp/cce2Fewp.s:988    .bss:00000003 beyondFNCounter.1944
C:\Users\ADMINI~1\AppData\Local\Temp/cce2Fewp.s:986    .data:00000000 beyondFNLEDState.1946
C:\Users\ADMINI~1\AppData\Local\Temp/cce2Fewp.s:990    .bss:00000006 counter.1971
C:\Users\ADMINI~1\AppData\Local\Temp/cce2Fewp.s:991    .bss:00000008 ledStateCount
C:\Users\ADMINI~1\AppData\Local\Temp/cce2Fewp.s:993    .bss:0000000b _fullLEDMode_saved
C:\Users\ADMINI~1\AppData\Local\Temp/cce2Fewp.s:994    .bss:0000000c _ledBrightnessMax_saved
C:\Users\ADMINI~1\AppData\Local\Temp/cce2Fewp.s:995    .bss:0000000d pwmDir
C:\Users\ADMINI~1\AppData\Local\Temp/cce2Fewp.s:746    .text:000004a2 setFullLEDState
C:\Users\ADMINI~1\AppData\Local\Temp/cce2Fewp.s:811    .text:00000508 wakeUpLED
C:\Users\ADMINI~1\AppData\Local\Temp/cce2Fewp.s:827    .text:00000512 changeFullLedState
C:\Users\ADMINI~1\AppData\Local\Temp/cce2Fewp.s:854    .text:00000538 reduceLedBrightness
C:\Users\ADMINI~1\AppData\Local\Temp/cce2Fewp.s:891    .text:0000056a increaseLedBrightness
C:\Users\ADMINI~1\AppData\Local\Temp/cce2Fewp.s:936    .text:0000059e initFullLEDState

UNDEFINED SYMBOLS
__divmodhi4
timer1PWMBSet
isSleep
__eewr_byte_m32
timer1Init
timer1PWMInit
timer1PWMBOn
__eerd_byte_m32
__do_copy_data
__do_clear_bss
