GAS LISTING C:\Users\ADMINI~1\AppData\Local\Temp/cc0XRo0k.s 			page 1


   1               		.file	"ledrender.c"
   2               	__SREG__ = 0x3f
   3               	__SP_H__ = 0x3e
   4               	__SP_L__ = 0x3d
   5               	__CCP__  = 0x34
   6               	__tmp_reg__ = 0
   7               	__zero_reg__ = 1
   8               		.section	.debug_abbrev,"",@progbits
   9               	.Ldebug_abbrev0:
  10               		.section	.debug_info,"",@progbits
  11               	.Ldebug_info0:
  12               		.section	.debug_line,"",@progbits
  13               	.Ldebug_line0:
  14               		.text
  15               	.Ltext0:
  16               	.global	setLEDState
  17               		.type	setLEDState, @function
  18               	setLEDState:
  19               	.LFB8:
  20               	.LM1:
  21               	.LVL0:
  22               	/* prologue: function */
  23               	/* frame size = 0 */
  24               	.LM2:
  25 0000 8093 0000 		sts LEDstate,r24
  26               	/* epilogue start */
  27               	.LM3:
  28 0004 0895      		ret
  29               	.LFE8:
  30               		.size	setLEDState, .-setLEDState
  31               	.global	getLEDState
  32               		.type	getLEDState, @function
  33               	getLEDState:
  34               	.LFB9:
  35               	.LM4:
  36               	/* prologue: function */
  37               	/* frame size = 0 */
  38               	.LM5:
  39 0006 8091 0000 		lds r24,LEDstate
  40               	/* epilogue start */
  41 000a 0895      		ret
  42               	.LFE9:
  43               		.size	getLEDState, .-getLEDState
  44               	.global	clearLEDInited
  45               		.type	clearLEDInited, @function
  46               	clearLEDInited:
  47               	.LFB14:
  48               	.LM6:
  49               	/* prologue: function */
  50               	/* frame size = 0 */
  51               	.LM7:
  52 000c 1092 0000 		sts ledInited,__zero_reg__
  53               	/* epilogue start */
  54               	.LM8:
  55 0010 0895      		ret
  56               	.LFE14:
  57               		.size	clearLEDInited, .-clearLEDInited
GAS LISTING C:\Users\ADMINI~1\AppData\Local\Temp/cc0XRo0k.s 			page 2


  58               	.global	setLEDIndicate
  59               		.type	setLEDIndicate, @function
  60               	setLEDIndicate:
  61               	.LFB16:
  62               	.LM9:
  63               	/* prologue: function */
  64               	/* frame size = 0 */
  65               	.LM10:
  66 0012 8091 0000 		lds r24,LEDstate
  67 0016 90E0      		ldi r25,lo8(0)
  68 0018 80FF      		sbrs r24,0
  69 001a 00C0      		rjmp .L8
  70               	.LM11:
  71 001c 909A      		sbi 50-32,0
  72 001e 00C0      		rjmp .L9
  73               	.L8:
  74               	.LM12:
  75 0020 9098      		cbi 50-32,0
  76               	.L9:
  77               	.LM13:
  78 0022 AC01      		movw r20,r24
  79 0024 4270      		andi r20,lo8(2)
  80 0026 5070      		andi r21,hi8(2)
  81 0028 81FF      		sbrs r24,1
  82 002a 00C0      		rjmp .L10
  83               	.LM14:
  84 002c 919A      		sbi 50-32,1
  85 002e 00C0      		rjmp .L11
  86               	.L10:
  87               	.LM15:
  88 0030 9198      		cbi 50-32,1
  89               	.L11:
  90 0032 2091 0000 		lds r18,prevSCRLED.2290
  91               	.LM16:
  92 0036 82FF      		sbrs r24,2
  93 0038 00C0      		rjmp .L12
  94               	.LM17:
  95 003a 969A      		sbi 50-32,6
  96               	.LM18:
  97 003c 2223      		tst r18
  98 003e 01F4      		brne .L18
  99 0040 00C0      		rjmp .L21
 100               	.L12:
 101               	.LM19:
 102 0042 9698      		cbi 50-32,6
 103               	.LM20:
 104 0044 2130      		cpi r18,lo8(1)
 105 0046 01F4      		brne .L18
 106 0048 00C0      		rjmp .L22
 107               	.L21:
 108               	.LM21:
 109 004a 81E0      		ldi r24,lo8(1)
 110 004c 8093 0000 		sts prevSCRLED.2290,r24
 111               	.LM22:
 112 0050 452B      		or r20,r21
 113 0052 01F4      		brne .L16
 114               	.LM23:
GAS LISTING C:\Users\ADMINI~1\AppData\Local\Temp/cc0XRo0k.s 			page 3


 115 0054 85E0      		ldi r24,lo8(5)
 116 0056 00C0      		rjmp .L20
 117               	.L16:
 118               	.LM24:
 119 0058 84E0      		ldi r24,lo8(4)
 120 005a 00C0      		rjmp .L20
 121               	.L22:
 122               	.LM25:
 123 005c 1092 0000 		sts prevSCRLED.2290,__zero_reg__
 124               	.LM26:
 125 0060 452B      		or r20,r21
 126 0062 01F4      		brne .L17
 127               	.LM27:
 128 0064 83E0      		ldi r24,lo8(3)
 129               	.L20:
 130 0066 8093 0000 		sts scrollLockLED,r24
 131 006a 0895      		ret
 132               	.L17:
 133               	.LM28:
 134 006c 82E0      		ldi r24,lo8(2)
 135 006e 8093 0000 		sts scrollLockLED,r24
 136               	.L18:
 137 0072 0895      		ret
 138               	.LFE16:
 139               		.size	setLEDIndicate, .-setLEDIndicate
 140               	.global	applyKeyDownForFullLED
 141               		.type	applyKeyDownForFullLED, @function
 142               	applyKeyDownForFullLED:
 143               	.LFB17:
 144               	.LM29:
 145               	/* prologue: function */
 146               	/* frame size = 0 */
 147               	.LM30:
 148 0074 8091 0000 		lds r24,_fullLEDMode
 149 0078 8330      		cpi r24,lo8(3)
 150 007a 01F4      		brne .L24
 151               	.LM31:
 152 007c 8FEF      		ldi r24,lo8(511)
 153 007e 91E0      		ldi r25,hi8(511)
 154 0080 9093 0000 		sts (downLevelStay)+1,r25
 155 0084 8093 0000 		sts downLevelStay,r24
 156               	.LM32:
 157 0088 8091 0000 		lds r24,downLevel
 158 008c 8C30      		cpi r24,lo8(12)
 159 008e 00F4      		brsh .L26
 160               	.LM33:
 161 0090 8F5F      		subi r24,lo8(-(1))
 162 0092 8093 0000 		sts downLevel,r24
 163               	.LM34:
 164 0096 9FEF      		ldi r25,lo8(-1)
 165 0098 899F      		mul r24,r25
 166 009a C001      		movw r24,r0
 167 009c 1124      		clr r1
 168 009e 6CE0      		ldi r22,lo8(12)
 169 00a0 70E0      		ldi r23,hi8(12)
 170 00a2 0E94 0000 		call __divmodhi4
 171 00a6 6093 0000 		sts downLevelLife,r22
GAS LISTING C:\Users\ADMINI~1\AppData\Local\Temp/cc0XRo0k.s 			page 4


 172 00aa 0895      		ret
 173               	.L24:
 174               	.LM35:
 175 00ac 8430      		cpi r24,lo8(4)
 176 00ae 01F4      		brne .L26
 177               	.LM36:
 178 00b0 8FEF      		ldi r24,lo8(511)
 179 00b2 91E0      		ldi r25,hi8(511)
 180 00b4 9093 0000 		sts (downLevelStay)+1,r25
 181 00b8 8093 0000 		sts downLevelStay,r24
 182               	.LM37:
 183 00bc 8091 0000 		lds r24,downLevel
 184 00c0 8823      		tst r24
 185 00c2 01F0      		breq .L26
 186               	.LM38:
 187 00c4 8150      		subi r24,lo8(-(-1))
 188 00c6 8093 0000 		sts downLevel,r24
 189               	.LM39:
 190 00ca 9FEF      		ldi r25,lo8(-1)
 191 00cc 899F      		mul r24,r25
 192 00ce C001      		movw r24,r0
 193 00d0 1124      		clr r1
 194 00d2 6CE0      		ldi r22,lo8(12)
 195 00d4 70E0      		ldi r23,hi8(12)
 196 00d6 0E94 0000 		call __divmodhi4
 197 00da 6093 0000 		sts downLevelLife,r22
 198               	.L26:
 199 00de 0895      		ret
 200               	.LFE17:
 201               		.size	applyKeyDownForFullLED, .-applyKeyDownForFullLED
 202               		.type	getBrightness, @function
 203               	getBrightness:
 204               	.LFB19:
 205               	.LM40:
 206               	.LVL1:
 207               	/* prologue: function */
 208               	/* frame size = 0 */
 209               	.LM41:
 210 00e0 2091 0000 		lds r18,_ledBrightnessMax
 211 00e4 30E0      		ldi r19,lo8(0)
 212 00e6 AC01      		movw r20,r24
 213 00e8 429F      		mul r20,r18
 214 00ea C001      		movw r24,r0
 215 00ec 439F      		mul r20,r19
 216 00ee 900D      		add r25,r0
 217 00f0 529F      		mul r21,r18
 218 00f2 900D      		add r25,r0
 219 00f4 1124      		clr r1
 220               	.LVL2:
 221 00f6 6FEF      		ldi r22,lo8(255)
 222 00f8 70E0      		ldi r23,hi8(255)
 223 00fa 0E94 0000 		call __divmodhi4
 224 00fe CB01      		movw r24,r22
 225               	/* epilogue start */
 226               	.LM42:
 227 0100 0895      		ret
 228               	.LFE19:
GAS LISTING C:\Users\ADMINI~1\AppData\Local\Temp/cc0XRo0k.s 			page 5


 229               		.size	getBrightness, .-getBrightness
 230               	.global	sleepLED
 231               		.type	sleepLED, @function
 232               	sleepLED:
 233               	.LFB23:
 234               	.LM43:
 235               	/* prologue: function */
 236               	/* frame size = 0 */
 237               	.LM44:
 238 0102 9098      		cbi 50-32,0
 239               	.LM45:
 240 0104 9198      		cbi 50-32,1
 241               	.LM46:
 242 0106 9698      		cbi 50-32,6
 243               	.LM47:
 244 0108 8091 0000 		lds r24,_fullLEDMode
 245 010c 8230      		cpi r24,lo8(2)
 246 010e 01F0      		breq .L30
 247 0110 8430      		cpi r24,lo8(4)
 248 0112 01F4      		brne .L31
 249               	.L30:
 250               	.LM48:
 251 0114 1092 0000 		sts (pwmCounter)+1,__zero_reg__
 252 0118 1092 0000 		sts pwmCounter,__zero_reg__
 253 011c 00C0      		rjmp .L34
 254               	.L31:
 255               	.LM49:
 256 011e 8823      		tst r24
 257 0120 01F0      		breq .L33
 258 0122 8330      		cpi r24,lo8(3)
 259 0124 01F4      		brne .L34
 260               	.L33:
 261               	.LM50:
 262 0126 81E0      		ldi r24,lo8(1)
 263 0128 8093 0000 		sts _isDidSleep,r24
 264 012c 0895      		ret
 265               	.L34:
 266               	.LM51:
 267 012e 1092 0000 		sts _isDidSleep,__zero_reg__
 268 0132 0895      		ret
 269               	.LFE23:
 270               		.size	sleepLED, .-sleepLED
 271               	.global	doSleep
 272               		.type	doSleep, @function
 273               	doSleep:
 274               	.LFB25:
 275               	.LM52:
 276               	/* prologue: function */
 277               	/* frame size = 0 */
 278               	.LM53:
 279 0134 8091 0000 		lds r24,_isDidSleep
 280 0138 8130      		cpi r24,lo8(1)
 281 013a 01F0      		breq .L39
 282               	.LM54:
 283 013c 8091 0000 		lds r24,pwmCounter
 284 0140 9091 0000 		lds r25,(pwmCounter)+1
 285 0144 68E0      		ldi r22,lo8(8)
GAS LISTING C:\Users\ADMINI~1\AppData\Local\Temp/cc0XRo0k.s 			page 6


 286 0146 70E0      		ldi r23,hi8(8)
 287 0148 0E94 0000 		call __divmodhi4
 288 014c CB01      		movw r24,r22
 289 014e 9095      		com r25
 290 0150 8195      		neg r24
 291 0152 9F4F      		sbci r25,lo8(-1)
 292 0154 8150      		subi r24,lo8(-(255))
 293 0156 9F4F      		sbci r25,hi8(-(255))
 294 0158 0E94 0000 		call getBrightness
 295 015c 0E94 0000 		call timer1PWMBSet
 296               	.LM55:
 297 0160 8091 0000 		lds r24,pwmCounter
 298 0164 9091 0000 		lds r25,(pwmCounter)+1
 299 0168 885F      		subi r24,lo8(2040)
 300 016a 9740      		sbci r25,hi8(2040)
 301 016c 04F0      		brlt .L38
 302               	.LM56:
 303 016e 80E0      		ldi r24,lo8(0)
 304 0170 90E0      		ldi r25,hi8(0)
 305 0172 0E94 0000 		call timer1PWMBSet
 306               	.LM57:
 307 0176 9498      		cbi 50-32,4
 308               	.LM58:
 309 0178 81E0      		ldi r24,lo8(1)
 310 017a 8093 0000 		sts _isDidSleep,r24
 311               	.L38:
 312               	.LM59:
 313 017e 8091 0000 		lds r24,pwmCounter
 314 0182 9091 0000 		lds r25,(pwmCounter)+1
 315 0186 0196      		adiw r24,1
 316 0188 9093 0000 		sts (pwmCounter)+1,r25
 317 018c 8093 0000 		sts pwmCounter,r24
 318               	.L39:
 319 0190 0895      		ret
 320               	.LFE25:
 321               		.size	doSleep, .-doSleep
 322               	.global	renderLED
 323               		.type	renderLED, @function
 324               	renderLED:
 325               	.LFB26:
 326               	.LM60:
 327               	.LVL3:
 328 0192 1F93      		push r17
 329               	/* prologue: function */
 330               	/* frame size = 0 */
 331 0194 182F      		mov r17,r24
 332               	.LM61:
 333 0196 8091 0000 		lds r24,ledInited
 334               	.LVL4:
 335 019a 8823      		tst r24
 336 019c 01F4      		brne .+2
 337 019e 00C0      		rjmp .L74
 338               	.LM62:
 339 01a0 0E94 0000 		call isSleep
 340 01a4 8823      		tst r24
 341 01a6 01F0      		breq .L42
 342               	.LM63:
GAS LISTING C:\Users\ADMINI~1\AppData\Local\Temp/cc0XRo0k.s 			page 7


 343 01a8 0E94 0000 		call doSleep
 344 01ac 00C0      		rjmp .L74
 345               	.L42:
 346               	.LBB28:
 347               	.LM64:
 348 01ae 0E94 0000 		call isBootMapper
 349               	.LBB29:
 350 01b2 8823      		tst r24
 351 01b4 01F0      		breq .L43
 352 01b6 42E0      		ldi r20,lo8(2)
 353               	.LVL5:
 354 01b8 00C0      		rjmp .L44
 355               	.LVL6:
 356               	.L43:
 357               	.LM65:
 358 01ba 1130      		cpi r17,lo8(1)
 359 01bc 01F0      		breq .+2
 360 01be 00C0      		rjmp .L45
 361 01c0 41E0      		ldi r20,lo8(1)
 362               	.LVL7:
 363               	.L44:
 364               	.LM66:
 365 01c2 8091 0000 		lds r24,beyondFNDelayCounter.2378
 366 01c6 9091 0000 		lds r25,(beyondFNDelayCounter.2378)+1
 367 01ca 0196      		adiw r24,1
 368 01cc 9093 0000 		sts (beyondFNDelayCounter.2378)+1,r25
 369 01d0 8093 0000 		sts beyondFNDelayCounter.2378,r24
 370               	.LM67:
 371 01d4 2091 0000 		lds r18,beyondFNCountDelay
 372 01d8 3091 0000 		lds r19,(beyondFNCountDelay)+1
 373 01dc 2817      		cp r18,r24
 374 01de 3907      		cpc r19,r25
 375 01e0 04F4      		brge .L46
 376               	.LM68:
 377 01e2 8091 0000 		lds r24,beyondFNCounter.2377
 378 01e6 9091 0000 		lds r25,(beyondFNCounter.2377)+1
 379 01ea 0196      		adiw r24,1
 380 01ec 9093 0000 		sts (beyondFNCounter.2377)+1,r25
 381 01f0 8093 0000 		sts beyondFNCounter.2377,r24
 382               	.LM69:
 383 01f4 893C      		cpi r24,201
 384 01f6 9105      		cpc r25,__zero_reg__
 385 01f8 04F0      		brlt .L46
 386               	.LBE29:
 387               	.LM70:
 388 01fa 8091 0000 		lds r24,LEDstate
 389 01fe 9091 0000 		lds r25,beyondFNLEDState.2379
 390 0202 80FF      		sbrs r24,0
 391 0204 00C0      		rjmp .L47
 392               	.LBB30:
 393               	.LM71:
 394 0206 9130      		cpi r25,lo8(1)
 395 0208 01F4      		brne .L48
 396               	.LM72:
 397 020a 82B3      		in r24,50-32
 398 020c 4095      		com r20
 399 020e 4823      		and r20,r24
GAS LISTING C:\Users\ADMINI~1\AppData\Local\Temp/cc0XRo0k.s 			page 8


 400 0210 00C0      		rjmp .L75
 401               	.L48:
 402               	.LM73:
 403 0212 82B3      		in r24,50-32
 404 0214 482B      		or r20,r24
 405 0216 00C0      		rjmp .L76
 406               	.L47:
 407               	.LM74:
 408 0218 9130      		cpi r25,lo8(1)
 409 021a 01F4      		brne .L50
 410               	.LM75:
 411 021c 82B3      		in r24,50-32
 412 021e 482B      		or r20,r24
 413               	.L75:
 414 0220 42BB      		out 50-32,r20
 415 0222 00C0      		rjmp .L49
 416               	.L50:
 417               	.LM76:
 418 0224 82B3      		in r24,50-32
 419 0226 4095      		com r20
 420 0228 4823      		and r20,r24
 421               	.L76:
 422 022a 42BB      		out 50-32,r20
 423               	.LM77:
 424 022c 1092 0000 		sts (beyondFNDelayCounter.2378)+1,__zero_reg__
 425 0230 1092 0000 		sts beyondFNDelayCounter.2378,__zero_reg__
 426               	.L49:
 427               	.LM78:
 428 0234 8091 0000 		lds r24,beyondFNLEDState.2379
 429 0238 91E0      		ldi r25,lo8(1)
 430 023a 8927      		eor r24,r25
 431 023c 8093 0000 		sts beyondFNLEDState.2379,r24
 432               	.LM79:
 433 0240 1092 0000 		sts (beyondFNCounter.2377)+1,__zero_reg__
 434 0244 1092 0000 		sts beyondFNCounter.2377,__zero_reg__
 435 0248 00C0      		rjmp .L46
 436               	.LVL8:
 437               	.L45:
 438               	.LM80:
 439 024a 1092 0000 		sts (beyondFNCounter.2377)+1,__zero_reg__
 440 024e 1092 0000 		sts beyondFNCounter.2377,__zero_reg__
 441               	.LM81:
 442 0252 81E0      		ldi r24,lo8(1)
 443 0254 8093 0000 		sts beyondFNLEDState.2379,r24
 444               	.LVL9:
 445               	.L46:
 446               	.LBE30:
 447               	.LBE28:
 448               	.LBB31:
 449               	.LBB32:
 450               	.LM82:
 451 0258 2091 0000 		lds r18,scrollLockLED
 452 025c 2223      		tst r18
 453 025e 01F0      		breq .L51
 454               	.LM83:
 455 0260 8091 0000 		lds r24,counter.2412
 456 0264 9091 0000 		lds r25,(counter.2412)+1
GAS LISTING C:\Users\ADMINI~1\AppData\Local\Temp/cc0XRo0k.s 			page 9


 457 0268 0196      		adiw r24,1
 458 026a 9093 0000 		sts (counter.2412)+1,r25
 459 026e 8093 0000 		sts counter.2412,r24
 460               	.LM84:
 461 0272 8536      		cpi r24,101
 462 0274 9105      		cpc r25,__zero_reg__
 463 0276 04F0      		brlt .L52
 464               	.LM85:
 465 0278 2530      		cpi r18,lo8(5)
 466 027a 01F0      		breq .L77
 467 027c 2330      		cpi r18,lo8(3)
 468 027e 01F0      		breq .L77
 469               	.L54:
 470               	.LM86:
 471 0280 2430      		cpi r18,lo8(4)
 472 0282 01F0      		breq .L56
 473 0284 2230      		cpi r18,lo8(2)
 474 0286 01F4      		brne .L57
 475               	.L56:
 476               	.LM87:
 477 0288 9198      		cbi 50-32,1
 478 028a 00C0      		rjmp .L55
 479               	.L57:
 480               	.LM88:
 481 028c 8091 0000 		lds r24,LEDstate
 482 0290 81FD      		sbrc r24,1
 483               	.L77:
 484               	.LM89:
 485 0292 919A      		sbi 50-32,1
 486               	.L55:
 487               	.LM90:
 488 0294 1092 0000 		sts (counter.2412)+1,__zero_reg__
 489 0298 1092 0000 		sts counter.2412,__zero_reg__
 490               	.LM91:
 491 029c 2150      		subi r18,lo8(-(-1))
 492 029e 2093 0000 		sts scrollLockLED,r18
 493 02a2 00C0      		rjmp .L52
 494               	.L51:
 495               	.LM92:
 496 02a4 1092 0000 		sts (counter.2412)+1,__zero_reg__
 497 02a8 1092 0000 		sts counter.2412,__zero_reg__
 498               	.L52:
 499               	.LBE32:
 500               	.LBE31:
 501               	.LBB33:
 502               	.LBB34:
 503               	.LM93:
 504 02ac 8091 0000 		lds r24,ledStateCount
 505 02b0 9091 0000 		lds r25,(ledStateCount)+1
 506 02b4 1816      		cp __zero_reg__,r24
 507 02b6 1906      		cpc __zero_reg__,r25
 508 02b8 04F4      		brge .L58
 509 02ba 0196      		adiw r24,1
 510 02bc 9093 0000 		sts (ledStateCount)+1,r25
 511 02c0 8093 0000 		sts ledStateCount,r24
 512 02c4 885E      		subi r24,lo8(1000)
 513 02c6 9340      		sbci r25,hi8(1000)
GAS LISTING C:\Users\ADMINI~1\AppData\Local\Temp/cc0XRo0k.s 			page 10


 514 02c8 01F4      		brne .L58
 515               	.LM94:
 516 02ca 1092 0000 		sts (ledStateCount)+1,__zero_reg__
 517 02ce 1092 0000 		sts ledStateCount,__zero_reg__
 518               	.LM95:
 519 02d2 6091 0000 		lds r22,_fullLEDMode
 520 02d6 8091 0000 		lds r24,_fullLEDMode_saved
 521 02da 6817      		cp r22,r24
 522 02dc 01F0      		breq .L59
 523               	.LM96:
 524 02de 6093 0000 		sts _fullLEDMode_saved,r22
 525               	.LM97:
 526 02e2 8BE0      		ldi r24,lo8(11)
 527 02e4 90E0      		ldi r25,hi8(11)
 528 02e6 0E94 0000 		call __eewr_byte_m32
 529               	.LVL10:
 530               	.L59:
 531               	.LM98:
 532 02ea 6091 0000 		lds r22,_ledBrightnessMax
 533 02ee 8091 0000 		lds r24,_ledBrightnessMax_saved
 534 02f2 8617      		cp r24,r22
 535 02f4 01F0      		breq .L58
 536               	.LM99:
 537 02f6 6093 0000 		sts _ledBrightnessMax_saved,r22
 538               	.LM100:
 539 02fa 89E0      		ldi r24,lo8(9)
 540 02fc 90E0      		ldi r25,hi8(9)
 541 02fe 0E94 0000 		call __eewr_byte_m32
 542               	.LVL11:
 543               	.L58:
 544               	.LBE34:
 545               	.LBE33:
 546               	.LBB35:
 547               	.LBB36:
 548               	.LM101:
 549 0302 8091 0000 		lds r24,_fullLEDMode
 550 0306 8130      		cpi r24,lo8(1)
 551 0308 01F0      		breq .+2
 552 030a 00C0      		rjmp .L60
 553               	.LM102:
 554 030c 8091 0000 		lds r24,pwmDir
 555 0310 9091 0000 		lds r25,(pwmDir)+1
 556 0314 0097      		sbiw r24,0
 557 0316 01F4      		brne .L61
 558               	.LBE36:
 559               	.LM103:
 560 0318 8091 0000 		lds r24,pwmCounter
 561 031c 9091 0000 		lds r25,(pwmCounter)+1
 562 0320 68E0      		ldi r22,lo8(8)
 563 0322 70E0      		ldi r23,hi8(8)
 564 0324 0E94 0000 		call __divmodhi4
 565 0328 CB01      		movw r24,r22
 566 032a 0E94 0000 		call getBrightness
 567               	.LVL12:
 568 032e 00C0      		rjmp .L78
 569               	.LVL13:
 570               	.L61:
GAS LISTING C:\Users\ADMINI~1\AppData\Local\Temp/cc0XRo0k.s 			page 11


 571               	.LBB37:
 572               	.LM104:
 573 0330 8230      		cpi r24,2
 574 0332 9105      		cpc r25,__zero_reg__
 575 0334 01F4      		brne .L63
 576               	.LBE37:
 577               	.LM105:
 578 0336 8091 0000 		lds r24,pwmCounter
 579 033a 9091 0000 		lds r25,(pwmCounter)+1
 580 033e 68E0      		ldi r22,lo8(8)
 581 0340 70E0      		ldi r23,hi8(8)
 582 0342 0E94 0000 		call __divmodhi4
 583 0346 CB01      		movw r24,r22
 584 0348 9095      		com r25
 585 034a 8195      		neg r24
 586 034c 9F4F      		sbci r25,lo8(-1)
 587 034e 8150      		subi r24,lo8(-(255))
 588 0350 9F4F      		sbci r25,hi8(-(255))
 589 0352 0E94 0000 		call getBrightness
 590               	.LVL14:
 591               	.L78:
 592               	.LBB38:
 593 0356 0E94 0000 		call timer1PWMBSet
 594 035a 00C0      		rjmp .L62
 595               	.LVL15:
 596               	.L63:
 597               	.LM106:
 598 035c 8130      		cpi r24,1
 599 035e 9105      		cpc r25,__zero_reg__
 600 0360 01F0      		breq .L64
 601 0362 0397      		sbiw r24,3
 602 0364 01F4      		brne .L62
 603               	.L64:
 604               	.LM107:
 605 0366 8091 0000 		lds r24,pwmCounter
 606 036a 9091 0000 		lds r25,(pwmCounter)+1
 607 036e 0196      		adiw r24,1
 608 0370 9093 0000 		sts (pwmCounter)+1,r25
 609 0374 8093 0000 		sts pwmCounter,r24
 610               	.L62:
 611               	.LM108:
 612 0378 8091 0000 		lds r24,pwmCounter
 613 037c 9091 0000 		lds r25,(pwmCounter)+1
 614 0380 885F      		subi r24,lo8(2040)
 615 0382 9740      		sbci r25,hi8(2040)
 616 0384 04F0      		brlt .L65
 617               	.LM109:
 618 0386 1092 0000 		sts (pwmCounter)+1,__zero_reg__
 619 038a 1092 0000 		sts pwmCounter,__zero_reg__
 620               	.LM110:
 621 038e 8091 0000 		lds r24,pwmDir
 622 0392 9091 0000 		lds r25,(pwmDir)+1
 623 0396 0196      		adiw r24,1
 624 0398 64E0      		ldi r22,lo8(4)
 625 039a 70E0      		ldi r23,hi8(4)
 626 039c 0E94 0000 		call __divmodhi4
 627 03a0 9093 0000 		sts (pwmDir)+1,r25
GAS LISTING C:\Users\ADMINI~1\AppData\Local\Temp/cc0XRo0k.s 			page 12


 628 03a4 8093 0000 		sts pwmDir,r24
 629               	.L65:
 630               	.LM111:
 631 03a8 8091 0000 		lds r24,pwmCounter
 632 03ac 9091 0000 		lds r25,(pwmCounter)+1
 633 03b0 0196      		adiw r24,1
 634 03b2 9093 0000 		sts (pwmCounter)+1,r25
 635 03b6 8093 0000 		sts pwmCounter,r24
 636 03ba 00C0      		rjmp .L74
 637               	.L60:
 638               	.LM112:
 639 03bc 8330      		cpi r24,lo8(3)
 640 03be 01F4      		brne .L66
 641               	.LM113:
 642 03c0 8091 0000 		lds r24,downLevelStay
 643 03c4 9091 0000 		lds r25,(downLevelStay)+1
 644 03c8 0097      		sbiw r24,0
 645 03ca 01F0      		breq .L67
 646               	.LM114:
 647 03cc 0197      		sbiw r24,1
 648 03ce 9093 0000 		sts (downLevelStay)+1,r25
 649 03d2 8093 0000 		sts downLevelStay,r24
 650 03d6 00C0      		rjmp .L68
 651               	.L67:
 652               	.LM115:
 653 03d8 2091 0000 		lds r18,downLevelLife
 654 03dc 2223      		tst r18
 655 03de 01F0      		breq .L69
 656               	.LM116:
 657 03e0 8091 0000 		lds r24,pwmCounter
 658 03e4 9091 0000 		lds r25,(pwmCounter)+1
 659 03e8 0196      		adiw r24,1
 660 03ea 9093 0000 		sts (pwmCounter)+1,r25
 661 03ee 8093 0000 		sts pwmCounter,r24
 662               	.LM117:
 663 03f2 0897      		sbiw r24,8
 664 03f4 04F0      		brlt .L68
 665               	.LM118:
 666 03f6 1092 0000 		sts (pwmCounter)+1,__zero_reg__
 667 03fa 1092 0000 		sts pwmCounter,__zero_reg__
 668               	.LM119:
 669 03fe 2150      		subi r18,lo8(-(-1))
 670 0400 2093 0000 		sts downLevelLife,r18
 671               	.LM120:
 672 0404 8FEF      		ldi r24,lo8(255)
 673 0406 90E0      		ldi r25,hi8(255)
 674 0408 821B      		sub r24,r18
 675 040a 9109      		sbc r25,__zero_reg__
 676 040c 6BEE      		ldi r22,lo8(-21)
 677 040e 7FEF      		ldi r23,hi8(-21)
 678 0410 0E94 0000 		call __divmodhi4
 679 0414 645F      		subi r22,lo8(-(12))
 680 0416 6093 0000 		sts downLevel,r22
 681 041a 00C0      		rjmp .L68
 682               	.L69:
 683               	.LM121:
 684 041c 1092 0000 		sts downLevel,__zero_reg__
GAS LISTING C:\Users\ADMINI~1\AppData\Local\Temp/cc0XRo0k.s 			page 13


 685               	.LM122:
 686 0420 1092 0000 		sts (pwmCounter)+1,__zero_reg__
 687 0424 1092 0000 		sts pwmCounter,__zero_reg__
 688               	.L68:
 689               	.LBE38:
 690               	.LM123:
 691 0428 8091 0000 		lds r24,downLevelLife
 692 042c 90E0      		ldi r25,lo8(0)
 693 042e 0E94 0000 		call getBrightness
 694               	.LVL16:
 695 0432 00C0      		rjmp .L79
 696               	.LVL17:
 697               	.L66:
 698               	.LBB39:
 699               	.LM124:
 700 0434 8430      		cpi r24,lo8(4)
 701 0436 01F4      		brne .L70
 702               	.LM125:
 703 0438 8091 0000 		lds r24,downLevelStay
 704 043c 9091 0000 		lds r25,(downLevelStay)+1
 705 0440 0097      		sbiw r24,0
 706 0442 01F0      		breq .L71
 707               	.LM126:
 708 0444 0197      		sbiw r24,1
 709 0446 9093 0000 		sts (downLevelStay)+1,r25
 710 044a 8093 0000 		sts downLevelStay,r24
 711 044e 00C0      		rjmp .L72
 712               	.L71:
 713               	.LM127:
 714 0450 2091 0000 		lds r18,downLevelLife
 715 0454 2F3F      		cpi r18,lo8(-1)
 716 0456 01F0      		breq .L73
 717               	.LM128:
 718 0458 8091 0000 		lds r24,pwmCounter
 719 045c 9091 0000 		lds r25,(pwmCounter)+1
 720 0460 0196      		adiw r24,1
 721 0462 9093 0000 		sts (pwmCounter)+1,r25
 722 0466 8093 0000 		sts pwmCounter,r24
 723               	.LM129:
 724 046a 0897      		sbiw r24,8
 725 046c 04F0      		brlt .L72
 726               	.LM130:
 727 046e 1092 0000 		sts (pwmCounter)+1,__zero_reg__
 728 0472 1092 0000 		sts pwmCounter,__zero_reg__
 729               	.LM131:
 730 0476 2F5F      		subi r18,lo8(-(1))
 731 0478 2093 0000 		sts downLevelLife,r18
 732               	.LM132:
 733 047c 8FEF      		ldi r24,lo8(255)
 734 047e 90E0      		ldi r25,hi8(255)
 735 0480 821B      		sub r24,r18
 736 0482 9109      		sbc r25,__zero_reg__
 737 0484 6BEE      		ldi r22,lo8(-21)
 738 0486 7FEF      		ldi r23,hi8(-21)
 739 0488 0E94 0000 		call __divmodhi4
 740 048c 645F      		subi r22,lo8(-(12))
 741 048e 6093 0000 		sts downLevel,r22
GAS LISTING C:\Users\ADMINI~1\AppData\Local\Temp/cc0XRo0k.s 			page 14


 742 0492 00C0      		rjmp .L72
 743               	.L73:
 744               	.LM133:
 745 0494 8CE0      		ldi r24,lo8(12)
 746 0496 8093 0000 		sts downLevel,r24
 747               	.LM134:
 748 049a 1092 0000 		sts (pwmCounter)+1,__zero_reg__
 749 049e 1092 0000 		sts pwmCounter,__zero_reg__
 750               	.L72:
 751               	.LBE39:
 752               	.LM135:
 753 04a2 8091 0000 		lds r24,downLevelLife
 754 04a6 90E0      		ldi r25,lo8(0)
 755 04a8 0E94 0000 		call getBrightness
 756               	.LVL18:
 757               	.L79:
 758               	.LBB40:
 759 04ac 0E94 0000 		call timer1PWMBSet
 760 04b0 00C0      		rjmp .L74
 761               	.LVL19:
 762               	.L70:
 763               	.LM136:
 764 04b2 1092 0000 		sts (pwmCounter)+1,__zero_reg__
 765 04b6 1092 0000 		sts pwmCounter,__zero_reg__
 766               	.LM137:
 767 04ba 83E0      		ldi r24,lo8(3)
 768 04bc 90E0      		ldi r25,hi8(3)
 769 04be 9093 0000 		sts (pwmDir)+1,r25
 770 04c2 8093 0000 		sts pwmDir,r24
 771               	.L74:
 772               	/* epilogue start */
 773               	.LBE40:
 774               	.LBE35:
 775               	.LM138:
 776 04c6 1F91      		pop r17
 777               	.LVL20:
 778 04c8 0895      		ret
 779               	.LFE26:
 780               		.size	renderLED, .-renderLED
 781               		.type	setFullLEDState, @function
 782               	setFullLEDState:
 783               	.LFB10:
 784               	.LM139:
 785               	/* prologue: function */
 786               	/* frame size = 0 */
 787               	.LM140:
 788 04ca 9091 0000 		lds r25,_fullLEDMode
 789 04ce 9923      		tst r25
 790 04d0 01F4      		brne .L81
 791               	.LM141:
 792 04d2 80E0      		ldi r24,lo8(0)
 793 04d4 90E0      		ldi r25,hi8(0)
 794 04d6 00C0      		rjmp .L87
 795               	.L81:
 796               	.LM142:
 797 04d8 9130      		cpi r25,lo8(1)
 798 04da 01F4      		brne .L83
GAS LISTING C:\Users\ADMINI~1\AppData\Local\Temp/cc0XRo0k.s 			page 15


 799               	.LM143:
 800 04dc 1092 0000 		sts (pwmCounter)+1,__zero_reg__
 801 04e0 1092 0000 		sts pwmCounter,__zero_reg__
 802               	.LM144:
 803 04e4 1092 0000 		sts (pwmDir)+1,__zero_reg__
 804 04e8 1092 0000 		sts pwmDir,__zero_reg__
 805 04ec 0895      		ret
 806               	.L83:
 807               	.LM145:
 808 04ee 9230      		cpi r25,lo8(2)
 809 04f0 01F4      		brne .L84
 810               	.LM146:
 811 04f2 8091 0000 		lds r24,_ledBrightnessMax
 812 04f6 90E0      		ldi r25,lo8(0)
 813               	.L87:
 814 04f8 0E94 0000 		call timer1PWMBSet
 815 04fc 0895      		ret
 816               	.L84:
 817               	.LM147:
 818 04fe 892F      		mov r24,r25
 819 0500 8350      		subi r24,lo8(-(-3))
 820 0502 8230      		cpi r24,lo8(2)
 821 0504 00F4      		brsh .L86
 822               	.LM148:
 823 0506 83E0      		ldi r24,lo8(3)
 824 0508 8093 0000 		sts downLevel,r24
 825               	.LM149:
 826 050c 9430      		cpi r25,lo8(4)
 827 050e 01F4      		brne .L85
 828 0510 81E0      		ldi r24,lo8(1)
 829 0512 8093 0000 		sts downLevel,r24
 830               	.L85:
 831               	.LM150:
 832 0516 8091 0000 		lds r24,downLevel
 833 051a 9FEF      		ldi r25,lo8(-1)
 834 051c 899F      		mul r24,r25
 835 051e C001      		movw r24,r0
 836 0520 1124      		clr r1
 837 0522 6CE0      		ldi r22,lo8(12)
 838 0524 70E0      		ldi r23,hi8(12)
 839 0526 0E94 0000 		call __divmodhi4
 840 052a 6093 0000 		sts downLevelLife,r22
 841               	.L86:
 842 052e 0895      		ret
 843               	.LFE10:
 844               		.size	setFullLEDState, .-setFullLEDState
 845               	.global	wakeUpLED
 846               		.type	wakeUpLED, @function
 847               	wakeUpLED:
 848               	.LFB24:
 849               	.LM151:
 850               	/* prologue: function */
 851               	/* frame size = 0 */
 852               	.LM152:
 853 0530 0E94 0000 		call setLEDIndicate
 854               	.LM153:
 855 0534 0E94 0000 		call setFullLEDState
GAS LISTING C:\Users\ADMINI~1\AppData\Local\Temp/cc0XRo0k.s 			page 16


 856               	/* epilogue start */
 857               	.LM154:
 858 0538 0895      		ret
 859               	.LFE24:
 860               		.size	wakeUpLED, .-wakeUpLED
 861               	.global	changeFullLedState
 862               		.type	changeFullLedState, @function
 863               	changeFullLedState:
 864               	.LFB13:
 865               	.LM155:
 866               	/* prologue: function */
 867               	/* frame size = 0 */
 868               	.LM156:
 869 053a 8091 0000 		lds r24,_fullLEDMode
 870 053e 90E0      		ldi r25,lo8(0)
 871 0540 0196      		adiw r24,1
 872 0542 65E0      		ldi r22,lo8(5)
 873 0544 70E0      		ldi r23,hi8(5)
 874 0546 0E94 0000 		call __divmodhi4
 875 054a 8093 0000 		sts _fullLEDMode,r24
 876               	.LM157:
 877 054e 81E0      		ldi r24,lo8(1)
 878 0550 90E0      		ldi r25,hi8(1)
 879 0552 9093 0000 		sts (ledStateCount)+1,r25
 880 0556 8093 0000 		sts ledStateCount,r24
 881               	.LM158:
 882 055a 0E94 0000 		call setFullLEDState
 883               	/* epilogue start */
 884               	.LM159:
 885 055e 0895      		ret
 886               	.LFE13:
 887               		.size	changeFullLedState, .-changeFullLedState
 888               	.global	reduceLedBrightness
 889               		.type	reduceLedBrightness, @function
 890               	reduceLedBrightness:
 891               	.LFB12:
 892               	.LM160:
 893               	/* prologue: function */
 894               	/* frame size = 0 */
 895               	.LM161:
 896 0560 8091 0000 		lds r24,_ledBrightnessMax
 897 0564 8E31      		cpi r24,lo8(30)
 898 0566 01F0      		breq .L96
 899               	.LM162:
 900 0568 8951      		subi r24,lo8(-(-25))
 901 056a 8093 0000 		sts _ledBrightnessMax,r24
 902               	.LM163:
 903 056e 8E31      		cpi r24,lo8(30)
 904 0570 00F4      		brsh .L94
 905               	.LM164:
 906 0572 8EE1      		ldi r24,lo8(30)
 907 0574 8093 0000 		sts _ledBrightnessMax,r24
 908               	.L94:
 909               	.LM165:
 910 0578 8091 0000 		lds r24,_fullLEDMode
 911 057c 8230      		cpi r24,lo8(2)
 912 057e 01F4      		brne .L95
GAS LISTING C:\Users\ADMINI~1\AppData\Local\Temp/cc0XRo0k.s 			page 17


 913               	.LM166:
 914 0580 0E94 0000 		call setFullLEDState
 915               	.L95:
 916               	.LM167:
 917 0584 81E0      		ldi r24,lo8(1)
 918 0586 90E0      		ldi r25,hi8(1)
 919 0588 9093 0000 		sts (ledStateCount)+1,r25
 920 058c 8093 0000 		sts ledStateCount,r24
 921               	.L96:
 922 0590 0895      		ret
 923               	.LFE12:
 924               		.size	reduceLedBrightness, .-reduceLedBrightness
 925               	.global	increaseLedBrightness
 926               		.type	increaseLedBrightness, @function
 927               	increaseLedBrightness:
 928               	.LFB11:
 929               	.LM168:
 930               	/* prologue: function */
 931               	/* frame size = 0 */
 932               	.LM169:
 933 0592 8091 0000 		lds r24,_ledBrightnessMax
 934 0596 8F3F      		cpi r24,lo8(-1)
 935 0598 01F0      		breq .L102
 936               	.LM170:
 937 059a 90E0      		ldi r25,lo8(0)
 938               	.LVL21:
 939 059c 4996      		adiw r24,25
 940               	.LVL22:
 941               	.LM171:
 942 059e 8F3F      		cpi r24,255
 943 05a0 9105      		cpc r25,__zero_reg__
 944 05a2 01F0      		breq .L99
 945 05a4 04F0      		brlt .L99
 946               	.LM172:
 947 05a6 8FEF      		ldi r24,lo8(-1)
 948               	.LVL23:
 949               	.L99:
 950               	.LM173:
 951 05a8 8093 0000 		sts _ledBrightnessMax,r24
 952               	.LM174:
 953 05ac 8091 0000 		lds r24,_fullLEDMode
 954               	.LVL24:
 955 05b0 8230      		cpi r24,lo8(2)
 956 05b2 01F4      		brne .L101
 957               	.LM175:
 958 05b4 0E94 0000 		call setFullLEDState
 959               	.LVL25:
 960               	.L101:
 961               	.LM176:
 962 05b8 81E0      		ldi r24,lo8(1)
 963 05ba 90E0      		ldi r25,hi8(1)
 964 05bc 9093 0000 		sts (ledStateCount)+1,r25
 965 05c0 8093 0000 		sts ledStateCount,r24
 966               	.L102:
 967 05c4 0895      		ret
 968               	.LFE11:
 969               		.size	increaseLedBrightness, .-increaseLedBrightness
GAS LISTING C:\Users\ADMINI~1\AppData\Local\Temp/cc0XRo0k.s 			page 18


 970               	.global	initFullLEDState
 971               		.type	initFullLEDState, @function
 972               	initFullLEDState:
 973               	.LFB15:
 974               	.LM177:
 975               	/* prologue: function */
 976               	/* frame size = 0 */
 977               	.LM178:
 978 05c6 8091 0000 		lds r24,ledInited
 979 05ca 8823      		tst r24
 980 05cc 01F4      		brne .L107
 981               	.LM179:
 982 05ce 81E0      		ldi r24,lo8(1)
 983 05d0 8093 0000 		sts ledInited,r24
 984               	.LM180:
 985 05d4 0E94 0000 		call timer1Init
 986               	.LM181:
 987 05d8 88E0      		ldi r24,lo8(8)
 988 05da 0E94 0000 		call timer1PWMInit
 989               	.LM182:
 990 05de 0E94 0000 		call timer1PWMBOn
 991               	.LM183:
 992 05e2 89E0      		ldi r24,lo8(9)
 993 05e4 90E0      		ldi r25,hi8(9)
 994 05e6 0E94 0000 		call __eerd_byte_m32
 995 05ea 8093 0000 		sts _ledBrightnessMax,r24
 996               	.LM184:
 997 05ee 8093 0000 		sts _ledBrightnessMax_saved,r24
 998               	.LM185:
 999 05f2 8BE0      		ldi r24,lo8(11)
 1000 05f4 90E0      		ldi r25,hi8(11)
 1001 05f6 0E94 0000 		call __eerd_byte_m32
 1002 05fa 8093 0000 		sts _fullLEDMode,r24
 1003               	.LM186:
 1004 05fe 8F3F      		cpi r24,lo8(-1)
 1005 0600 01F4      		brne .L105
 1006               	.LM187:
 1007 0602 1092 0000 		sts _fullLEDMode,__zero_reg__
 1008               	.L105:
 1009               	.LM188:
 1010 0606 8091 0000 		lds r24,_fullLEDMode
 1011 060a 8093 0000 		sts _fullLEDMode_saved,r24
 1012               	.LM189:
 1013 060e 0E94 0000 		call setFullLEDState
 1014               	.LM190:
 1015 0612 8091 0000 		lds r24,INTERFACE
 1016 0616 8823      		tst r24
 1017 0618 01F0      		breq .L106
 1018 061a 8330      		cpi r24,lo8(3)
 1019 061c 01F4      		brne .L107
 1020               	.L106:
 1021               	.LM191:
 1022 061e 8091 0000 		lds r24,beyondFNCountDelay
 1023 0622 9091 0000 		lds r25,(beyondFNCountDelay)+1
 1024 0626 9595      		asr r25
 1025 0628 8795      		ror r24
 1026 062a 9093 0000 		sts (beyondFNCountDelay)+1,r25
GAS LISTING C:\Users\ADMINI~1\AppData\Local\Temp/cc0XRo0k.s 			page 19


 1027 062e 8093 0000 		sts beyondFNCountDelay,r24
 1028               	.L107:
 1029 0632 0895      		ret
 1030               	.LFE15:
 1031               		.size	initFullLEDState, .-initFullLEDState
 1032               		.lcomm ledInited,1
 1033               		.data
 1034               		.type	beyondFNCountDelay, @object
 1035               		.size	beyondFNCountDelay, 2
 1036               	beyondFNCountDelay:
 1037 0000 0807      		.word	1800
 1038               		.type	beyondFNLEDState.2379, @object
 1039               		.size	beyondFNLEDState.2379, 1
 1040               	beyondFNLEDState.2379:
 1041 0002 01        		.byte	1
 1042               		.lcomm beyondFNDelayCounter.2378,2
 1043               		.lcomm beyondFNCounter.2377,2
 1044               		.lcomm scrollLockLED,1
 1045               		.lcomm counter.2412,2
 1046               		.lcomm ledStateCount,2
 1047               		.lcomm _fullLEDMode,1
 1048               		.lcomm _fullLEDMode_saved,1
 1049               		.lcomm _ledBrightnessMax_saved,1
 1050               		.type	_ledBrightnessMax, @object
 1051               		.size	_ledBrightnessMax, 1
 1052               	_ledBrightnessMax:
 1053 0003 FF        		.byte	-1
 1054               		.lcomm pwmDir,2
 1055               		.lcomm pwmCounter,2
 1056               		.lcomm downLevelStay,2
 1057               		.lcomm downLevelLife,1
 1058               		.lcomm downLevel,1
 1059               		.lcomm _isDidSleep,1
 1060               		.lcomm LEDstate,1
 1061               		.lcomm prevSCRLED.2290,1
 1062               		.section	.debug_frame,"",@progbits
 1063               	.Lframe0:
 1064 0000 0C00 0000 		.long	.LECIE0-.LSCIE0
 1065               	.LSCIE0:
 1066 0004 FFFF FFFF 		.long	0xffffffff
 1067 0008 01        		.byte	0x1
 1068 0009 00        		.string	""
 1069 000a 01        		.uleb128 0x1
 1070 000b 7F        		.sleb128 -1
 1071 000c 24        		.byte	0x24
 1072 000d 0C        		.byte	0xc
 1073 000e 20        		.uleb128 0x20
 1074 000f 00        		.uleb128 0x0
 1075               		.p2align	2
 1076               	.LECIE0:
 1077               	.LSFDE0:
 1078 0010 0C00 0000 		.long	.LEFDE0-.LASFDE0
 1079               	.LASFDE0:
 1080 0014 0000 0000 		.long	.Lframe0
 1081 0018 0000 0000 		.long	.LFB8
 1082 001c 0600 0000 		.long	.LFE8-.LFB8
 1083               		.p2align	2
GAS LISTING C:\Users\ADMINI~1\AppData\Local\Temp/cc0XRo0k.s 			page 20


 1084               	.LEFDE0:
 1085               	.LSFDE2:
 1086 0020 0C00 0000 		.long	.LEFDE2-.LASFDE2
 1087               	.LASFDE2:
 1088 0024 0000 0000 		.long	.Lframe0
 1089 0028 0000 0000 		.long	.LFB9
 1090 002c 0600 0000 		.long	.LFE9-.LFB9
 1091               		.p2align	2
 1092               	.LEFDE2:
 1093               	.LSFDE4:
 1094 0030 0C00 0000 		.long	.LEFDE4-.LASFDE4
 1095               	.LASFDE4:
 1096 0034 0000 0000 		.long	.Lframe0
 1097 0038 0000 0000 		.long	.LFB14
 1098 003c 0600 0000 		.long	.LFE14-.LFB14
 1099               		.p2align	2
 1100               	.LEFDE4:
 1101               	.LSFDE6:
 1102 0040 0C00 0000 		.long	.LEFDE6-.LASFDE6
 1103               	.LASFDE6:
 1104 0044 0000 0000 		.long	.Lframe0
 1105 0048 0000 0000 		.long	.LFB16
 1106 004c 6200 0000 		.long	.LFE16-.LFB16
 1107               		.p2align	2
 1108               	.LEFDE6:
 1109               	.LSFDE8:
 1110 0050 0C00 0000 		.long	.LEFDE8-.LASFDE8
 1111               	.LASFDE8:
 1112 0054 0000 0000 		.long	.Lframe0
 1113 0058 0000 0000 		.long	.LFB17
 1114 005c 6C00 0000 		.long	.LFE17-.LFB17
 1115               		.p2align	2
 1116               	.LEFDE8:
 1117               	.LSFDE10:
 1118 0060 0C00 0000 		.long	.LEFDE10-.LASFDE10
 1119               	.LASFDE10:
 1120 0064 0000 0000 		.long	.Lframe0
 1121 0068 0000 0000 		.long	.LFB19
 1122 006c 2200 0000 		.long	.LFE19-.LFB19
 1123               		.p2align	2
 1124               	.LEFDE10:
 1125               	.LSFDE12:
 1126 0070 0C00 0000 		.long	.LEFDE12-.LASFDE12
 1127               	.LASFDE12:
 1128 0074 0000 0000 		.long	.Lframe0
 1129 0078 0000 0000 		.long	.LFB23
 1130 007c 3200 0000 		.long	.LFE23-.LFB23
 1131               		.p2align	2
 1132               	.LEFDE12:
 1133               	.LSFDE14:
 1134 0080 0C00 0000 		.long	.LEFDE14-.LASFDE14
 1135               	.LASFDE14:
 1136 0084 0000 0000 		.long	.Lframe0
 1137 0088 0000 0000 		.long	.LFB25
 1138 008c 5E00 0000 		.long	.LFE25-.LFB25
 1139               		.p2align	2
 1140               	.LEFDE14:
GAS LISTING C:\Users\ADMINI~1\AppData\Local\Temp/cc0XRo0k.s 			page 21


 1141               	.LSFDE16:
 1142 0090 0C00 0000 		.long	.LEFDE16-.LASFDE16
 1143               	.LASFDE16:
 1144 0094 0000 0000 		.long	.Lframe0
 1145 0098 0000 0000 		.long	.LFB26
 1146 009c 3803 0000 		.long	.LFE26-.LFB26
 1147               		.p2align	2
 1148               	.LEFDE16:
 1149               	.LSFDE18:
 1150 00a0 0C00 0000 		.long	.LEFDE18-.LASFDE18
 1151               	.LASFDE18:
 1152 00a4 0000 0000 		.long	.Lframe0
 1153 00a8 0000 0000 		.long	.LFB10
 1154 00ac 6600 0000 		.long	.LFE10-.LFB10
 1155               		.p2align	2
 1156               	.LEFDE18:
 1157               	.LSFDE20:
 1158 00b0 0C00 0000 		.long	.LEFDE20-.LASFDE20
 1159               	.LASFDE20:
 1160 00b4 0000 0000 		.long	.Lframe0
 1161 00b8 0000 0000 		.long	.LFB24
 1162 00bc 0A00 0000 		.long	.LFE24-.LFB24
 1163               		.p2align	2
 1164               	.LEFDE20:
 1165               	.LSFDE22:
 1166 00c0 0C00 0000 		.long	.LEFDE22-.LASFDE22
 1167               	.LASFDE22:
 1168 00c4 0000 0000 		.long	.Lframe0
 1169 00c8 0000 0000 		.long	.LFB13
 1170 00cc 2600 0000 		.long	.LFE13-.LFB13
 1171               		.p2align	2
 1172               	.LEFDE22:
 1173               	.LSFDE24:
 1174 00d0 0C00 0000 		.long	.LEFDE24-.LASFDE24
 1175               	.LASFDE24:
 1176 00d4 0000 0000 		.long	.Lframe0
 1177 00d8 0000 0000 		.long	.LFB12
 1178 00dc 3200 0000 		.long	.LFE12-.LFB12
 1179               		.p2align	2
 1180               	.LEFDE24:
 1181               	.LSFDE26:
 1182 00e0 0C00 0000 		.long	.LEFDE26-.LASFDE26
 1183               	.LASFDE26:
 1184 00e4 0000 0000 		.long	.Lframe0
 1185 00e8 0000 0000 		.long	.LFB11
 1186 00ec 3400 0000 		.long	.LFE11-.LFB11
 1187               		.p2align	2
 1188               	.LEFDE26:
 1189               	.LSFDE28:
 1190 00f0 0C00 0000 		.long	.LEFDE28-.LASFDE28
 1191               	.LASFDE28:
 1192 00f4 0000 0000 		.long	.Lframe0
 1193 00f8 0000 0000 		.long	.LFB15
 1194 00fc 6E00 0000 		.long	.LFE15-.LFB15
 1195               		.p2align	2
 1196               	.LEFDE28:
 1197               		.text
GAS LISTING C:\Users\ADMINI~1\AppData\Local\Temp/cc0XRo0k.s 			page 22


 1198               	.Letext0:
 1199               		.section	.debug_loc,"",@progbits
 1200               	.Ldebug_loc0:
 1201               	.LLST6:
 1202 0000 E000 0000 		.long	.LVL1-.Ltext0
 1203 0004 F600 0000 		.long	.LVL2-.Ltext0
 1204 0008 0600      		.word	0x6
 1205 000a 68        		.byte	0x68
 1206 000b 93        		.byte	0x93
 1207 000c 01        		.uleb128 0x1
 1208 000d 69        		.byte	0x69
 1209 000e 93        		.byte	0x93
 1210 000f 01        		.uleb128 0x1
 1211 0010 0000 0000 		.long	0x0
 1212 0014 0000 0000 		.long	0x0
 1213               	.LLST10:
 1214 0018 9201 0000 		.long	.LVL3-.Ltext0
 1215 001c 9A01 0000 		.long	.LVL4-.Ltext0
 1216 0020 0100      		.word	0x1
 1217 0022 68        		.byte	0x68
 1218 0023 9A01 0000 		.long	.LVL4-.Ltext0
 1219 0027 C804 0000 		.long	.LVL20-.Ltext0
 1220 002b 0100      		.word	0x1
 1221 002d 61        		.byte	0x61
 1222 002e 0000 0000 		.long	0x0
 1223 0032 0000 0000 		.long	0x0
 1224               	.LLST11:
 1225 0036 B801 0000 		.long	.LVL5-.Ltext0
 1226 003a BA01 0000 		.long	.LVL6-.Ltext0
 1227 003e 0100      		.word	0x1
 1228 0040 64        		.byte	0x64
 1229 0041 C201 0000 		.long	.LVL7-.Ltext0
 1230 0045 4A02 0000 		.long	.LVL8-.Ltext0
 1231 0049 0100      		.word	0x1
 1232 004b 64        		.byte	0x64
 1233 004c 5802 0000 		.long	.LVL9-.Ltext0
 1234 0050 EA02 0000 		.long	.LVL10-.Ltext0
 1235 0054 0100      		.word	0x1
 1236 0056 64        		.byte	0x64
 1237 0057 EA02 0000 		.long	.LVL10-.Ltext0
 1238 005b 0203 0000 		.long	.LVL11-.Ltext0
 1239 005f 0100      		.word	0x1
 1240 0061 64        		.byte	0x64
 1241 0062 0203 0000 		.long	.LVL11-.Ltext0
 1242 0066 2E03 0000 		.long	.LVL12-.Ltext0
 1243 006a 0100      		.word	0x1
 1244 006c 64        		.byte	0x64
 1245 006d 3003 0000 		.long	.LVL13-.Ltext0
 1246 0071 5603 0000 		.long	.LVL14-.Ltext0
 1247 0075 0100      		.word	0x1
 1248 0077 64        		.byte	0x64
 1249 0078 5C03 0000 		.long	.LVL15-.Ltext0
 1250 007c 3204 0000 		.long	.LVL16-.Ltext0
 1251 0080 0100      		.word	0x1
 1252 0082 64        		.byte	0x64
 1253 0083 3404 0000 		.long	.LVL17-.Ltext0
 1254 0087 AC04 0000 		.long	.LVL18-.Ltext0
GAS LISTING C:\Users\ADMINI~1\AppData\Local\Temp/cc0XRo0k.s 			page 23


 1255 008b 0100      		.word	0x1
 1256 008d 64        		.byte	0x64
 1257 008e B204 0000 		.long	.LVL19-.Ltext0
 1258 0092 CA04 0000 		.long	.LFE26-.Ltext0
 1259 0096 0100      		.word	0x1
 1260 0098 64        		.byte	0x64
 1261 0099 0000 0000 		.long	0x0
 1262 009d 0000 0000 		.long	0x0
 1263               	.LLST17:
 1264 00a1 9E05 0000 		.long	.LVL22-.Ltext0
 1265 00a5 A805 0000 		.long	.LVL23-.Ltext0
 1266 00a9 0600      		.word	0x6
 1267 00ab 68        		.byte	0x68
 1268 00ac 93        		.byte	0x93
 1269 00ad 01        		.uleb128 0x1
 1270 00ae 69        		.byte	0x69
 1271 00af 93        		.byte	0x93
 1272 00b0 01        		.uleb128 0x1
 1273 00b1 A805 0000 		.long	.LVL23-.Ltext0
 1274 00b5 B005 0000 		.long	.LVL24-.Ltext0
 1275 00b9 0600      		.word	0x6
 1276 00bb 68        		.byte	0x68
 1277 00bc 93        		.byte	0x93
 1278 00bd 01        		.uleb128 0x1
 1279 00be 69        		.byte	0x69
 1280 00bf 93        		.byte	0x93
 1281 00c0 01        		.uleb128 0x1
 1282 00c1 0000 0000 		.long	0x0
 1283 00c5 0000 0000 		.long	0x0
 1284               		.section	.debug_info
 1285 0000 BD04 0000 		.long	0x4bd
 1286 0004 0200      		.word	0x2
 1287 0006 0000 0000 		.long	.Ldebug_abbrev0
 1288 000a 04        		.byte	0x4
 1289 000b 01        		.uleb128 0x1
 1290 000c 0000 0000 		.long	.LASF58
 1291 0010 01        		.byte	0x1
 1292 0011 0000 0000 		.long	.LASF59
 1293 0015 0000 0000 		.long	.LASF60
 1294 0019 0000 0000 		.long	.Ltext0
 1295 001d 0000 0000 		.long	.Letext0
 1296 0021 0000 0000 		.long	.Ldebug_line0
 1297 0025 02        		.uleb128 0x2
 1298 0026 01        		.byte	0x1
 1299 0027 08        		.byte	0x8
 1300 0028 0000 0000 		.long	.LASF0
 1301 002c 02        		.uleb128 0x2
 1302 002d 01        		.byte	0x1
 1303 002e 06        		.byte	0x6
 1304 002f 0000 0000 		.long	.LASF1
 1305 0033 02        		.uleb128 0x2
 1306 0034 02        		.byte	0x2
 1307 0035 07        		.byte	0x7
 1308 0036 0000 0000 		.long	.LASF2
 1309 003a 02        		.uleb128 0x2
 1310 003b 02        		.byte	0x2
 1311 003c 05        		.byte	0x5
GAS LISTING C:\Users\ADMINI~1\AppData\Local\Temp/cc0XRo0k.s 			page 24


 1312 003d 0000 0000 		.long	.LASF3
 1313 0041 02        		.uleb128 0x2
 1314 0042 04        		.byte	0x4
 1315 0043 07        		.byte	0x7
 1316 0044 0000 0000 		.long	.LASF4
 1317 0048 02        		.uleb128 0x2
 1318 0049 04        		.byte	0x4
 1319 004a 05        		.byte	0x5
 1320 004b 0000 0000 		.long	.LASF5
 1321 004f 02        		.uleb128 0x2
 1322 0050 08        		.byte	0x8
 1323 0051 07        		.byte	0x7
 1324 0052 0000 0000 		.long	.LASF6
 1325 0056 02        		.uleb128 0x2
 1326 0057 08        		.byte	0x8
 1327 0058 05        		.byte	0x5
 1328 0059 0000 0000 		.long	.LASF7
 1329 005d 02        		.uleb128 0x2
 1330 005e 02        		.byte	0x2
 1331 005f 07        		.byte	0x7
 1332 0060 0000 0000 		.long	.LASF8
 1333 0064 02        		.uleb128 0x2
 1334 0065 01        		.byte	0x1
 1335 0066 06        		.byte	0x6
 1336 0067 0000 0000 		.long	.LASF9
 1337 006b 03        		.uleb128 0x3
 1338 006c 02        		.byte	0x2
 1339 006d 05        		.byte	0x5
 1340 006e 696E 7400 		.string	"int"
 1341 0072 04        		.uleb128 0x4
 1342 0073 0000 0000 		.long	.LASF10
 1343 0077 02        		.byte	0x2
 1344 0078 7A        		.byte	0x7a
 1345 0079 2500 0000 		.long	0x25
 1346 007d 04        		.uleb128 0x4
 1347 007e 0000 0000 		.long	.LASF11
 1348 0082 02        		.byte	0x2
 1349 0083 7C        		.byte	0x7c
 1350 0084 5D00 0000 		.long	0x5d
 1351 0088 05        		.uleb128 0x5
 1352 0089 01        		.byte	0x1
 1353 008a 06        		.byte	0x6
 1354 008b 05        		.uleb128 0x5
 1355 008c 01        		.byte	0x1
 1356 008d 08        		.byte	0x8
 1357 008e 06        		.uleb128 0x6
 1358 008f 01        		.byte	0x1
 1359 0090 0000 0000 		.long	.LASF61
 1360 0094 01        		.byte	0x1
 1361 0095 32        		.byte	0x32
 1362 0096 01        		.byte	0x1
 1363 0097 7200 0000 		.long	0x72
 1364 009b 01        		.byte	0x1
 1365 009c 07        		.uleb128 0x7
 1366 009d 0000 0000 		.long	.LASF16
 1367 00a1 01        		.byte	0x1
 1368 00a2 4001      		.word	0x140
GAS LISTING C:\Users\ADMINI~1\AppData\Local\Temp/cc0XRo0k.s 			page 25


 1369 00a4 01        		.byte	0x1
 1370 00a5 01        		.byte	0x1
 1371 00a6 0601 0000 		.long	0x106
 1372 00aa 08        		.uleb128 0x8
 1373 00ab 0000 0000 		.long	.LASF32
 1374 00af 01        		.byte	0x1
 1375 00b0 4001      		.word	0x140
 1376 00b2 7200 0000 		.long	0x72
 1377 00b6 09        		.uleb128 0x9
 1378 00b7 0000 0000 		.long	.LASF12
 1379 00bb 01        		.byte	0x1
 1380 00bc 4501      		.word	0x145
 1381 00be 0601 0000 		.long	0x106
 1382 00c2 0A        		.uleb128 0xa
 1383 00c3 6C65 6400 		.string	"led"
 1384 00c7 01        		.byte	0x1
 1385 00c8 4601      		.word	0x146
 1386 00ca 7200 0000 		.long	0x72
 1387 00ce 0B        		.uleb128 0xb
 1388 00cf 0C        		.uleb128 0xc
 1389 00d0 0000 0000 		.long	.LASF13
 1390 00d4 01        		.byte	0x1
 1391 00d5 4201      		.word	0x142
 1392 00d7 6B00 0000 		.long	0x6b
 1393 00db 05        		.byte	0x5
 1394 00dc 03        		.byte	0x3
 1395 00dd 0000 0000 		.long	beyondFNCounter.2377
 1396 00e1 0C        		.uleb128 0xc
 1397 00e2 0000 0000 		.long	.LASF14
 1398 00e6 01        		.byte	0x1
 1399 00e7 4301      		.word	0x143
 1400 00e9 6B00 0000 		.long	0x6b
 1401 00ed 05        		.byte	0x5
 1402 00ee 03        		.byte	0x3
 1403 00ef 0000 0000 		.long	beyondFNDelayCounter.2378
 1404 00f3 0C        		.uleb128 0xc
 1405 00f4 0000 0000 		.long	.LASF15
 1406 00f8 01        		.byte	0x1
 1407 00f9 4401      		.word	0x144
 1408 00fb 7200 0000 		.long	0x72
 1409 00ff 05        		.byte	0x5
 1410 0100 03        		.byte	0x3
 1411 0101 0000 0000 		.long	beyondFNLEDState.2379
 1412 0105 00        		.byte	0x0
 1413 0106 0D        		.uleb128 0xd
 1414 0107 6B00 0000 		.long	0x6b
 1415 010b 07        		.uleb128 0x7
 1416 010c 0000 0000 		.long	.LASF17
 1417 0110 01        		.byte	0x1
 1418 0111 7201      		.word	0x172
 1419 0113 01        		.byte	0x1
 1420 0114 01        		.byte	0x1
 1421 0115 3901 0000 		.long	0x139
 1422 0119 09        		.uleb128 0x9
 1423 011a 0000 0000 		.long	.LASF18
 1424 011e 01        		.byte	0x1
 1425 011f 7501      		.word	0x175
GAS LISTING C:\Users\ADMINI~1\AppData\Local\Temp/cc0XRo0k.s 			page 26


 1426 0121 0601 0000 		.long	0x106
 1427 0125 0B        		.uleb128 0xb
 1428 0126 0C        		.uleb128 0xc
 1429 0127 0000 0000 		.long	.LASF19
 1430 012b 01        		.byte	0x1
 1431 012c 7401      		.word	0x174
 1432 012e 6B00 0000 		.long	0x6b
 1433 0132 05        		.byte	0x5
 1434 0133 03        		.byte	0x3
 1435 0134 0000 0000 		.long	counter.2412
 1436 0138 00        		.byte	0x0
 1437 0139 0E        		.uleb128 0xe
 1438 013a 0000 0000 		.long	.LASF20
 1439 013e 01        		.byte	0x1
 1440 013f D9        		.byte	0xd9
 1441 0140 01        		.byte	0x1
 1442 0141 01        		.byte	0x1
 1443 0142 5201 0000 		.long	0x152
 1444 0146 0F        		.uleb128 0xf
 1445 0147 0000 0000 		.long	.LASF18
 1446 014b 01        		.byte	0x1
 1447 014c DB        		.byte	0xdb
 1448 014d 0601 0000 		.long	0x106
 1449 0151 00        		.byte	0x0
 1450 0152 10        		.uleb128 0x10
 1451 0153 01        		.byte	0x1
 1452 0154 0000 0000 		.long	.LASF21
 1453 0158 01        		.byte	0x1
 1454 0159 2F        		.byte	0x2f
 1455 015a 01        		.byte	0x1
 1456 015b 0000 0000 		.long	.LFB8
 1457 015f 0000 0000 		.long	.LFE8
 1458 0163 02        		.byte	0x2
 1459 0164 90        		.byte	0x90
 1460 0165 20        		.uleb128 0x20
 1461 0166 7801 0000 		.long	0x178
 1462 016a 11        		.uleb128 0x11
 1463 016b 0000 0000 		.long	.LASF26
 1464 016f 01        		.byte	0x1
 1465 0170 2F        		.byte	0x2f
 1466 0171 7200 0000 		.long	0x72
 1467 0175 01        		.byte	0x1
 1468 0176 68        		.byte	0x68
 1469 0177 00        		.byte	0x0
 1470 0178 12        		.uleb128 0x12
 1471 0179 8E00 0000 		.long	0x8e
 1472 017d 0000 0000 		.long	.LFB9
 1473 0181 0000 0000 		.long	.LFE9
 1474 0185 02        		.byte	0x2
 1475 0186 90        		.byte	0x90
 1476 0187 20        		.uleb128 0x20
 1477 0188 13        		.uleb128 0x13
 1478 0189 01        		.byte	0x1
 1479 018a 0000 0000 		.long	.LASF24
 1480 018e 01        		.byte	0x1
 1481 018f 6F        		.byte	0x6f
 1482 0190 01        		.byte	0x1
GAS LISTING C:\Users\ADMINI~1\AppData\Local\Temp/cc0XRo0k.s 			page 27


 1483 0191 0000 0000 		.long	.LFB14
 1484 0195 0000 0000 		.long	.LFE14
 1485 0199 02        		.byte	0x2
 1486 019a 90        		.byte	0x90
 1487 019b 20        		.uleb128 0x20
 1488 019c 10        		.uleb128 0x10
 1489 019d 01        		.byte	0x1
 1490 019e 0000 0000 		.long	.LASF22
 1491 01a2 01        		.byte	0x1
 1492 01a3 97        		.byte	0x97
 1493 01a4 01        		.byte	0x1
 1494 01a5 0000 0000 		.long	.LFB16
 1495 01a9 0000 0000 		.long	.LFE16
 1496 01ad 02        		.byte	0x2
 1497 01ae 90        		.byte	0x90
 1498 01af 20        		.uleb128 0x20
 1499 01b0 C601 0000 		.long	0x1c6
 1500 01b4 14        		.uleb128 0x14
 1501 01b5 0000 0000 		.long	.LASF23
 1502 01b9 01        		.byte	0x1
 1503 01ba AB        		.byte	0xab
 1504 01bb 7200 0000 		.long	0x72
 1505 01bf 05        		.byte	0x5
 1506 01c0 03        		.byte	0x3
 1507 01c1 0000 0000 		.long	prevSCRLED.2290
 1508 01c5 00        		.byte	0x0
 1509 01c6 13        		.uleb128 0x13
 1510 01c7 01        		.byte	0x1
 1511 01c8 0000 0000 		.long	.LASF25
 1512 01cc 01        		.byte	0x1
 1513 01cd C4        		.byte	0xc4
 1514 01ce 01        		.byte	0x1
 1515 01cf 0000 0000 		.long	.LFB17
 1516 01d3 0000 0000 		.long	.LFE17
 1517 01d7 02        		.byte	0x2
 1518 01d8 90        		.byte	0x90
 1519 01d9 20        		.uleb128 0x20
 1520 01da 15        		.uleb128 0x15
 1521 01db 0000 0000 		.long	.LASF62
 1522 01df 01        		.byte	0x1
 1523 01e0 EE        		.byte	0xee
 1524 01e1 01        		.byte	0x1
 1525 01e2 6B00 0000 		.long	0x6b
 1526 01e6 0000 0000 		.long	.LFB19
 1527 01ea 0000 0000 		.long	.LFE19
 1528 01ee 02        		.byte	0x2
 1529 01ef 90        		.byte	0x90
 1530 01f0 20        		.uleb128 0x20
 1531 01f1 1002 0000 		.long	0x210
 1532 01f5 16        		.uleb128 0x16
 1533 01f6 0000 0000 		.long	.LASF27
 1534 01fa 01        		.byte	0x1
 1535 01fb EE        		.byte	0xee
 1536 01fc 6B00 0000 		.long	0x6b
 1537 0200 0000 0000 		.long	.LLST6
 1538 0204 0F        		.uleb128 0xf
 1539 0205 0000 0000 		.long	.LASF28
GAS LISTING C:\Users\ADMINI~1\AppData\Local\Temp/cc0XRo0k.s 			page 28


 1540 0209 01        		.byte	0x1
 1541 020a EF        		.byte	0xef
 1542 020b 6B00 0000 		.long	0x6b
 1543 020f 00        		.byte	0x0
 1544 0210 17        		.uleb128 0x17
 1545 0211 01        		.byte	0x1
 1546 0212 0000 0000 		.long	.LASF29
 1547 0216 01        		.byte	0x1
 1548 0217 8D01      		.word	0x18d
 1549 0219 01        		.byte	0x1
 1550 021a 0000 0000 		.long	.LFB23
 1551 021e 0000 0000 		.long	.LFE23
 1552 0222 02        		.byte	0x2
 1553 0223 90        		.byte	0x90
 1554 0224 20        		.uleb128 0x20
 1555 0225 17        		.uleb128 0x17
 1556 0226 01        		.byte	0x1
 1557 0227 0000 0000 		.long	.LASF30
 1558 022b 01        		.byte	0x1
 1559 022c A501      		.word	0x1a5
 1560 022e 01        		.byte	0x1
 1561 022f 0000 0000 		.long	.LFB25
 1562 0233 0000 0000 		.long	.LFE25
 1563 0237 02        		.byte	0x2
 1564 0238 90        		.byte	0x90
 1565 0239 20        		.uleb128 0x20
 1566 023a 18        		.uleb128 0x18
 1567 023b 0000 0000 		.long	.LASF63
 1568 023f 01        		.byte	0x1
 1569 0240 F5        		.byte	0xf5
 1570 0241 01        		.byte	0x1
 1571 0242 01        		.byte	0x1
 1572 0243 19        		.uleb128 0x19
 1573 0244 01        		.byte	0x1
 1574 0245 0000 0000 		.long	.LASF31
 1575 0249 01        		.byte	0x1
 1576 024a B101      		.word	0x1b1
 1577 024c 01        		.byte	0x1
 1578 024d 0000 0000 		.long	.LFB26
 1579 0251 0000 0000 		.long	.LFE26
 1580 0255 02        		.byte	0x2
 1581 0256 90        		.byte	0x90
 1582 0257 20        		.uleb128 0x20
 1583 0258 F302 0000 		.long	0x2f3
 1584 025c 1A        		.uleb128 0x1a
 1585 025d 0000 0000 		.long	.LASF32
 1586 0261 01        		.byte	0x1
 1587 0262 B101      		.word	0x1b1
 1588 0264 7200 0000 		.long	0x72
 1589 0268 0000 0000 		.long	.LLST10
 1590 026c 1B        		.uleb128 0x1b
 1591 026d 9C00 0000 		.long	0x9c
 1592 0271 0000 0000 		.long	.LBB28
 1593 0275 0000 0000 		.long	.LBE28
 1594 0279 01        		.byte	0x1
 1595 027a B901      		.word	0x1b9
 1596 027c 9A02 0000 		.long	0x29a
GAS LISTING C:\Users\ADMINI~1\AppData\Local\Temp/cc0XRo0k.s 			page 29


 1597 0280 1C        		.uleb128 0x1c
 1598 0281 AA00 0000 		.long	0xaa
 1599 0285 1D        		.uleb128 0x1d
 1600 0286 0000 0000 		.long	.Ldebug_ranges0+0x0
 1601 028a 1E        		.uleb128 0x1e
 1602 028b B600 0000 		.long	0xb6
 1603 028f 1F        		.uleb128 0x1f
 1604 0290 C200 0000 		.long	0xc2
 1605 0294 0000 0000 		.long	.LLST11
 1606 0298 00        		.byte	0x0
 1607 0299 00        		.byte	0x0
 1608 029a 1B        		.uleb128 0x1b
 1609 029b 0B01 0000 		.long	0x10b
 1610 029f 0000 0000 		.long	.LBB31
 1611 02a3 0000 0000 		.long	.LBE31
 1612 02a7 01        		.byte	0x1
 1613 02a8 BC01      		.word	0x1bc
 1614 02aa BE02 0000 		.long	0x2be
 1615 02ae 20        		.uleb128 0x20
 1616 02af 0000 0000 		.long	.LBB32
 1617 02b3 0000 0000 		.long	.LBE32
 1618 02b7 1E        		.uleb128 0x1e
 1619 02b8 1901 0000 		.long	0x119
 1620 02bc 00        		.byte	0x0
 1621 02bd 00        		.byte	0x0
 1622 02be 1B        		.uleb128 0x1b
 1623 02bf 3901 0000 		.long	0x139
 1624 02c3 0000 0000 		.long	.LBB33
 1625 02c7 0000 0000 		.long	.LBE33
 1626 02cb 01        		.byte	0x1
 1627 02cc BF01      		.word	0x1bf
 1628 02ce E202 0000 		.long	0x2e2
 1629 02d2 20        		.uleb128 0x20
 1630 02d3 0000 0000 		.long	.LBB34
 1631 02d7 0000 0000 		.long	.LBE34
 1632 02db 1E        		.uleb128 0x1e
 1633 02dc 4601 0000 		.long	0x146
 1634 02e0 00        		.byte	0x0
 1635 02e1 00        		.byte	0x0
 1636 02e2 21        		.uleb128 0x21
 1637 02e3 3A02 0000 		.long	0x23a
 1638 02e7 0000 0000 		.long	.LBB35
 1639 02eb 0000 0000 		.long	.LBE35
 1640 02ef 01        		.byte	0x1
 1641 02f0 C201      		.word	0x1c2
 1642 02f2 00        		.byte	0x0
 1643 02f3 22        		.uleb128 0x22
 1644 02f4 0000 0000 		.long	.LASF64
 1645 02f8 01        		.byte	0x1
 1646 02f9 36        		.byte	0x36
 1647 02fa 01        		.byte	0x1
 1648 02fb 0000 0000 		.long	.LFB10
 1649 02ff 0000 0000 		.long	.LFE10
 1650 0303 02        		.byte	0x2
 1651 0304 90        		.byte	0x90
 1652 0305 20        		.uleb128 0x20
 1653 0306 17        		.uleb128 0x17
GAS LISTING C:\Users\ADMINI~1\AppData\Local\Temp/cc0XRo0k.s 			page 30


 1654 0307 01        		.byte	0x1
 1655 0308 0000 0000 		.long	.LASF33
 1656 030c 01        		.byte	0x1
 1657 030d 9F01      		.word	0x19f
 1658 030f 01        		.byte	0x1
 1659 0310 0000 0000 		.long	.LFB24
 1660 0314 0000 0000 		.long	.LFE24
 1661 0318 02        		.byte	0x2
 1662 0319 90        		.byte	0x90
 1663 031a 20        		.uleb128 0x20
 1664 031b 13        		.uleb128 0x13
 1665 031c 01        		.byte	0x1
 1666 031d 0000 0000 		.long	.LASF34
 1667 0321 01        		.byte	0x1
 1668 0322 67        		.byte	0x67
 1669 0323 01        		.byte	0x1
 1670 0324 0000 0000 		.long	.LFB13
 1671 0328 0000 0000 		.long	.LFE13
 1672 032c 02        		.byte	0x2
 1673 032d 90        		.byte	0x90
 1674 032e 20        		.uleb128 0x20
 1675 032f 13        		.uleb128 0x13
 1676 0330 01        		.byte	0x1
 1677 0331 0000 0000 		.long	.LASF35
 1678 0335 01        		.byte	0x1
 1679 0336 5B        		.byte	0x5b
 1680 0337 01        		.byte	0x1
 1681 0338 0000 0000 		.long	.LFB12
 1682 033c 0000 0000 		.long	.LFE12
 1683 0340 02        		.byte	0x2
 1684 0341 90        		.byte	0x90
 1685 0342 20        		.uleb128 0x20
 1686 0343 10        		.uleb128 0x10
 1687 0344 01        		.byte	0x1
 1688 0345 0000 0000 		.long	.LASF36
 1689 0349 01        		.byte	0x1
 1690 034a 4D        		.byte	0x4d
 1691 034b 01        		.byte	0x1
 1692 034c 0000 0000 		.long	.LFB11
 1693 0350 0000 0000 		.long	.LFE11
 1694 0354 02        		.byte	0x2
 1695 0355 90        		.byte	0x90
 1696 0356 20        		.uleb128 0x20
 1697 0357 6B03 0000 		.long	0x36b
 1698 035b 23        		.uleb128 0x23
 1699 035c 0000 0000 		.long	.LASF37
 1700 0360 01        		.byte	0x1
 1701 0361 50        		.byte	0x50
 1702 0362 6B00 0000 		.long	0x6b
 1703 0366 0000 0000 		.long	.LLST17
 1704 036a 00        		.byte	0x0
 1705 036b 13        		.uleb128 0x13
 1706 036c 01        		.byte	0x1
 1707 036d 0000 0000 		.long	.LASF38
 1708 0371 01        		.byte	0x1
 1709 0372 73        		.byte	0x73
 1710 0373 01        		.byte	0x1
GAS LISTING C:\Users\ADMINI~1\AppData\Local\Temp/cc0XRo0k.s 			page 31


 1711 0374 0000 0000 		.long	.LFB15
 1712 0378 0000 0000 		.long	.LFE15
 1713 037c 02        		.byte	0x2
 1714 037d 90        		.byte	0x90
 1715 037e 20        		.uleb128 0x20
 1716 037f 14        		.uleb128 0x14
 1717 0380 0000 0000 		.long	.LASF39
 1718 0384 01        		.byte	0x1
 1719 0385 15        		.byte	0x15
 1720 0386 7D00 0000 		.long	0x7d
 1721 038a 05        		.byte	0x5
 1722 038b 03        		.byte	0x3
 1723 038c 0000 0000 		.long	downLevelStay
 1724 0390 14        		.uleb128 0x14
 1725 0391 0000 0000 		.long	.LASF40
 1726 0395 01        		.byte	0x1
 1727 0396 16        		.byte	0x16
 1728 0397 7200 0000 		.long	0x72
 1729 039b 05        		.byte	0x5
 1730 039c 03        		.byte	0x3
 1731 039d 0000 0000 		.long	downLevel
 1732 03a1 24        		.uleb128 0x24
 1733 03a2 0000 0000 		.long	.LASF41
 1734 03a6 01        		.byte	0x1
 1735 03a7 17        		.byte	0x17
 1736 03a8 AD03 0000 		.long	0x3ad
 1737 03ac 0C        		.byte	0xc
 1738 03ad 0D        		.uleb128 0xd
 1739 03ae 7200 0000 		.long	0x72
 1740 03b2 14        		.uleb128 0x14
 1741 03b3 0000 0000 		.long	.LASF42
 1742 03b7 01        		.byte	0x1
 1743 03b8 18        		.byte	0x18
 1744 03b9 7200 0000 		.long	0x72
 1745 03bd 05        		.byte	0x5
 1746 03be 03        		.byte	0x3
 1747 03bf 0000 0000 		.long	downLevelLife
 1748 03c3 14        		.uleb128 0x14
 1749 03c4 0000 0000 		.long	.LASF43
 1750 03c8 01        		.byte	0x1
 1751 03c9 1A        		.byte	0x1a
 1752 03ca 7200 0000 		.long	0x72
 1753 03ce 05        		.byte	0x5
 1754 03cf 03        		.byte	0x3
 1755 03d0 0000 0000 		.long	ledInited
 1756 03d4 14        		.uleb128 0x14
 1757 03d5 0000 0000 		.long	.LASF44
 1758 03d9 01        		.byte	0x1
 1759 03da 1B        		.byte	0x1b
 1760 03db 7200 0000 		.long	0x72
 1761 03df 05        		.byte	0x5
 1762 03e0 03        		.byte	0x3
 1763 03e1 0000 0000 		.long	LEDstate
 1764 03e5 14        		.uleb128 0x14
 1765 03e6 0000 0000 		.long	.LASF45
 1766 03ea 01        		.byte	0x1
 1767 03eb 1C        		.byte	0x1c
GAS LISTING C:\Users\ADMINI~1\AppData\Local\Temp/cc0XRo0k.s 			page 32


 1768 03ec 7200 0000 		.long	0x72
 1769 03f0 05        		.byte	0x5
 1770 03f1 03        		.byte	0x3
 1771 03f2 0000 0000 		.long	scrollLockLED
 1772 03f6 14        		.uleb128 0x14
 1773 03f7 0000 0000 		.long	.LASF46
 1774 03fb 01        		.byte	0x1
 1775 03fc 1E        		.byte	0x1e
 1776 03fd 7200 0000 		.long	0x72
 1777 0401 05        		.byte	0x5
 1778 0402 03        		.byte	0x3
 1779 0403 0000 0000 		.long	_fullLEDMode
 1780 0407 14        		.uleb128 0x14
 1781 0408 0000 0000 		.long	.LASF47
 1782 040c 01        		.byte	0x1
 1783 040d 1F        		.byte	0x1f
 1784 040e 7200 0000 		.long	0x72
 1785 0412 05        		.byte	0x5
 1786 0413 03        		.byte	0x3
 1787 0414 0000 0000 		.long	_fullLEDMode_saved
 1788 0418 14        		.uleb128 0x14
 1789 0419 0000 0000 		.long	.LASF48
 1790 041d 01        		.byte	0x1
 1791 041e 21        		.byte	0x21
 1792 041f 6B00 0000 		.long	0x6b
 1793 0423 05        		.byte	0x5
 1794 0424 03        		.byte	0x3
 1795 0425 0000 0000 		.long	pwmCounter
 1796 0429 14        		.uleb128 0x14
 1797 042a 0000 0000 		.long	.LASF49
 1798 042e 01        		.byte	0x1
 1799 042f 22        		.byte	0x22
 1800 0430 6B00 0000 		.long	0x6b
 1801 0434 05        		.byte	0x5
 1802 0435 03        		.byte	0x3
 1803 0436 0000 0000 		.long	pwmDir
 1804 043a 24        		.uleb128 0x24
 1805 043b 0000 0000 		.long	.LASF50
 1806 043f 01        		.byte	0x1
 1807 0440 23        		.byte	0x23
 1808 0441 AD03 0000 		.long	0x3ad
 1809 0445 08        		.byte	0x8
 1810 0446 14        		.uleb128 0x14
 1811 0447 0000 0000 		.long	.LASF51
 1812 044b 01        		.byte	0x1
 1813 044c 24        		.byte	0x24
 1814 044d 7200 0000 		.long	0x72
 1815 0451 05        		.byte	0x5
 1816 0452 03        		.byte	0x3
 1817 0453 0000 0000 		.long	_isDidSleep
 1818 0457 14        		.uleb128 0x14
 1819 0458 0000 0000 		.long	.LASF52
 1820 045c 01        		.byte	0x1
 1821 045d 26        		.byte	0x26
 1822 045e 6B00 0000 		.long	0x6b
 1823 0462 05        		.byte	0x5
 1824 0463 03        		.byte	0x3
GAS LISTING C:\Users\ADMINI~1\AppData\Local\Temp/cc0XRo0k.s 			page 33


 1825 0464 0000 0000 		.long	ledStateCount
 1826 0468 14        		.uleb128 0x14
 1827 0469 0000 0000 		.long	.LASF53
 1828 046d 01        		.byte	0x1
 1829 046e 28        		.byte	0x28
 1830 046f 7200 0000 		.long	0x72
 1831 0473 05        		.byte	0x5
 1832 0474 03        		.byte	0x3
 1833 0475 0000 0000 		.long	_ledBrightnessMax
 1834 0479 14        		.uleb128 0x14
 1835 047a 0000 0000 		.long	.LASF54
 1836 047e 01        		.byte	0x1
 1837 047f 29        		.byte	0x29
 1838 0480 7200 0000 		.long	0x72
 1839 0484 05        		.byte	0x5
 1840 0485 03        		.byte	0x3
 1841 0486 0000 0000 		.long	_ledBrightnessMax_saved
 1842 048a 24        		.uleb128 0x24
 1843 048b 0000 0000 		.long	.LASF55
 1844 048f 01        		.byte	0x1
 1845 0490 2A        		.byte	0x2a
 1846 0491 AD03 0000 		.long	0x3ad
 1847 0495 1E        		.byte	0x1e
 1848 0496 24        		.uleb128 0x24
 1849 0497 0000 0000 		.long	.LASF56
 1850 049b 01        		.byte	0x1
 1851 049c 2B        		.byte	0x2b
 1852 049d AD03 0000 		.long	0x3ad
 1853 04a1 19        		.byte	0x19
 1854 04a2 14        		.uleb128 0x14
 1855 04a3 0000 0000 		.long	.LASF57
 1856 04a7 01        		.byte	0x1
 1857 04a8 2D        		.byte	0x2d
 1858 04a9 6B00 0000 		.long	0x6b
 1859 04ad 05        		.byte	0x5
 1860 04ae 03        		.byte	0x3
 1861 04af 0000 0000 		.long	beyondFNCountDelay
 1862 04b3 25        		.uleb128 0x25
 1863 04b4 0000 0000 		.long	.LASF65
 1864 04b8 03        		.byte	0x3
 1865 04b9 3B        		.byte	0x3b
 1866 04ba 7200 0000 		.long	0x72
 1867 04be 01        		.byte	0x1
 1868 04bf 01        		.byte	0x1
 1869 04c0 00        		.byte	0x0
 1870               		.section	.debug_abbrev
 1871 0000 01        		.uleb128 0x1
 1872 0001 11        		.uleb128 0x11
 1873 0002 01        		.byte	0x1
 1874 0003 25        		.uleb128 0x25
 1875 0004 0E        		.uleb128 0xe
 1876 0005 13        		.uleb128 0x13
 1877 0006 0B        		.uleb128 0xb
 1878 0007 03        		.uleb128 0x3
 1879 0008 0E        		.uleb128 0xe
 1880 0009 1B        		.uleb128 0x1b
 1881 000a 0E        		.uleb128 0xe
GAS LISTING C:\Users\ADMINI~1\AppData\Local\Temp/cc0XRo0k.s 			page 34


 1882 000b 11        		.uleb128 0x11
 1883 000c 01        		.uleb128 0x1
 1884 000d 12        		.uleb128 0x12
 1885 000e 01        		.uleb128 0x1
 1886 000f 10        		.uleb128 0x10
 1887 0010 06        		.uleb128 0x6
 1888 0011 00        		.byte	0x0
 1889 0012 00        		.byte	0x0
 1890 0013 02        		.uleb128 0x2
 1891 0014 24        		.uleb128 0x24
 1892 0015 00        		.byte	0x0
 1893 0016 0B        		.uleb128 0xb
 1894 0017 0B        		.uleb128 0xb
 1895 0018 3E        		.uleb128 0x3e
 1896 0019 0B        		.uleb128 0xb
 1897 001a 03        		.uleb128 0x3
 1898 001b 0E        		.uleb128 0xe
 1899 001c 00        		.byte	0x0
 1900 001d 00        		.byte	0x0
 1901 001e 03        		.uleb128 0x3
 1902 001f 24        		.uleb128 0x24
 1903 0020 00        		.byte	0x0
 1904 0021 0B        		.uleb128 0xb
 1905 0022 0B        		.uleb128 0xb
 1906 0023 3E        		.uleb128 0x3e
 1907 0024 0B        		.uleb128 0xb
 1908 0025 03        		.uleb128 0x3
 1909 0026 08        		.uleb128 0x8
 1910 0027 00        		.byte	0x0
 1911 0028 00        		.byte	0x0
 1912 0029 04        		.uleb128 0x4
 1913 002a 16        		.uleb128 0x16
 1914 002b 00        		.byte	0x0
 1915 002c 03        		.uleb128 0x3
 1916 002d 0E        		.uleb128 0xe
 1917 002e 3A        		.uleb128 0x3a
 1918 002f 0B        		.uleb128 0xb
 1919 0030 3B        		.uleb128 0x3b
 1920 0031 0B        		.uleb128 0xb
 1921 0032 49        		.uleb128 0x49
 1922 0033 13        		.uleb128 0x13
 1923 0034 00        		.byte	0x0
 1924 0035 00        		.byte	0x0
 1925 0036 05        		.uleb128 0x5
 1926 0037 24        		.uleb128 0x24
 1927 0038 00        		.byte	0x0
 1928 0039 0B        		.uleb128 0xb
 1929 003a 0B        		.uleb128 0xb
 1930 003b 3E        		.uleb128 0x3e
 1931 003c 0B        		.uleb128 0xb
 1932 003d 00        		.byte	0x0
 1933 003e 00        		.byte	0x0
 1934 003f 06        		.uleb128 0x6
 1935 0040 2E        		.uleb128 0x2e
 1936 0041 00        		.byte	0x0
 1937 0042 3F        		.uleb128 0x3f
 1938 0043 0C        		.uleb128 0xc
GAS LISTING C:\Users\ADMINI~1\AppData\Local\Temp/cc0XRo0k.s 			page 35


 1939 0044 03        		.uleb128 0x3
 1940 0045 0E        		.uleb128 0xe
 1941 0046 3A        		.uleb128 0x3a
 1942 0047 0B        		.uleb128 0xb
 1943 0048 3B        		.uleb128 0x3b
 1944 0049 0B        		.uleb128 0xb
 1945 004a 27        		.uleb128 0x27
 1946 004b 0C        		.uleb128 0xc
 1947 004c 49        		.uleb128 0x49
 1948 004d 13        		.uleb128 0x13
 1949 004e 20        		.uleb128 0x20
 1950 004f 0B        		.uleb128 0xb
 1951 0050 00        		.byte	0x0
 1952 0051 00        		.byte	0x0
 1953 0052 07        		.uleb128 0x7
 1954 0053 2E        		.uleb128 0x2e
 1955 0054 01        		.byte	0x1
 1956 0055 03        		.uleb128 0x3
 1957 0056 0E        		.uleb128 0xe
 1958 0057 3A        		.uleb128 0x3a
 1959 0058 0B        		.uleb128 0xb
 1960 0059 3B        		.uleb128 0x3b
 1961 005a 05        		.uleb128 0x5
 1962 005b 27        		.uleb128 0x27
 1963 005c 0C        		.uleb128 0xc
 1964 005d 20        		.uleb128 0x20
 1965 005e 0B        		.uleb128 0xb
 1966 005f 01        		.uleb128 0x1
 1967 0060 13        		.uleb128 0x13
 1968 0061 00        		.byte	0x0
 1969 0062 00        		.byte	0x0
 1970 0063 08        		.uleb128 0x8
 1971 0064 05        		.uleb128 0x5
 1972 0065 00        		.byte	0x0
 1973 0066 03        		.uleb128 0x3
 1974 0067 0E        		.uleb128 0xe
 1975 0068 3A        		.uleb128 0x3a
 1976 0069 0B        		.uleb128 0xb
 1977 006a 3B        		.uleb128 0x3b
 1978 006b 05        		.uleb128 0x5
 1979 006c 49        		.uleb128 0x49
 1980 006d 13        		.uleb128 0x13
 1981 006e 00        		.byte	0x0
 1982 006f 00        		.byte	0x0
 1983 0070 09        		.uleb128 0x9
 1984 0071 34        		.uleb128 0x34
 1985 0072 00        		.byte	0x0
 1986 0073 03        		.uleb128 0x3
 1987 0074 0E        		.uleb128 0xe
 1988 0075 3A        		.uleb128 0x3a
 1989 0076 0B        		.uleb128 0xb
 1990 0077 3B        		.uleb128 0x3b
 1991 0078 05        		.uleb128 0x5
 1992 0079 49        		.uleb128 0x49
 1993 007a 13        		.uleb128 0x13
 1994 007b 00        		.byte	0x0
 1995 007c 00        		.byte	0x0
GAS LISTING C:\Users\ADMINI~1\AppData\Local\Temp/cc0XRo0k.s 			page 36


 1996 007d 0A        		.uleb128 0xa
 1997 007e 34        		.uleb128 0x34
 1998 007f 00        		.byte	0x0
 1999 0080 03        		.uleb128 0x3
 2000 0081 08        		.uleb128 0x8
 2001 0082 3A        		.uleb128 0x3a
 2002 0083 0B        		.uleb128 0xb
 2003 0084 3B        		.uleb128 0x3b
 2004 0085 05        		.uleb128 0x5
 2005 0086 49        		.uleb128 0x49
 2006 0087 13        		.uleb128 0x13
 2007 0088 00        		.byte	0x0
 2008 0089 00        		.byte	0x0
 2009 008a 0B        		.uleb128 0xb
 2010 008b 0B        		.uleb128 0xb
 2011 008c 00        		.byte	0x0
 2012 008d 00        		.byte	0x0
 2013 008e 00        		.byte	0x0
 2014 008f 0C        		.uleb128 0xc
 2015 0090 34        		.uleb128 0x34
 2016 0091 00        		.byte	0x0
 2017 0092 03        		.uleb128 0x3
 2018 0093 0E        		.uleb128 0xe
 2019 0094 3A        		.uleb128 0x3a
 2020 0095 0B        		.uleb128 0xb
 2021 0096 3B        		.uleb128 0x3b
 2022 0097 05        		.uleb128 0x5
 2023 0098 49        		.uleb128 0x49
 2024 0099 13        		.uleb128 0x13
 2025 009a 02        		.uleb128 0x2
 2026 009b 0A        		.uleb128 0xa
 2027 009c 00        		.byte	0x0
 2028 009d 00        		.byte	0x0
 2029 009e 0D        		.uleb128 0xd
 2030 009f 26        		.uleb128 0x26
 2031 00a0 00        		.byte	0x0
 2032 00a1 49        		.uleb128 0x49
 2033 00a2 13        		.uleb128 0x13
 2034 00a3 00        		.byte	0x0
 2035 00a4 00        		.byte	0x0
 2036 00a5 0E        		.uleb128 0xe
 2037 00a6 2E        		.uleb128 0x2e
 2038 00a7 01        		.byte	0x1
 2039 00a8 03        		.uleb128 0x3
 2040 00a9 0E        		.uleb128 0xe
 2041 00aa 3A        		.uleb128 0x3a
 2042 00ab 0B        		.uleb128 0xb
 2043 00ac 3B        		.uleb128 0x3b
 2044 00ad 0B        		.uleb128 0xb
 2045 00ae 27        		.uleb128 0x27
 2046 00af 0C        		.uleb128 0xc
 2047 00b0 20        		.uleb128 0x20
 2048 00b1 0B        		.uleb128 0xb
 2049 00b2 01        		.uleb128 0x1
 2050 00b3 13        		.uleb128 0x13
 2051 00b4 00        		.byte	0x0
 2052 00b5 00        		.byte	0x0
GAS LISTING C:\Users\ADMINI~1\AppData\Local\Temp/cc0XRo0k.s 			page 37


 2053 00b6 0F        		.uleb128 0xf
 2054 00b7 34        		.uleb128 0x34
 2055 00b8 00        		.byte	0x0
 2056 00b9 03        		.uleb128 0x3
 2057 00ba 0E        		.uleb128 0xe
 2058 00bb 3A        		.uleb128 0x3a
 2059 00bc 0B        		.uleb128 0xb
 2060 00bd 3B        		.uleb128 0x3b
 2061 00be 0B        		.uleb128 0xb
 2062 00bf 49        		.uleb128 0x49
 2063 00c0 13        		.uleb128 0x13
 2064 00c1 00        		.byte	0x0
 2065 00c2 00        		.byte	0x0
 2066 00c3 10        		.uleb128 0x10
 2067 00c4 2E        		.uleb128 0x2e
 2068 00c5 01        		.byte	0x1
 2069 00c6 3F        		.uleb128 0x3f
 2070 00c7 0C        		.uleb128 0xc
 2071 00c8 03        		.uleb128 0x3
 2072 00c9 0E        		.uleb128 0xe
 2073 00ca 3A        		.uleb128 0x3a
 2074 00cb 0B        		.uleb128 0xb
 2075 00cc 3B        		.uleb128 0x3b
 2076 00cd 0B        		.uleb128 0xb
 2077 00ce 27        		.uleb128 0x27
 2078 00cf 0C        		.uleb128 0xc
 2079 00d0 11        		.uleb128 0x11
 2080 00d1 01        		.uleb128 0x1
 2081 00d2 12        		.uleb128 0x12
 2082 00d3 01        		.uleb128 0x1
 2083 00d4 40        		.uleb128 0x40
 2084 00d5 0A        		.uleb128 0xa
 2085 00d6 01        		.uleb128 0x1
 2086 00d7 13        		.uleb128 0x13
 2087 00d8 00        		.byte	0x0
 2088 00d9 00        		.byte	0x0
 2089 00da 11        		.uleb128 0x11
 2090 00db 05        		.uleb128 0x5
 2091 00dc 00        		.byte	0x0
 2092 00dd 03        		.uleb128 0x3
 2093 00de 0E        		.uleb128 0xe
 2094 00df 3A        		.uleb128 0x3a
 2095 00e0 0B        		.uleb128 0xb
 2096 00e1 3B        		.uleb128 0x3b
 2097 00e2 0B        		.uleb128 0xb
 2098 00e3 49        		.uleb128 0x49
 2099 00e4 13        		.uleb128 0x13
 2100 00e5 02        		.uleb128 0x2
 2101 00e6 0A        		.uleb128 0xa
 2102 00e7 00        		.byte	0x0
 2103 00e8 00        		.byte	0x0
 2104 00e9 12        		.uleb128 0x12
 2105 00ea 2E        		.uleb128 0x2e
 2106 00eb 00        		.byte	0x0
 2107 00ec 31        		.uleb128 0x31
 2108 00ed 13        		.uleb128 0x13
 2109 00ee 11        		.uleb128 0x11
GAS LISTING C:\Users\ADMINI~1\AppData\Local\Temp/cc0XRo0k.s 			page 38


 2110 00ef 01        		.uleb128 0x1
 2111 00f0 12        		.uleb128 0x12
 2112 00f1 01        		.uleb128 0x1
 2113 00f2 40        		.uleb128 0x40
 2114 00f3 0A        		.uleb128 0xa
 2115 00f4 00        		.byte	0x0
 2116 00f5 00        		.byte	0x0
 2117 00f6 13        		.uleb128 0x13
 2118 00f7 2E        		.uleb128 0x2e
 2119 00f8 00        		.byte	0x0
 2120 00f9 3F        		.uleb128 0x3f
 2121 00fa 0C        		.uleb128 0xc
 2122 00fb 03        		.uleb128 0x3
 2123 00fc 0E        		.uleb128 0xe
 2124 00fd 3A        		.uleb128 0x3a
 2125 00fe 0B        		.uleb128 0xb
 2126 00ff 3B        		.uleb128 0x3b
 2127 0100 0B        		.uleb128 0xb
 2128 0101 27        		.uleb128 0x27
 2129 0102 0C        		.uleb128 0xc
 2130 0103 11        		.uleb128 0x11
 2131 0104 01        		.uleb128 0x1
 2132 0105 12        		.uleb128 0x12
 2133 0106 01        		.uleb128 0x1
 2134 0107 40        		.uleb128 0x40
 2135 0108 0A        		.uleb128 0xa
 2136 0109 00        		.byte	0x0
 2137 010a 00        		.byte	0x0
 2138 010b 14        		.uleb128 0x14
 2139 010c 34        		.uleb128 0x34
 2140 010d 00        		.byte	0x0
 2141 010e 03        		.uleb128 0x3
 2142 010f 0E        		.uleb128 0xe
 2143 0110 3A        		.uleb128 0x3a
 2144 0111 0B        		.uleb128 0xb
 2145 0112 3B        		.uleb128 0x3b
 2146 0113 0B        		.uleb128 0xb
 2147 0114 49        		.uleb128 0x49
 2148 0115 13        		.uleb128 0x13
 2149 0116 02        		.uleb128 0x2
 2150 0117 0A        		.uleb128 0xa
 2151 0118 00        		.byte	0x0
 2152 0119 00        		.byte	0x0
 2153 011a 15        		.uleb128 0x15
 2154 011b 2E        		.uleb128 0x2e
 2155 011c 01        		.byte	0x1
 2156 011d 03        		.uleb128 0x3
 2157 011e 0E        		.uleb128 0xe
 2158 011f 3A        		.uleb128 0x3a
 2159 0120 0B        		.uleb128 0xb
 2160 0121 3B        		.uleb128 0x3b
 2161 0122 0B        		.uleb128 0xb
 2162 0123 27        		.uleb128 0x27
 2163 0124 0C        		.uleb128 0xc
 2164 0125 49        		.uleb128 0x49
 2165 0126 13        		.uleb128 0x13
 2166 0127 11        		.uleb128 0x11
GAS LISTING C:\Users\ADMINI~1\AppData\Local\Temp/cc0XRo0k.s 			page 39


 2167 0128 01        		.uleb128 0x1
 2168 0129 12        		.uleb128 0x12
 2169 012a 01        		.uleb128 0x1
 2170 012b 40        		.uleb128 0x40
 2171 012c 0A        		.uleb128 0xa
 2172 012d 01        		.uleb128 0x1
 2173 012e 13        		.uleb128 0x13
 2174 012f 00        		.byte	0x0
 2175 0130 00        		.byte	0x0
 2176 0131 16        		.uleb128 0x16
 2177 0132 05        		.uleb128 0x5
 2178 0133 00        		.byte	0x0
 2179 0134 03        		.uleb128 0x3
 2180 0135 0E        		.uleb128 0xe
 2181 0136 3A        		.uleb128 0x3a
 2182 0137 0B        		.uleb128 0xb
 2183 0138 3B        		.uleb128 0x3b
 2184 0139 0B        		.uleb128 0xb
 2185 013a 49        		.uleb128 0x49
 2186 013b 13        		.uleb128 0x13
 2187 013c 02        		.uleb128 0x2
 2188 013d 06        		.uleb128 0x6
 2189 013e 00        		.byte	0x0
 2190 013f 00        		.byte	0x0
 2191 0140 17        		.uleb128 0x17
 2192 0141 2E        		.uleb128 0x2e
 2193 0142 00        		.byte	0x0
 2194 0143 3F        		.uleb128 0x3f
 2195 0144 0C        		.uleb128 0xc
 2196 0145 03        		.uleb128 0x3
 2197 0146 0E        		.uleb128 0xe
 2198 0147 3A        		.uleb128 0x3a
 2199 0148 0B        		.uleb128 0xb
 2200 0149 3B        		.uleb128 0x3b
 2201 014a 05        		.uleb128 0x5
 2202 014b 27        		.uleb128 0x27
 2203 014c 0C        		.uleb128 0xc
 2204 014d 11        		.uleb128 0x11
 2205 014e 01        		.uleb128 0x1
 2206 014f 12        		.uleb128 0x12
 2207 0150 01        		.uleb128 0x1
 2208 0151 40        		.uleb128 0x40
 2209 0152 0A        		.uleb128 0xa
 2210 0153 00        		.byte	0x0
 2211 0154 00        		.byte	0x0
 2212 0155 18        		.uleb128 0x18
 2213 0156 2E        		.uleb128 0x2e
 2214 0157 00        		.byte	0x0
 2215 0158 03        		.uleb128 0x3
 2216 0159 0E        		.uleb128 0xe
 2217 015a 3A        		.uleb128 0x3a
 2218 015b 0B        		.uleb128 0xb
 2219 015c 3B        		.uleb128 0x3b
 2220 015d 0B        		.uleb128 0xb
 2221 015e 27        		.uleb128 0x27
 2222 015f 0C        		.uleb128 0xc
 2223 0160 20        		.uleb128 0x20
GAS LISTING C:\Users\ADMINI~1\AppData\Local\Temp/cc0XRo0k.s 			page 40


 2224 0161 0B        		.uleb128 0xb
 2225 0162 00        		.byte	0x0
 2226 0163 00        		.byte	0x0
 2227 0164 19        		.uleb128 0x19
 2228 0165 2E        		.uleb128 0x2e
 2229 0166 01        		.byte	0x1
 2230 0167 3F        		.uleb128 0x3f
 2231 0168 0C        		.uleb128 0xc
 2232 0169 03        		.uleb128 0x3
 2233 016a 0E        		.uleb128 0xe
 2234 016b 3A        		.uleb128 0x3a
 2235 016c 0B        		.uleb128 0xb
 2236 016d 3B        		.uleb128 0x3b
 2237 016e 05        		.uleb128 0x5
 2238 016f 27        		.uleb128 0x27
 2239 0170 0C        		.uleb128 0xc
 2240 0171 11        		.uleb128 0x11
 2241 0172 01        		.uleb128 0x1
 2242 0173 12        		.uleb128 0x12
 2243 0174 01        		.uleb128 0x1
 2244 0175 40        		.uleb128 0x40
 2245 0176 0A        		.uleb128 0xa
 2246 0177 01        		.uleb128 0x1
 2247 0178 13        		.uleb128 0x13
 2248 0179 00        		.byte	0x0
 2249 017a 00        		.byte	0x0
 2250 017b 1A        		.uleb128 0x1a
 2251 017c 05        		.uleb128 0x5
 2252 017d 00        		.byte	0x0
 2253 017e 03        		.uleb128 0x3
 2254 017f 0E        		.uleb128 0xe
 2255 0180 3A        		.uleb128 0x3a
 2256 0181 0B        		.uleb128 0xb
 2257 0182 3B        		.uleb128 0x3b
 2258 0183 05        		.uleb128 0x5
 2259 0184 49        		.uleb128 0x49
 2260 0185 13        		.uleb128 0x13
 2261 0186 02        		.uleb128 0x2
 2262 0187 06        		.uleb128 0x6
 2263 0188 00        		.byte	0x0
 2264 0189 00        		.byte	0x0
 2265 018a 1B        		.uleb128 0x1b
 2266 018b 1D        		.uleb128 0x1d
 2267 018c 01        		.byte	0x1
 2268 018d 31        		.uleb128 0x31
 2269 018e 13        		.uleb128 0x13
 2270 018f 11        		.uleb128 0x11
 2271 0190 01        		.uleb128 0x1
 2272 0191 12        		.uleb128 0x12
 2273 0192 01        		.uleb128 0x1
 2274 0193 58        		.uleb128 0x58
 2275 0194 0B        		.uleb128 0xb
 2276 0195 59        		.uleb128 0x59
 2277 0196 05        		.uleb128 0x5
 2278 0197 01        		.uleb128 0x1
 2279 0198 13        		.uleb128 0x13
 2280 0199 00        		.byte	0x0
GAS LISTING C:\Users\ADMINI~1\AppData\Local\Temp/cc0XRo0k.s 			page 41


 2281 019a 00        		.byte	0x0
 2282 019b 1C        		.uleb128 0x1c
 2283 019c 05        		.uleb128 0x5
 2284 019d 00        		.byte	0x0
 2285 019e 31        		.uleb128 0x31
 2286 019f 13        		.uleb128 0x13
 2287 01a0 00        		.byte	0x0
 2288 01a1 00        		.byte	0x0
 2289 01a2 1D        		.uleb128 0x1d
 2290 01a3 0B        		.uleb128 0xb
 2291 01a4 01        		.byte	0x1
 2292 01a5 55        		.uleb128 0x55
 2293 01a6 06        		.uleb128 0x6
 2294 01a7 00        		.byte	0x0
 2295 01a8 00        		.byte	0x0
 2296 01a9 1E        		.uleb128 0x1e
 2297 01aa 34        		.uleb128 0x34
 2298 01ab 00        		.byte	0x0
 2299 01ac 31        		.uleb128 0x31
 2300 01ad 13        		.uleb128 0x13
 2301 01ae 00        		.byte	0x0
 2302 01af 00        		.byte	0x0
 2303 01b0 1F        		.uleb128 0x1f
 2304 01b1 34        		.uleb128 0x34
 2305 01b2 00        		.byte	0x0
 2306 01b3 31        		.uleb128 0x31
 2307 01b4 13        		.uleb128 0x13
 2308 01b5 02        		.uleb128 0x2
 2309 01b6 06        		.uleb128 0x6
 2310 01b7 00        		.byte	0x0
 2311 01b8 00        		.byte	0x0
 2312 01b9 20        		.uleb128 0x20
 2313 01ba 0B        		.uleb128 0xb
 2314 01bb 01        		.byte	0x1
 2315 01bc 11        		.uleb128 0x11
 2316 01bd 01        		.uleb128 0x1
 2317 01be 12        		.uleb128 0x12
 2318 01bf 01        		.uleb128 0x1
 2319 01c0 00        		.byte	0x0
 2320 01c1 00        		.byte	0x0
 2321 01c2 21        		.uleb128 0x21
 2322 01c3 1D        		.uleb128 0x1d
 2323 01c4 00        		.byte	0x0
 2324 01c5 31        		.uleb128 0x31
 2325 01c6 13        		.uleb128 0x13
 2326 01c7 11        		.uleb128 0x11
 2327 01c8 01        		.uleb128 0x1
 2328 01c9 12        		.uleb128 0x12
 2329 01ca 01        		.uleb128 0x1
 2330 01cb 58        		.uleb128 0x58
 2331 01cc 0B        		.uleb128 0xb
 2332 01cd 59        		.uleb128 0x59
 2333 01ce 05        		.uleb128 0x5
 2334 01cf 00        		.byte	0x0
 2335 01d0 00        		.byte	0x0
 2336 01d1 22        		.uleb128 0x22
 2337 01d2 2E        		.uleb128 0x2e
GAS LISTING C:\Users\ADMINI~1\AppData\Local\Temp/cc0XRo0k.s 			page 42


 2338 01d3 00        		.byte	0x0
 2339 01d4 03        		.uleb128 0x3
 2340 01d5 0E        		.uleb128 0xe
 2341 01d6 3A        		.uleb128 0x3a
 2342 01d7 0B        		.uleb128 0xb
 2343 01d8 3B        		.uleb128 0x3b
 2344 01d9 0B        		.uleb128 0xb
 2345 01da 27        		.uleb128 0x27
 2346 01db 0C        		.uleb128 0xc
 2347 01dc 11        		.uleb128 0x11
 2348 01dd 01        		.uleb128 0x1
 2349 01de 12        		.uleb128 0x12
 2350 01df 01        		.uleb128 0x1
 2351 01e0 40        		.uleb128 0x40
 2352 01e1 0A        		.uleb128 0xa
 2353 01e2 00        		.byte	0x0
 2354 01e3 00        		.byte	0x0
 2355 01e4 23        		.uleb128 0x23
 2356 01e5 34        		.uleb128 0x34
 2357 01e6 00        		.byte	0x0
 2358 01e7 03        		.uleb128 0x3
 2359 01e8 0E        		.uleb128 0xe
 2360 01e9 3A        		.uleb128 0x3a
 2361 01ea 0B        		.uleb128 0xb
 2362 01eb 3B        		.uleb128 0x3b
 2363 01ec 0B        		.uleb128 0xb
 2364 01ed 49        		.uleb128 0x49
 2365 01ee 13        		.uleb128 0x13
 2366 01ef 02        		.uleb128 0x2
 2367 01f0 06        		.uleb128 0x6
 2368 01f1 00        		.byte	0x0
 2369 01f2 00        		.byte	0x0
 2370 01f3 24        		.uleb128 0x24
 2371 01f4 34        		.uleb128 0x34
 2372 01f5 00        		.byte	0x0
 2373 01f6 03        		.uleb128 0x3
 2374 01f7 0E        		.uleb128 0xe
 2375 01f8 3A        		.uleb128 0x3a
 2376 01f9 0B        		.uleb128 0xb
 2377 01fa 3B        		.uleb128 0x3b
 2378 01fb 0B        		.uleb128 0xb
 2379 01fc 49        		.uleb128 0x49
 2380 01fd 13        		.uleb128 0x13
 2381 01fe 1C        		.uleb128 0x1c
 2382 01ff 0B        		.uleb128 0xb
 2383 0200 00        		.byte	0x0
 2384 0201 00        		.byte	0x0
 2385 0202 25        		.uleb128 0x25
 2386 0203 34        		.uleb128 0x34
 2387 0204 00        		.byte	0x0
 2388 0205 03        		.uleb128 0x3
 2389 0206 0E        		.uleb128 0xe
 2390 0207 3A        		.uleb128 0x3a
 2391 0208 0B        		.uleb128 0xb
 2392 0209 3B        		.uleb128 0x3b
 2393 020a 0B        		.uleb128 0xb
 2394 020b 49        		.uleb128 0x49
GAS LISTING C:\Users\ADMINI~1\AppData\Local\Temp/cc0XRo0k.s 			page 43


 2395 020c 13        		.uleb128 0x13
 2396 020d 3F        		.uleb128 0x3f
 2397 020e 0C        		.uleb128 0xc
 2398 020f 3C        		.uleb128 0x3c
 2399 0210 0C        		.uleb128 0xc
 2400 0211 00        		.byte	0x0
 2401 0212 00        		.byte	0x0
 2402 0213 00        		.byte	0x0
 2403               		.section	.debug_pubnames,"",@progbits
 2404 0000 0201 0000 		.long	0x102
 2405 0004 0200      		.word	0x2
 2406 0006 0000 0000 		.long	.Ldebug_info0
 2407 000a C104 0000 		.long	0x4c1
 2408 000e 5201 0000 		.long	0x152
 2409 0012 7365 744C 		.string	"setLEDState"
 2409      4544 5374 
 2409      6174 6500 
 2410 001e 7801 0000 		.long	0x178
 2411 0022 6765 744C 		.string	"getLEDState"
 2411      4544 5374 
 2411      6174 6500 
 2412 002e 8801 0000 		.long	0x188
 2413 0032 636C 6561 		.string	"clearLEDInited"
 2413      724C 4544 
 2413      496E 6974 
 2413      6564 00
 2414 0041 9C01 0000 		.long	0x19c
 2415 0045 7365 744C 		.string	"setLEDIndicate"
 2415      4544 496E 
 2415      6469 6361 
 2415      7465 00
 2416 0054 C601 0000 		.long	0x1c6
 2417 0058 6170 706C 		.string	"applyKeyDownForFullLED"
 2417      794B 6579 
 2417      446F 776E 
 2417      466F 7246 
 2417      756C 6C4C 
 2418 006f 1002 0000 		.long	0x210
 2419 0073 736C 6565 		.string	"sleepLED"
 2419      704C 4544 
 2419      00
 2420 007c 2502 0000 		.long	0x225
 2421 0080 646F 536C 		.string	"doSleep"
 2421      6565 7000 
 2422 0088 4302 0000 		.long	0x243
 2423 008c 7265 6E64 		.string	"renderLED"
 2423      6572 4C45 
 2423      4400 
 2424 0096 0603 0000 		.long	0x306
 2425 009a 7761 6B65 		.string	"wakeUpLED"
 2425      5570 4C45 
 2425      4400 
 2426 00a4 1B03 0000 		.long	0x31b
 2427 00a8 6368 616E 		.string	"changeFullLedState"
 2427      6765 4675 
 2427      6C6C 4C65 
 2427      6453 7461 
GAS LISTING C:\Users\ADMINI~1\AppData\Local\Temp/cc0XRo0k.s 			page 44


 2427      7465 00
 2428 00bb 2F03 0000 		.long	0x32f
 2429 00bf 7265 6475 		.string	"reduceLedBrightness"
 2429      6365 4C65 
 2429      6442 7269 
 2429      6768 746E 
 2429      6573 7300 
 2430 00d3 4303 0000 		.long	0x343
 2431 00d7 696E 6372 		.string	"increaseLedBrightness"
 2431      6561 7365 
 2431      4C65 6442 
 2431      7269 6768 
 2431      746E 6573 
 2432 00ed 6B03 0000 		.long	0x36b
 2433 00f1 696E 6974 		.string	"initFullLEDState"
 2433      4675 6C6C 
 2433      4C45 4453 
 2433      7461 7465 
 2433      00
 2434 0102 0000 0000 		.long	0x0
 2435               		.section	.debug_aranges,"",@progbits
 2436 0000 1C00 0000 		.long	0x1c
 2437 0004 0200      		.word	0x2
 2438 0006 0000 0000 		.long	.Ldebug_info0
 2439 000a 04        		.byte	0x4
 2440 000b 00        		.byte	0x0
 2441 000c 0000      		.word	0x0
 2442 000e 0000      		.word	0x0
 2443 0010 0000 0000 		.long	.Ltext0
 2444 0014 3406 0000 		.long	.Letext0-.Ltext0
 2445 0018 0000 0000 		.long	0x0
 2446 001c 0000 0000 		.long	0x0
 2447               		.section	.debug_ranges,"",@progbits
 2448               	.Ldebug_ranges0:
 2449 0000 B201 0000 		.long	.LBB29-.Ltext0
 2450 0004 FA01 0000 		.long	.LBE29-.Ltext0
 2451 0008 0602 0000 		.long	.LBB30-.Ltext0
 2452 000c 5802 0000 		.long	.LBE30-.Ltext0
 2453 0010 0000 0000 		.long	0x0
 2454 0014 0000 0000 		.long	0x0
 2455               		.section	.debug_line
 2456 0000 8506 0000 		.long	.LELT0-.LSLT0
 2457               	.LSLT0:
 2458 0004 0200      		.word	0x2
 2459 0006 6A00 0000 		.long	.LELTP0-.LASLTP0
 2460               	.LASLTP0:
 2461 000a 01        		.byte	0x1
 2462 000b 01        		.byte	0x1
 2463 000c F6        		.byte	0xf6
 2464 000d F5        		.byte	0xf5
 2465 000e 0A        		.byte	0xa
 2466 000f 00        		.byte	0x0
 2467 0010 01        		.byte	0x1
 2468 0011 01        		.byte	0x1
 2469 0012 01        		.byte	0x1
 2470 0013 01        		.byte	0x1
 2471 0014 00        		.byte	0x0
GAS LISTING C:\Users\ADMINI~1\AppData\Local\Temp/cc0XRo0k.s 			page 45


 2472 0015 00        		.byte	0x0
 2473 0016 00        		.byte	0x0
 2474 0017 01        		.byte	0x1
 2475 0018 633A 2F77 		.ascii	"c:/winavr-20100110/lib/gcc/../../avr/include"
 2475      696E 6176 
 2475      722D 3230 
 2475      3130 3031 
 2475      3130 2F6C 
 2476 0044 00        		.byte	0
 2477 0045 00        		.byte	0x0
 2478 0046 6C65 6472 		.string	"ledrender.c"
 2478      656E 6465 
 2478      722E 6300 
 2479 0052 00        		.uleb128 0x0
 2480 0053 00        		.uleb128 0x0
 2481 0054 00        		.uleb128 0x0
 2482 0055 7374 6469 		.string	"stdint.h"
 2482      6E74 2E68 
 2482      00
 2483 005e 01        		.uleb128 0x1
 2484 005f 00        		.uleb128 0x0
 2485 0060 00        		.uleb128 0x0
 2486 0061 6861 7264 		.string	"hardwareinfo.h"
 2486      7761 7265 
 2486      696E 666F 
 2486      2E68 00
 2487 0070 00        		.uleb128 0x0
 2488 0071 00        		.uleb128 0x0
 2489 0072 00        		.uleb128 0x0
 2490 0073 00        		.byte	0x0
 2491               	.LELTP0:
 2492 0074 00        		.byte	0x0
 2493 0075 05        		.uleb128 0x5
 2494 0076 02        		.byte	0x2
 2495 0077 0000 0000 		.long	.LM1
 2496 007b 42        		.byte	0x42
 2497 007c 00        		.byte	0x0
 2498 007d 05        		.uleb128 0x5
 2499 007e 02        		.byte	0x2
 2500 007f 0000 0000 		.long	.LM2
 2501 0083 15        		.byte	0x15
 2502 0084 00        		.byte	0x0
 2503 0085 05        		.uleb128 0x5
 2504 0086 02        		.byte	0x2
 2505 0087 0000 0000 		.long	.LM3
 2506 008b 15        		.byte	0x15
 2507 008c 00        		.byte	0x0
 2508 008d 05        		.uleb128 0x5
 2509 008e 02        		.byte	0x2
 2510 008f 0000 0000 		.long	.LM4
 2511 0093 15        		.byte	0x15
 2512 0094 00        		.byte	0x0
 2513 0095 05        		.uleb128 0x5
 2514 0096 02        		.byte	0x2
 2515 0097 0000 0000 		.long	.LM5
 2516 009b 16        		.byte	0x16
 2517 009c 00        		.byte	0x0
GAS LISTING C:\Users\ADMINI~1\AppData\Local\Temp/cc0XRo0k.s 			page 46


 2518 009d 05        		.uleb128 0x5
 2519 009e 02        		.byte	0x2
 2520 009f 0000 0000 		.long	.LM6
 2521 00a3 4F        		.byte	0x4f
 2522 00a4 00        		.byte	0x0
 2523 00a5 05        		.uleb128 0x5
 2524 00a6 02        		.byte	0x2
 2525 00a7 0000 0000 		.long	.LM7
 2526 00ab 15        		.byte	0x15
 2527 00ac 00        		.byte	0x0
 2528 00ad 05        		.uleb128 0x5
 2529 00ae 02        		.byte	0x2
 2530 00af 0000 0000 		.long	.LM8
 2531 00b3 15        		.byte	0x15
 2532 00b4 00        		.byte	0x0
 2533 00b5 05        		.uleb128 0x5
 2534 00b6 02        		.byte	0x2
 2535 00b7 0000 0000 		.long	.LM9
 2536 00bb 3A        		.byte	0x3a
 2537 00bc 00        		.byte	0x0
 2538 00bd 05        		.uleb128 0x5
 2539 00be 02        		.byte	0x2
 2540 00bf 0000 0000 		.long	.LM10
 2541 00c3 15        		.byte	0x15
 2542 00c4 00        		.byte	0x0
 2543 00c5 05        		.uleb128 0x5
 2544 00c6 02        		.byte	0x2
 2545 00c7 0000 0000 		.long	.LM11
 2546 00cb 15        		.byte	0x15
 2547 00cc 00        		.byte	0x0
 2548 00cd 05        		.uleb128 0x5
 2549 00ce 02        		.byte	0x2
 2550 00cf 0000 0000 		.long	.LM12
 2551 00d3 16        		.byte	0x16
 2552 00d4 00        		.byte	0x0
 2553 00d5 05        		.uleb128 0x5
 2554 00d6 02        		.byte	0x2
 2555 00d7 0000 0000 		.long	.LM13
 2556 00db 16        		.byte	0x16
 2557 00dc 00        		.byte	0x0
 2558 00dd 05        		.uleb128 0x5
 2559 00de 02        		.byte	0x2
 2560 00df 0000 0000 		.long	.LM14
 2561 00e3 15        		.byte	0x15
 2562 00e4 00        		.byte	0x0
 2563 00e5 05        		.uleb128 0x5
 2564 00e6 02        		.byte	0x2
 2565 00e7 0000 0000 		.long	.LM15
 2566 00eb 16        		.byte	0x16
 2567 00ec 00        		.byte	0x0
 2568 00ed 05        		.uleb128 0x5
 2569 00ee 02        		.byte	0x2
 2570 00ef 0000 0000 		.long	.LM16
 2571 00f3 18        		.byte	0x18
 2572 00f4 00        		.byte	0x0
 2573 00f5 05        		.uleb128 0x5
 2574 00f6 02        		.byte	0x2
GAS LISTING C:\Users\ADMINI~1\AppData\Local\Temp/cc0XRo0k.s 			page 47


 2575 00f7 0000 0000 		.long	.LM17
 2576 00fb 15        		.byte	0x15
 2577 00fc 00        		.byte	0x0
 2578 00fd 05        		.uleb128 0x5
 2579 00fe 02        		.byte	0x2
 2580 00ff 0000 0000 		.long	.LM18
 2581 0103 1B        		.byte	0x1b
 2582 0104 00        		.byte	0x0
 2583 0105 05        		.uleb128 0x5
 2584 0106 02        		.byte	0x2
 2585 0107 0000 0000 		.long	.LM19
 2586 010b 0F        		.byte	0xf
 2587 010c 00        		.byte	0x0
 2588 010d 05        		.uleb128 0x5
 2589 010e 02        		.byte	0x2
 2590 010f 0000 0000 		.long	.LM20
 2591 0113 24        		.byte	0x24
 2592 0114 00        		.byte	0x0
 2593 0115 05        		.uleb128 0x5
 2594 0116 02        		.byte	0x2
 2595 0117 0000 0000 		.long	.LM21
 2596 011b 0B        		.byte	0xb
 2597 011c 00        		.byte	0x0
 2598 011d 05        		.uleb128 0x5
 2599 011e 02        		.byte	0x2
 2600 011f 0000 0000 		.long	.LM22
 2601 0123 17        		.byte	0x17
 2602 0124 00        		.byte	0x0
 2603 0125 05        		.uleb128 0x5
 2604 0126 02        		.byte	0x2
 2605 0127 0000 0000 		.long	.LM23
 2606 012b 15        		.byte	0x15
 2607 012c 00        		.byte	0x0
 2608 012d 05        		.uleb128 0x5
 2609 012e 02        		.byte	0x2
 2610 012f 0000 0000 		.long	.LM24
 2611 0133 16        		.byte	0x16
 2612 0134 00        		.byte	0x0
 2613 0135 05        		.uleb128 0x5
 2614 0136 02        		.byte	0x2
 2615 0137 0000 0000 		.long	.LM25
 2616 013b 19        		.byte	0x19
 2617 013c 00        		.byte	0x0
 2618 013d 05        		.uleb128 0x5
 2619 013e 02        		.byte	0x2
 2620 013f 0000 0000 		.long	.LM26
 2621 0143 15        		.byte	0x15
 2622 0144 00        		.byte	0x0
 2623 0145 05        		.uleb128 0x5
 2624 0146 02        		.byte	0x2
 2625 0147 0000 0000 		.long	.LM27
 2626 014b 15        		.byte	0x15
 2627 014c 00        		.byte	0x0
 2628 014d 05        		.uleb128 0x5
 2629 014e 02        		.byte	0x2
 2630 014f 0000 0000 		.long	.LM28
 2631 0153 16        		.byte	0x16
GAS LISTING C:\Users\ADMINI~1\AppData\Local\Temp/cc0XRo0k.s 			page 48


 2632 0154 00        		.byte	0x0
 2633 0155 05        		.uleb128 0x5
 2634 0156 02        		.byte	0x2
 2635 0157 0000 0000 		.long	.LM29
 2636 015b 1B        		.byte	0x1b
 2637 015c 00        		.byte	0x0
 2638 015d 05        		.uleb128 0x5
 2639 015e 02        		.byte	0x2
 2640 015f 0000 0000 		.long	.LM30
 2641 0163 15        		.byte	0x15
 2642 0164 00        		.byte	0x0
 2643 0165 05        		.uleb128 0x5
 2644 0166 02        		.byte	0x2
 2645 0167 0000 0000 		.long	.LM31
 2646 016b 16        		.byte	0x16
 2647 016c 00        		.byte	0x0
 2648 016d 05        		.uleb128 0x5
 2649 016e 02        		.byte	0x2
 2650 016f 0000 0000 		.long	.LM32
 2651 0173 15        		.byte	0x15
 2652 0174 00        		.byte	0x0
 2653 0175 05        		.uleb128 0x5
 2654 0176 02        		.byte	0x2
 2655 0177 0000 0000 		.long	.LM33
 2656 017b 15        		.byte	0x15
 2657 017c 00        		.byte	0x0
 2658 017d 05        		.uleb128 0x5
 2659 017e 02        		.byte	0x2
 2660 017f 0000 0000 		.long	.LM34
 2661 0183 15        		.byte	0x15
 2662 0184 00        		.byte	0x0
 2663 0185 05        		.uleb128 0x5
 2664 0186 02        		.byte	0x2
 2665 0187 0000 0000 		.long	.LM35
 2666 018b 17        		.byte	0x17
 2667 018c 00        		.byte	0x0
 2668 018d 05        		.uleb128 0x5
 2669 018e 02        		.byte	0x2
 2670 018f 0000 0000 		.long	.LM36
 2671 0193 16        		.byte	0x16
 2672 0194 00        		.byte	0x0
 2673 0195 05        		.uleb128 0x5
 2674 0196 02        		.byte	0x2
 2675 0197 0000 0000 		.long	.LM37
 2676 019b 15        		.byte	0x15
 2677 019c 00        		.byte	0x0
 2678 019d 05        		.uleb128 0x5
 2679 019e 02        		.byte	0x2
 2680 019f 0000 0000 		.long	.LM38
 2681 01a3 15        		.byte	0x15
 2682 01a4 00        		.byte	0x0
 2683 01a5 05        		.uleb128 0x5
 2684 01a6 02        		.byte	0x2
 2685 01a7 0000 0000 		.long	.LM39
 2686 01ab 15        		.byte	0x15
 2687 01ac 00        		.byte	0x0
 2688 01ad 05        		.uleb128 0x5
GAS LISTING C:\Users\ADMINI~1\AppData\Local\Temp/cc0XRo0k.s 			page 49


 2689 01ae 02        		.byte	0x2
 2690 01af 0000 0000 		.long	.LM40
 2691 01b3 30        		.byte	0x30
 2692 01b4 00        		.byte	0x0
 2693 01b5 05        		.uleb128 0x5
 2694 01b6 02        		.byte	0x2
 2695 01b7 0000 0000 		.long	.LM41
 2696 01bb 01        		.byte	0x1
 2697 01bc 00        		.byte	0x0
 2698 01bd 05        		.uleb128 0x5
 2699 01be 02        		.byte	0x2
 2700 01bf 0000 0000 		.long	.LM42
 2701 01c3 18        		.byte	0x18
 2702 01c4 00        		.byte	0x0
 2703 01c5 05        		.uleb128 0x5
 2704 01c6 02        		.byte	0x2
 2705 01c7 0000 0000 		.long	.LM43
 2706 01cb AF        		.byte	0xaf
 2707 01cc 00        		.byte	0x0
 2708 01cd 05        		.uleb128 0x5
 2709 01ce 02        		.byte	0x2
 2710 01cf 0000 0000 		.long	.LM44
 2711 01d3 16        		.byte	0x16
 2712 01d4 00        		.byte	0x0
 2713 01d5 05        		.uleb128 0x5
 2714 01d6 02        		.byte	0x2
 2715 01d7 0000 0000 		.long	.LM45
 2716 01db 15        		.byte	0x15
 2717 01dc 00        		.byte	0x0
 2718 01dd 05        		.uleb128 0x5
 2719 01de 02        		.byte	0x2
 2720 01df 0000 0000 		.long	.LM46
 2721 01e3 15        		.byte	0x15
 2722 01e4 00        		.byte	0x0
 2723 01e5 05        		.uleb128 0x5
 2724 01e6 02        		.byte	0x2
 2725 01e7 0000 0000 		.long	.LM47
 2726 01eb 15        		.byte	0x15
 2727 01ec 00        		.byte	0x0
 2728 01ed 05        		.uleb128 0x5
 2729 01ee 02        		.byte	0x2
 2730 01ef 0000 0000 		.long	.LM48
 2731 01f3 16        		.byte	0x16
 2732 01f4 00        		.byte	0x0
 2733 01f5 05        		.uleb128 0x5
 2734 01f6 02        		.byte	0x2
 2735 01f7 0000 0000 		.long	.LM49
 2736 01fb 16        		.byte	0x16
 2737 01fc 00        		.byte	0x0
 2738 01fd 05        		.uleb128 0x5
 2739 01fe 02        		.byte	0x2
 2740 01ff 0000 0000 		.long	.LM50
 2741 0203 16        		.byte	0x16
 2742 0204 00        		.byte	0x0
 2743 0205 05        		.uleb128 0x5
 2744 0206 02        		.byte	0x2
 2745 0207 0000 0000 		.long	.LM51
GAS LISTING C:\Users\ADMINI~1\AppData\Local\Temp/cc0XRo0k.s 			page 50


 2746 020b 17        		.byte	0x17
 2747 020c 00        		.byte	0x0
 2748 020d 05        		.uleb128 0x5
 2749 020e 02        		.byte	0x2
 2750 020f 0000 0000 		.long	.LM52
 2751 0213 1E        		.byte	0x1e
 2752 0214 00        		.byte	0x0
 2753 0215 05        		.uleb128 0x5
 2754 0216 02        		.byte	0x2
 2755 0217 0000 0000 		.long	.LM53
 2756 021b 15        		.byte	0x15
 2757 021c 00        		.byte	0x0
 2758 021d 05        		.uleb128 0x5
 2759 021e 02        		.byte	0x2
 2760 021f 0000 0000 		.long	.LM54
 2761 0223 16        		.byte	0x16
 2762 0224 00        		.byte	0x0
 2763 0225 05        		.uleb128 0x5
 2764 0226 02        		.byte	0x2
 2765 0227 0000 0000 		.long	.LM55
 2766 022b 15        		.byte	0x15
 2767 022c 00        		.byte	0x0
 2768 022d 05        		.uleb128 0x5
 2769 022e 02        		.byte	0x2
 2770 022f 0000 0000 		.long	.LM56
 2771 0233 15        		.byte	0x15
 2772 0234 00        		.byte	0x0
 2773 0235 05        		.uleb128 0x5
 2774 0236 02        		.byte	0x2
 2775 0237 0000 0000 		.long	.LM57
 2776 023b 15        		.byte	0x15
 2777 023c 00        		.byte	0x0
 2778 023d 05        		.uleb128 0x5
 2779 023e 02        		.byte	0x2
 2780 023f 0000 0000 		.long	.LM58
 2781 0243 15        		.byte	0x15
 2782 0244 00        		.byte	0x0
 2783 0245 05        		.uleb128 0x5
 2784 0246 02        		.byte	0x2
 2785 0247 0000 0000 		.long	.LM59
 2786 024b 16        		.byte	0x16
 2787 024c 00        		.byte	0x0
 2788 024d 05        		.uleb128 0x5
 2789 024e 02        		.byte	0x2
 2790 024f 0000 0000 		.long	.LM60
 2791 0253 17        		.byte	0x17
 2792 0254 00        		.byte	0x0
 2793 0255 05        		.uleb128 0x5
 2794 0256 02        		.byte	0x2
 2795 0257 0000 0000 		.long	.LM61
 2796 025b 15        		.byte	0x15
 2797 025c 00        		.byte	0x0
 2798 025d 05        		.uleb128 0x5
 2799 025e 02        		.byte	0x2
 2800 025f 0000 0000 		.long	.LM62
 2801 0263 15        		.byte	0x15
 2802 0264 00        		.byte	0x0
GAS LISTING C:\Users\ADMINI~1\AppData\Local\Temp/cc0XRo0k.s 			page 51


 2803 0265 05        		.uleb128 0x5
 2804 0266 02        		.byte	0x2
 2805 0267 0000 0000 		.long	.LM63
 2806 026b 15        		.byte	0x15
 2807 026c 00        		.byte	0x0
 2808 026d 05        		.uleb128 0x5
 2809 026e 02        		.byte	0x2
 2810 026f 0000 0000 		.long	.LM64
 2811 0273 03        		.byte	0x3
 2812 0274 957F      		.sleb128 -107
 2813 0276 01        		.byte	0x1
 2814 0277 00        		.byte	0x0
 2815 0278 05        		.uleb128 0x5
 2816 0279 02        		.byte	0x2
 2817 027a 0000 0000 		.long	.LM65
 2818 027e 1C        		.byte	0x1c
 2819 027f 00        		.byte	0x0
 2820 0280 05        		.uleb128 0x5
 2821 0281 02        		.byte	0x2
 2822 0282 0000 0000 		.long	.LM66
 2823 0286 17        		.byte	0x17
 2824 0287 00        		.byte	0x0
 2825 0288 05        		.uleb128 0x5
 2826 0289 02        		.byte	0x2
 2827 028a 0000 0000 		.long	.LM67
 2828 028e 15        		.byte	0x15
 2829 028f 00        		.byte	0x0
 2830 0290 05        		.uleb128 0x5
 2831 0291 02        		.byte	0x2
 2832 0292 0000 0000 		.long	.LM68
 2833 0296 15        		.byte	0x15
 2834 0297 00        		.byte	0x0
 2835 0298 05        		.uleb128 0x5
 2836 0299 02        		.byte	0x2
 2837 029a 0000 0000 		.long	.LM69
 2838 029e 15        		.byte	0x15
 2839 029f 00        		.byte	0x0
 2840 02a0 05        		.uleb128 0x5
 2841 02a1 02        		.byte	0x2
 2842 02a2 0000 0000 		.long	.LM70
 2843 02a6 15        		.byte	0x15
 2844 02a7 00        		.byte	0x0
 2845 02a8 05        		.uleb128 0x5
 2846 02a9 02        		.byte	0x2
 2847 02aa 0000 0000 		.long	.LM71
 2848 02ae 15        		.byte	0x15
 2849 02af 00        		.byte	0x0
 2850 02b0 05        		.uleb128 0x5
 2851 02b1 02        		.byte	0x2
 2852 02b2 0000 0000 		.long	.LM72
 2853 02b6 15        		.byte	0x15
 2854 02b7 00        		.byte	0x0
 2855 02b8 05        		.uleb128 0x5
 2856 02b9 02        		.byte	0x2
 2857 02ba 0000 0000 		.long	.LM73
 2858 02be 16        		.byte	0x16
 2859 02bf 00        		.byte	0x0
GAS LISTING C:\Users\ADMINI~1\AppData\Local\Temp/cc0XRo0k.s 			page 52


 2860 02c0 05        		.uleb128 0x5
 2861 02c1 02        		.byte	0x2
 2862 02c2 0000 0000 		.long	.LM74
 2863 02c6 18        		.byte	0x18
 2864 02c7 00        		.byte	0x0
 2865 02c8 05        		.uleb128 0x5
 2866 02c9 02        		.byte	0x2
 2867 02ca 0000 0000 		.long	.LM75
 2868 02ce 15        		.byte	0x15
 2869 02cf 00        		.byte	0x0
 2870 02d0 05        		.uleb128 0x5
 2871 02d1 02        		.byte	0x2
 2872 02d2 0000 0000 		.long	.LM76
 2873 02d6 16        		.byte	0x16
 2874 02d7 00        		.byte	0x0
 2875 02d8 05        		.uleb128 0x5
 2876 02d9 02        		.byte	0x2
 2877 02da 0000 0000 		.long	.LM77
 2878 02de 15        		.byte	0x15
 2879 02df 00        		.byte	0x0
 2880 02e0 05        		.uleb128 0x5
 2881 02e1 02        		.byte	0x2
 2882 02e2 0000 0000 		.long	.LM78
 2883 02e6 17        		.byte	0x17
 2884 02e7 00        		.byte	0x0
 2885 02e8 05        		.uleb128 0x5
 2886 02e9 02        		.byte	0x2
 2887 02ea 0000 0000 		.long	.LM79
 2888 02ee 15        		.byte	0x15
 2889 02ef 00        		.byte	0x0
 2890 02f0 05        		.uleb128 0x5
 2891 02f1 02        		.byte	0x2
 2892 02f2 0000 0000 		.long	.LM80
 2893 02f6 18        		.byte	0x18
 2894 02f7 00        		.byte	0x0
 2895 02f8 05        		.uleb128 0x5
 2896 02f9 02        		.byte	0x2
 2897 02fa 0000 0000 		.long	.LM81
 2898 02fe 15        		.byte	0x15
 2899 02ff 00        		.byte	0x0
 2900 0300 05        		.uleb128 0x5
 2901 0301 02        		.byte	0x2
 2902 0302 0000 0000 		.long	.LM82
 2903 0306 1E        		.byte	0x1e
 2904 0307 00        		.byte	0x0
 2905 0308 05        		.uleb128 0x5
 2906 0309 02        		.byte	0x2
 2907 030a 0000 0000 		.long	.LM83
 2908 030e 15        		.byte	0x15
 2909 030f 00        		.byte	0x0
 2910 0310 05        		.uleb128 0x5
 2911 0311 02        		.byte	0x2
 2912 0312 0000 0000 		.long	.LM84
 2913 0316 15        		.byte	0x15
 2914 0317 00        		.byte	0x0
 2915 0318 05        		.uleb128 0x5
 2916 0319 02        		.byte	0x2
GAS LISTING C:\Users\ADMINI~1\AppData\Local\Temp/cc0XRo0k.s 			page 53


 2917 031a 0000 0000 		.long	.LM85
 2918 031e 15        		.byte	0x15
 2919 031f 00        		.byte	0x0
 2920 0320 05        		.uleb128 0x5
 2921 0321 02        		.byte	0x2
 2922 0322 0000 0000 		.long	.LM86
 2923 0326 16        		.byte	0x16
 2924 0327 00        		.byte	0x0
 2925 0328 05        		.uleb128 0x5
 2926 0329 02        		.byte	0x2
 2927 032a 0000 0000 		.long	.LM87
 2928 032e 15        		.byte	0x15
 2929 032f 00        		.byte	0x0
 2930 0330 05        		.uleb128 0x5
 2931 0331 02        		.byte	0x2
 2932 0332 0000 0000 		.long	.LM88
 2933 0336 17        		.byte	0x17
 2934 0337 00        		.byte	0x0
 2935 0338 05        		.uleb128 0x5
 2936 0339 02        		.byte	0x2
 2937 033a 0000 0000 		.long	.LM89
 2938 033e 15        		.byte	0x15
 2939 033f 00        		.byte	0x0
 2940 0340 05        		.uleb128 0x5
 2941 0341 02        		.byte	0x2
 2942 0342 0000 0000 		.long	.LM90
 2943 0346 17        		.byte	0x17
 2944 0347 00        		.byte	0x0
 2945 0348 05        		.uleb128 0x5
 2946 0349 02        		.byte	0x2
 2947 034a 0000 0000 		.long	.LM91
 2948 034e 16        		.byte	0x16
 2949 034f 00        		.byte	0x0
 2950 0350 05        		.uleb128 0x5
 2951 0351 02        		.byte	0x2
 2952 0352 0000 0000 		.long	.LM92
 2953 0356 17        		.byte	0x17
 2954 0357 00        		.byte	0x0
 2955 0358 05        		.uleb128 0x5
 2956 0359 02        		.byte	0x2
 2957 035a 0000 0000 		.long	.LM93
 2958 035e 03        		.byte	0x3
 2959 035f D37E      		.sleb128 -173
 2960 0361 01        		.byte	0x1
 2961 0362 00        		.byte	0x0
 2962 0363 05        		.uleb128 0x5
 2963 0364 02        		.byte	0x2
 2964 0365 0000 0000 		.long	.LM94
 2965 0369 16        		.byte	0x16
 2966 036a 00        		.byte	0x0
 2967 036b 05        		.uleb128 0x5
 2968 036c 02        		.byte	0x2
 2969 036d 0000 0000 		.long	.LM95
 2970 0371 15        		.byte	0x15
 2971 0372 00        		.byte	0x0
 2972 0373 05        		.uleb128 0x5
 2973 0374 02        		.byte	0x2
GAS LISTING C:\Users\ADMINI~1\AppData\Local\Temp/cc0XRo0k.s 			page 54


 2974 0375 0000 0000 		.long	.LM96
 2975 0379 15        		.byte	0x15
 2976 037a 00        		.byte	0x0
 2977 037b 05        		.uleb128 0x5
 2978 037c 02        		.byte	0x2
 2979 037d 0000 0000 		.long	.LM97
 2980 0381 15        		.byte	0x15
 2981 0382 00        		.byte	0x0
 2982 0383 05        		.uleb128 0x5
 2983 0384 02        		.byte	0x2
 2984 0385 0000 0000 		.long	.LM98
 2985 0389 19        		.byte	0x19
 2986 038a 00        		.byte	0x0
 2987 038b 05        		.uleb128 0x5
 2988 038c 02        		.byte	0x2
 2989 038d 0000 0000 		.long	.LM99
 2990 0391 15        		.byte	0x15
 2991 0392 00        		.byte	0x0
 2992 0393 05        		.uleb128 0x5
 2993 0394 02        		.byte	0x2
 2994 0395 0000 0000 		.long	.LM100
 2995 0399 15        		.byte	0x15
 2996 039a 00        		.byte	0x0
 2997 039b 05        		.uleb128 0x5
 2998 039c 02        		.byte	0x2
 2999 039d 0000 0000 		.long	.LM101
 3000 03a1 23        		.byte	0x23
 3001 03a2 00        		.byte	0x0
 3002 03a3 05        		.uleb128 0x5
 3003 03a4 02        		.byte	0x2
 3004 03a5 0000 0000 		.long	.LM102
 3005 03a9 16        		.byte	0x16
 3006 03aa 00        		.byte	0x0
 3007 03ab 05        		.uleb128 0x5
 3008 03ac 02        		.byte	0x2
 3009 03ad 0000 0000 		.long	.LM103
 3010 03b1 15        		.byte	0x15
 3011 03b2 00        		.byte	0x0
 3012 03b3 05        		.uleb128 0x5
 3013 03b4 02        		.byte	0x2
 3014 03b5 0000 0000 		.long	.LM104
 3015 03b9 15        		.byte	0x15
 3016 03ba 00        		.byte	0x0
 3017 03bb 05        		.uleb128 0x5
 3018 03bc 02        		.byte	0x2
 3019 03bd 0000 0000 		.long	.LM105
 3020 03c1 15        		.byte	0x15
 3021 03c2 00        		.byte	0x0
 3022 03c3 05        		.uleb128 0x5
 3023 03c4 02        		.byte	0x2
 3024 03c5 0000 0000 		.long	.LM106
 3025 03c9 15        		.byte	0x15
 3026 03ca 00        		.byte	0x0
 3027 03cb 05        		.uleb128 0x5
 3028 03cc 02        		.byte	0x2
 3029 03cd 0000 0000 		.long	.LM107
 3030 03d1 15        		.byte	0x15
GAS LISTING C:\Users\ADMINI~1\AppData\Local\Temp/cc0XRo0k.s 			page 55


 3031 03d2 00        		.byte	0x0
 3032 03d3 05        		.uleb128 0x5
 3033 03d4 02        		.byte	0x2
 3034 03d5 0000 0000 		.long	.LM108
 3035 03d9 17        		.byte	0x17
 3036 03da 00        		.byte	0x0
 3037 03db 05        		.uleb128 0x5
 3038 03dc 02        		.byte	0x2
 3039 03dd 0000 0000 		.long	.LM109
 3040 03e1 15        		.byte	0x15
 3041 03e2 00        		.byte	0x0
 3042 03e3 05        		.uleb128 0x5
 3043 03e4 02        		.byte	0x2
 3044 03e5 0000 0000 		.long	.LM110
 3045 03e9 15        		.byte	0x15
 3046 03ea 00        		.byte	0x0
 3047 03eb 05        		.uleb128 0x5
 3048 03ec 02        		.byte	0x2
 3049 03ed 0000 0000 		.long	.LM111
 3050 03f1 16        		.byte	0x16
 3051 03f2 00        		.byte	0x0
 3052 03f3 05        		.uleb128 0x5
 3053 03f4 02        		.byte	0x2
 3054 03f5 0000 0000 		.long	.LM112
 3055 03f9 1D        		.byte	0x1d
 3056 03fa 00        		.byte	0x0
 3057 03fb 05        		.uleb128 0x5
 3058 03fc 02        		.byte	0x2
 3059 03fd 0000 0000 		.long	.LM113
 3060 0401 17        		.byte	0x17
 3061 0402 00        		.byte	0x0
 3062 0403 05        		.uleb128 0x5
 3063 0404 02        		.byte	0x2
 3064 0405 0000 0000 		.long	.LM114
 3065 0409 15        		.byte	0x15
 3066 040a 00        		.byte	0x0
 3067 040b 05        		.uleb128 0x5
 3068 040c 02        		.byte	0x2
 3069 040d 0000 0000 		.long	.LM115
 3070 0411 17        		.byte	0x17
 3071 0412 00        		.byte	0x0
 3072 0413 05        		.uleb128 0x5
 3073 0414 02        		.byte	0x2
 3074 0415 0000 0000 		.long	.LM116
 3075 0419 15        		.byte	0x15
 3076 041a 00        		.byte	0x0
 3077 041b 05        		.uleb128 0x5
 3078 041c 02        		.byte	0x2
 3079 041d 0000 0000 		.long	.LM117
 3080 0421 15        		.byte	0x15
 3081 0422 00        		.byte	0x0
 3082 0423 05        		.uleb128 0x5
 3083 0424 02        		.byte	0x2
 3084 0425 0000 0000 		.long	.LM118
 3085 0429 15        		.byte	0x15
 3086 042a 00        		.byte	0x0
 3087 042b 05        		.uleb128 0x5
GAS LISTING C:\Users\ADMINI~1\AppData\Local\Temp/cc0XRo0k.s 			page 56


 3088 042c 02        		.byte	0x2
 3089 042d 0000 0000 		.long	.LM119
 3090 0431 15        		.byte	0x15
 3091 0432 00        		.byte	0x0
 3092 0433 05        		.uleb128 0x5
 3093 0434 02        		.byte	0x2
 3094 0435 0000 0000 		.long	.LM120
 3095 0439 15        		.byte	0x15
 3096 043a 00        		.byte	0x0
 3097 043b 05        		.uleb128 0x5
 3098 043c 02        		.byte	0x2
 3099 043d 0000 0000 		.long	.LM121
 3100 0441 17        		.byte	0x17
 3101 0442 00        		.byte	0x0
 3102 0443 05        		.uleb128 0x5
 3103 0444 02        		.byte	0x2
 3104 0445 0000 0000 		.long	.LM122
 3105 0449 15        		.byte	0x15
 3106 044a 00        		.byte	0x0
 3107 044b 05        		.uleb128 0x5
 3108 044c 02        		.byte	0x2
 3109 044d 0000 0000 		.long	.LM123
 3110 0451 17        		.byte	0x17
 3111 0452 00        		.byte	0x0
 3112 0453 05        		.uleb128 0x5
 3113 0454 02        		.byte	0x2
 3114 0455 0000 0000 		.long	.LM124
 3115 0459 16        		.byte	0x16
 3116 045a 00        		.byte	0x0
 3117 045b 05        		.uleb128 0x5
 3118 045c 02        		.byte	0x2
 3119 045d 0000 0000 		.long	.LM125
 3120 0461 16        		.byte	0x16
 3121 0462 00        		.byte	0x0
 3122 0463 05        		.uleb128 0x5
 3123 0464 02        		.byte	0x2
 3124 0465 0000 0000 		.long	.LM126
 3125 0469 15        		.byte	0x15
 3126 046a 00        		.byte	0x0
 3127 046b 05        		.uleb128 0x5
 3128 046c 02        		.byte	0x2
 3129 046d 0000 0000 		.long	.LM127
 3130 0471 17        		.byte	0x17
 3131 0472 00        		.byte	0x0
 3132 0473 05        		.uleb128 0x5
 3133 0474 02        		.byte	0x2
 3134 0475 0000 0000 		.long	.LM128
 3135 0479 15        		.byte	0x15
 3136 047a 00        		.byte	0x0
 3137 047b 05        		.uleb128 0x5
 3138 047c 02        		.byte	0x2
 3139 047d 0000 0000 		.long	.LM129
 3140 0481 15        		.byte	0x15
 3141 0482 00        		.byte	0x0
 3142 0483 05        		.uleb128 0x5
 3143 0484 02        		.byte	0x2
 3144 0485 0000 0000 		.long	.LM130
GAS LISTING C:\Users\ADMINI~1\AppData\Local\Temp/cc0XRo0k.s 			page 57


 3145 0489 15        		.byte	0x15
 3146 048a 00        		.byte	0x0
 3147 048b 05        		.uleb128 0x5
 3148 048c 02        		.byte	0x2
 3149 048d 0000 0000 		.long	.LM131
 3150 0491 15        		.byte	0x15
 3151 0492 00        		.byte	0x0
 3152 0493 05        		.uleb128 0x5
 3153 0494 02        		.byte	0x2
 3154 0495 0000 0000 		.long	.LM132
 3155 0499 15        		.byte	0x15
 3156 049a 00        		.byte	0x0
 3157 049b 05        		.uleb128 0x5
 3158 049c 02        		.byte	0x2
 3159 049d 0000 0000 		.long	.LM133
 3160 04a1 17        		.byte	0x17
 3161 04a2 00        		.byte	0x0
 3162 04a3 05        		.uleb128 0x5
 3163 04a4 02        		.byte	0x2
 3164 04a5 0000 0000 		.long	.LM134
 3165 04a9 15        		.byte	0x15
 3166 04aa 00        		.byte	0x0
 3167 04ab 05        		.uleb128 0x5
 3168 04ac 02        		.byte	0x2
 3169 04ad 0000 0000 		.long	.LM135
 3170 04b1 17        		.byte	0x17
 3171 04b2 00        		.byte	0x0
 3172 04b3 05        		.uleb128 0x5
 3173 04b4 02        		.byte	0x2
 3174 04b5 0000 0000 		.long	.LM136
 3175 04b9 19        		.byte	0x19
 3176 04ba 00        		.byte	0x0
 3177 04bb 05        		.uleb128 0x5
 3178 04bc 02        		.byte	0x2
 3179 04bd 0000 0000 		.long	.LM137
 3180 04c1 15        		.byte	0x15
 3181 04c2 00        		.byte	0x0
 3182 04c3 05        		.uleb128 0x5
 3183 04c4 02        		.byte	0x2
 3184 04c5 0000 0000 		.long	.LM138
 3185 04c9 9D        		.byte	0x9d
 3186 04ca 00        		.byte	0x0
 3187 04cb 05        		.uleb128 0x5
 3188 04cc 02        		.byte	0x2
 3189 04cd 0000 0000 		.long	.LM139
 3190 04d1 03        		.byte	0x3
 3191 04d2 F27C      		.sleb128 -398
 3192 04d4 01        		.byte	0x1
 3193 04d5 00        		.byte	0x0
 3194 04d6 05        		.uleb128 0x5
 3195 04d7 02        		.byte	0x2
 3196 04d8 0000 0000 		.long	.LM140
 3197 04dc 1C        		.byte	0x1c
 3198 04dd 00        		.byte	0x0
 3199 04de 05        		.uleb128 0x5
 3200 04df 02        		.byte	0x2
 3201 04e0 0000 0000 		.long	.LM141
GAS LISTING C:\Users\ADMINI~1\AppData\Local\Temp/cc0XRo0k.s 			page 58


 3202 04e4 15        		.byte	0x15
 3203 04e5 00        		.byte	0x0
 3204 04e6 05        		.uleb128 0x5
 3205 04e7 02        		.byte	0x2
 3206 04e8 0000 0000 		.long	.LM142
 3207 04ec 15        		.byte	0x15
 3208 04ed 00        		.byte	0x0
 3209 04ee 05        		.uleb128 0x5
 3210 04ef 02        		.byte	0x2
 3211 04f0 0000 0000 		.long	.LM143
 3212 04f4 15        		.byte	0x15
 3213 04f5 00        		.byte	0x0
 3214 04f6 05        		.uleb128 0x5
 3215 04f7 02        		.byte	0x2
 3216 04f8 0000 0000 		.long	.LM144
 3217 04fc 15        		.byte	0x15
 3218 04fd 00        		.byte	0x0
 3219 04fe 05        		.uleb128 0x5
 3220 04ff 02        		.byte	0x2
 3221 0500 0000 0000 		.long	.LM145
 3222 0504 16        		.byte	0x16
 3223 0505 00        		.byte	0x0
 3224 0506 05        		.uleb128 0x5
 3225 0507 02        		.byte	0x2
 3226 0508 0000 0000 		.long	.LM146
 3227 050c 15        		.byte	0x15
 3228 050d 00        		.byte	0x0
 3229 050e 05        		.uleb128 0x5
 3230 050f 02        		.byte	0x2
 3231 0510 0000 0000 		.long	.LM147
 3232 0514 15        		.byte	0x15
 3233 0515 00        		.byte	0x0
 3234 0516 05        		.uleb128 0x5
 3235 0517 02        		.byte	0x2
 3236 0518 0000 0000 		.long	.LM148
 3237 051c 15        		.byte	0x15
 3238 051d 00        		.byte	0x0
 3239 051e 05        		.uleb128 0x5
 3240 051f 02        		.byte	0x2
 3241 0520 0000 0000 		.long	.LM149
 3242 0524 15        		.byte	0x15
 3243 0525 00        		.byte	0x0
 3244 0526 05        		.uleb128 0x5
 3245 0527 02        		.byte	0x2
 3246 0528 0000 0000 		.long	.LM150
 3247 052c 15        		.byte	0x15
 3248 052d 00        		.byte	0x0
 3249 052e 05        		.uleb128 0x5
 3250 052f 02        		.byte	0x2
 3251 0530 0000 0000 		.long	.LM151
 3252 0534 03        		.byte	0x3
 3253 0535 D602      		.sleb128 342
 3254 0537 01        		.byte	0x1
 3255 0538 00        		.byte	0x0
 3256 0539 05        		.uleb128 0x5
 3257 053a 02        		.byte	0x2
 3258 053b 0000 0000 		.long	.LM152
GAS LISTING C:\Users\ADMINI~1\AppData\Local\Temp/cc0XRo0k.s 			page 59


 3259 053f 16        		.byte	0x16
 3260 0540 00        		.byte	0x0
 3261 0541 05        		.uleb128 0x5
 3262 0542 02        		.byte	0x2
 3263 0543 0000 0000 		.long	.LM153
 3264 0547 15        		.byte	0x15
 3265 0548 00        		.byte	0x0
 3266 0549 05        		.uleb128 0x5
 3267 054a 02        		.byte	0x2
 3268 054b 0000 0000 		.long	.LM154
 3269 054f 15        		.byte	0x15
 3270 0550 00        		.byte	0x0
 3271 0551 05        		.uleb128 0x5
 3272 0552 02        		.byte	0x2
 3273 0553 0000 0000 		.long	.LM155
 3274 0557 03        		.byte	0x3
 3275 0558 C47D      		.sleb128 -316
 3276 055a 01        		.byte	0x1
 3277 055b 00        		.byte	0x0
 3278 055c 05        		.uleb128 0x5
 3279 055d 02        		.byte	0x2
 3280 055e 0000 0000 		.long	.LM156
 3281 0562 16        		.byte	0x16
 3282 0563 00        		.byte	0x0
 3283 0564 05        		.uleb128 0x5
 3284 0565 02        		.byte	0x2
 3285 0566 0000 0000 		.long	.LM157
 3286 056a 15        		.byte	0x15
 3287 056b 00        		.byte	0x0
 3288 056c 05        		.uleb128 0x5
 3289 056d 02        		.byte	0x2
 3290 056e 0000 0000 		.long	.LM158
 3291 0572 16        		.byte	0x16
 3292 0573 00        		.byte	0x0
 3293 0574 05        		.uleb128 0x5
 3294 0575 02        		.byte	0x2
 3295 0576 0000 0000 		.long	.LM159
 3296 057a 15        		.byte	0x15
 3297 057b 00        		.byte	0x0
 3298 057c 05        		.uleb128 0x5
 3299 057d 02        		.byte	0x2
 3300 057e 0000 0000 		.long	.LM160
 3301 0582 03        		.byte	0x3
 3302 0583 6E        		.sleb128 -18
 3303 0584 01        		.byte	0x1
 3304 0585 00        		.byte	0x0
 3305 0586 05        		.uleb128 0x5
 3306 0587 02        		.byte	0x2
 3307 0588 0000 0000 		.long	.LM161
 3308 058c 15        		.byte	0x15
 3309 058d 00        		.byte	0x0
 3310 058e 05        		.uleb128 0x5
 3311 058f 02        		.byte	0x2
 3312 0590 0000 0000 		.long	.LM162
 3313 0594 16        		.byte	0x16
 3314 0595 00        		.byte	0x0
 3315 0596 05        		.uleb128 0x5
GAS LISTING C:\Users\ADMINI~1\AppData\Local\Temp/cc0XRo0k.s 			page 60


 3316 0597 02        		.byte	0x2
 3317 0598 0000 0000 		.long	.LM163
 3318 059c 15        		.byte	0x15
 3319 059d 00        		.byte	0x0
 3320 059e 05        		.uleb128 0x5
 3321 059f 02        		.byte	0x2
 3322 05a0 0000 0000 		.long	.LM164
 3323 05a4 15        		.byte	0x15
 3324 05a5 00        		.byte	0x0
 3325 05a6 05        		.uleb128 0x5
 3326 05a7 02        		.byte	0x2
 3327 05a8 0000 0000 		.long	.LM165
 3328 05ac 16        		.byte	0x16
 3329 05ad 00        		.byte	0x0
 3330 05ae 05        		.uleb128 0x5
 3331 05af 02        		.byte	0x2
 3332 05b0 0000 0000 		.long	.LM166
 3333 05b4 15        		.byte	0x15
 3334 05b5 00        		.byte	0x0
 3335 05b6 05        		.uleb128 0x5
 3336 05b7 02        		.byte	0x2
 3337 05b8 0000 0000 		.long	.LM167
 3338 05bc 16        		.byte	0x16
 3339 05bd 00        		.byte	0x0
 3340 05be 05        		.uleb128 0x5
 3341 05bf 02        		.byte	0x2
 3342 05c0 0000 0000 		.long	.LM168
 3343 05c4 03        		.byte	0x3
 3344 05c5 68        		.sleb128 -24
 3345 05c6 01        		.byte	0x1
 3346 05c7 00        		.byte	0x0
 3347 05c8 05        		.uleb128 0x5
 3348 05c9 02        		.byte	0x2
 3349 05ca 0000 0000 		.long	.LM169
 3350 05ce 15        		.byte	0x15
 3351 05cf 00        		.byte	0x0
 3352 05d0 05        		.uleb128 0x5
 3353 05d1 02        		.byte	0x2
 3354 05d2 0000 0000 		.long	.LM170
 3355 05d6 16        		.byte	0x16
 3356 05d7 00        		.byte	0x0
 3357 05d8 05        		.uleb128 0x5
 3358 05d9 02        		.byte	0x2
 3359 05da 0000 0000 		.long	.LM171
 3360 05de 15        		.byte	0x15
 3361 05df 00        		.byte	0x0
 3362 05e0 05        		.uleb128 0x5
 3363 05e1 02        		.byte	0x2
 3364 05e2 0000 0000 		.long	.LM172
 3365 05e6 15        		.byte	0x15
 3366 05e7 00        		.byte	0x0
 3367 05e8 05        		.uleb128 0x5
 3368 05e9 02        		.byte	0x2
 3369 05ea 0000 0000 		.long	.LM173
 3370 05ee 16        		.byte	0x16
 3371 05ef 00        		.byte	0x0
 3372 05f0 05        		.uleb128 0x5
GAS LISTING C:\Users\ADMINI~1\AppData\Local\Temp/cc0XRo0k.s 			page 61


 3373 05f1 02        		.byte	0x2
 3374 05f2 0000 0000 		.long	.LM174
 3375 05f6 16        		.byte	0x16
 3376 05f7 00        		.byte	0x0
 3377 05f8 05        		.uleb128 0x5
 3378 05f9 02        		.byte	0x2
 3379 05fa 0000 0000 		.long	.LM175
 3380 05fe 15        		.byte	0x15
 3381 05ff 00        		.byte	0x0
 3382 0600 05        		.uleb128 0x5
 3383 0601 02        		.byte	0x2
 3384 0602 0000 0000 		.long	.LM176
 3385 0606 16        		.byte	0x16
 3386 0607 00        		.byte	0x0
 3387 0608 05        		.uleb128 0x5
 3388 0609 02        		.byte	0x2
 3389 060a 0000 0000 		.long	.LM177
 3390 060e 2E        		.byte	0x2e
 3391 060f 00        		.byte	0x0
 3392 0610 05        		.uleb128 0x5
 3393 0611 02        		.byte	0x2
 3394 0612 0000 0000 		.long	.LM178
 3395 0616 16        		.byte	0x16
 3396 0617 00        		.byte	0x0
 3397 0618 05        		.uleb128 0x5
 3398 0619 02        		.byte	0x2
 3399 061a 0000 0000 		.long	.LM179
 3400 061e 15        		.byte	0x15
 3401 061f 00        		.byte	0x0
 3402 0620 05        		.uleb128 0x5
 3403 0621 02        		.byte	0x2
 3404 0622 0000 0000 		.long	.LM180
 3405 0626 1A        		.byte	0x1a
 3406 0627 00        		.byte	0x0
 3407 0628 05        		.uleb128 0x5
 3408 0629 02        		.byte	0x2
 3409 062a 0000 0000 		.long	.LM181
 3410 062e 18        		.byte	0x18
 3411 062f 00        		.byte	0x0
 3412 0630 05        		.uleb128 0x5
 3413 0631 02        		.byte	0x2
 3414 0632 0000 0000 		.long	.LM182
 3415 0636 15        		.byte	0x15
 3416 0637 00        		.byte	0x0
 3417 0638 05        		.uleb128 0x5
 3418 0639 02        		.byte	0x2
 3419 063a 0000 0000 		.long	.LM183
 3420 063e 19        		.byte	0x19
 3421 063f 00        		.byte	0x0
 3422 0640 05        		.uleb128 0x5
 3423 0641 02        		.byte	0x2
 3424 0642 0000 0000 		.long	.LM184
 3425 0646 15        		.byte	0x15
 3426 0647 00        		.byte	0x0
 3427 0648 05        		.uleb128 0x5
 3428 0649 02        		.byte	0x2
 3429 064a 0000 0000 		.long	.LM185
GAS LISTING C:\Users\ADMINI~1\AppData\Local\Temp/cc0XRo0k.s 			page 62


 3430 064e 16        		.byte	0x16
 3431 064f 00        		.byte	0x0
 3432 0650 05        		.uleb128 0x5
 3433 0651 02        		.byte	0x2
 3434 0652 0000 0000 		.long	.LM186
 3435 0656 15        		.byte	0x15
 3436 0657 00        		.byte	0x0
 3437 0658 05        		.uleb128 0x5
 3438 0659 02        		.byte	0x2
 3439 065a 0000 0000 		.long	.LM187
 3440 065e 15        		.byte	0x15
 3441 065f 00        		.byte	0x0
 3442 0660 05        		.uleb128 0x5
 3443 0661 02        		.byte	0x2
 3444 0662 0000 0000 		.long	.LM188
 3445 0666 16        		.byte	0x16
 3446 0667 00        		.byte	0x0
 3447 0668 05        		.uleb128 0x5
 3448 0669 02        		.byte	0x2
 3449 066a 0000 0000 		.long	.LM189
 3450 066e 16        		.byte	0x16
 3451 066f 00        		.byte	0x0
 3452 0670 05        		.uleb128 0x5
 3453 0671 02        		.byte	0x2
 3454 0672 0000 0000 		.long	.LM190
 3455 0676 16        		.byte	0x16
 3456 0677 00        		.byte	0x0
 3457 0678 05        		.uleb128 0x5
 3458 0679 02        		.byte	0x2
 3459 067a 0000 0000 		.long	.LM191
 3460 067e 15        		.byte	0x15
 3461 067f 00        		.byte	0x0
 3462 0680 05        		.uleb128 0x5
 3463 0681 02        		.byte	0x2
 3464 0682 0000 0000 		.long	.Letext0
 3465 0686 00        		.byte	0x0
 3466 0687 01        		.uleb128 0x1
 3467 0688 01        		.byte	0x1
 3468               	.LELT0:
 3469 0689 1600 0000 		.section	.debug_str,"MS",@progbits,1
 3469      0200 1000 
 3469      0000 0101 
 3469      FB0E 0A00 
 3469      0101 0101 
 3470               	.LASF24:
 3471 0000 636C 6561 		.string	"clearLEDInited"
 3471      724C 4544 
 3471      496E 6974 
 3471      6564 00
 3472               	.LASF46:
 3473 000f 5F66 756C 		.string	"_fullLEDMode"
 3473      6C4C 4544 
 3473      4D6F 6465 
 3473      00
 3474               	.LASF65:
 3475 001c 494E 5445 		.string	"INTERFACE"
 3475      5246 4143 
GAS LISTING C:\Users\ADMINI~1\AppData\Local\Temp/cc0XRo0k.s 			page 63


 3475      4500 
 3476               	.LASF16:
 3477 0026 626C 696E 		.string	"blinkBeyondFNLED"
 3477      6B42 6579 
 3477      6F6E 6446 
 3477      4E4C 4544 
 3477      00
 3478               	.LASF41:
 3479 0037 646F 776E 		.string	"downLevelMax"
 3479      4C65 7665 
 3479      6C4D 6178 
 3479      00
 3480               	.LASF6:
 3481 0044 6C6F 6E67 		.string	"long long unsigned int"
 3481      206C 6F6E 
 3481      6720 756E 
 3481      7369 676E 
 3481      6564 2069 
 3482               	.LASF17:
 3483 005b 626C 696E 		.string	"blinkScrollLockLED"
 3483      6B53 6372 
 3483      6F6C 6C4C 
 3483      6F63 6B4C 
 3483      4544 00
 3484               	.LASF23:
 3485 006e 7072 6576 		.string	"prevSCRLED"
 3485      5343 524C 
 3485      4544 00
 3486               	.LASF20:
 3487 0079 7772 6974 		.string	"writeLEDMode"
 3487      654C 4544 
 3487      4D6F 6465 
 3487      00
 3488               	.LASF59:
 3489 0086 6C65 6472 		.string	"ledrender.c"
 3489      656E 6465 
 3489      722E 6300 
 3490               	.LASF7:
 3491 0092 6C6F 6E67 		.string	"long long int"
 3491      206C 6F6E 
 3491      6720 696E 
 3491      7400 
 3492               	.LASF1:
 3493 00a0 7369 676E 		.string	"signed char"
 3493      6564 2063 
 3493      6861 7200 
 3494               	.LASF34:
 3495 00ac 6368 616E 		.string	"changeFullLedState"
 3495      6765 4675 
 3495      6C6C 4C65 
 3495      6453 7461 
 3495      7465 00
 3496               	.LASF15:
 3497 00bf 6265 796F 		.string	"beyondFNLEDState"
 3497      6E64 464E 
 3497      4C45 4453 
 3497      7461 7465 
GAS LISTING C:\Users\ADMINI~1\AppData\Local\Temp/cc0XRo0k.s 			page 64


 3497      00
 3498               	.LASF5:
 3499 00d0 6C6F 6E67 		.string	"long int"
 3499      2069 6E74 
 3499      00
 3500               	.LASF11:
 3501 00d9 7569 6E74 		.string	"uint16_t"
 3501      3136 5F74 
 3501      00
 3502               	.LASF22:
 3503 00e2 7365 744C 		.string	"setLEDIndicate"
 3503      4544 496E 
 3503      6469 6361 
 3503      7465 00
 3504               	.LASF32:
 3505 00f1 7849 7342 		.string	"xIsBeyondFN"
 3505      6579 6F6E 
 3505      6446 4E00 
 3506               	.LASF58:
 3507 00fd 474E 5520 		.string	"GNU C 4.3.3"
 3507      4320 342E 
 3507      332E 3300 
 3508               	.LASF18:
 3509 0109 636F 756E 		.string	"countMAX"
 3509      744D 4158 
 3509      00
 3510               	.LASF8:
 3511 0112 756E 7369 		.string	"unsigned int"
 3511      676E 6564 
 3511      2069 6E74 
 3511      00
 3512               	.LASF4:
 3513 011f 6C6F 6E67 		.string	"long unsigned int"
 3513      2075 6E73 
 3513      6967 6E65 
 3513      6420 696E 
 3513      7400 
 3514               	.LASF21:
 3515 0131 7365 744C 		.string	"setLEDState"
 3515      4544 5374 
 3515      6174 6500 
 3516               	.LASF2:
 3517 013d 7368 6F72 		.string	"short unsigned int"
 3517      7420 756E 
 3517      7369 676E 
 3517      6564 2069 
 3517      6E74 00
 3518               	.LASF47:
 3519 0150 5F66 756C 		.string	"_fullLEDMode_saved"
 3519      6C4C 4544 
 3519      4D6F 6465 
 3519      5F73 6176 
 3519      6564 00
 3520               	.LASF54:
 3521 0163 5F6C 6564 		.string	"_ledBrightnessMax_saved"
 3521      4272 6967 
 3521      6874 6E65 
GAS LISTING C:\Users\ADMINI~1\AppData\Local\Temp/cc0XRo0k.s 			page 65


 3521      7373 4D61 
 3521      785F 7361 
 3522               	.LASF33:
 3523 017b 7761 6B65 		.string	"wakeUpLED"
 3523      5570 4C45 
 3523      4400 
 3524               	.LASF36:
 3525 0185 696E 6372 		.string	"increaseLedBrightness"
 3525      6561 7365 
 3525      4C65 6442 
 3525      7269 6768 
 3525      746E 6573 
 3526               	.LASF53:
 3527 019b 5F6C 6564 		.string	"_ledBrightnessMax"
 3527      4272 6967 
 3527      6874 6E65 
 3527      7373 4D61 
 3527      7800 
 3528               	.LASF35:
 3529 01ad 7265 6475 		.string	"reduceLedBrightness"
 3529      6365 4C65 
 3529      6442 7269 
 3529      6768 746E 
 3529      6573 7300 
 3530               	.LASF12:
 3531 01c1 6265 796F 		.string	"beyondFNCountMAX"
 3531      6E64 464E 
 3531      436F 756E 
 3531      744D 4158 
 3531      00
 3532               	.LASF29:
 3533 01d2 736C 6565 		.string	"sleepLED"
 3533      704C 4544 
 3533      00
 3534               	.LASF63:
 3535 01db 6661 6465 		.string	"fadeLED"
 3535      4C45 4400 
 3536               	.LASF26:
 3537 01e3 7853 7461 		.string	"xState"
 3537      7465 00
 3538               	.LASF51:
 3539 01ea 5F69 7344 		.string	"_isDidSleep"
 3539      6964 536C 
 3539      6565 7000 
 3540               	.LASF28:
 3541 01f6 6756 616C 		.string	"gVal"
 3541      00
 3542               	.LASF56:
 3543 01fb 6C65 6442 		.string	"ledBrightnessStep"
 3543      7269 6768 
 3543      746E 6573 
 3543      7353 7465 
 3543      7000 
 3544               	.LASF44:
 3545 020d 4C45 4473 		.string	"LEDstate"
 3545      7461 7465 
 3545      00
GAS LISTING C:\Users\ADMINI~1\AppData\Local\Temp/cc0XRo0k.s 			page 66


 3546               	.LASF43:
 3547 0216 6C65 6449 		.string	"ledInited"
 3547      6E69 7465 
 3547      6400 
 3548               	.LASF0:
 3549 0220 756E 7369 		.string	"unsigned char"
 3549      676E 6564 
 3549      2063 6861 
 3549      7200 
 3550               	.LASF27:
 3551 022e 7856 616C 		.string	"xValue"
 3551      7565 00
 3552               	.LASF3:
 3553 0235 7368 6F72 		.string	"short int"
 3553      7420 696E 
 3553      7400 
 3554               	.LASF19:
 3555 023f 636F 756E 		.string	"counter"
 3555      7465 7200 
 3556               	.LASF48:
 3557 0247 7077 6D43 		.string	"pwmCounter"
 3557      6F75 6E74 
 3557      6572 00
 3558               	.LASF37:
 3559 0252 674C 6564 		.string	"gLedBrightness"
 3559      4272 6967 
 3559      6874 6E65 
 3559      7373 00
 3560               	.LASF42:
 3561 0261 646F 776E 		.string	"downLevelLife"
 3561      4C65 7665 
 3561      6C4C 6966 
 3561      6500 
 3562               	.LASF30:
 3563 026f 646F 536C 		.string	"doSleep"
 3563      6565 7000 
 3564               	.LASF9:
 3565 0277 6368 6172 		.string	"char"
 3565      00
 3566               	.LASF40:
 3567 027c 646F 776E 		.string	"downLevel"
 3567      4C65 7665 
 3567      6C00 
 3568               	.LASF13:
 3569 0286 6265 796F 		.string	"beyondFNCounter"
 3569      6E64 464E 
 3569      436F 756E 
 3569      7465 7200 
 3570               	.LASF61:
 3571 0296 6765 744C 		.string	"getLEDState"
 3571      4544 5374 
 3571      6174 6500 
 3572               	.LASF39:
 3573 02a2 646F 776E 		.string	"downLevelStay"
 3573      4C65 7665 
 3573      6C53 7461 
 3573      7900 
GAS LISTING C:\Users\ADMINI~1\AppData\Local\Temp/cc0XRo0k.s 			page 67


 3574               	.LASF55:
 3575 02b0 6C65 6442 		.string	"ledBrightnessMin"
 3575      7269 6768 
 3575      746E 6573 
 3575      734D 696E 
 3575      00
 3576               	.LASF49:
 3577 02c1 7077 6D44 		.string	"pwmDir"
 3577      6972 00
 3578               	.LASF14:
 3579 02c8 6265 796F 		.string	"beyondFNDelayCounter"
 3579      6E64 464E 
 3579      4465 6C61 
 3579      7943 6F75 
 3579      6E74 6572 
 3580               	.LASF52:
 3581 02dd 6C65 6453 		.string	"ledStateCount"
 3581      7461 7465 
 3581      436F 756E 
 3581      7400 
 3582               	.LASF10:
 3583 02eb 7569 6E74 		.string	"uint8_t"
 3583      385F 7400 
 3584               	.LASF64:
 3585 02f3 7365 7446 		.string	"setFullLEDState"
 3585      756C 6C4C 
 3585      4544 5374 
 3585      6174 6500 
 3586               	.LASF60:
 3587 0303 443A 5C67 		.string	"D:\\git\\ps2avrU\\source"
 3587      6974 5C70 
 3587      7332 6176 
 3587      7255 5C73 
 3587      6F75 7263 
 3588               	.LASF38:
 3589 0319 696E 6974 		.string	"initFullLEDState"
 3589      4675 6C6C 
 3589      4C45 4453 
 3589      7461 7465 
 3589      00
 3590               	.LASF50:
 3591 032a 7370 6565 		.string	"speed"
 3591      6400 
 3592               	.LASF45:
 3593 0330 7363 726F 		.string	"scrollLockLED"
 3593      6C6C 4C6F 
 3593      636B 4C45 
 3593      4400 
 3594               	.LASF57:
 3595 033e 6265 796F 		.string	"beyondFNCountDelay"
 3595      6E64 464E 
 3595      436F 756E 
 3595      7444 656C 
 3595      6179 00
 3596               	.LASF62:
 3597 0351 6765 7442 		.string	"getBrightness"
 3597      7269 6768 
GAS LISTING C:\Users\ADMINI~1\AppData\Local\Temp/cc0XRo0k.s 			page 68


 3597      746E 6573 
 3597      7300 
 3598               	.LASF31:
 3599 035f 7265 6E64 		.string	"renderLED"
 3599      6572 4C45 
 3599      4400 
 3600               	.LASF25:
 3601 0369 6170 706C 		.string	"applyKeyDownForFullLED"
 3601      794B 6579 
 3601      446F 776E 
 3601      466F 7246 
 3601      756C 6C4C 
 3602               	.global __do_copy_data
 3603               	.global __do_clear_bss
GAS LISTING C:\Users\ADMINI~1\AppData\Local\Temp/cc0XRo0k.s 			page 69


DEFINED SYMBOLS
                            *ABS*:00000000 ledrender.c
C:\Users\ADMINI~1\AppData\Local\Temp/cc0XRo0k.s:2      *ABS*:0000003f __SREG__
C:\Users\ADMINI~1\AppData\Local\Temp/cc0XRo0k.s:3      *ABS*:0000003e __SP_H__
C:\Users\ADMINI~1\AppData\Local\Temp/cc0XRo0k.s:4      *ABS*:0000003d __SP_L__
C:\Users\ADMINI~1\AppData\Local\Temp/cc0XRo0k.s:5      *ABS*:00000034 __CCP__
C:\Users\ADMINI~1\AppData\Local\Temp/cc0XRo0k.s:6      *ABS*:00000000 __tmp_reg__
C:\Users\ADMINI~1\AppData\Local\Temp/cc0XRo0k.s:7      *ABS*:00000001 __zero_reg__
C:\Users\ADMINI~1\AppData\Local\Temp/cc0XRo0k.s:18     .text:00000000 setLEDState
C:\Users\ADMINI~1\AppData\Local\Temp/cc0XRo0k.s:1059   .bss:00000016 LEDstate
C:\Users\ADMINI~1\AppData\Local\Temp/cc0XRo0k.s:33     .text:00000006 getLEDState
C:\Users\ADMINI~1\AppData\Local\Temp/cc0XRo0k.s:46     .text:0000000c clearLEDInited
                             .bss:00000000 ledInited
C:\Users\ADMINI~1\AppData\Local\Temp/cc0XRo0k.s:60     .text:00000012 setLEDIndicate
C:\Users\ADMINI~1\AppData\Local\Temp/cc0XRo0k.s:1060   .bss:00000017 prevSCRLED.2290
C:\Users\ADMINI~1\AppData\Local\Temp/cc0XRo0k.s:1043   .bss:00000005 scrollLockLED
C:\Users\ADMINI~1\AppData\Local\Temp/cc0XRo0k.s:142    .text:00000074 applyKeyDownForFullLED
C:\Users\ADMINI~1\AppData\Local\Temp/cc0XRo0k.s:1046   .bss:0000000a _fullLEDMode
C:\Users\ADMINI~1\AppData\Local\Temp/cc0XRo0k.s:1055   .bss:00000011 downLevelStay
C:\Users\ADMINI~1\AppData\Local\Temp/cc0XRo0k.s:1057   .bss:00000014 downLevel
C:\Users\ADMINI~1\AppData\Local\Temp/cc0XRo0k.s:1056   .bss:00000013 downLevelLife
C:\Users\ADMINI~1\AppData\Local\Temp/cc0XRo0k.s:203    .text:000000e0 getBrightness
C:\Users\ADMINI~1\AppData\Local\Temp/cc0XRo0k.s:1052   .data:00000003 _ledBrightnessMax
C:\Users\ADMINI~1\AppData\Local\Temp/cc0XRo0k.s:232    .text:00000102 sleepLED
C:\Users\ADMINI~1\AppData\Local\Temp/cc0XRo0k.s:1054   .bss:0000000f pwmCounter
C:\Users\ADMINI~1\AppData\Local\Temp/cc0XRo0k.s:1058   .bss:00000015 _isDidSleep
C:\Users\ADMINI~1\AppData\Local\Temp/cc0XRo0k.s:273    .text:00000134 doSleep
C:\Users\ADMINI~1\AppData\Local\Temp/cc0XRo0k.s:324    .text:00000192 renderLED
C:\Users\ADMINI~1\AppData\Local\Temp/cc0XRo0k.s:1032   .bss:00000001 beyondFNDelayCounter.2378
C:\Users\ADMINI~1\AppData\Local\Temp/cc0XRo0k.s:1036   .data:00000000 beyondFNCountDelay
C:\Users\ADMINI~1\AppData\Local\Temp/cc0XRo0k.s:1042   .bss:00000003 beyondFNCounter.2377
C:\Users\ADMINI~1\AppData\Local\Temp/cc0XRo0k.s:1040   .data:00000002 beyondFNLEDState.2379
C:\Users\ADMINI~1\AppData\Local\Temp/cc0XRo0k.s:1044   .bss:00000006 counter.2412
C:\Users\ADMINI~1\AppData\Local\Temp/cc0XRo0k.s:1045   .bss:00000008 ledStateCount
C:\Users\ADMINI~1\AppData\Local\Temp/cc0XRo0k.s:1047   .bss:0000000b _fullLEDMode_saved
C:\Users\ADMINI~1\AppData\Local\Temp/cc0XRo0k.s:1048   .bss:0000000c _ledBrightnessMax_saved
C:\Users\ADMINI~1\AppData\Local\Temp/cc0XRo0k.s:1049   .bss:0000000d pwmDir
C:\Users\ADMINI~1\AppData\Local\Temp/cc0XRo0k.s:782    .text:000004ca setFullLEDState
C:\Users\ADMINI~1\AppData\Local\Temp/cc0XRo0k.s:847    .text:00000530 wakeUpLED
C:\Users\ADMINI~1\AppData\Local\Temp/cc0XRo0k.s:863    .text:0000053a changeFullLedState
C:\Users\ADMINI~1\AppData\Local\Temp/cc0XRo0k.s:890    .text:00000560 reduceLedBrightness
C:\Users\ADMINI~1\AppData\Local\Temp/cc0XRo0k.s:927    .text:00000592 increaseLedBrightness
C:\Users\ADMINI~1\AppData\Local\Temp/cc0XRo0k.s:972    .text:000005c6 initFullLEDState

UNDEFINED SYMBOLS
__divmodhi4
timer1PWMBSet
isSleep
isBootMapper
__eewr_byte_m32
timer1Init
timer1PWMInit
timer1PWMBOn
__eerd_byte_m32
INTERFACE
__do_copy_data
__do_clear_bss
GAS LISTING C:\Users\ADMINI~1\AppData\Local\Temp/cc0XRo0k.s 			page 70


