GAS LISTING C:\Users\ADMINI~1\AppData\Local\Temp/ccw52Fe5.s 			page 1


   1               		.file	"ledrender.c"
   2               	__SREG__ = 0x3f
   3               	__SP_H__ = 0x3e
   4               	__SP_L__ = 0x3d
   5               	__CCP__  = 0x34
   6               	__tmp_reg__ = 0
   7               	__zero_reg__ = 1
   8               		.section	.debug_abbrev,"",@progbits
   9               	.Ldebug_abbrev0:
  10               		.section	.debug_info,"",@progbits
  11               	.Ldebug_info0:
  12               		.section	.debug_line,"",@progbits
  13               	.Ldebug_line0:
  14               		.text
  15               	.Ltext0:
  16               	.global	setLEDState
  17               		.type	setLEDState, @function
  18               	setLEDState:
  19               	.LFB8:
  20               	.LM1:
  21               	.LVL0:
  22               	/* prologue: function */
  23               	/* frame size = 0 */
  24               	.LM2:
  25 0000 8093 0000 		sts LEDstate,r24
  26               	/* epilogue start */
  27               	.LM3:
  28 0004 0895      		ret
  29               	.LFE8:
  30               		.size	setLEDState, .-setLEDState
  31               	.global	getLEDState
  32               		.type	getLEDState, @function
  33               	getLEDState:
  34               	.LFB9:
  35               	.LM4:
  36               	/* prologue: function */
  37               	/* frame size = 0 */
  38               	.LM5:
  39 0006 8091 0000 		lds r24,LEDstate
  40               	/* epilogue start */
  41 000a 0895      		ret
  42               	.LFE9:
  43               		.size	getLEDState, .-getLEDState
  44               	.global	clearLEDInited
  45               		.type	clearLEDInited, @function
  46               	clearLEDInited:
  47               	.LFB14:
  48               	.LM6:
  49               	/* prologue: function */
  50               	/* frame size = 0 */
  51               	.LM7:
  52 000c 1092 0000 		sts ledInited,__zero_reg__
  53               	/* epilogue start */
  54               	.LM8:
  55 0010 0895      		ret
  56               	.LFE14:
  57               		.size	clearLEDInited, .-clearLEDInited
GAS LISTING C:\Users\ADMINI~1\AppData\Local\Temp/ccw52Fe5.s 			page 2


  58               	.global	setLEDIndicate
  59               		.type	setLEDIndicate, @function
  60               	setLEDIndicate:
  61               	.LFB16:
  62               	.LM9:
  63               	/* prologue: function */
  64               	/* frame size = 0 */
  65               	.LM10:
  66 0012 8091 0000 		lds r24,LEDstate
  67 0016 90E0      		ldi r25,lo8(0)
  68 0018 80FF      		sbrs r24,0
  69 001a 00C0      		rjmp .L8
  70               	.LM11:
  71 001c 909A      		sbi 50-32,0
  72 001e 00C0      		rjmp .L9
  73               	.L8:
  74               	.LM12:
  75 0020 9098      		cbi 50-32,0
  76               	.L9:
  77               	.LM13:
  78 0022 AC01      		movw r20,r24
  79 0024 4270      		andi r20,lo8(2)
  80 0026 5070      		andi r21,hi8(2)
  81 0028 81FF      		sbrs r24,1
  82 002a 00C0      		rjmp .L10
  83               	.LM14:
  84 002c 919A      		sbi 50-32,1
  85 002e 00C0      		rjmp .L11
  86               	.L10:
  87               	.LM15:
  88 0030 9198      		cbi 50-32,1
  89               	.L11:
  90 0032 2091 0000 		lds r18,prevSCRLED.1857
  91               	.LM16:
  92 0036 82FF      		sbrs r24,2
  93 0038 00C0      		rjmp .L12
  94               	.LM17:
  95 003a 969A      		sbi 50-32,6
  96               	.LM18:
  97 003c 2223      		tst r18
  98 003e 01F4      		brne .L18
  99 0040 00C0      		rjmp .L21
 100               	.L12:
 101               	.LM19:
 102 0042 9698      		cbi 50-32,6
 103               	.LM20:
 104 0044 2130      		cpi r18,lo8(1)
 105 0046 01F4      		brne .L18
 106 0048 00C0      		rjmp .L22
 107               	.L21:
 108               	.LM21:
 109 004a 81E0      		ldi r24,lo8(1)
 110 004c 8093 0000 		sts prevSCRLED.1857,r24
 111               	.LM22:
 112 0050 452B      		or r20,r21
 113 0052 01F4      		brne .L16
 114               	.LM23:
GAS LISTING C:\Users\ADMINI~1\AppData\Local\Temp/ccw52Fe5.s 			page 3


 115 0054 85E0      		ldi r24,lo8(5)
 116 0056 00C0      		rjmp .L20
 117               	.L16:
 118               	.LM24:
 119 0058 84E0      		ldi r24,lo8(4)
 120 005a 00C0      		rjmp .L20
 121               	.L22:
 122               	.LM25:
 123 005c 1092 0000 		sts prevSCRLED.1857,__zero_reg__
 124               	.LM26:
 125 0060 452B      		or r20,r21
 126 0062 01F4      		brne .L17
 127               	.LM27:
 128 0064 83E0      		ldi r24,lo8(3)
 129               	.L20:
 130 0066 8093 0000 		sts scrollLockLED,r24
 131 006a 0895      		ret
 132               	.L17:
 133               	.LM28:
 134 006c 82E0      		ldi r24,lo8(2)
 135 006e 8093 0000 		sts scrollLockLED,r24
 136               	.L18:
 137 0072 0895      		ret
 138               	.LFE16:
 139               		.size	setLEDIndicate, .-setLEDIndicate
 140               	.global	applyKeyDownForFullLED
 141               		.type	applyKeyDownForFullLED, @function
 142               	applyKeyDownForFullLED:
 143               	.LFB17:
 144               	.LM29:
 145               	/* prologue: function */
 146               	/* frame size = 0 */
 147               	.LM30:
 148 0074 8091 0000 		lds r24,_fullLEDMode
 149 0078 8330      		cpi r24,lo8(3)
 150 007a 01F4      		brne .L24
 151               	.LM31:
 152 007c 8FEF      		ldi r24,lo8(511)
 153 007e 91E0      		ldi r25,hi8(511)
 154 0080 9093 0000 		sts (downLevelStay)+1,r25
 155 0084 8093 0000 		sts downLevelStay,r24
 156               	.LM32:
 157 0088 8091 0000 		lds r24,downLevel
 158 008c 8C30      		cpi r24,lo8(12)
 159 008e 00F4      		brsh .L26
 160               	.LM33:
 161 0090 8F5F      		subi r24,lo8(-(1))
 162 0092 8093 0000 		sts downLevel,r24
 163               	.LM34:
 164 0096 9FEF      		ldi r25,lo8(-1)
 165 0098 899F      		mul r24,r25
 166 009a C001      		movw r24,r0
 167 009c 1124      		clr r1
 168 009e 6CE0      		ldi r22,lo8(12)
 169 00a0 70E0      		ldi r23,hi8(12)
 170 00a2 0E94 0000 		call __divmodhi4
 171 00a6 6093 0000 		sts downLevelLife,r22
GAS LISTING C:\Users\ADMINI~1\AppData\Local\Temp/ccw52Fe5.s 			page 4


 172 00aa 0895      		ret
 173               	.L24:
 174               	.LM35:
 175 00ac 8430      		cpi r24,lo8(4)
 176 00ae 01F4      		brne .L26
 177               	.LM36:
 178 00b0 8FEF      		ldi r24,lo8(511)
 179 00b2 91E0      		ldi r25,hi8(511)
 180 00b4 9093 0000 		sts (downLevelStay)+1,r25
 181 00b8 8093 0000 		sts downLevelStay,r24
 182               	.LM37:
 183 00bc 8091 0000 		lds r24,downLevel
 184 00c0 8823      		tst r24
 185 00c2 01F0      		breq .L26
 186               	.LM38:
 187 00c4 8150      		subi r24,lo8(-(-1))
 188 00c6 8093 0000 		sts downLevel,r24
 189               	.LM39:
 190 00ca 9FEF      		ldi r25,lo8(-1)
 191 00cc 899F      		mul r24,r25
 192 00ce C001      		movw r24,r0
 193 00d0 1124      		clr r1
 194 00d2 6CE0      		ldi r22,lo8(12)
 195 00d4 70E0      		ldi r23,hi8(12)
 196 00d6 0E94 0000 		call __divmodhi4
 197 00da 6093 0000 		sts downLevelLife,r22
 198               	.L26:
 199 00de 0895      		ret
 200               	.LFE17:
 201               		.size	applyKeyDownForFullLED, .-applyKeyDownForFullLED
 202               		.type	getBrightness, @function
 203               	getBrightness:
 204               	.LFB19:
 205               	.LM40:
 206               	.LVL1:
 207               	/* prologue: function */
 208               	/* frame size = 0 */
 209               	.LM41:
 210 00e0 2091 0000 		lds r18,_ledBrightnessMax
 211 00e4 30E0      		ldi r19,lo8(0)
 212 00e6 AC01      		movw r20,r24
 213 00e8 429F      		mul r20,r18
 214 00ea C001      		movw r24,r0
 215 00ec 439F      		mul r20,r19
 216 00ee 900D      		add r25,r0
 217 00f0 529F      		mul r21,r18
 218 00f2 900D      		add r25,r0
 219 00f4 1124      		clr r1
 220               	.LVL2:
 221 00f6 6FEF      		ldi r22,lo8(255)
 222 00f8 70E0      		ldi r23,hi8(255)
 223 00fa 0E94 0000 		call __divmodhi4
 224 00fe CB01      		movw r24,r22
 225               	/* epilogue start */
 226               	.LM42:
 227 0100 0895      		ret
 228               	.LFE19:
GAS LISTING C:\Users\ADMINI~1\AppData\Local\Temp/ccw52Fe5.s 			page 5


 229               		.size	getBrightness, .-getBrightness
 230               	.global	sleepLED
 231               		.type	sleepLED, @function
 232               	sleepLED:
 233               	.LFB23:
 234               	.LM43:
 235               	/* prologue: function */
 236               	/* frame size = 0 */
 237               	.LM44:
 238 0102 9098      		cbi 50-32,0
 239               	.LM45:
 240 0104 9198      		cbi 50-32,1
 241               	.LM46:
 242 0106 8091 0000 		lds r24,_fullLEDMode
 243 010a 8230      		cpi r24,lo8(2)
 244 010c 01F0      		breq .L30
 245 010e 8430      		cpi r24,lo8(4)
 246 0110 01F4      		brne .L31
 247               	.L30:
 248               	.LM47:
 249 0112 1092 0000 		sts (pwmCounter)+1,__zero_reg__
 250 0116 1092 0000 		sts pwmCounter,__zero_reg__
 251 011a 00C0      		rjmp .L34
 252               	.L31:
 253               	.LM48:
 254 011c 8823      		tst r24
 255 011e 01F0      		breq .L33
 256 0120 8330      		cpi r24,lo8(3)
 257 0122 01F4      		brne .L34
 258               	.L33:
 259               	.LM49:
 260 0124 81E0      		ldi r24,lo8(1)
 261 0126 8093 0000 		sts _isDidSleep,r24
 262 012a 0895      		ret
 263               	.L34:
 264               	.LM50:
 265 012c 1092 0000 		sts _isDidSleep,__zero_reg__
 266 0130 0895      		ret
 267               	.LFE23:
 268               		.size	sleepLED, .-sleepLED
 269               	.global	doSleep
 270               		.type	doSleep, @function
 271               	doSleep:
 272               	.LFB25:
 273               	.LM51:
 274               	/* prologue: function */
 275               	/* frame size = 0 */
 276               	.LM52:
 277 0132 8091 0000 		lds r24,_isDidSleep
 278 0136 8130      		cpi r24,lo8(1)
 279 0138 01F0      		breq .L39
 280               	.LM53:
 281 013a 8091 0000 		lds r24,pwmCounter
 282 013e 9091 0000 		lds r25,(pwmCounter)+1
 283 0142 68E0      		ldi r22,lo8(8)
 284 0144 70E0      		ldi r23,hi8(8)
 285 0146 0E94 0000 		call __divmodhi4
GAS LISTING C:\Users\ADMINI~1\AppData\Local\Temp/ccw52Fe5.s 			page 6


 286 014a CB01      		movw r24,r22
 287 014c 9095      		com r25
 288 014e 8195      		neg r24
 289 0150 9F4F      		sbci r25,lo8(-1)
 290 0152 8150      		subi r24,lo8(-(255))
 291 0154 9F4F      		sbci r25,hi8(-(255))
 292 0156 0E94 0000 		call getBrightness
 293 015a 0E94 0000 		call timer1PWMBSet
 294               	.LM54:
 295 015e 8091 0000 		lds r24,pwmCounter
 296 0162 9091 0000 		lds r25,(pwmCounter)+1
 297 0166 885F      		subi r24,lo8(2040)
 298 0168 9740      		sbci r25,hi8(2040)
 299 016a 04F0      		brlt .L38
 300               	.LM55:
 301 016c 80E0      		ldi r24,lo8(0)
 302 016e 90E0      		ldi r25,hi8(0)
 303 0170 0E94 0000 		call timer1PWMBSet
 304               	.LM56:
 305 0174 9498      		cbi 50-32,4
 306               	.LM57:
 307 0176 81E0      		ldi r24,lo8(1)
 308 0178 8093 0000 		sts _isDidSleep,r24
 309               	.L38:
 310               	.LM58:
 311 017c 8091 0000 		lds r24,pwmCounter
 312 0180 9091 0000 		lds r25,(pwmCounter)+1
 313 0184 0196      		adiw r24,1
 314 0186 9093 0000 		sts (pwmCounter)+1,r25
 315 018a 8093 0000 		sts pwmCounter,r24
 316               	.L39:
 317 018e 0895      		ret
 318               	.LFE25:
 319               		.size	doSleep, .-doSleep
 320               	.global	renderLED
 321               		.type	renderLED, @function
 322               	renderLED:
 323               	.LFB26:
 324               	.LM59:
 325               	.LVL3:
 326 0190 1F93      		push r17
 327               	/* prologue: function */
 328               	/* frame size = 0 */
 329 0192 182F      		mov r17,r24
 330               	.LM60:
 331 0194 8091 0000 		lds r24,ledInited
 332               	.LVL4:
 333 0198 8823      		tst r24
 334 019a 01F4      		brne .+2
 335 019c 00C0      		rjmp .L72
 336               	.LM61:
 337 019e 0E94 0000 		call isSleep
 338 01a2 8823      		tst r24
 339 01a4 01F0      		breq .L42
 340               	.LM62:
 341 01a6 0E94 0000 		call doSleep
 342 01aa 00C0      		rjmp .L72
GAS LISTING C:\Users\ADMINI~1\AppData\Local\Temp/ccw52Fe5.s 			page 7


 343               	.L42:
 344               	.LBB28:
 345               	.LBB29:
 346               	.LM63:
 347 01ac 1130      		cpi r17,lo8(1)
 348 01ae 01F4      		brne .L43
 349               	.LM64:
 350 01b0 8091 0000 		lds r24,beyondFNDelayCounter.1945
 351 01b4 9091 0000 		lds r25,(beyondFNDelayCounter.1945)+1
 352 01b8 0196      		adiw r24,1
 353 01ba 9093 0000 		sts (beyondFNDelayCounter.1945)+1,r25
 354 01be 8093 0000 		sts beyondFNDelayCounter.1945,r24
 355               	.LM65:
 356 01c2 8558      		subi r24,lo8(901)
 357 01c4 9340      		sbci r25,hi8(901)
 358 01c6 04F0      		brlt .L44
 359               	.LM66:
 360 01c8 8091 0000 		lds r24,beyondFNCounter.1944
 361 01cc 9091 0000 		lds r25,(beyondFNCounter.1944)+1
 362 01d0 0196      		adiw r24,1
 363 01d2 9093 0000 		sts (beyondFNCounter.1944)+1,r25
 364 01d6 8093 0000 		sts beyondFNCounter.1944,r24
 365               	.LM67:
 366 01da 893C      		cpi r24,201
 367 01dc 9105      		cpc r25,__zero_reg__
 368 01de 04F0      		brlt .L44
 369               	.LBE29:
 370               	.LM68:
 371 01e0 8091 0000 		lds r24,LEDstate
 372 01e4 9091 0000 		lds r25,beyondFNLEDState.1946
 373 01e8 80FF      		sbrs r24,0
 374 01ea 00C0      		rjmp .L45
 375               	.LBB30:
 376               	.LM69:
 377 01ec 9130      		cpi r25,lo8(1)
 378 01ee 01F4      		brne .L46
 379               	.LM70:
 380 01f0 9098      		cbi 50-32,0
 381 01f2 00C0      		rjmp .L47
 382               	.L46:
 383               	.LM71:
 384 01f4 909A      		sbi 50-32,0
 385 01f6 00C0      		rjmp .L73
 386               	.L45:
 387               	.LM72:
 388 01f8 9130      		cpi r25,lo8(1)
 389 01fa 01F4      		brne .L48
 390               	.LM73:
 391 01fc 909A      		sbi 50-32,0
 392 01fe 00C0      		rjmp .L47
 393               	.L48:
 394               	.LM74:
 395 0200 9098      		cbi 50-32,0
 396               	.L73:
 397               	.LM75:
 398 0202 1092 0000 		sts (beyondFNDelayCounter.1945)+1,__zero_reg__
 399 0206 1092 0000 		sts beyondFNDelayCounter.1945,__zero_reg__
GAS LISTING C:\Users\ADMINI~1\AppData\Local\Temp/ccw52Fe5.s 			page 8


 400               	.L47:
 401               	.LM76:
 402 020a 8091 0000 		lds r24,beyondFNLEDState.1946
 403 020e 91E0      		ldi r25,lo8(1)
 404 0210 8927      		eor r24,r25
 405 0212 8093 0000 		sts beyondFNLEDState.1946,r24
 406               	.LM77:
 407 0216 1092 0000 		sts (beyondFNCounter.1944)+1,__zero_reg__
 408 021a 1092 0000 		sts beyondFNCounter.1944,__zero_reg__
 409 021e 00C0      		rjmp .L44
 410               	.L43:
 411               	.LM78:
 412 0220 1092 0000 		sts (beyondFNCounter.1944)+1,__zero_reg__
 413 0224 1092 0000 		sts beyondFNCounter.1944,__zero_reg__
 414               	.LM79:
 415 0228 81E0      		ldi r24,lo8(1)
 416 022a 8093 0000 		sts beyondFNLEDState.1946,r24
 417               	.L44:
 418               	.LBE30:
 419               	.LBE28:
 420               	.LBB31:
 421               	.LBB32:
 422               	.LM80:
 423 022e 2091 0000 		lds r18,scrollLockLED
 424 0232 2223      		tst r18
 425 0234 01F0      		breq .L49
 426               	.LM81:
 427 0236 8091 0000 		lds r24,counter.1971
 428 023a 9091 0000 		lds r25,(counter.1971)+1
 429 023e 0196      		adiw r24,1
 430 0240 9093 0000 		sts (counter.1971)+1,r25
 431 0244 8093 0000 		sts counter.1971,r24
 432               	.LM82:
 433 0248 8536      		cpi r24,101
 434 024a 9105      		cpc r25,__zero_reg__
 435 024c 04F0      		brlt .L50
 436               	.LM83:
 437 024e 2530      		cpi r18,lo8(5)
 438 0250 01F0      		breq .L74
 439 0252 2330      		cpi r18,lo8(3)
 440 0254 01F0      		breq .L74
 441               	.L52:
 442               	.LM84:
 443 0256 2430      		cpi r18,lo8(4)
 444 0258 01F0      		breq .L54
 445 025a 2230      		cpi r18,lo8(2)
 446 025c 01F4      		brne .L55
 447               	.L54:
 448               	.LM85:
 449 025e 9198      		cbi 50-32,1
 450 0260 00C0      		rjmp .L53
 451               	.L55:
 452               	.LM86:
 453 0262 8091 0000 		lds r24,LEDstate
 454 0266 81FD      		sbrc r24,1
 455               	.L74:
 456               	.LM87:
GAS LISTING C:\Users\ADMINI~1\AppData\Local\Temp/ccw52Fe5.s 			page 9


 457 0268 919A      		sbi 50-32,1
 458               	.L53:
 459               	.LM88:
 460 026a 1092 0000 		sts (counter.1971)+1,__zero_reg__
 461 026e 1092 0000 		sts counter.1971,__zero_reg__
 462               	.LM89:
 463 0272 2150      		subi r18,lo8(-(-1))
 464 0274 2093 0000 		sts scrollLockLED,r18
 465 0278 00C0      		rjmp .L50
 466               	.L49:
 467               	.LM90:
 468 027a 1092 0000 		sts (counter.1971)+1,__zero_reg__
 469 027e 1092 0000 		sts counter.1971,__zero_reg__
 470               	.L50:
 471               	.LBE32:
 472               	.LBE31:
 473               	.LBB33:
 474               	.LBB34:
 475               	.LM91:
 476 0282 8091 0000 		lds r24,ledStateCount
 477 0286 9091 0000 		lds r25,(ledStateCount)+1
 478 028a 0196      		adiw r24,1
 479 028c 9093 0000 		sts (ledStateCount)+1,r25
 480 0290 8093 0000 		sts ledStateCount,r24
 481 0294 0197      		sbiw r24,1
 482 0296 8958      		subi r24,lo8(5001)
 483 0298 9341      		sbci r25,hi8(5001)
 484 029a 04F0      		brlt .L56
 485               	.LM92:
 486 029c 6091 0000 		lds r22,_fullLEDMode
 487 02a0 8091 0000 		lds r24,_fullLEDMode_saved
 488 02a4 6817      		cp r22,r24
 489 02a6 01F0      		breq .L57
 490               	.LM93:
 491 02a8 6093 0000 		sts _fullLEDMode_saved,r22
 492               	.LM94:
 493 02ac 8BE0      		ldi r24,lo8(11)
 494 02ae 90E0      		ldi r25,hi8(11)
 495 02b0 0E94 0000 		call __eewr_byte_m32
 496               	.L57:
 497               	.LM95:
 498 02b4 6091 0000 		lds r22,_ledBrightnessMax
 499 02b8 8091 0000 		lds r24,_ledBrightnessMax_saved
 500 02bc 8617      		cp r24,r22
 501 02be 01F0      		breq .L56
 502               	.LM96:
 503 02c0 6093 0000 		sts _ledBrightnessMax_saved,r22
 504               	.LM97:
 505 02c4 89E0      		ldi r24,lo8(9)
 506 02c6 90E0      		ldi r25,hi8(9)
 507 02c8 0E94 0000 		call __eewr_byte_m32
 508               	.L56:
 509               	.LBE34:
 510               	.LBE33:
 511               	.LBB35:
 512               	.LBB36:
 513               	.LM98:
GAS LISTING C:\Users\ADMINI~1\AppData\Local\Temp/ccw52Fe5.s 			page 10


 514 02cc 8091 0000 		lds r24,_fullLEDMode
 515 02d0 8130      		cpi r24,lo8(1)
 516 02d2 01F0      		breq .+2
 517 02d4 00C0      		rjmp .L58
 518               	.LM99:
 519 02d6 8091 0000 		lds r24,pwmDir
 520 02da 9091 0000 		lds r25,(pwmDir)+1
 521 02de 0097      		sbiw r24,0
 522 02e0 01F4      		brne .L59
 523               	.LBE36:
 524               	.LM100:
 525 02e2 8091 0000 		lds r24,pwmCounter
 526 02e6 9091 0000 		lds r25,(pwmCounter)+1
 527 02ea 68E0      		ldi r22,lo8(8)
 528 02ec 70E0      		ldi r23,hi8(8)
 529 02ee 0E94 0000 		call __divmodhi4
 530 02f2 CB01      		movw r24,r22
 531 02f4 0E94 0000 		call getBrightness
 532 02f8 00C0      		rjmp .L75
 533               	.L59:
 534               	.LBB37:
 535               	.LM101:
 536 02fa 8230      		cpi r24,2
 537 02fc 9105      		cpc r25,__zero_reg__
 538 02fe 01F4      		brne .L61
 539               	.LBE37:
 540               	.LM102:
 541 0300 8091 0000 		lds r24,pwmCounter
 542 0304 9091 0000 		lds r25,(pwmCounter)+1
 543 0308 68E0      		ldi r22,lo8(8)
 544 030a 70E0      		ldi r23,hi8(8)
 545 030c 0E94 0000 		call __divmodhi4
 546 0310 CB01      		movw r24,r22
 547 0312 9095      		com r25
 548 0314 8195      		neg r24
 549 0316 9F4F      		sbci r25,lo8(-1)
 550 0318 8150      		subi r24,lo8(-(255))
 551 031a 9F4F      		sbci r25,hi8(-(255))
 552 031c 0E94 0000 		call getBrightness
 553               	.L75:
 554               	.LBB38:
 555 0320 0E94 0000 		call timer1PWMBSet
 556 0324 00C0      		rjmp .L60
 557               	.L61:
 558               	.LM103:
 559 0326 8130      		cpi r24,1
 560 0328 9105      		cpc r25,__zero_reg__
 561 032a 01F0      		breq .L62
 562 032c 0397      		sbiw r24,3
 563 032e 01F4      		brne .L60
 564               	.L62:
 565               	.LM104:
 566 0330 8091 0000 		lds r24,pwmCounter
 567 0334 9091 0000 		lds r25,(pwmCounter)+1
 568 0338 0196      		adiw r24,1
 569 033a 9093 0000 		sts (pwmCounter)+1,r25
 570 033e 8093 0000 		sts pwmCounter,r24
GAS LISTING C:\Users\ADMINI~1\AppData\Local\Temp/ccw52Fe5.s 			page 11


 571               	.L60:
 572               	.LM105:
 573 0342 8091 0000 		lds r24,pwmCounter
 574 0346 9091 0000 		lds r25,(pwmCounter)+1
 575 034a 885F      		subi r24,lo8(2040)
 576 034c 9740      		sbci r25,hi8(2040)
 577 034e 04F0      		brlt .L63
 578               	.LM106:
 579 0350 1092 0000 		sts (pwmCounter)+1,__zero_reg__
 580 0354 1092 0000 		sts pwmCounter,__zero_reg__
 581               	.LM107:
 582 0358 8091 0000 		lds r24,pwmDir
 583 035c 9091 0000 		lds r25,(pwmDir)+1
 584 0360 0196      		adiw r24,1
 585 0362 64E0      		ldi r22,lo8(4)
 586 0364 70E0      		ldi r23,hi8(4)
 587 0366 0E94 0000 		call __divmodhi4
 588 036a 9093 0000 		sts (pwmDir)+1,r25
 589 036e 8093 0000 		sts pwmDir,r24
 590               	.L63:
 591               	.LM108:
 592 0372 8091 0000 		lds r24,pwmCounter
 593 0376 9091 0000 		lds r25,(pwmCounter)+1
 594 037a 0196      		adiw r24,1
 595 037c 9093 0000 		sts (pwmCounter)+1,r25
 596 0380 8093 0000 		sts pwmCounter,r24
 597 0384 00C0      		rjmp .L72
 598               	.L58:
 599               	.LM109:
 600 0386 8330      		cpi r24,lo8(3)
 601 0388 01F4      		brne .L64
 602               	.LM110:
 603 038a 8091 0000 		lds r24,downLevelStay
 604 038e 9091 0000 		lds r25,(downLevelStay)+1
 605 0392 0097      		sbiw r24,0
 606 0394 01F0      		breq .L65
 607               	.LM111:
 608 0396 0197      		sbiw r24,1
 609 0398 9093 0000 		sts (downLevelStay)+1,r25
 610 039c 8093 0000 		sts downLevelStay,r24
 611 03a0 00C0      		rjmp .L66
 612               	.L65:
 613               	.LM112:
 614 03a2 2091 0000 		lds r18,downLevelLife
 615 03a6 2223      		tst r18
 616 03a8 01F0      		breq .L67
 617               	.LM113:
 618 03aa 8091 0000 		lds r24,pwmCounter
 619 03ae 9091 0000 		lds r25,(pwmCounter)+1
 620 03b2 0196      		adiw r24,1
 621 03b4 9093 0000 		sts (pwmCounter)+1,r25
 622 03b8 8093 0000 		sts pwmCounter,r24
 623               	.LM114:
 624 03bc 0897      		sbiw r24,8
 625 03be 04F0      		brlt .L66
 626               	.LM115:
 627 03c0 1092 0000 		sts (pwmCounter)+1,__zero_reg__
GAS LISTING C:\Users\ADMINI~1\AppData\Local\Temp/ccw52Fe5.s 			page 12


 628 03c4 1092 0000 		sts pwmCounter,__zero_reg__
 629               	.LM116:
 630 03c8 2150      		subi r18,lo8(-(-1))
 631 03ca 2093 0000 		sts downLevelLife,r18
 632               	.LM117:
 633 03ce 8FEF      		ldi r24,lo8(255)
 634 03d0 90E0      		ldi r25,hi8(255)
 635 03d2 821B      		sub r24,r18
 636 03d4 9109      		sbc r25,__zero_reg__
 637 03d6 6BEE      		ldi r22,lo8(-21)
 638 03d8 7FEF      		ldi r23,hi8(-21)
 639 03da 0E94 0000 		call __divmodhi4
 640 03de 645F      		subi r22,lo8(-(12))
 641 03e0 6093 0000 		sts downLevel,r22
 642 03e4 00C0      		rjmp .L66
 643               	.L67:
 644               	.LM118:
 645 03e6 1092 0000 		sts downLevel,__zero_reg__
 646               	.LM119:
 647 03ea 1092 0000 		sts (pwmCounter)+1,__zero_reg__
 648 03ee 1092 0000 		sts pwmCounter,__zero_reg__
 649               	.L66:
 650               	.LBE38:
 651               	.LM120:
 652 03f2 8091 0000 		lds r24,downLevelLife
 653 03f6 90E0      		ldi r25,lo8(0)
 654 03f8 0E94 0000 		call getBrightness
 655 03fc 00C0      		rjmp .L76
 656               	.L64:
 657               	.LBB39:
 658               	.LM121:
 659 03fe 8430      		cpi r24,lo8(4)
 660 0400 01F4      		brne .L68
 661               	.LM122:
 662 0402 8091 0000 		lds r24,downLevelStay
 663 0406 9091 0000 		lds r25,(downLevelStay)+1
 664 040a 0097      		sbiw r24,0
 665 040c 01F0      		breq .L69
 666               	.LM123:
 667 040e 0197      		sbiw r24,1
 668 0410 9093 0000 		sts (downLevelStay)+1,r25
 669 0414 8093 0000 		sts downLevelStay,r24
 670 0418 00C0      		rjmp .L70
 671               	.L69:
 672               	.LM124:
 673 041a 2091 0000 		lds r18,downLevelLife
 674 041e 2F3F      		cpi r18,lo8(-1)
 675 0420 01F0      		breq .L71
 676               	.LM125:
 677 0422 8091 0000 		lds r24,pwmCounter
 678 0426 9091 0000 		lds r25,(pwmCounter)+1
 679 042a 0196      		adiw r24,1
 680 042c 9093 0000 		sts (pwmCounter)+1,r25
 681 0430 8093 0000 		sts pwmCounter,r24
 682               	.LM126:
 683 0434 0897      		sbiw r24,8
 684 0436 04F0      		brlt .L70
GAS LISTING C:\Users\ADMINI~1\AppData\Local\Temp/ccw52Fe5.s 			page 13


 685               	.LM127:
 686 0438 1092 0000 		sts (pwmCounter)+1,__zero_reg__
 687 043c 1092 0000 		sts pwmCounter,__zero_reg__
 688               	.LM128:
 689 0440 2F5F      		subi r18,lo8(-(1))
 690 0442 2093 0000 		sts downLevelLife,r18
 691               	.LM129:
 692 0446 8FEF      		ldi r24,lo8(255)
 693 0448 90E0      		ldi r25,hi8(255)
 694 044a 821B      		sub r24,r18
 695 044c 9109      		sbc r25,__zero_reg__
 696 044e 6BEE      		ldi r22,lo8(-21)
 697 0450 7FEF      		ldi r23,hi8(-21)
 698 0452 0E94 0000 		call __divmodhi4
 699 0456 645F      		subi r22,lo8(-(12))
 700 0458 6093 0000 		sts downLevel,r22
 701 045c 00C0      		rjmp .L70
 702               	.L71:
 703               	.LM130:
 704 045e 8CE0      		ldi r24,lo8(12)
 705 0460 8093 0000 		sts downLevel,r24
 706               	.LM131:
 707 0464 1092 0000 		sts (pwmCounter)+1,__zero_reg__
 708 0468 1092 0000 		sts pwmCounter,__zero_reg__
 709               	.L70:
 710               	.LBE39:
 711               	.LM132:
 712 046c 8091 0000 		lds r24,downLevelLife
 713 0470 90E0      		ldi r25,lo8(0)
 714 0472 0E94 0000 		call getBrightness
 715               	.L76:
 716               	.LBB40:
 717 0476 0E94 0000 		call timer1PWMBSet
 718 047a 00C0      		rjmp .L72
 719               	.L68:
 720               	.LM133:
 721 047c 1092 0000 		sts (pwmCounter)+1,__zero_reg__
 722 0480 1092 0000 		sts pwmCounter,__zero_reg__
 723               	.LM134:
 724 0484 83E0      		ldi r24,lo8(3)
 725 0486 90E0      		ldi r25,hi8(3)
 726 0488 9093 0000 		sts (pwmDir)+1,r25
 727 048c 8093 0000 		sts pwmDir,r24
 728               	.L72:
 729               	/* epilogue start */
 730               	.LBE40:
 731               	.LBE35:
 732               	.LM135:
 733 0490 1F91      		pop r17
 734               	.LVL5:
 735 0492 0895      		ret
 736               	.LFE26:
 737               		.size	renderLED, .-renderLED
 738               		.type	setFullLEDState, @function
 739               	setFullLEDState:
 740               	.LFB10:
 741               	.LM136:
GAS LISTING C:\Users\ADMINI~1\AppData\Local\Temp/ccw52Fe5.s 			page 14


 742               	/* prologue: function */
 743               	/* frame size = 0 */
 744               	.LM137:
 745 0494 9091 0000 		lds r25,_fullLEDMode
 746 0498 9923      		tst r25
 747 049a 01F4      		brne .L78
 748               	.LM138:
 749 049c 80E0      		ldi r24,lo8(0)
 750 049e 90E0      		ldi r25,hi8(0)
 751 04a0 00C0      		rjmp .L84
 752               	.L78:
 753               	.LM139:
 754 04a2 9130      		cpi r25,lo8(1)
 755 04a4 01F4      		brne .L80
 756               	.LM140:
 757 04a6 1092 0000 		sts (pwmCounter)+1,__zero_reg__
 758 04aa 1092 0000 		sts pwmCounter,__zero_reg__
 759               	.LM141:
 760 04ae 1092 0000 		sts (pwmDir)+1,__zero_reg__
 761 04b2 1092 0000 		sts pwmDir,__zero_reg__
 762 04b6 0895      		ret
 763               	.L80:
 764               	.LM142:
 765 04b8 9230      		cpi r25,lo8(2)
 766 04ba 01F4      		brne .L81
 767               	.LM143:
 768 04bc 8091 0000 		lds r24,_ledBrightnessMax
 769 04c0 90E0      		ldi r25,lo8(0)
 770               	.L84:
 771 04c2 0E94 0000 		call timer1PWMBSet
 772 04c6 0895      		ret
 773               	.L81:
 774               	.LM144:
 775 04c8 892F      		mov r24,r25
 776 04ca 8350      		subi r24,lo8(-(-3))
 777 04cc 8230      		cpi r24,lo8(2)
 778 04ce 00F4      		brsh .L83
 779               	.LM145:
 780 04d0 83E0      		ldi r24,lo8(3)
 781 04d2 8093 0000 		sts downLevel,r24
 782               	.LM146:
 783 04d6 9430      		cpi r25,lo8(4)
 784 04d8 01F4      		brne .L82
 785 04da 81E0      		ldi r24,lo8(1)
 786 04dc 8093 0000 		sts downLevel,r24
 787               	.L82:
 788               	.LM147:
 789 04e0 8091 0000 		lds r24,downLevel
 790 04e4 9FEF      		ldi r25,lo8(-1)
 791 04e6 899F      		mul r24,r25
 792 04e8 C001      		movw r24,r0
 793 04ea 1124      		clr r1
 794 04ec 6CE0      		ldi r22,lo8(12)
 795 04ee 70E0      		ldi r23,hi8(12)
 796 04f0 0E94 0000 		call __divmodhi4
 797 04f4 6093 0000 		sts downLevelLife,r22
 798               	.L83:
GAS LISTING C:\Users\ADMINI~1\AppData\Local\Temp/ccw52Fe5.s 			page 15


 799 04f8 0895      		ret
 800               	.LFE10:
 801               		.size	setFullLEDState, .-setFullLEDState
 802               	.global	wakeUpLED
 803               		.type	wakeUpLED, @function
 804               	wakeUpLED:
 805               	.LFB24:
 806               	.LM148:
 807               	/* prologue: function */
 808               	/* frame size = 0 */
 809               	.LM149:
 810 04fa 0E94 0000 		call setLEDIndicate
 811               	.LM150:
 812 04fe 0E94 0000 		call setFullLEDState
 813               	/* epilogue start */
 814               	.LM151:
 815 0502 0895      		ret
 816               	.LFE24:
 817               		.size	wakeUpLED, .-wakeUpLED
 818               	.global	changeFullLedState
 819               		.type	changeFullLedState, @function
 820               	changeFullLedState:
 821               	.LFB13:
 822               	.LM152:
 823               	/* prologue: function */
 824               	/* frame size = 0 */
 825               	.LM153:
 826 0504 8091 0000 		lds r24,_fullLEDMode
 827 0508 90E0      		ldi r25,lo8(0)
 828 050a 0196      		adiw r24,1
 829 050c 65E0      		ldi r22,lo8(5)
 830 050e 70E0      		ldi r23,hi8(5)
 831 0510 0E94 0000 		call __divmodhi4
 832 0514 8093 0000 		sts _fullLEDMode,r24
 833               	.LM154:
 834 0518 1092 0000 		sts (ledStateCount)+1,__zero_reg__
 835 051c 1092 0000 		sts ledStateCount,__zero_reg__
 836               	.LM155:
 837 0520 0E94 0000 		call setFullLEDState
 838               	/* epilogue start */
 839               	.LM156:
 840 0524 0895      		ret
 841               	.LFE13:
 842               		.size	changeFullLedState, .-changeFullLedState
 843               	.global	reduceLedBrightness
 844               		.type	reduceLedBrightness, @function
 845               	reduceLedBrightness:
 846               	.LFB12:
 847               	.LM157:
 848               	/* prologue: function */
 849               	/* frame size = 0 */
 850               	.LM158:
 851 0526 8091 0000 		lds r24,_ledBrightnessMax
 852 052a 8E31      		cpi r24,lo8(30)
 853 052c 01F0      		breq .L93
 854               	.LM159:
 855 052e 8951      		subi r24,lo8(-(-25))
GAS LISTING C:\Users\ADMINI~1\AppData\Local\Temp/ccw52Fe5.s 			page 16


 856 0530 8093 0000 		sts _ledBrightnessMax,r24
 857               	.LM160:
 858 0534 8E31      		cpi r24,lo8(30)
 859 0536 00F4      		brsh .L91
 860               	.LM161:
 861 0538 8EE1      		ldi r24,lo8(30)
 862 053a 8093 0000 		sts _ledBrightnessMax,r24
 863               	.L91:
 864               	.LM162:
 865 053e 8091 0000 		lds r24,_fullLEDMode
 866 0542 8230      		cpi r24,lo8(2)
 867 0544 01F4      		brne .L92
 868               	.LM163:
 869 0546 0E94 0000 		call setFullLEDState
 870               	.L92:
 871               	.LM164:
 872 054a 1092 0000 		sts (ledStateCount)+1,__zero_reg__
 873 054e 1092 0000 		sts ledStateCount,__zero_reg__
 874               	.L93:
 875 0552 0895      		ret
 876               	.LFE12:
 877               		.size	reduceLedBrightness, .-reduceLedBrightness
 878               	.global	increaseLedBrightness
 879               		.type	increaseLedBrightness, @function
 880               	increaseLedBrightness:
 881               	.LFB11:
 882               	.LM165:
 883               	/* prologue: function */
 884               	/* frame size = 0 */
 885               	.LM166:
 886 0554 8091 0000 		lds r24,_ledBrightnessMax
 887 0558 8F3F      		cpi r24,lo8(-1)
 888 055a 01F0      		breq .L99
 889               	.LM167:
 890 055c 90E0      		ldi r25,lo8(0)
 891               	.LVL6:
 892 055e 4996      		adiw r24,25
 893               	.LVL7:
 894               	.LM168:
 895 0560 8F3F      		cpi r24,255
 896 0562 9105      		cpc r25,__zero_reg__
 897 0564 01F0      		breq .L96
 898 0566 04F0      		brlt .L96
 899               	.LM169:
 900 0568 8FEF      		ldi r24,lo8(-1)
 901               	.LVL8:
 902               	.L96:
 903               	.LM170:
 904 056a 8093 0000 		sts _ledBrightnessMax,r24
 905               	.LM171:
 906 056e 8091 0000 		lds r24,_fullLEDMode
 907               	.LVL9:
 908 0572 8230      		cpi r24,lo8(2)
 909 0574 01F4      		brne .L98
 910               	.LM172:
 911 0576 0E94 0000 		call setFullLEDState
 912               	.LVL10:
GAS LISTING C:\Users\ADMINI~1\AppData\Local\Temp/ccw52Fe5.s 			page 17


 913               	.L98:
 914               	.LM173:
 915 057a 1092 0000 		sts (ledStateCount)+1,__zero_reg__
 916 057e 1092 0000 		sts ledStateCount,__zero_reg__
 917               	.L99:
 918 0582 0895      		ret
 919               	.LFE11:
 920               		.size	increaseLedBrightness, .-increaseLedBrightness
 921               	.global	initFullLEDState
 922               		.type	initFullLEDState, @function
 923               	initFullLEDState:
 924               	.LFB15:
 925               	.LM174:
 926               	/* prologue: function */
 927               	/* frame size = 0 */
 928               	.LM175:
 929 0584 8091 0000 		lds r24,ledInited
 930 0588 8823      		tst r24
 931 058a 01F4      		brne .L103
 932               	.LM176:
 933 058c 81E0      		ldi r24,lo8(1)
 934 058e 8093 0000 		sts ledInited,r24
 935               	.LM177:
 936 0592 0E94 0000 		call timer1Init
 937               	.LM178:
 938 0596 88E0      		ldi r24,lo8(8)
 939 0598 0E94 0000 		call timer1PWMInit
 940               	.LM179:
 941 059c 0E94 0000 		call timer1PWMBOn
 942               	.LM180:
 943 05a0 89E0      		ldi r24,lo8(9)
 944 05a2 90E0      		ldi r25,hi8(9)
 945 05a4 0E94 0000 		call __eerd_byte_m32
 946 05a8 8093 0000 		sts _ledBrightnessMax,r24
 947               	.LM181:
 948 05ac 8093 0000 		sts _ledBrightnessMax_saved,r24
 949               	.LM182:
 950 05b0 8BE0      		ldi r24,lo8(11)
 951 05b2 90E0      		ldi r25,hi8(11)
 952 05b4 0E94 0000 		call __eerd_byte_m32
 953 05b8 8093 0000 		sts _fullLEDMode,r24
 954               	.LM183:
 955 05bc 8F3F      		cpi r24,lo8(-1)
 956 05be 01F4      		brne .L102
 957               	.LM184:
 958 05c0 1092 0000 		sts _fullLEDMode,__zero_reg__
 959               	.L102:
 960               	.LM185:
 961 05c4 8091 0000 		lds r24,_fullLEDMode
 962 05c8 8093 0000 		sts _fullLEDMode_saved,r24
 963               	.LM186:
 964 05cc 0E94 0000 		call setFullLEDState
 965               	.L103:
 966 05d0 0895      		ret
 967               	.LFE15:
 968               		.size	initFullLEDState, .-initFullLEDState
 969               		.lcomm ledInited,1
GAS LISTING C:\Users\ADMINI~1\AppData\Local\Temp/ccw52Fe5.s 			page 18


 970               		.data
 971               		.type	beyondFNLEDState.1946, @object
 972               		.size	beyondFNLEDState.1946, 1
 973               	beyondFNLEDState.1946:
 974 0000 01        		.byte	1
 975               		.lcomm beyondFNDelayCounter.1945,2
 976               		.lcomm beyondFNCounter.1944,2
 977               		.lcomm scrollLockLED,1
 978               		.lcomm counter.1971,2
 979               		.lcomm ledStateCount,2
 980               		.lcomm _fullLEDMode,1
 981               		.lcomm _fullLEDMode_saved,1
 982               		.lcomm _ledBrightnessMax_saved,1
 983               		.type	_ledBrightnessMax, @object
 984               		.size	_ledBrightnessMax, 1
 985               	_ledBrightnessMax:
 986 0001 FF        		.byte	-1
 987               		.lcomm pwmDir,2
 988               		.lcomm pwmCounter,2
 989               		.lcomm downLevelStay,2
 990               		.lcomm downLevelLife,1
 991               		.lcomm downLevel,1
 992               		.lcomm _isDidSleep,1
 993               		.lcomm LEDstate,1
 994               		.lcomm prevSCRLED.1857,1
 995               		.section	.debug_frame,"",@progbits
 996               	.Lframe0:
 997 0000 0C00 0000 		.long	.LECIE0-.LSCIE0
 998               	.LSCIE0:
 999 0004 FFFF FFFF 		.long	0xffffffff
 1000 0008 01        		.byte	0x1
 1001 0009 00        		.string	""
 1002 000a 01        		.uleb128 0x1
 1003 000b 7F        		.sleb128 -1
 1004 000c 24        		.byte	0x24
 1005 000d 0C        		.byte	0xc
 1006 000e 20        		.uleb128 0x20
 1007 000f 00        		.uleb128 0x0
 1008               		.p2align	2
 1009               	.LECIE0:
 1010               	.LSFDE0:
 1011 0010 0C00 0000 		.long	.LEFDE0-.LASFDE0
 1012               	.LASFDE0:
 1013 0014 0000 0000 		.long	.Lframe0
 1014 0018 0000 0000 		.long	.LFB8
 1015 001c 0600 0000 		.long	.LFE8-.LFB8
 1016               		.p2align	2
 1017               	.LEFDE0:
 1018               	.LSFDE2:
 1019 0020 0C00 0000 		.long	.LEFDE2-.LASFDE2
 1020               	.LASFDE2:
 1021 0024 0000 0000 		.long	.Lframe0
 1022 0028 0000 0000 		.long	.LFB9
 1023 002c 0600 0000 		.long	.LFE9-.LFB9
 1024               		.p2align	2
 1025               	.LEFDE2:
 1026               	.LSFDE4:
GAS LISTING C:\Users\ADMINI~1\AppData\Local\Temp/ccw52Fe5.s 			page 19


 1027 0030 0C00 0000 		.long	.LEFDE4-.LASFDE4
 1028               	.LASFDE4:
 1029 0034 0000 0000 		.long	.Lframe0
 1030 0038 0000 0000 		.long	.LFB14
 1031 003c 0600 0000 		.long	.LFE14-.LFB14
 1032               		.p2align	2
 1033               	.LEFDE4:
 1034               	.LSFDE6:
 1035 0040 0C00 0000 		.long	.LEFDE6-.LASFDE6
 1036               	.LASFDE6:
 1037 0044 0000 0000 		.long	.Lframe0
 1038 0048 0000 0000 		.long	.LFB16
 1039 004c 6200 0000 		.long	.LFE16-.LFB16
 1040               		.p2align	2
 1041               	.LEFDE6:
 1042               	.LSFDE8:
 1043 0050 0C00 0000 		.long	.LEFDE8-.LASFDE8
 1044               	.LASFDE8:
 1045 0054 0000 0000 		.long	.Lframe0
 1046 0058 0000 0000 		.long	.LFB17
 1047 005c 6C00 0000 		.long	.LFE17-.LFB17
 1048               		.p2align	2
 1049               	.LEFDE8:
 1050               	.LSFDE10:
 1051 0060 0C00 0000 		.long	.LEFDE10-.LASFDE10
 1052               	.LASFDE10:
 1053 0064 0000 0000 		.long	.Lframe0
 1054 0068 0000 0000 		.long	.LFB19
 1055 006c 2200 0000 		.long	.LFE19-.LFB19
 1056               		.p2align	2
 1057               	.LEFDE10:
 1058               	.LSFDE12:
 1059 0070 0C00 0000 		.long	.LEFDE12-.LASFDE12
 1060               	.LASFDE12:
 1061 0074 0000 0000 		.long	.Lframe0
 1062 0078 0000 0000 		.long	.LFB23
 1063 007c 3000 0000 		.long	.LFE23-.LFB23
 1064               		.p2align	2
 1065               	.LEFDE12:
 1066               	.LSFDE14:
 1067 0080 0C00 0000 		.long	.LEFDE14-.LASFDE14
 1068               	.LASFDE14:
 1069 0084 0000 0000 		.long	.Lframe0
 1070 0088 0000 0000 		.long	.LFB25
 1071 008c 5E00 0000 		.long	.LFE25-.LFB25
 1072               		.p2align	2
 1073               	.LEFDE14:
 1074               	.LSFDE16:
 1075 0090 0C00 0000 		.long	.LEFDE16-.LASFDE16
 1076               	.LASFDE16:
 1077 0094 0000 0000 		.long	.Lframe0
 1078 0098 0000 0000 		.long	.LFB26
 1079 009c 0403 0000 		.long	.LFE26-.LFB26
 1080               		.p2align	2
 1081               	.LEFDE16:
 1082               	.LSFDE18:
 1083 00a0 0C00 0000 		.long	.LEFDE18-.LASFDE18
GAS LISTING C:\Users\ADMINI~1\AppData\Local\Temp/ccw52Fe5.s 			page 20


 1084               	.LASFDE18:
 1085 00a4 0000 0000 		.long	.Lframe0
 1086 00a8 0000 0000 		.long	.LFB10
 1087 00ac 6600 0000 		.long	.LFE10-.LFB10
 1088               		.p2align	2
 1089               	.LEFDE18:
 1090               	.LSFDE20:
 1091 00b0 0C00 0000 		.long	.LEFDE20-.LASFDE20
 1092               	.LASFDE20:
 1093 00b4 0000 0000 		.long	.Lframe0
 1094 00b8 0000 0000 		.long	.LFB24
 1095 00bc 0A00 0000 		.long	.LFE24-.LFB24
 1096               		.p2align	2
 1097               	.LEFDE20:
 1098               	.LSFDE22:
 1099 00c0 0C00 0000 		.long	.LEFDE22-.LASFDE22
 1100               	.LASFDE22:
 1101 00c4 0000 0000 		.long	.Lframe0
 1102 00c8 0000 0000 		.long	.LFB13
 1103 00cc 2200 0000 		.long	.LFE13-.LFB13
 1104               		.p2align	2
 1105               	.LEFDE22:
 1106               	.LSFDE24:
 1107 00d0 0C00 0000 		.long	.LEFDE24-.LASFDE24
 1108               	.LASFDE24:
 1109 00d4 0000 0000 		.long	.Lframe0
 1110 00d8 0000 0000 		.long	.LFB12
 1111 00dc 2E00 0000 		.long	.LFE12-.LFB12
 1112               		.p2align	2
 1113               	.LEFDE24:
 1114               	.LSFDE26:
 1115 00e0 0C00 0000 		.long	.LEFDE26-.LASFDE26
 1116               	.LASFDE26:
 1117 00e4 0000 0000 		.long	.Lframe0
 1118 00e8 0000 0000 		.long	.LFB11
 1119 00ec 3000 0000 		.long	.LFE11-.LFB11
 1120               		.p2align	2
 1121               	.LEFDE26:
 1122               	.LSFDE28:
 1123 00f0 0C00 0000 		.long	.LEFDE28-.LASFDE28
 1124               	.LASFDE28:
 1125 00f4 0000 0000 		.long	.Lframe0
 1126 00f8 0000 0000 		.long	.LFB15
 1127 00fc 4E00 0000 		.long	.LFE15-.LFB15
 1128               		.p2align	2
 1129               	.LEFDE28:
 1130               		.text
 1131               	.Letext0:
 1132               		.section	.debug_loc,"",@progbits
 1133               	.Ldebug_loc0:
 1134               	.LLST6:
 1135 0000 E000 0000 		.long	.LVL1-.Ltext0
 1136 0004 F600 0000 		.long	.LVL2-.Ltext0
 1137 0008 0600      		.word	0x6
 1138 000a 68        		.byte	0x68
 1139 000b 93        		.byte	0x93
 1140 000c 01        		.uleb128 0x1
GAS LISTING C:\Users\ADMINI~1\AppData\Local\Temp/ccw52Fe5.s 			page 21


 1141 000d 69        		.byte	0x69
 1142 000e 93        		.byte	0x93
 1143 000f 01        		.uleb128 0x1
 1144 0010 0000 0000 		.long	0x0
 1145 0014 0000 0000 		.long	0x0
 1146               	.LLST10:
 1147 0018 9001 0000 		.long	.LVL3-.Ltext0
 1148 001c 9801 0000 		.long	.LVL4-.Ltext0
 1149 0020 0100      		.word	0x1
 1150 0022 68        		.byte	0x68
 1151 0023 9801 0000 		.long	.LVL4-.Ltext0
 1152 0027 9204 0000 		.long	.LVL5-.Ltext0
 1153 002b 0100      		.word	0x1
 1154 002d 61        		.byte	0x61
 1155 002e 0000 0000 		.long	0x0
 1156 0032 0000 0000 		.long	0x0
 1157               	.LLST16:
 1158 0036 6005 0000 		.long	.LVL7-.Ltext0
 1159 003a 6A05 0000 		.long	.LVL8-.Ltext0
 1160 003e 0600      		.word	0x6
 1161 0040 68        		.byte	0x68
 1162 0041 93        		.byte	0x93
 1163 0042 01        		.uleb128 0x1
 1164 0043 69        		.byte	0x69
 1165 0044 93        		.byte	0x93
 1166 0045 01        		.uleb128 0x1
 1167 0046 6A05 0000 		.long	.LVL8-.Ltext0
 1168 004a 7205 0000 		.long	.LVL9-.Ltext0
 1169 004e 0600      		.word	0x6
 1170 0050 68        		.byte	0x68
 1171 0051 93        		.byte	0x93
 1172 0052 01        		.uleb128 0x1
 1173 0053 69        		.byte	0x69
 1174 0054 93        		.byte	0x93
 1175 0055 01        		.uleb128 0x1
 1176 0056 0000 0000 		.long	0x0
 1177 005a 0000 0000 		.long	0x0
 1178               		.section	.debug_info
 1179 0000 7704 0000 		.long	0x477
 1180 0004 0200      		.word	0x2
 1181 0006 0000 0000 		.long	.Ldebug_abbrev0
 1182 000a 04        		.byte	0x4
 1183 000b 01        		.uleb128 0x1
 1184 000c 0000 0000 		.long	.LASF59
 1185 0010 01        		.byte	0x1
 1186 0011 0000 0000 		.long	.LASF60
 1187 0015 0000 0000 		.long	.LASF61
 1188 0019 0000 0000 		.long	.Ltext0
 1189 001d 0000 0000 		.long	.Letext0
 1190 0021 0000 0000 		.long	.Ldebug_line0
 1191 0025 02        		.uleb128 0x2
 1192 0026 01        		.byte	0x1
 1193 0027 08        		.byte	0x8
 1194 0028 0000 0000 		.long	.LASF0
 1195 002c 02        		.uleb128 0x2
 1196 002d 01        		.byte	0x1
 1197 002e 06        		.byte	0x6
GAS LISTING C:\Users\ADMINI~1\AppData\Local\Temp/ccw52Fe5.s 			page 22


 1198 002f 0000 0000 		.long	.LASF1
 1199 0033 02        		.uleb128 0x2
 1200 0034 02        		.byte	0x2
 1201 0035 07        		.byte	0x7
 1202 0036 0000 0000 		.long	.LASF2
 1203 003a 02        		.uleb128 0x2
 1204 003b 02        		.byte	0x2
 1205 003c 05        		.byte	0x5
 1206 003d 0000 0000 		.long	.LASF3
 1207 0041 02        		.uleb128 0x2
 1208 0042 04        		.byte	0x4
 1209 0043 07        		.byte	0x7
 1210 0044 0000 0000 		.long	.LASF4
 1211 0048 02        		.uleb128 0x2
 1212 0049 04        		.byte	0x4
 1213 004a 05        		.byte	0x5
 1214 004b 0000 0000 		.long	.LASF5
 1215 004f 02        		.uleb128 0x2
 1216 0050 08        		.byte	0x8
 1217 0051 07        		.byte	0x7
 1218 0052 0000 0000 		.long	.LASF6
 1219 0056 02        		.uleb128 0x2
 1220 0057 08        		.byte	0x8
 1221 0058 05        		.byte	0x5
 1222 0059 0000 0000 		.long	.LASF7
 1223 005d 02        		.uleb128 0x2
 1224 005e 02        		.byte	0x2
 1225 005f 07        		.byte	0x7
 1226 0060 0000 0000 		.long	.LASF8
 1227 0064 02        		.uleb128 0x2
 1228 0065 01        		.byte	0x1
 1229 0066 06        		.byte	0x6
 1230 0067 0000 0000 		.long	.LASF9
 1231 006b 03        		.uleb128 0x3
 1232 006c 02        		.byte	0x2
 1233 006d 05        		.byte	0x5
 1234 006e 696E 7400 		.string	"int"
 1235 0072 04        		.uleb128 0x4
 1236 0073 0000 0000 		.long	.LASF10
 1237 0077 02        		.byte	0x2
 1238 0078 7A        		.byte	0x7a
 1239 0079 2500 0000 		.long	0x25
 1240 007d 04        		.uleb128 0x4
 1241 007e 0000 0000 		.long	.LASF11
 1242 0082 02        		.byte	0x2
 1243 0083 7C        		.byte	0x7c
 1244 0084 5D00 0000 		.long	0x5d
 1245 0088 05        		.uleb128 0x5
 1246 0089 01        		.byte	0x1
 1247 008a 06        		.byte	0x6
 1248 008b 05        		.uleb128 0x5
 1249 008c 01        		.byte	0x1
 1250 008d 08        		.byte	0x8
 1251 008e 06        		.uleb128 0x6
 1252 008f 01        		.byte	0x1
 1253 0090 0000 0000 		.long	.LASF62
 1254 0094 01        		.byte	0x1
GAS LISTING C:\Users\ADMINI~1\AppData\Local\Temp/ccw52Fe5.s 			page 23


 1255 0095 2F        		.byte	0x2f
 1256 0096 01        		.byte	0x1
 1257 0097 7200 0000 		.long	0x72
 1258 009b 01        		.byte	0x1
 1259 009c 07        		.uleb128 0x7
 1260 009d 0000 0000 		.long	.LASF17
 1261 00a1 01        		.byte	0x1
 1262 00a2 3701      		.word	0x137
 1263 00a4 01        		.byte	0x1
 1264 00a5 01        		.byte	0x1
 1265 00a6 0601 0000 		.long	0x106
 1266 00aa 08        		.uleb128 0x8
 1267 00ab 0000 0000 		.long	.LASF34
 1268 00af 01        		.byte	0x1
 1269 00b0 3701      		.word	0x137
 1270 00b2 7200 0000 		.long	0x72
 1271 00b6 09        		.uleb128 0x9
 1272 00b7 0000 0000 		.long	.LASF12
 1273 00bb 01        		.byte	0x1
 1274 00bc 3C01      		.word	0x13c
 1275 00be 0601 0000 		.long	0x106
 1276 00c2 09        		.uleb128 0x9
 1277 00c3 0000 0000 		.long	.LASF13
 1278 00c7 01        		.byte	0x1
 1279 00c8 3D01      		.word	0x13d
 1280 00ca 0601 0000 		.long	0x106
 1281 00ce 0A        		.uleb128 0xa
 1282 00cf 0B        		.uleb128 0xb
 1283 00d0 0000 0000 		.long	.LASF14
 1284 00d4 01        		.byte	0x1
 1285 00d5 3901      		.word	0x139
 1286 00d7 6B00 0000 		.long	0x6b
 1287 00db 05        		.byte	0x5
 1288 00dc 03        		.byte	0x3
 1289 00dd 0000 0000 		.long	beyondFNCounter.1944
 1290 00e1 0B        		.uleb128 0xb
 1291 00e2 0000 0000 		.long	.LASF15
 1292 00e6 01        		.byte	0x1
 1293 00e7 3A01      		.word	0x13a
 1294 00e9 6B00 0000 		.long	0x6b
 1295 00ed 05        		.byte	0x5
 1296 00ee 03        		.byte	0x3
 1297 00ef 0000 0000 		.long	beyondFNDelayCounter.1945
 1298 00f3 0B        		.uleb128 0xb
 1299 00f4 0000 0000 		.long	.LASF16
 1300 00f8 01        		.byte	0x1
 1301 00f9 3B01      		.word	0x13b
 1302 00fb 7200 0000 		.long	0x72
 1303 00ff 05        		.byte	0x5
 1304 0100 03        		.byte	0x3
 1305 0101 0000 0000 		.long	beyondFNLEDState.1946
 1306 0105 00        		.byte	0x0
 1307 0106 0C        		.uleb128 0xc
 1308 0107 6B00 0000 		.long	0x6b
 1309 010b 07        		.uleb128 0x7
 1310 010c 0000 0000 		.long	.LASF18
 1311 0110 01        		.byte	0x1
GAS LISTING C:\Users\ADMINI~1\AppData\Local\Temp/ccw52Fe5.s 			page 24


 1312 0111 5E01      		.word	0x15e
 1313 0113 01        		.byte	0x1
 1314 0114 01        		.byte	0x1
 1315 0115 3901 0000 		.long	0x139
 1316 0119 09        		.uleb128 0x9
 1317 011a 0000 0000 		.long	.LASF19
 1318 011e 01        		.byte	0x1
 1319 011f 6101      		.word	0x161
 1320 0121 0601 0000 		.long	0x106
 1321 0125 0A        		.uleb128 0xa
 1322 0126 0B        		.uleb128 0xb
 1323 0127 0000 0000 		.long	.LASF20
 1324 012b 01        		.byte	0x1
 1325 012c 6001      		.word	0x160
 1326 012e 6B00 0000 		.long	0x6b
 1327 0132 05        		.byte	0x5
 1328 0133 03        		.byte	0x3
 1329 0134 0000 0000 		.long	counter.1971
 1330 0138 00        		.byte	0x0
 1331 0139 0D        		.uleb128 0xd
 1332 013a 0000 0000 		.long	.LASF31
 1333 013e 01        		.byte	0x1
 1334 013f D3        		.byte	0xd3
 1335 0140 01        		.byte	0x1
 1336 0141 01        		.byte	0x1
 1337 0142 0E        		.uleb128 0xe
 1338 0143 01        		.byte	0x1
 1339 0144 0000 0000 		.long	.LASF21
 1340 0148 01        		.byte	0x1
 1341 0149 2C        		.byte	0x2c
 1342 014a 01        		.byte	0x1
 1343 014b 0000 0000 		.long	.LFB8
 1344 014f 0000 0000 		.long	.LFE8
 1345 0153 02        		.byte	0x2
 1346 0154 90        		.byte	0x90
 1347 0155 20        		.uleb128 0x20
 1348 0156 6801 0000 		.long	0x168
 1349 015a 0F        		.uleb128 0xf
 1350 015b 0000 0000 		.long	.LASF26
 1351 015f 01        		.byte	0x1
 1352 0160 2C        		.byte	0x2c
 1353 0161 7200 0000 		.long	0x72
 1354 0165 01        		.byte	0x1
 1355 0166 68        		.byte	0x68
 1356 0167 00        		.byte	0x0
 1357 0168 10        		.uleb128 0x10
 1358 0169 8E00 0000 		.long	0x8e
 1359 016d 0000 0000 		.long	.LFB9
 1360 0171 0000 0000 		.long	.LFE9
 1361 0175 02        		.byte	0x2
 1362 0176 90        		.byte	0x90
 1363 0177 20        		.uleb128 0x20
 1364 0178 11        		.uleb128 0x11
 1365 0179 01        		.byte	0x1
 1366 017a 0000 0000 		.long	.LASF24
 1367 017e 01        		.byte	0x1
 1368 017f 6C        		.byte	0x6c
GAS LISTING C:\Users\ADMINI~1\AppData\Local\Temp/ccw52Fe5.s 			page 25


 1369 0180 01        		.byte	0x1
 1370 0181 0000 0000 		.long	.LFB14
 1371 0185 0000 0000 		.long	.LFE14
 1372 0189 02        		.byte	0x2
 1373 018a 90        		.byte	0x90
 1374 018b 20        		.uleb128 0x20
 1375 018c 0E        		.uleb128 0xe
 1376 018d 01        		.byte	0x1
 1377 018e 0000 0000 		.long	.LASF22
 1378 0192 01        		.byte	0x1
 1379 0193 91        		.byte	0x91
 1380 0194 01        		.byte	0x1
 1381 0195 0000 0000 		.long	.LFB16
 1382 0199 0000 0000 		.long	.LFE16
 1383 019d 02        		.byte	0x2
 1384 019e 90        		.byte	0x90
 1385 019f 20        		.uleb128 0x20
 1386 01a0 B601 0000 		.long	0x1b6
 1387 01a4 12        		.uleb128 0x12
 1388 01a5 0000 0000 		.long	.LASF23
 1389 01a9 01        		.byte	0x1
 1390 01aa A5        		.byte	0xa5
 1391 01ab 7200 0000 		.long	0x72
 1392 01af 05        		.byte	0x5
 1393 01b0 03        		.byte	0x3
 1394 01b1 0000 0000 		.long	prevSCRLED.1857
 1395 01b5 00        		.byte	0x0
 1396 01b6 11        		.uleb128 0x11
 1397 01b7 01        		.byte	0x1
 1398 01b8 0000 0000 		.long	.LASF25
 1399 01bc 01        		.byte	0x1
 1400 01bd BE        		.byte	0xbe
 1401 01be 01        		.byte	0x1
 1402 01bf 0000 0000 		.long	.LFB17
 1403 01c3 0000 0000 		.long	.LFE17
 1404 01c7 02        		.byte	0x2
 1405 01c8 90        		.byte	0x90
 1406 01c9 20        		.uleb128 0x20
 1407 01ca 13        		.uleb128 0x13
 1408 01cb 0000 0000 		.long	.LASF63
 1409 01cf 01        		.byte	0x1
 1410 01d0 E5        		.byte	0xe5
 1411 01d1 01        		.byte	0x1
 1412 01d2 6B00 0000 		.long	0x6b
 1413 01d6 0000 0000 		.long	.LFB19
 1414 01da 0000 0000 		.long	.LFE19
 1415 01de 02        		.byte	0x2
 1416 01df 90        		.byte	0x90
 1417 01e0 20        		.uleb128 0x20
 1418 01e1 0002 0000 		.long	0x200
 1419 01e5 14        		.uleb128 0x14
 1420 01e6 0000 0000 		.long	.LASF27
 1421 01ea 01        		.byte	0x1
 1422 01eb E5        		.byte	0xe5
 1423 01ec 6B00 0000 		.long	0x6b
 1424 01f0 0000 0000 		.long	.LLST6
 1425 01f4 15        		.uleb128 0x15
GAS LISTING C:\Users\ADMINI~1\AppData\Local\Temp/ccw52Fe5.s 			page 26


 1426 01f5 0000 0000 		.long	.LASF28
 1427 01f9 01        		.byte	0x1
 1428 01fa E6        		.byte	0xe6
 1429 01fb 6B00 0000 		.long	0x6b
 1430 01ff 00        		.byte	0x0
 1431 0200 16        		.uleb128 0x16
 1432 0201 01        		.byte	0x1
 1433 0202 0000 0000 		.long	.LASF29
 1434 0206 01        		.byte	0x1
 1435 0207 7901      		.word	0x179
 1436 0209 01        		.byte	0x1
 1437 020a 0000 0000 		.long	.LFB23
 1438 020e 0000 0000 		.long	.LFE23
 1439 0212 02        		.byte	0x2
 1440 0213 90        		.byte	0x90
 1441 0214 20        		.uleb128 0x20
 1442 0215 16        		.uleb128 0x16
 1443 0216 01        		.byte	0x1
 1444 0217 0000 0000 		.long	.LASF30
 1445 021b 01        		.byte	0x1
 1446 021c 9001      		.word	0x190
 1447 021e 01        		.byte	0x1
 1448 021f 0000 0000 		.long	.LFB25
 1449 0223 0000 0000 		.long	.LFE25
 1450 0227 02        		.byte	0x2
 1451 0228 90        		.byte	0x90
 1452 0229 20        		.uleb128 0x20
 1453 022a 0D        		.uleb128 0xd
 1454 022b 0000 0000 		.long	.LASF32
 1455 022f 01        		.byte	0x1
 1456 0230 EC        		.byte	0xec
 1457 0231 01        		.byte	0x1
 1458 0232 01        		.byte	0x1
 1459 0233 17        		.uleb128 0x17
 1460 0234 01        		.byte	0x1
 1461 0235 0000 0000 		.long	.LASF33
 1462 0239 01        		.byte	0x1
 1463 023a 9C01      		.word	0x19c
 1464 023c 01        		.byte	0x1
 1465 023d 0000 0000 		.long	.LFB26
 1466 0241 0000 0000 		.long	.LFE26
 1467 0245 02        		.byte	0x2
 1468 0246 90        		.byte	0x90
 1469 0247 20        		.uleb128 0x20
 1470 0248 CB02 0000 		.long	0x2cb
 1471 024c 18        		.uleb128 0x18
 1472 024d 0000 0000 		.long	.LASF34
 1473 0251 01        		.byte	0x1
 1474 0252 9C01      		.word	0x19c
 1475 0254 7200 0000 		.long	0x72
 1476 0258 0000 0000 		.long	.LLST10
 1477 025c 19        		.uleb128 0x19
 1478 025d 9C00 0000 		.long	0x9c
 1479 0261 0000 0000 		.long	.LBB28
 1480 0265 0000 0000 		.long	.LBE28
 1481 0269 01        		.byte	0x1
 1482 026a A401      		.word	0x1a4
GAS LISTING C:\Users\ADMINI~1\AppData\Local\Temp/ccw52Fe5.s 			page 27


 1483 026c 8602 0000 		.long	0x286
 1484 0270 1A        		.uleb128 0x1a
 1485 0271 AA00 0000 		.long	0xaa
 1486 0275 1B        		.uleb128 0x1b
 1487 0276 0000 0000 		.long	.Ldebug_ranges0+0x0
 1488 027a 1C        		.uleb128 0x1c
 1489 027b B600 0000 		.long	0xb6
 1490 027f 1C        		.uleb128 0x1c
 1491 0280 C200 0000 		.long	0xc2
 1492 0284 00        		.byte	0x0
 1493 0285 00        		.byte	0x0
 1494 0286 19        		.uleb128 0x19
 1495 0287 0B01 0000 		.long	0x10b
 1496 028b 0000 0000 		.long	.LBB31
 1497 028f 0000 0000 		.long	.LBE31
 1498 0293 01        		.byte	0x1
 1499 0294 A701      		.word	0x1a7
 1500 0296 AA02 0000 		.long	0x2aa
 1501 029a 1D        		.uleb128 0x1d
 1502 029b 0000 0000 		.long	.LBB32
 1503 029f 0000 0000 		.long	.LBE32
 1504 02a3 1C        		.uleb128 0x1c
 1505 02a4 1901 0000 		.long	0x119
 1506 02a8 00        		.byte	0x0
 1507 02a9 00        		.byte	0x0
 1508 02aa 1E        		.uleb128 0x1e
 1509 02ab 3901 0000 		.long	0x139
 1510 02af 0000 0000 		.long	.LBB33
 1511 02b3 0000 0000 		.long	.LBE33
 1512 02b7 01        		.byte	0x1
 1513 02b8 AA01      		.word	0x1aa
 1514 02ba 1E        		.uleb128 0x1e
 1515 02bb 2A02 0000 		.long	0x22a
 1516 02bf 0000 0000 		.long	.LBB35
 1517 02c3 0000 0000 		.long	.LBE35
 1518 02c7 01        		.byte	0x1
 1519 02c8 AD01      		.word	0x1ad
 1520 02ca 00        		.byte	0x0
 1521 02cb 1F        		.uleb128 0x1f
 1522 02cc 0000 0000 		.long	.LASF64
 1523 02d0 01        		.byte	0x1
 1524 02d1 33        		.byte	0x33
 1525 02d2 01        		.byte	0x1
 1526 02d3 0000 0000 		.long	.LFB10
 1527 02d7 0000 0000 		.long	.LFE10
 1528 02db 02        		.byte	0x2
 1529 02dc 90        		.byte	0x90
 1530 02dd 20        		.uleb128 0x20
 1531 02de 16        		.uleb128 0x16
 1532 02df 01        		.byte	0x1
 1533 02e0 0000 0000 		.long	.LASF35
 1534 02e4 01        		.byte	0x1
 1535 02e5 8A01      		.word	0x18a
 1536 02e7 01        		.byte	0x1
 1537 02e8 0000 0000 		.long	.LFB24
 1538 02ec 0000 0000 		.long	.LFE24
 1539 02f0 02        		.byte	0x2
GAS LISTING C:\Users\ADMINI~1\AppData\Local\Temp/ccw52Fe5.s 			page 28


 1540 02f1 90        		.byte	0x90
 1541 02f2 20        		.uleb128 0x20
 1542 02f3 11        		.uleb128 0x11
 1543 02f4 01        		.byte	0x1
 1544 02f5 0000 0000 		.long	.LASF36
 1545 02f9 01        		.byte	0x1
 1546 02fa 64        		.byte	0x64
 1547 02fb 01        		.byte	0x1
 1548 02fc 0000 0000 		.long	.LFB13
 1549 0300 0000 0000 		.long	.LFE13
 1550 0304 02        		.byte	0x2
 1551 0305 90        		.byte	0x90
 1552 0306 20        		.uleb128 0x20
 1553 0307 11        		.uleb128 0x11
 1554 0308 01        		.byte	0x1
 1555 0309 0000 0000 		.long	.LASF37
 1556 030d 01        		.byte	0x1
 1557 030e 58        		.byte	0x58
 1558 030f 01        		.byte	0x1
 1559 0310 0000 0000 		.long	.LFB12
 1560 0314 0000 0000 		.long	.LFE12
 1561 0318 02        		.byte	0x2
 1562 0319 90        		.byte	0x90
 1563 031a 20        		.uleb128 0x20
 1564 031b 0E        		.uleb128 0xe
 1565 031c 01        		.byte	0x1
 1566 031d 0000 0000 		.long	.LASF38
 1567 0321 01        		.byte	0x1
 1568 0322 4A        		.byte	0x4a
 1569 0323 01        		.byte	0x1
 1570 0324 0000 0000 		.long	.LFB11
 1571 0328 0000 0000 		.long	.LFE11
 1572 032c 02        		.byte	0x2
 1573 032d 90        		.byte	0x90
 1574 032e 20        		.uleb128 0x20
 1575 032f 4303 0000 		.long	0x343
 1576 0333 20        		.uleb128 0x20
 1577 0334 0000 0000 		.long	.LASF39
 1578 0338 01        		.byte	0x1
 1579 0339 4D        		.byte	0x4d
 1580 033a 6B00 0000 		.long	0x6b
 1581 033e 0000 0000 		.long	.LLST16
 1582 0342 00        		.byte	0x0
 1583 0343 11        		.uleb128 0x11
 1584 0344 01        		.byte	0x1
 1585 0345 0000 0000 		.long	.LASF40
 1586 0349 01        		.byte	0x1
 1587 034a 70        		.byte	0x70
 1588 034b 01        		.byte	0x1
 1589 034c 0000 0000 		.long	.LFB15
 1590 0350 0000 0000 		.long	.LFE15
 1591 0354 02        		.byte	0x2
 1592 0355 90        		.byte	0x90
 1593 0356 20        		.uleb128 0x20
 1594 0357 12        		.uleb128 0x12
 1595 0358 0000 0000 		.long	.LASF41
 1596 035c 01        		.byte	0x1
GAS LISTING C:\Users\ADMINI~1\AppData\Local\Temp/ccw52Fe5.s 			page 29


 1597 035d 14        		.byte	0x14
 1598 035e 7D00 0000 		.long	0x7d
 1599 0362 05        		.byte	0x5
 1600 0363 03        		.byte	0x3
 1601 0364 0000 0000 		.long	downLevelStay
 1602 0368 12        		.uleb128 0x12
 1603 0369 0000 0000 		.long	.LASF42
 1604 036d 01        		.byte	0x1
 1605 036e 15        		.byte	0x15
 1606 036f 7200 0000 		.long	0x72
 1607 0373 05        		.byte	0x5
 1608 0374 03        		.byte	0x3
 1609 0375 0000 0000 		.long	downLevel
 1610 0379 21        		.uleb128 0x21
 1611 037a 0000 0000 		.long	.LASF43
 1612 037e 01        		.byte	0x1
 1613 037f 16        		.byte	0x16
 1614 0380 8503 0000 		.long	0x385
 1615 0384 0C        		.byte	0xc
 1616 0385 0C        		.uleb128 0xc
 1617 0386 7200 0000 		.long	0x72
 1618 038a 12        		.uleb128 0x12
 1619 038b 0000 0000 		.long	.LASF44
 1620 038f 01        		.byte	0x1
 1621 0390 17        		.byte	0x17
 1622 0391 7200 0000 		.long	0x72
 1623 0395 05        		.byte	0x5
 1624 0396 03        		.byte	0x3
 1625 0397 0000 0000 		.long	downLevelLife
 1626 039b 12        		.uleb128 0x12
 1627 039c 0000 0000 		.long	.LASF45
 1628 03a0 01        		.byte	0x1
 1629 03a1 19        		.byte	0x19
 1630 03a2 7200 0000 		.long	0x72
 1631 03a6 05        		.byte	0x5
 1632 03a7 03        		.byte	0x3
 1633 03a8 0000 0000 		.long	ledInited
 1634 03ac 12        		.uleb128 0x12
 1635 03ad 0000 0000 		.long	.LASF46
 1636 03b1 01        		.byte	0x1
 1637 03b2 1A        		.byte	0x1a
 1638 03b3 7200 0000 		.long	0x72
 1639 03b7 05        		.byte	0x5
 1640 03b8 03        		.byte	0x3
 1641 03b9 0000 0000 		.long	LEDstate
 1642 03bd 12        		.uleb128 0x12
 1643 03be 0000 0000 		.long	.LASF47
 1644 03c2 01        		.byte	0x1
 1645 03c3 1B        		.byte	0x1b
 1646 03c4 7200 0000 		.long	0x72
 1647 03c8 05        		.byte	0x5
 1648 03c9 03        		.byte	0x3
 1649 03ca 0000 0000 		.long	scrollLockLED
 1650 03ce 12        		.uleb128 0x12
 1651 03cf 0000 0000 		.long	.LASF48
 1652 03d3 01        		.byte	0x1
 1653 03d4 1D        		.byte	0x1d
GAS LISTING C:\Users\ADMINI~1\AppData\Local\Temp/ccw52Fe5.s 			page 30


 1654 03d5 7200 0000 		.long	0x72
 1655 03d9 05        		.byte	0x5
 1656 03da 03        		.byte	0x3
 1657 03db 0000 0000 		.long	_fullLEDMode
 1658 03df 12        		.uleb128 0x12
 1659 03e0 0000 0000 		.long	.LASF49
 1660 03e4 01        		.byte	0x1
 1661 03e5 1E        		.byte	0x1e
 1662 03e6 7200 0000 		.long	0x72
 1663 03ea 05        		.byte	0x5
 1664 03eb 03        		.byte	0x3
 1665 03ec 0000 0000 		.long	_fullLEDMode_saved
 1666 03f0 12        		.uleb128 0x12
 1667 03f1 0000 0000 		.long	.LASF50
 1668 03f5 01        		.byte	0x1
 1669 03f6 20        		.byte	0x20
 1670 03f7 6B00 0000 		.long	0x6b
 1671 03fb 05        		.byte	0x5
 1672 03fc 03        		.byte	0x3
 1673 03fd 0000 0000 		.long	pwmCounter
 1674 0401 12        		.uleb128 0x12
 1675 0402 0000 0000 		.long	.LASF51
 1676 0406 01        		.byte	0x1
 1677 0407 21        		.byte	0x21
 1678 0408 6B00 0000 		.long	0x6b
 1679 040c 05        		.byte	0x5
 1680 040d 03        		.byte	0x3
 1681 040e 0000 0000 		.long	pwmDir
 1682 0412 21        		.uleb128 0x21
 1683 0413 0000 0000 		.long	.LASF52
 1684 0417 01        		.byte	0x1
 1685 0418 22        		.byte	0x22
 1686 0419 8503 0000 		.long	0x385
 1687 041d 08        		.byte	0x8
 1688 041e 12        		.uleb128 0x12
 1689 041f 0000 0000 		.long	.LASF53
 1690 0423 01        		.byte	0x1
 1691 0424 23        		.byte	0x23
 1692 0425 7200 0000 		.long	0x72
 1693 0429 05        		.byte	0x5
 1694 042a 03        		.byte	0x3
 1695 042b 0000 0000 		.long	_isDidSleep
 1696 042f 12        		.uleb128 0x12
 1697 0430 0000 0000 		.long	.LASF54
 1698 0434 01        		.byte	0x1
 1699 0435 25        		.byte	0x25
 1700 0436 6B00 0000 		.long	0x6b
 1701 043a 05        		.byte	0x5
 1702 043b 03        		.byte	0x3
 1703 043c 0000 0000 		.long	ledStateCount
 1704 0440 12        		.uleb128 0x12
 1705 0441 0000 0000 		.long	.LASF55
 1706 0445 01        		.byte	0x1
 1707 0446 27        		.byte	0x27
 1708 0447 7200 0000 		.long	0x72
 1709 044b 05        		.byte	0x5
 1710 044c 03        		.byte	0x3
GAS LISTING C:\Users\ADMINI~1\AppData\Local\Temp/ccw52Fe5.s 			page 31


 1711 044d 0000 0000 		.long	_ledBrightnessMax
 1712 0451 12        		.uleb128 0x12
 1713 0452 0000 0000 		.long	.LASF56
 1714 0456 01        		.byte	0x1
 1715 0457 28        		.byte	0x28
 1716 0458 7200 0000 		.long	0x72
 1717 045c 05        		.byte	0x5
 1718 045d 03        		.byte	0x3
 1719 045e 0000 0000 		.long	_ledBrightnessMax_saved
 1720 0462 21        		.uleb128 0x21
 1721 0463 0000 0000 		.long	.LASF57
 1722 0467 01        		.byte	0x1
 1723 0468 29        		.byte	0x29
 1724 0469 8503 0000 		.long	0x385
 1725 046d 1E        		.byte	0x1e
 1726 046e 21        		.uleb128 0x21
 1727 046f 0000 0000 		.long	.LASF58
 1728 0473 01        		.byte	0x1
 1729 0474 2A        		.byte	0x2a
 1730 0475 8503 0000 		.long	0x385
 1731 0479 19        		.byte	0x19
 1732 047a 00        		.byte	0x0
 1733               		.section	.debug_abbrev
 1734 0000 01        		.uleb128 0x1
 1735 0001 11        		.uleb128 0x11
 1736 0002 01        		.byte	0x1
 1737 0003 25        		.uleb128 0x25
 1738 0004 0E        		.uleb128 0xe
 1739 0005 13        		.uleb128 0x13
 1740 0006 0B        		.uleb128 0xb
 1741 0007 03        		.uleb128 0x3
 1742 0008 0E        		.uleb128 0xe
 1743 0009 1B        		.uleb128 0x1b
 1744 000a 0E        		.uleb128 0xe
 1745 000b 11        		.uleb128 0x11
 1746 000c 01        		.uleb128 0x1
 1747 000d 12        		.uleb128 0x12
 1748 000e 01        		.uleb128 0x1
 1749 000f 10        		.uleb128 0x10
 1750 0010 06        		.uleb128 0x6
 1751 0011 00        		.byte	0x0
 1752 0012 00        		.byte	0x0
 1753 0013 02        		.uleb128 0x2
 1754 0014 24        		.uleb128 0x24
 1755 0015 00        		.byte	0x0
 1756 0016 0B        		.uleb128 0xb
 1757 0017 0B        		.uleb128 0xb
 1758 0018 3E        		.uleb128 0x3e
 1759 0019 0B        		.uleb128 0xb
 1760 001a 03        		.uleb128 0x3
 1761 001b 0E        		.uleb128 0xe
 1762 001c 00        		.byte	0x0
 1763 001d 00        		.byte	0x0
 1764 001e 03        		.uleb128 0x3
 1765 001f 24        		.uleb128 0x24
 1766 0020 00        		.byte	0x0
 1767 0021 0B        		.uleb128 0xb
GAS LISTING C:\Users\ADMINI~1\AppData\Local\Temp/ccw52Fe5.s 			page 32


 1768 0022 0B        		.uleb128 0xb
 1769 0023 3E        		.uleb128 0x3e
 1770 0024 0B        		.uleb128 0xb
 1771 0025 03        		.uleb128 0x3
 1772 0026 08        		.uleb128 0x8
 1773 0027 00        		.byte	0x0
 1774 0028 00        		.byte	0x0
 1775 0029 04        		.uleb128 0x4
 1776 002a 16        		.uleb128 0x16
 1777 002b 00        		.byte	0x0
 1778 002c 03        		.uleb128 0x3
 1779 002d 0E        		.uleb128 0xe
 1780 002e 3A        		.uleb128 0x3a
 1781 002f 0B        		.uleb128 0xb
 1782 0030 3B        		.uleb128 0x3b
 1783 0031 0B        		.uleb128 0xb
 1784 0032 49        		.uleb128 0x49
 1785 0033 13        		.uleb128 0x13
 1786 0034 00        		.byte	0x0
 1787 0035 00        		.byte	0x0
 1788 0036 05        		.uleb128 0x5
 1789 0037 24        		.uleb128 0x24
 1790 0038 00        		.byte	0x0
 1791 0039 0B        		.uleb128 0xb
 1792 003a 0B        		.uleb128 0xb
 1793 003b 3E        		.uleb128 0x3e
 1794 003c 0B        		.uleb128 0xb
 1795 003d 00        		.byte	0x0
 1796 003e 00        		.byte	0x0
 1797 003f 06        		.uleb128 0x6
 1798 0040 2E        		.uleb128 0x2e
 1799 0041 00        		.byte	0x0
 1800 0042 3F        		.uleb128 0x3f
 1801 0043 0C        		.uleb128 0xc
 1802 0044 03        		.uleb128 0x3
 1803 0045 0E        		.uleb128 0xe
 1804 0046 3A        		.uleb128 0x3a
 1805 0047 0B        		.uleb128 0xb
 1806 0048 3B        		.uleb128 0x3b
 1807 0049 0B        		.uleb128 0xb
 1808 004a 27        		.uleb128 0x27
 1809 004b 0C        		.uleb128 0xc
 1810 004c 49        		.uleb128 0x49
 1811 004d 13        		.uleb128 0x13
 1812 004e 20        		.uleb128 0x20
 1813 004f 0B        		.uleb128 0xb
 1814 0050 00        		.byte	0x0
 1815 0051 00        		.byte	0x0
 1816 0052 07        		.uleb128 0x7
 1817 0053 2E        		.uleb128 0x2e
 1818 0054 01        		.byte	0x1
 1819 0055 03        		.uleb128 0x3
 1820 0056 0E        		.uleb128 0xe
 1821 0057 3A        		.uleb128 0x3a
 1822 0058 0B        		.uleb128 0xb
 1823 0059 3B        		.uleb128 0x3b
 1824 005a 05        		.uleb128 0x5
GAS LISTING C:\Users\ADMINI~1\AppData\Local\Temp/ccw52Fe5.s 			page 33


 1825 005b 27        		.uleb128 0x27
 1826 005c 0C        		.uleb128 0xc
 1827 005d 20        		.uleb128 0x20
 1828 005e 0B        		.uleb128 0xb
 1829 005f 01        		.uleb128 0x1
 1830 0060 13        		.uleb128 0x13
 1831 0061 00        		.byte	0x0
 1832 0062 00        		.byte	0x0
 1833 0063 08        		.uleb128 0x8
 1834 0064 05        		.uleb128 0x5
 1835 0065 00        		.byte	0x0
 1836 0066 03        		.uleb128 0x3
 1837 0067 0E        		.uleb128 0xe
 1838 0068 3A        		.uleb128 0x3a
 1839 0069 0B        		.uleb128 0xb
 1840 006a 3B        		.uleb128 0x3b
 1841 006b 05        		.uleb128 0x5
 1842 006c 49        		.uleb128 0x49
 1843 006d 13        		.uleb128 0x13
 1844 006e 00        		.byte	0x0
 1845 006f 00        		.byte	0x0
 1846 0070 09        		.uleb128 0x9
 1847 0071 34        		.uleb128 0x34
 1848 0072 00        		.byte	0x0
 1849 0073 03        		.uleb128 0x3
 1850 0074 0E        		.uleb128 0xe
 1851 0075 3A        		.uleb128 0x3a
 1852 0076 0B        		.uleb128 0xb
 1853 0077 3B        		.uleb128 0x3b
 1854 0078 05        		.uleb128 0x5
 1855 0079 49        		.uleb128 0x49
 1856 007a 13        		.uleb128 0x13
 1857 007b 00        		.byte	0x0
 1858 007c 00        		.byte	0x0
 1859 007d 0A        		.uleb128 0xa
 1860 007e 0B        		.uleb128 0xb
 1861 007f 00        		.byte	0x0
 1862 0080 00        		.byte	0x0
 1863 0081 00        		.byte	0x0
 1864 0082 0B        		.uleb128 0xb
 1865 0083 34        		.uleb128 0x34
 1866 0084 00        		.byte	0x0
 1867 0085 03        		.uleb128 0x3
 1868 0086 0E        		.uleb128 0xe
 1869 0087 3A        		.uleb128 0x3a
 1870 0088 0B        		.uleb128 0xb
 1871 0089 3B        		.uleb128 0x3b
 1872 008a 05        		.uleb128 0x5
 1873 008b 49        		.uleb128 0x49
 1874 008c 13        		.uleb128 0x13
 1875 008d 02        		.uleb128 0x2
 1876 008e 0A        		.uleb128 0xa
 1877 008f 00        		.byte	0x0
 1878 0090 00        		.byte	0x0
 1879 0091 0C        		.uleb128 0xc
 1880 0092 26        		.uleb128 0x26
 1881 0093 00        		.byte	0x0
GAS LISTING C:\Users\ADMINI~1\AppData\Local\Temp/ccw52Fe5.s 			page 34


 1882 0094 49        		.uleb128 0x49
 1883 0095 13        		.uleb128 0x13
 1884 0096 00        		.byte	0x0
 1885 0097 00        		.byte	0x0
 1886 0098 0D        		.uleb128 0xd
 1887 0099 2E        		.uleb128 0x2e
 1888 009a 00        		.byte	0x0
 1889 009b 03        		.uleb128 0x3
 1890 009c 0E        		.uleb128 0xe
 1891 009d 3A        		.uleb128 0x3a
 1892 009e 0B        		.uleb128 0xb
 1893 009f 3B        		.uleb128 0x3b
 1894 00a0 0B        		.uleb128 0xb
 1895 00a1 27        		.uleb128 0x27
 1896 00a2 0C        		.uleb128 0xc
 1897 00a3 20        		.uleb128 0x20
 1898 00a4 0B        		.uleb128 0xb
 1899 00a5 00        		.byte	0x0
 1900 00a6 00        		.byte	0x0
 1901 00a7 0E        		.uleb128 0xe
 1902 00a8 2E        		.uleb128 0x2e
 1903 00a9 01        		.byte	0x1
 1904 00aa 3F        		.uleb128 0x3f
 1905 00ab 0C        		.uleb128 0xc
 1906 00ac 03        		.uleb128 0x3
 1907 00ad 0E        		.uleb128 0xe
 1908 00ae 3A        		.uleb128 0x3a
 1909 00af 0B        		.uleb128 0xb
 1910 00b0 3B        		.uleb128 0x3b
 1911 00b1 0B        		.uleb128 0xb
 1912 00b2 27        		.uleb128 0x27
 1913 00b3 0C        		.uleb128 0xc
 1914 00b4 11        		.uleb128 0x11
 1915 00b5 01        		.uleb128 0x1
 1916 00b6 12        		.uleb128 0x12
 1917 00b7 01        		.uleb128 0x1
 1918 00b8 40        		.uleb128 0x40
 1919 00b9 0A        		.uleb128 0xa
 1920 00ba 01        		.uleb128 0x1
 1921 00bb 13        		.uleb128 0x13
 1922 00bc 00        		.byte	0x0
 1923 00bd 00        		.byte	0x0
 1924 00be 0F        		.uleb128 0xf
 1925 00bf 05        		.uleb128 0x5
 1926 00c0 00        		.byte	0x0
 1927 00c1 03        		.uleb128 0x3
 1928 00c2 0E        		.uleb128 0xe
 1929 00c3 3A        		.uleb128 0x3a
 1930 00c4 0B        		.uleb128 0xb
 1931 00c5 3B        		.uleb128 0x3b
 1932 00c6 0B        		.uleb128 0xb
 1933 00c7 49        		.uleb128 0x49
 1934 00c8 13        		.uleb128 0x13
 1935 00c9 02        		.uleb128 0x2
 1936 00ca 0A        		.uleb128 0xa
 1937 00cb 00        		.byte	0x0
 1938 00cc 00        		.byte	0x0
GAS LISTING C:\Users\ADMINI~1\AppData\Local\Temp/ccw52Fe5.s 			page 35


 1939 00cd 10        		.uleb128 0x10
 1940 00ce 2E        		.uleb128 0x2e
 1941 00cf 00        		.byte	0x0
 1942 00d0 31        		.uleb128 0x31
 1943 00d1 13        		.uleb128 0x13
 1944 00d2 11        		.uleb128 0x11
 1945 00d3 01        		.uleb128 0x1
 1946 00d4 12        		.uleb128 0x12
 1947 00d5 01        		.uleb128 0x1
 1948 00d6 40        		.uleb128 0x40
 1949 00d7 0A        		.uleb128 0xa
 1950 00d8 00        		.byte	0x0
 1951 00d9 00        		.byte	0x0
 1952 00da 11        		.uleb128 0x11
 1953 00db 2E        		.uleb128 0x2e
 1954 00dc 00        		.byte	0x0
 1955 00dd 3F        		.uleb128 0x3f
 1956 00de 0C        		.uleb128 0xc
 1957 00df 03        		.uleb128 0x3
 1958 00e0 0E        		.uleb128 0xe
 1959 00e1 3A        		.uleb128 0x3a
 1960 00e2 0B        		.uleb128 0xb
 1961 00e3 3B        		.uleb128 0x3b
 1962 00e4 0B        		.uleb128 0xb
 1963 00e5 27        		.uleb128 0x27
 1964 00e6 0C        		.uleb128 0xc
 1965 00e7 11        		.uleb128 0x11
 1966 00e8 01        		.uleb128 0x1
 1967 00e9 12        		.uleb128 0x12
 1968 00ea 01        		.uleb128 0x1
 1969 00eb 40        		.uleb128 0x40
 1970 00ec 0A        		.uleb128 0xa
 1971 00ed 00        		.byte	0x0
 1972 00ee 00        		.byte	0x0
 1973 00ef 12        		.uleb128 0x12
 1974 00f0 34        		.uleb128 0x34
 1975 00f1 00        		.byte	0x0
 1976 00f2 03        		.uleb128 0x3
 1977 00f3 0E        		.uleb128 0xe
 1978 00f4 3A        		.uleb128 0x3a
 1979 00f5 0B        		.uleb128 0xb
 1980 00f6 3B        		.uleb128 0x3b
 1981 00f7 0B        		.uleb128 0xb
 1982 00f8 49        		.uleb128 0x49
 1983 00f9 13        		.uleb128 0x13
 1984 00fa 02        		.uleb128 0x2
 1985 00fb 0A        		.uleb128 0xa
 1986 00fc 00        		.byte	0x0
 1987 00fd 00        		.byte	0x0
 1988 00fe 13        		.uleb128 0x13
 1989 00ff 2E        		.uleb128 0x2e
 1990 0100 01        		.byte	0x1
 1991 0101 03        		.uleb128 0x3
 1992 0102 0E        		.uleb128 0xe
 1993 0103 3A        		.uleb128 0x3a
 1994 0104 0B        		.uleb128 0xb
 1995 0105 3B        		.uleb128 0x3b
GAS LISTING C:\Users\ADMINI~1\AppData\Local\Temp/ccw52Fe5.s 			page 36


 1996 0106 0B        		.uleb128 0xb
 1997 0107 27        		.uleb128 0x27
 1998 0108 0C        		.uleb128 0xc
 1999 0109 49        		.uleb128 0x49
 2000 010a 13        		.uleb128 0x13
 2001 010b 11        		.uleb128 0x11
 2002 010c 01        		.uleb128 0x1
 2003 010d 12        		.uleb128 0x12
 2004 010e 01        		.uleb128 0x1
 2005 010f 40        		.uleb128 0x40
 2006 0110 0A        		.uleb128 0xa
 2007 0111 01        		.uleb128 0x1
 2008 0112 13        		.uleb128 0x13
 2009 0113 00        		.byte	0x0
 2010 0114 00        		.byte	0x0
 2011 0115 14        		.uleb128 0x14
 2012 0116 05        		.uleb128 0x5
 2013 0117 00        		.byte	0x0
 2014 0118 03        		.uleb128 0x3
 2015 0119 0E        		.uleb128 0xe
 2016 011a 3A        		.uleb128 0x3a
 2017 011b 0B        		.uleb128 0xb
 2018 011c 3B        		.uleb128 0x3b
 2019 011d 0B        		.uleb128 0xb
 2020 011e 49        		.uleb128 0x49
 2021 011f 13        		.uleb128 0x13
 2022 0120 02        		.uleb128 0x2
 2023 0121 06        		.uleb128 0x6
 2024 0122 00        		.byte	0x0
 2025 0123 00        		.byte	0x0
 2026 0124 15        		.uleb128 0x15
 2027 0125 34        		.uleb128 0x34
 2028 0126 00        		.byte	0x0
 2029 0127 03        		.uleb128 0x3
 2030 0128 0E        		.uleb128 0xe
 2031 0129 3A        		.uleb128 0x3a
 2032 012a 0B        		.uleb128 0xb
 2033 012b 3B        		.uleb128 0x3b
 2034 012c 0B        		.uleb128 0xb
 2035 012d 49        		.uleb128 0x49
 2036 012e 13        		.uleb128 0x13
 2037 012f 00        		.byte	0x0
 2038 0130 00        		.byte	0x0
 2039 0131 16        		.uleb128 0x16
 2040 0132 2E        		.uleb128 0x2e
 2041 0133 00        		.byte	0x0
 2042 0134 3F        		.uleb128 0x3f
 2043 0135 0C        		.uleb128 0xc
 2044 0136 03        		.uleb128 0x3
 2045 0137 0E        		.uleb128 0xe
 2046 0138 3A        		.uleb128 0x3a
 2047 0139 0B        		.uleb128 0xb
 2048 013a 3B        		.uleb128 0x3b
 2049 013b 05        		.uleb128 0x5
 2050 013c 27        		.uleb128 0x27
 2051 013d 0C        		.uleb128 0xc
 2052 013e 11        		.uleb128 0x11
GAS LISTING C:\Users\ADMINI~1\AppData\Local\Temp/ccw52Fe5.s 			page 37


 2053 013f 01        		.uleb128 0x1
 2054 0140 12        		.uleb128 0x12
 2055 0141 01        		.uleb128 0x1
 2056 0142 40        		.uleb128 0x40
 2057 0143 0A        		.uleb128 0xa
 2058 0144 00        		.byte	0x0
 2059 0145 00        		.byte	0x0
 2060 0146 17        		.uleb128 0x17
 2061 0147 2E        		.uleb128 0x2e
 2062 0148 01        		.byte	0x1
 2063 0149 3F        		.uleb128 0x3f
 2064 014a 0C        		.uleb128 0xc
 2065 014b 03        		.uleb128 0x3
 2066 014c 0E        		.uleb128 0xe
 2067 014d 3A        		.uleb128 0x3a
 2068 014e 0B        		.uleb128 0xb
 2069 014f 3B        		.uleb128 0x3b
 2070 0150 05        		.uleb128 0x5
 2071 0151 27        		.uleb128 0x27
 2072 0152 0C        		.uleb128 0xc
 2073 0153 11        		.uleb128 0x11
 2074 0154 01        		.uleb128 0x1
 2075 0155 12        		.uleb128 0x12
 2076 0156 01        		.uleb128 0x1
 2077 0157 40        		.uleb128 0x40
 2078 0158 0A        		.uleb128 0xa
 2079 0159 01        		.uleb128 0x1
 2080 015a 13        		.uleb128 0x13
 2081 015b 00        		.byte	0x0
 2082 015c 00        		.byte	0x0
 2083 015d 18        		.uleb128 0x18
 2084 015e 05        		.uleb128 0x5
 2085 015f 00        		.byte	0x0
 2086 0160 03        		.uleb128 0x3
 2087 0161 0E        		.uleb128 0xe
 2088 0162 3A        		.uleb128 0x3a
 2089 0163 0B        		.uleb128 0xb
 2090 0164 3B        		.uleb128 0x3b
 2091 0165 05        		.uleb128 0x5
 2092 0166 49        		.uleb128 0x49
 2093 0167 13        		.uleb128 0x13
 2094 0168 02        		.uleb128 0x2
 2095 0169 06        		.uleb128 0x6
 2096 016a 00        		.byte	0x0
 2097 016b 00        		.byte	0x0
 2098 016c 19        		.uleb128 0x19
 2099 016d 1D        		.uleb128 0x1d
 2100 016e 01        		.byte	0x1
 2101 016f 31        		.uleb128 0x31
 2102 0170 13        		.uleb128 0x13
 2103 0171 11        		.uleb128 0x11
 2104 0172 01        		.uleb128 0x1
 2105 0173 12        		.uleb128 0x12
 2106 0174 01        		.uleb128 0x1
 2107 0175 58        		.uleb128 0x58
 2108 0176 0B        		.uleb128 0xb
 2109 0177 59        		.uleb128 0x59
GAS LISTING C:\Users\ADMINI~1\AppData\Local\Temp/ccw52Fe5.s 			page 38


 2110 0178 05        		.uleb128 0x5
 2111 0179 01        		.uleb128 0x1
 2112 017a 13        		.uleb128 0x13
 2113 017b 00        		.byte	0x0
 2114 017c 00        		.byte	0x0
 2115 017d 1A        		.uleb128 0x1a
 2116 017e 05        		.uleb128 0x5
 2117 017f 00        		.byte	0x0
 2118 0180 31        		.uleb128 0x31
 2119 0181 13        		.uleb128 0x13
 2120 0182 00        		.byte	0x0
 2121 0183 00        		.byte	0x0
 2122 0184 1B        		.uleb128 0x1b
 2123 0185 0B        		.uleb128 0xb
 2124 0186 01        		.byte	0x1
 2125 0187 55        		.uleb128 0x55
 2126 0188 06        		.uleb128 0x6
 2127 0189 00        		.byte	0x0
 2128 018a 00        		.byte	0x0
 2129 018b 1C        		.uleb128 0x1c
 2130 018c 34        		.uleb128 0x34
 2131 018d 00        		.byte	0x0
 2132 018e 31        		.uleb128 0x31
 2133 018f 13        		.uleb128 0x13
 2134 0190 00        		.byte	0x0
 2135 0191 00        		.byte	0x0
 2136 0192 1D        		.uleb128 0x1d
 2137 0193 0B        		.uleb128 0xb
 2138 0194 01        		.byte	0x1
 2139 0195 11        		.uleb128 0x11
 2140 0196 01        		.uleb128 0x1
 2141 0197 12        		.uleb128 0x12
 2142 0198 01        		.uleb128 0x1
 2143 0199 00        		.byte	0x0
 2144 019a 00        		.byte	0x0
 2145 019b 1E        		.uleb128 0x1e
 2146 019c 1D        		.uleb128 0x1d
 2147 019d 00        		.byte	0x0
 2148 019e 31        		.uleb128 0x31
 2149 019f 13        		.uleb128 0x13
 2150 01a0 11        		.uleb128 0x11
 2151 01a1 01        		.uleb128 0x1
 2152 01a2 12        		.uleb128 0x12
 2153 01a3 01        		.uleb128 0x1
 2154 01a4 58        		.uleb128 0x58
 2155 01a5 0B        		.uleb128 0xb
 2156 01a6 59        		.uleb128 0x59
 2157 01a7 05        		.uleb128 0x5
 2158 01a8 00        		.byte	0x0
 2159 01a9 00        		.byte	0x0
 2160 01aa 1F        		.uleb128 0x1f
 2161 01ab 2E        		.uleb128 0x2e
 2162 01ac 00        		.byte	0x0
 2163 01ad 03        		.uleb128 0x3
 2164 01ae 0E        		.uleb128 0xe
 2165 01af 3A        		.uleb128 0x3a
 2166 01b0 0B        		.uleb128 0xb
GAS LISTING C:\Users\ADMINI~1\AppData\Local\Temp/ccw52Fe5.s 			page 39


 2167 01b1 3B        		.uleb128 0x3b
 2168 01b2 0B        		.uleb128 0xb
 2169 01b3 27        		.uleb128 0x27
 2170 01b4 0C        		.uleb128 0xc
 2171 01b5 11        		.uleb128 0x11
 2172 01b6 01        		.uleb128 0x1
 2173 01b7 12        		.uleb128 0x12
 2174 01b8 01        		.uleb128 0x1
 2175 01b9 40        		.uleb128 0x40
 2176 01ba 0A        		.uleb128 0xa
 2177 01bb 00        		.byte	0x0
 2178 01bc 00        		.byte	0x0
 2179 01bd 20        		.uleb128 0x20
 2180 01be 34        		.uleb128 0x34
 2181 01bf 00        		.byte	0x0
 2182 01c0 03        		.uleb128 0x3
 2183 01c1 0E        		.uleb128 0xe
 2184 01c2 3A        		.uleb128 0x3a
 2185 01c3 0B        		.uleb128 0xb
 2186 01c4 3B        		.uleb128 0x3b
 2187 01c5 0B        		.uleb128 0xb
 2188 01c6 49        		.uleb128 0x49
 2189 01c7 13        		.uleb128 0x13
 2190 01c8 02        		.uleb128 0x2
 2191 01c9 06        		.uleb128 0x6
 2192 01ca 00        		.byte	0x0
 2193 01cb 00        		.byte	0x0
 2194 01cc 21        		.uleb128 0x21
 2195 01cd 34        		.uleb128 0x34
 2196 01ce 00        		.byte	0x0
 2197 01cf 03        		.uleb128 0x3
 2198 01d0 0E        		.uleb128 0xe
 2199 01d1 3A        		.uleb128 0x3a
 2200 01d2 0B        		.uleb128 0xb
 2201 01d3 3B        		.uleb128 0x3b
 2202 01d4 0B        		.uleb128 0xb
 2203 01d5 49        		.uleb128 0x49
 2204 01d6 13        		.uleb128 0x13
 2205 01d7 1C        		.uleb128 0x1c
 2206 01d8 0B        		.uleb128 0xb
 2207 01d9 00        		.byte	0x0
 2208 01da 00        		.byte	0x0
 2209 01db 00        		.byte	0x0
 2210               		.section	.debug_pubnames,"",@progbits
 2211 0000 0201 0000 		.long	0x102
 2212 0004 0200      		.word	0x2
 2213 0006 0000 0000 		.long	.Ldebug_info0
 2214 000a 7B04 0000 		.long	0x47b
 2215 000e 4201 0000 		.long	0x142
 2216 0012 7365 744C 		.string	"setLEDState"
 2216      4544 5374 
 2216      6174 6500 
 2217 001e 6801 0000 		.long	0x168
 2218 0022 6765 744C 		.string	"getLEDState"
 2218      4544 5374 
 2218      6174 6500 
 2219 002e 7801 0000 		.long	0x178
GAS LISTING C:\Users\ADMINI~1\AppData\Local\Temp/ccw52Fe5.s 			page 40


 2220 0032 636C 6561 		.string	"clearLEDInited"
 2220      724C 4544 
 2220      496E 6974 
 2220      6564 00
 2221 0041 8C01 0000 		.long	0x18c
 2222 0045 7365 744C 		.string	"setLEDIndicate"
 2222      4544 496E 
 2222      6469 6361 
 2222      7465 00
 2223 0054 B601 0000 		.long	0x1b6
 2224 0058 6170 706C 		.string	"applyKeyDownForFullLED"
 2224      794B 6579 
 2224      446F 776E 
 2224      466F 7246 
 2224      756C 6C4C 
 2225 006f 0002 0000 		.long	0x200
 2226 0073 736C 6565 		.string	"sleepLED"
 2226      704C 4544 
 2226      00
 2227 007c 1502 0000 		.long	0x215
 2228 0080 646F 536C 		.string	"doSleep"
 2228      6565 7000 
 2229 0088 3302 0000 		.long	0x233
 2230 008c 7265 6E64 		.string	"renderLED"
 2230      6572 4C45 
 2230      4400 
 2231 0096 DE02 0000 		.long	0x2de
 2232 009a 7761 6B65 		.string	"wakeUpLED"
 2232      5570 4C45 
 2232      4400 
 2233 00a4 F302 0000 		.long	0x2f3
 2234 00a8 6368 616E 		.string	"changeFullLedState"
 2234      6765 4675 
 2234      6C6C 4C65 
 2234      6453 7461 
 2234      7465 00
 2235 00bb 0703 0000 		.long	0x307
 2236 00bf 7265 6475 		.string	"reduceLedBrightness"
 2236      6365 4C65 
 2236      6442 7269 
 2236      6768 746E 
 2236      6573 7300 
 2237 00d3 1B03 0000 		.long	0x31b
 2238 00d7 696E 6372 		.string	"increaseLedBrightness"
 2238      6561 7365 
 2238      4C65 6442 
 2238      7269 6768 
 2238      746E 6573 
 2239 00ed 4303 0000 		.long	0x343
 2240 00f1 696E 6974 		.string	"initFullLEDState"
 2240      4675 6C6C 
 2240      4C45 4453 
 2240      7461 7465 
 2240      00
 2241 0102 0000 0000 		.long	0x0
 2242               		.section	.debug_aranges,"",@progbits
 2243 0000 1C00 0000 		.long	0x1c
GAS LISTING C:\Users\ADMINI~1\AppData\Local\Temp/ccw52Fe5.s 			page 41


 2244 0004 0200      		.word	0x2
 2245 0006 0000 0000 		.long	.Ldebug_info0
 2246 000a 04        		.byte	0x4
 2247 000b 00        		.byte	0x0
 2248 000c 0000      		.word	0x0
 2249 000e 0000      		.word	0x0
 2250 0010 0000 0000 		.long	.Ltext0
 2251 0014 D205 0000 		.long	.Letext0-.Ltext0
 2252 0018 0000 0000 		.long	0x0
 2253 001c 0000 0000 		.long	0x0
 2254               		.section	.debug_ranges,"",@progbits
 2255               	.Ldebug_ranges0:
 2256 0000 AC01 0000 		.long	.LBB29-.Ltext0
 2257 0004 E001 0000 		.long	.LBE29-.Ltext0
 2258 0008 EC01 0000 		.long	.LBB30-.Ltext0
 2259 000c 2E02 0000 		.long	.LBE30-.Ltext0
 2260 0010 0000 0000 		.long	0x0
 2261 0014 0000 0000 		.long	0x0
 2262               		.section	.debug_line
 2263 0000 4B06 0000 		.long	.LELT0-.LSLT0
 2264               	.LSLT0:
 2265 0004 0200      		.word	0x2
 2266 0006 5800 0000 		.long	.LELTP0-.LASLTP0
 2267               	.LASLTP0:
 2268 000a 01        		.byte	0x1
 2269 000b 01        		.byte	0x1
 2270 000c F6        		.byte	0xf6
 2271 000d F5        		.byte	0xf5
 2272 000e 0A        		.byte	0xa
 2273 000f 00        		.byte	0x0
 2274 0010 01        		.byte	0x1
 2275 0011 01        		.byte	0x1
 2276 0012 01        		.byte	0x1
 2277 0013 01        		.byte	0x1
 2278 0014 00        		.byte	0x0
 2279 0015 00        		.byte	0x0
 2280 0016 00        		.byte	0x0
 2281 0017 01        		.byte	0x1
 2282 0018 633A 2F77 		.ascii	"c:/winavr-20100110/lib/gcc/../../avr/include"
 2282      696E 6176 
 2282      722D 3230 
 2282      3130 3031 
 2282      3130 2F6C 
 2283 0044 00        		.byte	0
 2284 0045 00        		.byte	0x0
 2285 0046 6C65 6472 		.string	"ledrender.c"
 2285      656E 6465 
 2285      722E 6300 
 2286 0052 00        		.uleb128 0x0
 2287 0053 00        		.uleb128 0x0
 2288 0054 00        		.uleb128 0x0
 2289 0055 7374 6469 		.string	"stdint.h"
 2289      6E74 2E68 
 2289      00
 2290 005e 01        		.uleb128 0x1
 2291 005f 00        		.uleb128 0x0
 2292 0060 00        		.uleb128 0x0
GAS LISTING C:\Users\ADMINI~1\AppData\Local\Temp/ccw52Fe5.s 			page 42


 2293 0061 00        		.byte	0x0
 2294               	.LELTP0:
 2295 0062 00        		.byte	0x0
 2296 0063 05        		.uleb128 0x5
 2297 0064 02        		.byte	0x2
 2298 0065 0000 0000 		.long	.LM1
 2299 0069 3F        		.byte	0x3f
 2300 006a 00        		.byte	0x0
 2301 006b 05        		.uleb128 0x5
 2302 006c 02        		.byte	0x2
 2303 006d 0000 0000 		.long	.LM2
 2304 0071 15        		.byte	0x15
 2305 0072 00        		.byte	0x0
 2306 0073 05        		.uleb128 0x5
 2307 0074 02        		.byte	0x2
 2308 0075 0000 0000 		.long	.LM3
 2309 0079 15        		.byte	0x15
 2310 007a 00        		.byte	0x0
 2311 007b 05        		.uleb128 0x5
 2312 007c 02        		.byte	0x2
 2313 007d 0000 0000 		.long	.LM4
 2314 0081 15        		.byte	0x15
 2315 0082 00        		.byte	0x0
 2316 0083 05        		.uleb128 0x5
 2317 0084 02        		.byte	0x2
 2318 0085 0000 0000 		.long	.LM5
 2319 0089 16        		.byte	0x16
 2320 008a 00        		.byte	0x0
 2321 008b 05        		.uleb128 0x5
 2322 008c 02        		.byte	0x2
 2323 008d 0000 0000 		.long	.LM6
 2324 0091 4F        		.byte	0x4f
 2325 0092 00        		.byte	0x0
 2326 0093 05        		.uleb128 0x5
 2327 0094 02        		.byte	0x2
 2328 0095 0000 0000 		.long	.LM7
 2329 0099 15        		.byte	0x15
 2330 009a 00        		.byte	0x0
 2331 009b 05        		.uleb128 0x5
 2332 009c 02        		.byte	0x2
 2333 009d 0000 0000 		.long	.LM8
 2334 00a1 15        		.byte	0x15
 2335 00a2 00        		.byte	0x0
 2336 00a3 05        		.uleb128 0x5
 2337 00a4 02        		.byte	0x2
 2338 00a5 0000 0000 		.long	.LM9
 2339 00a9 37        		.byte	0x37
 2340 00aa 00        		.byte	0x0
 2341 00ab 05        		.uleb128 0x5
 2342 00ac 02        		.byte	0x2
 2343 00ad 0000 0000 		.long	.LM10
 2344 00b1 15        		.byte	0x15
 2345 00b2 00        		.byte	0x0
 2346 00b3 05        		.uleb128 0x5
 2347 00b4 02        		.byte	0x2
 2348 00b5 0000 0000 		.long	.LM11
 2349 00b9 15        		.byte	0x15
GAS LISTING C:\Users\ADMINI~1\AppData\Local\Temp/ccw52Fe5.s 			page 43


 2350 00ba 00        		.byte	0x0
 2351 00bb 05        		.uleb128 0x5
 2352 00bc 02        		.byte	0x2
 2353 00bd 0000 0000 		.long	.LM12
 2354 00c1 16        		.byte	0x16
 2355 00c2 00        		.byte	0x0
 2356 00c3 05        		.uleb128 0x5
 2357 00c4 02        		.byte	0x2
 2358 00c5 0000 0000 		.long	.LM13
 2359 00c9 16        		.byte	0x16
 2360 00ca 00        		.byte	0x0
 2361 00cb 05        		.uleb128 0x5
 2362 00cc 02        		.byte	0x2
 2363 00cd 0000 0000 		.long	.LM14
 2364 00d1 15        		.byte	0x15
 2365 00d2 00        		.byte	0x0
 2366 00d3 05        		.uleb128 0x5
 2367 00d4 02        		.byte	0x2
 2368 00d5 0000 0000 		.long	.LM15
 2369 00d9 16        		.byte	0x16
 2370 00da 00        		.byte	0x0
 2371 00db 05        		.uleb128 0x5
 2372 00dc 02        		.byte	0x2
 2373 00dd 0000 0000 		.long	.LM16
 2374 00e1 18        		.byte	0x18
 2375 00e2 00        		.byte	0x0
 2376 00e3 05        		.uleb128 0x5
 2377 00e4 02        		.byte	0x2
 2378 00e5 0000 0000 		.long	.LM17
 2379 00e9 15        		.byte	0x15
 2380 00ea 00        		.byte	0x0
 2381 00eb 05        		.uleb128 0x5
 2382 00ec 02        		.byte	0x2
 2383 00ed 0000 0000 		.long	.LM18
 2384 00f1 1B        		.byte	0x1b
 2385 00f2 00        		.byte	0x0
 2386 00f3 05        		.uleb128 0x5
 2387 00f4 02        		.byte	0x2
 2388 00f5 0000 0000 		.long	.LM19
 2389 00f9 0F        		.byte	0xf
 2390 00fa 00        		.byte	0x0
 2391 00fb 05        		.uleb128 0x5
 2392 00fc 02        		.byte	0x2
 2393 00fd 0000 0000 		.long	.LM20
 2394 0101 24        		.byte	0x24
 2395 0102 00        		.byte	0x0
 2396 0103 05        		.uleb128 0x5
 2397 0104 02        		.byte	0x2
 2398 0105 0000 0000 		.long	.LM21
 2399 0109 0B        		.byte	0xb
 2400 010a 00        		.byte	0x0
 2401 010b 05        		.uleb128 0x5
 2402 010c 02        		.byte	0x2
 2403 010d 0000 0000 		.long	.LM22
 2404 0111 17        		.byte	0x17
 2405 0112 00        		.byte	0x0
 2406 0113 05        		.uleb128 0x5
GAS LISTING C:\Users\ADMINI~1\AppData\Local\Temp/ccw52Fe5.s 			page 44


 2407 0114 02        		.byte	0x2
 2408 0115 0000 0000 		.long	.LM23
 2409 0119 15        		.byte	0x15
 2410 011a 00        		.byte	0x0
 2411 011b 05        		.uleb128 0x5
 2412 011c 02        		.byte	0x2
 2413 011d 0000 0000 		.long	.LM24
 2414 0121 16        		.byte	0x16
 2415 0122 00        		.byte	0x0
 2416 0123 05        		.uleb128 0x5
 2417 0124 02        		.byte	0x2
 2418 0125 0000 0000 		.long	.LM25
 2419 0129 19        		.byte	0x19
 2420 012a 00        		.byte	0x0
 2421 012b 05        		.uleb128 0x5
 2422 012c 02        		.byte	0x2
 2423 012d 0000 0000 		.long	.LM26
 2424 0131 15        		.byte	0x15
 2425 0132 00        		.byte	0x0
 2426 0133 05        		.uleb128 0x5
 2427 0134 02        		.byte	0x2
 2428 0135 0000 0000 		.long	.LM27
 2429 0139 15        		.byte	0x15
 2430 013a 00        		.byte	0x0
 2431 013b 05        		.uleb128 0x5
 2432 013c 02        		.byte	0x2
 2433 013d 0000 0000 		.long	.LM28
 2434 0141 16        		.byte	0x16
 2435 0142 00        		.byte	0x0
 2436 0143 05        		.uleb128 0x5
 2437 0144 02        		.byte	0x2
 2438 0145 0000 0000 		.long	.LM29
 2439 0149 1B        		.byte	0x1b
 2440 014a 00        		.byte	0x0
 2441 014b 05        		.uleb128 0x5
 2442 014c 02        		.byte	0x2
 2443 014d 0000 0000 		.long	.LM30
 2444 0151 15        		.byte	0x15
 2445 0152 00        		.byte	0x0
 2446 0153 05        		.uleb128 0x5
 2447 0154 02        		.byte	0x2
 2448 0155 0000 0000 		.long	.LM31
 2449 0159 16        		.byte	0x16
 2450 015a 00        		.byte	0x0
 2451 015b 05        		.uleb128 0x5
 2452 015c 02        		.byte	0x2
 2453 015d 0000 0000 		.long	.LM32
 2454 0161 15        		.byte	0x15
 2455 0162 00        		.byte	0x0
 2456 0163 05        		.uleb128 0x5
 2457 0164 02        		.byte	0x2
 2458 0165 0000 0000 		.long	.LM33
 2459 0169 15        		.byte	0x15
 2460 016a 00        		.byte	0x0
 2461 016b 05        		.uleb128 0x5
 2462 016c 02        		.byte	0x2
 2463 016d 0000 0000 		.long	.LM34
GAS LISTING C:\Users\ADMINI~1\AppData\Local\Temp/ccw52Fe5.s 			page 45


 2464 0171 15        		.byte	0x15
 2465 0172 00        		.byte	0x0
 2466 0173 05        		.uleb128 0x5
 2467 0174 02        		.byte	0x2
 2468 0175 0000 0000 		.long	.LM35
 2469 0179 17        		.byte	0x17
 2470 017a 00        		.byte	0x0
 2471 017b 05        		.uleb128 0x5
 2472 017c 02        		.byte	0x2
 2473 017d 0000 0000 		.long	.LM36
 2474 0181 16        		.byte	0x16
 2475 0182 00        		.byte	0x0
 2476 0183 05        		.uleb128 0x5
 2477 0184 02        		.byte	0x2
 2478 0185 0000 0000 		.long	.LM37
 2479 0189 15        		.byte	0x15
 2480 018a 00        		.byte	0x0
 2481 018b 05        		.uleb128 0x5
 2482 018c 02        		.byte	0x2
 2483 018d 0000 0000 		.long	.LM38
 2484 0191 15        		.byte	0x15
 2485 0192 00        		.byte	0x0
 2486 0193 05        		.uleb128 0x5
 2487 0194 02        		.byte	0x2
 2488 0195 0000 0000 		.long	.LM39
 2489 0199 15        		.byte	0x15
 2490 019a 00        		.byte	0x0
 2491 019b 05        		.uleb128 0x5
 2492 019c 02        		.byte	0x2
 2493 019d 0000 0000 		.long	.LM40
 2494 01a1 2D        		.byte	0x2d
 2495 01a2 00        		.byte	0x0
 2496 01a3 05        		.uleb128 0x5
 2497 01a4 02        		.byte	0x2
 2498 01a5 0000 0000 		.long	.LM41
 2499 01a9 01        		.byte	0x1
 2500 01aa 00        		.byte	0x0
 2501 01ab 05        		.uleb128 0x5
 2502 01ac 02        		.byte	0x2
 2503 01ad 0000 0000 		.long	.LM42
 2504 01b1 18        		.byte	0x18
 2505 01b2 00        		.byte	0x0
 2506 01b3 05        		.uleb128 0x5
 2507 01b4 02        		.byte	0x2
 2508 01b5 0000 0000 		.long	.LM43
 2509 01b9 A4        		.byte	0xa4
 2510 01ba 00        		.byte	0x0
 2511 01bb 05        		.uleb128 0x5
 2512 01bc 02        		.byte	0x2
 2513 01bd 0000 0000 		.long	.LM44
 2514 01c1 16        		.byte	0x16
 2515 01c2 00        		.byte	0x0
 2516 01c3 05        		.uleb128 0x5
 2517 01c4 02        		.byte	0x2
 2518 01c5 0000 0000 		.long	.LM45
 2519 01c9 15        		.byte	0x15
 2520 01ca 00        		.byte	0x0
GAS LISTING C:\Users\ADMINI~1\AppData\Local\Temp/ccw52Fe5.s 			page 46


 2521 01cb 05        		.uleb128 0x5
 2522 01cc 02        		.byte	0x2
 2523 01cd 0000 0000 		.long	.LM46
 2524 01d1 15        		.byte	0x15
 2525 01d2 00        		.byte	0x0
 2526 01d3 05        		.uleb128 0x5
 2527 01d4 02        		.byte	0x2
 2528 01d5 0000 0000 		.long	.LM47
 2529 01d9 16        		.byte	0x16
 2530 01da 00        		.byte	0x0
 2531 01db 05        		.uleb128 0x5
 2532 01dc 02        		.byte	0x2
 2533 01dd 0000 0000 		.long	.LM48
 2534 01e1 16        		.byte	0x16
 2535 01e2 00        		.byte	0x0
 2536 01e3 05        		.uleb128 0x5
 2537 01e4 02        		.byte	0x2
 2538 01e5 0000 0000 		.long	.LM49
 2539 01e9 16        		.byte	0x16
 2540 01ea 00        		.byte	0x0
 2541 01eb 05        		.uleb128 0x5
 2542 01ec 02        		.byte	0x2
 2543 01ed 0000 0000 		.long	.LM50
 2544 01f1 17        		.byte	0x17
 2545 01f2 00        		.byte	0x0
 2546 01f3 05        		.uleb128 0x5
 2547 01f4 02        		.byte	0x2
 2548 01f5 0000 0000 		.long	.LM51
 2549 01f9 1E        		.byte	0x1e
 2550 01fa 00        		.byte	0x0
 2551 01fb 05        		.uleb128 0x5
 2552 01fc 02        		.byte	0x2
 2553 01fd 0000 0000 		.long	.LM52
 2554 0201 15        		.byte	0x15
 2555 0202 00        		.byte	0x0
 2556 0203 05        		.uleb128 0x5
 2557 0204 02        		.byte	0x2
 2558 0205 0000 0000 		.long	.LM53
 2559 0209 16        		.byte	0x16
 2560 020a 00        		.byte	0x0
 2561 020b 05        		.uleb128 0x5
 2562 020c 02        		.byte	0x2
 2563 020d 0000 0000 		.long	.LM54
 2564 0211 15        		.byte	0x15
 2565 0212 00        		.byte	0x0
 2566 0213 05        		.uleb128 0x5
 2567 0214 02        		.byte	0x2
 2568 0215 0000 0000 		.long	.LM55
 2569 0219 15        		.byte	0x15
 2570 021a 00        		.byte	0x0
 2571 021b 05        		.uleb128 0x5
 2572 021c 02        		.byte	0x2
 2573 021d 0000 0000 		.long	.LM56
 2574 0221 15        		.byte	0x15
 2575 0222 00        		.byte	0x0
 2576 0223 05        		.uleb128 0x5
 2577 0224 02        		.byte	0x2
GAS LISTING C:\Users\ADMINI~1\AppData\Local\Temp/ccw52Fe5.s 			page 47


 2578 0225 0000 0000 		.long	.LM57
 2579 0229 15        		.byte	0x15
 2580 022a 00        		.byte	0x0
 2581 022b 05        		.uleb128 0x5
 2582 022c 02        		.byte	0x2
 2583 022d 0000 0000 		.long	.LM58
 2584 0231 16        		.byte	0x16
 2585 0232 00        		.byte	0x0
 2586 0233 05        		.uleb128 0x5
 2587 0234 02        		.byte	0x2
 2588 0235 0000 0000 		.long	.LM59
 2589 0239 17        		.byte	0x17
 2590 023a 00        		.byte	0x0
 2591 023b 05        		.uleb128 0x5
 2592 023c 02        		.byte	0x2
 2593 023d 0000 0000 		.long	.LM60
 2594 0241 15        		.byte	0x15
 2595 0242 00        		.byte	0x0
 2596 0243 05        		.uleb128 0x5
 2597 0244 02        		.byte	0x2
 2598 0245 0000 0000 		.long	.LM61
 2599 0249 15        		.byte	0x15
 2600 024a 00        		.byte	0x0
 2601 024b 05        		.uleb128 0x5
 2602 024c 02        		.byte	0x2
 2603 024d 0000 0000 		.long	.LM62
 2604 0251 15        		.byte	0x15
 2605 0252 00        		.byte	0x0
 2606 0253 05        		.uleb128 0x5
 2607 0254 02        		.byte	0x2
 2608 0255 0000 0000 		.long	.LM63
 2609 0259 03        		.byte	0x3
 2610 025a A07F      		.sleb128 -96
 2611 025c 01        		.byte	0x1
 2612 025d 00        		.byte	0x0
 2613 025e 05        		.uleb128 0x5
 2614 025f 02        		.byte	0x2
 2615 0260 0000 0000 		.long	.LM64
 2616 0264 15        		.byte	0x15
 2617 0265 00        		.byte	0x0
 2618 0266 05        		.uleb128 0x5
 2619 0267 02        		.byte	0x2
 2620 0268 0000 0000 		.long	.LM65
 2621 026c 15        		.byte	0x15
 2622 026d 00        		.byte	0x0
 2623 026e 05        		.uleb128 0x5
 2624 026f 02        		.byte	0x2
 2625 0270 0000 0000 		.long	.LM66
 2626 0274 15        		.byte	0x15
 2627 0275 00        		.byte	0x0
 2628 0276 05        		.uleb128 0x5
 2629 0277 02        		.byte	0x2
 2630 0278 0000 0000 		.long	.LM67
 2631 027c 15        		.byte	0x15
 2632 027d 00        		.byte	0x0
 2633 027e 05        		.uleb128 0x5
 2634 027f 02        		.byte	0x2
GAS LISTING C:\Users\ADMINI~1\AppData\Local\Temp/ccw52Fe5.s 			page 48


 2635 0280 0000 0000 		.long	.LM68
 2636 0284 15        		.byte	0x15
 2637 0285 00        		.byte	0x0
 2638 0286 05        		.uleb128 0x5
 2639 0287 02        		.byte	0x2
 2640 0288 0000 0000 		.long	.LM69
 2641 028c 15        		.byte	0x15
 2642 028d 00        		.byte	0x0
 2643 028e 05        		.uleb128 0x5
 2644 028f 02        		.byte	0x2
 2645 0290 0000 0000 		.long	.LM70
 2646 0294 15        		.byte	0x15
 2647 0295 00        		.byte	0x0
 2648 0296 05        		.uleb128 0x5
 2649 0297 02        		.byte	0x2
 2650 0298 0000 0000 		.long	.LM71
 2651 029c 16        		.byte	0x16
 2652 029d 00        		.byte	0x0
 2653 029e 05        		.uleb128 0x5
 2654 029f 02        		.byte	0x2
 2655 02a0 0000 0000 		.long	.LM72
 2656 02a4 18        		.byte	0x18
 2657 02a5 00        		.byte	0x0
 2658 02a6 05        		.uleb128 0x5
 2659 02a7 02        		.byte	0x2
 2660 02a8 0000 0000 		.long	.LM73
 2661 02ac 15        		.byte	0x15
 2662 02ad 00        		.byte	0x0
 2663 02ae 05        		.uleb128 0x5
 2664 02af 02        		.byte	0x2
 2665 02b0 0000 0000 		.long	.LM74
 2666 02b4 16        		.byte	0x16
 2667 02b5 00        		.byte	0x0
 2668 02b6 05        		.uleb128 0x5
 2669 02b7 02        		.byte	0x2
 2670 02b8 0000 0000 		.long	.LM75
 2671 02bc 15        		.byte	0x15
 2672 02bd 00        		.byte	0x0
 2673 02be 05        		.uleb128 0x5
 2674 02bf 02        		.byte	0x2
 2675 02c0 0000 0000 		.long	.LM76
 2676 02c4 17        		.byte	0x17
 2677 02c5 00        		.byte	0x0
 2678 02c6 05        		.uleb128 0x5
 2679 02c7 02        		.byte	0x2
 2680 02c8 0000 0000 		.long	.LM77
 2681 02cc 15        		.byte	0x15
 2682 02cd 00        		.byte	0x0
 2683 02ce 05        		.uleb128 0x5
 2684 02cf 02        		.byte	0x2
 2685 02d0 0000 0000 		.long	.LM78
 2686 02d4 18        		.byte	0x18
 2687 02d5 00        		.byte	0x0
 2688 02d6 05        		.uleb128 0x5
 2689 02d7 02        		.byte	0x2
 2690 02d8 0000 0000 		.long	.LM79
 2691 02dc 15        		.byte	0x15
GAS LISTING C:\Users\ADMINI~1\AppData\Local\Temp/ccw52Fe5.s 			page 49


 2692 02dd 00        		.byte	0x0
 2693 02de 05        		.uleb128 0x5
 2694 02df 02        		.byte	0x2
 2695 02e0 0000 0000 		.long	.LM80
 2696 02e4 1E        		.byte	0x1e
 2697 02e5 00        		.byte	0x0
 2698 02e6 05        		.uleb128 0x5
 2699 02e7 02        		.byte	0x2
 2700 02e8 0000 0000 		.long	.LM81
 2701 02ec 15        		.byte	0x15
 2702 02ed 00        		.byte	0x0
 2703 02ee 05        		.uleb128 0x5
 2704 02ef 02        		.byte	0x2
 2705 02f0 0000 0000 		.long	.LM82
 2706 02f4 15        		.byte	0x15
 2707 02f5 00        		.byte	0x0
 2708 02f6 05        		.uleb128 0x5
 2709 02f7 02        		.byte	0x2
 2710 02f8 0000 0000 		.long	.LM83
 2711 02fc 15        		.byte	0x15
 2712 02fd 00        		.byte	0x0
 2713 02fe 05        		.uleb128 0x5
 2714 02ff 02        		.byte	0x2
 2715 0300 0000 0000 		.long	.LM84
 2716 0304 16        		.byte	0x16
 2717 0305 00        		.byte	0x0
 2718 0306 05        		.uleb128 0x5
 2719 0307 02        		.byte	0x2
 2720 0308 0000 0000 		.long	.LM85
 2721 030c 15        		.byte	0x15
 2722 030d 00        		.byte	0x0
 2723 030e 05        		.uleb128 0x5
 2724 030f 02        		.byte	0x2
 2725 0310 0000 0000 		.long	.LM86
 2726 0314 17        		.byte	0x17
 2727 0315 00        		.byte	0x0
 2728 0316 05        		.uleb128 0x5
 2729 0317 02        		.byte	0x2
 2730 0318 0000 0000 		.long	.LM87
 2731 031c 15        		.byte	0x15
 2732 031d 00        		.byte	0x0
 2733 031e 05        		.uleb128 0x5
 2734 031f 02        		.byte	0x2
 2735 0320 0000 0000 		.long	.LM88
 2736 0324 17        		.byte	0x17
 2737 0325 00        		.byte	0x0
 2738 0326 05        		.uleb128 0x5
 2739 0327 02        		.byte	0x2
 2740 0328 0000 0000 		.long	.LM89
 2741 032c 16        		.byte	0x16
 2742 032d 00        		.byte	0x0
 2743 032e 05        		.uleb128 0x5
 2744 032f 02        		.byte	0x2
 2745 0330 0000 0000 		.long	.LM90
 2746 0334 17        		.byte	0x17
 2747 0335 00        		.byte	0x0
 2748 0336 05        		.uleb128 0x5
GAS LISTING C:\Users\ADMINI~1\AppData\Local\Temp/ccw52Fe5.s 			page 50


 2749 0337 02        		.byte	0x2
 2750 0338 0000 0000 		.long	.LM91
 2751 033c 03        		.byte	0x3
 2752 033d E07E      		.sleb128 -160
 2753 033f 01        		.byte	0x1
 2754 0340 00        		.byte	0x0
 2755 0341 05        		.uleb128 0x5
 2756 0342 02        		.byte	0x2
 2757 0343 0000 0000 		.long	.LM92
 2758 0347 15        		.byte	0x15
 2759 0348 00        		.byte	0x0
 2760 0349 05        		.uleb128 0x5
 2761 034a 02        		.byte	0x2
 2762 034b 0000 0000 		.long	.LM93
 2763 034f 15        		.byte	0x15
 2764 0350 00        		.byte	0x0
 2765 0351 05        		.uleb128 0x5
 2766 0352 02        		.byte	0x2
 2767 0353 0000 0000 		.long	.LM94
 2768 0357 15        		.byte	0x15
 2769 0358 00        		.byte	0x0
 2770 0359 05        		.uleb128 0x5
 2771 035a 02        		.byte	0x2
 2772 035b 0000 0000 		.long	.LM95
 2773 035f 19        		.byte	0x19
 2774 0360 00        		.byte	0x0
 2775 0361 05        		.uleb128 0x5
 2776 0362 02        		.byte	0x2
 2777 0363 0000 0000 		.long	.LM96
 2778 0367 15        		.byte	0x15
 2779 0368 00        		.byte	0x0
 2780 0369 05        		.uleb128 0x5
 2781 036a 02        		.byte	0x2
 2782 036b 0000 0000 		.long	.LM97
 2783 036f 15        		.byte	0x15
 2784 0370 00        		.byte	0x0
 2785 0371 05        		.uleb128 0x5
 2786 0372 02        		.byte	0x2
 2787 0373 0000 0000 		.long	.LM98
 2788 0377 23        		.byte	0x23
 2789 0378 00        		.byte	0x0
 2790 0379 05        		.uleb128 0x5
 2791 037a 02        		.byte	0x2
 2792 037b 0000 0000 		.long	.LM99
 2793 037f 16        		.byte	0x16
 2794 0380 00        		.byte	0x0
 2795 0381 05        		.uleb128 0x5
 2796 0382 02        		.byte	0x2
 2797 0383 0000 0000 		.long	.LM100
 2798 0387 15        		.byte	0x15
 2799 0388 00        		.byte	0x0
 2800 0389 05        		.uleb128 0x5
 2801 038a 02        		.byte	0x2
 2802 038b 0000 0000 		.long	.LM101
 2803 038f 15        		.byte	0x15
 2804 0390 00        		.byte	0x0
 2805 0391 05        		.uleb128 0x5
GAS LISTING C:\Users\ADMINI~1\AppData\Local\Temp/ccw52Fe5.s 			page 51


 2806 0392 02        		.byte	0x2
 2807 0393 0000 0000 		.long	.LM102
 2808 0397 15        		.byte	0x15
 2809 0398 00        		.byte	0x0
 2810 0399 05        		.uleb128 0x5
 2811 039a 02        		.byte	0x2
 2812 039b 0000 0000 		.long	.LM103
 2813 039f 15        		.byte	0x15
 2814 03a0 00        		.byte	0x0
 2815 03a1 05        		.uleb128 0x5
 2816 03a2 02        		.byte	0x2
 2817 03a3 0000 0000 		.long	.LM104
 2818 03a7 15        		.byte	0x15
 2819 03a8 00        		.byte	0x0
 2820 03a9 05        		.uleb128 0x5
 2821 03aa 02        		.byte	0x2
 2822 03ab 0000 0000 		.long	.LM105
 2823 03af 17        		.byte	0x17
 2824 03b0 00        		.byte	0x0
 2825 03b1 05        		.uleb128 0x5
 2826 03b2 02        		.byte	0x2
 2827 03b3 0000 0000 		.long	.LM106
 2828 03b7 15        		.byte	0x15
 2829 03b8 00        		.byte	0x0
 2830 03b9 05        		.uleb128 0x5
 2831 03ba 02        		.byte	0x2
 2832 03bb 0000 0000 		.long	.LM107
 2833 03bf 15        		.byte	0x15
 2834 03c0 00        		.byte	0x0
 2835 03c1 05        		.uleb128 0x5
 2836 03c2 02        		.byte	0x2
 2837 03c3 0000 0000 		.long	.LM108
 2838 03c7 16        		.byte	0x16
 2839 03c8 00        		.byte	0x0
 2840 03c9 05        		.uleb128 0x5
 2841 03ca 02        		.byte	0x2
 2842 03cb 0000 0000 		.long	.LM109
 2843 03cf 1D        		.byte	0x1d
 2844 03d0 00        		.byte	0x0
 2845 03d1 05        		.uleb128 0x5
 2846 03d2 02        		.byte	0x2
 2847 03d3 0000 0000 		.long	.LM110
 2848 03d7 17        		.byte	0x17
 2849 03d8 00        		.byte	0x0
 2850 03d9 05        		.uleb128 0x5
 2851 03da 02        		.byte	0x2
 2852 03db 0000 0000 		.long	.LM111
 2853 03df 15        		.byte	0x15
 2854 03e0 00        		.byte	0x0
 2855 03e1 05        		.uleb128 0x5
 2856 03e2 02        		.byte	0x2
 2857 03e3 0000 0000 		.long	.LM112
 2858 03e7 17        		.byte	0x17
 2859 03e8 00        		.byte	0x0
 2860 03e9 05        		.uleb128 0x5
 2861 03ea 02        		.byte	0x2
 2862 03eb 0000 0000 		.long	.LM113
GAS LISTING C:\Users\ADMINI~1\AppData\Local\Temp/ccw52Fe5.s 			page 52


 2863 03ef 15        		.byte	0x15
 2864 03f0 00        		.byte	0x0
 2865 03f1 05        		.uleb128 0x5
 2866 03f2 02        		.byte	0x2
 2867 03f3 0000 0000 		.long	.LM114
 2868 03f7 15        		.byte	0x15
 2869 03f8 00        		.byte	0x0
 2870 03f9 05        		.uleb128 0x5
 2871 03fa 02        		.byte	0x2
 2872 03fb 0000 0000 		.long	.LM115
 2873 03ff 15        		.byte	0x15
 2874 0400 00        		.byte	0x0
 2875 0401 05        		.uleb128 0x5
 2876 0402 02        		.byte	0x2
 2877 0403 0000 0000 		.long	.LM116
 2878 0407 15        		.byte	0x15
 2879 0408 00        		.byte	0x0
 2880 0409 05        		.uleb128 0x5
 2881 040a 02        		.byte	0x2
 2882 040b 0000 0000 		.long	.LM117
 2883 040f 15        		.byte	0x15
 2884 0410 00        		.byte	0x0
 2885 0411 05        		.uleb128 0x5
 2886 0412 02        		.byte	0x2
 2887 0413 0000 0000 		.long	.LM118
 2888 0417 17        		.byte	0x17
 2889 0418 00        		.byte	0x0
 2890 0419 05        		.uleb128 0x5
 2891 041a 02        		.byte	0x2
 2892 041b 0000 0000 		.long	.LM119
 2893 041f 15        		.byte	0x15
 2894 0420 00        		.byte	0x0
 2895 0421 05        		.uleb128 0x5
 2896 0422 02        		.byte	0x2
 2897 0423 0000 0000 		.long	.LM120
 2898 0427 17        		.byte	0x17
 2899 0428 00        		.byte	0x0
 2900 0429 05        		.uleb128 0x5
 2901 042a 02        		.byte	0x2
 2902 042b 0000 0000 		.long	.LM121
 2903 042f 16        		.byte	0x16
 2904 0430 00        		.byte	0x0
 2905 0431 05        		.uleb128 0x5
 2906 0432 02        		.byte	0x2
 2907 0433 0000 0000 		.long	.LM122
 2908 0437 16        		.byte	0x16
 2909 0438 00        		.byte	0x0
 2910 0439 05        		.uleb128 0x5
 2911 043a 02        		.byte	0x2
 2912 043b 0000 0000 		.long	.LM123
 2913 043f 15        		.byte	0x15
 2914 0440 00        		.byte	0x0
 2915 0441 05        		.uleb128 0x5
 2916 0442 02        		.byte	0x2
 2917 0443 0000 0000 		.long	.LM124
 2918 0447 17        		.byte	0x17
 2919 0448 00        		.byte	0x0
GAS LISTING C:\Users\ADMINI~1\AppData\Local\Temp/ccw52Fe5.s 			page 53


 2920 0449 05        		.uleb128 0x5
 2921 044a 02        		.byte	0x2
 2922 044b 0000 0000 		.long	.LM125
 2923 044f 15        		.byte	0x15
 2924 0450 00        		.byte	0x0
 2925 0451 05        		.uleb128 0x5
 2926 0452 02        		.byte	0x2
 2927 0453 0000 0000 		.long	.LM126
 2928 0457 15        		.byte	0x15
 2929 0458 00        		.byte	0x0
 2930 0459 05        		.uleb128 0x5
 2931 045a 02        		.byte	0x2
 2932 045b 0000 0000 		.long	.LM127
 2933 045f 15        		.byte	0x15
 2934 0460 00        		.byte	0x0
 2935 0461 05        		.uleb128 0x5
 2936 0462 02        		.byte	0x2
 2937 0463 0000 0000 		.long	.LM128
 2938 0467 15        		.byte	0x15
 2939 0468 00        		.byte	0x0
 2940 0469 05        		.uleb128 0x5
 2941 046a 02        		.byte	0x2
 2942 046b 0000 0000 		.long	.LM129
 2943 046f 15        		.byte	0x15
 2944 0470 00        		.byte	0x0
 2945 0471 05        		.uleb128 0x5
 2946 0472 02        		.byte	0x2
 2947 0473 0000 0000 		.long	.LM130
 2948 0477 17        		.byte	0x17
 2949 0478 00        		.byte	0x0
 2950 0479 05        		.uleb128 0x5
 2951 047a 02        		.byte	0x2
 2952 047b 0000 0000 		.long	.LM131
 2953 047f 15        		.byte	0x15
 2954 0480 00        		.byte	0x0
 2955 0481 05        		.uleb128 0x5
 2956 0482 02        		.byte	0x2
 2957 0483 0000 0000 		.long	.LM132
 2958 0487 17        		.byte	0x17
 2959 0488 00        		.byte	0x0
 2960 0489 05        		.uleb128 0x5
 2961 048a 02        		.byte	0x2
 2962 048b 0000 0000 		.long	.LM133
 2963 048f 19        		.byte	0x19
 2964 0490 00        		.byte	0x0
 2965 0491 05        		.uleb128 0x5
 2966 0492 02        		.byte	0x2
 2967 0493 0000 0000 		.long	.LM134
 2968 0497 15        		.byte	0x15
 2969 0498 00        		.byte	0x0
 2970 0499 05        		.uleb128 0x5
 2971 049a 02        		.byte	0x2
 2972 049b 0000 0000 		.long	.LM135
 2973 049f 91        		.byte	0x91
 2974 04a0 00        		.byte	0x0
 2975 04a1 05        		.uleb128 0x5
 2976 04a2 02        		.byte	0x2
GAS LISTING C:\Users\ADMINI~1\AppData\Local\Temp/ccw52Fe5.s 			page 54


 2977 04a3 0000 0000 		.long	.LM136
 2978 04a7 03        		.byte	0x3
 2979 04a8 847D      		.sleb128 -380
 2980 04aa 01        		.byte	0x1
 2981 04ab 00        		.byte	0x0
 2982 04ac 05        		.uleb128 0x5
 2983 04ad 02        		.byte	0x2
 2984 04ae 0000 0000 		.long	.LM137
 2985 04b2 1C        		.byte	0x1c
 2986 04b3 00        		.byte	0x0
 2987 04b4 05        		.uleb128 0x5
 2988 04b5 02        		.byte	0x2
 2989 04b6 0000 0000 		.long	.LM138
 2990 04ba 15        		.byte	0x15
 2991 04bb 00        		.byte	0x0
 2992 04bc 05        		.uleb128 0x5
 2993 04bd 02        		.byte	0x2
 2994 04be 0000 0000 		.long	.LM139
 2995 04c2 15        		.byte	0x15
 2996 04c3 00        		.byte	0x0
 2997 04c4 05        		.uleb128 0x5
 2998 04c5 02        		.byte	0x2
 2999 04c6 0000 0000 		.long	.LM140
 3000 04ca 15        		.byte	0x15
 3001 04cb 00        		.byte	0x0
 3002 04cc 05        		.uleb128 0x5
 3003 04cd 02        		.byte	0x2
 3004 04ce 0000 0000 		.long	.LM141
 3005 04d2 15        		.byte	0x15
 3006 04d3 00        		.byte	0x0
 3007 04d4 05        		.uleb128 0x5
 3008 04d5 02        		.byte	0x2
 3009 04d6 0000 0000 		.long	.LM142
 3010 04da 16        		.byte	0x16
 3011 04db 00        		.byte	0x0
 3012 04dc 05        		.uleb128 0x5
 3013 04dd 02        		.byte	0x2
 3014 04de 0000 0000 		.long	.LM143
 3015 04e2 15        		.byte	0x15
 3016 04e3 00        		.byte	0x0
 3017 04e4 05        		.uleb128 0x5
 3018 04e5 02        		.byte	0x2
 3019 04e6 0000 0000 		.long	.LM144
 3020 04ea 15        		.byte	0x15
 3021 04eb 00        		.byte	0x0
 3022 04ec 05        		.uleb128 0x5
 3023 04ed 02        		.byte	0x2
 3024 04ee 0000 0000 		.long	.LM145
 3025 04f2 15        		.byte	0x15
 3026 04f3 00        		.byte	0x0
 3027 04f4 05        		.uleb128 0x5
 3028 04f5 02        		.byte	0x2
 3029 04f6 0000 0000 		.long	.LM146
 3030 04fa 15        		.byte	0x15
 3031 04fb 00        		.byte	0x0
 3032 04fc 05        		.uleb128 0x5
 3033 04fd 02        		.byte	0x2
GAS LISTING C:\Users\ADMINI~1\AppData\Local\Temp/ccw52Fe5.s 			page 55


 3034 04fe 0000 0000 		.long	.LM147
 3035 0502 15        		.byte	0x15
 3036 0503 00        		.byte	0x0
 3037 0504 05        		.uleb128 0x5
 3038 0505 02        		.byte	0x2
 3039 0506 0000 0000 		.long	.LM148
 3040 050a 03        		.byte	0x3
 3041 050b C402      		.sleb128 324
 3042 050d 01        		.byte	0x1
 3043 050e 00        		.byte	0x0
 3044 050f 05        		.uleb128 0x5
 3045 0510 02        		.byte	0x2
 3046 0511 0000 0000 		.long	.LM149
 3047 0515 16        		.byte	0x16
 3048 0516 00        		.byte	0x0
 3049 0517 05        		.uleb128 0x5
 3050 0518 02        		.byte	0x2
 3051 0519 0000 0000 		.long	.LM150
 3052 051d 15        		.byte	0x15
 3053 051e 00        		.byte	0x0
 3054 051f 05        		.uleb128 0x5
 3055 0520 02        		.byte	0x2
 3056 0521 0000 0000 		.long	.LM151
 3057 0525 15        		.byte	0x15
 3058 0526 00        		.byte	0x0
 3059 0527 05        		.uleb128 0x5
 3060 0528 02        		.byte	0x2
 3061 0529 0000 0000 		.long	.LM152
 3062 052d 03        		.byte	0x3
 3063 052e D67D      		.sleb128 -298
 3064 0530 01        		.byte	0x1
 3065 0531 00        		.byte	0x0
 3066 0532 05        		.uleb128 0x5
 3067 0533 02        		.byte	0x2
 3068 0534 0000 0000 		.long	.LM153
 3069 0538 16        		.byte	0x16
 3070 0539 00        		.byte	0x0
 3071 053a 05        		.uleb128 0x5
 3072 053b 02        		.byte	0x2
 3073 053c 0000 0000 		.long	.LM154
 3074 0540 15        		.byte	0x15
 3075 0541 00        		.byte	0x0
 3076 0542 05        		.uleb128 0x5
 3077 0543 02        		.byte	0x2
 3078 0544 0000 0000 		.long	.LM155
 3079 0548 16        		.byte	0x16
 3080 0549 00        		.byte	0x0
 3081 054a 05        		.uleb128 0x5
 3082 054b 02        		.byte	0x2
 3083 054c 0000 0000 		.long	.LM156
 3084 0550 15        		.byte	0x15
 3085 0551 00        		.byte	0x0
 3086 0552 05        		.uleb128 0x5
 3087 0553 02        		.byte	0x2
 3088 0554 0000 0000 		.long	.LM157
 3089 0558 03        		.byte	0x3
 3090 0559 6E        		.sleb128 -18
GAS LISTING C:\Users\ADMINI~1\AppData\Local\Temp/ccw52Fe5.s 			page 56


 3091 055a 01        		.byte	0x1
 3092 055b 00        		.byte	0x0
 3093 055c 05        		.uleb128 0x5
 3094 055d 02        		.byte	0x2
 3095 055e 0000 0000 		.long	.LM158
 3096 0562 15        		.byte	0x15
 3097 0563 00        		.byte	0x0
 3098 0564 05        		.uleb128 0x5
 3099 0565 02        		.byte	0x2
 3100 0566 0000 0000 		.long	.LM159
 3101 056a 16        		.byte	0x16
 3102 056b 00        		.byte	0x0
 3103 056c 05        		.uleb128 0x5
 3104 056d 02        		.byte	0x2
 3105 056e 0000 0000 		.long	.LM160
 3106 0572 15        		.byte	0x15
 3107 0573 00        		.byte	0x0
 3108 0574 05        		.uleb128 0x5
 3109 0575 02        		.byte	0x2
 3110 0576 0000 0000 		.long	.LM161
 3111 057a 15        		.byte	0x15
 3112 057b 00        		.byte	0x0
 3113 057c 05        		.uleb128 0x5
 3114 057d 02        		.byte	0x2
 3115 057e 0000 0000 		.long	.LM162
 3116 0582 16        		.byte	0x16
 3117 0583 00        		.byte	0x0
 3118 0584 05        		.uleb128 0x5
 3119 0585 02        		.byte	0x2
 3120 0586 0000 0000 		.long	.LM163
 3121 058a 15        		.byte	0x15
 3122 058b 00        		.byte	0x0
 3123 058c 05        		.uleb128 0x5
 3124 058d 02        		.byte	0x2
 3125 058e 0000 0000 		.long	.LM164
 3126 0592 16        		.byte	0x16
 3127 0593 00        		.byte	0x0
 3128 0594 05        		.uleb128 0x5
 3129 0595 02        		.byte	0x2
 3130 0596 0000 0000 		.long	.LM165
 3131 059a 03        		.byte	0x3
 3132 059b 68        		.sleb128 -24
 3133 059c 01        		.byte	0x1
 3134 059d 00        		.byte	0x0
 3135 059e 05        		.uleb128 0x5
 3136 059f 02        		.byte	0x2
 3137 05a0 0000 0000 		.long	.LM166
 3138 05a4 15        		.byte	0x15
 3139 05a5 00        		.byte	0x0
 3140 05a6 05        		.uleb128 0x5
 3141 05a7 02        		.byte	0x2
 3142 05a8 0000 0000 		.long	.LM167
 3143 05ac 16        		.byte	0x16
 3144 05ad 00        		.byte	0x0
 3145 05ae 05        		.uleb128 0x5
 3146 05af 02        		.byte	0x2
 3147 05b0 0000 0000 		.long	.LM168
GAS LISTING C:\Users\ADMINI~1\AppData\Local\Temp/ccw52Fe5.s 			page 57


 3148 05b4 15        		.byte	0x15
 3149 05b5 00        		.byte	0x0
 3150 05b6 05        		.uleb128 0x5
 3151 05b7 02        		.byte	0x2
 3152 05b8 0000 0000 		.long	.LM169
 3153 05bc 15        		.byte	0x15
 3154 05bd 00        		.byte	0x0
 3155 05be 05        		.uleb128 0x5
 3156 05bf 02        		.byte	0x2
 3157 05c0 0000 0000 		.long	.LM170
 3158 05c4 16        		.byte	0x16
 3159 05c5 00        		.byte	0x0
 3160 05c6 05        		.uleb128 0x5
 3161 05c7 02        		.byte	0x2
 3162 05c8 0000 0000 		.long	.LM171
 3163 05cc 16        		.byte	0x16
 3164 05cd 00        		.byte	0x0
 3165 05ce 05        		.uleb128 0x5
 3166 05cf 02        		.byte	0x2
 3167 05d0 0000 0000 		.long	.LM172
 3168 05d4 15        		.byte	0x15
 3169 05d5 00        		.byte	0x0
 3170 05d6 05        		.uleb128 0x5
 3171 05d7 02        		.byte	0x2
 3172 05d8 0000 0000 		.long	.LM173
 3173 05dc 16        		.byte	0x16
 3174 05dd 00        		.byte	0x0
 3175 05de 05        		.uleb128 0x5
 3176 05df 02        		.byte	0x2
 3177 05e0 0000 0000 		.long	.LM174
 3178 05e4 2E        		.byte	0x2e
 3179 05e5 00        		.byte	0x0
 3180 05e6 05        		.uleb128 0x5
 3181 05e7 02        		.byte	0x2
 3182 05e8 0000 0000 		.long	.LM175
 3183 05ec 16        		.byte	0x16
 3184 05ed 00        		.byte	0x0
 3185 05ee 05        		.uleb128 0x5
 3186 05ef 02        		.byte	0x2
 3187 05f0 0000 0000 		.long	.LM176
 3188 05f4 15        		.byte	0x15
 3189 05f5 00        		.byte	0x0
 3190 05f6 05        		.uleb128 0x5
 3191 05f7 02        		.byte	0x2
 3192 05f8 0000 0000 		.long	.LM177
 3193 05fc 1A        		.byte	0x1a
 3194 05fd 00        		.byte	0x0
 3195 05fe 05        		.uleb128 0x5
 3196 05ff 02        		.byte	0x2
 3197 0600 0000 0000 		.long	.LM178
 3198 0604 18        		.byte	0x18
 3199 0605 00        		.byte	0x0
 3200 0606 05        		.uleb128 0x5
 3201 0607 02        		.byte	0x2
 3202 0608 0000 0000 		.long	.LM179
 3203 060c 15        		.byte	0x15
 3204 060d 00        		.byte	0x0
GAS LISTING C:\Users\ADMINI~1\AppData\Local\Temp/ccw52Fe5.s 			page 58


 3205 060e 05        		.uleb128 0x5
 3206 060f 02        		.byte	0x2
 3207 0610 0000 0000 		.long	.LM180
 3208 0614 19        		.byte	0x19
 3209 0615 00        		.byte	0x0
 3210 0616 05        		.uleb128 0x5
 3211 0617 02        		.byte	0x2
 3212 0618 0000 0000 		.long	.LM181
 3213 061c 15        		.byte	0x15
 3214 061d 00        		.byte	0x0
 3215 061e 05        		.uleb128 0x5
 3216 061f 02        		.byte	0x2
 3217 0620 0000 0000 		.long	.LM182
 3218 0624 16        		.byte	0x16
 3219 0625 00        		.byte	0x0
 3220 0626 05        		.uleb128 0x5
 3221 0627 02        		.byte	0x2
 3222 0628 0000 0000 		.long	.LM183
 3223 062c 15        		.byte	0x15
 3224 062d 00        		.byte	0x0
 3225 062e 05        		.uleb128 0x5
 3226 062f 02        		.byte	0x2
 3227 0630 0000 0000 		.long	.LM184
 3228 0634 15        		.byte	0x15
 3229 0635 00        		.byte	0x0
 3230 0636 05        		.uleb128 0x5
 3231 0637 02        		.byte	0x2
 3232 0638 0000 0000 		.long	.LM185
 3233 063c 16        		.byte	0x16
 3234 063d 00        		.byte	0x0
 3235 063e 05        		.uleb128 0x5
 3236 063f 02        		.byte	0x2
 3237 0640 0000 0000 		.long	.LM186
 3238 0644 16        		.byte	0x16
 3239 0645 00        		.byte	0x0
 3240 0646 05        		.uleb128 0x5
 3241 0647 02        		.byte	0x2
 3242 0648 0000 0000 		.long	.Letext0
 3243 064c 00        		.byte	0x0
 3244 064d 01        		.uleb128 0x1
 3245 064e 01        		.byte	0x1
 3246               	.LELT0:
 3247 064f 1600 0000 		.section	.debug_str,"MS",@progbits,1
 3247      0200 1000 
 3247      0000 0101 
 3247      FB0E 0A00 
 3247      0101 0101 
 3248               	.LASF59:
 3249 0000 474E 5520 		.string	"GNU C 4.3.3"
 3249      4320 342E 
 3249      332E 3300 
 3250               	.LASF57:
 3251 000c 6C65 6442 		.string	"ledBrightnessMin"
 3251      7269 6768 
 3251      746E 6573 
 3251      734D 696E 
 3251      00
GAS LISTING C:\Users\ADMINI~1\AppData\Local\Temp/ccw52Fe5.s 			page 59


 3252               	.LASF47:
 3253 001d 7363 726F 		.string	"scrollLockLED"
 3253      6C6C 4C6F 
 3253      636B 4C45 
 3253      4400 
 3254               	.LASF15:
 3255 002b 6265 796F 		.string	"beyondFNDelayCounter"
 3255      6E64 464E 
 3255      4465 6C61 
 3255      7943 6F75 
 3255      6E74 6572 
 3256               	.LASF3:
 3257 0040 7368 6F72 		.string	"short int"
 3257      7420 696E 
 3257      7400 
 3258               	.LASF23:
 3259 004a 7072 6576 		.string	"prevSCRLED"
 3259      5343 524C 
 3259      4544 00
 3260               	.LASF44:
 3261 0055 646F 776E 		.string	"downLevelLife"
 3261      4C65 7665 
 3261      6C4C 6966 
 3261      6500 
 3262               	.LASF51:
 3263 0063 7077 6D44 		.string	"pwmDir"
 3263      6972 00
 3264               	.LASF21:
 3265 006a 7365 744C 		.string	"setLEDState"
 3265      4544 5374 
 3265      6174 6500 
 3266               	.LASF39:
 3267 0076 674C 6564 		.string	"gLedBrightness"
 3267      4272 6967 
 3267      6874 6E65 
 3267      7373 00
 3268               	.LASF43:
 3269 0085 646F 776E 		.string	"downLevelMax"
 3269      4C65 7665 
 3269      6C4D 6178 
 3269      00
 3270               	.LASF25:
 3271 0092 6170 706C 		.string	"applyKeyDownForFullLED"
 3271      794B 6579 
 3271      446F 776E 
 3271      466F 7246 
 3271      756C 6C4C 
 3272               	.LASF10:
 3273 00a9 7569 6E74 		.string	"uint8_t"
 3273      385F 7400 
 3274               	.LASF42:
 3275 00b1 646F 776E 		.string	"downLevel"
 3275      4C65 7665 
 3275      6C00 
 3276               	.LASF33:
 3277 00bb 7265 6E64 		.string	"renderLED"
 3277      6572 4C45 
GAS LISTING C:\Users\ADMINI~1\AppData\Local\Temp/ccw52Fe5.s 			page 60


 3277      4400 
 3278               	.LASF46:
 3279 00c5 4C45 4473 		.string	"LEDstate"
 3279      7461 7465 
 3279      00
 3280               	.LASF35:
 3281 00ce 7761 6B65 		.string	"wakeUpLED"
 3281      5570 4C45 
 3281      4400 
 3282               	.LASF26:
 3283 00d8 7853 7461 		.string	"xState"
 3283      7465 00
 3284               	.LASF61:
 3285 00df 443A 5C67 		.string	"D:\\git2\\ps2avrU\\.git\\source"
 3285      6974 325C 
 3285      7073 3261 
 3285      7672 555C 
 3285      2E67 6974 
 3286               	.LASF60:
 3287 00fb 6C65 6472 		.string	"ledrender.c"
 3287      656E 6465 
 3287      722E 6300 
 3288               	.LASF62:
 3289 0107 6765 744C 		.string	"getLEDState"
 3289      4544 5374 
 3289      6174 6500 
 3290               	.LASF7:
 3291 0113 6C6F 6E67 		.string	"long long int"
 3291      206C 6F6E 
 3291      6720 696E 
 3291      7400 
 3292               	.LASF5:
 3293 0121 6C6F 6E67 		.string	"long int"
 3293      2069 6E74 
 3293      00
 3294               	.LASF54:
 3295 012a 6C65 6453 		.string	"ledStateCount"
 3295      7461 7465 
 3295      436F 756E 
 3295      7400 
 3296               	.LASF24:
 3297 0138 636C 6561 		.string	"clearLEDInited"
 3297      724C 4544 
 3297      496E 6974 
 3297      6564 00
 3298               	.LASF37:
 3299 0147 7265 6475 		.string	"reduceLedBrightness"
 3299      6365 4C65 
 3299      6442 7269 
 3299      6768 746E 
 3299      6573 7300 
 3300               	.LASF27:
 3301 015b 7856 616C 		.string	"xValue"
 3301      7565 00
 3302               	.LASF16:
 3303 0162 6265 796F 		.string	"beyondFNLEDState"
 3303      6E64 464E 
GAS LISTING C:\Users\ADMINI~1\AppData\Local\Temp/ccw52Fe5.s 			page 61


 3303      4C45 4453 
 3303      7461 7465 
 3303      00
 3304               	.LASF13:
 3305 0173 6265 796F 		.string	"beyondFNCountDelay"
 3305      6E64 464E 
 3305      436F 756E 
 3305      7444 656C 
 3305      6179 00
 3306               	.LASF0:
 3307 0186 756E 7369 		.string	"unsigned char"
 3307      676E 6564 
 3307      2063 6861 
 3307      7200 
 3308               	.LASF41:
 3309 0194 646F 776E 		.string	"downLevelStay"
 3309      4C65 7665 
 3309      6C53 7461 
 3309      7900 
 3310               	.LASF20:
 3311 01a2 636F 756E 		.string	"counter"
 3311      7465 7200 
 3312               	.LASF12:
 3313 01aa 6265 796F 		.string	"beyondFNCountMAX"
 3313      6E64 464E 
 3313      436F 756E 
 3313      744D 4158 
 3313      00
 3314               	.LASF48:
 3315 01bb 5F66 756C 		.string	"_fullLEDMode"
 3315      6C4C 4544 
 3315      4D6F 6465 
 3315      00
 3316               	.LASF34:
 3317 01c8 7849 7342 		.string	"xIsBeyondFN"
 3317      6579 6F6E 
 3317      6446 4E00 
 3318               	.LASF17:
 3319 01d4 626C 696E 		.string	"blinkBeyondFNLED"
 3319      6B42 6579 
 3319      6F6E 6446 
 3319      4E4C 4544 
 3319      00
 3320               	.LASF40:
 3321 01e5 696E 6974 		.string	"initFullLEDState"
 3321      4675 6C6C 
 3321      4C45 4453 
 3321      7461 7465 
 3321      00
 3322               	.LASF1:
 3323 01f6 7369 676E 		.string	"signed char"
 3323      6564 2063 
 3323      6861 7200 
 3324               	.LASF6:
 3325 0202 6C6F 6E67 		.string	"long long unsigned int"
 3325      206C 6F6E 
 3325      6720 756E 
GAS LISTING C:\Users\ADMINI~1\AppData\Local\Temp/ccw52Fe5.s 			page 62


 3325      7369 676E 
 3325      6564 2069 
 3326               	.LASF19:
 3327 0219 636F 756E 		.string	"countMAX"
 3327      744D 4158 
 3327      00
 3328               	.LASF36:
 3329 0222 6368 616E 		.string	"changeFullLedState"
 3329      6765 4675 
 3329      6C6C 4C65 
 3329      6453 7461 
 3329      7465 00
 3330               	.LASF8:
 3331 0235 756E 7369 		.string	"unsigned int"
 3331      676E 6564 
 3331      2069 6E74 
 3331      00
 3332               	.LASF11:
 3333 0242 7569 6E74 		.string	"uint16_t"
 3333      3136 5F74 
 3333      00
 3334               	.LASF49:
 3335 024b 5F66 756C 		.string	"_fullLEDMode_saved"
 3335      6C4C 4544 
 3335      4D6F 6465 
 3335      5F73 6176 
 3335      6564 00
 3336               	.LASF52:
 3337 025e 7370 6565 		.string	"speed"
 3337      6400 
 3338               	.LASF50:
 3339 0264 7077 6D43 		.string	"pwmCounter"
 3339      6F75 6E74 
 3339      6572 00
 3340               	.LASF64:
 3341 026f 7365 7446 		.string	"setFullLEDState"
 3341      756C 6C4C 
 3341      4544 5374 
 3341      6174 6500 
 3342               	.LASF2:
 3343 027f 7368 6F72 		.string	"short unsigned int"
 3343      7420 756E 
 3343      7369 676E 
 3343      6564 2069 
 3343      6E74 00
 3344               	.LASF14:
 3345 0292 6265 796F 		.string	"beyondFNCounter"
 3345      6E64 464E 
 3345      436F 756E 
 3345      7465 7200 
 3346               	.LASF38:
 3347 02a2 696E 6372 		.string	"increaseLedBrightness"
 3347      6561 7365 
 3347      4C65 6442 
 3347      7269 6768 
 3347      746E 6573 
 3348               	.LASF9:
GAS LISTING C:\Users\ADMINI~1\AppData\Local\Temp/ccw52Fe5.s 			page 63


 3349 02b8 6368 6172 		.string	"char"
 3349      00
 3350               	.LASF55:
 3351 02bd 5F6C 6564 		.string	"_ledBrightnessMax"
 3351      4272 6967 
 3351      6874 6E65 
 3351      7373 4D61 
 3351      7800 
 3352               	.LASF45:
 3353 02cf 6C65 6449 		.string	"ledInited"
 3353      6E69 7465 
 3353      6400 
 3354               	.LASF31:
 3355 02d9 7772 6974 		.string	"writeLEDMode"
 3355      654C 4544 
 3355      4D6F 6465 
 3355      00
 3356               	.LASF28:
 3357 02e6 6756 616C 		.string	"gVal"
 3357      00
 3358               	.LASF53:
 3359 02eb 5F69 7344 		.string	"_isDidSleep"
 3359      6964 536C 
 3359      6565 7000 
 3360               	.LASF4:
 3361 02f7 6C6F 6E67 		.string	"long unsigned int"
 3361      2075 6E73 
 3361      6967 6E65 
 3361      6420 696E 
 3361      7400 
 3362               	.LASF22:
 3363 0309 7365 744C 		.string	"setLEDIndicate"
 3363      4544 496E 
 3363      6469 6361 
 3363      7465 00
 3364               	.LASF32:
 3365 0318 6661 6465 		.string	"fadeLED"
 3365      4C45 4400 
 3366               	.LASF30:
 3367 0320 646F 536C 		.string	"doSleep"
 3367      6565 7000 
 3368               	.LASF63:
 3369 0328 6765 7442 		.string	"getBrightness"
 3369      7269 6768 
 3369      746E 6573 
 3369      7300 
 3370               	.LASF56:
 3371 0336 5F6C 6564 		.string	"_ledBrightnessMax_saved"
 3371      4272 6967 
 3371      6874 6E65 
 3371      7373 4D61 
 3371      785F 7361 
 3372               	.LASF29:
 3373 034e 736C 6565 		.string	"sleepLED"
 3373      704C 4544 
 3373      00
 3374               	.LASF18:
GAS LISTING C:\Users\ADMINI~1\AppData\Local\Temp/ccw52Fe5.s 			page 64


 3375 0357 626C 696E 		.string	"blinkScrollLockLED"
 3375      6B53 6372 
 3375      6F6C 6C4C 
 3375      6F63 6B4C 
 3375      4544 00
 3376               	.LASF58:
 3377 036a 6C65 6442 		.string	"ledBrightnessStep"
 3377      7269 6768 
 3377      746E 6573 
 3377      7353 7465 
 3377      7000 
 3378               	.global __do_copy_data
 3379               	.global __do_clear_bss
GAS LISTING C:\Users\ADMINI~1\AppData\Local\Temp/ccw52Fe5.s 			page 65


DEFINED SYMBOLS
                            *ABS*:00000000 ledrender.c
C:\Users\ADMINI~1\AppData\Local\Temp/ccw52Fe5.s:2      *ABS*:0000003f __SREG__
C:\Users\ADMINI~1\AppData\Local\Temp/ccw52Fe5.s:3      *ABS*:0000003e __SP_H__
C:\Users\ADMINI~1\AppData\Local\Temp/ccw52Fe5.s:4      *ABS*:0000003d __SP_L__
C:\Users\ADMINI~1\AppData\Local\Temp/ccw52Fe5.s:5      *ABS*:00000034 __CCP__
C:\Users\ADMINI~1\AppData\Local\Temp/ccw52Fe5.s:6      *ABS*:00000000 __tmp_reg__
C:\Users\ADMINI~1\AppData\Local\Temp/ccw52Fe5.s:7      *ABS*:00000001 __zero_reg__
C:\Users\ADMINI~1\AppData\Local\Temp/ccw52Fe5.s:18     .text:00000000 setLEDState
C:\Users\ADMINI~1\AppData\Local\Temp/ccw52Fe5.s:992    .bss:00000016 LEDstate
C:\Users\ADMINI~1\AppData\Local\Temp/ccw52Fe5.s:33     .text:00000006 getLEDState
C:\Users\ADMINI~1\AppData\Local\Temp/ccw52Fe5.s:46     .text:0000000c clearLEDInited
                             .bss:00000000 ledInited
C:\Users\ADMINI~1\AppData\Local\Temp/ccw52Fe5.s:60     .text:00000012 setLEDIndicate
C:\Users\ADMINI~1\AppData\Local\Temp/ccw52Fe5.s:993    .bss:00000017 prevSCRLED.1857
C:\Users\ADMINI~1\AppData\Local\Temp/ccw52Fe5.s:976    .bss:00000005 scrollLockLED
C:\Users\ADMINI~1\AppData\Local\Temp/ccw52Fe5.s:142    .text:00000074 applyKeyDownForFullLED
C:\Users\ADMINI~1\AppData\Local\Temp/ccw52Fe5.s:979    .bss:0000000a _fullLEDMode
C:\Users\ADMINI~1\AppData\Local\Temp/ccw52Fe5.s:988    .bss:00000011 downLevelStay
C:\Users\ADMINI~1\AppData\Local\Temp/ccw52Fe5.s:990    .bss:00000014 downLevel
C:\Users\ADMINI~1\AppData\Local\Temp/ccw52Fe5.s:989    .bss:00000013 downLevelLife
C:\Users\ADMINI~1\AppData\Local\Temp/ccw52Fe5.s:203    .text:000000e0 getBrightness
C:\Users\ADMINI~1\AppData\Local\Temp/ccw52Fe5.s:985    .data:00000001 _ledBrightnessMax
C:\Users\ADMINI~1\AppData\Local\Temp/ccw52Fe5.s:232    .text:00000102 sleepLED
C:\Users\ADMINI~1\AppData\Local\Temp/ccw52Fe5.s:987    .bss:0000000f pwmCounter
C:\Users\ADMINI~1\AppData\Local\Temp/ccw52Fe5.s:991    .bss:00000015 _isDidSleep
C:\Users\ADMINI~1\AppData\Local\Temp/ccw52Fe5.s:271    .text:00000132 doSleep
C:\Users\ADMINI~1\AppData\Local\Temp/ccw52Fe5.s:322    .text:00000190 renderLED
C:\Users\ADMINI~1\AppData\Local\Temp/ccw52Fe5.s:969    .bss:00000001 beyondFNDelayCounter.1945
C:\Users\ADMINI~1\AppData\Local\Temp/ccw52Fe5.s:975    .bss:00000003 beyondFNCounter.1944
C:\Users\ADMINI~1\AppData\Local\Temp/ccw52Fe5.s:973    .data:00000000 beyondFNLEDState.1946
C:\Users\ADMINI~1\AppData\Local\Temp/ccw52Fe5.s:977    .bss:00000006 counter.1971
C:\Users\ADMINI~1\AppData\Local\Temp/ccw52Fe5.s:978    .bss:00000008 ledStateCount
C:\Users\ADMINI~1\AppData\Local\Temp/ccw52Fe5.s:980    .bss:0000000b _fullLEDMode_saved
C:\Users\ADMINI~1\AppData\Local\Temp/ccw52Fe5.s:981    .bss:0000000c _ledBrightnessMax_saved
C:\Users\ADMINI~1\AppData\Local\Temp/ccw52Fe5.s:982    .bss:0000000d pwmDir
C:\Users\ADMINI~1\AppData\Local\Temp/ccw52Fe5.s:739    .text:00000494 setFullLEDState
C:\Users\ADMINI~1\AppData\Local\Temp/ccw52Fe5.s:804    .text:000004fa wakeUpLED
C:\Users\ADMINI~1\AppData\Local\Temp/ccw52Fe5.s:820    .text:00000504 changeFullLedState
C:\Users\ADMINI~1\AppData\Local\Temp/ccw52Fe5.s:845    .text:00000526 reduceLedBrightness
C:\Users\ADMINI~1\AppData\Local\Temp/ccw52Fe5.s:880    .text:00000554 increaseLedBrightness
C:\Users\ADMINI~1\AppData\Local\Temp/ccw52Fe5.s:923    .text:00000584 initFullLEDState

UNDEFINED SYMBOLS
__divmodhi4
timer1PWMBSet
isSleep
__eewr_byte_m32
timer1Init
timer1PWMInit
timer1PWMBOn
__eerd_byte_m32
__do_copy_data
__do_clear_bss
