GAS LISTING C:\Users\ADMINI~1\AppData\Local\Temp/ccZqQ0UD.s 			page 1


   1               		.file	"ledrender.c"
   2               	__SREG__ = 0x3f
   3               	__SP_H__ = 0x3e
   4               	__SP_L__ = 0x3d
   5               	__CCP__  = 0x34
   6               	__tmp_reg__ = 0
   7               	__zero_reg__ = 1
   8               		.section	.debug_abbrev,"",@progbits
   9               	.Ldebug_abbrev0:
  10               		.section	.debug_info,"",@progbits
  11               	.Ldebug_info0:
  12               		.section	.debug_line,"",@progbits
  13               	.Ldebug_line0:
  14               		.text
  15               	.Ltext0:
  16               	.global	setLEDState
  17               		.type	setLEDState, @function
  18               	setLEDState:
  19               	.LFB8:
  20               	.LM1:
  21               	.LVL0:
  22               	/* prologue: function */
  23               	/* frame size = 0 */
  24               	.LM2:
  25 0000 8093 0000 		sts LEDstate,r24
  26               	/* epilogue start */
  27               	.LM3:
  28 0004 0895      		ret
  29               	.LFE8:
  30               		.size	setLEDState, .-setLEDState
  31               	.global	getLEDState
  32               		.type	getLEDState, @function
  33               	getLEDState:
  34               	.LFB9:
  35               	.LM4:
  36               	/* prologue: function */
  37               	/* frame size = 0 */
  38               	.LM5:
  39 0006 8091 0000 		lds r24,LEDstate
  40               	/* epilogue start */
  41 000a 0895      		ret
  42               	.LFE9:
  43               		.size	getLEDState, .-getLEDState
  44               	.global	clearLEDInited
  45               		.type	clearLEDInited, @function
  46               	clearLEDInited:
  47               	.LFB14:
  48               	.LM6:
  49               	/* prologue: function */
  50               	/* frame size = 0 */
  51               	.LM7:
  52 000c 1092 0000 		sts ledInited,__zero_reg__
  53               	/* epilogue start */
  54               	.LM8:
  55 0010 0895      		ret
  56               	.LFE14:
  57               		.size	clearLEDInited, .-clearLEDInited
GAS LISTING C:\Users\ADMINI~1\AppData\Local\Temp/ccZqQ0UD.s 			page 2


  58               	.global	stopTimer
  59               		.type	stopTimer, @function
  60               	stopTimer:
  61               	.LFB15:
  62               	.LM9:
  63               	/* prologue: function */
  64               	/* frame size = 0 */
  65               	.LM10:
  66 0012 8EB5      		in r24,78-32
  67 0014 887F      		andi r24,lo8(-8)
  68 0016 8EBD      		out 78-32,r24
  69               	/* epilogue start */
  70               	.LM11:
  71 0018 0895      		ret
  72               	.LFE15:
  73               		.size	stopTimer, .-stopTimer
  74               	.global	startTimer
  75               		.type	startTimer, @function
  76               	startTimer:
  77               	.LFB16:
  78               	.LM12:
  79               	/* prologue: function */
  80               	/* frame size = 0 */
  81               	.LM13:
  82 001a 8EB5      		in r24,78-32
  83 001c 8460      		ori r24,lo8(4)
  84 001e 8EBD      		out 78-32,r24
  85               	/* epilogue start */
  86               	.LM14:
  87 0020 0895      		ret
  88               	.LFE16:
  89               		.size	startTimer, .-startTimer
  90               	.global	timerProcessCompareB
  91               		.type	timerProcessCompareB, @function
  92               	timerProcessCompareB:
  93               	.LFB17:
  94               	.LM15:
  95               	/* prologue: function */
  96               	/* frame size = 0 */
  97               	.LM16:
  98 0022 949A      		sbi 50-32,4
  99               	.LM17:
 100 0024 8091 0000 		lds r24,pwmValue
 101 0028 9091 0000 		lds r25,(pwmValue)+1
 102 002c 9BBD      		out (74)+1-32,r25
 103 002e 8ABD      		out 74-32,r24
 104               	/* epilogue start */
 105               	.LM18:
 106 0030 0895      		ret
 107               	.LFE17:
 108               		.size	timerProcessCompareB, .-timerProcessCompareB
 109               	.global	timerProcessCompareA
 110               		.type	timerProcessCompareA, @function
 111               	timerProcessCompareA:
 112               	.LFB18:
 113               	.LM19:
 114               	/* prologue: function */
GAS LISTING C:\Users\ADMINI~1\AppData\Local\Temp/ccZqQ0UD.s 			page 3


 115               	/* frame size = 0 */
 116               	.LM20:
 117 0032 9498      		cbi 50-32,4
 118               	/* epilogue start */
 119               	.LM21:
 120 0034 0895      		ret
 121               	.LFE18:
 122               		.size	timerProcessCompareA, .-timerProcessCompareA
 123               	.global	setPWM
 124               		.type	setPWM, @function
 125               	setPWM:
 126               	.LFB19:
 127               	.LM22:
 128               	.LVL1:
 129               	/* prologue: function */
 130               	/* frame size = 0 */
 131               	.LM23:
 132 0036 9093 0000 		sts (pwmValue)+1,r25
 133 003a 8093 0000 		sts pwmValue,r24
 134               	.LM24:
 135 003e 8091 0000 		lds r24,pwmValue
 136 0042 9091 0000 		lds r25,(pwmValue)+1
 137               	.LVL2:
 138 0046 892B      		or r24,r25
 139 0048 01F4      		brne .L16
 140 004a 8091 0000 		lds r24,prevPwmValue.2332
 141 004e 9091 0000 		lds r25,(prevPwmValue.2332)+1
 142 0052 892B      		or r24,r25
 143 0054 01F0      		breq .L16
 144               	.LM25:
 145 0056 9498      		cbi 50-32,4
 146               	.LBB24:
 147               	.LBB25:
 148               	.LM26:
 149 0058 8EB5      		in r24,78-32
 150 005a 887F      		andi r24,lo8(-8)
 151 005c 00C0      		rjmp .L19
 152               	.L16:
 153               	.LBE25:
 154               	.LBE24:
 155               	.LM27:
 156 005e 8091 0000 		lds r24,pwmValue
 157 0062 9091 0000 		lds r25,(pwmValue)+1
 158 0066 892B      		or r24,r25
 159 0068 01F0      		breq .L17
 160 006a 8091 0000 		lds r24,prevPwmValue.2332
 161 006e 9091 0000 		lds r25,(prevPwmValue.2332)+1
 162 0072 892B      		or r24,r25
 163 0074 01F4      		brne .L17
 164               	.LBB26:
 165               	.LBB27:
 166               	.LM28:
 167 0076 8EB5      		in r24,78-32
 168 0078 8460      		ori r24,lo8(4)
 169               	.L19:
 170 007a 8EBD      		out 78-32,r24
 171               	.L17:
GAS LISTING C:\Users\ADMINI~1\AppData\Local\Temp/ccZqQ0UD.s 			page 4


 172               	.LBE27:
 173               	.LBE26:
 174               	.LM29:
 175 007c 8091 0000 		lds r24,pwmValue
 176 0080 9091 0000 		lds r25,(pwmValue)+1
 177 0084 9093 0000 		sts (prevPwmValue.2332)+1,r25
 178 0088 8093 0000 		sts prevPwmValue.2332,r24
 179               	/* epilogue start */
 180               	.LM30:
 181 008c 0895      		ret
 182               	.LFE19:
 183               		.size	setPWM, .-setPWM
 184               		.type	setFullLEDState, @function
 185               	setFullLEDState:
 186               	.LFB10:
 187               	.LM31:
 188               	/* prologue: function */
 189               	/* frame size = 0 */
 190               	.LM32:
 191 008e 9091 0000 		lds r25,_fullLEDMode
 192 0092 9923      		tst r25
 193 0094 01F4      		brne .L21
 194               	.LM33:
 195 0096 80E0      		ldi r24,lo8(0)
 196 0098 90E0      		ldi r25,hi8(0)
 197 009a 00C0      		rjmp .L27
 198               	.L21:
 199               	.LM34:
 200 009c 9130      		cpi r25,lo8(1)
 201 009e 01F4      		brne .L23
 202               	.LM35:
 203 00a0 1092 0000 		sts (pwmCounter)+1,__zero_reg__
 204 00a4 1092 0000 		sts pwmCounter,__zero_reg__
 205               	.LM36:
 206 00a8 1092 0000 		sts (pwmDir)+1,__zero_reg__
 207 00ac 1092 0000 		sts pwmDir,__zero_reg__
 208 00b0 0895      		ret
 209               	.L23:
 210               	.LM37:
 211 00b2 9230      		cpi r25,lo8(2)
 212 00b4 01F4      		brne .L24
 213               	.LM38:
 214 00b6 8091 0000 		lds r24,_ledBrightnessMax
 215 00ba 90E0      		ldi r25,lo8(0)
 216               	.L27:
 217 00bc 0E94 0000 		call setPWM
 218 00c0 0895      		ret
 219               	.L24:
 220               	.LM39:
 221 00c2 892F      		mov r24,r25
 222 00c4 8350      		subi r24,lo8(-(-3))
 223 00c6 8230      		cpi r24,lo8(2)
 224 00c8 00F4      		brsh .L26
 225               	.LM40:
 226 00ca 83E0      		ldi r24,lo8(3)
 227 00cc 8093 0000 		sts downLevel,r24
 228               	.LM41:
GAS LISTING C:\Users\ADMINI~1\AppData\Local\Temp/ccZqQ0UD.s 			page 5


 229 00d0 9430      		cpi r25,lo8(4)
 230 00d2 01F4      		brne .L25
 231 00d4 81E0      		ldi r24,lo8(1)
 232 00d6 8093 0000 		sts downLevel,r24
 233               	.L25:
 234               	.LM42:
 235 00da 8091 0000 		lds r24,downLevel
 236 00de 9FEF      		ldi r25,lo8(-1)
 237 00e0 899F      		mul r24,r25
 238 00e2 C001      		movw r24,r0
 239 00e4 1124      		clr r1
 240 00e6 6CE0      		ldi r22,lo8(12)
 241 00e8 70E0      		ldi r23,hi8(12)
 242 00ea 0E94 0000 		call __divmodhi4
 243 00ee 6093 0000 		sts downLevelLife,r22
 244               	.L26:
 245 00f2 0895      		ret
 246               	.LFE10:
 247               		.size	setFullLEDState, .-setFullLEDState
 248               	.global	changeFullLedState
 249               		.type	changeFullLedState, @function
 250               	changeFullLedState:
 251               	.LFB13:
 252               	.LM43:
 253               	/* prologue: function */
 254               	/* frame size = 0 */
 255               	.LM44:
 256 00f4 8091 0000 		lds r24,_fullLEDMode
 257 00f8 90E0      		ldi r25,lo8(0)
 258 00fa 0196      		adiw r24,1
 259 00fc 65E0      		ldi r22,lo8(5)
 260 00fe 70E0      		ldi r23,hi8(5)
 261 0100 0E94 0000 		call __divmodhi4
 262 0104 8093 0000 		sts _fullLEDMode,r24
 263               	.LM45:
 264 0108 81E0      		ldi r24,lo8(1)
 265 010a 90E0      		ldi r25,hi8(1)
 266 010c 9093 0000 		sts (ledStateCount)+1,r25
 267 0110 8093 0000 		sts ledStateCount,r24
 268               	.LM46:
 269 0114 0E94 0000 		call setFullLEDState
 270               	/* epilogue start */
 271               	.LM47:
 272 0118 0895      		ret
 273               	.LFE13:
 274               		.size	changeFullLedState, .-changeFullLedState
 275               	.global	reduceLedBrightness
 276               		.type	reduceLedBrightness, @function
 277               	reduceLedBrightness:
 278               	.LFB12:
 279               	.LM48:
 280               	/* prologue: function */
 281               	/* frame size = 0 */
 282               	.LM49:
 283 011a 8091 0000 		lds r24,_ledBrightnessMax
 284 011e 8E31      		cpi r24,lo8(30)
 285 0120 01F0      		breq .L34
GAS LISTING C:\Users\ADMINI~1\AppData\Local\Temp/ccZqQ0UD.s 			page 6


 286               	.LM50:
 287 0122 8951      		subi r24,lo8(-(-25))
 288 0124 8093 0000 		sts _ledBrightnessMax,r24
 289               	.LM51:
 290 0128 8E31      		cpi r24,lo8(30)
 291 012a 00F4      		brsh .L32
 292               	.LM52:
 293 012c 8EE1      		ldi r24,lo8(30)
 294 012e 8093 0000 		sts _ledBrightnessMax,r24
 295               	.L32:
 296               	.LM53:
 297 0132 8091 0000 		lds r24,_fullLEDMode
 298 0136 8230      		cpi r24,lo8(2)
 299 0138 01F4      		brne .L33
 300               	.LM54:
 301 013a 0E94 0000 		call setFullLEDState
 302               	.L33:
 303               	.LM55:
 304 013e 81E0      		ldi r24,lo8(1)
 305 0140 90E0      		ldi r25,hi8(1)
 306 0142 9093 0000 		sts (ledStateCount)+1,r25
 307 0146 8093 0000 		sts ledStateCount,r24
 308               	.L34:
 309 014a 0895      		ret
 310               	.LFE12:
 311               		.size	reduceLedBrightness, .-reduceLedBrightness
 312               	.global	increaseLedBrightness
 313               		.type	increaseLedBrightness, @function
 314               	increaseLedBrightness:
 315               	.LFB11:
 316               	.LM56:
 317               	/* prologue: function */
 318               	/* frame size = 0 */
 319               	.LM57:
 320 014c 8091 0000 		lds r24,_ledBrightnessMax
 321 0150 8F3F      		cpi r24,lo8(-1)
 322 0152 01F0      		breq .L40
 323               	.LM58:
 324 0154 90E0      		ldi r25,lo8(0)
 325               	.LVL3:
 326 0156 4996      		adiw r24,25
 327               	.LVL4:
 328               	.LM59:
 329 0158 8F3F      		cpi r24,255
 330 015a 9105      		cpc r25,__zero_reg__
 331 015c 01F0      		breq .L37
 332 015e 04F0      		brlt .L37
 333               	.LM60:
 334 0160 8FEF      		ldi r24,lo8(-1)
 335               	.LVL5:
 336               	.L37:
 337               	.LM61:
 338 0162 8093 0000 		sts _ledBrightnessMax,r24
 339               	.LM62:
 340 0166 8091 0000 		lds r24,_fullLEDMode
 341               	.LVL6:
 342 016a 8230      		cpi r24,lo8(2)
GAS LISTING C:\Users\ADMINI~1\AppData\Local\Temp/ccZqQ0UD.s 			page 7


 343 016c 01F4      		brne .L39
 344               	.LM63:
 345 016e 0E94 0000 		call setFullLEDState
 346               	.LVL7:
 347               	.L39:
 348               	.LM64:
 349 0172 81E0      		ldi r24,lo8(1)
 350 0174 90E0      		ldi r25,hi8(1)
 351 0176 9093 0000 		sts (ledStateCount)+1,r25
 352 017a 8093 0000 		sts ledStateCount,r24
 353               	.L40:
 354 017e 0895      		ret
 355               	.LFE11:
 356               		.size	increaseLedBrightness, .-increaseLedBrightness
 357               	.global	setLEDIndicate
 358               		.type	setLEDIndicate, @function
 359               	setLEDIndicate:
 360               	.LFB22:
 361               	.LM65:
 362               	/* prologue: function */
 363               	/* frame size = 0 */
 364               	.LM66:
 365 0180 8091 0000 		lds r24,LEDstate
 366 0184 90E0      		ldi r25,lo8(0)
 367 0186 80FF      		sbrs r24,0
 368 0188 00C0      		rjmp .L42
 369               	.LM67:
 370 018a 909A      		sbi 50-32,0
 371 018c 00C0      		rjmp .L43
 372               	.L42:
 373               	.LM68:
 374 018e 9098      		cbi 50-32,0
 375               	.L43:
 376               	.LM69:
 377 0190 AC01      		movw r20,r24
 378 0192 4270      		andi r20,lo8(2)
 379 0194 5070      		andi r21,hi8(2)
 380 0196 81FF      		sbrs r24,1
 381 0198 00C0      		rjmp .L44
 382               	.LM70:
 383 019a 919A      		sbi 50-32,1
 384 019c 00C0      		rjmp .L45
 385               	.L44:
 386               	.LM71:
 387 019e 9198      		cbi 50-32,1
 388               	.L45:
 389 01a0 2091 0000 		lds r18,prevSCRLED.2391
 390               	.LM72:
 391 01a4 82FF      		sbrs r24,2
 392 01a6 00C0      		rjmp .L46
 393               	.LM73:
 394 01a8 969A      		sbi 50-32,6
 395               	.LM74:
 396 01aa 2223      		tst r18
 397 01ac 01F4      		brne .L52
 398 01ae 00C0      		rjmp .L55
 399               	.L46:
GAS LISTING C:\Users\ADMINI~1\AppData\Local\Temp/ccZqQ0UD.s 			page 8


 400               	.LM75:
 401 01b0 9698      		cbi 50-32,6
 402               	.LM76:
 403 01b2 2130      		cpi r18,lo8(1)
 404 01b4 01F4      		brne .L52
 405 01b6 00C0      		rjmp .L56
 406               	.L55:
 407               	.LM77:
 408 01b8 81E0      		ldi r24,lo8(1)
 409 01ba 8093 0000 		sts prevSCRLED.2391,r24
 410               	.LM78:
 411 01be 452B      		or r20,r21
 412 01c0 01F4      		brne .L50
 413               	.LM79:
 414 01c2 85E0      		ldi r24,lo8(5)
 415 01c4 00C0      		rjmp .L54
 416               	.L50:
 417               	.LM80:
 418 01c6 84E0      		ldi r24,lo8(4)
 419 01c8 00C0      		rjmp .L54
 420               	.L56:
 421               	.LM81:
 422 01ca 1092 0000 		sts prevSCRLED.2391,__zero_reg__
 423               	.LM82:
 424 01ce 452B      		or r20,r21
 425 01d0 01F4      		brne .L51
 426               	.LM83:
 427 01d2 83E0      		ldi r24,lo8(3)
 428               	.L54:
 429 01d4 8093 0000 		sts scrollLockLED,r24
 430 01d8 0895      		ret
 431               	.L51:
 432               	.LM84:
 433 01da 82E0      		ldi r24,lo8(2)
 434 01dc 8093 0000 		sts scrollLockLED,r24
 435               	.L52:
 436 01e0 0895      		ret
 437               	.LFE22:
 438               		.size	setLEDIndicate, .-setLEDIndicate
 439               	.global	applyKeyDownForFullLED
 440               		.type	applyKeyDownForFullLED, @function
 441               	applyKeyDownForFullLED:
 442               	.LFB23:
 443               	.LM85:
 444               	/* prologue: function */
 445               	/* frame size = 0 */
 446               	.LM86:
 447 01e2 8091 0000 		lds r24,_fullLEDMode
 448 01e6 8330      		cpi r24,lo8(3)
 449 01e8 01F4      		brne .L58
 450               	.LM87:
 451 01ea 84EF      		ldi r24,lo8(500)
 452 01ec 91E0      		ldi r25,hi8(500)
 453 01ee 9093 0000 		sts (downLevelStay)+1,r25
 454 01f2 8093 0000 		sts downLevelStay,r24
 455               	.LM88:
 456 01f6 8091 0000 		lds r24,downLevel
GAS LISTING C:\Users\ADMINI~1\AppData\Local\Temp/ccZqQ0UD.s 			page 9


 457 01fa 8C30      		cpi r24,lo8(12)
 458 01fc 00F4      		brsh .L60
 459               	.LM89:
 460 01fe 8F5F      		subi r24,lo8(-(1))
 461 0200 8093 0000 		sts downLevel,r24
 462               	.LM90:
 463 0204 9FEF      		ldi r25,lo8(-1)
 464 0206 899F      		mul r24,r25
 465 0208 C001      		movw r24,r0
 466 020a 1124      		clr r1
 467 020c 6CE0      		ldi r22,lo8(12)
 468 020e 70E0      		ldi r23,hi8(12)
 469 0210 0E94 0000 		call __divmodhi4
 470 0214 6093 0000 		sts downLevelLife,r22
 471 0218 0895      		ret
 472               	.L58:
 473               	.LM91:
 474 021a 8430      		cpi r24,lo8(4)
 475 021c 01F4      		brne .L60
 476               	.LM92:
 477 021e 84EF      		ldi r24,lo8(500)
 478 0220 91E0      		ldi r25,hi8(500)
 479 0222 9093 0000 		sts (downLevelStay)+1,r25
 480 0226 8093 0000 		sts downLevelStay,r24
 481               	.LM93:
 482 022a 8091 0000 		lds r24,downLevel
 483 022e 8823      		tst r24
 484 0230 01F0      		breq .L60
 485               	.LM94:
 486 0232 8150      		subi r24,lo8(-(-1))
 487 0234 8093 0000 		sts downLevel,r24
 488               	.LM95:
 489 0238 9FEF      		ldi r25,lo8(-1)
 490 023a 899F      		mul r24,r25
 491 023c C001      		movw r24,r0
 492 023e 1124      		clr r1
 493 0240 6CE0      		ldi r22,lo8(12)
 494 0242 70E0      		ldi r23,hi8(12)
 495 0244 0E94 0000 		call __divmodhi4
 496 0248 6093 0000 		sts downLevelLife,r22
 497               	.L60:
 498 024c 0895      		ret
 499               	.LFE23:
 500               		.size	applyKeyDownForFullLED, .-applyKeyDownForFullLED
 501               		.type	getBrightness, @function
 502               	getBrightness:
 503               	.LFB25:
 504               	.LM96:
 505               	.LVL8:
 506               	/* prologue: function */
 507               	/* frame size = 0 */
 508               	.LM97:
 509 024e 2091 0000 		lds r18,_ledBrightnessMax
 510 0252 30E0      		ldi r19,lo8(0)
 511 0254 AC01      		movw r20,r24
 512 0256 429F      		mul r20,r18
 513 0258 C001      		movw r24,r0
GAS LISTING C:\Users\ADMINI~1\AppData\Local\Temp/ccZqQ0UD.s 			page 10


 514 025a 439F      		mul r20,r19
 515 025c 900D      		add r25,r0
 516 025e 529F      		mul r21,r18
 517 0260 900D      		add r25,r0
 518 0262 1124      		clr r1
 519               	.LVL9:
 520 0264 6FEF      		ldi r22,lo8(255)
 521 0266 70E0      		ldi r23,hi8(255)
 522 0268 0E94 0000 		call __divmodhi4
 523 026c CB01      		movw r24,r22
 524               	/* epilogue start */
 525               	.LM98:
 526 026e 0895      		ret
 527               	.LFE25:
 528               		.size	getBrightness, .-getBrightness
 529               		.type	fadeLED, @function
 530               	fadeLED:
 531               	.LFB26:
 532               	.LM99:
 533 0270 CF93      		push r28
 534 0272 DF93      		push r29
 535               	/* prologue: function */
 536               	/* frame size = 0 */
 537               	.LM100:
 538 0274 8091 0000 		lds r24,_fullLEDMode
 539 0278 8130      		cpi r24,lo8(1)
 540 027a 01F0      		breq .+2
 541 027c 00C0      		rjmp .L64
 542               	.LM101:
 543 027e C091 0000 		lds r28,pwmDir
 544 0282 D091 0000 		lds r29,(pwmDir)+1
 545 0286 2097      		sbiw r28,0
 546 0288 01F4      		brne .L65
 547               	.LM102:
 548 028a 8091 0000 		lds r24,pwmCounter
 549 028e 9091 0000 		lds r25,(pwmCounter)+1
 550 0292 68E0      		ldi r22,lo8(8)
 551 0294 70E0      		ldi r23,hi8(8)
 552 0296 0E94 0000 		call __divmodhi4
 553 029a CB01      		movw r24,r22
 554 029c 0E94 0000 		call getBrightness
 555 02a0 00C0      		rjmp .L80
 556               	.L65:
 557               	.LM103:
 558 02a2 C230      		cpi r28,2
 559 02a4 D105      		cpc r29,__zero_reg__
 560 02a6 01F4      		brne .L67
 561               	.LM104:
 562 02a8 8091 0000 		lds r24,pwmCounter
 563 02ac 9091 0000 		lds r25,(pwmCounter)+1
 564 02b0 68E0      		ldi r22,lo8(8)
 565 02b2 70E0      		ldi r23,hi8(8)
 566 02b4 0E94 0000 		call __divmodhi4
 567 02b8 CB01      		movw r24,r22
 568 02ba 9095      		com r25
 569 02bc 8195      		neg r24
 570 02be 9F4F      		sbci r25,lo8(-1)
GAS LISTING C:\Users\ADMINI~1\AppData\Local\Temp/ccZqQ0UD.s 			page 11


 571 02c0 8150      		subi r24,lo8(-(255))
 572 02c2 9F4F      		sbci r25,hi8(-(255))
 573 02c4 0E94 0000 		call getBrightness
 574               	.L80:
 575 02c8 90E0      		ldi r25,lo8(0)
 576 02ca 0E94 0000 		call setPWM
 577 02ce 00C0      		rjmp .L66
 578               	.L67:
 579               	.LM105:
 580 02d0 C130      		cpi r28,1
 581 02d2 D105      		cpc r29,__zero_reg__
 582 02d4 01F0      		breq .L68
 583 02d6 C330      		cpi r28,3
 584 02d8 D105      		cpc r29,__zero_reg__
 585 02da 01F4      		brne .L66
 586               	.L68:
 587               	.LM106:
 588 02dc 8091 0000 		lds r24,pwmCounter
 589 02e0 9091 0000 		lds r25,(pwmCounter)+1
 590 02e4 0196      		adiw r24,1
 591 02e6 9093 0000 		sts (pwmCounter)+1,r25
 592 02ea 8093 0000 		sts pwmCounter,r24
 593               	.L66:
 594               	.LM107:
 595 02ee 8091 0000 		lds r24,pwmCounter
 596 02f2 9091 0000 		lds r25,(pwmCounter)+1
 597 02f6 885F      		subi r24,lo8(2040)
 598 02f8 9740      		sbci r25,hi8(2040)
 599 02fa 04F0      		brlt .L69
 600               	.LM108:
 601 02fc 1092 0000 		sts (pwmCounter)+1,__zero_reg__
 602 0300 1092 0000 		sts pwmCounter,__zero_reg__
 603               	.LM109:
 604 0304 CE01      		movw r24,r28
 605 0306 0196      		adiw r24,1
 606 0308 64E0      		ldi r22,lo8(4)
 607 030a 70E0      		ldi r23,hi8(4)
 608 030c 0E94 0000 		call __divmodhi4
 609 0310 9093 0000 		sts (pwmDir)+1,r25
 610 0314 8093 0000 		sts pwmDir,r24
 611               	.L69:
 612               	.LM110:
 613 0318 8091 0000 		lds r24,pwmCounter
 614 031c 9091 0000 		lds r25,(pwmCounter)+1
 615 0320 0196      		adiw r24,1
 616 0322 9093 0000 		sts (pwmCounter)+1,r25
 617 0326 8093 0000 		sts pwmCounter,r24
 618 032a 00C0      		rjmp .L79
 619               	.L64:
 620               	.LM111:
 621 032c 8330      		cpi r24,lo8(3)
 622 032e 01F4      		brne .L71
 623               	.LM112:
 624 0330 8091 0000 		lds r24,downLevelStay
 625 0334 9091 0000 		lds r25,(downLevelStay)+1
 626 0338 0097      		sbiw r24,0
 627 033a 01F0      		breq .L72
GAS LISTING C:\Users\ADMINI~1\AppData\Local\Temp/ccZqQ0UD.s 			page 12


 628               	.LM113:
 629 033c 0197      		sbiw r24,1
 630 033e 9093 0000 		sts (downLevelStay)+1,r25
 631 0342 8093 0000 		sts downLevelStay,r24
 632 0346 00C0      		rjmp .L73
 633               	.L72:
 634               	.LM114:
 635 0348 2091 0000 		lds r18,downLevelLife
 636 034c 2223      		tst r18
 637 034e 01F0      		breq .L74
 638               	.LM115:
 639 0350 8091 0000 		lds r24,pwmCounter
 640 0354 9091 0000 		lds r25,(pwmCounter)+1
 641 0358 0196      		adiw r24,1
 642 035a 9093 0000 		sts (pwmCounter)+1,r25
 643 035e 8093 0000 		sts pwmCounter,r24
 644               	.LM116:
 645 0362 0897      		sbiw r24,8
 646 0364 04F0      		brlt .L73
 647               	.LM117:
 648 0366 1092 0000 		sts (pwmCounter)+1,__zero_reg__
 649 036a 1092 0000 		sts pwmCounter,__zero_reg__
 650               	.LM118:
 651 036e 2150      		subi r18,lo8(-(-1))
 652 0370 2093 0000 		sts downLevelLife,r18
 653               	.LM119:
 654 0374 8FEF      		ldi r24,lo8(255)
 655 0376 90E0      		ldi r25,hi8(255)
 656 0378 821B      		sub r24,r18
 657 037a 9109      		sbc r25,__zero_reg__
 658 037c 6BEE      		ldi r22,lo8(-21)
 659 037e 7FEF      		ldi r23,hi8(-21)
 660 0380 0E94 0000 		call __divmodhi4
 661 0384 645F      		subi r22,lo8(-(12))
 662 0386 6093 0000 		sts downLevel,r22
 663 038a 00C0      		rjmp .L73
 664               	.L74:
 665               	.LM120:
 666 038c 1092 0000 		sts downLevel,__zero_reg__
 667               	.LM121:
 668 0390 1092 0000 		sts (pwmCounter)+1,__zero_reg__
 669 0394 1092 0000 		sts pwmCounter,__zero_reg__
 670               	.L73:
 671               	.LM122:
 672 0398 8091 0000 		lds r24,downLevelLife
 673 039c 90E0      		ldi r25,lo8(0)
 674 039e 0E94 0000 		call getBrightness
 675 03a2 00C0      		rjmp .L81
 676               	.L71:
 677               	.LM123:
 678 03a4 8430      		cpi r24,lo8(4)
 679 03a6 01F0      		breq .+2
 680 03a8 00C0      		rjmp .L75
 681               	.LM124:
 682 03aa 8091 0000 		lds r24,downLevelStay
 683 03ae 9091 0000 		lds r25,(downLevelStay)+1
 684 03b2 0097      		sbiw r24,0
GAS LISTING C:\Users\ADMINI~1\AppData\Local\Temp/ccZqQ0UD.s 			page 13


 685 03b4 01F0      		breq .L76
 686               	.LM125:
 687 03b6 0197      		sbiw r24,1
 688 03b8 9093 0000 		sts (downLevelStay)+1,r25
 689 03bc 8093 0000 		sts downLevelStay,r24
 690 03c0 00C0      		rjmp .L77
 691               	.L76:
 692               	.LM126:
 693 03c2 2091 0000 		lds r18,downLevelLife
 694 03c6 2F3F      		cpi r18,lo8(-1)
 695 03c8 01F0      		breq .L78
 696               	.LM127:
 697 03ca 8091 0000 		lds r24,pwmCounter
 698 03ce 9091 0000 		lds r25,(pwmCounter)+1
 699 03d2 0196      		adiw r24,1
 700 03d4 9093 0000 		sts (pwmCounter)+1,r25
 701 03d8 8093 0000 		sts pwmCounter,r24
 702               	.LM128:
 703 03dc 0897      		sbiw r24,8
 704 03de 04F0      		brlt .L77
 705               	.LM129:
 706 03e0 1092 0000 		sts (pwmCounter)+1,__zero_reg__
 707 03e4 1092 0000 		sts pwmCounter,__zero_reg__
 708               	.LM130:
 709 03e8 2F5F      		subi r18,lo8(-(1))
 710 03ea 2093 0000 		sts downLevelLife,r18
 711               	.LM131:
 712 03ee 8FEF      		ldi r24,lo8(255)
 713 03f0 90E0      		ldi r25,hi8(255)
 714 03f2 821B      		sub r24,r18
 715 03f4 9109      		sbc r25,__zero_reg__
 716 03f6 6BEE      		ldi r22,lo8(-21)
 717 03f8 7FEF      		ldi r23,hi8(-21)
 718 03fa 0E94 0000 		call __divmodhi4
 719 03fe 645F      		subi r22,lo8(-(12))
 720 0400 6093 0000 		sts downLevel,r22
 721 0404 00C0      		rjmp .L77
 722               	.L78:
 723               	.LM132:
 724 0406 8CE0      		ldi r24,lo8(12)
 725 0408 8093 0000 		sts downLevel,r24
 726               	.LM133:
 727 040c 1092 0000 		sts (pwmCounter)+1,__zero_reg__
 728 0410 1092 0000 		sts pwmCounter,__zero_reg__
 729               	.L77:
 730               	.LM134:
 731 0414 8091 0000 		lds r24,downLevelLife
 732 0418 90E0      		ldi r25,lo8(0)
 733 041a 0E94 0000 		call getBrightness
 734               	.L81:
 735 041e 90E0      		ldi r25,lo8(0)
 736 0420 0E94 0000 		call setPWM
 737 0424 00C0      		rjmp .L79
 738               	.L75:
 739               	.LM135:
 740 0426 1092 0000 		sts (pwmCounter)+1,__zero_reg__
 741 042a 1092 0000 		sts pwmCounter,__zero_reg__
GAS LISTING C:\Users\ADMINI~1\AppData\Local\Temp/ccZqQ0UD.s 			page 14


 742               	.LM136:
 743 042e 83E0      		ldi r24,lo8(3)
 744 0430 90E0      		ldi r25,hi8(3)
 745 0432 9093 0000 		sts (pwmDir)+1,r25
 746 0436 8093 0000 		sts pwmDir,r24
 747               	.L79:
 748               	/* epilogue start */
 749               	.LM137:
 750 043a DF91      		pop r29
 751 043c CF91      		pop r28
 752 043e 0895      		ret
 753               	.LFE26:
 754               		.size	fadeLED, .-fadeLED
 755               	.global	fadePWM
 756               		.type	fadePWM, @function
 757               	fadePWM:
 758               	.LFB20:
 759               	.LM138:
 760               	/* prologue: function */
 761               	/* frame size = 0 */
 762               	.LM139:
 763 0440 0E94 0000 		call fadeLED
 764               	/* epilogue start */
 765               	.LM140:
 766 0444 0895      		ret
 767               	.LFE20:
 768               		.size	fadePWM, .-fadePWM
 769               	.global	sleepLED
 770               		.type	sleepLED, @function
 771               	sleepLED:
 772               	.LFB29:
 773               	.LM141:
 774               	/* prologue: function */
 775               	/* frame size = 0 */
 776               	.LM142:
 777 0446 9098      		cbi 50-32,0
 778               	.LM143:
 779 0448 9198      		cbi 50-32,1
 780               	.LM144:
 781 044a 9698      		cbi 50-32,6
 782               	.LM145:
 783 044c 8091 0000 		lds r24,_fullLEDMode
 784 0450 8230      		cpi r24,lo8(2)
 785 0452 01F0      		breq .L85
 786 0454 8430      		cpi r24,lo8(4)
 787 0456 01F4      		brne .L86
 788               	.L85:
 789               	.LM146:
 790 0458 1092 0000 		sts (pwmCounter)+1,__zero_reg__
 791 045c 1092 0000 		sts pwmCounter,__zero_reg__
 792 0460 00C0      		rjmp .L89
 793               	.L86:
 794               	.LM147:
 795 0462 8823      		tst r24
 796 0464 01F0      		breq .L88
 797 0466 8330      		cpi r24,lo8(3)
 798 0468 01F4      		brne .L89
GAS LISTING C:\Users\ADMINI~1\AppData\Local\Temp/ccZqQ0UD.s 			page 15


 799               	.L88:
 800               	.LM148:
 801 046a 81E0      		ldi r24,lo8(1)
 802 046c 8093 0000 		sts _isDidSleep,r24
 803 0470 0895      		ret
 804               	.L89:
 805               	.LM149:
 806 0472 1092 0000 		sts _isDidSleep,__zero_reg__
 807 0476 0895      		ret
 808               	.LFE29:
 809               		.size	sleepLED, .-sleepLED
 810               	.global	wakeUpLED
 811               		.type	wakeUpLED, @function
 812               	wakeUpLED:
 813               	.LFB30:
 814               	.LM150:
 815               	/* prologue: function */
 816               	/* frame size = 0 */
 817               	.LM151:
 818 0478 0E94 0000 		call setLEDIndicate
 819               	.LM152:
 820 047c 0E94 0000 		call setFullLEDState
 821               	/* epilogue start */
 822               	.LM153:
 823 0480 0895      		ret
 824               	.LFE30:
 825               		.size	wakeUpLED, .-wakeUpLED
 826               	.global	doSleep
 827               		.type	doSleep, @function
 828               	doSleep:
 829               	.LFB31:
 830               	.LM154:
 831 0482 CF93      		push r28
 832 0484 DF93      		push r29
 833               	/* prologue: function */
 834               	/* frame size = 0 */
 835               	.LM155:
 836 0486 8091 0000 		lds r24,_isDidSleep
 837 048a 8130      		cpi r24,lo8(1)
 838 048c 01F0      		breq .L96
 839               	.LM156:
 840 048e C091 0000 		lds r28,pwmCounter
 841 0492 D091 0000 		lds r29,(pwmCounter)+1
 842 0496 CE01      		movw r24,r28
 843 0498 68E0      		ldi r22,lo8(8)
 844 049a 70E0      		ldi r23,hi8(8)
 845 049c 0E94 0000 		call __divmodhi4
 846 04a0 CB01      		movw r24,r22
 847 04a2 9095      		com r25
 848 04a4 8195      		neg r24
 849 04a6 9F4F      		sbci r25,lo8(-1)
 850 04a8 8150      		subi r24,lo8(-(255))
 851 04aa 9F4F      		sbci r25,hi8(-(255))
 852 04ac 0E94 0000 		call getBrightness
 853 04b0 90E0      		ldi r25,lo8(0)
 854 04b2 0E94 0000 		call setPWM
 855               	.LM157:
GAS LISTING C:\Users\ADMINI~1\AppData\Local\Temp/ccZqQ0UD.s 			page 16


 856 04b6 87E0      		ldi r24,hi8(2040)
 857 04b8 C83F      		cpi r28,lo8(2040)
 858 04ba D807      		cpc r29,r24
 859 04bc 04F0      		brlt .L95
 860               	.LM158:
 861 04be 80E0      		ldi r24,lo8(0)
 862 04c0 90E0      		ldi r25,hi8(0)
 863 04c2 0E94 0000 		call setPWM
 864               	.LM159:
 865 04c6 9498      		cbi 50-32,4
 866               	.LM160:
 867 04c8 81E0      		ldi r24,lo8(1)
 868 04ca 8093 0000 		sts _isDidSleep,r24
 869               	.L95:
 870               	.LM161:
 871 04ce 2196      		adiw r28,1
 872 04d0 D093 0000 		sts (pwmCounter)+1,r29
 873 04d4 C093 0000 		sts pwmCounter,r28
 874               	.L96:
 875               	/* epilogue start */
 876               	.LM162:
 877 04d8 DF91      		pop r29
 878 04da CF91      		pop r28
 879 04dc 0895      		ret
 880               	.LFE31:
 881               		.size	doSleep, .-doSleep
 882               	.global	renderLED
 883               		.type	renderLED, @function
 884               	renderLED:
 885               	.LFB32:
 886               	.LM163:
 887               	.LVL10:
 888 04de 1F93      		push r17
 889               	/* prologue: function */
 890               	/* frame size = 0 */
 891 04e0 182F      		mov r17,r24
 892               	.LM164:
 893 04e2 8091 0000 		lds r24,ledInited
 894               	.LVL11:
 895 04e6 8823      		tst r24
 896 04e8 01F4      		brne .+2
 897 04ea 00C0      		rjmp .L117
 898               	.LM165:
 899 04ec 0E94 0000 		call isSleep
 900 04f0 8823      		tst r24
 901 04f2 01F0      		breq .L99
 902               	.LM166:
 903 04f4 0E94 0000 		call doSleep
 904 04f8 00C0      		rjmp .L117
 905               	.L99:
 906               	.LBB28:
 907               	.LM167:
 908 04fa 0E94 0000 		call isBootMapper
 909               	.LBB29:
 910 04fe 8823      		tst r24
 911 0500 01F0      		breq .L100
 912 0502 42E0      		ldi r20,lo8(2)
GAS LISTING C:\Users\ADMINI~1\AppData\Local\Temp/ccZqQ0UD.s 			page 17


 913               	.LVL12:
 914 0504 00C0      		rjmp .L101
 915               	.LVL13:
 916               	.L100:
 917               	.LM168:
 918 0506 1130      		cpi r17,lo8(1)
 919 0508 01F0      		breq .+2
 920 050a 00C0      		rjmp .L102
 921 050c 41E0      		ldi r20,lo8(1)
 922               	.LVL14:
 923               	.L101:
 924               	.LM169:
 925 050e 8091 0000 		lds r24,beyondFNDelayCounter.2483
 926 0512 9091 0000 		lds r25,(beyondFNDelayCounter.2483)+1
 927 0516 0196      		adiw r24,1
 928 0518 9093 0000 		sts (beyondFNDelayCounter.2483)+1,r25
 929 051c 8093 0000 		sts beyondFNDelayCounter.2483,r24
 930               	.LM170:
 931 0520 2091 0000 		lds r18,beyondFNCountDelay
 932 0524 3091 0000 		lds r19,(beyondFNCountDelay)+1
 933 0528 2817      		cp r18,r24
 934 052a 3907      		cpc r19,r25
 935 052c 04F4      		brge .L103
 936               	.LM171:
 937 052e 8091 0000 		lds r24,beyondFNCounter.2482
 938 0532 9091 0000 		lds r25,(beyondFNCounter.2482)+1
 939 0536 0196      		adiw r24,1
 940 0538 9093 0000 		sts (beyondFNCounter.2482)+1,r25
 941 053c 8093 0000 		sts beyondFNCounter.2482,r24
 942               	.LM172:
 943 0540 893C      		cpi r24,201
 944 0542 9105      		cpc r25,__zero_reg__
 945 0544 04F0      		brlt .L103
 946               	.LBE29:
 947               	.LM173:
 948 0546 8091 0000 		lds r24,LEDstate
 949 054a 9091 0000 		lds r25,beyondFNLEDState.2484
 950 054e 80FF      		sbrs r24,0
 951 0550 00C0      		rjmp .L104
 952               	.LBB30:
 953               	.LM174:
 954 0552 9130      		cpi r25,lo8(1)
 955 0554 01F4      		brne .L105
 956               	.LM175:
 957 0556 82B3      		in r24,50-32
 958 0558 4095      		com r20
 959 055a 4823      		and r20,r24
 960 055c 00C0      		rjmp .L118
 961               	.L105:
 962               	.LM176:
 963 055e 82B3      		in r24,50-32
 964 0560 482B      		or r20,r24
 965 0562 00C0      		rjmp .L119
 966               	.L104:
 967               	.LM177:
 968 0564 9130      		cpi r25,lo8(1)
 969 0566 01F4      		brne .L107
GAS LISTING C:\Users\ADMINI~1\AppData\Local\Temp/ccZqQ0UD.s 			page 18


 970               	.LM178:
 971 0568 82B3      		in r24,50-32
 972 056a 482B      		or r20,r24
 973               	.L118:
 974 056c 42BB      		out 50-32,r20
 975 056e 00C0      		rjmp .L106
 976               	.L107:
 977               	.LM179:
 978 0570 82B3      		in r24,50-32
 979 0572 4095      		com r20
 980 0574 4823      		and r20,r24
 981               	.L119:
 982 0576 42BB      		out 50-32,r20
 983               	.LM180:
 984 0578 1092 0000 		sts (beyondFNDelayCounter.2483)+1,__zero_reg__
 985 057c 1092 0000 		sts beyondFNDelayCounter.2483,__zero_reg__
 986               	.L106:
 987               	.LM181:
 988 0580 8091 0000 		lds r24,beyondFNLEDState.2484
 989 0584 91E0      		ldi r25,lo8(1)
 990 0586 8927      		eor r24,r25
 991 0588 8093 0000 		sts beyondFNLEDState.2484,r24
 992               	.LM182:
 993 058c 1092 0000 		sts (beyondFNCounter.2482)+1,__zero_reg__
 994 0590 1092 0000 		sts beyondFNCounter.2482,__zero_reg__
 995 0594 00C0      		rjmp .L103
 996               	.LVL15:
 997               	.L102:
 998               	.LM183:
 999 0596 1092 0000 		sts (beyondFNCounter.2482)+1,__zero_reg__
 1000 059a 1092 0000 		sts beyondFNCounter.2482,__zero_reg__
 1001               	.LM184:
 1002 059e 81E0      		ldi r24,lo8(1)
 1003 05a0 8093 0000 		sts beyondFNLEDState.2484,r24
 1004               	.LVL16:
 1005               	.L103:
 1006               	.LBE30:
 1007               	.LBE28:
 1008               	.LBB31:
 1009               	.LBB32:
 1010               	.LM185:
 1011 05a4 2091 0000 		lds r18,scrollLockLED
 1012 05a8 2223      		tst r18
 1013 05aa 01F0      		breq .L108
 1014               	.LM186:
 1015 05ac 8091 0000 		lds r24,counter.2517
 1016 05b0 9091 0000 		lds r25,(counter.2517)+1
 1017 05b4 0196      		adiw r24,1
 1018 05b6 9093 0000 		sts (counter.2517)+1,r25
 1019 05ba 8093 0000 		sts counter.2517,r24
 1020               	.LM187:
 1021 05be 8536      		cpi r24,101
 1022 05c0 9105      		cpc r25,__zero_reg__
 1023 05c2 04F0      		brlt .L109
 1024               	.LM188:
 1025 05c4 2530      		cpi r18,lo8(5)
 1026 05c6 01F0      		breq .L120
GAS LISTING C:\Users\ADMINI~1\AppData\Local\Temp/ccZqQ0UD.s 			page 19


 1027 05c8 2330      		cpi r18,lo8(3)
 1028 05ca 01F0      		breq .L120
 1029               	.L111:
 1030               	.LM189:
 1031 05cc 2430      		cpi r18,lo8(4)
 1032 05ce 01F0      		breq .L113
 1033 05d0 2230      		cpi r18,lo8(2)
 1034 05d2 01F4      		brne .L114
 1035               	.L113:
 1036               	.LM190:
 1037 05d4 9198      		cbi 50-32,1
 1038 05d6 00C0      		rjmp .L112
 1039               	.L114:
 1040               	.LM191:
 1041 05d8 8091 0000 		lds r24,LEDstate
 1042 05dc 81FD      		sbrc r24,1
 1043               	.L120:
 1044               	.LM192:
 1045 05de 919A      		sbi 50-32,1
 1046               	.L112:
 1047               	.LM193:
 1048 05e0 1092 0000 		sts (counter.2517)+1,__zero_reg__
 1049 05e4 1092 0000 		sts counter.2517,__zero_reg__
 1050               	.LM194:
 1051 05e8 2150      		subi r18,lo8(-(-1))
 1052 05ea 2093 0000 		sts scrollLockLED,r18
 1053 05ee 00C0      		rjmp .L109
 1054               	.L108:
 1055               	.LM195:
 1056 05f0 1092 0000 		sts (counter.2517)+1,__zero_reg__
 1057 05f4 1092 0000 		sts counter.2517,__zero_reg__
 1058               	.L109:
 1059               	.LBE32:
 1060               	.LBE31:
 1061               	.LBB33:
 1062               	.LBB34:
 1063               	.LM196:
 1064 05f8 8091 0000 		lds r24,ledStateCount
 1065 05fc 9091 0000 		lds r25,(ledStateCount)+1
 1066 0600 1816      		cp __zero_reg__,r24
 1067 0602 1906      		cpc __zero_reg__,r25
 1068 0604 04F4      		brge .L115
 1069 0606 0196      		adiw r24,1
 1070 0608 9093 0000 		sts (ledStateCount)+1,r25
 1071 060c 8093 0000 		sts ledStateCount,r24
 1072 0610 885E      		subi r24,lo8(1000)
 1073 0612 9340      		sbci r25,hi8(1000)
 1074 0614 01F4      		brne .L115
 1075               	.LM197:
 1076 0616 1092 0000 		sts (ledStateCount)+1,__zero_reg__
 1077 061a 1092 0000 		sts ledStateCount,__zero_reg__
 1078               	.LM198:
 1079 061e 6091 0000 		lds r22,_fullLEDMode
 1080 0622 8091 0000 		lds r24,_fullLEDMode_saved
 1081 0626 6817      		cp r22,r24
 1082 0628 01F0      		breq .L116
 1083               	.LM199:
GAS LISTING C:\Users\ADMINI~1\AppData\Local\Temp/ccZqQ0UD.s 			page 20


 1084 062a 6093 0000 		sts _fullLEDMode_saved,r22
 1085               	.LM200:
 1086 062e 8BE0      		ldi r24,lo8(11)
 1087 0630 90E0      		ldi r25,hi8(11)
 1088 0632 0E94 0000 		call __eewr_byte_m32
 1089               	.LVL17:
 1090               	.L116:
 1091               	.LM201:
 1092 0636 6091 0000 		lds r22,_ledBrightnessMax
 1093 063a 8091 0000 		lds r24,_ledBrightnessMax_saved
 1094 063e 8617      		cp r24,r22
 1095 0640 01F0      		breq .L115
 1096               	.LM202:
 1097 0642 6093 0000 		sts _ledBrightnessMax_saved,r22
 1098               	.LM203:
 1099 0646 89E0      		ldi r24,lo8(9)
 1100 0648 90E0      		ldi r25,hi8(9)
 1101 064a 0E94 0000 		call __eewr_byte_m32
 1102               	.LVL18:
 1103               	.L115:
 1104               	.LBE34:
 1105               	.LBE33:
 1106               	.LBB35:
 1107               	.LBB36:
 1108               	.LM204:
 1109 064e 0E94 0000 		call fadeLED
 1110               	.LVL19:
 1111               	.L117:
 1112               	/* epilogue start */
 1113               	.LBE36:
 1114               	.LBE35:
 1115               	.LM205:
 1116 0652 1F91      		pop r17
 1117               	.LVL20:
 1118 0654 0895      		ret
 1119               	.LFE32:
 1120               		.size	renderLED, .-renderLED
 1121               	.global	initFullLEDState
 1122               		.type	initFullLEDState, @function
 1123               	initFullLEDState:
 1124               	.LFB21:
 1125               	.LM206:
 1126               	/* prologue: function */
 1127               	/* frame size = 0 */
 1128               	.LM207:
 1129 0656 8091 0000 		lds r24,ledInited
 1130 065a 8823      		tst r24
 1131 065c 01F0      		breq .+2
 1132 065e 00C0      		rjmp .L125
 1133               	.LM208:
 1134 0660 81E0      		ldi r24,lo8(1)
 1135 0662 8093 0000 		sts ledInited,r24
 1136               	.LM209:
 1137 0666 82E0      		ldi r24,lo8(2)
 1138 0668 60E0      		ldi r22,lo8(gs(timerProcessCompareA))
 1139 066a 70E0      		ldi r23,hi8(gs(timerProcessCompareA))
 1140 066c 0E94 0000 		call timerAttach
GAS LISTING C:\Users\ADMINI~1\AppData\Local\Temp/ccZqQ0UD.s 			page 21


 1141               	.LM210:
 1142 0670 83E0      		ldi r24,lo8(3)
 1143 0672 60E0      		ldi r22,lo8(gs(timerProcessCompareB))
 1144 0674 70E0      		ldi r23,hi8(gs(timerProcessCompareB))
 1145 0676 0E94 0000 		call timerAttach
 1146               	.LM211:
 1147 067a 8FB5      		in r24,79-32
 1148 067c 8E7F      		andi r24,lo8(-2)
 1149 067e 8FBD      		out 79-32,r24
 1150               	.LM212:
 1151 0680 8FB5      		in r24,79-32
 1152 0682 8D7F      		andi r24,lo8(-3)
 1153 0684 8FBD      		out 79-32,r24
 1154               	.LM213:
 1155 0686 8EB5      		in r24,78-32
 1156 0688 8860      		ori r24,lo8(8)
 1157 068a 8EBD      		out 78-32,r24
 1158               	.LM214:
 1159 068c 8EB5      		in r24,78-32
 1160 068e 8061      		ori r24,lo8(16)
 1161 0690 8EBD      		out 78-32,r24
 1162               	.LM215:
 1163 0692 8091 0000 		lds r24,pwmMAX
 1164 0696 9091 0000 		lds r25,(pwmMAX)+1
 1165 069a 97BD      		out (70)+1-32,r25
 1166 069c 86BD      		out 70-32,r24
 1167               	.LM216:
 1168 069e 1BBC      		out (74)+1-32,__zero_reg__
 1169 06a0 1ABC      		out 74-32,__zero_reg__
 1170               	.LM217:
 1171 06a2 86B5      		in r24,70-32
 1172 06a4 97B5      		in r25,(70)+1-32
 1173 06a6 99BD      		out (72)+1-32,r25
 1174 06a8 88BD      		out 72-32,r24
 1175               	.LM218:
 1176 06aa 8FB5      		in r24,79-32
 1177 06ac 8F77      		andi r24,lo8(127)
 1178 06ae 8FBD      		out 79-32,r24
 1179               	.LM219:
 1180 06b0 8FB5      		in r24,79-32
 1181 06b2 8F7B      		andi r24,lo8(-65)
 1182 06b4 8FBD      		out 79-32,r24
 1183               	.LM220:
 1184 06b6 8FB5      		in r24,79-32
 1185 06b8 8F7D      		andi r24,lo8(-33)
 1186 06ba 8FBD      		out 79-32,r24
 1187               	.LM221:
 1188 06bc 8FB5      		in r24,79-32
 1189 06be 8F7E      		andi r24,lo8(-17)
 1190 06c0 8FBD      		out 79-32,r24
 1191               	.LM222:
 1192 06c2 1DBC      		out (76)+1-32,__zero_reg__
 1193 06c4 1CBC      		out 76-32,__zero_reg__
 1194               	.LM223:
 1195 06c6 89B7      		in r24,89-32
 1196 06c8 8061      		ori r24,lo8(16)
 1197 06ca 89BF      		out 89-32,r24
GAS LISTING C:\Users\ADMINI~1\AppData\Local\Temp/ccZqQ0UD.s 			page 22


 1198               	.LM224:
 1199 06cc 89B7      		in r24,89-32
 1200 06ce 8860      		ori r24,lo8(8)
 1201 06d0 89BF      		out 89-32,r24
 1202               	.LBB37:
 1203               	.LBB38:
 1204               	.LM225:
 1205 06d2 8EB5      		in r24,78-32
 1206 06d4 8460      		ori r24,lo8(4)
 1207 06d6 8EBD      		out 78-32,r24
 1208               	.LBE38:
 1209               	.LBE37:
 1210               	.LM226:
 1211 06d8 89E0      		ldi r24,lo8(9)
 1212 06da 90E0      		ldi r25,hi8(9)
 1213 06dc 0E94 0000 		call __eerd_byte_m32
 1214 06e0 8093 0000 		sts _ledBrightnessMax,r24
 1215               	.LM227:
 1216 06e4 8093 0000 		sts _ledBrightnessMax_saved,r24
 1217               	.LM228:
 1218 06e8 8BE0      		ldi r24,lo8(11)
 1219 06ea 90E0      		ldi r25,hi8(11)
 1220 06ec 0E94 0000 		call __eerd_byte_m32
 1221 06f0 8093 0000 		sts _fullLEDMode,r24
 1222               	.LM229:
 1223 06f4 8F3F      		cpi r24,lo8(-1)
 1224 06f6 01F4      		brne .L123
 1225               	.LM230:
 1226 06f8 1092 0000 		sts _fullLEDMode,__zero_reg__
 1227               	.L123:
 1228               	.LM231:
 1229 06fc 8091 0000 		lds r24,_fullLEDMode
 1230 0700 8093 0000 		sts _fullLEDMode_saved,r24
 1231               	.LM232:
 1232 0704 0E94 0000 		call setFullLEDState
 1233               	.LM233:
 1234 0708 8091 0000 		lds r24,INTERFACE
 1235 070c 8823      		tst r24
 1236 070e 01F0      		breq .L124
 1237 0710 8330      		cpi r24,lo8(3)
 1238 0712 01F4      		brne .L125
 1239               	.L124:
 1240               	.LM234:
 1241 0714 8091 0000 		lds r24,beyondFNCountDelay
 1242 0718 9091 0000 		lds r25,(beyondFNCountDelay)+1
 1243 071c 9595      		asr r25
 1244 071e 8795      		ror r24
 1245 0720 9093 0000 		sts (beyondFNCountDelay)+1,r25
 1246 0724 8093 0000 		sts beyondFNCountDelay,r24
 1247               	.L125:
 1248 0728 0895      		ret
 1249               	.LFE21:
 1250               		.size	initFullLEDState, .-initFullLEDState
 1251               	.global	pwmMAX
 1252               		.data
 1253               		.type	pwmMAX, @object
 1254               		.size	pwmMAX, 2
GAS LISTING C:\Users\ADMINI~1\AppData\Local\Temp/ccZqQ0UD.s 			page 23


 1255               	pwmMAX:
 1256 0000 FF00      		.word	255
 1257               	.global	pwmMIN
 1258               	.global	pwmMIN
 1259               		.section .bss
 1260               		.type	pwmMIN, @object
 1261               		.size	pwmMIN, 2
 1262               	pwmMIN:
 1263 0000 0000      		.skip 2,0
 1264               	.global	pwmValue
 1265               	.global	pwmValue
 1266               		.type	pwmValue, @object
 1267               		.size	pwmValue, 2
 1268               	pwmValue:
 1269 0002 0000      		.skip 2,0
 1270               		.lcomm ledInited,1
 1271               		.data
 1272               		.type	beyondFNCountDelay, @object
 1273               		.size	beyondFNCountDelay, 2
 1274               	beyondFNCountDelay:
 1275 0002 0807      		.word	1800
 1276               		.type	beyondFNLEDState.2484, @object
 1277               		.size	beyondFNLEDState.2484, 1
 1278               	beyondFNLEDState.2484:
 1279 0004 01        		.byte	1
 1280               		.lcomm beyondFNDelayCounter.2483,2
 1281               		.lcomm beyondFNCounter.2482,2
 1282               		.lcomm scrollLockLED,1
 1283               		.lcomm counter.2517,2
 1284               		.lcomm ledStateCount,2
 1285               		.lcomm _fullLEDMode,1
 1286               		.lcomm _fullLEDMode_saved,1
 1287               		.lcomm _ledBrightnessMax_saved,1
 1288               		.type	_ledBrightnessMax, @object
 1289               		.size	_ledBrightnessMax, 1
 1290               	_ledBrightnessMax:
 1291 0005 FF        		.byte	-1
 1292               		.lcomm _isDidSleep,1
 1293               		.lcomm pwmCounter,2
 1294               		.lcomm pwmDir,2
 1295               		.lcomm downLevel,1
 1296               		.lcomm downLevelLife,1
 1297               		.lcomm downLevelStay,2
 1298               		.lcomm LEDstate,1
 1299               		.lcomm prevSCRLED.2391,1
 1300               		.lcomm prevPwmValue.2332,2
 1301               		.section	.debug_frame,"",@progbits
 1302               	.Lframe0:
 1303 0000 0C00 0000 		.long	.LECIE0-.LSCIE0
 1304               	.LSCIE0:
 1305 0004 FFFF FFFF 		.long	0xffffffff
 1306 0008 01        		.byte	0x1
 1307 0009 00        		.string	""
 1308 000a 01        		.uleb128 0x1
 1309 000b 7F        		.sleb128 -1
 1310 000c 24        		.byte	0x24
 1311 000d 0C        		.byte	0xc
GAS LISTING C:\Users\ADMINI~1\AppData\Local\Temp/ccZqQ0UD.s 			page 24


 1312 000e 20        		.uleb128 0x20
 1313 000f 00        		.uleb128 0x0
 1314               		.p2align	2
 1315               	.LECIE0:
 1316               	.LSFDE0:
 1317 0010 0C00 0000 		.long	.LEFDE0-.LASFDE0
 1318               	.LASFDE0:
 1319 0014 0000 0000 		.long	.Lframe0
 1320 0018 0000 0000 		.long	.LFB8
 1321 001c 0600 0000 		.long	.LFE8-.LFB8
 1322               		.p2align	2
 1323               	.LEFDE0:
 1324               	.LSFDE2:
 1325 0020 0C00 0000 		.long	.LEFDE2-.LASFDE2
 1326               	.LASFDE2:
 1327 0024 0000 0000 		.long	.Lframe0
 1328 0028 0000 0000 		.long	.LFB9
 1329 002c 0600 0000 		.long	.LFE9-.LFB9
 1330               		.p2align	2
 1331               	.LEFDE2:
 1332               	.LSFDE4:
 1333 0030 0C00 0000 		.long	.LEFDE4-.LASFDE4
 1334               	.LASFDE4:
 1335 0034 0000 0000 		.long	.Lframe0
 1336 0038 0000 0000 		.long	.LFB14
 1337 003c 0600 0000 		.long	.LFE14-.LFB14
 1338               		.p2align	2
 1339               	.LEFDE4:
 1340               	.LSFDE6:
 1341 0040 0C00 0000 		.long	.LEFDE6-.LASFDE6
 1342               	.LASFDE6:
 1343 0044 0000 0000 		.long	.Lframe0
 1344 0048 0000 0000 		.long	.LFB15
 1345 004c 0800 0000 		.long	.LFE15-.LFB15
 1346               		.p2align	2
 1347               	.LEFDE6:
 1348               	.LSFDE8:
 1349 0050 0C00 0000 		.long	.LEFDE8-.LASFDE8
 1350               	.LASFDE8:
 1351 0054 0000 0000 		.long	.Lframe0
 1352 0058 0000 0000 		.long	.LFB16
 1353 005c 0800 0000 		.long	.LFE16-.LFB16
 1354               		.p2align	2
 1355               	.LEFDE8:
 1356               	.LSFDE10:
 1357 0060 0C00 0000 		.long	.LEFDE10-.LASFDE10
 1358               	.LASFDE10:
 1359 0064 0000 0000 		.long	.Lframe0
 1360 0068 0000 0000 		.long	.LFB17
 1361 006c 1000 0000 		.long	.LFE17-.LFB17
 1362               		.p2align	2
 1363               	.LEFDE10:
 1364               	.LSFDE12:
 1365 0070 0C00 0000 		.long	.LEFDE12-.LASFDE12
 1366               	.LASFDE12:
 1367 0074 0000 0000 		.long	.Lframe0
 1368 0078 0000 0000 		.long	.LFB18
GAS LISTING C:\Users\ADMINI~1\AppData\Local\Temp/ccZqQ0UD.s 			page 25


 1369 007c 0400 0000 		.long	.LFE18-.LFB18
 1370               		.p2align	2
 1371               	.LEFDE12:
 1372               	.LSFDE14:
 1373 0080 0C00 0000 		.long	.LEFDE14-.LASFDE14
 1374               	.LASFDE14:
 1375 0084 0000 0000 		.long	.Lframe0
 1376 0088 0000 0000 		.long	.LFB19
 1377 008c 5800 0000 		.long	.LFE19-.LFB19
 1378               		.p2align	2
 1379               	.LEFDE14:
 1380               	.LSFDE16:
 1381 0090 0C00 0000 		.long	.LEFDE16-.LASFDE16
 1382               	.LASFDE16:
 1383 0094 0000 0000 		.long	.Lframe0
 1384 0098 0000 0000 		.long	.LFB10
 1385 009c 6600 0000 		.long	.LFE10-.LFB10
 1386               		.p2align	2
 1387               	.LEFDE16:
 1388               	.LSFDE18:
 1389 00a0 0C00 0000 		.long	.LEFDE18-.LASFDE18
 1390               	.LASFDE18:
 1391 00a4 0000 0000 		.long	.Lframe0
 1392 00a8 0000 0000 		.long	.LFB13
 1393 00ac 2600 0000 		.long	.LFE13-.LFB13
 1394               		.p2align	2
 1395               	.LEFDE18:
 1396               	.LSFDE20:
 1397 00b0 0C00 0000 		.long	.LEFDE20-.LASFDE20
 1398               	.LASFDE20:
 1399 00b4 0000 0000 		.long	.Lframe0
 1400 00b8 0000 0000 		.long	.LFB12
 1401 00bc 3200 0000 		.long	.LFE12-.LFB12
 1402               		.p2align	2
 1403               	.LEFDE20:
 1404               	.LSFDE22:
 1405 00c0 0C00 0000 		.long	.LEFDE22-.LASFDE22
 1406               	.LASFDE22:
 1407 00c4 0000 0000 		.long	.Lframe0
 1408 00c8 0000 0000 		.long	.LFB11
 1409 00cc 3400 0000 		.long	.LFE11-.LFB11
 1410               		.p2align	2
 1411               	.LEFDE22:
 1412               	.LSFDE24:
 1413 00d0 0C00 0000 		.long	.LEFDE24-.LASFDE24
 1414               	.LASFDE24:
 1415 00d4 0000 0000 		.long	.Lframe0
 1416 00d8 0000 0000 		.long	.LFB22
 1417 00dc 6200 0000 		.long	.LFE22-.LFB22
 1418               		.p2align	2
 1419               	.LEFDE24:
 1420               	.LSFDE26:
 1421 00e0 0C00 0000 		.long	.LEFDE26-.LASFDE26
 1422               	.LASFDE26:
 1423 00e4 0000 0000 		.long	.Lframe0
 1424 00e8 0000 0000 		.long	.LFB23
 1425 00ec 6C00 0000 		.long	.LFE23-.LFB23
GAS LISTING C:\Users\ADMINI~1\AppData\Local\Temp/ccZqQ0UD.s 			page 26


 1426               		.p2align	2
 1427               	.LEFDE26:
 1428               	.LSFDE28:
 1429 00f0 0C00 0000 		.long	.LEFDE28-.LASFDE28
 1430               	.LASFDE28:
 1431 00f4 0000 0000 		.long	.Lframe0
 1432 00f8 0000 0000 		.long	.LFB25
 1433 00fc 2200 0000 		.long	.LFE25-.LFB25
 1434               		.p2align	2
 1435               	.LEFDE28:
 1436               	.LSFDE30:
 1437 0100 0C00 0000 		.long	.LEFDE30-.LASFDE30
 1438               	.LASFDE30:
 1439 0104 0000 0000 		.long	.Lframe0
 1440 0108 0000 0000 		.long	.LFB26
 1441 010c D001 0000 		.long	.LFE26-.LFB26
 1442               		.p2align	2
 1443               	.LEFDE30:
 1444               	.LSFDE32:
 1445 0110 0C00 0000 		.long	.LEFDE32-.LASFDE32
 1446               	.LASFDE32:
 1447 0114 0000 0000 		.long	.Lframe0
 1448 0118 0000 0000 		.long	.LFB20
 1449 011c 0600 0000 		.long	.LFE20-.LFB20
 1450               		.p2align	2
 1451               	.LEFDE32:
 1452               	.LSFDE34:
 1453 0120 0C00 0000 		.long	.LEFDE34-.LASFDE34
 1454               	.LASFDE34:
 1455 0124 0000 0000 		.long	.Lframe0
 1456 0128 0000 0000 		.long	.LFB29
 1457 012c 3200 0000 		.long	.LFE29-.LFB29
 1458               		.p2align	2
 1459               	.LEFDE34:
 1460               	.LSFDE36:
 1461 0130 0C00 0000 		.long	.LEFDE36-.LASFDE36
 1462               	.LASFDE36:
 1463 0134 0000 0000 		.long	.Lframe0
 1464 0138 0000 0000 		.long	.LFB30
 1465 013c 0A00 0000 		.long	.LFE30-.LFB30
 1466               		.p2align	2
 1467               	.LEFDE36:
 1468               	.LSFDE38:
 1469 0140 0C00 0000 		.long	.LEFDE38-.LASFDE38
 1470               	.LASFDE38:
 1471 0144 0000 0000 		.long	.Lframe0
 1472 0148 0000 0000 		.long	.LFB31
 1473 014c 5C00 0000 		.long	.LFE31-.LFB31
 1474               		.p2align	2
 1475               	.LEFDE38:
 1476               	.LSFDE40:
 1477 0150 0C00 0000 		.long	.LEFDE40-.LASFDE40
 1478               	.LASFDE40:
 1479 0154 0000 0000 		.long	.Lframe0
 1480 0158 0000 0000 		.long	.LFB32
 1481 015c 7801 0000 		.long	.LFE32-.LFB32
 1482               		.p2align	2
GAS LISTING C:\Users\ADMINI~1\AppData\Local\Temp/ccZqQ0UD.s 			page 27


 1483               	.LEFDE40:
 1484               	.LSFDE42:
 1485 0160 0C00 0000 		.long	.LEFDE42-.LASFDE42
 1486               	.LASFDE42:
 1487 0164 0000 0000 		.long	.Lframe0
 1488 0168 0000 0000 		.long	.LFB21
 1489 016c D400 0000 		.long	.LFE21-.LFB21
 1490               		.p2align	2
 1491               	.LEFDE42:
 1492               		.text
 1493               	.Letext0:
 1494               		.section	.debug_loc,"",@progbits
 1495               	.Ldebug_loc0:
 1496               	.LLST8:
 1497 0000 3600 0000 		.long	.LVL1-.Ltext0
 1498 0004 4600 0000 		.long	.LVL2-.Ltext0
 1499 0008 0600      		.word	0x6
 1500 000a 68        		.byte	0x68
 1501 000b 93        		.byte	0x93
 1502 000c 01        		.uleb128 0x1
 1503 000d 69        		.byte	0x69
 1504 000e 93        		.byte	0x93
 1505 000f 01        		.uleb128 0x1
 1506 0010 0000 0000 		.long	0x0
 1507 0014 0000 0000 		.long	0x0
 1508               	.LLST13:
 1509 0018 5801 0000 		.long	.LVL4-.Ltext0
 1510 001c 6201 0000 		.long	.LVL5-.Ltext0
 1511 0020 0600      		.word	0x6
 1512 0022 68        		.byte	0x68
 1513 0023 93        		.byte	0x93
 1514 0024 01        		.uleb128 0x1
 1515 0025 69        		.byte	0x69
 1516 0026 93        		.byte	0x93
 1517 0027 01        		.uleb128 0x1
 1518 0028 6201 0000 		.long	.LVL5-.Ltext0
 1519 002c 6A01 0000 		.long	.LVL6-.Ltext0
 1520 0030 0600      		.word	0x6
 1521 0032 68        		.byte	0x68
 1522 0033 93        		.byte	0x93
 1523 0034 01        		.uleb128 0x1
 1524 0035 69        		.byte	0x69
 1525 0036 93        		.byte	0x93
 1526 0037 01        		.uleb128 0x1
 1527 0038 0000 0000 		.long	0x0
 1528 003c 0000 0000 		.long	0x0
 1529               	.LLST17:
 1530 0040 4E02 0000 		.long	.LVL8-.Ltext0
 1531 0044 6402 0000 		.long	.LVL9-.Ltext0
 1532 0048 0600      		.word	0x6
 1533 004a 68        		.byte	0x68
 1534 004b 93        		.byte	0x93
 1535 004c 01        		.uleb128 0x1
 1536 004d 69        		.byte	0x69
 1537 004e 93        		.byte	0x93
 1538 004f 01        		.uleb128 0x1
 1539 0050 0000 0000 		.long	0x0
GAS LISTING C:\Users\ADMINI~1\AppData\Local\Temp/ccZqQ0UD.s 			page 28


 1540 0054 0000 0000 		.long	0x0
 1541               	.LLST24:
 1542 0058 DE04 0000 		.long	.LVL10-.Ltext0
 1543 005c E604 0000 		.long	.LVL11-.Ltext0
 1544 0060 0100      		.word	0x1
 1545 0062 68        		.byte	0x68
 1546 0063 E604 0000 		.long	.LVL11-.Ltext0
 1547 0067 5406 0000 		.long	.LVL20-.Ltext0
 1548 006b 0100      		.word	0x1
 1549 006d 61        		.byte	0x61
 1550 006e 0000 0000 		.long	0x0
 1551 0072 0000 0000 		.long	0x0
 1552               	.LLST25:
 1553 0076 0405 0000 		.long	.LVL12-.Ltext0
 1554 007a 0605 0000 		.long	.LVL13-.Ltext0
 1555 007e 0100      		.word	0x1
 1556 0080 64        		.byte	0x64
 1557 0081 0E05 0000 		.long	.LVL14-.Ltext0
 1558 0085 9605 0000 		.long	.LVL15-.Ltext0
 1559 0089 0100      		.word	0x1
 1560 008b 64        		.byte	0x64
 1561 008c A405 0000 		.long	.LVL16-.Ltext0
 1562 0090 3606 0000 		.long	.LVL17-.Ltext0
 1563 0094 0100      		.word	0x1
 1564 0096 64        		.byte	0x64
 1565 0097 3606 0000 		.long	.LVL17-.Ltext0
 1566 009b 4E06 0000 		.long	.LVL18-.Ltext0
 1567 009f 0100      		.word	0x1
 1568 00a1 64        		.byte	0x64
 1569 00a2 4E06 0000 		.long	.LVL18-.Ltext0
 1570 00a6 5206 0000 		.long	.LVL19-.Ltext0
 1571 00aa 0100      		.word	0x1
 1572 00ac 64        		.byte	0x64
 1573 00ad 0000 0000 		.long	0x0
 1574 00b1 0000 0000 		.long	0x0
 1575               		.section	.debug_info
 1576 0000 EB05 0000 		.long	0x5eb
 1577 0004 0200      		.word	0x2
 1578 0006 0000 0000 		.long	.Ldebug_abbrev0
 1579 000a 04        		.byte	0x4
 1580 000b 01        		.uleb128 0x1
 1581 000c 0000 0000 		.long	.LASF71
 1582 0010 01        		.byte	0x1
 1583 0011 0000 0000 		.long	.LASF72
 1584 0015 0000 0000 		.long	.LASF73
 1585 0019 0000 0000 		.long	.Ltext0
 1586 001d 0000 0000 		.long	.Letext0
 1587 0021 0000 0000 		.long	.Ldebug_line0
 1588 0025 02        		.uleb128 0x2
 1589 0026 01        		.byte	0x1
 1590 0027 08        		.byte	0x8
 1591 0028 0000 0000 		.long	.LASF0
 1592 002c 02        		.uleb128 0x2
 1593 002d 01        		.byte	0x1
 1594 002e 06        		.byte	0x6
 1595 002f 0000 0000 		.long	.LASF1
 1596 0033 02        		.uleb128 0x2
GAS LISTING C:\Users\ADMINI~1\AppData\Local\Temp/ccZqQ0UD.s 			page 29


 1597 0034 02        		.byte	0x2
 1598 0035 07        		.byte	0x7
 1599 0036 0000 0000 		.long	.LASF2
 1600 003a 02        		.uleb128 0x2
 1601 003b 02        		.byte	0x2
 1602 003c 05        		.byte	0x5
 1603 003d 0000 0000 		.long	.LASF3
 1604 0041 02        		.uleb128 0x2
 1605 0042 04        		.byte	0x4
 1606 0043 07        		.byte	0x7
 1607 0044 0000 0000 		.long	.LASF4
 1608 0048 02        		.uleb128 0x2
 1609 0049 04        		.byte	0x4
 1610 004a 05        		.byte	0x5
 1611 004b 0000 0000 		.long	.LASF5
 1612 004f 02        		.uleb128 0x2
 1613 0050 08        		.byte	0x8
 1614 0051 07        		.byte	0x7
 1615 0052 0000 0000 		.long	.LASF6
 1616 0056 02        		.uleb128 0x2
 1617 0057 08        		.byte	0x8
 1618 0058 05        		.byte	0x5
 1619 0059 0000 0000 		.long	.LASF7
 1620 005d 02        		.uleb128 0x2
 1621 005e 02        		.byte	0x2
 1622 005f 07        		.byte	0x7
 1623 0060 0000 0000 		.long	.LASF8
 1624 0064 02        		.uleb128 0x2
 1625 0065 01        		.byte	0x1
 1626 0066 06        		.byte	0x6
 1627 0067 0000 0000 		.long	.LASF9
 1628 006b 03        		.uleb128 0x3
 1629 006c 02        		.byte	0x2
 1630 006d 05        		.byte	0x5
 1631 006e 696E 7400 		.string	"int"
 1632 0072 04        		.uleb128 0x4
 1633 0073 0000 0000 		.long	.LASF10
 1634 0077 02        		.byte	0x2
 1635 0078 7A        		.byte	0x7a
 1636 0079 2500 0000 		.long	0x25
 1637 007d 04        		.uleb128 0x4
 1638 007e 0000 0000 		.long	.LASF11
 1639 0082 02        		.byte	0x2
 1640 0083 7C        		.byte	0x7c
 1641 0084 5D00 0000 		.long	0x5d
 1642 0088 05        		.uleb128 0x5
 1643 0089 01        		.byte	0x1
 1644 008a 06        		.byte	0x6
 1645 008b 05        		.uleb128 0x5
 1646 008c 01        		.byte	0x1
 1647 008d 08        		.byte	0x8
 1648 008e 06        		.uleb128 0x6
 1649 008f 01        		.byte	0x1
 1650 0090 0000 0000 		.long	.LASF12
 1651 0094 01        		.byte	0x1
 1652 0095 7C        		.byte	0x7c
 1653 0096 01        		.byte	0x1
GAS LISTING C:\Users\ADMINI~1\AppData\Local\Temp/ccZqQ0UD.s 			page 30


 1654 0097 01        		.byte	0x1
 1655 0098 06        		.uleb128 0x6
 1656 0099 01        		.byte	0x1
 1657 009a 0000 0000 		.long	.LASF13
 1658 009e 01        		.byte	0x1
 1659 009f 80        		.byte	0x80
 1660 00a0 01        		.byte	0x1
 1661 00a1 01        		.byte	0x1
 1662 00a2 07        		.uleb128 0x7
 1663 00a3 01        		.byte	0x1
 1664 00a4 0000 0000 		.long	.LASF74
 1665 00a8 01        		.byte	0x1
 1666 00a9 36        		.byte	0x36
 1667 00aa 01        		.byte	0x1
 1668 00ab 7200 0000 		.long	0x72
 1669 00af 01        		.byte	0x1
 1670 00b0 08        		.uleb128 0x8
 1671 00b1 0000 0000 		.long	.LASF18
 1672 00b5 01        		.byte	0x1
 1673 00b6 9101      		.word	0x191
 1674 00b8 01        		.byte	0x1
 1675 00b9 01        		.byte	0x1
 1676 00ba 1A01 0000 		.long	0x11a
 1677 00be 09        		.uleb128 0x9
 1678 00bf 0000 0000 		.long	.LASF46
 1679 00c3 01        		.byte	0x1
 1680 00c4 9101      		.word	0x191
 1681 00c6 7200 0000 		.long	0x72
 1682 00ca 0A        		.uleb128 0xa
 1683 00cb 0000 0000 		.long	.LASF14
 1684 00cf 01        		.byte	0x1
 1685 00d0 9601      		.word	0x196
 1686 00d2 1A01 0000 		.long	0x11a
 1687 00d6 0B        		.uleb128 0xb
 1688 00d7 6C65 6400 		.string	"led"
 1689 00db 01        		.byte	0x1
 1690 00dc 9701      		.word	0x197
 1691 00de 7200 0000 		.long	0x72
 1692 00e2 0C        		.uleb128 0xc
 1693 00e3 0D        		.uleb128 0xd
 1694 00e4 0000 0000 		.long	.LASF15
 1695 00e8 01        		.byte	0x1
 1696 00e9 9301      		.word	0x193
 1697 00eb 6B00 0000 		.long	0x6b
 1698 00ef 05        		.byte	0x5
 1699 00f0 03        		.byte	0x3
 1700 00f1 0000 0000 		.long	beyondFNCounter.2482
 1701 00f5 0D        		.uleb128 0xd
 1702 00f6 0000 0000 		.long	.LASF16
 1703 00fa 01        		.byte	0x1
 1704 00fb 9401      		.word	0x194
 1705 00fd 6B00 0000 		.long	0x6b
 1706 0101 05        		.byte	0x5
 1707 0102 03        		.byte	0x3
 1708 0103 0000 0000 		.long	beyondFNDelayCounter.2483
 1709 0107 0D        		.uleb128 0xd
 1710 0108 0000 0000 		.long	.LASF17
GAS LISTING C:\Users\ADMINI~1\AppData\Local\Temp/ccZqQ0UD.s 			page 31


 1711 010c 01        		.byte	0x1
 1712 010d 9501      		.word	0x195
 1713 010f 7200 0000 		.long	0x72
 1714 0113 05        		.byte	0x5
 1715 0114 03        		.byte	0x3
 1716 0115 0000 0000 		.long	beyondFNLEDState.2484
 1717 0119 00        		.byte	0x0
 1718 011a 0E        		.uleb128 0xe
 1719 011b 6B00 0000 		.long	0x6b
 1720 011f 08        		.uleb128 0x8
 1721 0120 0000 0000 		.long	.LASF19
 1722 0124 01        		.byte	0x1
 1723 0125 C301      		.word	0x1c3
 1724 0127 01        		.byte	0x1
 1725 0128 01        		.byte	0x1
 1726 0129 4D01 0000 		.long	0x14d
 1727 012d 0A        		.uleb128 0xa
 1728 012e 0000 0000 		.long	.LASF20
 1729 0132 01        		.byte	0x1
 1730 0133 C601      		.word	0x1c6
 1731 0135 1A01 0000 		.long	0x11a
 1732 0139 0C        		.uleb128 0xc
 1733 013a 0D        		.uleb128 0xd
 1734 013b 0000 0000 		.long	.LASF21
 1735 013f 01        		.byte	0x1
 1736 0140 C501      		.word	0x1c5
 1737 0142 6B00 0000 		.long	0x6b
 1738 0146 05        		.byte	0x5
 1739 0147 03        		.byte	0x3
 1740 0148 0000 0000 		.long	counter.2517
 1741 014c 00        		.byte	0x0
 1742 014d 08        		.uleb128 0x8
 1743 014e 0000 0000 		.long	.LASF22
 1744 0152 01        		.byte	0x1
 1745 0153 3101      		.word	0x131
 1746 0155 01        		.byte	0x1
 1747 0156 01        		.byte	0x1
 1748 0157 6801 0000 		.long	0x168
 1749 015b 0A        		.uleb128 0xa
 1750 015c 0000 0000 		.long	.LASF20
 1751 0160 01        		.byte	0x1
 1752 0161 3301      		.word	0x133
 1753 0163 1A01 0000 		.long	0x11a
 1754 0167 00        		.byte	0x0
 1755 0168 06        		.uleb128 0x6
 1756 0169 01        		.byte	0x1
 1757 016a 0000 0000 		.long	.LASF23
 1758 016e 01        		.byte	0x1
 1759 016f 9D        		.byte	0x9d
 1760 0170 01        		.byte	0x1
 1761 0171 01        		.byte	0x1
 1762 0172 0F        		.uleb128 0xf
 1763 0173 01        		.byte	0x1
 1764 0174 0000 0000 		.long	.LASF27
 1765 0178 01        		.byte	0x1
 1766 0179 33        		.byte	0x33
 1767 017a 01        		.byte	0x1
GAS LISTING C:\Users\ADMINI~1\AppData\Local\Temp/ccZqQ0UD.s 			page 32


 1768 017b 0000 0000 		.long	.LFB8
 1769 017f 0000 0000 		.long	.LFE8
 1770 0183 02        		.byte	0x2
 1771 0184 90        		.byte	0x90
 1772 0185 20        		.uleb128 0x20
 1773 0186 9801 0000 		.long	0x198
 1774 018a 10        		.uleb128 0x10
 1775 018b 0000 0000 		.long	.LASF29
 1776 018f 01        		.byte	0x1
 1777 0190 33        		.byte	0x33
 1778 0191 7200 0000 		.long	0x72
 1779 0195 01        		.byte	0x1
 1780 0196 68        		.byte	0x68
 1781 0197 00        		.byte	0x0
 1782 0198 11        		.uleb128 0x11
 1783 0199 A200 0000 		.long	0xa2
 1784 019d 0000 0000 		.long	.LFB9
 1785 01a1 0000 0000 		.long	.LFE9
 1786 01a5 02        		.byte	0x2
 1787 01a6 90        		.byte	0x90
 1788 01a7 20        		.uleb128 0x20
 1789 01a8 12        		.uleb128 0x12
 1790 01a9 01        		.byte	0x1
 1791 01aa 0000 0000 		.long	.LASF24
 1792 01ae 01        		.byte	0x1
 1793 01af 73        		.byte	0x73
 1794 01b0 01        		.byte	0x1
 1795 01b1 0000 0000 		.long	.LFB14
 1796 01b5 0000 0000 		.long	.LFE14
 1797 01b9 02        		.byte	0x2
 1798 01ba 90        		.byte	0x90
 1799 01bb 20        		.uleb128 0x20
 1800 01bc 11        		.uleb128 0x11
 1801 01bd 8E00 0000 		.long	0x8e
 1802 01c1 0000 0000 		.long	.LFB15
 1803 01c5 0000 0000 		.long	.LFE15
 1804 01c9 02        		.byte	0x2
 1805 01ca 90        		.byte	0x90
 1806 01cb 20        		.uleb128 0x20
 1807 01cc 11        		.uleb128 0x11
 1808 01cd 9800 0000 		.long	0x98
 1809 01d1 0000 0000 		.long	.LFB16
 1810 01d5 0000 0000 		.long	.LFE16
 1811 01d9 02        		.byte	0x2
 1812 01da 90        		.byte	0x90
 1813 01db 20        		.uleb128 0x20
 1814 01dc 12        		.uleb128 0x12
 1815 01dd 01        		.byte	0x1
 1816 01de 0000 0000 		.long	.LASF25
 1817 01e2 01        		.byte	0x1
 1818 01e3 89        		.byte	0x89
 1819 01e4 01        		.byte	0x1
 1820 01e5 0000 0000 		.long	.LFB17
 1821 01e9 0000 0000 		.long	.LFE17
 1822 01ed 02        		.byte	0x2
 1823 01ee 90        		.byte	0x90
 1824 01ef 20        		.uleb128 0x20
GAS LISTING C:\Users\ADMINI~1\AppData\Local\Temp/ccZqQ0UD.s 			page 33


 1825 01f0 12        		.uleb128 0x12
 1826 01f1 01        		.byte	0x1
 1827 01f2 0000 0000 		.long	.LASF26
 1828 01f6 01        		.byte	0x1
 1829 01f7 8D        		.byte	0x8d
 1830 01f8 01        		.byte	0x1
 1831 01f9 0000 0000 		.long	.LFB18
 1832 01fd 0000 0000 		.long	.LFE18
 1833 0201 02        		.byte	0x2
 1834 0202 90        		.byte	0x90
 1835 0203 20        		.uleb128 0x20
 1836 0204 0F        		.uleb128 0xf
 1837 0205 01        		.byte	0x1
 1838 0206 0000 0000 		.long	.LASF28
 1839 020a 01        		.byte	0x1
 1840 020b 90        		.byte	0x90
 1841 020c 01        		.byte	0x1
 1842 020d 0000 0000 		.long	.LFB19
 1843 0211 0000 0000 		.long	.LFE19
 1844 0215 02        		.byte	0x2
 1845 0216 90        		.byte	0x90
 1846 0217 20        		.uleb128 0x20
 1847 0218 5B02 0000 		.long	0x25b
 1848 021c 13        		.uleb128 0x13
 1849 021d 0000 0000 		.long	.LASF30
 1850 0221 01        		.byte	0x1
 1851 0222 90        		.byte	0x90
 1852 0223 6B00 0000 		.long	0x6b
 1853 0227 0000 0000 		.long	.LLST8
 1854 022b 14        		.uleb128 0x14
 1855 022c 8E00 0000 		.long	0x8e
 1856 0230 0000 0000 		.long	.LBB24
 1857 0234 0000 0000 		.long	.LBE24
 1858 0238 01        		.byte	0x1
 1859 0239 96        		.byte	0x96
 1860 023a 14        		.uleb128 0x14
 1861 023b 9800 0000 		.long	0x98
 1862 023f 0000 0000 		.long	.LBB26
 1863 0243 0000 0000 		.long	.LBE26
 1864 0247 01        		.byte	0x1
 1865 0248 98        		.byte	0x98
 1866 0249 15        		.uleb128 0x15
 1867 024a 0000 0000 		.long	.LASF31
 1868 024e 01        		.byte	0x1
 1869 024f 91        		.byte	0x91
 1870 0250 6B00 0000 		.long	0x6b
 1871 0254 05        		.byte	0x5
 1872 0255 03        		.byte	0x3
 1873 0256 0000 0000 		.long	prevPwmValue.2332
 1874 025a 00        		.byte	0x0
 1875 025b 16        		.uleb128 0x16
 1876 025c 0000 0000 		.long	.LASF40
 1877 0260 01        		.byte	0x1
 1878 0261 3A        		.byte	0x3a
 1879 0262 01        		.byte	0x1
 1880 0263 0000 0000 		.long	.LFB10
 1881 0267 0000 0000 		.long	.LFE10
GAS LISTING C:\Users\ADMINI~1\AppData\Local\Temp/ccZqQ0UD.s 			page 34


 1882 026b 02        		.byte	0x2
 1883 026c 90        		.byte	0x90
 1884 026d 20        		.uleb128 0x20
 1885 026e 12        		.uleb128 0x12
 1886 026f 01        		.byte	0x1
 1887 0270 0000 0000 		.long	.LASF32
 1888 0274 01        		.byte	0x1
 1889 0275 6B        		.byte	0x6b
 1890 0276 01        		.byte	0x1
 1891 0277 0000 0000 		.long	.LFB13
 1892 027b 0000 0000 		.long	.LFE13
 1893 027f 02        		.byte	0x2
 1894 0280 90        		.byte	0x90
 1895 0281 20        		.uleb128 0x20
 1896 0282 12        		.uleb128 0x12
 1897 0283 01        		.byte	0x1
 1898 0284 0000 0000 		.long	.LASF33
 1899 0288 01        		.byte	0x1
 1900 0289 5F        		.byte	0x5f
 1901 028a 01        		.byte	0x1
 1902 028b 0000 0000 		.long	.LFB12
 1903 028f 0000 0000 		.long	.LFE12
 1904 0293 02        		.byte	0x2
 1905 0294 90        		.byte	0x90
 1906 0295 20        		.uleb128 0x20
 1907 0296 0F        		.uleb128 0xf
 1908 0297 01        		.byte	0x1
 1909 0298 0000 0000 		.long	.LASF34
 1910 029c 01        		.byte	0x1
 1911 029d 51        		.byte	0x51
 1912 029e 01        		.byte	0x1
 1913 029f 0000 0000 		.long	.LFB11
 1914 02a3 0000 0000 		.long	.LFE11
 1915 02a7 02        		.byte	0x2
 1916 02a8 90        		.byte	0x90
 1917 02a9 20        		.uleb128 0x20
 1918 02aa BE02 0000 		.long	0x2be
 1919 02ae 17        		.uleb128 0x17
 1920 02af 0000 0000 		.long	.LASF35
 1921 02b3 01        		.byte	0x1
 1922 02b4 54        		.byte	0x54
 1923 02b5 6B00 0000 		.long	0x6b
 1924 02b9 0000 0000 		.long	.LLST13
 1925 02bd 00        		.byte	0x0
 1926 02be 0F        		.uleb128 0xf
 1927 02bf 01        		.byte	0x1
 1928 02c0 0000 0000 		.long	.LASF36
 1929 02c4 01        		.byte	0x1
 1930 02c5 EF        		.byte	0xef
 1931 02c6 01        		.byte	0x1
 1932 02c7 0000 0000 		.long	.LFB22
 1933 02cb 0000 0000 		.long	.LFE22
 1934 02cf 02        		.byte	0x2
 1935 02d0 90        		.byte	0x90
 1936 02d1 20        		.uleb128 0x20
 1937 02d2 E902 0000 		.long	0x2e9
 1938 02d6 0D        		.uleb128 0xd
GAS LISTING C:\Users\ADMINI~1\AppData\Local\Temp/ccZqQ0UD.s 			page 35


 1939 02d7 0000 0000 		.long	.LASF37
 1940 02db 01        		.byte	0x1
 1941 02dc 0301      		.word	0x103
 1942 02de 7200 0000 		.long	0x72
 1943 02e2 05        		.byte	0x5
 1944 02e3 03        		.byte	0x3
 1945 02e4 0000 0000 		.long	prevSCRLED.2391
 1946 02e8 00        		.byte	0x0
 1947 02e9 18        		.uleb128 0x18
 1948 02ea 01        		.byte	0x1
 1949 02eb 0000 0000 		.long	.LASF38
 1950 02ef 01        		.byte	0x1
 1951 02f0 1C01      		.word	0x11c
 1952 02f2 01        		.byte	0x1
 1953 02f3 0000 0000 		.long	.LFB23
 1954 02f7 0000 0000 		.long	.LFE23
 1955 02fb 02        		.byte	0x2
 1956 02fc 90        		.byte	0x90
 1957 02fd 20        		.uleb128 0x20
 1958 02fe 19        		.uleb128 0x19
 1959 02ff 0000 0000 		.long	.LASF75
 1960 0303 01        		.byte	0x1
 1961 0304 4601      		.word	0x146
 1962 0306 01        		.byte	0x1
 1963 0307 6B00 0000 		.long	0x6b
 1964 030b 0000 0000 		.long	.LFB25
 1965 030f 0000 0000 		.long	.LFE25
 1966 0313 02        		.byte	0x2
 1967 0314 90        		.byte	0x90
 1968 0315 20        		.uleb128 0x20
 1969 0316 3703 0000 		.long	0x337
 1970 031a 1A        		.uleb128 0x1a
 1971 031b 0000 0000 		.long	.LASF30
 1972 031f 01        		.byte	0x1
 1973 0320 4601      		.word	0x146
 1974 0322 6B00 0000 		.long	0x6b
 1975 0326 0000 0000 		.long	.LLST17
 1976 032a 0A        		.uleb128 0xa
 1977 032b 0000 0000 		.long	.LASF39
 1978 032f 01        		.byte	0x1
 1979 0330 4701      		.word	0x147
 1980 0332 6B00 0000 		.long	0x6b
 1981 0336 00        		.byte	0x0
 1982 0337 1B        		.uleb128 0x1b
 1983 0338 0000 0000 		.long	.LASF41
 1984 033c 01        		.byte	0x1
 1985 033d 4D01      		.word	0x14d
 1986 033f 01        		.byte	0x1
 1987 0340 0000 0000 		.long	.LFB26
 1988 0344 0000 0000 		.long	.LFE26
 1989 0348 02        		.byte	0x2
 1990 0349 90        		.byte	0x90
 1991 034a 20        		.uleb128 0x20
 1992 034b 11        		.uleb128 0x11
 1993 034c 6801 0000 		.long	0x168
 1994 0350 0000 0000 		.long	.LFB20
 1995 0354 0000 0000 		.long	.LFE20
GAS LISTING C:\Users\ADMINI~1\AppData\Local\Temp/ccZqQ0UD.s 			page 36


 1996 0358 02        		.byte	0x2
 1997 0359 90        		.byte	0x90
 1998 035a 20        		.uleb128 0x20
 1999 035b 18        		.uleb128 0x18
 2000 035c 01        		.byte	0x1
 2001 035d 0000 0000 		.long	.LASF42
 2002 0361 01        		.byte	0x1
 2003 0362 DF01      		.word	0x1df
 2004 0364 01        		.byte	0x1
 2005 0365 0000 0000 		.long	.LFB29
 2006 0369 0000 0000 		.long	.LFE29
 2007 036d 02        		.byte	0x2
 2008 036e 90        		.byte	0x90
 2009 036f 20        		.uleb128 0x20
 2010 0370 18        		.uleb128 0x18
 2011 0371 01        		.byte	0x1
 2012 0372 0000 0000 		.long	.LASF43
 2013 0376 01        		.byte	0x1
 2014 0377 F301      		.word	0x1f3
 2015 0379 01        		.byte	0x1
 2016 037a 0000 0000 		.long	.LFB30
 2017 037e 0000 0000 		.long	.LFE30
 2018 0382 02        		.byte	0x2
 2019 0383 90        		.byte	0x90
 2020 0384 20        		.uleb128 0x20
 2021 0385 18        		.uleb128 0x18
 2022 0386 01        		.byte	0x1
 2023 0387 0000 0000 		.long	.LASF44
 2024 038b 01        		.byte	0x1
 2025 038c F901      		.word	0x1f9
 2026 038e 01        		.byte	0x1
 2027 038f 0000 0000 		.long	.LFB31
 2028 0393 0000 0000 		.long	.LFE31
 2029 0397 02        		.byte	0x2
 2030 0398 90        		.byte	0x90
 2031 0399 20        		.uleb128 0x20
 2032 039a 1C        		.uleb128 0x1c
 2033 039b 01        		.byte	0x1
 2034 039c 0000 0000 		.long	.LASF45
 2035 03a0 01        		.byte	0x1
 2036 03a1 0502      		.word	0x205
 2037 03a3 01        		.byte	0x1
 2038 03a4 0000 0000 		.long	.LFB32
 2039 03a8 0000 0000 		.long	.LFE32
 2040 03ac 02        		.byte	0x2
 2041 03ad 90        		.byte	0x90
 2042 03ae 20        		.uleb128 0x20
 2043 03af 4A04 0000 		.long	0x44a
 2044 03b3 1A        		.uleb128 0x1a
 2045 03b4 0000 0000 		.long	.LASF46
 2046 03b8 01        		.byte	0x1
 2047 03b9 0502      		.word	0x205
 2048 03bb 7200 0000 		.long	0x72
 2049 03bf 0000 0000 		.long	.LLST24
 2050 03c3 1D        		.uleb128 0x1d
 2051 03c4 B000 0000 		.long	0xb0
 2052 03c8 0000 0000 		.long	.LBB28
GAS LISTING C:\Users\ADMINI~1\AppData\Local\Temp/ccZqQ0UD.s 			page 37


 2053 03cc 0000 0000 		.long	.LBE28
 2054 03d0 01        		.byte	0x1
 2055 03d1 0D02      		.word	0x20d
 2056 03d3 F103 0000 		.long	0x3f1
 2057 03d7 1E        		.uleb128 0x1e
 2058 03d8 BE00 0000 		.long	0xbe
 2059 03dc 1F        		.uleb128 0x1f
 2060 03dd 0000 0000 		.long	.Ldebug_ranges0+0x0
 2061 03e1 20        		.uleb128 0x20
 2062 03e2 CA00 0000 		.long	0xca
 2063 03e6 21        		.uleb128 0x21
 2064 03e7 D600 0000 		.long	0xd6
 2065 03eb 0000 0000 		.long	.LLST25
 2066 03ef 00        		.byte	0x0
 2067 03f0 00        		.byte	0x0
 2068 03f1 1D        		.uleb128 0x1d
 2069 03f2 1F01 0000 		.long	0x11f
 2070 03f6 0000 0000 		.long	.LBB31
 2071 03fa 0000 0000 		.long	.LBE31
 2072 03fe 01        		.byte	0x1
 2073 03ff 1102      		.word	0x211
 2074 0401 1504 0000 		.long	0x415
 2075 0405 22        		.uleb128 0x22
 2076 0406 0000 0000 		.long	.LBB32
 2077 040a 0000 0000 		.long	.LBE32
 2078 040e 20        		.uleb128 0x20
 2079 040f 2D01 0000 		.long	0x12d
 2080 0413 00        		.byte	0x0
 2081 0414 00        		.byte	0x0
 2082 0415 1D        		.uleb128 0x1d
 2083 0416 4D01 0000 		.long	0x14d
 2084 041a 0000 0000 		.long	.LBB33
 2085 041e 0000 0000 		.long	.LBE33
 2086 0422 01        		.byte	0x1
 2087 0423 1502      		.word	0x215
 2088 0425 3904 0000 		.long	0x439
 2089 0429 22        		.uleb128 0x22
 2090 042a 0000 0000 		.long	.LBB34
 2091 042e 0000 0000 		.long	.LBE34
 2092 0432 20        		.uleb128 0x20
 2093 0433 5B01 0000 		.long	0x15b
 2094 0437 00        		.byte	0x0
 2095 0438 00        		.byte	0x0
 2096 0439 23        		.uleb128 0x23
 2097 043a 6801 0000 		.long	0x168
 2098 043e 0000 0000 		.long	.LBB35
 2099 0442 0000 0000 		.long	.LBE35
 2100 0446 01        		.byte	0x1
 2101 0447 1902      		.word	0x219
 2102 0449 00        		.byte	0x0
 2103 044a 0F        		.uleb128 0xf
 2104 044b 01        		.byte	0x1
 2105 044c 0000 0000 		.long	.LASF47
 2106 0450 01        		.byte	0x1
 2107 0451 A1        		.byte	0xa1
 2108 0452 01        		.byte	0x1
 2109 0453 0000 0000 		.long	.LFB21
GAS LISTING C:\Users\ADMINI~1\AppData\Local\Temp/ccZqQ0UD.s 			page 38


 2110 0457 0000 0000 		.long	.LFE21
 2111 045b 02        		.byte	0x2
 2112 045c 90        		.byte	0x90
 2113 045d 20        		.uleb128 0x20
 2114 045e 7204 0000 		.long	0x472
 2115 0462 14        		.uleb128 0x14
 2116 0463 9800 0000 		.long	0x98
 2117 0467 0000 0000 		.long	.LBB37
 2118 046b 0000 0000 		.long	.LBE37
 2119 046f 01        		.byte	0x1
 2120 0470 D7        		.byte	0xd7
 2121 0471 00        		.byte	0x0
 2122 0472 15        		.uleb128 0x15
 2123 0473 0000 0000 		.long	.LASF48
 2124 0477 01        		.byte	0x1
 2125 0478 15        		.byte	0x15
 2126 0479 7D00 0000 		.long	0x7d
 2127 047d 05        		.byte	0x5
 2128 047e 03        		.byte	0x3
 2129 047f 0000 0000 		.long	downLevelStay
 2130 0483 15        		.uleb128 0x15
 2131 0484 0000 0000 		.long	.LASF49
 2132 0488 01        		.byte	0x1
 2133 0489 16        		.byte	0x16
 2134 048a 7200 0000 		.long	0x72
 2135 048e 05        		.byte	0x5
 2136 048f 03        		.byte	0x3
 2137 0490 0000 0000 		.long	downLevel
 2138 0494 24        		.uleb128 0x24
 2139 0495 0000 0000 		.long	.LASF50
 2140 0499 01        		.byte	0x1
 2141 049a 17        		.byte	0x17
 2142 049b A004 0000 		.long	0x4a0
 2143 049f 0C        		.byte	0xc
 2144 04a0 0E        		.uleb128 0xe
 2145 04a1 7200 0000 		.long	0x72
 2146 04a5 15        		.uleb128 0x15
 2147 04a6 0000 0000 		.long	.LASF51
 2148 04aa 01        		.byte	0x1
 2149 04ab 18        		.byte	0x18
 2150 04ac 7200 0000 		.long	0x72
 2151 04b0 05        		.byte	0x5
 2152 04b1 03        		.byte	0x3
 2153 04b2 0000 0000 		.long	downLevelLife
 2154 04b6 15        		.uleb128 0x15
 2155 04b7 0000 0000 		.long	.LASF52
 2156 04bb 01        		.byte	0x1
 2157 04bc 1A        		.byte	0x1a
 2158 04bd 7200 0000 		.long	0x72
 2159 04c1 05        		.byte	0x5
 2160 04c2 03        		.byte	0x3
 2161 04c3 0000 0000 		.long	ledInited
 2162 04c7 15        		.uleb128 0x15
 2163 04c8 0000 0000 		.long	.LASF53
 2164 04cc 01        		.byte	0x1
 2165 04cd 1B        		.byte	0x1b
 2166 04ce 7200 0000 		.long	0x72
GAS LISTING C:\Users\ADMINI~1\AppData\Local\Temp/ccZqQ0UD.s 			page 39


 2167 04d2 05        		.byte	0x5
 2168 04d3 03        		.byte	0x3
 2169 04d4 0000 0000 		.long	LEDstate
 2170 04d8 15        		.uleb128 0x15
 2171 04d9 0000 0000 		.long	.LASF54
 2172 04dd 01        		.byte	0x1
 2173 04de 1C        		.byte	0x1c
 2174 04df 7200 0000 		.long	0x72
 2175 04e3 05        		.byte	0x5
 2176 04e4 03        		.byte	0x3
 2177 04e5 0000 0000 		.long	scrollLockLED
 2178 04e9 15        		.uleb128 0x15
 2179 04ea 0000 0000 		.long	.LASF55
 2180 04ee 01        		.byte	0x1
 2181 04ef 1E        		.byte	0x1e
 2182 04f0 7200 0000 		.long	0x72
 2183 04f4 05        		.byte	0x5
 2184 04f5 03        		.byte	0x3
 2185 04f6 0000 0000 		.long	_fullLEDMode
 2186 04fa 15        		.uleb128 0x15
 2187 04fb 0000 0000 		.long	.LASF56
 2188 04ff 01        		.byte	0x1
 2189 0500 1F        		.byte	0x1f
 2190 0501 7200 0000 		.long	0x72
 2191 0505 05        		.byte	0x5
 2192 0506 03        		.byte	0x3
 2193 0507 0000 0000 		.long	_fullLEDMode_saved
 2194 050b 15        		.uleb128 0x15
 2195 050c 0000 0000 		.long	.LASF57
 2196 0510 01        		.byte	0x1
 2197 0511 21        		.byte	0x21
 2198 0512 6B00 0000 		.long	0x6b
 2199 0516 05        		.byte	0x5
 2200 0517 03        		.byte	0x3
 2201 0518 0000 0000 		.long	pwmCounter
 2202 051c 15        		.uleb128 0x15
 2203 051d 0000 0000 		.long	.LASF58
 2204 0521 01        		.byte	0x1
 2205 0522 22        		.byte	0x22
 2206 0523 6B00 0000 		.long	0x6b
 2207 0527 05        		.byte	0x5
 2208 0528 03        		.byte	0x3
 2209 0529 0000 0000 		.long	pwmDir
 2210 052d 24        		.uleb128 0x24
 2211 052e 0000 0000 		.long	.LASF59
 2212 0532 01        		.byte	0x1
 2213 0533 23        		.byte	0x23
 2214 0534 A004 0000 		.long	0x4a0
 2215 0538 08        		.byte	0x8
 2216 0539 15        		.uleb128 0x15
 2217 053a 0000 0000 		.long	.LASF60
 2218 053e 01        		.byte	0x1
 2219 053f 24        		.byte	0x24
 2220 0540 7200 0000 		.long	0x72
 2221 0544 05        		.byte	0x5
 2222 0545 03        		.byte	0x3
 2223 0546 0000 0000 		.long	_isDidSleep
GAS LISTING C:\Users\ADMINI~1\AppData\Local\Temp/ccZqQ0UD.s 			page 40


 2224 054a 15        		.uleb128 0x15
 2225 054b 0000 0000 		.long	.LASF61
 2226 054f 01        		.byte	0x1
 2227 0550 26        		.byte	0x26
 2228 0551 6B00 0000 		.long	0x6b
 2229 0555 05        		.byte	0x5
 2230 0556 03        		.byte	0x3
 2231 0557 0000 0000 		.long	ledStateCount
 2232 055b 15        		.uleb128 0x15
 2233 055c 0000 0000 		.long	.LASF62
 2234 0560 01        		.byte	0x1
 2235 0561 28        		.byte	0x28
 2236 0562 7200 0000 		.long	0x72
 2237 0566 05        		.byte	0x5
 2238 0567 03        		.byte	0x3
 2239 0568 0000 0000 		.long	_ledBrightnessMax
 2240 056c 15        		.uleb128 0x15
 2241 056d 0000 0000 		.long	.LASF63
 2242 0571 01        		.byte	0x1
 2243 0572 29        		.byte	0x29
 2244 0573 7200 0000 		.long	0x72
 2245 0577 05        		.byte	0x5
 2246 0578 03        		.byte	0x3
 2247 0579 0000 0000 		.long	_ledBrightnessMax_saved
 2248 057d 24        		.uleb128 0x24
 2249 057e 0000 0000 		.long	.LASF64
 2250 0582 01        		.byte	0x1
 2251 0583 2A        		.byte	0x2a
 2252 0584 A004 0000 		.long	0x4a0
 2253 0588 1E        		.byte	0x1e
 2254 0589 24        		.uleb128 0x24
 2255 058a 0000 0000 		.long	.LASF65
 2256 058e 01        		.byte	0x1
 2257 058f 2B        		.byte	0x2b
 2258 0590 A004 0000 		.long	0x4a0
 2259 0594 19        		.byte	0x19
 2260 0595 15        		.uleb128 0x15
 2261 0596 0000 0000 		.long	.LASF66
 2262 059a 01        		.byte	0x1
 2263 059b 2D        		.byte	0x2d
 2264 059c 6B00 0000 		.long	0x6b
 2265 05a0 05        		.byte	0x5
 2266 05a1 03        		.byte	0x3
 2267 05a2 0000 0000 		.long	beyondFNCountDelay
 2268 05a6 25        		.uleb128 0x25
 2269 05a7 0000 0000 		.long	.LASF67
 2270 05ab 03        		.byte	0x3
 2271 05ac 40        		.byte	0x40
 2272 05ad 7200 0000 		.long	0x72
 2273 05b1 01        		.byte	0x1
 2274 05b2 01        		.byte	0x1
 2275 05b3 26        		.uleb128 0x26
 2276 05b4 0000 0000 		.long	.LASF68
 2277 05b8 01        		.byte	0x1
 2278 05b9 77        		.byte	0x77
 2279 05ba C505 0000 		.long	0x5c5
 2280 05be 01        		.byte	0x1
GAS LISTING C:\Users\ADMINI~1\AppData\Local\Temp/ccZqQ0UD.s 			page 41


 2281 05bf 05        		.byte	0x5
 2282 05c0 03        		.byte	0x3
 2283 05c1 0000 0000 		.long	pwmMAX
 2284 05c5 27        		.uleb128 0x27
 2285 05c6 6B00 0000 		.long	0x6b
 2286 05ca 26        		.uleb128 0x26
 2287 05cb 0000 0000 		.long	.LASF69
 2288 05cf 01        		.byte	0x1
 2289 05d0 78        		.byte	0x78
 2290 05d1 C505 0000 		.long	0x5c5
 2291 05d5 01        		.byte	0x1
 2292 05d6 05        		.byte	0x5
 2293 05d7 03        		.byte	0x3
 2294 05d8 0000 0000 		.long	pwmMIN
 2295 05dc 26        		.uleb128 0x26
 2296 05dd 0000 0000 		.long	.LASF70
 2297 05e1 01        		.byte	0x1
 2298 05e2 79        		.byte	0x79
 2299 05e3 C505 0000 		.long	0x5c5
 2300 05e7 01        		.byte	0x1
 2301 05e8 05        		.byte	0x5
 2302 05e9 03        		.byte	0x3
 2303 05ea 0000 0000 		.long	pwmValue
 2304 05ee 00        		.byte	0x0
 2305               		.section	.debug_abbrev
 2306 0000 01        		.uleb128 0x1
 2307 0001 11        		.uleb128 0x11
 2308 0002 01        		.byte	0x1
 2309 0003 25        		.uleb128 0x25
 2310 0004 0E        		.uleb128 0xe
 2311 0005 13        		.uleb128 0x13
 2312 0006 0B        		.uleb128 0xb
 2313 0007 03        		.uleb128 0x3
 2314 0008 0E        		.uleb128 0xe
 2315 0009 1B        		.uleb128 0x1b
 2316 000a 0E        		.uleb128 0xe
 2317 000b 11        		.uleb128 0x11
 2318 000c 01        		.uleb128 0x1
 2319 000d 12        		.uleb128 0x12
 2320 000e 01        		.uleb128 0x1
 2321 000f 10        		.uleb128 0x10
 2322 0010 06        		.uleb128 0x6
 2323 0011 00        		.byte	0x0
 2324 0012 00        		.byte	0x0
 2325 0013 02        		.uleb128 0x2
 2326 0014 24        		.uleb128 0x24
 2327 0015 00        		.byte	0x0
 2328 0016 0B        		.uleb128 0xb
 2329 0017 0B        		.uleb128 0xb
 2330 0018 3E        		.uleb128 0x3e
 2331 0019 0B        		.uleb128 0xb
 2332 001a 03        		.uleb128 0x3
 2333 001b 0E        		.uleb128 0xe
 2334 001c 00        		.byte	0x0
 2335 001d 00        		.byte	0x0
 2336 001e 03        		.uleb128 0x3
 2337 001f 24        		.uleb128 0x24
GAS LISTING C:\Users\ADMINI~1\AppData\Local\Temp/ccZqQ0UD.s 			page 42


 2338 0020 00        		.byte	0x0
 2339 0021 0B        		.uleb128 0xb
 2340 0022 0B        		.uleb128 0xb
 2341 0023 3E        		.uleb128 0x3e
 2342 0024 0B        		.uleb128 0xb
 2343 0025 03        		.uleb128 0x3
 2344 0026 08        		.uleb128 0x8
 2345 0027 00        		.byte	0x0
 2346 0028 00        		.byte	0x0
 2347 0029 04        		.uleb128 0x4
 2348 002a 16        		.uleb128 0x16
 2349 002b 00        		.byte	0x0
 2350 002c 03        		.uleb128 0x3
 2351 002d 0E        		.uleb128 0xe
 2352 002e 3A        		.uleb128 0x3a
 2353 002f 0B        		.uleb128 0xb
 2354 0030 3B        		.uleb128 0x3b
 2355 0031 0B        		.uleb128 0xb
 2356 0032 49        		.uleb128 0x49
 2357 0033 13        		.uleb128 0x13
 2358 0034 00        		.byte	0x0
 2359 0035 00        		.byte	0x0
 2360 0036 05        		.uleb128 0x5
 2361 0037 24        		.uleb128 0x24
 2362 0038 00        		.byte	0x0
 2363 0039 0B        		.uleb128 0xb
 2364 003a 0B        		.uleb128 0xb
 2365 003b 3E        		.uleb128 0x3e
 2366 003c 0B        		.uleb128 0xb
 2367 003d 00        		.byte	0x0
 2368 003e 00        		.byte	0x0
 2369 003f 06        		.uleb128 0x6
 2370 0040 2E        		.uleb128 0x2e
 2371 0041 00        		.byte	0x0
 2372 0042 3F        		.uleb128 0x3f
 2373 0043 0C        		.uleb128 0xc
 2374 0044 03        		.uleb128 0x3
 2375 0045 0E        		.uleb128 0xe
 2376 0046 3A        		.uleb128 0x3a
 2377 0047 0B        		.uleb128 0xb
 2378 0048 3B        		.uleb128 0x3b
 2379 0049 0B        		.uleb128 0xb
 2380 004a 27        		.uleb128 0x27
 2381 004b 0C        		.uleb128 0xc
 2382 004c 20        		.uleb128 0x20
 2383 004d 0B        		.uleb128 0xb
 2384 004e 00        		.byte	0x0
 2385 004f 00        		.byte	0x0
 2386 0050 07        		.uleb128 0x7
 2387 0051 2E        		.uleb128 0x2e
 2388 0052 00        		.byte	0x0
 2389 0053 3F        		.uleb128 0x3f
 2390 0054 0C        		.uleb128 0xc
 2391 0055 03        		.uleb128 0x3
 2392 0056 0E        		.uleb128 0xe
 2393 0057 3A        		.uleb128 0x3a
 2394 0058 0B        		.uleb128 0xb
GAS LISTING C:\Users\ADMINI~1\AppData\Local\Temp/ccZqQ0UD.s 			page 43


 2395 0059 3B        		.uleb128 0x3b
 2396 005a 0B        		.uleb128 0xb
 2397 005b 27        		.uleb128 0x27
 2398 005c 0C        		.uleb128 0xc
 2399 005d 49        		.uleb128 0x49
 2400 005e 13        		.uleb128 0x13
 2401 005f 20        		.uleb128 0x20
 2402 0060 0B        		.uleb128 0xb
 2403 0061 00        		.byte	0x0
 2404 0062 00        		.byte	0x0
 2405 0063 08        		.uleb128 0x8
 2406 0064 2E        		.uleb128 0x2e
 2407 0065 01        		.byte	0x1
 2408 0066 03        		.uleb128 0x3
 2409 0067 0E        		.uleb128 0xe
 2410 0068 3A        		.uleb128 0x3a
 2411 0069 0B        		.uleb128 0xb
 2412 006a 3B        		.uleb128 0x3b
 2413 006b 05        		.uleb128 0x5
 2414 006c 27        		.uleb128 0x27
 2415 006d 0C        		.uleb128 0xc
 2416 006e 20        		.uleb128 0x20
 2417 006f 0B        		.uleb128 0xb
 2418 0070 01        		.uleb128 0x1
 2419 0071 13        		.uleb128 0x13
 2420 0072 00        		.byte	0x0
 2421 0073 00        		.byte	0x0
 2422 0074 09        		.uleb128 0x9
 2423 0075 05        		.uleb128 0x5
 2424 0076 00        		.byte	0x0
 2425 0077 03        		.uleb128 0x3
 2426 0078 0E        		.uleb128 0xe
 2427 0079 3A        		.uleb128 0x3a
 2428 007a 0B        		.uleb128 0xb
 2429 007b 3B        		.uleb128 0x3b
 2430 007c 05        		.uleb128 0x5
 2431 007d 49        		.uleb128 0x49
 2432 007e 13        		.uleb128 0x13
 2433 007f 00        		.byte	0x0
 2434 0080 00        		.byte	0x0
 2435 0081 0A        		.uleb128 0xa
 2436 0082 34        		.uleb128 0x34
 2437 0083 00        		.byte	0x0
 2438 0084 03        		.uleb128 0x3
 2439 0085 0E        		.uleb128 0xe
 2440 0086 3A        		.uleb128 0x3a
 2441 0087 0B        		.uleb128 0xb
 2442 0088 3B        		.uleb128 0x3b
 2443 0089 05        		.uleb128 0x5
 2444 008a 49        		.uleb128 0x49
 2445 008b 13        		.uleb128 0x13
 2446 008c 00        		.byte	0x0
 2447 008d 00        		.byte	0x0
 2448 008e 0B        		.uleb128 0xb
 2449 008f 34        		.uleb128 0x34
 2450 0090 00        		.byte	0x0
 2451 0091 03        		.uleb128 0x3
GAS LISTING C:\Users\ADMINI~1\AppData\Local\Temp/ccZqQ0UD.s 			page 44


 2452 0092 08        		.uleb128 0x8
 2453 0093 3A        		.uleb128 0x3a
 2454 0094 0B        		.uleb128 0xb
 2455 0095 3B        		.uleb128 0x3b
 2456 0096 05        		.uleb128 0x5
 2457 0097 49        		.uleb128 0x49
 2458 0098 13        		.uleb128 0x13
 2459 0099 00        		.byte	0x0
 2460 009a 00        		.byte	0x0
 2461 009b 0C        		.uleb128 0xc
 2462 009c 0B        		.uleb128 0xb
 2463 009d 00        		.byte	0x0
 2464 009e 00        		.byte	0x0
 2465 009f 00        		.byte	0x0
 2466 00a0 0D        		.uleb128 0xd
 2467 00a1 34        		.uleb128 0x34
 2468 00a2 00        		.byte	0x0
 2469 00a3 03        		.uleb128 0x3
 2470 00a4 0E        		.uleb128 0xe
 2471 00a5 3A        		.uleb128 0x3a
 2472 00a6 0B        		.uleb128 0xb
 2473 00a7 3B        		.uleb128 0x3b
 2474 00a8 05        		.uleb128 0x5
 2475 00a9 49        		.uleb128 0x49
 2476 00aa 13        		.uleb128 0x13
 2477 00ab 02        		.uleb128 0x2
 2478 00ac 0A        		.uleb128 0xa
 2479 00ad 00        		.byte	0x0
 2480 00ae 00        		.byte	0x0
 2481 00af 0E        		.uleb128 0xe
 2482 00b0 26        		.uleb128 0x26
 2483 00b1 00        		.byte	0x0
 2484 00b2 49        		.uleb128 0x49
 2485 00b3 13        		.uleb128 0x13
 2486 00b4 00        		.byte	0x0
 2487 00b5 00        		.byte	0x0
 2488 00b6 0F        		.uleb128 0xf
 2489 00b7 2E        		.uleb128 0x2e
 2490 00b8 01        		.byte	0x1
 2491 00b9 3F        		.uleb128 0x3f
 2492 00ba 0C        		.uleb128 0xc
 2493 00bb 03        		.uleb128 0x3
 2494 00bc 0E        		.uleb128 0xe
 2495 00bd 3A        		.uleb128 0x3a
 2496 00be 0B        		.uleb128 0xb
 2497 00bf 3B        		.uleb128 0x3b
 2498 00c0 0B        		.uleb128 0xb
 2499 00c1 27        		.uleb128 0x27
 2500 00c2 0C        		.uleb128 0xc
 2501 00c3 11        		.uleb128 0x11
 2502 00c4 01        		.uleb128 0x1
 2503 00c5 12        		.uleb128 0x12
 2504 00c6 01        		.uleb128 0x1
 2505 00c7 40        		.uleb128 0x40
 2506 00c8 0A        		.uleb128 0xa
 2507 00c9 01        		.uleb128 0x1
 2508 00ca 13        		.uleb128 0x13
GAS LISTING C:\Users\ADMINI~1\AppData\Local\Temp/ccZqQ0UD.s 			page 45


 2509 00cb 00        		.byte	0x0
 2510 00cc 00        		.byte	0x0
 2511 00cd 10        		.uleb128 0x10
 2512 00ce 05        		.uleb128 0x5
 2513 00cf 00        		.byte	0x0
 2514 00d0 03        		.uleb128 0x3
 2515 00d1 0E        		.uleb128 0xe
 2516 00d2 3A        		.uleb128 0x3a
 2517 00d3 0B        		.uleb128 0xb
 2518 00d4 3B        		.uleb128 0x3b
 2519 00d5 0B        		.uleb128 0xb
 2520 00d6 49        		.uleb128 0x49
 2521 00d7 13        		.uleb128 0x13
 2522 00d8 02        		.uleb128 0x2
 2523 00d9 0A        		.uleb128 0xa
 2524 00da 00        		.byte	0x0
 2525 00db 00        		.byte	0x0
 2526 00dc 11        		.uleb128 0x11
 2527 00dd 2E        		.uleb128 0x2e
 2528 00de 00        		.byte	0x0
 2529 00df 31        		.uleb128 0x31
 2530 00e0 13        		.uleb128 0x13
 2531 00e1 11        		.uleb128 0x11
 2532 00e2 01        		.uleb128 0x1
 2533 00e3 12        		.uleb128 0x12
 2534 00e4 01        		.uleb128 0x1
 2535 00e5 40        		.uleb128 0x40
 2536 00e6 0A        		.uleb128 0xa
 2537 00e7 00        		.byte	0x0
 2538 00e8 00        		.byte	0x0
 2539 00e9 12        		.uleb128 0x12
 2540 00ea 2E        		.uleb128 0x2e
 2541 00eb 00        		.byte	0x0
 2542 00ec 3F        		.uleb128 0x3f
 2543 00ed 0C        		.uleb128 0xc
 2544 00ee 03        		.uleb128 0x3
 2545 00ef 0E        		.uleb128 0xe
 2546 00f0 3A        		.uleb128 0x3a
 2547 00f1 0B        		.uleb128 0xb
 2548 00f2 3B        		.uleb128 0x3b
 2549 00f3 0B        		.uleb128 0xb
 2550 00f4 27        		.uleb128 0x27
 2551 00f5 0C        		.uleb128 0xc
 2552 00f6 11        		.uleb128 0x11
 2553 00f7 01        		.uleb128 0x1
 2554 00f8 12        		.uleb128 0x12
 2555 00f9 01        		.uleb128 0x1
 2556 00fa 40        		.uleb128 0x40
 2557 00fb 0A        		.uleb128 0xa
 2558 00fc 00        		.byte	0x0
 2559 00fd 00        		.byte	0x0
 2560 00fe 13        		.uleb128 0x13
 2561 00ff 05        		.uleb128 0x5
 2562 0100 00        		.byte	0x0
 2563 0101 03        		.uleb128 0x3
 2564 0102 0E        		.uleb128 0xe
 2565 0103 3A        		.uleb128 0x3a
GAS LISTING C:\Users\ADMINI~1\AppData\Local\Temp/ccZqQ0UD.s 			page 46


 2566 0104 0B        		.uleb128 0xb
 2567 0105 3B        		.uleb128 0x3b
 2568 0106 0B        		.uleb128 0xb
 2569 0107 49        		.uleb128 0x49
 2570 0108 13        		.uleb128 0x13
 2571 0109 02        		.uleb128 0x2
 2572 010a 06        		.uleb128 0x6
 2573 010b 00        		.byte	0x0
 2574 010c 00        		.byte	0x0
 2575 010d 14        		.uleb128 0x14
 2576 010e 1D        		.uleb128 0x1d
 2577 010f 00        		.byte	0x0
 2578 0110 31        		.uleb128 0x31
 2579 0111 13        		.uleb128 0x13
 2580 0112 11        		.uleb128 0x11
 2581 0113 01        		.uleb128 0x1
 2582 0114 12        		.uleb128 0x12
 2583 0115 01        		.uleb128 0x1
 2584 0116 58        		.uleb128 0x58
 2585 0117 0B        		.uleb128 0xb
 2586 0118 59        		.uleb128 0x59
 2587 0119 0B        		.uleb128 0xb
 2588 011a 00        		.byte	0x0
 2589 011b 00        		.byte	0x0
 2590 011c 15        		.uleb128 0x15
 2591 011d 34        		.uleb128 0x34
 2592 011e 00        		.byte	0x0
 2593 011f 03        		.uleb128 0x3
 2594 0120 0E        		.uleb128 0xe
 2595 0121 3A        		.uleb128 0x3a
 2596 0122 0B        		.uleb128 0xb
 2597 0123 3B        		.uleb128 0x3b
 2598 0124 0B        		.uleb128 0xb
 2599 0125 49        		.uleb128 0x49
 2600 0126 13        		.uleb128 0x13
 2601 0127 02        		.uleb128 0x2
 2602 0128 0A        		.uleb128 0xa
 2603 0129 00        		.byte	0x0
 2604 012a 00        		.byte	0x0
 2605 012b 16        		.uleb128 0x16
 2606 012c 2E        		.uleb128 0x2e
 2607 012d 00        		.byte	0x0
 2608 012e 03        		.uleb128 0x3
 2609 012f 0E        		.uleb128 0xe
 2610 0130 3A        		.uleb128 0x3a
 2611 0131 0B        		.uleb128 0xb
 2612 0132 3B        		.uleb128 0x3b
 2613 0133 0B        		.uleb128 0xb
 2614 0134 27        		.uleb128 0x27
 2615 0135 0C        		.uleb128 0xc
 2616 0136 11        		.uleb128 0x11
 2617 0137 01        		.uleb128 0x1
 2618 0138 12        		.uleb128 0x12
 2619 0139 01        		.uleb128 0x1
 2620 013a 40        		.uleb128 0x40
 2621 013b 0A        		.uleb128 0xa
 2622 013c 00        		.byte	0x0
GAS LISTING C:\Users\ADMINI~1\AppData\Local\Temp/ccZqQ0UD.s 			page 47


 2623 013d 00        		.byte	0x0
 2624 013e 17        		.uleb128 0x17
 2625 013f 34        		.uleb128 0x34
 2626 0140 00        		.byte	0x0
 2627 0141 03        		.uleb128 0x3
 2628 0142 0E        		.uleb128 0xe
 2629 0143 3A        		.uleb128 0x3a
 2630 0144 0B        		.uleb128 0xb
 2631 0145 3B        		.uleb128 0x3b
 2632 0146 0B        		.uleb128 0xb
 2633 0147 49        		.uleb128 0x49
 2634 0148 13        		.uleb128 0x13
 2635 0149 02        		.uleb128 0x2
 2636 014a 06        		.uleb128 0x6
 2637 014b 00        		.byte	0x0
 2638 014c 00        		.byte	0x0
 2639 014d 18        		.uleb128 0x18
 2640 014e 2E        		.uleb128 0x2e
 2641 014f 00        		.byte	0x0
 2642 0150 3F        		.uleb128 0x3f
 2643 0151 0C        		.uleb128 0xc
 2644 0152 03        		.uleb128 0x3
 2645 0153 0E        		.uleb128 0xe
 2646 0154 3A        		.uleb128 0x3a
 2647 0155 0B        		.uleb128 0xb
 2648 0156 3B        		.uleb128 0x3b
 2649 0157 05        		.uleb128 0x5
 2650 0158 27        		.uleb128 0x27
 2651 0159 0C        		.uleb128 0xc
 2652 015a 11        		.uleb128 0x11
 2653 015b 01        		.uleb128 0x1
 2654 015c 12        		.uleb128 0x12
 2655 015d 01        		.uleb128 0x1
 2656 015e 40        		.uleb128 0x40
 2657 015f 0A        		.uleb128 0xa
 2658 0160 00        		.byte	0x0
 2659 0161 00        		.byte	0x0
 2660 0162 19        		.uleb128 0x19
 2661 0163 2E        		.uleb128 0x2e
 2662 0164 01        		.byte	0x1
 2663 0165 03        		.uleb128 0x3
 2664 0166 0E        		.uleb128 0xe
 2665 0167 3A        		.uleb128 0x3a
 2666 0168 0B        		.uleb128 0xb
 2667 0169 3B        		.uleb128 0x3b
 2668 016a 05        		.uleb128 0x5
 2669 016b 27        		.uleb128 0x27
 2670 016c 0C        		.uleb128 0xc
 2671 016d 49        		.uleb128 0x49
 2672 016e 13        		.uleb128 0x13
 2673 016f 11        		.uleb128 0x11
 2674 0170 01        		.uleb128 0x1
 2675 0171 12        		.uleb128 0x12
 2676 0172 01        		.uleb128 0x1
 2677 0173 40        		.uleb128 0x40
 2678 0174 0A        		.uleb128 0xa
 2679 0175 01        		.uleb128 0x1
GAS LISTING C:\Users\ADMINI~1\AppData\Local\Temp/ccZqQ0UD.s 			page 48


 2680 0176 13        		.uleb128 0x13
 2681 0177 00        		.byte	0x0
 2682 0178 00        		.byte	0x0
 2683 0179 1A        		.uleb128 0x1a
 2684 017a 05        		.uleb128 0x5
 2685 017b 00        		.byte	0x0
 2686 017c 03        		.uleb128 0x3
 2687 017d 0E        		.uleb128 0xe
 2688 017e 3A        		.uleb128 0x3a
 2689 017f 0B        		.uleb128 0xb
 2690 0180 3B        		.uleb128 0x3b
 2691 0181 05        		.uleb128 0x5
 2692 0182 49        		.uleb128 0x49
 2693 0183 13        		.uleb128 0x13
 2694 0184 02        		.uleb128 0x2
 2695 0185 06        		.uleb128 0x6
 2696 0186 00        		.byte	0x0
 2697 0187 00        		.byte	0x0
 2698 0188 1B        		.uleb128 0x1b
 2699 0189 2E        		.uleb128 0x2e
 2700 018a 00        		.byte	0x0
 2701 018b 03        		.uleb128 0x3
 2702 018c 0E        		.uleb128 0xe
 2703 018d 3A        		.uleb128 0x3a
 2704 018e 0B        		.uleb128 0xb
 2705 018f 3B        		.uleb128 0x3b
 2706 0190 05        		.uleb128 0x5
 2707 0191 27        		.uleb128 0x27
 2708 0192 0C        		.uleb128 0xc
 2709 0193 11        		.uleb128 0x11
 2710 0194 01        		.uleb128 0x1
 2711 0195 12        		.uleb128 0x12
 2712 0196 01        		.uleb128 0x1
 2713 0197 40        		.uleb128 0x40
 2714 0198 0A        		.uleb128 0xa
 2715 0199 00        		.byte	0x0
 2716 019a 00        		.byte	0x0
 2717 019b 1C        		.uleb128 0x1c
 2718 019c 2E        		.uleb128 0x2e
 2719 019d 01        		.byte	0x1
 2720 019e 3F        		.uleb128 0x3f
 2721 019f 0C        		.uleb128 0xc
 2722 01a0 03        		.uleb128 0x3
 2723 01a1 0E        		.uleb128 0xe
 2724 01a2 3A        		.uleb128 0x3a
 2725 01a3 0B        		.uleb128 0xb
 2726 01a4 3B        		.uleb128 0x3b
 2727 01a5 05        		.uleb128 0x5
 2728 01a6 27        		.uleb128 0x27
 2729 01a7 0C        		.uleb128 0xc
 2730 01a8 11        		.uleb128 0x11
 2731 01a9 01        		.uleb128 0x1
 2732 01aa 12        		.uleb128 0x12
 2733 01ab 01        		.uleb128 0x1
 2734 01ac 40        		.uleb128 0x40
 2735 01ad 0A        		.uleb128 0xa
 2736 01ae 01        		.uleb128 0x1
GAS LISTING C:\Users\ADMINI~1\AppData\Local\Temp/ccZqQ0UD.s 			page 49


 2737 01af 13        		.uleb128 0x13
 2738 01b0 00        		.byte	0x0
 2739 01b1 00        		.byte	0x0
 2740 01b2 1D        		.uleb128 0x1d
 2741 01b3 1D        		.uleb128 0x1d
 2742 01b4 01        		.byte	0x1
 2743 01b5 31        		.uleb128 0x31
 2744 01b6 13        		.uleb128 0x13
 2745 01b7 11        		.uleb128 0x11
 2746 01b8 01        		.uleb128 0x1
 2747 01b9 12        		.uleb128 0x12
 2748 01ba 01        		.uleb128 0x1
 2749 01bb 58        		.uleb128 0x58
 2750 01bc 0B        		.uleb128 0xb
 2751 01bd 59        		.uleb128 0x59
 2752 01be 05        		.uleb128 0x5
 2753 01bf 01        		.uleb128 0x1
 2754 01c0 13        		.uleb128 0x13
 2755 01c1 00        		.byte	0x0
 2756 01c2 00        		.byte	0x0
 2757 01c3 1E        		.uleb128 0x1e
 2758 01c4 05        		.uleb128 0x5
 2759 01c5 00        		.byte	0x0
 2760 01c6 31        		.uleb128 0x31
 2761 01c7 13        		.uleb128 0x13
 2762 01c8 00        		.byte	0x0
 2763 01c9 00        		.byte	0x0
 2764 01ca 1F        		.uleb128 0x1f
 2765 01cb 0B        		.uleb128 0xb
 2766 01cc 01        		.byte	0x1
 2767 01cd 55        		.uleb128 0x55
 2768 01ce 06        		.uleb128 0x6
 2769 01cf 00        		.byte	0x0
 2770 01d0 00        		.byte	0x0
 2771 01d1 20        		.uleb128 0x20
 2772 01d2 34        		.uleb128 0x34
 2773 01d3 00        		.byte	0x0
 2774 01d4 31        		.uleb128 0x31
 2775 01d5 13        		.uleb128 0x13
 2776 01d6 00        		.byte	0x0
 2777 01d7 00        		.byte	0x0
 2778 01d8 21        		.uleb128 0x21
 2779 01d9 34        		.uleb128 0x34
 2780 01da 00        		.byte	0x0
 2781 01db 31        		.uleb128 0x31
 2782 01dc 13        		.uleb128 0x13
 2783 01dd 02        		.uleb128 0x2
 2784 01de 06        		.uleb128 0x6
 2785 01df 00        		.byte	0x0
 2786 01e0 00        		.byte	0x0
 2787 01e1 22        		.uleb128 0x22
 2788 01e2 0B        		.uleb128 0xb
 2789 01e3 01        		.byte	0x1
 2790 01e4 11        		.uleb128 0x11
 2791 01e5 01        		.uleb128 0x1
 2792 01e6 12        		.uleb128 0x12
 2793 01e7 01        		.uleb128 0x1
GAS LISTING C:\Users\ADMINI~1\AppData\Local\Temp/ccZqQ0UD.s 			page 50


 2794 01e8 00        		.byte	0x0
 2795 01e9 00        		.byte	0x0
 2796 01ea 23        		.uleb128 0x23
 2797 01eb 1D        		.uleb128 0x1d
 2798 01ec 00        		.byte	0x0
 2799 01ed 31        		.uleb128 0x31
 2800 01ee 13        		.uleb128 0x13
 2801 01ef 11        		.uleb128 0x11
 2802 01f0 01        		.uleb128 0x1
 2803 01f1 12        		.uleb128 0x12
 2804 01f2 01        		.uleb128 0x1
 2805 01f3 58        		.uleb128 0x58
 2806 01f4 0B        		.uleb128 0xb
 2807 01f5 59        		.uleb128 0x59
 2808 01f6 05        		.uleb128 0x5
 2809 01f7 00        		.byte	0x0
 2810 01f8 00        		.byte	0x0
 2811 01f9 24        		.uleb128 0x24
 2812 01fa 34        		.uleb128 0x34
 2813 01fb 00        		.byte	0x0
 2814 01fc 03        		.uleb128 0x3
 2815 01fd 0E        		.uleb128 0xe
 2816 01fe 3A        		.uleb128 0x3a
 2817 01ff 0B        		.uleb128 0xb
 2818 0200 3B        		.uleb128 0x3b
 2819 0201 0B        		.uleb128 0xb
 2820 0202 49        		.uleb128 0x49
 2821 0203 13        		.uleb128 0x13
 2822 0204 1C        		.uleb128 0x1c
 2823 0205 0B        		.uleb128 0xb
 2824 0206 00        		.byte	0x0
 2825 0207 00        		.byte	0x0
 2826 0208 25        		.uleb128 0x25
 2827 0209 34        		.uleb128 0x34
 2828 020a 00        		.byte	0x0
 2829 020b 03        		.uleb128 0x3
 2830 020c 0E        		.uleb128 0xe
 2831 020d 3A        		.uleb128 0x3a
 2832 020e 0B        		.uleb128 0xb
 2833 020f 3B        		.uleb128 0x3b
 2834 0210 0B        		.uleb128 0xb
 2835 0211 49        		.uleb128 0x49
 2836 0212 13        		.uleb128 0x13
 2837 0213 3F        		.uleb128 0x3f
 2838 0214 0C        		.uleb128 0xc
 2839 0215 3C        		.uleb128 0x3c
 2840 0216 0C        		.uleb128 0xc
 2841 0217 00        		.byte	0x0
 2842 0218 00        		.byte	0x0
 2843 0219 26        		.uleb128 0x26
 2844 021a 34        		.uleb128 0x34
 2845 021b 00        		.byte	0x0
 2846 021c 03        		.uleb128 0x3
 2847 021d 0E        		.uleb128 0xe
 2848 021e 3A        		.uleb128 0x3a
 2849 021f 0B        		.uleb128 0xb
 2850 0220 3B        		.uleb128 0x3b
GAS LISTING C:\Users\ADMINI~1\AppData\Local\Temp/ccZqQ0UD.s 			page 51


 2851 0221 0B        		.uleb128 0xb
 2852 0222 49        		.uleb128 0x49
 2853 0223 13        		.uleb128 0x13
 2854 0224 3F        		.uleb128 0x3f
 2855 0225 0C        		.uleb128 0xc
 2856 0226 02        		.uleb128 0x2
 2857 0227 0A        		.uleb128 0xa
 2858 0228 00        		.byte	0x0
 2859 0229 00        		.byte	0x0
 2860 022a 27        		.uleb128 0x27
 2861 022b 35        		.uleb128 0x35
 2862 022c 00        		.byte	0x0
 2863 022d 49        		.uleb128 0x49
 2864 022e 13        		.uleb128 0x13
 2865 022f 00        		.byte	0x0
 2866 0230 00        		.byte	0x0
 2867 0231 00        		.byte	0x0
 2868               		.section	.debug_pubnames,"",@progbits
 2869 0000 8B01 0000 		.long	0x18b
 2870 0004 0200      		.word	0x2
 2871 0006 0000 0000 		.long	.Ldebug_info0
 2872 000a EF05 0000 		.long	0x5ef
 2873 000e 7201 0000 		.long	0x172
 2874 0012 7365 744C 		.string	"setLEDState"
 2874      4544 5374 
 2874      6174 6500 
 2875 001e 9801 0000 		.long	0x198
 2876 0022 6765 744C 		.string	"getLEDState"
 2876      4544 5374 
 2876      6174 6500 
 2877 002e A801 0000 		.long	0x1a8
 2878 0032 636C 6561 		.string	"clearLEDInited"
 2878      724C 4544 
 2878      496E 6974 
 2878      6564 00
 2879 0041 BC01 0000 		.long	0x1bc
 2880 0045 7374 6F70 		.string	"stopTimer"
 2880      5469 6D65 
 2880      7200 
 2881 004f CC01 0000 		.long	0x1cc
 2882 0053 7374 6172 		.string	"startTimer"
 2882      7454 696D 
 2882      6572 00
 2883 005e DC01 0000 		.long	0x1dc
 2884 0062 7469 6D65 		.string	"timerProcessCompareB"
 2884      7250 726F 
 2884      6365 7373 
 2884      436F 6D70 
 2884      6172 6542 
 2885 0077 F001 0000 		.long	0x1f0
 2886 007b 7469 6D65 		.string	"timerProcessCompareA"
 2886      7250 726F 
 2886      6365 7373 
 2886      436F 6D70 
 2886      6172 6541 
 2887 0090 0402 0000 		.long	0x204
 2888 0094 7365 7450 		.string	"setPWM"
GAS LISTING C:\Users\ADMINI~1\AppData\Local\Temp/ccZqQ0UD.s 			page 52


 2888      574D 00
 2889 009b 6E02 0000 		.long	0x26e
 2890 009f 6368 616E 		.string	"changeFullLedState"
 2890      6765 4675 
 2890      6C6C 4C65 
 2890      6453 7461 
 2890      7465 00
 2891 00b2 8202 0000 		.long	0x282
 2892 00b6 7265 6475 		.string	"reduceLedBrightness"
 2892      6365 4C65 
 2892      6442 7269 
 2892      6768 746E 
 2892      6573 7300 
 2893 00ca 9602 0000 		.long	0x296
 2894 00ce 696E 6372 		.string	"increaseLedBrightness"
 2894      6561 7365 
 2894      4C65 6442 
 2894      7269 6768 
 2894      746E 6573 
 2895 00e4 BE02 0000 		.long	0x2be
 2896 00e8 7365 744C 		.string	"setLEDIndicate"
 2896      4544 496E 
 2896      6469 6361 
 2896      7465 00
 2897 00f7 E902 0000 		.long	0x2e9
 2898 00fb 6170 706C 		.string	"applyKeyDownForFullLED"
 2898      794B 6579 
 2898      446F 776E 
 2898      466F 7246 
 2898      756C 6C4C 
 2899 0112 4B03 0000 		.long	0x34b
 2900 0116 6661 6465 		.string	"fadePWM"
 2900      5057 4D00 
 2901 011e 5B03 0000 		.long	0x35b
 2902 0122 736C 6565 		.string	"sleepLED"
 2902      704C 4544 
 2902      00
 2903 012b 7003 0000 		.long	0x370
 2904 012f 7761 6B65 		.string	"wakeUpLED"
 2904      5570 4C45 
 2904      4400 
 2905 0139 8503 0000 		.long	0x385
 2906 013d 646F 536C 		.string	"doSleep"
 2906      6565 7000 
 2907 0145 9A03 0000 		.long	0x39a
 2908 0149 7265 6E64 		.string	"renderLED"
 2908      6572 4C45 
 2908      4400 
 2909 0153 4A04 0000 		.long	0x44a
 2910 0157 696E 6974 		.string	"initFullLEDState"
 2910      4675 6C6C 
 2910      4C45 4453 
 2910      7461 7465 
 2910      00
 2911 0168 B305 0000 		.long	0x5b3
 2912 016c 7077 6D4D 		.string	"pwmMAX"
 2912      4158 00
GAS LISTING C:\Users\ADMINI~1\AppData\Local\Temp/ccZqQ0UD.s 			page 53


 2913 0173 CA05 0000 		.long	0x5ca
 2914 0177 7077 6D4D 		.string	"pwmMIN"
 2914      494E 00
 2915 017e DC05 0000 		.long	0x5dc
 2916 0182 7077 6D56 		.string	"pwmValue"
 2916      616C 7565 
 2916      00
 2917 018b 0000 0000 		.long	0x0
 2918               		.section	.debug_aranges,"",@progbits
 2919 0000 1C00 0000 		.long	0x1c
 2920 0004 0200      		.word	0x2
 2921 0006 0000 0000 		.long	.Ldebug_info0
 2922 000a 04        		.byte	0x4
 2923 000b 00        		.byte	0x0
 2924 000c 0000      		.word	0x0
 2925 000e 0000      		.word	0x0
 2926 0010 0000 0000 		.long	.Ltext0
 2927 0014 2A07 0000 		.long	.Letext0-.Ltext0
 2928 0018 0000 0000 		.long	0x0
 2929 001c 0000 0000 		.long	0x0
 2930               		.section	.debug_ranges,"",@progbits
 2931               	.Ldebug_ranges0:
 2932 0000 FE04 0000 		.long	.LBB29-.Ltext0
 2933 0004 4605 0000 		.long	.LBE29-.Ltext0
 2934 0008 5205 0000 		.long	.LBB30-.Ltext0
 2935 000c A405 0000 		.long	.LBE30-.Ltext0
 2936 0010 0000 0000 		.long	0x0
 2937 0014 0000 0000 		.long	0x0
 2938               		.section	.debug_line
 2939 0000 ED07 0000 		.long	.LELT0-.LSLT0
 2940               	.LSLT0:
 2941 0004 0200      		.word	0x2
 2942 0006 6A00 0000 		.long	.LELTP0-.LASLTP0
 2943               	.LASLTP0:
 2944 000a 01        		.byte	0x1
 2945 000b 01        		.byte	0x1
 2946 000c F6        		.byte	0xf6
 2947 000d F5        		.byte	0xf5
 2948 000e 0A        		.byte	0xa
 2949 000f 00        		.byte	0x0
 2950 0010 01        		.byte	0x1
 2951 0011 01        		.byte	0x1
 2952 0012 01        		.byte	0x1
 2953 0013 01        		.byte	0x1
 2954 0014 00        		.byte	0x0
 2955 0015 00        		.byte	0x0
 2956 0016 00        		.byte	0x0
 2957 0017 01        		.byte	0x1
 2958 0018 633A 2F77 		.ascii	"c:/winavr-20100110/lib/gcc/../../avr/include"
 2958      696E 6176 
 2958      722D 3230 
 2958      3130 3031 
 2958      3130 2F6C 
 2959 0044 00        		.byte	0
 2960 0045 00        		.byte	0x0
 2961 0046 6C65 6472 		.string	"ledrender.c"
 2961      656E 6465 
GAS LISTING C:\Users\ADMINI~1\AppData\Local\Temp/ccZqQ0UD.s 			page 54


 2961      722E 6300 
 2962 0052 00        		.uleb128 0x0
 2963 0053 00        		.uleb128 0x0
 2964 0054 00        		.uleb128 0x0
 2965 0055 7374 6469 		.string	"stdint.h"
 2965      6E74 2E68 
 2965      00
 2966 005e 01        		.uleb128 0x1
 2967 005f 00        		.uleb128 0x0
 2968 0060 00        		.uleb128 0x0
 2969 0061 6861 7264 		.string	"hardwareinfo.h"
 2969      7761 7265 
 2969      696E 666F 
 2969      2E68 00
 2970 0070 00        		.uleb128 0x0
 2971 0071 00        		.uleb128 0x0
 2972 0072 00        		.uleb128 0x0
 2973 0073 00        		.byte	0x0
 2974               	.LELTP0:
 2975 0074 00        		.byte	0x0
 2976 0075 05        		.uleb128 0x5
 2977 0076 02        		.byte	0x2
 2978 0077 0000 0000 		.long	.LM1
 2979 007b 46        		.byte	0x46
 2980 007c 00        		.byte	0x0
 2981 007d 05        		.uleb128 0x5
 2982 007e 02        		.byte	0x2
 2983 007f 0000 0000 		.long	.LM2
 2984 0083 15        		.byte	0x15
 2985 0084 00        		.byte	0x0
 2986 0085 05        		.uleb128 0x5
 2987 0086 02        		.byte	0x2
 2988 0087 0000 0000 		.long	.LM3
 2989 008b 15        		.byte	0x15
 2990 008c 00        		.byte	0x0
 2991 008d 05        		.uleb128 0x5
 2992 008e 02        		.byte	0x2
 2993 008f 0000 0000 		.long	.LM4
 2994 0093 15        		.byte	0x15
 2995 0094 00        		.byte	0x0
 2996 0095 05        		.uleb128 0x5
 2997 0096 02        		.byte	0x2
 2998 0097 0000 0000 		.long	.LM5
 2999 009b 16        		.byte	0x16
 3000 009c 00        		.byte	0x0
 3001 009d 05        		.uleb128 0x5
 3002 009e 02        		.byte	0x2
 3003 009f 0000 0000 		.long	.LM6
 3004 00a3 4F        		.byte	0x4f
 3005 00a4 00        		.byte	0x0
 3006 00a5 05        		.uleb128 0x5
 3007 00a6 02        		.byte	0x2
 3008 00a7 0000 0000 		.long	.LM7
 3009 00ab 15        		.byte	0x15
 3010 00ac 00        		.byte	0x0
 3011 00ad 05        		.uleb128 0x5
 3012 00ae 02        		.byte	0x2
GAS LISTING C:\Users\ADMINI~1\AppData\Local\Temp/ccZqQ0UD.s 			page 55


 3013 00af 0000 0000 		.long	.LM8
 3014 00b3 15        		.byte	0x15
 3015 00b4 00        		.byte	0x0
 3016 00b5 05        		.uleb128 0x5
 3017 00b6 02        		.byte	0x2
 3018 00b7 0000 0000 		.long	.LM9
 3019 00bb 1B        		.byte	0x1b
 3020 00bc 00        		.byte	0x0
 3021 00bd 05        		.uleb128 0x5
 3022 00be 02        		.byte	0x2
 3023 00bf 0000 0000 		.long	.LM10
 3024 00c3 15        		.byte	0x15
 3025 00c4 00        		.byte	0x0
 3026 00c5 05        		.uleb128 0x5
 3027 00c6 02        		.byte	0x2
 3028 00c7 0000 0000 		.long	.LM11
 3029 00cb 15        		.byte	0x15
 3030 00cc 00        		.byte	0x0
 3031 00cd 05        		.uleb128 0x5
 3032 00ce 02        		.byte	0x2
 3033 00cf 0000 0000 		.long	.LM12
 3034 00d3 16        		.byte	0x16
 3035 00d4 00        		.byte	0x0
 3036 00d5 05        		.uleb128 0x5
 3037 00d6 02        		.byte	0x2
 3038 00d7 0000 0000 		.long	.LM13
 3039 00db 19        		.byte	0x19
 3040 00dc 00        		.byte	0x0
 3041 00dd 05        		.uleb128 0x5
 3042 00de 02        		.byte	0x2
 3043 00df 0000 0000 		.long	.LM14
 3044 00e3 17        		.byte	0x17
 3045 00e4 00        		.byte	0x0
 3046 00e5 05        		.uleb128 0x5
 3047 00e6 02        		.byte	0x2
 3048 00e7 0000 0000 		.long	.LM15
 3049 00eb 15        		.byte	0x15
 3050 00ec 00        		.byte	0x0
 3051 00ed 05        		.uleb128 0x5
 3052 00ee 02        		.byte	0x2
 3053 00ef 0000 0000 		.long	.LM16
 3054 00f3 15        		.byte	0x15
 3055 00f4 00        		.byte	0x0
 3056 00f5 05        		.uleb128 0x5
 3057 00f6 02        		.byte	0x2
 3058 00f7 0000 0000 		.long	.LM17
 3059 00fb 15        		.byte	0x15
 3060 00fc 00        		.byte	0x0
 3061 00fd 05        		.uleb128 0x5
 3062 00fe 02        		.byte	0x2
 3063 00ff 0000 0000 		.long	.LM18
 3064 0103 15        		.byte	0x15
 3065 0104 00        		.byte	0x0
 3066 0105 05        		.uleb128 0x5
 3067 0106 02        		.byte	0x2
 3068 0107 0000 0000 		.long	.LM19
 3069 010b 15        		.byte	0x15
GAS LISTING C:\Users\ADMINI~1\AppData\Local\Temp/ccZqQ0UD.s 			page 56


 3070 010c 00        		.byte	0x0
 3071 010d 05        		.uleb128 0x5
 3072 010e 02        		.byte	0x2
 3073 010f 0000 0000 		.long	.LM20
 3074 0113 15        		.byte	0x15
 3075 0114 00        		.byte	0x0
 3076 0115 05        		.uleb128 0x5
 3077 0116 02        		.byte	0x2
 3078 0117 0000 0000 		.long	.LM21
 3079 011b 15        		.byte	0x15
 3080 011c 00        		.byte	0x0
 3081 011d 05        		.uleb128 0x5
 3082 011e 02        		.byte	0x2
 3083 011f 0000 0000 		.long	.LM22
 3084 0123 15        		.byte	0x15
 3085 0124 00        		.byte	0x0
 3086 0125 05        		.uleb128 0x5
 3087 0126 02        		.byte	0x2
 3088 0127 0000 0000 		.long	.LM23
 3089 012b 17        		.byte	0x17
 3090 012c 00        		.byte	0x0
 3091 012d 05        		.uleb128 0x5
 3092 012e 02        		.byte	0x2
 3093 012f 0000 0000 		.long	.LM24
 3094 0133 15        		.byte	0x15
 3095 0134 00        		.byte	0x0
 3096 0135 05        		.uleb128 0x5
 3097 0136 02        		.byte	0x2
 3098 0137 0000 0000 		.long	.LM25
 3099 013b 15        		.byte	0x15
 3100 013c 00        		.byte	0x0
 3101 013d 05        		.uleb128 0x5
 3102 013e 02        		.byte	0x2
 3103 013f 0000 0000 		.long	.LM26
 3104 0143 03        		.byte	0x3
 3105 0144 68        		.sleb128 -24
 3106 0145 01        		.byte	0x1
 3107 0146 00        		.byte	0x0
 3108 0147 05        		.uleb128 0x5
 3109 0148 02        		.byte	0x2
 3110 0149 0000 0000 		.long	.LM27
 3111 014d 2E        		.byte	0x2e
 3112 014e 00        		.byte	0x0
 3113 014f 05        		.uleb128 0x5
 3114 0150 02        		.byte	0x2
 3115 0151 0000 0000 		.long	.LM28
 3116 0155 03        		.byte	0x3
 3117 0156 6E        		.sleb128 -18
 3118 0157 01        		.byte	0x1
 3119 0158 00        		.byte	0x0
 3120 0159 05        		.uleb128 0x5
 3121 015a 02        		.byte	0x2
 3122 015b 0000 0000 		.long	.LM29
 3123 015f 29        		.byte	0x29
 3124 0160 00        		.byte	0x0
 3125 0161 05        		.uleb128 0x5
 3126 0162 02        		.byte	0x2
GAS LISTING C:\Users\ADMINI~1\AppData\Local\Temp/ccZqQ0UD.s 			page 57


 3127 0163 0000 0000 		.long	.LM30
 3128 0167 15        		.byte	0x15
 3129 0168 00        		.byte	0x0
 3130 0169 05        		.uleb128 0x5
 3131 016a 02        		.byte	0x2
 3132 016b 0000 0000 		.long	.LM31
 3133 016f 03        		.byte	0x3
 3134 0170 9F7F      		.sleb128 -97
 3135 0172 01        		.byte	0x1
 3136 0173 00        		.byte	0x0
 3137 0174 05        		.uleb128 0x5
 3138 0175 02        		.byte	0x2
 3139 0176 0000 0000 		.long	.LM32
 3140 017a 1C        		.byte	0x1c
 3141 017b 00        		.byte	0x0
 3142 017c 05        		.uleb128 0x5
 3143 017d 02        		.byte	0x2
 3144 017e 0000 0000 		.long	.LM33
 3145 0182 15        		.byte	0x15
 3146 0183 00        		.byte	0x0
 3147 0184 05        		.uleb128 0x5
 3148 0185 02        		.byte	0x2
 3149 0186 0000 0000 		.long	.LM34
 3150 018a 15        		.byte	0x15
 3151 018b 00        		.byte	0x0
 3152 018c 05        		.uleb128 0x5
 3153 018d 02        		.byte	0x2
 3154 018e 0000 0000 		.long	.LM35
 3155 0192 15        		.byte	0x15
 3156 0193 00        		.byte	0x0
 3157 0194 05        		.uleb128 0x5
 3158 0195 02        		.byte	0x2
 3159 0196 0000 0000 		.long	.LM36
 3160 019a 15        		.byte	0x15
 3161 019b 00        		.byte	0x0
 3162 019c 05        		.uleb128 0x5
 3163 019d 02        		.byte	0x2
 3164 019e 0000 0000 		.long	.LM37
 3165 01a2 16        		.byte	0x16
 3166 01a3 00        		.byte	0x0
 3167 01a4 05        		.uleb128 0x5
 3168 01a5 02        		.byte	0x2
 3169 01a6 0000 0000 		.long	.LM38
 3170 01aa 15        		.byte	0x15
 3171 01ab 00        		.byte	0x0
 3172 01ac 05        		.uleb128 0x5
 3173 01ad 02        		.byte	0x2
 3174 01ae 0000 0000 		.long	.LM39
 3175 01b2 15        		.byte	0x15
 3176 01b3 00        		.byte	0x0
 3177 01b4 05        		.uleb128 0x5
 3178 01b5 02        		.byte	0x2
 3179 01b6 0000 0000 		.long	.LM40
 3180 01ba 15        		.byte	0x15
 3181 01bb 00        		.byte	0x0
 3182 01bc 05        		.uleb128 0x5
 3183 01bd 02        		.byte	0x2
GAS LISTING C:\Users\ADMINI~1\AppData\Local\Temp/ccZqQ0UD.s 			page 58


 3184 01be 0000 0000 		.long	.LM41
 3185 01c2 15        		.byte	0x15
 3186 01c3 00        		.byte	0x0
 3187 01c4 05        		.uleb128 0x5
 3188 01c5 02        		.byte	0x2
 3189 01c6 0000 0000 		.long	.LM42
 3190 01ca 15        		.byte	0x15
 3191 01cb 00        		.byte	0x0
 3192 01cc 05        		.uleb128 0x5
 3193 01cd 02        		.byte	0x2
 3194 01ce 0000 0000 		.long	.LM43
 3195 01d2 32        		.byte	0x32
 3196 01d3 00        		.byte	0x0
 3197 01d4 05        		.uleb128 0x5
 3198 01d5 02        		.byte	0x2
 3199 01d6 0000 0000 		.long	.LM44
 3200 01da 16        		.byte	0x16
 3201 01db 00        		.byte	0x0
 3202 01dc 05        		.uleb128 0x5
 3203 01dd 02        		.byte	0x2
 3204 01de 0000 0000 		.long	.LM45
 3205 01e2 15        		.byte	0x15
 3206 01e3 00        		.byte	0x0
 3207 01e4 05        		.uleb128 0x5
 3208 01e5 02        		.byte	0x2
 3209 01e6 0000 0000 		.long	.LM46
 3210 01ea 16        		.byte	0x16
 3211 01eb 00        		.byte	0x0
 3212 01ec 05        		.uleb128 0x5
 3213 01ed 02        		.byte	0x2
 3214 01ee 0000 0000 		.long	.LM47
 3215 01f2 15        		.byte	0x15
 3216 01f3 00        		.byte	0x0
 3217 01f4 05        		.uleb128 0x5
 3218 01f5 02        		.byte	0x2
 3219 01f6 0000 0000 		.long	.LM48
 3220 01fa 03        		.byte	0x3
 3221 01fb 6E        		.sleb128 -18
 3222 01fc 01        		.byte	0x1
 3223 01fd 00        		.byte	0x0
 3224 01fe 05        		.uleb128 0x5
 3225 01ff 02        		.byte	0x2
 3226 0200 0000 0000 		.long	.LM49
 3227 0204 15        		.byte	0x15
 3228 0205 00        		.byte	0x0
 3229 0206 05        		.uleb128 0x5
 3230 0207 02        		.byte	0x2
 3231 0208 0000 0000 		.long	.LM50
 3232 020c 16        		.byte	0x16
 3233 020d 00        		.byte	0x0
 3234 020e 05        		.uleb128 0x5
 3235 020f 02        		.byte	0x2
 3236 0210 0000 0000 		.long	.LM51
 3237 0214 15        		.byte	0x15
 3238 0215 00        		.byte	0x0
 3239 0216 05        		.uleb128 0x5
 3240 0217 02        		.byte	0x2
GAS LISTING C:\Users\ADMINI~1\AppData\Local\Temp/ccZqQ0UD.s 			page 59


 3241 0218 0000 0000 		.long	.LM52
 3242 021c 15        		.byte	0x15
 3243 021d 00        		.byte	0x0
 3244 021e 05        		.uleb128 0x5
 3245 021f 02        		.byte	0x2
 3246 0220 0000 0000 		.long	.LM53
 3247 0224 16        		.byte	0x16
 3248 0225 00        		.byte	0x0
 3249 0226 05        		.uleb128 0x5
 3250 0227 02        		.byte	0x2
 3251 0228 0000 0000 		.long	.LM54
 3252 022c 15        		.byte	0x15
 3253 022d 00        		.byte	0x0
 3254 022e 05        		.uleb128 0x5
 3255 022f 02        		.byte	0x2
 3256 0230 0000 0000 		.long	.LM55
 3257 0234 16        		.byte	0x16
 3258 0235 00        		.byte	0x0
 3259 0236 05        		.uleb128 0x5
 3260 0237 02        		.byte	0x2
 3261 0238 0000 0000 		.long	.LM56
 3262 023c 03        		.byte	0x3
 3263 023d 68        		.sleb128 -24
 3264 023e 01        		.byte	0x1
 3265 023f 00        		.byte	0x0
 3266 0240 05        		.uleb128 0x5
 3267 0241 02        		.byte	0x2
 3268 0242 0000 0000 		.long	.LM57
 3269 0246 15        		.byte	0x15
 3270 0247 00        		.byte	0x0
 3271 0248 05        		.uleb128 0x5
 3272 0249 02        		.byte	0x2
 3273 024a 0000 0000 		.long	.LM58
 3274 024e 16        		.byte	0x16
 3275 024f 00        		.byte	0x0
 3276 0250 05        		.uleb128 0x5
 3277 0251 02        		.byte	0x2
 3278 0252 0000 0000 		.long	.LM59
 3279 0256 15        		.byte	0x15
 3280 0257 00        		.byte	0x0
 3281 0258 05        		.uleb128 0x5
 3282 0259 02        		.byte	0x2
 3283 025a 0000 0000 		.long	.LM60
 3284 025e 15        		.byte	0x15
 3285 025f 00        		.byte	0x0
 3286 0260 05        		.uleb128 0x5
 3287 0261 02        		.byte	0x2
 3288 0262 0000 0000 		.long	.LM61
 3289 0266 16        		.byte	0x16
 3290 0267 00        		.byte	0x0
 3291 0268 05        		.uleb128 0x5
 3292 0269 02        		.byte	0x2
 3293 026a 0000 0000 		.long	.LM62
 3294 026e 16        		.byte	0x16
 3295 026f 00        		.byte	0x0
 3296 0270 05        		.uleb128 0x5
 3297 0271 02        		.byte	0x2
GAS LISTING C:\Users\ADMINI~1\AppData\Local\Temp/ccZqQ0UD.s 			page 60


 3298 0272 0000 0000 		.long	.LM63
 3299 0276 15        		.byte	0x15
 3300 0277 00        		.byte	0x0
 3301 0278 05        		.uleb128 0x5
 3302 0279 02        		.byte	0x2
 3303 027a 0000 0000 		.long	.LM64
 3304 027e 16        		.byte	0x16
 3305 027f 00        		.byte	0x0
 3306 0280 05        		.uleb128 0x5
 3307 0281 02        		.byte	0x2
 3308 0282 0000 0000 		.long	.LM65
 3309 0286 A6        		.byte	0xa6
 3310 0287 00        		.byte	0x0
 3311 0288 05        		.uleb128 0x5
 3312 0289 02        		.byte	0x2
 3313 028a 0000 0000 		.long	.LM66
 3314 028e 15        		.byte	0x15
 3315 028f 00        		.byte	0x0
 3316 0290 05        		.uleb128 0x5
 3317 0291 02        		.byte	0x2
 3318 0292 0000 0000 		.long	.LM67
 3319 0296 15        		.byte	0x15
 3320 0297 00        		.byte	0x0
 3321 0298 05        		.uleb128 0x5
 3322 0299 02        		.byte	0x2
 3323 029a 0000 0000 		.long	.LM68
 3324 029e 16        		.byte	0x16
 3325 029f 00        		.byte	0x0
 3326 02a0 05        		.uleb128 0x5
 3327 02a1 02        		.byte	0x2
 3328 02a2 0000 0000 		.long	.LM69
 3329 02a6 16        		.byte	0x16
 3330 02a7 00        		.byte	0x0
 3331 02a8 05        		.uleb128 0x5
 3332 02a9 02        		.byte	0x2
 3333 02aa 0000 0000 		.long	.LM70
 3334 02ae 15        		.byte	0x15
 3335 02af 00        		.byte	0x0
 3336 02b0 05        		.uleb128 0x5
 3337 02b1 02        		.byte	0x2
 3338 02b2 0000 0000 		.long	.LM71
 3339 02b6 16        		.byte	0x16
 3340 02b7 00        		.byte	0x0
 3341 02b8 05        		.uleb128 0x5
 3342 02b9 02        		.byte	0x2
 3343 02ba 0000 0000 		.long	.LM72
 3344 02be 18        		.byte	0x18
 3345 02bf 00        		.byte	0x0
 3346 02c0 05        		.uleb128 0x5
 3347 02c1 02        		.byte	0x2
 3348 02c2 0000 0000 		.long	.LM73
 3349 02c6 15        		.byte	0x15
 3350 02c7 00        		.byte	0x0
 3351 02c8 05        		.uleb128 0x5
 3352 02c9 02        		.byte	0x2
 3353 02ca 0000 0000 		.long	.LM74
 3354 02ce 1B        		.byte	0x1b
GAS LISTING C:\Users\ADMINI~1\AppData\Local\Temp/ccZqQ0UD.s 			page 61


 3355 02cf 00        		.byte	0x0
 3356 02d0 05        		.uleb128 0x5
 3357 02d1 02        		.byte	0x2
 3358 02d2 0000 0000 		.long	.LM75
 3359 02d6 0F        		.byte	0xf
 3360 02d7 00        		.byte	0x0
 3361 02d8 05        		.uleb128 0x5
 3362 02d9 02        		.byte	0x2
 3363 02da 0000 0000 		.long	.LM76
 3364 02de 24        		.byte	0x24
 3365 02df 00        		.byte	0x0
 3366 02e0 05        		.uleb128 0x5
 3367 02e1 02        		.byte	0x2
 3368 02e2 0000 0000 		.long	.LM77
 3369 02e6 0B        		.byte	0xb
 3370 02e7 00        		.byte	0x0
 3371 02e8 05        		.uleb128 0x5
 3372 02e9 02        		.byte	0x2
 3373 02ea 0000 0000 		.long	.LM78
 3374 02ee 17        		.byte	0x17
 3375 02ef 00        		.byte	0x0
 3376 02f0 05        		.uleb128 0x5
 3377 02f1 02        		.byte	0x2
 3378 02f2 0000 0000 		.long	.LM79
 3379 02f6 15        		.byte	0x15
 3380 02f7 00        		.byte	0x0
 3381 02f8 05        		.uleb128 0x5
 3382 02f9 02        		.byte	0x2
 3383 02fa 0000 0000 		.long	.LM80
 3384 02fe 16        		.byte	0x16
 3385 02ff 00        		.byte	0x0
 3386 0300 05        		.uleb128 0x5
 3387 0301 02        		.byte	0x2
 3388 0302 0000 0000 		.long	.LM81
 3389 0306 19        		.byte	0x19
 3390 0307 00        		.byte	0x0
 3391 0308 05        		.uleb128 0x5
 3392 0309 02        		.byte	0x2
 3393 030a 0000 0000 		.long	.LM82
 3394 030e 15        		.byte	0x15
 3395 030f 00        		.byte	0x0
 3396 0310 05        		.uleb128 0x5
 3397 0311 02        		.byte	0x2
 3398 0312 0000 0000 		.long	.LM83
 3399 0316 15        		.byte	0x15
 3400 0317 00        		.byte	0x0
 3401 0318 05        		.uleb128 0x5
 3402 0319 02        		.byte	0x2
 3403 031a 0000 0000 		.long	.LM84
 3404 031e 16        		.byte	0x16
 3405 031f 00        		.byte	0x0
 3406 0320 05        		.uleb128 0x5
 3407 0321 02        		.byte	0x2
 3408 0322 0000 0000 		.long	.LM85
 3409 0326 1B        		.byte	0x1b
 3410 0327 00        		.byte	0x0
 3411 0328 05        		.uleb128 0x5
GAS LISTING C:\Users\ADMINI~1\AppData\Local\Temp/ccZqQ0UD.s 			page 62


 3412 0329 02        		.byte	0x2
 3413 032a 0000 0000 		.long	.LM86
 3414 032e 15        		.byte	0x15
 3415 032f 00        		.byte	0x0
 3416 0330 05        		.uleb128 0x5
 3417 0331 02        		.byte	0x2
 3418 0332 0000 0000 		.long	.LM87
 3419 0336 16        		.byte	0x16
 3420 0337 00        		.byte	0x0
 3421 0338 05        		.uleb128 0x5
 3422 0339 02        		.byte	0x2
 3423 033a 0000 0000 		.long	.LM88
 3424 033e 15        		.byte	0x15
 3425 033f 00        		.byte	0x0
 3426 0340 05        		.uleb128 0x5
 3427 0341 02        		.byte	0x2
 3428 0342 0000 0000 		.long	.LM89
 3429 0346 15        		.byte	0x15
 3430 0347 00        		.byte	0x0
 3431 0348 05        		.uleb128 0x5
 3432 0349 02        		.byte	0x2
 3433 034a 0000 0000 		.long	.LM90
 3434 034e 15        		.byte	0x15
 3435 034f 00        		.byte	0x0
 3436 0350 05        		.uleb128 0x5
 3437 0351 02        		.byte	0x2
 3438 0352 0000 0000 		.long	.LM91
 3439 0356 17        		.byte	0x17
 3440 0357 00        		.byte	0x0
 3441 0358 05        		.uleb128 0x5
 3442 0359 02        		.byte	0x2
 3443 035a 0000 0000 		.long	.LM92
 3444 035e 16        		.byte	0x16
 3445 035f 00        		.byte	0x0
 3446 0360 05        		.uleb128 0x5
 3447 0361 02        		.byte	0x2
 3448 0362 0000 0000 		.long	.LM93
 3449 0366 15        		.byte	0x15
 3450 0367 00        		.byte	0x0
 3451 0368 05        		.uleb128 0x5
 3452 0369 02        		.byte	0x2
 3453 036a 0000 0000 		.long	.LM94
 3454 036e 15        		.byte	0x15
 3455 036f 00        		.byte	0x0
 3456 0370 05        		.uleb128 0x5
 3457 0371 02        		.byte	0x2
 3458 0372 0000 0000 		.long	.LM95
 3459 0376 15        		.byte	0x15
 3460 0377 00        		.byte	0x0
 3461 0378 05        		.uleb128 0x5
 3462 0379 02        		.byte	0x2
 3463 037a 0000 0000 		.long	.LM96
 3464 037e 30        		.byte	0x30
 3465 037f 00        		.byte	0x0
 3466 0380 05        		.uleb128 0x5
 3467 0381 02        		.byte	0x2
 3468 0382 0000 0000 		.long	.LM97
GAS LISTING C:\Users\ADMINI~1\AppData\Local\Temp/ccZqQ0UD.s 			page 63


 3469 0386 01        		.byte	0x1
 3470 0387 00        		.byte	0x0
 3471 0388 05        		.uleb128 0x5
 3472 0389 02        		.byte	0x2
 3473 038a 0000 0000 		.long	.LM98
 3474 038e 18        		.byte	0x18
 3475 038f 00        		.byte	0x0
 3476 0390 05        		.uleb128 0x5
 3477 0391 02        		.byte	0x2
 3478 0392 0000 0000 		.long	.LM99
 3479 0396 17        		.byte	0x17
 3480 0397 00        		.byte	0x0
 3481 0398 05        		.uleb128 0x5
 3482 0399 02        		.byte	0x2
 3483 039a 0000 0000 		.long	.LM100
 3484 039e 16        		.byte	0x16
 3485 039f 00        		.byte	0x0
 3486 03a0 05        		.uleb128 0x5
 3487 03a1 02        		.byte	0x2
 3488 03a2 0000 0000 		.long	.LM101
 3489 03a6 16        		.byte	0x16
 3490 03a7 00        		.byte	0x0
 3491 03a8 05        		.uleb128 0x5
 3492 03a9 02        		.byte	0x2
 3493 03aa 0000 0000 		.long	.LM102
 3494 03ae 15        		.byte	0x15
 3495 03af 00        		.byte	0x0
 3496 03b0 05        		.uleb128 0x5
 3497 03b1 02        		.byte	0x2
 3498 03b2 0000 0000 		.long	.LM103
 3499 03b6 15        		.byte	0x15
 3500 03b7 00        		.byte	0x0
 3501 03b8 05        		.uleb128 0x5
 3502 03b9 02        		.byte	0x2
 3503 03ba 0000 0000 		.long	.LM104
 3504 03be 15        		.byte	0x15
 3505 03bf 00        		.byte	0x0
 3506 03c0 05        		.uleb128 0x5
 3507 03c1 02        		.byte	0x2
 3508 03c2 0000 0000 		.long	.LM105
 3509 03c6 15        		.byte	0x15
 3510 03c7 00        		.byte	0x0
 3511 03c8 05        		.uleb128 0x5
 3512 03c9 02        		.byte	0x2
 3513 03ca 0000 0000 		.long	.LM106
 3514 03ce 15        		.byte	0x15
 3515 03cf 00        		.byte	0x0
 3516 03d0 05        		.uleb128 0x5
 3517 03d1 02        		.byte	0x2
 3518 03d2 0000 0000 		.long	.LM107
 3519 03d6 17        		.byte	0x17
 3520 03d7 00        		.byte	0x0
 3521 03d8 05        		.uleb128 0x5
 3522 03d9 02        		.byte	0x2
 3523 03da 0000 0000 		.long	.LM108
 3524 03de 15        		.byte	0x15
 3525 03df 00        		.byte	0x0
GAS LISTING C:\Users\ADMINI~1\AppData\Local\Temp/ccZqQ0UD.s 			page 64


 3526 03e0 05        		.uleb128 0x5
 3527 03e1 02        		.byte	0x2
 3528 03e2 0000 0000 		.long	.LM109
 3529 03e6 15        		.byte	0x15
 3530 03e7 00        		.byte	0x0
 3531 03e8 05        		.uleb128 0x5
 3532 03e9 02        		.byte	0x2
 3533 03ea 0000 0000 		.long	.LM110
 3534 03ee 16        		.byte	0x16
 3535 03ef 00        		.byte	0x0
 3536 03f0 05        		.uleb128 0x5
 3537 03f1 02        		.byte	0x2
 3538 03f2 0000 0000 		.long	.LM111
 3539 03f6 16        		.byte	0x16
 3540 03f7 00        		.byte	0x0
 3541 03f8 05        		.uleb128 0x5
 3542 03f9 02        		.byte	0x2
 3543 03fa 0000 0000 		.long	.LM112
 3544 03fe 17        		.byte	0x17
 3545 03ff 00        		.byte	0x0
 3546 0400 05        		.uleb128 0x5
 3547 0401 02        		.byte	0x2
 3548 0402 0000 0000 		.long	.LM113
 3549 0406 15        		.byte	0x15
 3550 0407 00        		.byte	0x0
 3551 0408 05        		.uleb128 0x5
 3552 0409 02        		.byte	0x2
 3553 040a 0000 0000 		.long	.LM114
 3554 040e 17        		.byte	0x17
 3555 040f 00        		.byte	0x0
 3556 0410 05        		.uleb128 0x5
 3557 0411 02        		.byte	0x2
 3558 0412 0000 0000 		.long	.LM115
 3559 0416 15        		.byte	0x15
 3560 0417 00        		.byte	0x0
 3561 0418 05        		.uleb128 0x5
 3562 0419 02        		.byte	0x2
 3563 041a 0000 0000 		.long	.LM116
 3564 041e 15        		.byte	0x15
 3565 041f 00        		.byte	0x0
 3566 0420 05        		.uleb128 0x5
 3567 0421 02        		.byte	0x2
 3568 0422 0000 0000 		.long	.LM117
 3569 0426 15        		.byte	0x15
 3570 0427 00        		.byte	0x0
 3571 0428 05        		.uleb128 0x5
 3572 0429 02        		.byte	0x2
 3573 042a 0000 0000 		.long	.LM118
 3574 042e 15        		.byte	0x15
 3575 042f 00        		.byte	0x0
 3576 0430 05        		.uleb128 0x5
 3577 0431 02        		.byte	0x2
 3578 0432 0000 0000 		.long	.LM119
 3579 0436 15        		.byte	0x15
 3580 0437 00        		.byte	0x0
 3581 0438 05        		.uleb128 0x5
 3582 0439 02        		.byte	0x2
GAS LISTING C:\Users\ADMINI~1\AppData\Local\Temp/ccZqQ0UD.s 			page 65


 3583 043a 0000 0000 		.long	.LM120
 3584 043e 17        		.byte	0x17
 3585 043f 00        		.byte	0x0
 3586 0440 05        		.uleb128 0x5
 3587 0441 02        		.byte	0x2
 3588 0442 0000 0000 		.long	.LM121
 3589 0446 15        		.byte	0x15
 3590 0447 00        		.byte	0x0
 3591 0448 05        		.uleb128 0x5
 3592 0449 02        		.byte	0x2
 3593 044a 0000 0000 		.long	.LM122
 3594 044e 17        		.byte	0x17
 3595 044f 00        		.byte	0x0
 3596 0450 05        		.uleb128 0x5
 3597 0451 02        		.byte	0x2
 3598 0452 0000 0000 		.long	.LM123
 3599 0456 16        		.byte	0x16
 3600 0457 00        		.byte	0x0
 3601 0458 05        		.uleb128 0x5
 3602 0459 02        		.byte	0x2
 3603 045a 0000 0000 		.long	.LM124
 3604 045e 16        		.byte	0x16
 3605 045f 00        		.byte	0x0
 3606 0460 05        		.uleb128 0x5
 3607 0461 02        		.byte	0x2
 3608 0462 0000 0000 		.long	.LM125
 3609 0466 15        		.byte	0x15
 3610 0467 00        		.byte	0x0
 3611 0468 05        		.uleb128 0x5
 3612 0469 02        		.byte	0x2
 3613 046a 0000 0000 		.long	.LM126
 3614 046e 17        		.byte	0x17
 3615 046f 00        		.byte	0x0
 3616 0470 05        		.uleb128 0x5
 3617 0471 02        		.byte	0x2
 3618 0472 0000 0000 		.long	.LM127
 3619 0476 15        		.byte	0x15
 3620 0477 00        		.byte	0x0
 3621 0478 05        		.uleb128 0x5
 3622 0479 02        		.byte	0x2
 3623 047a 0000 0000 		.long	.LM128
 3624 047e 15        		.byte	0x15
 3625 047f 00        		.byte	0x0
 3626 0480 05        		.uleb128 0x5
 3627 0481 02        		.byte	0x2
 3628 0482 0000 0000 		.long	.LM129
 3629 0486 15        		.byte	0x15
 3630 0487 00        		.byte	0x0
 3631 0488 05        		.uleb128 0x5
 3632 0489 02        		.byte	0x2
 3633 048a 0000 0000 		.long	.LM130
 3634 048e 15        		.byte	0x15
 3635 048f 00        		.byte	0x0
 3636 0490 05        		.uleb128 0x5
 3637 0491 02        		.byte	0x2
 3638 0492 0000 0000 		.long	.LM131
 3639 0496 15        		.byte	0x15
GAS LISTING C:\Users\ADMINI~1\AppData\Local\Temp/ccZqQ0UD.s 			page 66


 3640 0497 00        		.byte	0x0
 3641 0498 05        		.uleb128 0x5
 3642 0499 02        		.byte	0x2
 3643 049a 0000 0000 		.long	.LM132
 3644 049e 17        		.byte	0x17
 3645 049f 00        		.byte	0x0
 3646 04a0 05        		.uleb128 0x5
 3647 04a1 02        		.byte	0x2
 3648 04a2 0000 0000 		.long	.LM133
 3649 04a6 15        		.byte	0x15
 3650 04a7 00        		.byte	0x0
 3651 04a8 05        		.uleb128 0x5
 3652 04a9 02        		.byte	0x2
 3653 04aa 0000 0000 		.long	.LM134
 3654 04ae 17        		.byte	0x17
 3655 04af 00        		.byte	0x0
 3656 04b0 05        		.uleb128 0x5
 3657 04b1 02        		.byte	0x2
 3658 04b2 0000 0000 		.long	.LM135
 3659 04b6 19        		.byte	0x19
 3660 04b7 00        		.byte	0x0
 3661 04b8 05        		.uleb128 0x5
 3662 04b9 02        		.byte	0x2
 3663 04ba 0000 0000 		.long	.LM136
 3664 04be 15        		.byte	0x15
 3665 04bf 00        		.byte	0x0
 3666 04c0 05        		.uleb128 0x5
 3667 04c1 02        		.byte	0x2
 3668 04c2 0000 0000 		.long	.LM137
 3669 04c6 16        		.byte	0x16
 3670 04c7 00        		.byte	0x0
 3671 04c8 05        		.uleb128 0x5
 3672 04c9 02        		.byte	0x2
 3673 04ca 0000 0000 		.long	.LM138
 3674 04ce 03        		.byte	0x3
 3675 04cf 8F7E      		.sleb128 -241
 3676 04d1 01        		.byte	0x1
 3677 04d2 00        		.byte	0x0
 3678 04d3 05        		.uleb128 0x5
 3679 04d4 02        		.byte	0x2
 3680 04d5 0000 0000 		.long	.LM139
 3681 04d9 15        		.byte	0x15
 3682 04da 00        		.byte	0x0
 3683 04db 05        		.uleb128 0x5
 3684 04dc 02        		.byte	0x2
 3685 04dd 0000 0000 		.long	.LM140
 3686 04e1 15        		.byte	0x15
 3687 04e2 00        		.byte	0x0
 3688 04e3 05        		.uleb128 0x5
 3689 04e4 02        		.byte	0x2
 3690 04e5 0000 0000 		.long	.LM141
 3691 04e9 03        		.byte	0x3
 3692 04ea C002      		.sleb128 320
 3693 04ec 01        		.byte	0x1
 3694 04ed 00        		.byte	0x0
 3695 04ee 05        		.uleb128 0x5
 3696 04ef 02        		.byte	0x2
GAS LISTING C:\Users\ADMINI~1\AppData\Local\Temp/ccZqQ0UD.s 			page 67


 3697 04f0 0000 0000 		.long	.LM142
 3698 04f4 16        		.byte	0x16
 3699 04f5 00        		.byte	0x0
 3700 04f6 05        		.uleb128 0x5
 3701 04f7 02        		.byte	0x2
 3702 04f8 0000 0000 		.long	.LM143
 3703 04fc 15        		.byte	0x15
 3704 04fd 00        		.byte	0x0
 3705 04fe 05        		.uleb128 0x5
 3706 04ff 02        		.byte	0x2
 3707 0500 0000 0000 		.long	.LM144
 3708 0504 16        		.byte	0x16
 3709 0505 00        		.byte	0x0
 3710 0506 05        		.uleb128 0x5
 3711 0507 02        		.byte	0x2
 3712 0508 0000 0000 		.long	.LM145
 3713 050c 16        		.byte	0x16
 3714 050d 00        		.byte	0x0
 3715 050e 05        		.uleb128 0x5
 3716 050f 02        		.byte	0x2
 3717 0510 0000 0000 		.long	.LM146
 3718 0514 16        		.byte	0x16
 3719 0515 00        		.byte	0x0
 3720 0516 05        		.uleb128 0x5
 3721 0517 02        		.byte	0x2
 3722 0518 0000 0000 		.long	.LM147
 3723 051c 16        		.byte	0x16
 3724 051d 00        		.byte	0x0
 3725 051e 05        		.uleb128 0x5
 3726 051f 02        		.byte	0x2
 3727 0520 0000 0000 		.long	.LM148
 3728 0524 16        		.byte	0x16
 3729 0525 00        		.byte	0x0
 3730 0526 05        		.uleb128 0x5
 3731 0527 02        		.byte	0x2
 3732 0528 0000 0000 		.long	.LM149
 3733 052c 17        		.byte	0x17
 3734 052d 00        		.byte	0x0
 3735 052e 05        		.uleb128 0x5
 3736 052f 02        		.byte	0x2
 3737 0530 0000 0000 		.long	.LM150
 3738 0534 18        		.byte	0x18
 3739 0535 00        		.byte	0x0
 3740 0536 05        		.uleb128 0x5
 3741 0537 02        		.byte	0x2
 3742 0538 0000 0000 		.long	.LM151
 3743 053c 16        		.byte	0x16
 3744 053d 00        		.byte	0x0
 3745 053e 05        		.uleb128 0x5
 3746 053f 02        		.byte	0x2
 3747 0540 0000 0000 		.long	.LM152
 3748 0544 15        		.byte	0x15
 3749 0545 00        		.byte	0x0
 3750 0546 05        		.uleb128 0x5
 3751 0547 02        		.byte	0x2
 3752 0548 0000 0000 		.long	.LM153
 3753 054c 15        		.byte	0x15
GAS LISTING C:\Users\ADMINI~1\AppData\Local\Temp/ccZqQ0UD.s 			page 68


 3754 054d 00        		.byte	0x0
 3755 054e 05        		.uleb128 0x5
 3756 054f 02        		.byte	0x2
 3757 0550 0000 0000 		.long	.LM154
 3758 0554 16        		.byte	0x16
 3759 0555 00        		.byte	0x0
 3760 0556 05        		.uleb128 0x5
 3761 0557 02        		.byte	0x2
 3762 0558 0000 0000 		.long	.LM155
 3763 055c 15        		.byte	0x15
 3764 055d 00        		.byte	0x0
 3765 055e 05        		.uleb128 0x5
 3766 055f 02        		.byte	0x2
 3767 0560 0000 0000 		.long	.LM156
 3768 0564 16        		.byte	0x16
 3769 0565 00        		.byte	0x0
 3770 0566 05        		.uleb128 0x5
 3771 0567 02        		.byte	0x2
 3772 0568 0000 0000 		.long	.LM157
 3773 056c 15        		.byte	0x15
 3774 056d 00        		.byte	0x0
 3775 056e 05        		.uleb128 0x5
 3776 056f 02        		.byte	0x2
 3777 0570 0000 0000 		.long	.LM158
 3778 0574 15        		.byte	0x15
 3779 0575 00        		.byte	0x0
 3780 0576 05        		.uleb128 0x5
 3781 0577 02        		.byte	0x2
 3782 0578 0000 0000 		.long	.LM159
 3783 057c 15        		.byte	0x15
 3784 057d 00        		.byte	0x0
 3785 057e 05        		.uleb128 0x5
 3786 057f 02        		.byte	0x2
 3787 0580 0000 0000 		.long	.LM160
 3788 0584 15        		.byte	0x15
 3789 0585 00        		.byte	0x0
 3790 0586 05        		.uleb128 0x5
 3791 0587 02        		.byte	0x2
 3792 0588 0000 0000 		.long	.LM161
 3793 058c 16        		.byte	0x16
 3794 058d 00        		.byte	0x0
 3795 058e 05        		.uleb128 0x5
 3796 058f 02        		.byte	0x2
 3797 0590 0000 0000 		.long	.LM162
 3798 0594 15        		.byte	0x15
 3799 0595 00        		.byte	0x0
 3800 0596 05        		.uleb128 0x5
 3801 0597 02        		.byte	0x2
 3802 0598 0000 0000 		.long	.LM163
 3803 059c 16        		.byte	0x16
 3804 059d 00        		.byte	0x0
 3805 059e 05        		.uleb128 0x5
 3806 059f 02        		.byte	0x2
 3807 05a0 0000 0000 		.long	.LM164
 3808 05a4 15        		.byte	0x15
 3809 05a5 00        		.byte	0x0
 3810 05a6 05        		.uleb128 0x5
GAS LISTING C:\Users\ADMINI~1\AppData\Local\Temp/ccZqQ0UD.s 			page 69


 3811 05a7 02        		.byte	0x2
 3812 05a8 0000 0000 		.long	.LM165
 3813 05ac 15        		.byte	0x15
 3814 05ad 00        		.byte	0x0
 3815 05ae 05        		.uleb128 0x5
 3816 05af 02        		.byte	0x2
 3817 05b0 0000 0000 		.long	.LM166
 3818 05b4 15        		.byte	0x15
 3819 05b5 00        		.byte	0x0
 3820 05b6 05        		.uleb128 0x5
 3821 05b7 02        		.byte	0x2
 3822 05b8 0000 0000 		.long	.LM167
 3823 05bc 03        		.byte	0x3
 3824 05bd 927F      		.sleb128 -110
 3825 05bf 01        		.byte	0x1
 3826 05c0 00        		.byte	0x0
 3827 05c1 05        		.uleb128 0x5
 3828 05c2 02        		.byte	0x2
 3829 05c3 0000 0000 		.long	.LM168
 3830 05c7 1C        		.byte	0x1c
 3831 05c8 00        		.byte	0x0
 3832 05c9 05        		.uleb128 0x5
 3833 05ca 02        		.byte	0x2
 3834 05cb 0000 0000 		.long	.LM169
 3835 05cf 17        		.byte	0x17
 3836 05d0 00        		.byte	0x0
 3837 05d1 05        		.uleb128 0x5
 3838 05d2 02        		.byte	0x2
 3839 05d3 0000 0000 		.long	.LM170
 3840 05d7 15        		.byte	0x15
 3841 05d8 00        		.byte	0x0
 3842 05d9 05        		.uleb128 0x5
 3843 05da 02        		.byte	0x2
 3844 05db 0000 0000 		.long	.LM171
 3845 05df 15        		.byte	0x15
 3846 05e0 00        		.byte	0x0
 3847 05e1 05        		.uleb128 0x5
 3848 05e2 02        		.byte	0x2
 3849 05e3 0000 0000 		.long	.LM172
 3850 05e7 15        		.byte	0x15
 3851 05e8 00        		.byte	0x0
 3852 05e9 05        		.uleb128 0x5
 3853 05ea 02        		.byte	0x2
 3854 05eb 0000 0000 		.long	.LM173
 3855 05ef 15        		.byte	0x15
 3856 05f0 00        		.byte	0x0
 3857 05f1 05        		.uleb128 0x5
 3858 05f2 02        		.byte	0x2
 3859 05f3 0000 0000 		.long	.LM174
 3860 05f7 15        		.byte	0x15
 3861 05f8 00        		.byte	0x0
 3862 05f9 05        		.uleb128 0x5
 3863 05fa 02        		.byte	0x2
 3864 05fb 0000 0000 		.long	.LM175
 3865 05ff 15        		.byte	0x15
 3866 0600 00        		.byte	0x0
 3867 0601 05        		.uleb128 0x5
GAS LISTING C:\Users\ADMINI~1\AppData\Local\Temp/ccZqQ0UD.s 			page 70


 3868 0602 02        		.byte	0x2
 3869 0603 0000 0000 		.long	.LM176
 3870 0607 16        		.byte	0x16
 3871 0608 00        		.byte	0x0
 3872 0609 05        		.uleb128 0x5
 3873 060a 02        		.byte	0x2
 3874 060b 0000 0000 		.long	.LM177
 3875 060f 18        		.byte	0x18
 3876 0610 00        		.byte	0x0
 3877 0611 05        		.uleb128 0x5
 3878 0612 02        		.byte	0x2
 3879 0613 0000 0000 		.long	.LM178
 3880 0617 15        		.byte	0x15
 3881 0618 00        		.byte	0x0
 3882 0619 05        		.uleb128 0x5
 3883 061a 02        		.byte	0x2
 3884 061b 0000 0000 		.long	.LM179
 3885 061f 16        		.byte	0x16
 3886 0620 00        		.byte	0x0
 3887 0621 05        		.uleb128 0x5
 3888 0622 02        		.byte	0x2
 3889 0623 0000 0000 		.long	.LM180
 3890 0627 15        		.byte	0x15
 3891 0628 00        		.byte	0x0
 3892 0629 05        		.uleb128 0x5
 3893 062a 02        		.byte	0x2
 3894 062b 0000 0000 		.long	.LM181
 3895 062f 17        		.byte	0x17
 3896 0630 00        		.byte	0x0
 3897 0631 05        		.uleb128 0x5
 3898 0632 02        		.byte	0x2
 3899 0633 0000 0000 		.long	.LM182
 3900 0637 15        		.byte	0x15
 3901 0638 00        		.byte	0x0
 3902 0639 05        		.uleb128 0x5
 3903 063a 02        		.byte	0x2
 3904 063b 0000 0000 		.long	.LM183
 3905 063f 18        		.byte	0x18
 3906 0640 00        		.byte	0x0
 3907 0641 05        		.uleb128 0x5
 3908 0642 02        		.byte	0x2
 3909 0643 0000 0000 		.long	.LM184
 3910 0647 15        		.byte	0x15
 3911 0648 00        		.byte	0x0
 3912 0649 05        		.uleb128 0x5
 3913 064a 02        		.byte	0x2
 3914 064b 0000 0000 		.long	.LM185
 3915 064f 1E        		.byte	0x1e
 3916 0650 00        		.byte	0x0
 3917 0651 05        		.uleb128 0x5
 3918 0652 02        		.byte	0x2
 3919 0653 0000 0000 		.long	.LM186
 3920 0657 15        		.byte	0x15
 3921 0658 00        		.byte	0x0
 3922 0659 05        		.uleb128 0x5
 3923 065a 02        		.byte	0x2
 3924 065b 0000 0000 		.long	.LM187
GAS LISTING C:\Users\ADMINI~1\AppData\Local\Temp/ccZqQ0UD.s 			page 71


 3925 065f 15        		.byte	0x15
 3926 0660 00        		.byte	0x0
 3927 0661 05        		.uleb128 0x5
 3928 0662 02        		.byte	0x2
 3929 0663 0000 0000 		.long	.LM188
 3930 0667 15        		.byte	0x15
 3931 0668 00        		.byte	0x0
 3932 0669 05        		.uleb128 0x5
 3933 066a 02        		.byte	0x2
 3934 066b 0000 0000 		.long	.LM189
 3935 066f 16        		.byte	0x16
 3936 0670 00        		.byte	0x0
 3937 0671 05        		.uleb128 0x5
 3938 0672 02        		.byte	0x2
 3939 0673 0000 0000 		.long	.LM190
 3940 0677 15        		.byte	0x15
 3941 0678 00        		.byte	0x0
 3942 0679 05        		.uleb128 0x5
 3943 067a 02        		.byte	0x2
 3944 067b 0000 0000 		.long	.LM191
 3945 067f 17        		.byte	0x17
 3946 0680 00        		.byte	0x0
 3947 0681 05        		.uleb128 0x5
 3948 0682 02        		.byte	0x2
 3949 0683 0000 0000 		.long	.LM192
 3950 0687 15        		.byte	0x15
 3951 0688 00        		.byte	0x0
 3952 0689 05        		.uleb128 0x5
 3953 068a 02        		.byte	0x2
 3954 068b 0000 0000 		.long	.LM193
 3955 068f 17        		.byte	0x17
 3956 0690 00        		.byte	0x0
 3957 0691 05        		.uleb128 0x5
 3958 0692 02        		.byte	0x2
 3959 0693 0000 0000 		.long	.LM194
 3960 0697 16        		.byte	0x16
 3961 0698 00        		.byte	0x0
 3962 0699 05        		.uleb128 0x5
 3963 069a 02        		.byte	0x2
 3964 069b 0000 0000 		.long	.LM195
 3965 069f 17        		.byte	0x17
 3966 06a0 00        		.byte	0x0
 3967 06a1 05        		.uleb128 0x5
 3968 06a2 02        		.byte	0x2
 3969 06a3 0000 0000 		.long	.LM196
 3970 06a7 03        		.byte	0x3
 3971 06a8 DA7E      		.sleb128 -166
 3972 06aa 01        		.byte	0x1
 3973 06ab 00        		.byte	0x0
 3974 06ac 05        		.uleb128 0x5
 3975 06ad 02        		.byte	0x2
 3976 06ae 0000 0000 		.long	.LM197
 3977 06b2 16        		.byte	0x16
 3978 06b3 00        		.byte	0x0
 3979 06b4 05        		.uleb128 0x5
 3980 06b5 02        		.byte	0x2
 3981 06b6 0000 0000 		.long	.LM198
GAS LISTING C:\Users\ADMINI~1\AppData\Local\Temp/ccZqQ0UD.s 			page 72


 3982 06ba 15        		.byte	0x15
 3983 06bb 00        		.byte	0x0
 3984 06bc 05        		.uleb128 0x5
 3985 06bd 02        		.byte	0x2
 3986 06be 0000 0000 		.long	.LM199
 3987 06c2 15        		.byte	0x15
 3988 06c3 00        		.byte	0x0
 3989 06c4 05        		.uleb128 0x5
 3990 06c5 02        		.byte	0x2
 3991 06c6 0000 0000 		.long	.LM200
 3992 06ca 15        		.byte	0x15
 3993 06cb 00        		.byte	0x0
 3994 06cc 05        		.uleb128 0x5
 3995 06cd 02        		.byte	0x2
 3996 06ce 0000 0000 		.long	.LM201
 3997 06d2 19        		.byte	0x19
 3998 06d3 00        		.byte	0x0
 3999 06d4 05        		.uleb128 0x5
 4000 06d5 02        		.byte	0x2
 4001 06d6 0000 0000 		.long	.LM202
 4002 06da 15        		.byte	0x15
 4003 06db 00        		.byte	0x0
 4004 06dc 05        		.uleb128 0x5
 4005 06dd 02        		.byte	0x2
 4006 06de 0000 0000 		.long	.LM203
 4007 06e2 15        		.byte	0x15
 4008 06e3 00        		.byte	0x0
 4009 06e4 05        		.uleb128 0x5
 4010 06e5 02        		.byte	0x2
 4011 06e6 0000 0000 		.long	.LM204
 4012 06ea 03        		.byte	0x3
 4013 06eb DE7E      		.sleb128 -162
 4014 06ed 01        		.byte	0x1
 4015 06ee 00        		.byte	0x0
 4016 06ef 05        		.uleb128 0x5
 4017 06f0 02        		.byte	0x2
 4018 06f1 0000 0000 		.long	.LM205
 4019 06f5 03        		.byte	0x3
 4020 06f6 FC02      		.sleb128 380
 4021 06f8 01        		.byte	0x1
 4022 06f9 00        		.byte	0x0
 4023 06fa 05        		.uleb128 0x5
 4024 06fb 02        		.byte	0x2
 4025 06fc 0000 0000 		.long	.LM206
 4026 0700 03        		.byte	0x3
 4027 0701 877D      		.sleb128 -377
 4028 0703 01        		.byte	0x1
 4029 0704 00        		.byte	0x0
 4030 0705 05        		.uleb128 0x5
 4031 0706 02        		.byte	0x2
 4032 0707 0000 0000 		.long	.LM207
 4033 070b 16        		.byte	0x16
 4034 070c 00        		.byte	0x0
 4035 070d 05        		.uleb128 0x5
 4036 070e 02        		.byte	0x2
 4037 070f 0000 0000 		.long	.LM208
 4038 0713 15        		.byte	0x15
GAS LISTING C:\Users\ADMINI~1\AppData\Local\Temp/ccZqQ0UD.s 			page 73


 4039 0714 00        		.byte	0x0
 4040 0715 05        		.uleb128 0x5
 4041 0716 02        		.byte	0x2
 4042 0717 0000 0000 		.long	.LM209
 4043 071b 2A        		.byte	0x2a
 4044 071c 00        		.byte	0x0
 4045 071d 05        		.uleb128 0x5
 4046 071e 02        		.byte	0x2
 4047 071f 0000 0000 		.long	.LM210
 4048 0723 15        		.byte	0x15
 4049 0724 00        		.byte	0x0
 4050 0725 05        		.uleb128 0x5
 4051 0726 02        		.byte	0x2
 4052 0727 0000 0000 		.long	.LM211
 4053 072b 1D        		.byte	0x1d
 4054 072c 00        		.byte	0x0
 4055 072d 05        		.uleb128 0x5
 4056 072e 02        		.byte	0x2
 4057 072f 0000 0000 		.long	.LM212
 4058 0733 15        		.byte	0x15
 4059 0734 00        		.byte	0x0
 4060 0735 05        		.uleb128 0x5
 4061 0736 02        		.byte	0x2
 4062 0737 0000 0000 		.long	.LM213
 4063 073b 15        		.byte	0x15
 4064 073c 00        		.byte	0x0
 4065 073d 05        		.uleb128 0x5
 4066 073e 02        		.byte	0x2
 4067 073f 0000 0000 		.long	.LM214
 4068 0743 15        		.byte	0x15
 4069 0744 00        		.byte	0x0
 4070 0745 05        		.uleb128 0x5
 4071 0746 02        		.byte	0x2
 4072 0747 0000 0000 		.long	.LM215
 4073 074b 15        		.byte	0x15
 4074 074c 00        		.byte	0x0
 4075 074d 05        		.uleb128 0x5
 4076 074e 02        		.byte	0x2
 4077 074f 0000 0000 		.long	.LM216
 4078 0753 16        		.byte	0x16
 4079 0754 00        		.byte	0x0
 4080 0755 05        		.uleb128 0x5
 4081 0756 02        		.byte	0x2
 4082 0757 0000 0000 		.long	.LM217
 4083 075b 15        		.byte	0x15
 4084 075c 00        		.byte	0x0
 4085 075d 05        		.uleb128 0x5
 4086 075e 02        		.byte	0x2
 4087 075f 0000 0000 		.long	.LM218
 4088 0763 16        		.byte	0x16
 4089 0764 00        		.byte	0x0
 4090 0765 05        		.uleb128 0x5
 4091 0766 02        		.byte	0x2
 4092 0767 0000 0000 		.long	.LM219
 4093 076b 15        		.byte	0x15
 4094 076c 00        		.byte	0x0
 4095 076d 05        		.uleb128 0x5
GAS LISTING C:\Users\ADMINI~1\AppData\Local\Temp/ccZqQ0UD.s 			page 74


 4096 076e 02        		.byte	0x2
 4097 076f 0000 0000 		.long	.LM220
 4098 0773 15        		.byte	0x15
 4099 0774 00        		.byte	0x0
 4100 0775 05        		.uleb128 0x5
 4101 0776 02        		.byte	0x2
 4102 0777 0000 0000 		.long	.LM221
 4103 077b 15        		.byte	0x15
 4104 077c 00        		.byte	0x0
 4105 077d 05        		.uleb128 0x5
 4106 077e 02        		.byte	0x2
 4107 077f 0000 0000 		.long	.LM222
 4108 0783 16        		.byte	0x16
 4109 0784 00        		.byte	0x0
 4110 0785 05        		.uleb128 0x5
 4111 0786 02        		.byte	0x2
 4112 0787 0000 0000 		.long	.LM223
 4113 078b 16        		.byte	0x16
 4114 078c 00        		.byte	0x0
 4115 078d 05        		.uleb128 0x5
 4116 078e 02        		.byte	0x2
 4117 078f 0000 0000 		.long	.LM224
 4118 0793 15        		.byte	0x15
 4119 0794 00        		.byte	0x0
 4120 0795 05        		.uleb128 0x5
 4121 0796 02        		.byte	0x2
 4122 0797 0000 0000 		.long	.LM225
 4123 079b 03        		.byte	0x3
 4124 079c B07F      		.sleb128 -80
 4125 079e 01        		.byte	0x1
 4126 079f 00        		.byte	0x0
 4127 07a0 05        		.uleb128 0x5
 4128 07a1 02        		.byte	0x2
 4129 07a2 0000 0000 		.long	.LM226
 4130 07a6 6B        		.byte	0x6b
 4131 07a7 00        		.byte	0x0
 4132 07a8 05        		.uleb128 0x5
 4133 07a9 02        		.byte	0x2
 4134 07aa 0000 0000 		.long	.LM227
 4135 07ae 15        		.byte	0x15
 4136 07af 00        		.byte	0x0
 4137 07b0 05        		.uleb128 0x5
 4138 07b1 02        		.byte	0x2
 4139 07b2 0000 0000 		.long	.LM228
 4140 07b6 16        		.byte	0x16
 4141 07b7 00        		.byte	0x0
 4142 07b8 05        		.uleb128 0x5
 4143 07b9 02        		.byte	0x2
 4144 07ba 0000 0000 		.long	.LM229
 4145 07be 15        		.byte	0x15
 4146 07bf 00        		.byte	0x0
 4147 07c0 05        		.uleb128 0x5
 4148 07c1 02        		.byte	0x2
 4149 07c2 0000 0000 		.long	.LM230
 4150 07c6 15        		.byte	0x15
 4151 07c7 00        		.byte	0x0
 4152 07c8 05        		.uleb128 0x5
GAS LISTING C:\Users\ADMINI~1\AppData\Local\Temp/ccZqQ0UD.s 			page 75


 4153 07c9 02        		.byte	0x2
 4154 07ca 0000 0000 		.long	.LM231
 4155 07ce 16        		.byte	0x16
 4156 07cf 00        		.byte	0x0
 4157 07d0 05        		.uleb128 0x5
 4158 07d1 02        		.byte	0x2
 4159 07d2 0000 0000 		.long	.LM232
 4160 07d6 16        		.byte	0x16
 4161 07d7 00        		.byte	0x0
 4162 07d8 05        		.uleb128 0x5
 4163 07d9 02        		.byte	0x2
 4164 07da 0000 0000 		.long	.LM233
 4165 07de 16        		.byte	0x16
 4166 07df 00        		.byte	0x0
 4167 07e0 05        		.uleb128 0x5
 4168 07e1 02        		.byte	0x2
 4169 07e2 0000 0000 		.long	.LM234
 4170 07e6 15        		.byte	0x15
 4171 07e7 00        		.byte	0x0
 4172 07e8 05        		.uleb128 0x5
 4173 07e9 02        		.byte	0x2
 4174 07ea 0000 0000 		.long	.Letext0
 4175 07ee 00        		.byte	0x0
 4176 07ef 01        		.uleb128 0x1
 4177 07f0 01        		.byte	0x1
 4178               	.LELT0:
 4179 07f1 1600 0000 		.section	.debug_str,"MS",@progbits,1
 4179      0200 1000 
 4179      0000 0101 
 4179      FB0E 0A00 
 4179      0101 0101 
 4180               	.LASF24:
 4181 0000 636C 6561 		.string	"clearLEDInited"
 4181      724C 4544 
 4181      496E 6974 
 4181      6564 00
 4182               	.LASF55:
 4183 000f 5F66 756C 		.string	"_fullLEDMode"
 4183      6C4C 4544 
 4183      4D6F 6465 
 4183      00
 4184               	.LASF67:
 4185 001c 494E 5445 		.string	"INTERFACE"
 4185      5246 4143 
 4185      4500 
 4186               	.LASF18:
 4187 0026 626C 696E 		.string	"blinkBeyondFNLED"
 4187      6B42 6579 
 4187      6F6E 6446 
 4187      4E4C 4544 
 4187      00
 4188               	.LASF50:
 4189 0037 646F 776E 		.string	"downLevelMax"
 4189      4C65 7665 
 4189      6C4D 6178 
 4189      00
 4190               	.LASF6:
GAS LISTING C:\Users\ADMINI~1\AppData\Local\Temp/ccZqQ0UD.s 			page 76


 4191 0044 6C6F 6E67 		.string	"long long unsigned int"
 4191      206C 6F6E 
 4191      6720 756E 
 4191      7369 676E 
 4191      6564 2069 
 4192               	.LASF19:
 4193 005b 626C 696E 		.string	"blinkScrollLockLED"
 4193      6B53 6372 
 4193      6F6C 6C4C 
 4193      6F63 6B4C 
 4193      4544 00
 4194               	.LASF61:
 4195 006e 6C65 6453 		.string	"ledStateCount"
 4195      7461 7465 
 4195      436F 756E 
 4195      7400 
 4196               	.LASF37:
 4197 007c 7072 6576 		.string	"prevSCRLED"
 4197      5343 524C 
 4197      4544 00
 4198               	.LASF22:
 4199 0087 7772 6974 		.string	"writeLEDMode"
 4199      654C 4544 
 4199      4D6F 6465 
 4199      00
 4200               	.LASF72:
 4201 0094 6C65 6472 		.string	"ledrender.c"
 4201      656E 6465 
 4201      722E 6300 
 4202               	.LASF7:
 4203 00a0 6C6F 6E67 		.string	"long long int"
 4203      206C 6F6E 
 4203      6720 696E 
 4203      7400 
 4204               	.LASF1:
 4205 00ae 7369 676E 		.string	"signed char"
 4205      6564 2063 
 4205      6861 7200 
 4206               	.LASF32:
 4207 00ba 6368 616E 		.string	"changeFullLedState"
 4207      6765 4675 
 4207      6C6C 4C65 
 4207      6453 7461 
 4207      7465 00
 4208               	.LASF17:
 4209 00cd 6265 796F 		.string	"beyondFNLEDState"
 4209      6E64 464E 
 4209      4C45 4453 
 4209      7461 7465 
 4209      00
 4210               	.LASF23:
 4211 00de 6661 6465 		.string	"fadePWM"
 4211      5057 4D00 
 4212               	.LASF5:
 4213 00e6 6C6F 6E67 		.string	"long int"
 4213      2069 6E74 
 4213      00
GAS LISTING C:\Users\ADMINI~1\AppData\Local\Temp/ccZqQ0UD.s 			page 77


 4214               	.LASF11:
 4215 00ef 7569 6E74 		.string	"uint16_t"
 4215      3136 5F74 
 4215      00
 4216               	.LASF36:
 4217 00f8 7365 744C 		.string	"setLEDIndicate"
 4217      4544 496E 
 4217      6469 6361 
 4217      7465 00
 4218               	.LASF46:
 4219 0107 7849 7342 		.string	"xIsBeyondFN"
 4219      6579 6F6E 
 4219      6446 4E00 
 4220               	.LASF71:
 4221 0113 474E 5520 		.string	"GNU C 4.3.3"
 4221      4320 342E 
 4221      332E 3300 
 4222               	.LASF20:
 4223 011f 636F 756E 		.string	"countMAX"
 4223      744D 4158 
 4223      00
 4224               	.LASF8:
 4225 0128 756E 7369 		.string	"unsigned int"
 4225      676E 6564 
 4225      2069 6E74 
 4225      00
 4226               	.LASF31:
 4227 0135 7072 6576 		.string	"prevPwmValue"
 4227      5077 6D56 
 4227      616C 7565 
 4227      00
 4228               	.LASF4:
 4229 0142 6C6F 6E67 		.string	"long unsigned int"
 4229      2075 6E73 
 4229      6967 6E65 
 4229      6420 696E 
 4229      7400 
 4230               	.LASF13:
 4231 0154 7374 6172 		.string	"startTimer"
 4231      7454 696D 
 4231      6572 00
 4232               	.LASF27:
 4233 015f 7365 744C 		.string	"setLEDState"
 4233      4544 5374 
 4233      6174 6500 
 4234               	.LASF2:
 4235 016b 7368 6F72 		.string	"short unsigned int"
 4235      7420 756E 
 4235      7369 676E 
 4235      6564 2069 
 4235      6E74 00
 4236               	.LASF56:
 4237 017e 5F66 756C 		.string	"_fullLEDMode_saved"
 4237      6C4C 4544 
 4237      4D6F 6465 
 4237      5F73 6176 
 4237      6564 00
GAS LISTING C:\Users\ADMINI~1\AppData\Local\Temp/ccZqQ0UD.s 			page 78


 4238               	.LASF63:
 4239 0191 5F6C 6564 		.string	"_ledBrightnessMax_saved"
 4239      4272 6967 
 4239      6874 6E65 
 4239      7373 4D61 
 4239      785F 7361 
 4240               	.LASF43:
 4241 01a9 7761 6B65 		.string	"wakeUpLED"
 4241      5570 4C45 
 4241      4400 
 4242               	.LASF34:
 4243 01b3 696E 6372 		.string	"increaseLedBrightness"
 4243      6561 7365 
 4243      4C65 6442 
 4243      7269 6768 
 4243      746E 6573 
 4244               	.LASF62:
 4245 01c9 5F6C 6564 		.string	"_ledBrightnessMax"
 4245      4272 6967 
 4245      6874 6E65 
 4245      7373 4D61 
 4245      7800 
 4246               	.LASF33:
 4247 01db 7265 6475 		.string	"reduceLedBrightness"
 4247      6365 4C65 
 4247      6442 7269 
 4247      6768 746E 
 4247      6573 7300 
 4248               	.LASF14:
 4249 01ef 6265 796F 		.string	"beyondFNCountMAX"
 4249      6E64 464E 
 4249      436F 756E 
 4249      744D 4158 
 4249      00
 4250               	.LASF70:
 4251 0200 7077 6D56 		.string	"pwmValue"
 4251      616C 7565 
 4251      00
 4252               	.LASF42:
 4253 0209 736C 6565 		.string	"sleepLED"
 4253      704C 4544 
 4253      00
 4254               	.LASF41:
 4255 0212 6661 6465 		.string	"fadeLED"
 4255      4C45 4400 
 4256               	.LASF29:
 4257 021a 7853 7461 		.string	"xState"
 4257      7465 00
 4258               	.LASF60:
 4259 0221 5F69 7344 		.string	"_isDidSleep"
 4259      6964 536C 
 4259      6565 7000 
 4260               	.LASF39:
 4261 022d 6756 616C 		.string	"gVal"
 4261      00
 4262               	.LASF65:
 4263 0232 6C65 6442 		.string	"ledBrightnessStep"
GAS LISTING C:\Users\ADMINI~1\AppData\Local\Temp/ccZqQ0UD.s 			page 79


 4263      7269 6768 
 4263      746E 6573 
 4263      7353 7465 
 4263      7000 
 4264               	.LASF53:
 4265 0244 4C45 4473 		.string	"LEDstate"
 4265      7461 7465 
 4265      00
 4266               	.LASF52:
 4267 024d 6C65 6449 		.string	"ledInited"
 4267      6E69 7465 
 4267      6400 
 4268               	.LASF0:
 4269 0257 756E 7369 		.string	"unsigned char"
 4269      676E 6564 
 4269      2063 6861 
 4269      7200 
 4270               	.LASF30:
 4271 0265 7856 616C 		.string	"xValue"
 4271      7565 00
 4272               	.LASF3:
 4273 026c 7368 6F72 		.string	"short int"
 4273      7420 696E 
 4273      7400 
 4274               	.LASF21:
 4275 0276 636F 756E 		.string	"counter"
 4275      7465 7200 
 4276               	.LASF57:
 4277 027e 7077 6D43 		.string	"pwmCounter"
 4277      6F75 6E74 
 4277      6572 00
 4278               	.LASF35:
 4279 0289 674C 6564 		.string	"gLedBrightness"
 4279      4272 6967 
 4279      6874 6E65 
 4279      7373 00
 4280               	.LASF51:
 4281 0298 646F 776E 		.string	"downLevelLife"
 4281      4C65 7665 
 4281      6C4C 6966 
 4281      6500 
 4282               	.LASF12:
 4283 02a6 7374 6F70 		.string	"stopTimer"
 4283      5469 6D65 
 4283      7200 
 4284               	.LASF44:
 4285 02b0 646F 536C 		.string	"doSleep"
 4285      6565 7000 
 4286               	.LASF9:
 4287 02b8 6368 6172 		.string	"char"
 4287      00
 4288               	.LASF49:
 4289 02bd 646F 776E 		.string	"downLevel"
 4289      4C65 7665 
 4289      6C00 
 4290               	.LASF15:
 4291 02c7 6265 796F 		.string	"beyondFNCounter"
GAS LISTING C:\Users\ADMINI~1\AppData\Local\Temp/ccZqQ0UD.s 			page 80


 4291      6E64 464E 
 4291      436F 756E 
 4291      7465 7200 
 4292               	.LASF74:
 4293 02d7 6765 744C 		.string	"getLEDState"
 4293      4544 5374 
 4293      6174 6500 
 4294               	.LASF48:
 4295 02e3 646F 776E 		.string	"downLevelStay"
 4295      4C65 7665 
 4295      6C53 7461 
 4295      7900 
 4296               	.LASF64:
 4297 02f1 6C65 6442 		.string	"ledBrightnessMin"
 4297      7269 6768 
 4297      746E 6573 
 4297      734D 696E 
 4297      00
 4298               	.LASF28:
 4299 0302 7365 7450 		.string	"setPWM"
 4299      574D 00
 4300               	.LASF58:
 4301 0309 7077 6D44 		.string	"pwmDir"
 4301      6972 00
 4302               	.LASF16:
 4303 0310 6265 796F 		.string	"beyondFNDelayCounter"
 4303      6E64 464E 
 4303      4465 6C61 
 4303      7943 6F75 
 4303      6E74 6572 
 4304               	.LASF26:
 4305 0325 7469 6D65 		.string	"timerProcessCompareA"
 4305      7250 726F 
 4305      6365 7373 
 4305      436F 6D70 
 4305      6172 6541 
 4306               	.LASF25:
 4307 033a 7469 6D65 		.string	"timerProcessCompareB"
 4307      7250 726F 
 4307      6365 7373 
 4307      436F 6D70 
 4307      6172 6542 
 4308               	.LASF10:
 4309 034f 7569 6E74 		.string	"uint8_t"
 4309      385F 7400 
 4310               	.LASF40:
 4311 0357 7365 7446 		.string	"setFullLEDState"
 4311      756C 6C4C 
 4311      4544 5374 
 4311      6174 6500 
 4312               	.LASF73:
 4313 0367 443A 5C67 		.string	"D:\\git\\ps2avrU\\source"
 4313      6974 5C70 
 4313      7332 6176 
 4313      7255 5C73 
 4313      6F75 7263 
 4314               	.LASF47:
GAS LISTING C:\Users\ADMINI~1\AppData\Local\Temp/ccZqQ0UD.s 			page 81


 4315 037d 696E 6974 		.string	"initFullLEDState"
 4315      4675 6C6C 
 4315      4C45 4453 
 4315      7461 7465 
 4315      00
 4316               	.LASF68:
 4317 038e 7077 6D4D 		.string	"pwmMAX"
 4317      4158 00
 4318               	.LASF59:
 4319 0395 7370 6565 		.string	"speed"
 4319      6400 
 4320               	.LASF69:
 4321 039b 7077 6D4D 		.string	"pwmMIN"
 4321      494E 00
 4322               	.LASF54:
 4323 03a2 7363 726F 		.string	"scrollLockLED"
 4323      6C6C 4C6F 
 4323      636B 4C45 
 4323      4400 
 4324               	.LASF66:
 4325 03b0 6265 796F 		.string	"beyondFNCountDelay"
 4325      6E64 464E 
 4325      436F 756E 
 4325      7444 656C 
 4325      6179 00
 4326               	.LASF75:
 4327 03c3 6765 7442 		.string	"getBrightness"
 4327      7269 6768 
 4327      746E 6573 
 4327      7300 
 4328               	.LASF45:
 4329 03d1 7265 6E64 		.string	"renderLED"
 4329      6572 4C45 
 4329      4400 
 4330               	.LASF38:
 4331 03db 6170 706C 		.string	"applyKeyDownForFullLED"
 4331      794B 6579 
 4331      446F 776E 
 4331      466F 7246 
 4331      756C 6C4C 
 4332               	.global __do_copy_data
 4333               	.global __do_clear_bss
GAS LISTING C:\Users\ADMINI~1\AppData\Local\Temp/ccZqQ0UD.s 			page 82


DEFINED SYMBOLS
                            *ABS*:00000000 ledrender.c
C:\Users\ADMINI~1\AppData\Local\Temp/ccZqQ0UD.s:2      *ABS*:0000003f __SREG__
C:\Users\ADMINI~1\AppData\Local\Temp/ccZqQ0UD.s:3      *ABS*:0000003e __SP_H__
C:\Users\ADMINI~1\AppData\Local\Temp/ccZqQ0UD.s:4      *ABS*:0000003d __SP_L__
C:\Users\ADMINI~1\AppData\Local\Temp/ccZqQ0UD.s:5      *ABS*:00000034 __CCP__
C:\Users\ADMINI~1\AppData\Local\Temp/ccZqQ0UD.s:6      *ABS*:00000000 __tmp_reg__
C:\Users\ADMINI~1\AppData\Local\Temp/ccZqQ0UD.s:7      *ABS*:00000001 __zero_reg__
C:\Users\ADMINI~1\AppData\Local\Temp/ccZqQ0UD.s:18     .text:00000000 setLEDState
C:\Users\ADMINI~1\AppData\Local\Temp/ccZqQ0UD.s:1297   .bss:0000001a LEDstate
C:\Users\ADMINI~1\AppData\Local\Temp/ccZqQ0UD.s:33     .text:00000006 getLEDState
C:\Users\ADMINI~1\AppData\Local\Temp/ccZqQ0UD.s:46     .text:0000000c clearLEDInited
                             .bss:00000004 ledInited
C:\Users\ADMINI~1\AppData\Local\Temp/ccZqQ0UD.s:60     .text:00000012 stopTimer
C:\Users\ADMINI~1\AppData\Local\Temp/ccZqQ0UD.s:76     .text:0000001a startTimer
C:\Users\ADMINI~1\AppData\Local\Temp/ccZqQ0UD.s:92     .text:00000022 timerProcessCompareB
C:\Users\ADMINI~1\AppData\Local\Temp/ccZqQ0UD.s:1268   .bss:00000002 pwmValue
C:\Users\ADMINI~1\AppData\Local\Temp/ccZqQ0UD.s:111    .text:00000032 timerProcessCompareA
C:\Users\ADMINI~1\AppData\Local\Temp/ccZqQ0UD.s:125    .text:00000036 setPWM
C:\Users\ADMINI~1\AppData\Local\Temp/ccZqQ0UD.s:1299   .bss:0000001c prevPwmValue.2332
C:\Users\ADMINI~1\AppData\Local\Temp/ccZqQ0UD.s:185    .text:0000008e setFullLEDState
C:\Users\ADMINI~1\AppData\Local\Temp/ccZqQ0UD.s:1284   .bss:0000000e _fullLEDMode
C:\Users\ADMINI~1\AppData\Local\Temp/ccZqQ0UD.s:1292   .bss:00000012 pwmCounter
C:\Users\ADMINI~1\AppData\Local\Temp/ccZqQ0UD.s:1293   .bss:00000014 pwmDir
C:\Users\ADMINI~1\AppData\Local\Temp/ccZqQ0UD.s:1290   .data:00000005 _ledBrightnessMax
C:\Users\ADMINI~1\AppData\Local\Temp/ccZqQ0UD.s:1294   .bss:00000016 downLevel
C:\Users\ADMINI~1\AppData\Local\Temp/ccZqQ0UD.s:1295   .bss:00000017 downLevelLife
C:\Users\ADMINI~1\AppData\Local\Temp/ccZqQ0UD.s:250    .text:000000f4 changeFullLedState
C:\Users\ADMINI~1\AppData\Local\Temp/ccZqQ0UD.s:1283   .bss:0000000c ledStateCount
C:\Users\ADMINI~1\AppData\Local\Temp/ccZqQ0UD.s:277    .text:0000011a reduceLedBrightness
C:\Users\ADMINI~1\AppData\Local\Temp/ccZqQ0UD.s:314    .text:0000014c increaseLedBrightness
C:\Users\ADMINI~1\AppData\Local\Temp/ccZqQ0UD.s:359    .text:00000180 setLEDIndicate
C:\Users\ADMINI~1\AppData\Local\Temp/ccZqQ0UD.s:1298   .bss:0000001b prevSCRLED.2391
C:\Users\ADMINI~1\AppData\Local\Temp/ccZqQ0UD.s:1281   .bss:00000009 scrollLockLED
C:\Users\ADMINI~1\AppData\Local\Temp/ccZqQ0UD.s:441    .text:000001e2 applyKeyDownForFullLED
C:\Users\ADMINI~1\AppData\Local\Temp/ccZqQ0UD.s:1296   .bss:00000018 downLevelStay
C:\Users\ADMINI~1\AppData\Local\Temp/ccZqQ0UD.s:502    .text:0000024e getBrightness
C:\Users\ADMINI~1\AppData\Local\Temp/ccZqQ0UD.s:530    .text:00000270 fadeLED
C:\Users\ADMINI~1\AppData\Local\Temp/ccZqQ0UD.s:757    .text:00000440 fadePWM
C:\Users\ADMINI~1\AppData\Local\Temp/ccZqQ0UD.s:771    .text:00000446 sleepLED
C:\Users\ADMINI~1\AppData\Local\Temp/ccZqQ0UD.s:1287   .bss:00000011 _isDidSleep
C:\Users\ADMINI~1\AppData\Local\Temp/ccZqQ0UD.s:812    .text:00000478 wakeUpLED
C:\Users\ADMINI~1\AppData\Local\Temp/ccZqQ0UD.s:828    .text:00000482 doSleep
C:\Users\ADMINI~1\AppData\Local\Temp/ccZqQ0UD.s:884    .text:000004de renderLED
C:\Users\ADMINI~1\AppData\Local\Temp/ccZqQ0UD.s:1270   .bss:00000005 beyondFNDelayCounter.2483
C:\Users\ADMINI~1\AppData\Local\Temp/ccZqQ0UD.s:1274   .data:00000002 beyondFNCountDelay
C:\Users\ADMINI~1\AppData\Local\Temp/ccZqQ0UD.s:1280   .bss:00000007 beyondFNCounter.2482
C:\Users\ADMINI~1\AppData\Local\Temp/ccZqQ0UD.s:1278   .data:00000004 beyondFNLEDState.2484
C:\Users\ADMINI~1\AppData\Local\Temp/ccZqQ0UD.s:1282   .bss:0000000a counter.2517
C:\Users\ADMINI~1\AppData\Local\Temp/ccZqQ0UD.s:1285   .bss:0000000f _fullLEDMode_saved
C:\Users\ADMINI~1\AppData\Local\Temp/ccZqQ0UD.s:1286   .bss:00000010 _ledBrightnessMax_saved
C:\Users\ADMINI~1\AppData\Local\Temp/ccZqQ0UD.s:1123   .text:00000656 initFullLEDState
C:\Users\ADMINI~1\AppData\Local\Temp/ccZqQ0UD.s:1255   .data:00000000 pwmMAX
C:\Users\ADMINI~1\AppData\Local\Temp/ccZqQ0UD.s:1262   .bss:00000000 pwmMIN

UNDEFINED SYMBOLS
__divmodhi4
GAS LISTING C:\Users\ADMINI~1\AppData\Local\Temp/ccZqQ0UD.s 			page 83


isSleep
isBootMapper
__eewr_byte_m32
timerAttach
__eerd_byte_m32
INTERFACE
__do_copy_data
__do_clear_bss
