GAS LISTING C:\Users\ADMINI~1\AppData\Local\Temp/ccLmO1h6.s 			page 1


   1               		.file	"macrobuffer.c"
   2               	__SREG__ = 0x3f
   3               	__SP_H__ = 0x3e
   4               	__SP_L__ = 0x3d
   5               	__CCP__  = 0x34
   6               	__tmp_reg__ = 0
   7               	__zero_reg__ = 1
   8               		.section	.debug_abbrev,"",@progbits
   9               	.Ldebug_abbrev0:
  10               		.section	.debug_info,"",@progbits
  11               	.Ldebug_info0:
  12               		.section	.debug_line,"",@progbits
  13               	.Ldebug_line0:
  14               		.text
  15               	.Ltext0:
  16               	.global	pushM
  17               		.type	pushM, @function
  18               	pushM:
  19               	.LFB3:
  20               	.LM1:
  21               	.LVL0:
  22               	/* prologue: function */
  23               	/* frame size = 0 */
  24 0000 282F      		mov r18,r24
  25               	.LM2:
  26 0002 8091 0000 		lds r24,rearm
  27 0006 9091 0000 		lds r25,(rearm)+1
  28               	.LVL1:
  29 000a 0196      		adiw r24,1
  30 000c 60E0      		ldi r22,lo8(256)
  31 000e 71E0      		ldi r23,hi8(256)
  32 0010 0E94 0000 		call __divmodhi4
  33 0014 FC01      		movw r30,r24
  34 0016 9093 0000 		sts (rearm)+1,r25
  35 001a 8093 0000 		sts rearm,r24
  36               	.LM3:
  37 001e 8091 0000 		lds r24,frontm
  38 0022 9091 0000 		lds r25,(frontm)+1
  39 0026 8E17      		cp r24,r30
  40 0028 9F07      		cpc r25,r31
  41 002a 01F4      		brne .L2
  42               	.LM4:
  43 002c 0097      		sbiw r24,0
  44 002e 01F4      		brne .L3
  45 0030 8FEF      		ldi r24,lo8(255)
  46 0032 90E0      		ldi r25,hi8(255)
  47 0034 00C0      		rjmp .L4
  48               	.L3:
  49 0036 0197      		sbiw r24,1
  50               	.L4:
  51 0038 9093 0000 		sts (rearm)+1,r25
  52 003c 8093 0000 		sts rearm,r24
  53 0040 0895      		ret
  54               	.L2:
  55               	.LM5:
  56 0042 E050      		subi r30,lo8(-(QUEUE_M))
  57 0044 F040      		sbci r31,hi8(-(QUEUE_M))
GAS LISTING C:\Users\ADMINI~1\AppData\Local\Temp/ccLmO1h6.s 			page 2


  58 0046 2083      		st Z,r18
  59 0048 0895      		ret
  60               	.LFE3:
  61               		.size	pushM, .-pushM
  62               	.global	popM
  63               		.type	popM, @function
  64               	popM:
  65               	.LFB4:
  66               	.LM6:
  67               	/* prologue: function */
  68               	/* frame size = 0 */
  69               	.LM7:
  70 004a 2091 0000 		lds r18,frontm
  71 004e 3091 0000 		lds r19,(frontm)+1
  72 0052 8091 0000 		lds r24,rearm
  73 0056 9091 0000 		lds r25,(rearm)+1
  74 005a 2817      		cp r18,r24
  75 005c 3907      		cpc r19,r25
  76 005e 01F4      		brne .L8
  77 0060 80E0      		ldi r24,lo8(0)
  78 0062 0895      		ret
  79               	.L8:
  80               	.LM8:
  81 0064 C901      		movw r24,r18
  82 0066 0196      		adiw r24,1
  83 0068 60E0      		ldi r22,lo8(256)
  84 006a 71E0      		ldi r23,hi8(256)
  85 006c 0E94 0000 		call __divmodhi4
  86 0070 FC01      		movw r30,r24
  87 0072 9093 0000 		sts (frontm)+1,r25
  88 0076 8093 0000 		sts frontm,r24
  89               	.LM9:
  90 007a E050      		subi r30,lo8(-(QUEUE_M))
  91 007c F040      		sbci r31,hi8(-(QUEUE_M))
  92 007e 8081      		ld r24,Z
  93               	.LM10:
  94 0080 0895      		ret
  95               	.LFE4:
  96               		.size	popM, .-popM
  97               	.global	isEmptyM
  98               		.type	isEmptyM, @function
  99               	isEmptyM:
 100               	.LFB6:
 101               	.LM11:
 102               	/* prologue: function */
 103               	/* frame size = 0 */
 104               	.LM12:
 105 0082 40E0      		ldi r20,lo8(0)
 106 0084 2091 0000 		lds r18,frontm
 107 0088 3091 0000 		lds r19,(frontm)+1
 108 008c 8091 0000 		lds r24,rearm
 109 0090 9091 0000 		lds r25,(rearm)+1
 110 0094 2817      		cp r18,r24
 111 0096 3907      		cpc r19,r25
 112 0098 01F4      		brne .L12
 113 009a 41E0      		ldi r20,lo8(1)
 114               	.L12:
GAS LISTING C:\Users\ADMINI~1\AppData\Local\Temp/ccLmO1h6.s 			page 3


 115               	.LM13:
 116 009c 842F      		mov r24,r20
 117               	/* epilogue start */
 118 009e 0895      		ret
 119               	.LFE6:
 120               		.size	isEmptyM, .-isEmptyM
 121               	.global	isMacroProcessEnd
 122               		.type	isMacroProcessEnd, @function
 123               	isMacroProcessEnd:
 124               	.LFB8:
 125               	.LM14:
 126               	/* prologue: function */
 127               	/* frame size = 0 */
 128               	.LM15:
 129 00a0 8091 0000 		lds r24,_isMacroProcessEnd
 130 00a4 8823      		tst r24
 131 00a6 01F4      		brne .L15
 132 00a8 40E0      		ldi r20,lo8(0)
 133 00aa 50E0      		ldi r21,hi8(0)
 134 00ac 00C0      		rjmp .L16
 135               	.L15:
 136 00ae 40E0      		ldi r20,lo8(0)
 137 00b0 50E0      		ldi r21,hi8(0)
 138 00b2 2091 0000 		lds r18,frontm
 139 00b6 3091 0000 		lds r19,(frontm)+1
 140 00ba 8091 0000 		lds r24,rearm
 141 00be 9091 0000 		lds r25,(rearm)+1
 142 00c2 2817      		cp r18,r24
 143 00c4 3907      		cpc r19,r25
 144 00c6 01F4      		brne .L16
 145 00c8 41E0      		ldi r20,lo8(1)
 146 00ca 50E0      		ldi r21,hi8(1)
 147               	.L16:
 148               	.LM16:
 149 00cc 842F      		mov r24,r20
 150               	/* epilogue start */
 151 00ce 0895      		ret
 152               	.LFE8:
 153               		.size	isMacroProcessEnd, .-isMacroProcessEnd
 154               	.global	setMacroProcessEnd
 155               		.type	setMacroProcessEnd, @function
 156               	setMacroProcessEnd:
 157               	.LFB9:
 158               	.LM17:
 159               	.LVL2:
 160               	/* prologue: function */
 161               	/* frame size = 0 */
 162               	.LM18:
 163 00d0 8093 0000 		sts _isMacroProcessEnd,r24
 164               	/* epilogue start */
 165               	.LM19:
 166 00d4 0895      		ret
 167               	.LFE9:
 168               		.size	setMacroProcessEnd, .-setMacroProcessEnd
 169               	.global	charToKey
 170               		.type	charToKey, @function
 171               	charToKey:
GAS LISTING C:\Users\ADMINI~1\AppData\Local\Temp/ccLmO1h6.s 			page 4


 172               	.LFB11:
 173               	.LM20:
 174               	.LVL3:
 175               	/* prologue: function */
 176               	/* frame size = 0 */
 177 00d6 982F      		mov r25,r24
 178               	.LM21:
 179 00d8 8156      		subi r24,lo8(-(-97))
 180               	.LVL4:
 181 00da 8A31      		cpi r24,lo8(26)
 182 00dc 00F4      		brsh .L22
 183               	.LM22:
 184 00de 292F      		mov r18,r25
 185 00e0 2D55      		subi r18,lo8(-(-93))
 186 00e2 00C0      		rjmp .L64
 187               	.L22:
 188               	.LM23:
 189 00e4 892F      		mov r24,r25
 190 00e6 8154      		subi r24,lo8(-(-65))
 191 00e8 8A31      		cpi r24,lo8(26)
 192 00ea 00F4      		brsh .L24
 193               	.LM24:
 194 00ec 292F      		mov r18,r25
 195 00ee 2D53      		subi r18,lo8(-(-61))
 196 00f0 32E0      		ldi r19,lo8(2)
 197 00f2 00C0      		rjmp .L23
 198               	.L24:
 199               	.LM25:
 200 00f4 892F      		mov r24,r25
 201 00f6 8153      		subi r24,lo8(-(-49))
 202 00f8 8930      		cpi r24,lo8(9)
 203 00fa 00F0      		brlo .L25
 204 00fc 20E0      		ldi r18,lo8(0)
 205 00fe 00C0      		rjmp .L64
 206               	.L25:
 207               	.LM26:
 208 0100 292F      		mov r18,r25
 209 0102 2351      		subi r18,lo8(-(-19))
 210               	.L64:
 211 0104 30E0      		ldi r19,lo8(0)
 212               	.L23:
 213               	.LM27:
 214 0106 892F      		mov r24,r25
 215 0108 9927      		clr r25
 216 010a 87FD      		sbrc r24,7
 217 010c 9095      		com r25
 218 010e A92F      		mov r26,r25
 219 0110 B92F      		mov r27,r25
 220               	.LVL5:
 221 0112 FC01      		movw r30,r24
 222               	.LVL6:
 223 0114 B097      		sbiw r30,32
 224 0116 EF35      		cpi r30,95
 225 0118 F105      		cpc r31,__zero_reg__
 226 011a 00F0      		brlo .+2
 227 011c 00C0      		rjmp .L26
 228 011e E050      		subi r30,lo8(-(gs(.L61)))
GAS LISTING C:\Users\ADMINI~1\AppData\Local\Temp/ccLmO1h6.s 			page 5


 229 0120 F040      		sbci r31,hi8(-(gs(.L61)))
 230 0122 EE0F      		lsl r30
 231 0124 FF1F      		rol r31
 232 0126 0590      		lpm __tmp_reg__,Z+
 233 0128 F491      		lpm r31,Z
 234 012a E02D      		mov r30,__tmp_reg__
 235 012c 0994      		ijmp
 236               		.data
 237               		.section .progmem.gcc_sw_table, "a", @progbits
 238               		.p2align 1
 239               	.L61:
 240               		.data
 241               		.section .progmem.gcc_sw_table, "a", @progbits
 242               		.p2align 1
 243 0000 0000      		.word gs(.L27)
 244 0002 0000      		.word gs(.L28)
 245 0004 0000      		.word gs(.L29)
 246 0006 0000      		.word gs(.L30)
 247 0008 0000      		.word gs(.L31)
 248 000a 0000      		.word gs(.L32)
 249 000c 0000      		.word gs(.L33)
 250 000e 0000      		.word gs(.L34)
 251 0010 0000      		.word gs(.L35)
 252 0012 0000      		.word gs(.L36)
 253 0014 0000      		.word gs(.L37)
 254 0016 0000      		.word gs(.L38)
 255 0018 0000      		.word gs(.L39)
 256 001a 0000      		.word gs(.L40)
 257 001c 0000      		.word gs(.L41)
 258 001e 0000      		.word gs(.L42)
 259 0020 0000      		.word gs(.L43)
 260 0022 0000      		.word gs(.L26)
 261 0024 0000      		.word gs(.L26)
 262 0026 0000      		.word gs(.L26)
 263 0028 0000      		.word gs(.L26)
 264 002a 0000      		.word gs(.L26)
 265 002c 0000      		.word gs(.L26)
 266 002e 0000      		.word gs(.L26)
 267 0030 0000      		.word gs(.L26)
 268 0032 0000      		.word gs(.L26)
 269 0034 0000      		.word gs(.L44)
 270 0036 0000      		.word gs(.L45)
 271 0038 0000      		.word gs(.L46)
 272 003a 0000      		.word gs(.L47)
 273 003c 0000      		.word gs(.L48)
 274 003e 0000      		.word gs(.L66)
 275 0040 0000      		.word gs(.L50)
 276 0042 0000      		.word gs(.L26)
 277 0044 0000      		.word gs(.L26)
 278 0046 0000      		.word gs(.L26)
 279 0048 0000      		.word gs(.L26)
 280 004a 0000      		.word gs(.L26)
 281 004c 0000      		.word gs(.L26)
 282 004e 0000      		.word gs(.L26)
 283 0050 0000      		.word gs(.L26)
 284 0052 0000      		.word gs(.L26)
 285 0054 0000      		.word gs(.L26)
GAS LISTING C:\Users\ADMINI~1\AppData\Local\Temp/ccLmO1h6.s 			page 6


 286 0056 0000      		.word gs(.L26)
 287 0058 0000      		.word gs(.L26)
 288 005a 0000      		.word gs(.L26)
 289 005c 0000      		.word gs(.L26)
 290 005e 0000      		.word gs(.L26)
 291 0060 0000      		.word gs(.L26)
 292 0062 0000      		.word gs(.L26)
 293 0064 0000      		.word gs(.L26)
 294 0066 0000      		.word gs(.L26)
 295 0068 0000      		.word gs(.L26)
 296 006a 0000      		.word gs(.L26)
 297 006c 0000      		.word gs(.L26)
 298 006e 0000      		.word gs(.L26)
 299 0070 0000      		.word gs(.L26)
 300 0072 0000      		.word gs(.L26)
 301 0074 0000      		.word gs(.L26)
 302 0076 0000      		.word gs(.L51)
 303 0078 0000      		.word gs(.L52)
 304 007a 0000      		.word gs(.L53)
 305 007c 0000      		.word gs(.L54)
 306 007e 0000      		.word gs(.L55)
 307 0080 0000      		.word gs(.L56)
 308 0082 0000      		.word gs(.L26)
 309 0084 0000      		.word gs(.L26)
 310 0086 0000      		.word gs(.L26)
 311 0088 0000      		.word gs(.L26)
 312 008a 0000      		.word gs(.L26)
 313 008c 0000      		.word gs(.L26)
 314 008e 0000      		.word gs(.L26)
 315 0090 0000      		.word gs(.L26)
 316 0092 0000      		.word gs(.L26)
 317 0094 0000      		.word gs(.L26)
 318 0096 0000      		.word gs(.L26)
 319 0098 0000      		.word gs(.L26)
 320 009a 0000      		.word gs(.L26)
 321 009c 0000      		.word gs(.L26)
 322 009e 0000      		.word gs(.L26)
 323 00a0 0000      		.word gs(.L26)
 324 00a2 0000      		.word gs(.L26)
 325 00a4 0000      		.word gs(.L26)
 326 00a6 0000      		.word gs(.L26)
 327 00a8 0000      		.word gs(.L26)
 328 00aa 0000      		.word gs(.L26)
 329 00ac 0000      		.word gs(.L26)
 330 00ae 0000      		.word gs(.L26)
 331 00b0 0000      		.word gs(.L26)
 332 00b2 0000      		.word gs(.L26)
 333 00b4 0000      		.word gs(.L26)
 334 00b6 0000      		.word gs(.L57)
 335 00b8 0000      		.word gs(.L58)
 336 00ba 0000      		.word gs(.L59)
 337 00bc 0000      		.word gs(.L60)
 338               		.text
 339               	.L28:
 340 012e 2EE1      		ldi r18,lo8(30)
 341 0130 00C0      		rjmp .L65
 342               	.L50:
GAS LISTING C:\Users\ADMINI~1\AppData\Local\Temp/ccLmO1h6.s 			page 7


 343 0132 2FE1      		ldi r18,lo8(31)
 344 0134 00C0      		rjmp .L65
 345               	.L30:
 346               	.LM28:
 347 0136 20E2      		ldi r18,lo8(32)
 348 0138 00C0      		rjmp .L65
 349               	.L31:
 350               	.LM29:
 351 013a 21E2      		ldi r18,lo8(33)
 352 013c 00C0      		rjmp .L65
 353               	.L32:
 354               	.LM30:
 355 013e 22E2      		ldi r18,lo8(34)
 356 0140 00C0      		rjmp .L65
 357               	.L54:
 358               	.LM31:
 359 0142 23E2      		ldi r18,lo8(35)
 360 0144 00C0      		rjmp .L65
 361               	.L33:
 362               	.LM32:
 363 0146 24E2      		ldi r18,lo8(36)
 364 0148 00C0      		rjmp .L65
 365               	.L37:
 366               	.LM33:
 367 014a 25E2      		ldi r18,lo8(37)
 368 014c 00C0      		rjmp .L65
 369               	.L35:
 370               	.LM34:
 371 014e 26E2      		ldi r18,lo8(38)
 372 0150 00C0      		rjmp .L65
 373               	.L36:
 374               	.LM35:
 375 0152 27E2      		ldi r18,lo8(39)
 376 0154 00C0      		rjmp .L65
 377               	.L27:
 378               	.LM36:
 379 0156 2CE2      		ldi r18,lo8(44)
 380 0158 00C0      		rjmp .L62
 381               	.L40:
 382               	.LM37:
 383 015a 2DE2      		ldi r18,lo8(45)
 384 015c 00C0      		rjmp .L62
 385               	.L55:
 386               	.LM38:
 387 015e 2DE2      		ldi r18,lo8(45)
 388 0160 00C0      		rjmp .L65
 389               	.L47:
 390               	.LM39:
 391 0162 2EE2      		ldi r18,lo8(46)
 392 0164 00C0      		rjmp .L62
 393               	.L38:
 394               	.LM40:
 395 0166 2EE2      		ldi r18,lo8(46)
 396 0168 00C0      		rjmp .L65
 397               	.L51:
 398               	.LM41:
 399 016a 2FE2      		ldi r18,lo8(47)
GAS LISTING C:\Users\ADMINI~1\AppData\Local\Temp/ccLmO1h6.s 			page 8


 400 016c 00C0      		rjmp .L62
 401               	.L57:
 402               	.LM42:
 403 016e 2FE2      		ldi r18,lo8(47)
 404 0170 00C0      		rjmp .L65
 405               	.L53:
 406               	.LM43:
 407 0172 20E3      		ldi r18,lo8(48)
 408 0174 00C0      		rjmp .L62
 409               	.L59:
 410               	.LM44:
 411 0176 20E3      		ldi r18,lo8(48)
 412 0178 00C0      		rjmp .L65
 413               	.L52:
 414               	.LM45:
 415 017a 21E3      		ldi r18,lo8(49)
 416 017c 00C0      		rjmp .L62
 417               	.L58:
 418               	.LM46:
 419 017e 21E3      		ldi r18,lo8(49)
 420 0180 00C0      		rjmp .L65
 421               	.L45:
 422               	.LM47:
 423 0182 23E3      		ldi r18,lo8(51)
 424 0184 00C0      		rjmp .L62
 425               	.L44:
 426               	.LM48:
 427 0186 23E3      		ldi r18,lo8(51)
 428 0188 00C0      		rjmp .L65
 429               	.L34:
 430               	.LM49:
 431 018a 24E3      		ldi r18,lo8(52)
 432 018c 00C0      		rjmp .L62
 433               	.L29:
 434               	.LM50:
 435 018e 24E3      		ldi r18,lo8(52)
 436 0190 00C0      		rjmp .L65
 437               	.L56:
 438               	.LM51:
 439 0192 25E3      		ldi r18,lo8(53)
 440 0194 00C0      		rjmp .L62
 441               	.L60:
 442               	.LM52:
 443 0196 25E3      		ldi r18,lo8(53)
 444 0198 00C0      		rjmp .L65
 445               	.L39:
 446               	.LM53:
 447 019a 26E3      		ldi r18,lo8(54)
 448 019c 00C0      		rjmp .L62
 449               	.L46:
 450               	.LM54:
 451 019e 26E3      		ldi r18,lo8(54)
 452 01a0 00C0      		rjmp .L65
 453               	.L41:
 454               	.LM55:
 455 01a2 27E3      		ldi r18,lo8(55)
 456 01a4 00C0      		rjmp .L62
GAS LISTING C:\Users\ADMINI~1\AppData\Local\Temp/ccLmO1h6.s 			page 9


 457               	.L48:
 458               	.LM56:
 459 01a6 27E3      		ldi r18,lo8(55)
 460 01a8 00C0      		rjmp .L65
 461               	.L42:
 462               	.LM57:
 463 01aa 28E3      		ldi r18,lo8(56)
 464 01ac 00C0      		rjmp .L62
 465               	.L26:
 466               	.LM58:
 467 01ae 2223      		tst r18
 468 01b0 01F4      		brne .L62
 469               	.L66:
 470 01b2 28E3      		ldi r18,lo8(56)
 471               	.L65:
 472 01b4 32E0      		ldi r19,lo8(2)
 473               	.L62:
 474               	.LM59:
 475 01b6 832F      		mov r24,r19
 476 01b8 922F      		mov r25,r18
 477               	/* epilogue start */
 478 01ba 0895      		ret
 479               	.L43:
 480               	.LM60:
 481 01bc 27E2      		ldi r18,lo8(39)
 482 01be 00C0      		rjmp .L62
 483               	.LFE11:
 484               		.size	charToKey, .-charToKey
 485               	.global	toString
 486               		.type	toString, @function
 487               	toString:
 488               	.LFB10:
 489               	.LM61:
 490               	.LVL7:
 491 01c0 0F93      		push r16
 492 01c2 1F93      		push r17
 493               	/* prologue: function */
 494               	/* frame size = 0 */
 495               	.LM62:
 496 01c4 00E0      		ldi r16,lo8(gStr.2111)
 497 01c6 10E0      		ldi r17,hi8(gStr.2111)
 498 01c8 90E0      		ldi r25,lo8(0)
 499 01ca B801      		movw r22,r16
 500 01cc 4AE0      		ldi r20,lo8(10)
 501 01ce 50E0      		ldi r21,hi8(10)
 502 01d0 0E94 0000 		call itoa
 503               	.LVL8:
 504               	.LM63:
 505 01d4 C801      		movw r24,r16
 506               	/* epilogue start */
 507 01d6 1F91      		pop r17
 508 01d8 0F91      		pop r16
 509 01da 0895      		ret
 510               	.LFE10:
 511               		.size	toString, .-toString
 512               	.global	clearMacroPressedBuffer
 513               		.type	clearMacroPressedBuffer, @function
GAS LISTING C:\Users\ADMINI~1\AppData\Local\Temp/ccLmO1h6.s 			page 10


 514               	clearMacroPressedBuffer:
 515               	.LFB7:
 516               	.LM64:
 517               	/* prologue: function */
 518               	/* frame size = 0 */
 519               	.LBB6:
 520               	.LBB7:
 521               	.LM65:
 522 01dc 2091 0000 		lds r18,frontm
 523 01e0 3091 0000 		lds r19,(frontm)+1
 524 01e4 8091 0000 		lds r24,rearm
 525 01e8 9091 0000 		lds r25,(rearm)+1
 526 01ec 2817      		cp r18,r24
 527 01ee 3907      		cpc r19,r25
 528 01f0 01F4      		brne .L71
 529               	.LBE7:
 530               	.LBE6:
 531               	.LM66:
 532 01f2 80E3      		ldi r24,lo8(48)
 533 01f4 E0E0      		ldi r30,lo8(_pressedBuffer)
 534 01f6 F0E0      		ldi r31,hi8(_pressedBuffer)
 535 01f8 DF01      		movw r26,r30
 536 01fa 1D92      		st X+,__zero_reg__
 537 01fc 8A95      	        dec r24
 538 01fe 01F4      		brne .-6
 539               	.L71:
 540 0200 0895      		ret
 541               	.LFE7:
 542               		.size	clearMacroPressedBuffer, .-clearMacroPressedBuffer
 543               	.global	popMWithKey
 544               		.type	popMWithKey, @function
 545               	popMWithKey:
 546               	.LFB5:
 547               	.LM67:
 548 0202 1F93      		push r17
 549 0204 CF93      		push r28
 550 0206 DF93      		push r29
 551               	/* prologue: function */
 552               	/* frame size = 0 */
 553               	.LM68:
 554 0208 0E94 0000 		call popM
 555 020c 182F      		mov r17,r24
 556 020e C0E0      		ldi r28,lo8(_pressedBuffer)
 557 0210 D0E0      		ldi r29,hi8(_pressedBuffer)
 558               	.LM69:
 559 0212 8823      		tst r24
 560 0214 01F4      		brne .L73
 561               	.LM70:
 562 0216 80E3      		ldi r24,lo8(48)
 563 0218 FE01      		movw r30,r28
 564 021a 1192      		st Z+,__zero_reg__
 565 021c 8A95      	        dec r24
 566 021e 01F4      		brne .-6
 567 0220 00C0      		rjmp .L77
 568               	.L73:
 569               	.LM71:
 570 0222 FE01      		movw r30,r28
GAS LISTING C:\Users\ADMINI~1\AppData\Local\Temp/ccLmO1h6.s 			page 11


 571 0224 0190      		ld __tmp_reg__,Z+
 572 0226 0020      		tst __tmp_reg__
 573 0228 01F4      		brne .-6
 574 022a 3197      		sbiw r30,1
 575 022c E050      		subi r30,lo8(_pressedBuffer)
 576 022e F040      		sbci r31,hi8(_pressedBuffer)
 577               	.LM72:
 578 0230 CE01      		movw r24,r28
 579 0232 6E2F      		mov r22,r30
 580 0234 412F      		mov r20,r17
 581 0236 0E94 0000 		call findIndex
 582 023a BC01      		movw r22,r24
 583               	.LVL9:
 584               	.LM73:
 585 023c 97FD      		sbrc r25,7
 586 023e 00C0      		rjmp .L75
 587               	.LVL10:
 588               	.LM74:
 589 0240 CE01      		movw r24,r28
 590               	.LVL11:
 591 0242 0E94 0000 		call delete
 592               	.LVL12:
 593               	.L77:
 594 0246 80E0      		ldi r24,lo8(0)
 595 0248 00C0      		rjmp .L74
 596               	.LVL13:
 597               	.L75:
 598               	.LM75:
 599 024a CE01      		movw r24,r28
 600               	.LVL14:
 601 024c 612F      		mov r22,r17
 602               	.LVL15:
 603 024e 0E94 0000 		call append
 604 0252 81E0      		ldi r24,lo8(1)
 605               	.L74:
 606               	.LM76:
 607 0254 912F      		mov r25,r17
 608               	/* epilogue start */
 609 0256 DF91      		pop r29
 610 0258 CF91      		pop r28
 611 025a 1F91      		pop r17
 612 025c 0895      		ret
 613               	.LFE5:
 614               		.size	popMWithKey, .-popMWithKey
 615               	.global	_pressedBuffer
 616               	.global	_pressedBuffer
 617               		.section .bss
 618               		.type	_pressedBuffer, @object
 619               		.size	_pressedBuffer, 48
 620               	_pressedBuffer:
 621 0000 0000 0000 		.skip 48,0
 621      0000 0000 
 621      0000 0000 
 621      0000 0000 
 621      0000 0000 
 622               		.lcomm gStr.2111,3
 623               		.lcomm _isMacroProcessEnd,1
GAS LISTING C:\Users\ADMINI~1\AppData\Local\Temp/ccLmO1h6.s 			page 12


 624               		.lcomm frontm,2
 625               		.lcomm rearm,2
 626               		.lcomm QUEUE_M,256
 627               		.section	.debug_frame,"",@progbits
 628               	.Lframe0:
 629 0000 0C00 0000 		.long	.LECIE0-.LSCIE0
 630               	.LSCIE0:
 631 0004 FFFF FFFF 		.long	0xffffffff
 632 0008 01        		.byte	0x1
 633 0009 00        		.string	""
 634 000a 01        		.uleb128 0x1
 635 000b 7F        		.sleb128 -1
 636 000c 24        		.byte	0x24
 637 000d 0C        		.byte	0xc
 638 000e 20        		.uleb128 0x20
 639 000f 00        		.uleb128 0x0
 640               		.p2align	2
 641               	.LECIE0:
 642               	.LSFDE0:
 643 0010 0C00 0000 		.long	.LEFDE0-.LASFDE0
 644               	.LASFDE0:
 645 0014 0000 0000 		.long	.Lframe0
 646 0018 0000 0000 		.long	.LFB3
 647 001c 4A00 0000 		.long	.LFE3-.LFB3
 648               		.p2align	2
 649               	.LEFDE0:
 650               	.LSFDE2:
 651 0020 0C00 0000 		.long	.LEFDE2-.LASFDE2
 652               	.LASFDE2:
 653 0024 0000 0000 		.long	.Lframe0
 654 0028 0000 0000 		.long	.LFB4
 655 002c 3800 0000 		.long	.LFE4-.LFB4
 656               		.p2align	2
 657               	.LEFDE2:
 658               	.LSFDE4:
 659 0030 0C00 0000 		.long	.LEFDE4-.LASFDE4
 660               	.LASFDE4:
 661 0034 0000 0000 		.long	.Lframe0
 662 0038 0000 0000 		.long	.LFB6
 663 003c 1E00 0000 		.long	.LFE6-.LFB6
 664               		.p2align	2
 665               	.LEFDE4:
 666               	.LSFDE6:
 667 0040 0C00 0000 		.long	.LEFDE6-.LASFDE6
 668               	.LASFDE6:
 669 0044 0000 0000 		.long	.Lframe0
 670 0048 0000 0000 		.long	.LFB8
 671 004c 3000 0000 		.long	.LFE8-.LFB8
 672               		.p2align	2
 673               	.LEFDE6:
 674               	.LSFDE8:
 675 0050 0C00 0000 		.long	.LEFDE8-.LASFDE8
 676               	.LASFDE8:
 677 0054 0000 0000 		.long	.Lframe0
 678 0058 0000 0000 		.long	.LFB9
 679 005c 0600 0000 		.long	.LFE9-.LFB9
 680               		.p2align	2
GAS LISTING C:\Users\ADMINI~1\AppData\Local\Temp/ccLmO1h6.s 			page 13


 681               	.LEFDE8:
 682               	.LSFDE10:
 683 0060 0C00 0000 		.long	.LEFDE10-.LASFDE10
 684               	.LASFDE10:
 685 0064 0000 0000 		.long	.Lframe0
 686 0068 0000 0000 		.long	.LFB11
 687 006c EA00 0000 		.long	.LFE11-.LFB11
 688               		.p2align	2
 689               	.LEFDE10:
 690               	.LSFDE12:
 691 0070 0C00 0000 		.long	.LEFDE12-.LASFDE12
 692               	.LASFDE12:
 693 0074 0000 0000 		.long	.Lframe0
 694 0078 0000 0000 		.long	.LFB10
 695 007c 1C00 0000 		.long	.LFE10-.LFB10
 696               		.p2align	2
 697               	.LEFDE12:
 698               	.LSFDE14:
 699 0080 0C00 0000 		.long	.LEFDE14-.LASFDE14
 700               	.LASFDE14:
 701 0084 0000 0000 		.long	.Lframe0
 702 0088 0000 0000 		.long	.LFB7
 703 008c 2600 0000 		.long	.LFE7-.LFB7
 704               		.p2align	2
 705               	.LEFDE14:
 706               	.LSFDE16:
 707 0090 0C00 0000 		.long	.LEFDE16-.LASFDE16
 708               	.LASFDE16:
 709 0094 0000 0000 		.long	.Lframe0
 710 0098 0000 0000 		.long	.LFB5
 711 009c 5C00 0000 		.long	.LFE5-.LFB5
 712               		.p2align	2
 713               	.LEFDE16:
 714               		.text
 715               	.Letext0:
 716               		.section	.debug_loc,"",@progbits
 717               	.Ldebug_loc0:
 718               	.LLST1:
 719 0000 0000 0000 		.long	.LVL0-.Ltext0
 720 0004 0A00 0000 		.long	.LVL1-.Ltext0
 721 0008 0100      		.word	0x1
 722 000a 68        		.byte	0x68
 723 000b 0A00 0000 		.long	.LVL1-.Ltext0
 724 000f 4A00 0000 		.long	.LFE3-.Ltext0
 725 0013 0100      		.word	0x1
 726 0015 62        		.byte	0x62
 727 0016 0000 0000 		.long	0x0
 728 001a 0000 0000 		.long	0x0
 729               	.LLST7:
 730 001e D600 0000 		.long	.LVL3-.Ltext0
 731 0022 DA00 0000 		.long	.LVL4-.Ltext0
 732 0026 0100      		.word	0x1
 733 0028 68        		.byte	0x68
 734 0029 DA00 0000 		.long	.LVL4-.Ltext0
 735 002d 1201 0000 		.long	.LVL5-.Ltext0
 736 0031 0100      		.word	0x1
 737 0033 69        		.byte	0x69
GAS LISTING C:\Users\ADMINI~1\AppData\Local\Temp/ccLmO1h6.s 			page 14


 738 0034 1201 0000 		.long	.LVL5-.Ltext0
 739 0038 1401 0000 		.long	.LVL6-.Ltext0
 740 003c 0100      		.word	0x1
 741 003e 68        		.byte	0x68
 742 003f 0000 0000 		.long	0x0
 743 0043 0000 0000 		.long	0x0
 744               	.LLST9:
 745 0047 C001 0000 		.long	.LVL7-.Ltext0
 746 004b D401 0000 		.long	.LVL8-.Ltext0
 747 004f 0100      		.word	0x1
 748 0051 68        		.byte	0x68
 749 0052 0000 0000 		.long	0x0
 750 0056 0000 0000 		.long	0x0
 751               	.LLST12:
 752 005a 3C02 0000 		.long	.LVL9-.Ltext0
 753 005e 4002 0000 		.long	.LVL10-.Ltext0
 754 0062 0600      		.word	0x6
 755 0064 66        		.byte	0x66
 756 0065 93        		.byte	0x93
 757 0066 01        		.uleb128 0x1
 758 0067 67        		.byte	0x67
 759 0068 93        		.byte	0x93
 760 0069 01        		.uleb128 0x1
 761 006a 4002 0000 		.long	.LVL10-.Ltext0
 762 006e 4202 0000 		.long	.LVL11-.Ltext0
 763 0072 0600      		.word	0x6
 764 0074 68        		.byte	0x68
 765 0075 93        		.byte	0x93
 766 0076 01        		.uleb128 0x1
 767 0077 69        		.byte	0x69
 768 0078 93        		.byte	0x93
 769 0079 01        		.uleb128 0x1
 770 007a 4202 0000 		.long	.LVL11-.Ltext0
 771 007e 4602 0000 		.long	.LVL12-.Ltext0
 772 0082 0600      		.word	0x6
 773 0084 66        		.byte	0x66
 774 0085 93        		.byte	0x93
 775 0086 01        		.uleb128 0x1
 776 0087 67        		.byte	0x67
 777 0088 93        		.byte	0x93
 778 0089 01        		.uleb128 0x1
 779 008a 4A02 0000 		.long	.LVL13-.Ltext0
 780 008e 4C02 0000 		.long	.LVL14-.Ltext0
 781 0092 0600      		.word	0x6
 782 0094 68        		.byte	0x68
 783 0095 93        		.byte	0x93
 784 0096 01        		.uleb128 0x1
 785 0097 69        		.byte	0x69
 786 0098 93        		.byte	0x93
 787 0099 01        		.uleb128 0x1
 788 009a 4C02 0000 		.long	.LVL14-.Ltext0
 789 009e 4E02 0000 		.long	.LVL15-.Ltext0
 790 00a2 0600      		.word	0x6
 791 00a4 66        		.byte	0x66
 792 00a5 93        		.byte	0x93
 793 00a6 01        		.uleb128 0x1
 794 00a7 67        		.byte	0x67
GAS LISTING C:\Users\ADMINI~1\AppData\Local\Temp/ccLmO1h6.s 			page 15


 795 00a8 93        		.byte	0x93
 796 00a9 01        		.uleb128 0x1
 797 00aa 0000 0000 		.long	0x0
 798 00ae 0000 0000 		.long	0x0
 799               		.section	.debug_info
 800 0000 5707 0000 		.long	0x757
 801 0004 0200      		.word	0x2
 802 0006 0000 0000 		.long	.Ldebug_abbrev0
 803 000a 04        		.byte	0x4
 804 000b 01        		.uleb128 0x1
 805 000c 0000 0000 		.long	.LASF209
 806 0010 01        		.byte	0x1
 807 0011 0000 0000 		.long	.LASF210
 808 0015 0000 0000 		.long	.LASF211
 809 0019 0000 0000 		.long	.Ltext0
 810 001d 0000 0000 		.long	.Letext0
 811 0021 0000 0000 		.long	.Ldebug_line0
 812 0025 02        		.uleb128 0x2
 813 0026 02        		.byte	0x2
 814 0027 07        		.byte	0x7
 815 0028 0000 0000 		.long	.LASF0
 816 002c 03        		.uleb128 0x3
 817 002d 02        		.byte	0x2
 818 002e 05        		.byte	0x5
 819 002f 696E 7400 		.string	"int"
 820 0033 02        		.uleb128 0x2
 821 0034 04        		.byte	0x4
 822 0035 05        		.byte	0x5
 823 0036 0000 0000 		.long	.LASF1
 824 003a 02        		.uleb128 0x2
 825 003b 01        		.byte	0x1
 826 003c 06        		.byte	0x6
 827 003d 0000 0000 		.long	.LASF2
 828 0041 04        		.uleb128 0x4
 829 0042 0000 0000 		.long	.LASF188
 830 0046 03        		.byte	0x3
 831 0047 7A        		.byte	0x7a
 832 0048 4C00 0000 		.long	0x4c
 833 004c 02        		.uleb128 0x2
 834 004d 01        		.byte	0x1
 835 004e 08        		.byte	0x8
 836 004f 0000 0000 		.long	.LASF3
 837 0053 02        		.uleb128 0x2
 838 0054 04        		.byte	0x4
 839 0055 07        		.byte	0x7
 840 0056 0000 0000 		.long	.LASF4
 841 005a 02        		.uleb128 0x2
 842 005b 08        		.byte	0x8
 843 005c 05        		.byte	0x5
 844 005d 0000 0000 		.long	.LASF5
 845 0061 02        		.uleb128 0x2
 846 0062 08        		.byte	0x8
 847 0063 07        		.byte	0x7
 848 0064 0000 0000 		.long	.LASF6
 849 0068 05        		.uleb128 0x5
 850 0069 01        		.byte	0x1
 851 006a 06        		.byte	0x6
GAS LISTING C:\Users\ADMINI~1\AppData\Local\Temp/ccLmO1h6.s 			page 16


 852 006b 05        		.uleb128 0x5
 853 006c 01        		.byte	0x1
 854 006d 08        		.byte	0x8
 855 006e 02        		.uleb128 0x2
 856 006f 02        		.byte	0x2
 857 0070 07        		.byte	0x7
 858 0071 0000 0000 		.long	.LASF7
 859 0075 02        		.uleb128 0x2
 860 0076 02        		.byte	0x2
 861 0077 05        		.byte	0x5
 862 0078 0000 0000 		.long	.LASF8
 863 007c 02        		.uleb128 0x2
 864 007d 01        		.byte	0x1
 865 007e 06        		.byte	0x6
 866 007f 0000 0000 		.long	.LASF9
 867 0083 06        		.uleb128 0x6
 868 0084 02        		.byte	0x2
 869 0085 04        		.byte	0x4
 870 0086 43        		.byte	0x43
 871 0087 1C05 0000 		.long	0x51c
 872 008b 07        		.uleb128 0x7
 873 008c 0000 0000 		.long	.LASF10
 874 0090 00        		.sleb128 0
 875 0091 07        		.uleb128 0x7
 876 0092 0000 0000 		.long	.LASF11
 877 0096 01        		.sleb128 1
 878 0097 07        		.uleb128 0x7
 879 0098 0000 0000 		.long	.LASF12
 880 009c 02        		.sleb128 2
 881 009d 07        		.uleb128 0x7
 882 009e 0000 0000 		.long	.LASF13
 883 00a2 03        		.sleb128 3
 884 00a3 07        		.uleb128 0x7
 885 00a4 0000 0000 		.long	.LASF14
 886 00a8 04        		.sleb128 4
 887 00a9 07        		.uleb128 0x7
 888 00aa 0000 0000 		.long	.LASF15
 889 00ae 05        		.sleb128 5
 890 00af 07        		.uleb128 0x7
 891 00b0 0000 0000 		.long	.LASF16
 892 00b4 06        		.sleb128 6
 893 00b5 07        		.uleb128 0x7
 894 00b6 0000 0000 		.long	.LASF17
 895 00ba 07        		.sleb128 7
 896 00bb 07        		.uleb128 0x7
 897 00bc 0000 0000 		.long	.LASF18
 898 00c0 08        		.sleb128 8
 899 00c1 07        		.uleb128 0x7
 900 00c2 0000 0000 		.long	.LASF19
 901 00c6 09        		.sleb128 9
 902 00c7 07        		.uleb128 0x7
 903 00c8 0000 0000 		.long	.LASF20
 904 00cc 0A        		.sleb128 10
 905 00cd 07        		.uleb128 0x7
 906 00ce 0000 0000 		.long	.LASF21
 907 00d2 0B        		.sleb128 11
 908 00d3 07        		.uleb128 0x7
GAS LISTING C:\Users\ADMINI~1\AppData\Local\Temp/ccLmO1h6.s 			page 17


 909 00d4 0000 0000 		.long	.LASF22
 910 00d8 0C        		.sleb128 12
 911 00d9 07        		.uleb128 0x7
 912 00da 0000 0000 		.long	.LASF23
 913 00de 0D        		.sleb128 13
 914 00df 07        		.uleb128 0x7
 915 00e0 0000 0000 		.long	.LASF24
 916 00e4 0E        		.sleb128 14
 917 00e5 07        		.uleb128 0x7
 918 00e6 0000 0000 		.long	.LASF25
 919 00ea 0F        		.sleb128 15
 920 00eb 07        		.uleb128 0x7
 921 00ec 0000 0000 		.long	.LASF26
 922 00f0 10        		.sleb128 16
 923 00f1 07        		.uleb128 0x7
 924 00f2 0000 0000 		.long	.LASF27
 925 00f6 11        		.sleb128 17
 926 00f7 07        		.uleb128 0x7
 927 00f8 0000 0000 		.long	.LASF28
 928 00fc 12        		.sleb128 18
 929 00fd 07        		.uleb128 0x7
 930 00fe 0000 0000 		.long	.LASF29
 931 0102 13        		.sleb128 19
 932 0103 07        		.uleb128 0x7
 933 0104 0000 0000 		.long	.LASF30
 934 0108 14        		.sleb128 20
 935 0109 07        		.uleb128 0x7
 936 010a 0000 0000 		.long	.LASF31
 937 010e 15        		.sleb128 21
 938 010f 07        		.uleb128 0x7
 939 0110 0000 0000 		.long	.LASF32
 940 0114 16        		.sleb128 22
 941 0115 07        		.uleb128 0x7
 942 0116 0000 0000 		.long	.LASF33
 943 011a 17        		.sleb128 23
 944 011b 07        		.uleb128 0x7
 945 011c 0000 0000 		.long	.LASF34
 946 0120 18        		.sleb128 24
 947 0121 07        		.uleb128 0x7
 948 0122 0000 0000 		.long	.LASF35
 949 0126 19        		.sleb128 25
 950 0127 07        		.uleb128 0x7
 951 0128 0000 0000 		.long	.LASF36
 952 012c 1A        		.sleb128 26
 953 012d 07        		.uleb128 0x7
 954 012e 0000 0000 		.long	.LASF37
 955 0132 1B        		.sleb128 27
 956 0133 07        		.uleb128 0x7
 957 0134 0000 0000 		.long	.LASF38
 958 0138 1C        		.sleb128 28
 959 0139 07        		.uleb128 0x7
 960 013a 0000 0000 		.long	.LASF39
 961 013e 1D        		.sleb128 29
 962 013f 07        		.uleb128 0x7
 963 0140 0000 0000 		.long	.LASF40
 964 0144 1E        		.sleb128 30
 965 0145 07        		.uleb128 0x7
GAS LISTING C:\Users\ADMINI~1\AppData\Local\Temp/ccLmO1h6.s 			page 18


 966 0146 0000 0000 		.long	.LASF41
 967 014a 1F        		.sleb128 31
 968 014b 07        		.uleb128 0x7
 969 014c 0000 0000 		.long	.LASF42
 970 0150 20        		.sleb128 32
 971 0151 07        		.uleb128 0x7
 972 0152 0000 0000 		.long	.LASF43
 973 0156 21        		.sleb128 33
 974 0157 07        		.uleb128 0x7
 975 0158 0000 0000 		.long	.LASF44
 976 015c 22        		.sleb128 34
 977 015d 07        		.uleb128 0x7
 978 015e 0000 0000 		.long	.LASF45
 979 0162 23        		.sleb128 35
 980 0163 07        		.uleb128 0x7
 981 0164 0000 0000 		.long	.LASF46
 982 0168 24        		.sleb128 36
 983 0169 07        		.uleb128 0x7
 984 016a 0000 0000 		.long	.LASF47
 985 016e 25        		.sleb128 37
 986 016f 07        		.uleb128 0x7
 987 0170 0000 0000 		.long	.LASF48
 988 0174 26        		.sleb128 38
 989 0175 07        		.uleb128 0x7
 990 0176 0000 0000 		.long	.LASF49
 991 017a 27        		.sleb128 39
 992 017b 07        		.uleb128 0x7
 993 017c 0000 0000 		.long	.LASF50
 994 0180 28        		.sleb128 40
 995 0181 07        		.uleb128 0x7
 996 0182 0000 0000 		.long	.LASF51
 997 0186 29        		.sleb128 41
 998 0187 07        		.uleb128 0x7
 999 0188 0000 0000 		.long	.LASF52
 1000 018c 2A        		.sleb128 42
 1001 018d 07        		.uleb128 0x7
 1002 018e 0000 0000 		.long	.LASF53
 1003 0192 2B        		.sleb128 43
 1004 0193 07        		.uleb128 0x7
 1005 0194 0000 0000 		.long	.LASF54
 1006 0198 2C        		.sleb128 44
 1007 0199 07        		.uleb128 0x7
 1008 019a 0000 0000 		.long	.LASF55
 1009 019e 2D        		.sleb128 45
 1010 019f 07        		.uleb128 0x7
 1011 01a0 0000 0000 		.long	.LASF56
 1012 01a4 2E        		.sleb128 46
 1013 01a5 07        		.uleb128 0x7
 1014 01a6 0000 0000 		.long	.LASF57
 1015 01aa 2F        		.sleb128 47
 1016 01ab 07        		.uleb128 0x7
 1017 01ac 0000 0000 		.long	.LASF58
 1018 01b0 30        		.sleb128 48
 1019 01b1 07        		.uleb128 0x7
 1020 01b2 0000 0000 		.long	.LASF59
 1021 01b6 31        		.sleb128 49
 1022 01b7 07        		.uleb128 0x7
GAS LISTING C:\Users\ADMINI~1\AppData\Local\Temp/ccLmO1h6.s 			page 19


 1023 01b8 0000 0000 		.long	.LASF60
 1024 01bc 32        		.sleb128 50
 1025 01bd 07        		.uleb128 0x7
 1026 01be 0000 0000 		.long	.LASF61
 1027 01c2 33        		.sleb128 51
 1028 01c3 07        		.uleb128 0x7
 1029 01c4 0000 0000 		.long	.LASF62
 1030 01c8 34        		.sleb128 52
 1031 01c9 07        		.uleb128 0x7
 1032 01ca 0000 0000 		.long	.LASF63
 1033 01ce 35        		.sleb128 53
 1034 01cf 07        		.uleb128 0x7
 1035 01d0 0000 0000 		.long	.LASF64
 1036 01d4 36        		.sleb128 54
 1037 01d5 07        		.uleb128 0x7
 1038 01d6 0000 0000 		.long	.LASF65
 1039 01da 37        		.sleb128 55
 1040 01db 07        		.uleb128 0x7
 1041 01dc 0000 0000 		.long	.LASF66
 1042 01e0 38        		.sleb128 56
 1043 01e1 07        		.uleb128 0x7
 1044 01e2 0000 0000 		.long	.LASF67
 1045 01e6 39        		.sleb128 57
 1046 01e7 07        		.uleb128 0x7
 1047 01e8 0000 0000 		.long	.LASF68
 1048 01ec 3A        		.sleb128 58
 1049 01ed 07        		.uleb128 0x7
 1050 01ee 0000 0000 		.long	.LASF69
 1051 01f2 3B        		.sleb128 59
 1052 01f3 07        		.uleb128 0x7
 1053 01f4 0000 0000 		.long	.LASF70
 1054 01f8 3C        		.sleb128 60
 1055 01f9 07        		.uleb128 0x7
 1056 01fa 0000 0000 		.long	.LASF71
 1057 01fe 3D        		.sleb128 61
 1058 01ff 07        		.uleb128 0x7
 1059 0200 0000 0000 		.long	.LASF72
 1060 0204 3E        		.sleb128 62
 1061 0205 07        		.uleb128 0x7
 1062 0206 0000 0000 		.long	.LASF73
 1063 020a 3F        		.sleb128 63
 1064 020b 07        		.uleb128 0x7
 1065 020c 0000 0000 		.long	.LASF74
 1066 0210 C000      		.sleb128 64
 1067 0212 07        		.uleb128 0x7
 1068 0213 0000 0000 		.long	.LASF75
 1069 0217 C100      		.sleb128 65
 1070 0219 07        		.uleb128 0x7
 1071 021a 0000 0000 		.long	.LASF76
 1072 021e C200      		.sleb128 66
 1073 0220 07        		.uleb128 0x7
 1074 0221 0000 0000 		.long	.LASF77
 1075 0225 C300      		.sleb128 67
 1076 0227 07        		.uleb128 0x7
 1077 0228 0000 0000 		.long	.LASF78
 1078 022c C400      		.sleb128 68
 1079 022e 07        		.uleb128 0x7
GAS LISTING C:\Users\ADMINI~1\AppData\Local\Temp/ccLmO1h6.s 			page 20


 1080 022f 0000 0000 		.long	.LASF79
 1081 0233 C500      		.sleb128 69
 1082 0235 07        		.uleb128 0x7
 1083 0236 0000 0000 		.long	.LASF80
 1084 023a C600      		.sleb128 70
 1085 023c 07        		.uleb128 0x7
 1086 023d 0000 0000 		.long	.LASF81
 1087 0241 C700      		.sleb128 71
 1088 0243 07        		.uleb128 0x7
 1089 0244 0000 0000 		.long	.LASF82
 1090 0248 C800      		.sleb128 72
 1091 024a 07        		.uleb128 0x7
 1092 024b 0000 0000 		.long	.LASF83
 1093 024f C900      		.sleb128 73
 1094 0251 07        		.uleb128 0x7
 1095 0252 0000 0000 		.long	.LASF84
 1096 0256 CA00      		.sleb128 74
 1097 0258 07        		.uleb128 0x7
 1098 0259 0000 0000 		.long	.LASF85
 1099 025d CB00      		.sleb128 75
 1100 025f 07        		.uleb128 0x7
 1101 0260 0000 0000 		.long	.LASF86
 1102 0264 CC00      		.sleb128 76
 1103 0266 07        		.uleb128 0x7
 1104 0267 0000 0000 		.long	.LASF87
 1105 026b CD00      		.sleb128 77
 1106 026d 07        		.uleb128 0x7
 1107 026e 0000 0000 		.long	.LASF88
 1108 0272 CE00      		.sleb128 78
 1109 0274 07        		.uleb128 0x7
 1110 0275 0000 0000 		.long	.LASF89
 1111 0279 CF00      		.sleb128 79
 1112 027b 07        		.uleb128 0x7
 1113 027c 0000 0000 		.long	.LASF90
 1114 0280 D000      		.sleb128 80
 1115 0282 07        		.uleb128 0x7
 1116 0283 0000 0000 		.long	.LASF91
 1117 0287 D100      		.sleb128 81
 1118 0289 07        		.uleb128 0x7
 1119 028a 0000 0000 		.long	.LASF92
 1120 028e D200      		.sleb128 82
 1121 0290 07        		.uleb128 0x7
 1122 0291 0000 0000 		.long	.LASF93
 1123 0295 D300      		.sleb128 83
 1124 0297 07        		.uleb128 0x7
 1125 0298 0000 0000 		.long	.LASF94
 1126 029c D400      		.sleb128 84
 1127 029e 07        		.uleb128 0x7
 1128 029f 0000 0000 		.long	.LASF95
 1129 02a3 D500      		.sleb128 85
 1130 02a5 07        		.uleb128 0x7
 1131 02a6 0000 0000 		.long	.LASF96
 1132 02aa D600      		.sleb128 86
 1133 02ac 07        		.uleb128 0x7
 1134 02ad 0000 0000 		.long	.LASF97
 1135 02b1 D700      		.sleb128 87
 1136 02b3 07        		.uleb128 0x7
GAS LISTING C:\Users\ADMINI~1\AppData\Local\Temp/ccLmO1h6.s 			page 21


 1137 02b4 0000 0000 		.long	.LASF98
 1138 02b8 D800      		.sleb128 88
 1139 02ba 07        		.uleb128 0x7
 1140 02bb 0000 0000 		.long	.LASF99
 1141 02bf D900      		.sleb128 89
 1142 02c1 07        		.uleb128 0x7
 1143 02c2 0000 0000 		.long	.LASF100
 1144 02c6 DA00      		.sleb128 90
 1145 02c8 07        		.uleb128 0x7
 1146 02c9 0000 0000 		.long	.LASF101
 1147 02cd DB00      		.sleb128 91
 1148 02cf 07        		.uleb128 0x7
 1149 02d0 0000 0000 		.long	.LASF102
 1150 02d4 DC00      		.sleb128 92
 1151 02d6 07        		.uleb128 0x7
 1152 02d7 0000 0000 		.long	.LASF103
 1153 02db DD00      		.sleb128 93
 1154 02dd 07        		.uleb128 0x7
 1155 02de 0000 0000 		.long	.LASF104
 1156 02e2 DE00      		.sleb128 94
 1157 02e4 07        		.uleb128 0x7
 1158 02e5 0000 0000 		.long	.LASF105
 1159 02e9 DF00      		.sleb128 95
 1160 02eb 07        		.uleb128 0x7
 1161 02ec 0000 0000 		.long	.LASF106
 1162 02f0 E000      		.sleb128 96
 1163 02f2 07        		.uleb128 0x7
 1164 02f3 0000 0000 		.long	.LASF107
 1165 02f7 E100      		.sleb128 97
 1166 02f9 07        		.uleb128 0x7
 1167 02fa 0000 0000 		.long	.LASF108
 1168 02fe E200      		.sleb128 98
 1169 0300 07        		.uleb128 0x7
 1170 0301 0000 0000 		.long	.LASF109
 1171 0305 E300      		.sleb128 99
 1172 0307 07        		.uleb128 0x7
 1173 0308 0000 0000 		.long	.LASF110
 1174 030c E400      		.sleb128 100
 1175 030e 07        		.uleb128 0x7
 1176 030f 0000 0000 		.long	.LASF111
 1177 0313 E500      		.sleb128 101
 1178 0315 07        		.uleb128 0x7
 1179 0316 0000 0000 		.long	.LASF112
 1180 031a E600      		.sleb128 102
 1181 031c 07        		.uleb128 0x7
 1182 031d 0000 0000 		.long	.LASF113
 1183 0321 E700      		.sleb128 103
 1184 0323 07        		.uleb128 0x7
 1185 0324 0000 0000 		.long	.LASF114
 1186 0328 E800      		.sleb128 104
 1187 032a 07        		.uleb128 0x7
 1188 032b 0000 0000 		.long	.LASF115
 1189 032f E900      		.sleb128 105
 1190 0331 07        		.uleb128 0x7
 1191 0332 0000 0000 		.long	.LASF116
 1192 0336 EA00      		.sleb128 106
 1193 0338 07        		.uleb128 0x7
GAS LISTING C:\Users\ADMINI~1\AppData\Local\Temp/ccLmO1h6.s 			page 22


 1194 0339 0000 0000 		.long	.LASF117
 1195 033d EB00      		.sleb128 107
 1196 033f 07        		.uleb128 0x7
 1197 0340 0000 0000 		.long	.LASF118
 1198 0344 EC00      		.sleb128 108
 1199 0346 07        		.uleb128 0x7
 1200 0347 0000 0000 		.long	.LASF119
 1201 034b ED00      		.sleb128 109
 1202 034d 07        		.uleb128 0x7
 1203 034e 0000 0000 		.long	.LASF120
 1204 0352 EE00      		.sleb128 110
 1205 0354 07        		.uleb128 0x7
 1206 0355 0000 0000 		.long	.LASF121
 1207 0359 EF00      		.sleb128 111
 1208 035b 07        		.uleb128 0x7
 1209 035c 0000 0000 		.long	.LASF122
 1210 0360 F000      		.sleb128 112
 1211 0362 07        		.uleb128 0x7
 1212 0363 0000 0000 		.long	.LASF123
 1213 0367 F100      		.sleb128 113
 1214 0369 07        		.uleb128 0x7
 1215 036a 0000 0000 		.long	.LASF124
 1216 036e F200      		.sleb128 114
 1217 0370 07        		.uleb128 0x7
 1218 0371 0000 0000 		.long	.LASF125
 1219 0375 F300      		.sleb128 115
 1220 0377 07        		.uleb128 0x7
 1221 0378 0000 0000 		.long	.LASF126
 1222 037c F400      		.sleb128 116
 1223 037e 07        		.uleb128 0x7
 1224 037f 0000 0000 		.long	.LASF127
 1225 0383 F500      		.sleb128 117
 1226 0385 07        		.uleb128 0x7
 1227 0386 0000 0000 		.long	.LASF128
 1228 038a F600      		.sleb128 118
 1229 038c 07        		.uleb128 0x7
 1230 038d 0000 0000 		.long	.LASF129
 1231 0391 F700      		.sleb128 119
 1232 0393 07        		.uleb128 0x7
 1233 0394 0000 0000 		.long	.LASF130
 1234 0398 F800      		.sleb128 120
 1235 039a 07        		.uleb128 0x7
 1236 039b 0000 0000 		.long	.LASF131
 1237 039f F900      		.sleb128 121
 1238 03a1 07        		.uleb128 0x7
 1239 03a2 0000 0000 		.long	.LASF132
 1240 03a6 FA00      		.sleb128 122
 1241 03a8 07        		.uleb128 0x7
 1242 03a9 0000 0000 		.long	.LASF133
 1243 03ad FB00      		.sleb128 123
 1244 03af 07        		.uleb128 0x7
 1245 03b0 0000 0000 		.long	.LASF134
 1246 03b4 FC00      		.sleb128 124
 1247 03b6 07        		.uleb128 0x7
 1248 03b7 0000 0000 		.long	.LASF135
 1249 03bb FD00      		.sleb128 125
 1250 03bd 07        		.uleb128 0x7
GAS LISTING C:\Users\ADMINI~1\AppData\Local\Temp/ccLmO1h6.s 			page 23


 1251 03be 0000 0000 		.long	.LASF136
 1252 03c2 FE00      		.sleb128 126
 1253 03c4 07        		.uleb128 0x7
 1254 03c5 0000 0000 		.long	.LASF137
 1255 03c9 FF00      		.sleb128 127
 1256 03cb 07        		.uleb128 0x7
 1257 03cc 0000 0000 		.long	.LASF138
 1258 03d0 8001      		.sleb128 128
 1259 03d2 07        		.uleb128 0x7
 1260 03d3 0000 0000 		.long	.LASF139
 1261 03d7 8101      		.sleb128 129
 1262 03d9 07        		.uleb128 0x7
 1263 03da 0000 0000 		.long	.LASF140
 1264 03de 8201      		.sleb128 130
 1265 03e0 07        		.uleb128 0x7
 1266 03e1 0000 0000 		.long	.LASF141
 1267 03e5 8301      		.sleb128 131
 1268 03e7 07        		.uleb128 0x7
 1269 03e8 0000 0000 		.long	.LASF142
 1270 03ec 8401      		.sleb128 132
 1271 03ee 07        		.uleb128 0x7
 1272 03ef 0000 0000 		.long	.LASF143
 1273 03f3 8501      		.sleb128 133
 1274 03f5 07        		.uleb128 0x7
 1275 03f6 0000 0000 		.long	.LASF144
 1276 03fa 8601      		.sleb128 134
 1277 03fc 07        		.uleb128 0x7
 1278 03fd 0000 0000 		.long	.LASF145
 1279 0401 8701      		.sleb128 135
 1280 0403 07        		.uleb128 0x7
 1281 0404 0000 0000 		.long	.LASF146
 1282 0408 8801      		.sleb128 136
 1283 040a 07        		.uleb128 0x7
 1284 040b 0000 0000 		.long	.LASF147
 1285 040f 8901      		.sleb128 137
 1286 0411 07        		.uleb128 0x7
 1287 0412 0000 0000 		.long	.LASF148
 1288 0416 8A01      		.sleb128 138
 1289 0418 07        		.uleb128 0x7
 1290 0419 0000 0000 		.long	.LASF149
 1291 041d 8B01      		.sleb128 139
 1292 041f 07        		.uleb128 0x7
 1293 0420 0000 0000 		.long	.LASF150
 1294 0424 8C01      		.sleb128 140
 1295 0426 07        		.uleb128 0x7
 1296 0427 0000 0000 		.long	.LASF151
 1297 042b 8D01      		.sleb128 141
 1298 042d 07        		.uleb128 0x7
 1299 042e 0000 0000 		.long	.LASF152
 1300 0432 8E01      		.sleb128 142
 1301 0434 07        		.uleb128 0x7
 1302 0435 0000 0000 		.long	.LASF153
 1303 0439 8F01      		.sleb128 143
 1304 043b 07        		.uleb128 0x7
 1305 043c 0000 0000 		.long	.LASF154
 1306 0440 9001      		.sleb128 144
 1307 0442 07        		.uleb128 0x7
GAS LISTING C:\Users\ADMINI~1\AppData\Local\Temp/ccLmO1h6.s 			page 24


 1308 0443 0000 0000 		.long	.LASF155
 1309 0447 9101      		.sleb128 145
 1310 0449 07        		.uleb128 0x7
 1311 044a 0000 0000 		.long	.LASF156
 1312 044e 9201      		.sleb128 146
 1313 0450 07        		.uleb128 0x7
 1314 0451 0000 0000 		.long	.LASF157
 1315 0455 9301      		.sleb128 147
 1316 0457 07        		.uleb128 0x7
 1317 0458 0000 0000 		.long	.LASF158
 1318 045c 9401      		.sleb128 148
 1319 045e 07        		.uleb128 0x7
 1320 045f 0000 0000 		.long	.LASF159
 1321 0463 9501      		.sleb128 149
 1322 0465 07        		.uleb128 0x7
 1323 0466 0000 0000 		.long	.LASF160
 1324 046a 9601      		.sleb128 150
 1325 046c 07        		.uleb128 0x7
 1326 046d 0000 0000 		.long	.LASF161
 1327 0471 9701      		.sleb128 151
 1328 0473 07        		.uleb128 0x7
 1329 0474 0000 0000 		.long	.LASF162
 1330 0478 9801      		.sleb128 152
 1331 047a 07        		.uleb128 0x7
 1332 047b 0000 0000 		.long	.LASF163
 1333 047f 9901      		.sleb128 153
 1334 0481 07        		.uleb128 0x7
 1335 0482 0000 0000 		.long	.LASF164
 1336 0486 9A01      		.sleb128 154
 1337 0488 07        		.uleb128 0x7
 1338 0489 0000 0000 		.long	.LASF165
 1339 048d 9B01      		.sleb128 155
 1340 048f 07        		.uleb128 0x7
 1341 0490 0000 0000 		.long	.LASF166
 1342 0494 9C01      		.sleb128 156
 1343 0496 07        		.uleb128 0x7
 1344 0497 0000 0000 		.long	.LASF167
 1345 049b 9D01      		.sleb128 157
 1346 049d 07        		.uleb128 0x7
 1347 049e 0000 0000 		.long	.LASF168
 1348 04a2 9E01      		.sleb128 158
 1349 04a4 07        		.uleb128 0x7
 1350 04a5 0000 0000 		.long	.LASF169
 1351 04a9 9F01      		.sleb128 159
 1352 04ab 07        		.uleb128 0x7
 1353 04ac 0000 0000 		.long	.LASF170
 1354 04b0 A001      		.sleb128 160
 1355 04b2 07        		.uleb128 0x7
 1356 04b3 0000 0000 		.long	.LASF171
 1357 04b7 A101      		.sleb128 161
 1358 04b9 07        		.uleb128 0x7
 1359 04ba 0000 0000 		.long	.LASF172
 1360 04be A201      		.sleb128 162
 1361 04c0 07        		.uleb128 0x7
 1362 04c1 0000 0000 		.long	.LASF173
 1363 04c5 A301      		.sleb128 163
 1364 04c7 07        		.uleb128 0x7
GAS LISTING C:\Users\ADMINI~1\AppData\Local\Temp/ccLmO1h6.s 			page 25


 1365 04c8 0000 0000 		.long	.LASF174
 1366 04cc A401      		.sleb128 164
 1367 04ce 07        		.uleb128 0x7
 1368 04cf 0000 0000 		.long	.LASF175
 1369 04d3 A501      		.sleb128 165
 1370 04d5 07        		.uleb128 0x7
 1371 04d6 0000 0000 		.long	.LASF176
 1372 04da A601      		.sleb128 166
 1373 04dc 07        		.uleb128 0x7
 1374 04dd 0000 0000 		.long	.LASF177
 1375 04e1 A701      		.sleb128 167
 1376 04e3 07        		.uleb128 0x7
 1377 04e4 0000 0000 		.long	.LASF178
 1378 04e8 A801      		.sleb128 168
 1379 04ea 07        		.uleb128 0x7
 1380 04eb 0000 0000 		.long	.LASF179
 1381 04ef A901      		.sleb128 169
 1382 04f1 07        		.uleb128 0x7
 1383 04f2 0000 0000 		.long	.LASF180
 1384 04f6 AA01      		.sleb128 170
 1385 04f8 07        		.uleb128 0x7
 1386 04f9 0000 0000 		.long	.LASF181
 1387 04fd AB01      		.sleb128 171
 1388 04ff 07        		.uleb128 0x7
 1389 0500 0000 0000 		.long	.LASF182
 1390 0504 AC01      		.sleb128 172
 1391 0506 07        		.uleb128 0x7
 1392 0507 0000 0000 		.long	.LASF183
 1393 050b AD01      		.sleb128 173
 1394 050d 07        		.uleb128 0x7
 1395 050e 0000 0000 		.long	.LASF184
 1396 0512 AE01      		.sleb128 174
 1397 0514 07        		.uleb128 0x7
 1398 0515 0000 0000 		.long	.LASF185
 1399 0519 AF01      		.sleb128 175
 1400 051b 00        		.byte	0x0
 1401 051c 08        		.uleb128 0x8
 1402 051d 02        		.byte	0x2
 1403 051e 02        		.byte	0x2
 1404 051f 0F        		.byte	0xf
 1405 0520 4105 0000 		.long	0x541
 1406 0524 09        		.uleb128 0x9
 1407 0525 0000 0000 		.long	.LASF186
 1408 0529 02        		.byte	0x2
 1409 052a 10        		.byte	0x10
 1410 052b 4100 0000 		.long	0x41
 1411 052f 02        		.byte	0x2
 1412 0530 23        		.byte	0x23
 1413 0531 00        		.uleb128 0x0
 1414 0532 09        		.uleb128 0x9
 1415 0533 0000 0000 		.long	.LASF187
 1416 0537 02        		.byte	0x2
 1417 0538 11        		.byte	0x11
 1418 0539 4100 0000 		.long	0x41
 1419 053d 02        		.byte	0x2
 1420 053e 23        		.byte	0x23
 1421 053f 01        		.uleb128 0x1
GAS LISTING C:\Users\ADMINI~1\AppData\Local\Temp/ccLmO1h6.s 			page 26


 1422 0540 00        		.byte	0x0
 1423 0541 0A        		.uleb128 0xa
 1424 0542 4B65 7900 		.string	"Key"
 1425 0546 02        		.byte	0x2
 1426 0547 12        		.byte	0x12
 1427 0548 1C05 0000 		.long	0x51c
 1428 054c 0B        		.uleb128 0xb
 1429 054d 01        		.byte	0x1
 1430 054e 0000 0000 		.long	.LASF212
 1431 0552 01        		.byte	0x1
 1432 0553 47        		.byte	0x47
 1433 0554 01        		.byte	0x1
 1434 0555 4100 0000 		.long	0x41
 1435 0559 01        		.byte	0x1
 1436 055a 0C        		.uleb128 0xc
 1437 055b 01        		.byte	0x1
 1438 055c 0000 0000 		.long	.LASF191
 1439 0560 01        		.byte	0x1
 1440 0561 13        		.byte	0x13
 1441 0562 01        		.byte	0x1
 1442 0563 0000 0000 		.long	.LFB3
 1443 0567 0000 0000 		.long	.LFE3
 1444 056b 02        		.byte	0x2
 1445 056c 90        		.byte	0x90
 1446 056d 20        		.uleb128 0x20
 1447 056e 8205 0000 		.long	0x582
 1448 0572 0D        		.uleb128 0xd
 1449 0573 0000 0000 		.long	.LASF193
 1450 0577 01        		.byte	0x1
 1451 0578 13        		.byte	0x13
 1452 0579 4100 0000 		.long	0x41
 1453 057d 0000 0000 		.long	.LLST1
 1454 0581 00        		.byte	0x0
 1455 0582 0E        		.uleb128 0xe
 1456 0583 01        		.byte	0x1
 1457 0584 0000 0000 		.long	.LASF189
 1458 0588 01        		.byte	0x1
 1459 0589 1D        		.byte	0x1d
 1460 058a 01        		.byte	0x1
 1461 058b 4100 0000 		.long	0x41
 1462 058f 0000 0000 		.long	.LFB4
 1463 0593 0000 0000 		.long	.LFE4
 1464 0597 02        		.byte	0x2
 1465 0598 90        		.byte	0x90
 1466 0599 20        		.uleb128 0x20
 1467 059a 0F        		.uleb128 0xf
 1468 059b 4C05 0000 		.long	0x54c
 1469 059f 0000 0000 		.long	.LFB6
 1470 05a3 0000 0000 		.long	.LFE6
 1471 05a7 02        		.byte	0x2
 1472 05a8 90        		.byte	0x90
 1473 05a9 20        		.uleb128 0x20
 1474 05aa 0E        		.uleb128 0xe
 1475 05ab 01        		.byte	0x1
 1476 05ac 0000 0000 		.long	.LASF190
 1477 05b0 01        		.byte	0x1
 1478 05b1 5F        		.byte	0x5f
GAS LISTING C:\Users\ADMINI~1\AppData\Local\Temp/ccLmO1h6.s 			page 27


 1479 05b2 01        		.byte	0x1
 1480 05b3 4100 0000 		.long	0x41
 1481 05b7 0000 0000 		.long	.LFB8
 1482 05bb 0000 0000 		.long	.LFE8
 1483 05bf 02        		.byte	0x2
 1484 05c0 90        		.byte	0x90
 1485 05c1 20        		.uleb128 0x20
 1486 05c2 0C        		.uleb128 0xc
 1487 05c3 01        		.byte	0x1
 1488 05c4 0000 0000 		.long	.LASF192
 1489 05c8 01        		.byte	0x1
 1490 05c9 63        		.byte	0x63
 1491 05ca 01        		.byte	0x1
 1492 05cb 0000 0000 		.long	.LFB9
 1493 05cf 0000 0000 		.long	.LFE9
 1494 05d3 02        		.byte	0x2
 1495 05d4 90        		.byte	0x90
 1496 05d5 20        		.uleb128 0x20
 1497 05d6 E805 0000 		.long	0x5e8
 1498 05da 10        		.uleb128 0x10
 1499 05db 0000 0000 		.long	.LASF194
 1500 05df 01        		.byte	0x1
 1501 05e0 62        		.byte	0x62
 1502 05e1 4100 0000 		.long	0x41
 1503 05e5 01        		.byte	0x1
 1504 05e6 68        		.byte	0x68
 1505 05e7 00        		.byte	0x0
 1506 05e8 11        		.uleb128 0x11
 1507 05e9 01        		.byte	0x1
 1508 05ea 0000 0000 		.long	.LASF196
 1509 05ee 01        		.byte	0x1
 1510 05ef 77        		.byte	0x77
 1511 05f0 01        		.byte	0x1
 1512 05f1 4105 0000 		.long	0x541
 1513 05f5 0000 0000 		.long	.LFB11
 1514 05f9 0000 0000 		.long	.LFE11
 1515 05fd 02        		.byte	0x2
 1516 05fe 90        		.byte	0x90
 1517 05ff 20        		.uleb128 0x20
 1518 0600 1F06 0000 		.long	0x61f
 1519 0604 0D        		.uleb128 0xd
 1520 0605 0000 0000 		.long	.LASF195
 1521 0609 01        		.byte	0x1
 1522 060a 77        		.byte	0x77
 1523 060b 7C00 0000 		.long	0x7c
 1524 060f 0000 0000 		.long	.LLST7
 1525 0613 12        		.uleb128 0x12
 1526 0614 6B65 7900 		.string	"key"
 1527 0618 01        		.byte	0x1
 1528 0619 78        		.byte	0x78
 1529 061a 4105 0000 		.long	0x541
 1530 061e 00        		.byte	0x0
 1531 061f 11        		.uleb128 0x11
 1532 0620 01        		.byte	0x1
 1533 0621 0000 0000 		.long	.LASF197
 1534 0625 01        		.byte	0x1
 1535 0626 69        		.byte	0x69
GAS LISTING C:\Users\ADMINI~1\AppData\Local\Temp/ccLmO1h6.s 			page 28


 1536 0627 01        		.byte	0x1
 1537 0628 5C06 0000 		.long	0x65c
 1538 062c 0000 0000 		.long	.LFB10
 1539 0630 0000 0000 		.long	.LFE10
 1540 0634 02        		.byte	0x2
 1541 0635 90        		.byte	0x90
 1542 0636 20        		.uleb128 0x20
 1543 0637 5C06 0000 		.long	0x65c
 1544 063b 0D        		.uleb128 0xd
 1545 063c 0000 0000 		.long	.LASF198
 1546 0640 01        		.byte	0x1
 1547 0641 68        		.byte	0x68
 1548 0642 4100 0000 		.long	0x41
 1549 0646 0000 0000 		.long	.LLST9
 1550 064a 13        		.uleb128 0x13
 1551 064b 0000 0000 		.long	.LASF202
 1552 064f 01        		.byte	0x1
 1553 0650 6A        		.byte	0x6a
 1554 0651 D106 0000 		.long	0x6d1
 1555 0655 05        		.byte	0x5
 1556 0656 03        		.byte	0x3
 1557 0657 0000 0000 		.long	gStr.2111
 1558 065b 00        		.byte	0x0
 1559 065c 14        		.uleb128 0x14
 1560 065d 02        		.byte	0x2
 1561 065e 6206 0000 		.long	0x662
 1562 0662 15        		.uleb128 0x15
 1563 0663 7C00 0000 		.long	0x7c
 1564 0667 0C        		.uleb128 0xc
 1565 0668 01        		.byte	0x1
 1566 0669 0000 0000 		.long	.LASF199
 1567 066d 01        		.byte	0x1
 1568 066e 58        		.byte	0x58
 1569 066f 01        		.byte	0x1
 1570 0670 0000 0000 		.long	.LFB7
 1571 0674 0000 0000 		.long	.LFE7
 1572 0678 02        		.byte	0x2
 1573 0679 90        		.byte	0x90
 1574 067a 20        		.uleb128 0x20
 1575 067b 8F06 0000 		.long	0x68f
 1576 067f 16        		.uleb128 0x16
 1577 0680 4C05 0000 		.long	0x54c
 1578 0684 0000 0000 		.long	.LBB6
 1579 0688 0000 0000 		.long	.LBE6
 1580 068c 01        		.byte	0x1
 1581 068d 59        		.byte	0x59
 1582 068e 00        		.byte	0x0
 1583 068f 11        		.uleb128 0x11
 1584 0690 01        		.byte	0x1
 1585 0691 0000 0000 		.long	.LASF200
 1586 0695 01        		.byte	0x1
 1587 0696 27        		.byte	0x27
 1588 0697 01        		.byte	0x1
 1589 0698 4105 0000 		.long	0x541
 1590 069c 0000 0000 		.long	.LFB5
 1591 06a0 0000 0000 		.long	.LFE5
 1592 06a4 02        		.byte	0x2
GAS LISTING C:\Users\ADMINI~1\AppData\Local\Temp/ccLmO1h6.s 			page 29


 1593 06a5 90        		.byte	0x90
 1594 06a6 20        		.uleb128 0x20
 1595 06a7 D106 0000 		.long	0x6d1
 1596 06ab 17        		.uleb128 0x17
 1597 06ac 0000 0000 		.long	.LASF201
 1598 06b0 01        		.byte	0x1
 1599 06b1 28        		.byte	0x28
 1600 06b2 4105 0000 		.long	0x541
 1601 06b6 18        		.uleb128 0x18
 1602 06b7 0000 0000 		.long	.LASF203
 1603 06bb 01        		.byte	0x1
 1604 06bc 29        		.byte	0x29
 1605 06bd 2C00 0000 		.long	0x2c
 1606 06c1 0000 0000 		.long	.LLST12
 1607 06c5 17        		.uleb128 0x17
 1608 06c6 0000 0000 		.long	.LASF204
 1609 06ca 01        		.byte	0x1
 1610 06cb 2A        		.byte	0x2a
 1611 06cc 2C00 0000 		.long	0x2c
 1612 06d0 00        		.byte	0x0
 1613 06d1 19        		.uleb128 0x19
 1614 06d2 7C00 0000 		.long	0x7c
 1615 06d6 E106 0000 		.long	0x6e1
 1616 06da 1A        		.uleb128 0x1a
 1617 06db E106 0000 		.long	0x6e1
 1618 06df 02        		.byte	0x2
 1619 06e0 00        		.byte	0x0
 1620 06e1 05        		.uleb128 0x5
 1621 06e2 02        		.byte	0x2
 1622 06e3 07        		.byte	0x7
 1623 06e4 13        		.uleb128 0x13
 1624 06e5 0000 0000 		.long	.LASF205
 1625 06e9 01        		.byte	0x1
 1626 06ea 0C        		.byte	0xc
 1627 06eb 4100 0000 		.long	0x41
 1628 06ef 05        		.byte	0x5
 1629 06f0 03        		.byte	0x3
 1630 06f1 0000 0000 		.long	_isMacroProcessEnd
 1631 06f5 19        		.uleb128 0x19
 1632 06f6 4100 0000 		.long	0x41
 1633 06fa 0507 0000 		.long	0x705
 1634 06fe 1A        		.uleb128 0x1a
 1635 06ff E106 0000 		.long	0x6e1
 1636 0703 FF        		.byte	0xff
 1637 0704 00        		.byte	0x0
 1638 0705 13        		.uleb128 0x13
 1639 0706 0000 0000 		.long	.LASF206
 1640 070a 01        		.byte	0x1
 1641 070b 0D        		.byte	0xd
 1642 070c F506 0000 		.long	0x6f5
 1643 0710 05        		.byte	0x5
 1644 0711 03        		.byte	0x3
 1645 0712 0000 0000 		.long	QUEUE_M
 1646 0716 13        		.uleb128 0x13
 1647 0717 0000 0000 		.long	.LASF207
 1648 071b 01        		.byte	0x1
 1649 071c 0E        		.byte	0xe
GAS LISTING C:\Users\ADMINI~1\AppData\Local\Temp/ccLmO1h6.s 			page 30


 1650 071d 2C00 0000 		.long	0x2c
 1651 0721 05        		.byte	0x5
 1652 0722 03        		.byte	0x3
 1653 0723 0000 0000 		.long	rearm
 1654 0727 13        		.uleb128 0x13
 1655 0728 0000 0000 		.long	.LASF208
 1656 072c 01        		.byte	0x1
 1657 072d 0E        		.byte	0xe
 1658 072e 2C00 0000 		.long	0x2c
 1659 0732 05        		.byte	0x5
 1660 0733 03        		.byte	0x3
 1661 0734 0000 0000 		.long	frontm
 1662 0738 19        		.uleb128 0x19
 1663 0739 4100 0000 		.long	0x41
 1664 073d 4807 0000 		.long	0x748
 1665 0741 1A        		.uleb128 0x1a
 1666 0742 E106 0000 		.long	0x6e1
 1667 0746 2F        		.byte	0x2f
 1668 0747 00        		.byte	0x0
 1669 0748 1B        		.uleb128 0x1b
 1670 0749 0000 0000 		.long	.LASF213
 1671 074d 01        		.byte	0x1
 1672 074e 10        		.byte	0x10
 1673 074f 3807 0000 		.long	0x738
 1674 0753 01        		.byte	0x1
 1675 0754 05        		.byte	0x5
 1676 0755 03        		.byte	0x3
 1677 0756 0000 0000 		.long	_pressedBuffer
 1678 075a 00        		.byte	0x0
 1679               		.section	.debug_abbrev
 1680 0000 01        		.uleb128 0x1
 1681 0001 11        		.uleb128 0x11
 1682 0002 01        		.byte	0x1
 1683 0003 25        		.uleb128 0x25
 1684 0004 0E        		.uleb128 0xe
 1685 0005 13        		.uleb128 0x13
 1686 0006 0B        		.uleb128 0xb
 1687 0007 03        		.uleb128 0x3
 1688 0008 0E        		.uleb128 0xe
 1689 0009 1B        		.uleb128 0x1b
 1690 000a 0E        		.uleb128 0xe
 1691 000b 11        		.uleb128 0x11
 1692 000c 01        		.uleb128 0x1
 1693 000d 12        		.uleb128 0x12
 1694 000e 01        		.uleb128 0x1
 1695 000f 10        		.uleb128 0x10
 1696 0010 06        		.uleb128 0x6
 1697 0011 00        		.byte	0x0
 1698 0012 00        		.byte	0x0
 1699 0013 02        		.uleb128 0x2
 1700 0014 24        		.uleb128 0x24
 1701 0015 00        		.byte	0x0
 1702 0016 0B        		.uleb128 0xb
 1703 0017 0B        		.uleb128 0xb
 1704 0018 3E        		.uleb128 0x3e
 1705 0019 0B        		.uleb128 0xb
 1706 001a 03        		.uleb128 0x3
GAS LISTING C:\Users\ADMINI~1\AppData\Local\Temp/ccLmO1h6.s 			page 31


 1707 001b 0E        		.uleb128 0xe
 1708 001c 00        		.byte	0x0
 1709 001d 00        		.byte	0x0
 1710 001e 03        		.uleb128 0x3
 1711 001f 24        		.uleb128 0x24
 1712 0020 00        		.byte	0x0
 1713 0021 0B        		.uleb128 0xb
 1714 0022 0B        		.uleb128 0xb
 1715 0023 3E        		.uleb128 0x3e
 1716 0024 0B        		.uleb128 0xb
 1717 0025 03        		.uleb128 0x3
 1718 0026 08        		.uleb128 0x8
 1719 0027 00        		.byte	0x0
 1720 0028 00        		.byte	0x0
 1721 0029 04        		.uleb128 0x4
 1722 002a 16        		.uleb128 0x16
 1723 002b 00        		.byte	0x0
 1724 002c 03        		.uleb128 0x3
 1725 002d 0E        		.uleb128 0xe
 1726 002e 3A        		.uleb128 0x3a
 1727 002f 0B        		.uleb128 0xb
 1728 0030 3B        		.uleb128 0x3b
 1729 0031 0B        		.uleb128 0xb
 1730 0032 49        		.uleb128 0x49
 1731 0033 13        		.uleb128 0x13
 1732 0034 00        		.byte	0x0
 1733 0035 00        		.byte	0x0
 1734 0036 05        		.uleb128 0x5
 1735 0037 24        		.uleb128 0x24
 1736 0038 00        		.byte	0x0
 1737 0039 0B        		.uleb128 0xb
 1738 003a 0B        		.uleb128 0xb
 1739 003b 3E        		.uleb128 0x3e
 1740 003c 0B        		.uleb128 0xb
 1741 003d 00        		.byte	0x0
 1742 003e 00        		.byte	0x0
 1743 003f 06        		.uleb128 0x6
 1744 0040 04        		.uleb128 0x4
 1745 0041 01        		.byte	0x1
 1746 0042 0B        		.uleb128 0xb
 1747 0043 0B        		.uleb128 0xb
 1748 0044 3A        		.uleb128 0x3a
 1749 0045 0B        		.uleb128 0xb
 1750 0046 3B        		.uleb128 0x3b
 1751 0047 0B        		.uleb128 0xb
 1752 0048 01        		.uleb128 0x1
 1753 0049 13        		.uleb128 0x13
 1754 004a 00        		.byte	0x0
 1755 004b 00        		.byte	0x0
 1756 004c 07        		.uleb128 0x7
 1757 004d 28        		.uleb128 0x28
 1758 004e 00        		.byte	0x0
 1759 004f 03        		.uleb128 0x3
 1760 0050 0E        		.uleb128 0xe
 1761 0051 1C        		.uleb128 0x1c
 1762 0052 0D        		.uleb128 0xd
 1763 0053 00        		.byte	0x0
GAS LISTING C:\Users\ADMINI~1\AppData\Local\Temp/ccLmO1h6.s 			page 32


 1764 0054 00        		.byte	0x0
 1765 0055 08        		.uleb128 0x8
 1766 0056 13        		.uleb128 0x13
 1767 0057 01        		.byte	0x1
 1768 0058 0B        		.uleb128 0xb
 1769 0059 0B        		.uleb128 0xb
 1770 005a 3A        		.uleb128 0x3a
 1771 005b 0B        		.uleb128 0xb
 1772 005c 3B        		.uleb128 0x3b
 1773 005d 0B        		.uleb128 0xb
 1774 005e 01        		.uleb128 0x1
 1775 005f 13        		.uleb128 0x13
 1776 0060 00        		.byte	0x0
 1777 0061 00        		.byte	0x0
 1778 0062 09        		.uleb128 0x9
 1779 0063 0D        		.uleb128 0xd
 1780 0064 00        		.byte	0x0
 1781 0065 03        		.uleb128 0x3
 1782 0066 0E        		.uleb128 0xe
 1783 0067 3A        		.uleb128 0x3a
 1784 0068 0B        		.uleb128 0xb
 1785 0069 3B        		.uleb128 0x3b
 1786 006a 0B        		.uleb128 0xb
 1787 006b 49        		.uleb128 0x49
 1788 006c 13        		.uleb128 0x13
 1789 006d 38        		.uleb128 0x38
 1790 006e 0A        		.uleb128 0xa
 1791 006f 00        		.byte	0x0
 1792 0070 00        		.byte	0x0
 1793 0071 0A        		.uleb128 0xa
 1794 0072 16        		.uleb128 0x16
 1795 0073 00        		.byte	0x0
 1796 0074 03        		.uleb128 0x3
 1797 0075 08        		.uleb128 0x8
 1798 0076 3A        		.uleb128 0x3a
 1799 0077 0B        		.uleb128 0xb
 1800 0078 3B        		.uleb128 0x3b
 1801 0079 0B        		.uleb128 0xb
 1802 007a 49        		.uleb128 0x49
 1803 007b 13        		.uleb128 0x13
 1804 007c 00        		.byte	0x0
 1805 007d 00        		.byte	0x0
 1806 007e 0B        		.uleb128 0xb
 1807 007f 2E        		.uleb128 0x2e
 1808 0080 00        		.byte	0x0
 1809 0081 3F        		.uleb128 0x3f
 1810 0082 0C        		.uleb128 0xc
 1811 0083 03        		.uleb128 0x3
 1812 0084 0E        		.uleb128 0xe
 1813 0085 3A        		.uleb128 0x3a
 1814 0086 0B        		.uleb128 0xb
 1815 0087 3B        		.uleb128 0x3b
 1816 0088 0B        		.uleb128 0xb
 1817 0089 27        		.uleb128 0x27
 1818 008a 0C        		.uleb128 0xc
 1819 008b 49        		.uleb128 0x49
 1820 008c 13        		.uleb128 0x13
GAS LISTING C:\Users\ADMINI~1\AppData\Local\Temp/ccLmO1h6.s 			page 33


 1821 008d 20        		.uleb128 0x20
 1822 008e 0B        		.uleb128 0xb
 1823 008f 00        		.byte	0x0
 1824 0090 00        		.byte	0x0
 1825 0091 0C        		.uleb128 0xc
 1826 0092 2E        		.uleb128 0x2e
 1827 0093 01        		.byte	0x1
 1828 0094 3F        		.uleb128 0x3f
 1829 0095 0C        		.uleb128 0xc
 1830 0096 03        		.uleb128 0x3
 1831 0097 0E        		.uleb128 0xe
 1832 0098 3A        		.uleb128 0x3a
 1833 0099 0B        		.uleb128 0xb
 1834 009a 3B        		.uleb128 0x3b
 1835 009b 0B        		.uleb128 0xb
 1836 009c 27        		.uleb128 0x27
 1837 009d 0C        		.uleb128 0xc
 1838 009e 11        		.uleb128 0x11
 1839 009f 01        		.uleb128 0x1
 1840 00a0 12        		.uleb128 0x12
 1841 00a1 01        		.uleb128 0x1
 1842 00a2 40        		.uleb128 0x40
 1843 00a3 0A        		.uleb128 0xa
 1844 00a4 01        		.uleb128 0x1
 1845 00a5 13        		.uleb128 0x13
 1846 00a6 00        		.byte	0x0
 1847 00a7 00        		.byte	0x0
 1848 00a8 0D        		.uleb128 0xd
 1849 00a9 05        		.uleb128 0x5
 1850 00aa 00        		.byte	0x0
 1851 00ab 03        		.uleb128 0x3
 1852 00ac 0E        		.uleb128 0xe
 1853 00ad 3A        		.uleb128 0x3a
 1854 00ae 0B        		.uleb128 0xb
 1855 00af 3B        		.uleb128 0x3b
 1856 00b0 0B        		.uleb128 0xb
 1857 00b1 49        		.uleb128 0x49
 1858 00b2 13        		.uleb128 0x13
 1859 00b3 02        		.uleb128 0x2
 1860 00b4 06        		.uleb128 0x6
 1861 00b5 00        		.byte	0x0
 1862 00b6 00        		.byte	0x0
 1863 00b7 0E        		.uleb128 0xe
 1864 00b8 2E        		.uleb128 0x2e
 1865 00b9 00        		.byte	0x0
 1866 00ba 3F        		.uleb128 0x3f
 1867 00bb 0C        		.uleb128 0xc
 1868 00bc 03        		.uleb128 0x3
 1869 00bd 0E        		.uleb128 0xe
 1870 00be 3A        		.uleb128 0x3a
 1871 00bf 0B        		.uleb128 0xb
 1872 00c0 3B        		.uleb128 0x3b
 1873 00c1 0B        		.uleb128 0xb
 1874 00c2 27        		.uleb128 0x27
 1875 00c3 0C        		.uleb128 0xc
 1876 00c4 49        		.uleb128 0x49
 1877 00c5 13        		.uleb128 0x13
GAS LISTING C:\Users\ADMINI~1\AppData\Local\Temp/ccLmO1h6.s 			page 34


 1878 00c6 11        		.uleb128 0x11
 1879 00c7 01        		.uleb128 0x1
 1880 00c8 12        		.uleb128 0x12
 1881 00c9 01        		.uleb128 0x1
 1882 00ca 40        		.uleb128 0x40
 1883 00cb 0A        		.uleb128 0xa
 1884 00cc 00        		.byte	0x0
 1885 00cd 00        		.byte	0x0
 1886 00ce 0F        		.uleb128 0xf
 1887 00cf 2E        		.uleb128 0x2e
 1888 00d0 00        		.byte	0x0
 1889 00d1 31        		.uleb128 0x31
 1890 00d2 13        		.uleb128 0x13
 1891 00d3 11        		.uleb128 0x11
 1892 00d4 01        		.uleb128 0x1
 1893 00d5 12        		.uleb128 0x12
 1894 00d6 01        		.uleb128 0x1
 1895 00d7 40        		.uleb128 0x40
 1896 00d8 0A        		.uleb128 0xa
 1897 00d9 00        		.byte	0x0
 1898 00da 00        		.byte	0x0
 1899 00db 10        		.uleb128 0x10
 1900 00dc 05        		.uleb128 0x5
 1901 00dd 00        		.byte	0x0
 1902 00de 03        		.uleb128 0x3
 1903 00df 0E        		.uleb128 0xe
 1904 00e0 3A        		.uleb128 0x3a
 1905 00e1 0B        		.uleb128 0xb
 1906 00e2 3B        		.uleb128 0x3b
 1907 00e3 0B        		.uleb128 0xb
 1908 00e4 49        		.uleb128 0x49
 1909 00e5 13        		.uleb128 0x13
 1910 00e6 02        		.uleb128 0x2
 1911 00e7 0A        		.uleb128 0xa
 1912 00e8 00        		.byte	0x0
 1913 00e9 00        		.byte	0x0
 1914 00ea 11        		.uleb128 0x11
 1915 00eb 2E        		.uleb128 0x2e
 1916 00ec 01        		.byte	0x1
 1917 00ed 3F        		.uleb128 0x3f
 1918 00ee 0C        		.uleb128 0xc
 1919 00ef 03        		.uleb128 0x3
 1920 00f0 0E        		.uleb128 0xe
 1921 00f1 3A        		.uleb128 0x3a
 1922 00f2 0B        		.uleb128 0xb
 1923 00f3 3B        		.uleb128 0x3b
 1924 00f4 0B        		.uleb128 0xb
 1925 00f5 27        		.uleb128 0x27
 1926 00f6 0C        		.uleb128 0xc
 1927 00f7 49        		.uleb128 0x49
 1928 00f8 13        		.uleb128 0x13
 1929 00f9 11        		.uleb128 0x11
 1930 00fa 01        		.uleb128 0x1
 1931 00fb 12        		.uleb128 0x12
 1932 00fc 01        		.uleb128 0x1
 1933 00fd 40        		.uleb128 0x40
 1934 00fe 0A        		.uleb128 0xa
GAS LISTING C:\Users\ADMINI~1\AppData\Local\Temp/ccLmO1h6.s 			page 35


 1935 00ff 01        		.uleb128 0x1
 1936 0100 13        		.uleb128 0x13
 1937 0101 00        		.byte	0x0
 1938 0102 00        		.byte	0x0
 1939 0103 12        		.uleb128 0x12
 1940 0104 34        		.uleb128 0x34
 1941 0105 00        		.byte	0x0
 1942 0106 03        		.uleb128 0x3
 1943 0107 08        		.uleb128 0x8
 1944 0108 3A        		.uleb128 0x3a
 1945 0109 0B        		.uleb128 0xb
 1946 010a 3B        		.uleb128 0x3b
 1947 010b 0B        		.uleb128 0xb
 1948 010c 49        		.uleb128 0x49
 1949 010d 13        		.uleb128 0x13
 1950 010e 00        		.byte	0x0
 1951 010f 00        		.byte	0x0
 1952 0110 13        		.uleb128 0x13
 1953 0111 34        		.uleb128 0x34
 1954 0112 00        		.byte	0x0
 1955 0113 03        		.uleb128 0x3
 1956 0114 0E        		.uleb128 0xe
 1957 0115 3A        		.uleb128 0x3a
 1958 0116 0B        		.uleb128 0xb
 1959 0117 3B        		.uleb128 0x3b
 1960 0118 0B        		.uleb128 0xb
 1961 0119 49        		.uleb128 0x49
 1962 011a 13        		.uleb128 0x13
 1963 011b 02        		.uleb128 0x2
 1964 011c 0A        		.uleb128 0xa
 1965 011d 00        		.byte	0x0
 1966 011e 00        		.byte	0x0
 1967 011f 14        		.uleb128 0x14
 1968 0120 0F        		.uleb128 0xf
 1969 0121 00        		.byte	0x0
 1970 0122 0B        		.uleb128 0xb
 1971 0123 0B        		.uleb128 0xb
 1972 0124 49        		.uleb128 0x49
 1973 0125 13        		.uleb128 0x13
 1974 0126 00        		.byte	0x0
 1975 0127 00        		.byte	0x0
 1976 0128 15        		.uleb128 0x15
 1977 0129 26        		.uleb128 0x26
 1978 012a 00        		.byte	0x0
 1979 012b 49        		.uleb128 0x49
 1980 012c 13        		.uleb128 0x13
 1981 012d 00        		.byte	0x0
 1982 012e 00        		.byte	0x0
 1983 012f 16        		.uleb128 0x16
 1984 0130 1D        		.uleb128 0x1d
 1985 0131 00        		.byte	0x0
 1986 0132 31        		.uleb128 0x31
 1987 0133 13        		.uleb128 0x13
 1988 0134 11        		.uleb128 0x11
 1989 0135 01        		.uleb128 0x1
 1990 0136 12        		.uleb128 0x12
 1991 0137 01        		.uleb128 0x1
GAS LISTING C:\Users\ADMINI~1\AppData\Local\Temp/ccLmO1h6.s 			page 36


 1992 0138 58        		.uleb128 0x58
 1993 0139 0B        		.uleb128 0xb
 1994 013a 59        		.uleb128 0x59
 1995 013b 0B        		.uleb128 0xb
 1996 013c 00        		.byte	0x0
 1997 013d 00        		.byte	0x0
 1998 013e 17        		.uleb128 0x17
 1999 013f 34        		.uleb128 0x34
 2000 0140 00        		.byte	0x0
 2001 0141 03        		.uleb128 0x3
 2002 0142 0E        		.uleb128 0xe
 2003 0143 3A        		.uleb128 0x3a
 2004 0144 0B        		.uleb128 0xb
 2005 0145 3B        		.uleb128 0x3b
 2006 0146 0B        		.uleb128 0xb
 2007 0147 49        		.uleb128 0x49
 2008 0148 13        		.uleb128 0x13
 2009 0149 00        		.byte	0x0
 2010 014a 00        		.byte	0x0
 2011 014b 18        		.uleb128 0x18
 2012 014c 34        		.uleb128 0x34
 2013 014d 00        		.byte	0x0
 2014 014e 03        		.uleb128 0x3
 2015 014f 0E        		.uleb128 0xe
 2016 0150 3A        		.uleb128 0x3a
 2017 0151 0B        		.uleb128 0xb
 2018 0152 3B        		.uleb128 0x3b
 2019 0153 0B        		.uleb128 0xb
 2020 0154 49        		.uleb128 0x49
 2021 0155 13        		.uleb128 0x13
 2022 0156 02        		.uleb128 0x2
 2023 0157 06        		.uleb128 0x6
 2024 0158 00        		.byte	0x0
 2025 0159 00        		.byte	0x0
 2026 015a 19        		.uleb128 0x19
 2027 015b 01        		.uleb128 0x1
 2028 015c 01        		.byte	0x1
 2029 015d 49        		.uleb128 0x49
 2030 015e 13        		.uleb128 0x13
 2031 015f 01        		.uleb128 0x1
 2032 0160 13        		.uleb128 0x13
 2033 0161 00        		.byte	0x0
 2034 0162 00        		.byte	0x0
 2035 0163 1A        		.uleb128 0x1a
 2036 0164 21        		.uleb128 0x21
 2037 0165 00        		.byte	0x0
 2038 0166 49        		.uleb128 0x49
 2039 0167 13        		.uleb128 0x13
 2040 0168 2F        		.uleb128 0x2f
 2041 0169 0B        		.uleb128 0xb
 2042 016a 00        		.byte	0x0
 2043 016b 00        		.byte	0x0
 2044 016c 1B        		.uleb128 0x1b
 2045 016d 34        		.uleb128 0x34
 2046 016e 00        		.byte	0x0
 2047 016f 03        		.uleb128 0x3
 2048 0170 0E        		.uleb128 0xe
GAS LISTING C:\Users\ADMINI~1\AppData\Local\Temp/ccLmO1h6.s 			page 37


 2049 0171 3A        		.uleb128 0x3a
 2050 0172 0B        		.uleb128 0xb
 2051 0173 3B        		.uleb128 0x3b
 2052 0174 0B        		.uleb128 0xb
 2053 0175 49        		.uleb128 0x49
 2054 0176 13        		.uleb128 0x13
 2055 0177 3F        		.uleb128 0x3f
 2056 0178 0C        		.uleb128 0xc
 2057 0179 02        		.uleb128 0x2
 2058 017a 0A        		.uleb128 0xa
 2059 017b 00        		.byte	0x0
 2060 017c 00        		.byte	0x0
 2061 017d 00        		.byte	0x0
 2062               		.section	.debug_pubnames,"",@progbits
 2063 0000 B500 0000 		.long	0xb5
 2064 0004 0200      		.word	0x2
 2065 0006 0000 0000 		.long	.Ldebug_info0
 2066 000a 5B07 0000 		.long	0x75b
 2067 000e 5A05 0000 		.long	0x55a
 2068 0012 7075 7368 		.string	"pushM"
 2068      4D00 
 2069 0018 8205 0000 		.long	0x582
 2070 001c 706F 704D 		.string	"popM"
 2070      00
 2071 0021 9A05 0000 		.long	0x59a
 2072 0025 6973 456D 		.string	"isEmptyM"
 2072      7074 794D 
 2072      00
 2073 002e AA05 0000 		.long	0x5aa
 2074 0032 6973 4D61 		.string	"isMacroProcessEnd"
 2074      6372 6F50 
 2074      726F 6365 
 2074      7373 456E 
 2074      6400 
 2075 0044 C205 0000 		.long	0x5c2
 2076 0048 7365 744D 		.string	"setMacroProcessEnd"
 2076      6163 726F 
 2076      5072 6F63 
 2076      6573 7345 
 2076      6E64 00
 2077 005b E805 0000 		.long	0x5e8
 2078 005f 6368 6172 		.string	"charToKey"
 2078      546F 4B65 
 2078      7900 
 2079 0069 1F06 0000 		.long	0x61f
 2080 006d 746F 5374 		.string	"toString"
 2080      7269 6E67 
 2080      00
 2081 0076 6706 0000 		.long	0x667
 2082 007a 636C 6561 		.string	"clearMacroPressedBuffer"
 2082      724D 6163 
 2082      726F 5072 
 2082      6573 7365 
 2082      6442 7566 
 2083 0092 8F06 0000 		.long	0x68f
 2084 0096 706F 704D 		.string	"popMWithKey"
 2084      5769 7468 
GAS LISTING C:\Users\ADMINI~1\AppData\Local\Temp/ccLmO1h6.s 			page 38


 2084      4B65 7900 
 2085 00a2 4807 0000 		.long	0x748
 2086 00a6 5F70 7265 		.string	"_pressedBuffer"
 2086      7373 6564 
 2086      4275 6666 
 2086      6572 00
 2087 00b5 0000 0000 		.long	0x0
 2088               		.section	.debug_aranges,"",@progbits
 2089 0000 1C00 0000 		.long	0x1c
 2090 0004 0200      		.word	0x2
 2091 0006 0000 0000 		.long	.Ldebug_info0
 2092 000a 04        		.byte	0x4
 2093 000b 00        		.byte	0x0
 2094 000c 0000      		.word	0x0
 2095 000e 0000      		.word	0x0
 2096 0010 0000 0000 		.long	.Ltext0
 2097 0014 5E02 0000 		.long	.Letext0-.Ltext0
 2098 0018 0000 0000 		.long	0x0
 2099 001c 0000 0000 		.long	0x0
 2100               		.section	.debug_line
 2101 0000 F002 0000 		.long	.LELT0-.LSLT0
 2102               	.LSLT0:
 2103 0004 0200      		.word	0x2
 2104 0006 7700 0000 		.long	.LELTP0-.LASLTP0
 2105               	.LASLTP0:
 2106 000a 01        		.byte	0x1
 2107 000b 01        		.byte	0x1
 2108 000c F6        		.byte	0xf6
 2109 000d F5        		.byte	0xf5
 2110 000e 0A        		.byte	0xa
 2111 000f 00        		.byte	0x0
 2112 0010 01        		.byte	0x1
 2113 0011 01        		.byte	0x1
 2114 0012 01        		.byte	0x1
 2115 0013 01        		.byte	0x1
 2116 0014 00        		.byte	0x0
 2117 0015 00        		.byte	0x0
 2118 0016 00        		.byte	0x0
 2119 0017 01        		.byte	0x1
 2120 0018 633A 2F77 		.ascii	"c:/winavr-20100110/lib/gcc/../../avr/include"
 2120      696E 6176 
 2120      722D 3230 
 2120      3130 3031 
 2120      3130 2F6C 
 2121 0044 00        		.byte	0
 2122 0045 00        		.byte	0x0
 2123 0046 6D61 6372 		.string	"macrobuffer.c"
 2123      6F62 7566 
 2123      6665 722E 
 2123      6300 
 2124 0054 00        		.uleb128 0x0
 2125 0055 00        		.uleb128 0x0
 2126 0056 00        		.uleb128 0x0
 2127 0057 6D61 6372 		.string	"macrobuffer.h"
 2127      6F62 7566 
 2127      6665 722E 
 2127      6800 
GAS LISTING C:\Users\ADMINI~1\AppData\Local\Temp/ccLmO1h6.s 			page 39


 2128 0065 00        		.uleb128 0x0
 2129 0066 00        		.uleb128 0x0
 2130 0067 00        		.uleb128 0x0
 2131 0068 7374 6469 		.string	"stdint.h"
 2131      6E74 2E68 
 2131      00
 2132 0071 01        		.uleb128 0x1
 2133 0072 00        		.uleb128 0x0
 2134 0073 00        		.uleb128 0x0
 2135 0074 6B65 796D 		.string	"keymap.h"
 2135      6170 2E68 
 2135      00
 2136 007d 00        		.uleb128 0x0
 2137 007e 00        		.uleb128 0x0
 2138 007f 00        		.uleb128 0x0
 2139 0080 00        		.byte	0x0
 2140               	.LELTP0:
 2141 0081 00        		.byte	0x0
 2142 0082 05        		.uleb128 0x5
 2143 0083 02        		.byte	0x2
 2144 0084 0000 0000 		.long	.LM1
 2145 0088 26        		.byte	0x26
 2146 0089 00        		.byte	0x0
 2147 008a 05        		.uleb128 0x5
 2148 008b 02        		.byte	0x2
 2149 008c 0000 0000 		.long	.LM2
 2150 0090 16        		.byte	0x16
 2151 0091 00        		.byte	0x0
 2152 0092 05        		.uleb128 0x5
 2153 0093 02        		.byte	0x2
 2154 0094 0000 0000 		.long	.LM3
 2155 0098 15        		.byte	0x15
 2156 0099 00        		.byte	0x0
 2157 009a 05        		.uleb128 0x5
 2158 009b 02        		.byte	0x2
 2159 009c 0000 0000 		.long	.LM4
 2160 00a0 15        		.byte	0x15
 2161 00a1 00        		.byte	0x0
 2162 00a2 05        		.uleb128 0x5
 2163 00a3 02        		.byte	0x2
 2164 00a4 0000 0000 		.long	.LM5
 2165 00a8 17        		.byte	0x17
 2166 00a9 00        		.byte	0x0
 2167 00aa 05        		.uleb128 0x5
 2168 00ab 02        		.byte	0x2
 2169 00ac 0000 0000 		.long	.LM6
 2170 00b0 17        		.byte	0x17
 2171 00b1 00        		.byte	0x0
 2172 00b2 05        		.uleb128 0x5
 2173 00b3 02        		.byte	0x2
 2174 00b4 0000 0000 		.long	.LM7
 2175 00b8 15        		.byte	0x15
 2176 00b9 00        		.byte	0x0
 2177 00ba 05        		.uleb128 0x5
 2178 00bb 02        		.byte	0x2
 2179 00bc 0000 0000 		.long	.LM8
 2180 00c0 17        		.byte	0x17
GAS LISTING C:\Users\ADMINI~1\AppData\Local\Temp/ccLmO1h6.s 			page 40


 2181 00c1 00        		.byte	0x0
 2182 00c2 05        		.uleb128 0x5
 2183 00c3 02        		.byte	0x2
 2184 00c4 0000 0000 		.long	.LM9
 2185 00c8 16        		.byte	0x16
 2186 00c9 00        		.byte	0x0
 2187 00ca 05        		.uleb128 0x5
 2188 00cb 02        		.byte	0x2
 2189 00cc 0000 0000 		.long	.LM10
 2190 00d0 15        		.byte	0x15
 2191 00d1 00        		.byte	0x0
 2192 00d2 05        		.uleb128 0x5
 2193 00d3 02        		.byte	0x2
 2194 00d4 0000 0000 		.long	.LM11
 2195 00d8 37        		.byte	0x37
 2196 00d9 00        		.byte	0x0
 2197 00da 05        		.uleb128 0x5
 2198 00db 02        		.byte	0x2
 2199 00dc 0000 0000 		.long	.LM12
 2200 00e0 01        		.byte	0x1
 2201 00e1 00        		.byte	0x0
 2202 00e2 05        		.uleb128 0x5
 2203 00e3 02        		.byte	0x2
 2204 00e4 0000 0000 		.long	.LM13
 2205 00e8 19        		.byte	0x19
 2206 00e9 00        		.byte	0x0
 2207 00ea 05        		.uleb128 0x5
 2208 00eb 02        		.byte	0x2
 2209 00ec 0000 0000 		.long	.LM14
 2210 00f0 27        		.byte	0x27
 2211 00f1 00        		.byte	0x0
 2212 00f2 05        		.uleb128 0x5
 2213 00f3 02        		.byte	0x2
 2214 00f4 0000 0000 		.long	.LM15
 2215 00f8 15        		.byte	0x15
 2216 00f9 00        		.byte	0x0
 2217 00fa 05        		.uleb128 0x5
 2218 00fb 02        		.byte	0x2
 2219 00fc 0000 0000 		.long	.LM16
 2220 0100 15        		.byte	0x15
 2221 0101 00        		.byte	0x0
 2222 0102 05        		.uleb128 0x5
 2223 0103 02        		.byte	0x2
 2224 0104 0000 0000 		.long	.LM17
 2225 0108 16        		.byte	0x16
 2226 0109 00        		.byte	0x0
 2227 010a 05        		.uleb128 0x5
 2228 010b 02        		.byte	0x2
 2229 010c 0000 0000 		.long	.LM18
 2230 0110 15        		.byte	0x15
 2231 0111 00        		.byte	0x0
 2232 0112 05        		.uleb128 0x5
 2233 0113 02        		.byte	0x2
 2234 0114 0000 0000 		.long	.LM19
 2235 0118 15        		.byte	0x15
 2236 0119 00        		.byte	0x0
 2237 011a 05        		.uleb128 0x5
GAS LISTING C:\Users\ADMINI~1\AppData\Local\Temp/ccLmO1h6.s 			page 41


 2238 011b 02        		.byte	0x2
 2239 011c 0000 0000 		.long	.LM20
 2240 0120 26        		.byte	0x26
 2241 0121 00        		.byte	0x0
 2242 0122 05        		.uleb128 0x5
 2243 0123 02        		.byte	0x2
 2244 0124 0000 0000 		.long	.LM21
 2245 0128 19        		.byte	0x19
 2246 0129 00        		.byte	0x0
 2247 012a 05        		.uleb128 0x5
 2248 012b 02        		.byte	0x2
 2249 012c 0000 0000 		.long	.LM22
 2250 0130 16        		.byte	0x16
 2251 0131 00        		.byte	0x0
 2252 0132 05        		.uleb128 0x5
 2253 0133 02        		.byte	0x2
 2254 0134 0000 0000 		.long	.LM23
 2255 0138 16        		.byte	0x16
 2256 0139 00        		.byte	0x0
 2257 013a 05        		.uleb128 0x5
 2258 013b 02        		.byte	0x2
 2259 013c 0000 0000 		.long	.LM24
 2260 0140 17        		.byte	0x17
 2261 0141 00        		.byte	0x0
 2262 0142 05        		.uleb128 0x5
 2263 0143 02        		.byte	0x2
 2264 0144 0000 0000 		.long	.LM25
 2265 0148 16        		.byte	0x16
 2266 0149 00        		.byte	0x0
 2267 014a 05        		.uleb128 0x5
 2268 014b 02        		.byte	0x2
 2269 014c 0000 0000 		.long	.LM26
 2270 0150 16        		.byte	0x16
 2271 0151 00        		.byte	0x0
 2272 0152 05        		.uleb128 0x5
 2273 0153 02        		.byte	0x2
 2274 0154 0000 0000 		.long	.LM27
 2275 0158 18        		.byte	0x18
 2276 0159 00        		.byte	0x0
 2277 015a 05        		.uleb128 0x5
 2278 015b 02        		.byte	0x2
 2279 015c 0000 0000 		.long	.LM28
 2280 0160 1C        		.byte	0x1c
 2281 0161 00        		.byte	0x0
 2282 0162 05        		.uleb128 0x5
 2283 0163 02        		.byte	0x2
 2284 0164 0000 0000 		.long	.LM29
 2285 0168 17        		.byte	0x17
 2286 0169 00        		.byte	0x0
 2287 016a 05        		.uleb128 0x5
 2288 016b 02        		.byte	0x2
 2289 016c 0000 0000 		.long	.LM30
 2290 0170 17        		.byte	0x17
 2291 0171 00        		.byte	0x0
 2292 0172 05        		.uleb128 0x5
 2293 0173 02        		.byte	0x2
 2294 0174 0000 0000 		.long	.LM31
GAS LISTING C:\Users\ADMINI~1\AppData\Local\Temp/ccLmO1h6.s 			page 42


 2295 0178 17        		.byte	0x17
 2296 0179 00        		.byte	0x0
 2297 017a 05        		.uleb128 0x5
 2298 017b 02        		.byte	0x2
 2299 017c 0000 0000 		.long	.LM32
 2300 0180 17        		.byte	0x17
 2301 0181 00        		.byte	0x0
 2302 0182 05        		.uleb128 0x5
 2303 0183 02        		.byte	0x2
 2304 0184 0000 0000 		.long	.LM33
 2305 0188 17        		.byte	0x17
 2306 0189 00        		.byte	0x0
 2307 018a 05        		.uleb128 0x5
 2308 018b 02        		.byte	0x2
 2309 018c 0000 0000 		.long	.LM34
 2310 0190 17        		.byte	0x17
 2311 0191 00        		.byte	0x0
 2312 0192 05        		.uleb128 0x5
 2313 0193 02        		.byte	0x2
 2314 0194 0000 0000 		.long	.LM35
 2315 0198 17        		.byte	0x17
 2316 0199 00        		.byte	0x0
 2317 019a 05        		.uleb128 0x5
 2318 019b 02        		.byte	0x2
 2319 019c 0000 0000 		.long	.LM36
 2320 01a0 17        		.byte	0x17
 2321 01a1 00        		.byte	0x0
 2322 01a2 05        		.uleb128 0x5
 2323 01a3 02        		.byte	0x2
 2324 01a4 0000 0000 		.long	.LM37
 2325 01a8 16        		.byte	0x16
 2326 01a9 00        		.byte	0x0
 2327 01aa 05        		.uleb128 0x5
 2328 01ab 02        		.byte	0x2
 2329 01ac 0000 0000 		.long	.LM38
 2330 01b0 16        		.byte	0x16
 2331 01b1 00        		.byte	0x0
 2332 01b2 05        		.uleb128 0x5
 2333 01b3 02        		.byte	0x2
 2334 01b4 0000 0000 		.long	.LM39
 2335 01b8 17        		.byte	0x17
 2336 01b9 00        		.byte	0x0
 2337 01ba 05        		.uleb128 0x5
 2338 01bb 02        		.byte	0x2
 2339 01bc 0000 0000 		.long	.LM40
 2340 01c0 16        		.byte	0x16
 2341 01c1 00        		.byte	0x0
 2342 01c2 05        		.uleb128 0x5
 2343 01c3 02        		.byte	0x2
 2344 01c4 0000 0000 		.long	.LM41
 2345 01c8 17        		.byte	0x17
 2346 01c9 00        		.byte	0x0
 2347 01ca 05        		.uleb128 0x5
 2348 01cb 02        		.byte	0x2
 2349 01cc 0000 0000 		.long	.LM42
 2350 01d0 16        		.byte	0x16
 2351 01d1 00        		.byte	0x0
GAS LISTING C:\Users\ADMINI~1\AppData\Local\Temp/ccLmO1h6.s 			page 43


 2352 01d2 05        		.uleb128 0x5
 2353 01d3 02        		.byte	0x2
 2354 01d4 0000 0000 		.long	.LM43
 2355 01d8 17        		.byte	0x17
 2356 01d9 00        		.byte	0x0
 2357 01da 05        		.uleb128 0x5
 2358 01db 02        		.byte	0x2
 2359 01dc 0000 0000 		.long	.LM44
 2360 01e0 16        		.byte	0x16
 2361 01e1 00        		.byte	0x0
 2362 01e2 05        		.uleb128 0x5
 2363 01e3 02        		.byte	0x2
 2364 01e4 0000 0000 		.long	.LM45
 2365 01e8 17        		.byte	0x17
 2366 01e9 00        		.byte	0x0
 2367 01ea 05        		.uleb128 0x5
 2368 01eb 02        		.byte	0x2
 2369 01ec 0000 0000 		.long	.LM46
 2370 01f0 16        		.byte	0x16
 2371 01f1 00        		.byte	0x0
 2372 01f2 05        		.uleb128 0x5
 2373 01f3 02        		.byte	0x2
 2374 01f4 0000 0000 		.long	.LM47
 2375 01f8 17        		.byte	0x17
 2376 01f9 00        		.byte	0x0
 2377 01fa 05        		.uleb128 0x5
 2378 01fb 02        		.byte	0x2
 2379 01fc 0000 0000 		.long	.LM48
 2380 0200 1B        		.byte	0x1b
 2381 0201 00        		.byte	0x0
 2382 0202 05        		.uleb128 0x5
 2383 0203 02        		.byte	0x2
 2384 0204 0000 0000 		.long	.LM49
 2385 0208 17        		.byte	0x17
 2386 0209 00        		.byte	0x0
 2387 020a 05        		.uleb128 0x5
 2388 020b 02        		.byte	0x2
 2389 020c 0000 0000 		.long	.LM50
 2390 0210 16        		.byte	0x16
 2391 0211 00        		.byte	0x0
 2392 0212 05        		.uleb128 0x5
 2393 0213 02        		.byte	0x2
 2394 0214 0000 0000 		.long	.LM51
 2395 0218 17        		.byte	0x17
 2396 0219 00        		.byte	0x0
 2397 021a 05        		.uleb128 0x5
 2398 021b 02        		.byte	0x2
 2399 021c 0000 0000 		.long	.LM52
 2400 0220 16        		.byte	0x16
 2401 0221 00        		.byte	0x0
 2402 0222 05        		.uleb128 0x5
 2403 0223 02        		.byte	0x2
 2404 0224 0000 0000 		.long	.LM53
 2405 0228 17        		.byte	0x17
 2406 0229 00        		.byte	0x0
 2407 022a 05        		.uleb128 0x5
 2408 022b 02        		.byte	0x2
GAS LISTING C:\Users\ADMINI~1\AppData\Local\Temp/ccLmO1h6.s 			page 44


 2409 022c 0000 0000 		.long	.LM54
 2410 0230 16        		.byte	0x16
 2411 0231 00        		.byte	0x0
 2412 0232 05        		.uleb128 0x5
 2413 0233 02        		.byte	0x2
 2414 0234 0000 0000 		.long	.LM55
 2415 0238 17        		.byte	0x17
 2416 0239 00        		.byte	0x0
 2417 023a 05        		.uleb128 0x5
 2418 023b 02        		.byte	0x2
 2419 023c 0000 0000 		.long	.LM56
 2420 0240 16        		.byte	0x16
 2421 0241 00        		.byte	0x0
 2422 0242 05        		.uleb128 0x5
 2423 0243 02        		.byte	0x2
 2424 0244 0000 0000 		.long	.LM57
 2425 0248 17        		.byte	0x17
 2426 0249 00        		.byte	0x0
 2427 024a 05        		.uleb128 0x5
 2428 024b 02        		.byte	0x2
 2429 024c 0000 0000 		.long	.LM58
 2430 0250 1B        		.byte	0x1b
 2431 0251 00        		.byte	0x0
 2432 0252 05        		.uleb128 0x5
 2433 0253 02        		.byte	0x2
 2434 0254 0000 0000 		.long	.LM59
 2435 0258 1A        		.byte	0x1a
 2436 0259 00        		.byte	0x0
 2437 025a 05        		.uleb128 0x5
 2438 025b 02        		.byte	0x2
 2439 025c 0000 0000 		.long	.LM60
 2440 0260 13        		.byte	0x13
 2441 0261 00        		.byte	0x0
 2442 0262 05        		.uleb128 0x5
 2443 0263 02        		.byte	0x2
 2444 0264 0000 0000 		.long	.LM61
 2445 0268 03        		.byte	0x3
 2446 0269 F97E      		.sleb128 -135
 2447 026b 01        		.byte	0x1
 2448 026c 00        		.byte	0x0
 2449 026d 05        		.uleb128 0x5
 2450 026e 02        		.byte	0x2
 2451 026f 0000 0000 		.long	.LM62
 2452 0273 16        		.byte	0x16
 2453 0274 00        		.byte	0x0
 2454 0275 05        		.uleb128 0x5
 2455 0276 02        		.byte	0x2
 2456 0277 0000 0000 		.long	.LM63
 2457 027b 16        		.byte	0x16
 2458 027c 00        		.byte	0x0
 2459 027d 05        		.uleb128 0x5
 2460 027e 02        		.byte	0x2
 2461 027f 0000 0000 		.long	.LM64
 2462 0283 03        		.byte	0x3
 2463 0284 6B        		.sleb128 -21
 2464 0285 01        		.byte	0x1
 2465 0286 00        		.byte	0x0
GAS LISTING C:\Users\ADMINI~1\AppData\Local\Temp/ccLmO1h6.s 			page 45


 2466 0287 05        		.uleb128 0x5
 2467 0288 02        		.byte	0x2
 2468 0289 0000 0000 		.long	.LM65
 2469 028d 03        		.byte	0x3
 2470 028e 70        		.sleb128 -16
 2471 028f 01        		.byte	0x1
 2472 0290 00        		.byte	0x0
 2473 0291 05        		.uleb128 0x5
 2474 0292 02        		.byte	0x2
 2475 0293 0000 0000 		.long	.LM66
 2476 0297 25        		.byte	0x25
 2477 0298 00        		.byte	0x0
 2478 0299 05        		.uleb128 0x5
 2479 029a 02        		.byte	0x2
 2480 029b 0000 0000 		.long	.LM67
 2481 029f 03        		.byte	0x3
 2482 02a0 4E        		.sleb128 -50
 2483 02a1 01        		.byte	0x1
 2484 02a2 00        		.byte	0x0
 2485 02a3 05        		.uleb128 0x5
 2486 02a4 02        		.byte	0x2
 2487 02a5 0000 0000 		.long	.LM68
 2488 02a9 1A        		.byte	0x1a
 2489 02aa 00        		.byte	0x0
 2490 02ab 05        		.uleb128 0x5
 2491 02ac 02        		.byte	0x2
 2492 02ad 0000 0000 		.long	.LM69
 2493 02b1 16        		.byte	0x16
 2494 02b2 00        		.byte	0x0
 2495 02b3 05        		.uleb128 0x5
 2496 02b4 02        		.byte	0x2
 2497 02b5 0000 0000 		.long	.LM70
 2498 02b9 15        		.byte	0x15
 2499 02ba 00        		.byte	0x0
 2500 02bb 05        		.uleb128 0x5
 2501 02bc 02        		.byte	0x2
 2502 02bd 0000 0000 		.long	.LM71
 2503 02c1 19        		.byte	0x19
 2504 02c2 00        		.byte	0x0
 2505 02c3 05        		.uleb128 0x5
 2506 02c4 02        		.byte	0x2
 2507 02c5 0000 0000 		.long	.LM72
 2508 02c9 15        		.byte	0x15
 2509 02ca 00        		.byte	0x0
 2510 02cb 05        		.uleb128 0x5
 2511 02cc 02        		.byte	0x2
 2512 02cd 0000 0000 		.long	.LM73
 2513 02d1 16        		.byte	0x16
 2514 02d2 00        		.byte	0x0
 2515 02d3 05        		.uleb128 0x5
 2516 02d4 02        		.byte	0x2
 2517 02d5 0000 0000 		.long	.LM74
 2518 02d9 16        		.byte	0x16
 2519 02da 00        		.byte	0x0
 2520 02db 05        		.uleb128 0x5
 2521 02dc 02        		.byte	0x2
 2522 02dd 0000 0000 		.long	.LM75
GAS LISTING C:\Users\ADMINI~1\AppData\Local\Temp/ccLmO1h6.s 			page 46


 2523 02e1 16        		.byte	0x16
 2524 02e2 00        		.byte	0x0
 2525 02e3 05        		.uleb128 0x5
 2526 02e4 02        		.byte	0x2
 2527 02e5 0000 0000 		.long	.LM76
 2528 02e9 19        		.byte	0x19
 2529 02ea 00        		.byte	0x0
 2530 02eb 05        		.uleb128 0x5
 2531 02ec 02        		.byte	0x2
 2532 02ed 0000 0000 		.long	.Letext0
 2533 02f1 00        		.byte	0x0
 2534 02f2 01        		.uleb128 0x1
 2535 02f3 01        		.byte	0x1
 2536               	.LELT0:
 2537 02f4 1600 0000 		.section	.debug_str,"MS",@progbits,1
 2537      0200 1000 
 2537      0000 0101 
 2537      FB0E 0A00 
 2537      0101 0101 
 2538               	.LASF114:
 2539 0000 4B45 595F 		.string	"KEY_LSHIFT"
 2539      4C53 4849 
 2539      4654 00
 2540               	.LASF191:
 2541 000b 7075 7368 		.string	"pushM"
 2541      4D00 
 2542               	.LASF66:
 2543 0011 4B45 595F 		.string	"KEY_SLASH"
 2543      534C 4153 
 2543      4800 
 2544               	.LASF137:
 2545 001b 4B45 595F 		.string	"KEY_PLAY"
 2545      504C 4159 
 2545      00
 2546               	.LASF93:
 2547 0024 4B45 595F 		.string	"KEY_NUMLOCK"
 2547      4E55 4D4C 
 2547      4F43 4B00 
 2548               	.LASF145:
 2549 0030 4B45 595F 		.string	"KEY_REC"
 2549      5245 4300 
 2550               	.LASF113:
 2551 0038 4B45 595F 		.string	"KEY_LCTRL"
 2551      4C43 5452 
 2551      4C00 
 2552               	.LASF77:
 2553 0042 4B45 595F 		.string	"KEY_F10"
 2553      4631 3000 
 2554               	.LASF78:
 2555 004a 4B45 595F 		.string	"KEY_F11"
 2555      4631 3100 
 2556               	.LASF79:
 2557 0052 4B45 595F 		.string	"KEY_F12"
 2557      4631 3200 
 2558               	.LASF155:
 2559 005a 4B45 595F 		.string	"KEY_F13"
 2559      4631 3300 
GAS LISTING C:\Users\ADMINI~1\AppData\Local\Temp/ccLmO1h6.s 			page 47


 2560               	.LASF156:
 2561 0062 4B45 595F 		.string	"KEY_F14"
 2561      4631 3400 
 2562               	.LASF157:
 2563 006a 4B45 595F 		.string	"KEY_F15"
 2563      4631 3500 
 2564               	.LASF158:
 2565 0072 4B45 595F 		.string	"KEY_F16"
 2565      4631 3600 
 2566               	.LASF159:
 2567 007a 4B45 595F 		.string	"KEY_F17"
 2567      4631 3700 
 2568               	.LASF160:
 2569 0082 4B45 595F 		.string	"KEY_F18"
 2569      4631 3800 
 2570               	.LASF109:
 2571 008a 4B45 595F 		.string	"KEY_KP_DOT"
 2571      4B50 5F44 
 2571      4F54 00
 2572               	.LASF198:
 2573 0095 7849 6E74 		.string	"xInt"
 2573      00
 2574               	.LASF136:
 2575 009a 4B45 595F 		.string	"KEY_STOP"
 2575      5354 4F50 
 2575      00
 2576               	.LASF87:
 2577 00a3 4B45 595F 		.string	"KEY_END"
 2577      454E 4400 
 2578               	.LASF6:
 2579 00ab 6C6F 6E67 		.string	"long long unsigned int"
 2579      206C 6F6E 
 2579      6720 756E 
 2579      7369 676E 
 2579      6564 2069 
 2580               	.LASF52:
 2581 00c2 4B45 595F 		.string	"KEY_BKSP"
 2581      424B 5350 
 2581      00
 2582               	.LASF86:
 2583 00cb 4B45 595F 		.string	"KEY_DEL"
 2583      4445 4C00 
 2584               	.LASF201:
 2585 00d3 674B 6579 		.string	"gKey"
 2585      00
 2586               	.LASF135:
 2587 00d8 4B45 595F 		.string	"KEY_PREV_TRK"
 2587      5052 4556 
 2587      5F54 524B 
 2587      00
 2588               	.LASF61:
 2589 00e5 4B45 595F 		.string	"KEY_COLON"
 2589      434F 4C4F 
 2589      4E00 
 2590               	.LASF187:
 2591 00ef 6B65 7963 		.string	"keycode"
 2591      6F64 6500 
GAS LISTING C:\Users\ADMINI~1\AppData\Local\Temp/ccLmO1h6.s 			page 48


 2592               	.LASF123:
 2593 00f7 4B45 595F 		.string	"KEY_POWER"
 2593      504F 5745 
 2593      5200 
 2594               	.LASF11:
 2595 0101 4B45 595F 		.string	"KEY_ErrorRollOver"
 2595      4572 726F 
 2595      7252 6F6C 
 2595      6C4F 7665 
 2595      7200 
 2596               	.LASF141:
 2597 0113 4B45 595F 		.string	"KEY_MEDIA"
 2597      4D45 4449 
 2597      4100 
 2598               	.LASF5:
 2599 011d 6C6F 6E67 		.string	"long long int"
 2599      206C 6F6E 
 2599      6720 696E 
 2599      7400 
 2600               	.LASF2:
 2601 012b 7369 676E 		.string	"signed char"
 2601      6564 2063 
 2601      6861 7200 
 2602               	.LASF96:
 2603 0137 4B45 595F 		.string	"KEY_KP_MINUS"
 2603      4B50 5F4D 
 2603      494E 5553 
 2603      00
 2604               	.LASF139:
 2605 0144 4B45 595F 		.string	"KEY_VOL_UP"
 2605      564F 4C5F 
 2605      5550 00
 2606               	.LASF162:
 2607 014f 4B45 595F 		.string	"KEY_F20"
 2607      4632 3000 
 2608               	.LASF163:
 2609 0157 4B45 595F 		.string	"KEY_F21"
 2609      4632 3100 
 2610               	.LASF58:
 2611 015f 4B45 595F 		.string	"KEY_RBR"
 2611      5242 5200 
 2612               	.LASF165:
 2613 0167 4B45 595F 		.string	"KEY_F23"
 2613      4632 3300 
 2614               	.LASF138:
 2615 016f 4B45 595F 		.string	"KEY_MUTE"
 2615      4D55 5445 
 2615      00
 2616               	.LASF197:
 2617 0178 746F 5374 		.string	"toString"
 2617      7269 6E67 
 2617      00
 2618               	.LASF1:
 2619 0181 6C6F 6E67 		.string	"long int"
 2619      2069 6E74 
 2619      00
 2620               	.LASF129:
GAS LISTING C:\Users\ADMINI~1\AppData\Local\Temp/ccLmO1h6.s 			page 49


 2621 018a 4B45 595F 		.string	"KEY_WWW_BACK"
 2621      5757 575F 
 2621      4241 434B 
 2621      00
 2622               	.LASF60:
 2623 0197 4B45 595F 		.string	"KEY_Europe1"
 2623      4575 726F 
 2623      7065 3100 
 2624               	.LASF110:
 2625 01a3 4B45 595F 		.string	"KEY_Europe2"
 2625      4575 726F 
 2625      7065 3200 
 2626               	.LASF94:
 2627 01af 4B45 595F 		.string	"KEY_KP_SLASH"
 2627      4B50 5F53 
 2627      4C41 5348 
 2627      00
 2628               	.LASF89:
 2629 01bc 4B45 595F 		.string	"KEY_RIGHT"
 2629      5249 4748 
 2629      5400 
 2630               	.LASF178:
 2631 01c6 4B45 595F 		.string	"KEY_LANG3"
 2631      4C41 4E47 
 2631      3300 
 2632               	.LASF179:
 2633 01d0 4B45 595F 		.string	"KEY_LANG4"
 2633      4C41 4E47 
 2633      3400 
 2634               	.LASF180:
 2635 01da 4B45 595F 		.string	"KEY_LANG5"
 2635      4C41 4E47 
 2635      3500 
 2636               	.LASF181:
 2637 01e4 4B45 595F 		.string	"KEY_LANG6"
 2637      4C41 4E47 
 2637      3600 
 2638               	.LASF182:
 2639 01ee 4B45 595F 		.string	"KEY_LANG7"
 2639      4C41 4E47 
 2639      3700 
 2640               	.LASF63:
 2641 01f8 4B45 595F 		.string	"KEY_HASH"
 2641      4841 5348 
 2641      00
 2642               	.LASF119:
 2643 0201 4B45 595F 		.string	"KEY_RALT"
 2643      5241 4C54 
 2643      00
 2644               	.LASF133:
 2645 020a 4B45 595F 		.string	"KEY_WWW_FAVORITE"
 2645      5757 575F 
 2645      4641 564F 
 2645      5249 5445 
 2645      00
 2646               	.LASF184:
 2647 021b 4B45 595F 		.string	"KEY_LANG9"
GAS LISTING C:\Users\ADMINI~1\AppData\Local\Temp/ccLmO1h6.s 			page 50


 2647      4C41 4E47 
 2647      3900 
 2648               	.LASF192:
 2649 0225 7365 744D 		.string	"setMacroProcessEnd"
 2649      6163 726F 
 2649      5072 6F63 
 2649      6573 7345 
 2649      6E64 00
 2650               	.LASF132:
 2651 0238 4B45 595F 		.string	"KEY_WWW_REFRESH"
 2651      5757 575F 
 2651      5245 4652 
 2651      4553 4800 
 2652               	.LASF150:
 2653 0248 4B45 595F 		.string	"KEY_extend"
 2653      6578 7465 
 2653      6E64 00
 2654               	.LASF57:
 2655 0253 4B45 595F 		.string	"KEY_LBR"
 2655      4C42 5200 
 2656               	.LASF195:
 2657 025b 6368 6172 		.string	"character"
 2657      6163 7465 
 2657      7200 
 2658               	.LASF83:
 2659 0265 4B45 595F 		.string	"KEY_INSERT"
 2659      494E 5345 
 2659      5254 00
 2660               	.LASF209:
 2661 0270 474E 5520 		.string	"GNU C 4.3.3"
 2661      4320 342E 
 2661      332E 3300 
 2662               	.LASF80:
 2663 027c 4B45 595F 		.string	"KEY_PRNSCR"
 2663      5052 4E53 
 2663      4352 00
 2664               	.LASF88:
 2665 0287 4B45 595F 		.string	"KEY_PGDN"
 2665      5047 444E 
 2665      00
 2666               	.LASF120:
 2667 0290 4B45 595F 		.string	"KEY_RGUI"
 2667      5247 5549 
 2667      00
 2668               	.LASF128:
 2669 0299 4B45 595F 		.string	"KEY_WWW_HOME"
 2669      5757 575F 
 2669      484F 4D45 
 2669      00
 2670               	.LASF186:
 2671 02a6 6D6F 6465 		.string	"mode"
 2671      00
 2672               	.LASF0:
 2673 02ab 756E 7369 		.string	"unsigned int"
 2673      676E 6564 
 2673      2069 6E74 
 2673      00
GAS LISTING C:\Users\ADMINI~1\AppData\Local\Temp/ccLmO1h6.s 			page 51


 2674               	.LASF203:
 2675 02b8 6749 6478 		.string	"gIdx"
 2675      00
 2676               	.LASF118:
 2677 02bd 4B45 595F 		.string	"KEY_RSHIFT"
 2677      5253 4849 
 2677      4654 00
 2678               	.LASF81:
 2679 02c8 4B45 595F 		.string	"KEY_SCRLCK"
 2679      5343 524C 
 2679      434B 00
 2680               	.LASF4:
 2681 02d3 6C6F 6E67 		.string	"long unsigned int"
 2681      2075 6E73 
 2681      6967 6E65 
 2681      6420 696E 
 2681      7400 
 2682               	.LASF152:
 2683 02e5 4B45 595F 		.string	"KEY_HANGLE"
 2683      4841 4E47 
 2683      4C45 00
 2684               	.LASF62:
 2685 02f0 4B45 595F 		.string	"KEY_QUOTE"
 2685      5155 4F54 
 2685      4500 
 2686               	.LASF10:
 2687 02fa 4B45 595F 		.string	"KEY_NONE"
 2687      4E4F 4E45 
 2687      00
 2688               	.LASF98:
 2689 0303 4B45 595F 		.string	"KEY_KP_ENTER"
 2689      4B50 5F45 
 2689      4E54 4552 
 2689      00
 2690               	.LASF90:
 2691 0310 4B45 595F 		.string	"KEY_LEFT"
 2691      4C45 4654 
 2691      00
 2692               	.LASF97:
 2693 0319 4B45 595F 		.string	"KEY_KP_PLUS"
 2693      4B50 5F50 
 2693      4C55 5300 
 2694               	.LASF7:
 2695 0325 7368 6F72 		.string	"short unsigned int"
 2695      7420 756E 
 2695      7369 676E 
 2695      6564 2069 
 2695      6E74 00
 2696               	.LASF67:
 2697 0338 4B45 595F 		.string	"KEY_CAPS"
 2697      4341 5053 
 2697      00
 2698               	.LASF190:
 2699 0341 6973 4D61 		.string	"isMacroProcessEnd"
 2699      6372 6F50 
 2699      726F 6365 
 2699      7373 456E 
GAS LISTING C:\Users\ADMINI~1\AppData\Local\Temp/ccLmO1h6.s 			page 52


 2699      6400 
 2700               	.LASF65:
 2701 0353 4B45 595F 		.string	"KEY_DOT"
 2701      444F 5400 
 2702               	.LASF193:
 2703 035b 6974 656D 		.string	"item"
 2703      00
 2704               	.LASF147:
 2705 0360 4B45 595F 		.string	"KEY_MINIMIZE"
 2705      4D49 4E49 
 2705      4D49 5A45 
 2705      00
 2706               	.LASF199:
 2707 036d 636C 6561 		.string	"clearMacroPressedBuffer"
 2707      724D 6163 
 2707      726F 5072 
 2707      6573 7365 
 2707      6442 7566 
 2708               	.LASF54:
 2709 0385 4B45 595F 		.string	"KEY_SPACE"
 2709      5350 4143 
 2709      4500 
 2710               	.LASF124:
 2711 038f 4B45 595F 		.string	"KEY_SLEEP"
 2711      534C 4545 
 2711      5000 
 2712               	.LASF149:
 2713 0399 4B45 595F 		.string	"KEY_Multimedia_end"
 2713      4D75 6C74 
 2713      696D 6564 
 2713      6961 5F65 
 2713      6E64 00
 2714               	.LASF13:
 2715 03ac 4B45 595F 		.string	"KEY_ErrorUndefined"
 2715      4572 726F 
 2715      7255 6E64 
 2715      6566 696E 
 2715      6564 00
 2716               	.LASF131:
 2717 03bf 4B45 595F 		.string	"KEY_WWW_STOP"
 2717      5757 575F 
 2717      5354 4F50 
 2717      00
 2718               	.LASF154:
 2719 03cc 4B45 595F 		.string	"KEY_KP_EQUAL"
 2719      4B50 5F45 
 2719      5155 414C 
 2719      00
 2720               	.LASF49:
 2721 03d9 4B45 595F 		.string	"KEY_0"
 2721      3000 
 2722               	.LASF40:
 2723 03df 4B45 595F 		.string	"KEY_1"
 2723      3100 
 2724               	.LASF41:
 2725 03e5 4B45 595F 		.string	"KEY_2"
 2725      3200 
GAS LISTING C:\Users\ADMINI~1\AppData\Local\Temp/ccLmO1h6.s 			page 53


 2726               	.LASF42:
 2727 03eb 4B45 595F 		.string	"KEY_3"
 2727      3300 
 2728               	.LASF43:
 2729 03f1 4B45 595F 		.string	"KEY_4"
 2729      3400 
 2730               	.LASF44:
 2731 03f7 4B45 595F 		.string	"KEY_5"
 2731      3500 
 2732               	.LASF45:
 2733 03fd 4B45 595F 		.string	"KEY_6"
 2733      3600 
 2734               	.LASF46:
 2735 0403 4B45 595F 		.string	"KEY_7"
 2735      3700 
 2736               	.LASF47:
 2737 0409 4B45 595F 		.string	"KEY_8"
 2737      3800 
 2738               	.LASF48:
 2739 040f 4B45 595F 		.string	"KEY_9"
 2739      3900 
 2740               	.LASF55:
 2741 0415 4B45 595F 		.string	"KEY_MINUS"
 2741      4D49 4E55 
 2741      5300 
 2742               	.LASF125:
 2743 041f 4B45 595F 		.string	"KEY_WAKE"
 2743      5741 4B45 
 2743      00
 2744               	.LASF14:
 2745 0428 4B45 595F 		.string	"KEY_A"
 2745      4100 
 2746               	.LASF15:
 2747 042e 4B45 595F 		.string	"KEY_B"
 2747      4200 
 2748               	.LASF16:
 2749 0434 4B45 595F 		.string	"KEY_C"
 2749      4300 
 2750               	.LASF17:
 2751 043a 4B45 595F 		.string	"KEY_D"
 2751      4400 
 2752               	.LASF18:
 2753 0440 4B45 595F 		.string	"KEY_E"
 2753      4500 
 2754               	.LASF19:
 2755 0446 4B45 595F 		.string	"KEY_F"
 2755      4600 
 2756               	.LASF20:
 2757 044c 4B45 595F 		.string	"KEY_G"
 2757      4700 
 2758               	.LASF21:
 2759 0452 4B45 595F 		.string	"KEY_H"
 2759      4800 
 2760               	.LASF22:
 2761 0458 4B45 595F 		.string	"KEY_I"
 2761      4900 
 2762               	.LASF23:
GAS LISTING C:\Users\ADMINI~1\AppData\Local\Temp/ccLmO1h6.s 			page 54


 2763 045e 4B45 595F 		.string	"KEY_J"
 2763      4A00 
 2764               	.LASF24:
 2765 0464 4B45 595F 		.string	"KEY_K"
 2765      4B00 
 2766               	.LASF25:
 2767 046a 4B45 595F 		.string	"KEY_L"
 2767      4C00 
 2768               	.LASF26:
 2769 0470 4B45 595F 		.string	"KEY_M"
 2769      4D00 
 2770               	.LASF27:
 2771 0476 4B45 595F 		.string	"KEY_N"
 2771      4E00 
 2772               	.LASF28:
 2773 047c 4B45 595F 		.string	"KEY_O"
 2773      4F00 
 2774               	.LASF29:
 2775 0482 4B45 595F 		.string	"KEY_P"
 2775      5000 
 2776               	.LASF30:
 2777 0488 4B45 595F 		.string	"KEY_Q"
 2777      5100 
 2778               	.LASF31:
 2779 048e 4B45 595F 		.string	"KEY_R"
 2779      5200 
 2780               	.LASF32:
 2781 0494 4B45 595F 		.string	"KEY_S"
 2781      5300 
 2782               	.LASF33:
 2783 049a 4B45 595F 		.string	"KEY_T"
 2783      5400 
 2784               	.LASF34:
 2785 04a0 4B45 595F 		.string	"KEY_U"
 2785      5500 
 2786               	.LASF35:
 2787 04a6 4B45 595F 		.string	"KEY_V"
 2787      5600 
 2788               	.LASF36:
 2789 04ac 4B45 595F 		.string	"KEY_W"
 2789      5700 
 2790               	.LASF37:
 2791 04b2 4B45 595F 		.string	"KEY_X"
 2791      5800 
 2792               	.LASF38:
 2793 04b8 4B45 595F 		.string	"KEY_Y"
 2793      5900 
 2794               	.LASF39:
 2795 04be 4B45 595F 		.string	"KEY_Z"
 2795      5A00 
 2796               	.LASF212:
 2797 04c4 6973 456D 		.string	"isEmptyM"
 2797      7074 794D 
 2797      00
 2798               	.LASF164:
 2799 04cd 4B45 595F 		.string	"KEY_F22"
 2799      4632 3200 
GAS LISTING C:\Users\ADMINI~1\AppData\Local\Temp/ccLmO1h6.s 			page 55


 2800               	.LASF183:
 2801 04d5 4B45 595F 		.string	"KEY_LANG8"
 2801      4C41 4E47 
 2801      3800 
 2802               	.LASF166:
 2803 04df 4B45 595F 		.string	"KEY_F24"
 2803      4632 3400 
 2804               	.LASF134:
 2805 04e7 4B45 595F 		.string	"KEY_NEXT_TRK"
 2805      4E45 5854 
 2805      5F54 524B 
 2805      00
 2806               	.LASF202:
 2807 04f4 6753 7472 		.string	"gStr"
 2807      00
 2808               	.LASF95:
 2809 04f9 4B45 595F 		.string	"KEY_KP_AST"
 2809      4B50 5F41 
 2809      5354 00
 2810               	.LASF194:
 2811 0504 7849 7345 		.string	"xIsEnd"
 2811      6E64 00
 2812               	.LASF140:
 2813 050b 4B45 595F 		.string	"KEY_VOL_DOWN"
 2813      564F 4C5F 
 2813      444F 574E 
 2813      00
 2814               	.LASF148:
 2815 0518 4B45 595F 		.string	"KEY_EJECT"
 2815      454A 4543 
 2815      5400 
 2816               	.LASF121:
 2817 0522 4B45 595F 		.string	"KEY_Modifiers_end"
 2817      4D6F 6469 
 2817      6669 6572 
 2817      735F 656E 
 2817      6400 
 2818               	.LASF3:
 2819 0534 756E 7369 		.string	"unsigned char"
 2819      676E 6564 
 2819      2063 6861 
 2819      7200 
 2820               	.LASF144:
 2821 0542 4B45 595F 		.string	"KEY_SCREENSAVE"
 2821      5343 5245 
 2821      454E 5341 
 2821      5645 00
 2822               	.LASF185:
 2823 0551 4B45 595F 		.string	"KEY_extend_end"
 2823      6578 7465 
 2823      6E64 5F65 
 2823      6E64 00
 2824               	.LASF161:
 2825 0560 4B45 595F 		.string	"KEY_F19"
 2825      4631 3900 
 2826               	.LASF64:
 2827 0568 4B45 595F 		.string	"KEY_COMMA"
GAS LISTING C:\Users\ADMINI~1\AppData\Local\Temp/ccLmO1h6.s 			page 56


 2827      434F 4D4D 
 2827      4100 
 2828               	.LASF200:
 2829 0572 706F 704D 		.string	"popMWithKey"
 2829      5769 7468 
 2829      4B65 7900 
 2830               	.LASF53:
 2831 057e 4B45 595F 		.string	"KEY_TAB"
 2831      5441 4200 
 2832               	.LASF8:
 2833 0586 7368 6F72 		.string	"short int"
 2833      7420 696E 
 2833      7400 
 2834               	.LASF91:
 2835 0590 4B45 595F 		.string	"KEY_DOWN"
 2835      444F 574E 
 2835      00
 2836               	.LASF196:
 2837 0599 6368 6172 		.string	"charToKey"
 2837      546F 4B65 
 2837      7900 
 2838               	.LASF56:
 2839 05a3 4B45 595F 		.string	"KEY_EQUAL"
 2839      4551 5541 
 2839      4C00 
 2840               	.LASF213:
 2841 05ad 5F70 7265 		.string	"_pressedBuffer"
 2841      7373 6564 
 2841      4275 6666 
 2841      6572 00
 2842               	.LASF82:
 2843 05bc 4B45 595F 		.string	"KEY_PAUSE"
 2843      5041 5553 
 2843      4500 
 2844               	.LASF99:
 2845 05c6 4B45 595F 		.string	"KEY_KP_1"
 2845      4B50 5F31 
 2845      00
 2846               	.LASF100:
 2847 05cf 4B45 595F 		.string	"KEY_KP_2"
 2847      4B50 5F32 
 2847      00
 2848               	.LASF101:
 2849 05d8 4B45 595F 		.string	"KEY_KP_3"
 2849      4B50 5F33 
 2849      00
 2850               	.LASF85:
 2851 05e1 4B45 595F 		.string	"KEY_PGUP"
 2851      5047 5550 
 2851      00
 2852               	.LASF12:
 2853 05ea 4B45 595F 		.string	"KEY_POSTFail"
 2853      504F 5354 
 2853      4661 696C 
 2853      00
 2854               	.LASF104:
 2855 05f7 4B45 595F 		.string	"KEY_KP_6"
GAS LISTING C:\Users\ADMINI~1\AppData\Local\Temp/ccLmO1h6.s 			page 57


 2855      4B50 5F36 
 2855      00
 2856               	.LASF105:
 2857 0600 4B45 595F 		.string	"KEY_KP_7"
 2857      4B50 5F37 
 2857      00
 2858               	.LASF106:
 2859 0609 4B45 595F 		.string	"KEY_KP_8"
 2859      4B50 5F38 
 2859      00
 2860               	.LASF50:
 2861 0612 4B45 595F 		.string	"KEY_ENTER"
 2861      454E 5445 
 2861      5200 
 2862               	.LASF51:
 2863 061c 4B45 595F 		.string	"KEY_ESC"
 2863      4553 4300 
 2864               	.LASF108:
 2865 0624 4B45 595F 		.string	"KEY_KP_0"
 2865      4B50 5F30 
 2865      00
 2866               	.LASF9:
 2867 062d 6368 6172 		.string	"char"
 2867      00
 2868               	.LASF151:
 2869 0632 4B45 595F 		.string	"KEY_HANJA"
 2869      4841 4E4A 
 2869      4100 
 2870               	.LASF103:
 2871 063c 4B45 595F 		.string	"KEY_KP_5"
 2871      4B50 5F35 
 2871      00
 2872               	.LASF130:
 2873 0645 4B45 595F 		.string	"KEY_WWW_FORWARD"
 2873      5757 575F 
 2873      464F 5257 
 2873      4152 4400 
 2874               	.LASF107:
 2875 0655 4B45 595F 		.string	"KEY_KP_9"
 2875      4B50 5F39 
 2875      00
 2876               	.LASF208:
 2877 065e 6672 6F6E 		.string	"frontm"
 2877      746D 00
 2878               	.LASF102:
 2879 0665 4B45 595F 		.string	"KEY_KP_4"
 2879      4B50 5F34 
 2879      00
 2880               	.LASF126:
 2881 066e 4B45 595F 		.string	"KEY_EMAIL"
 2881      454D 4149 
 2881      4C00 
 2882               	.LASF153:
 2883 0678 4B45 595F 		.string	"KEY_KBD_POWER"
 2883      4B42 445F 
 2883      504F 5745 
 2883      5200 
GAS LISTING C:\Users\ADMINI~1\AppData\Local\Temp/ccLmO1h6.s 			page 58


 2884               	.LASF210:
 2885 0686 6D61 6372 		.string	"macrobuffer.c"
 2885      6F62 7566 
 2885      6665 722E 
 2885      6300 
 2886               	.LASF117:
 2887 0694 4B45 595F 		.string	"KEY_RCTRL"
 2887      5243 5452 
 2887      4C00 
 2888               	.LASF206:
 2889 069e 5155 4555 		.string	"QUEUE_M"
 2889      455F 4D00 
 2890               	.LASF59:
 2891 06a6 4B45 595F 		.string	"KEY_BKSLASH"
 2891      424B 534C 
 2891      4153 4800 
 2892               	.LASF205:
 2893 06b2 5F69 734D 		.string	"_isMacroProcessEnd"
 2893      6163 726F 
 2893      5072 6F63 
 2893      6573 7345 
 2893      6E64 00
 2894               	.LASF142:
 2895 06c5 4B45 595F 		.string	"KEY_CALC"
 2895      4341 4C43 
 2895      00
 2896               	.LASF169:
 2897 06ce 4B45 595F 		.string	"KEY_INT1"
 2897      494E 5431 
 2897      00
 2898               	.LASF170:
 2899 06d7 4B45 595F 		.string	"KEY_INT2"
 2899      494E 5432 
 2899      00
 2900               	.LASF171:
 2901 06e0 4B45 595F 		.string	"KEY_INT3"
 2901      494E 5433 
 2901      00
 2902               	.LASF172:
 2903 06e9 4B45 595F 		.string	"KEY_INT4"
 2903      494E 5434 
 2903      00
 2904               	.LASF173:
 2905 06f2 4B45 595F 		.string	"KEY_INT5"
 2905      494E 5435 
 2905      00
 2906               	.LASF174:
 2907 06fb 4B45 595F 		.string	"KEY_INT6"
 2907      494E 5436 
 2907      00
 2908               	.LASF175:
 2909 0704 4B45 595F 		.string	"KEY_INT7"
 2909      494E 5437 
 2909      00
 2910               	.LASF176:
 2911 070d 4B45 595F 		.string	"KEY_INT8"
 2911      494E 5438 
GAS LISTING C:\Users\ADMINI~1\AppData\Local\Temp/ccLmO1h6.s 			page 59


 2911      00
 2912               	.LASF177:
 2913 0716 4B45 595F 		.string	"KEY_INT9"
 2913      494E 5439 
 2913      00
 2914               	.LASF204:
 2915 071f 674C 656E 		.string	"gLen"
 2915      00
 2916               	.LASF115:
 2917 0724 4B45 595F 		.string	"KEY_LALT"
 2917      4C41 4C54 
 2917      00
 2918               	.LASF68:
 2919 072d 4B45 595F 		.string	"KEY_F1"
 2919      4631 00
 2920               	.LASF69:
 2921 0734 4B45 595F 		.string	"KEY_F2"
 2921      4632 00
 2922               	.LASF70:
 2923 073b 4B45 595F 		.string	"KEY_F3"
 2923      4633 00
 2924               	.LASF71:
 2925 0742 4B45 595F 		.string	"KEY_F4"
 2925      4634 00
 2926               	.LASF72:
 2927 0749 4B45 595F 		.string	"KEY_F5"
 2927      4635 00
 2928               	.LASF73:
 2929 0750 4B45 595F 		.string	"KEY_F6"
 2929      4636 00
 2930               	.LASF74:
 2931 0757 4B45 595F 		.string	"KEY_F7"
 2931      4637 00
 2932               	.LASF75:
 2933 075e 4B45 595F 		.string	"KEY_F8"
 2933      4638 00
 2934               	.LASF188:
 2935 0765 7569 6E74 		.string	"uint8_t"
 2935      385F 7400 
 2936               	.LASF84:
 2937 076d 4B45 595F 		.string	"KEY_HOME"
 2937      484F 4D45 
 2937      00
 2938               	.LASF146:
 2939 0776 4B45 595F 		.string	"KEY_REWIND"
 2939      5245 5749 
 2939      4E44 00
 2940               	.LASF211:
 2941 0781 443A 5C67 		.string	"D:\\git\\ps2avrU\\source"
 2941      6974 5C70 
 2941      7332 6176 
 2941      7255 5C73 
 2941      6F75 7263 
 2942               	.LASF111:
 2943 0797 4B45 595F 		.string	"KEY_APPS"
 2943      4150 5053 
 2943      00
GAS LISTING C:\Users\ADMINI~1\AppData\Local\Temp/ccLmO1h6.s 			page 60


 2944               	.LASF127:
 2945 07a0 4B45 595F 		.string	"KEY_WWW_SEARCH"
 2945      5757 575F 
 2945      5345 4152 
 2945      4348 00
 2946               	.LASF92:
 2947 07af 4B45 595F 		.string	"KEY_UP"
 2947      5550 00
 2948               	.LASF143:
 2949 07b6 4B45 595F 		.string	"KEY_MYCOM"
 2949      4D59 434F 
 2949      4D00 
 2950               	.LASF168:
 2951 07c0 4B45 595F 		.string	"KEY_EQUAL_SIGN"
 2951      4551 5541 
 2951      4C5F 5349 
 2951      474E 00
 2952               	.LASF76:
 2953 07cf 4B45 595F 		.string	"KEY_F9"
 2953      4639 00
 2954               	.LASF207:
 2955 07d6 7265 6172 		.string	"rearm"
 2955      6D00 
 2956               	.LASF189:
 2957 07dc 706F 704D 		.string	"popM"
 2957      00
 2958               	.LASF116:
 2959 07e1 4B45 595F 		.string	"KEY_LGUI"
 2959      4C47 5549 
 2959      00
 2960               	.LASF167:
 2961 07ea 4B45 595F 		.string	"KEY_KP_COMMA"
 2961      4B50 5F43 
 2961      4F4D 4D41 
 2961      00
 2962               	.LASF122:
 2963 07f7 4B45 595F 		.string	"KEY_Multimedia"
 2963      4D75 6C74 
 2963      696D 6564 
 2963      6961 00
 2964               	.LASF112:
 2965 0806 4B45 595F 		.string	"KEY_Modifiers"
 2965      4D6F 6469 
 2965      6669 6572 
 2965      7300 
 2966               	.global __do_copy_data
 2967               	.global __do_clear_bss
GAS LISTING C:\Users\ADMINI~1\AppData\Local\Temp/ccLmO1h6.s 			page 61


DEFINED SYMBOLS
                            *ABS*:00000000 macrobuffer.c
C:\Users\ADMINI~1\AppData\Local\Temp/ccLmO1h6.s:2      *ABS*:0000003f __SREG__
C:\Users\ADMINI~1\AppData\Local\Temp/ccLmO1h6.s:3      *ABS*:0000003e __SP_H__
C:\Users\ADMINI~1\AppData\Local\Temp/ccLmO1h6.s:4      *ABS*:0000003d __SP_L__
C:\Users\ADMINI~1\AppData\Local\Temp/ccLmO1h6.s:5      *ABS*:00000034 __CCP__
C:\Users\ADMINI~1\AppData\Local\Temp/ccLmO1h6.s:6      *ABS*:00000000 __tmp_reg__
C:\Users\ADMINI~1\AppData\Local\Temp/ccLmO1h6.s:7      *ABS*:00000001 __zero_reg__
C:\Users\ADMINI~1\AppData\Local\Temp/ccLmO1h6.s:18     .text:00000000 pushM
C:\Users\ADMINI~1\AppData\Local\Temp/ccLmO1h6.s:624    .bss:00000036 rearm
C:\Users\ADMINI~1\AppData\Local\Temp/ccLmO1h6.s:623    .bss:00000034 frontm
C:\Users\ADMINI~1\AppData\Local\Temp/ccLmO1h6.s:625    .bss:00000038 QUEUE_M
C:\Users\ADMINI~1\AppData\Local\Temp/ccLmO1h6.s:64     .text:0000004a popM
C:\Users\ADMINI~1\AppData\Local\Temp/ccLmO1h6.s:99     .text:00000082 isEmptyM
C:\Users\ADMINI~1\AppData\Local\Temp/ccLmO1h6.s:123    .text:000000a0 isMacroProcessEnd
C:\Users\ADMINI~1\AppData\Local\Temp/ccLmO1h6.s:622    .bss:00000033 _isMacroProcessEnd
C:\Users\ADMINI~1\AppData\Local\Temp/ccLmO1h6.s:156    .text:000000d0 setMacroProcessEnd
C:\Users\ADMINI~1\AppData\Local\Temp/ccLmO1h6.s:171    .text:000000d6 charToKey
C:\Users\ADMINI~1\AppData\Local\Temp/ccLmO1h6.s:487    .text:000001c0 toString
                             .bss:00000030 gStr.2111
C:\Users\ADMINI~1\AppData\Local\Temp/ccLmO1h6.s:514    .text:000001dc clearMacroPressedBuffer
C:\Users\ADMINI~1\AppData\Local\Temp/ccLmO1h6.s:620    .bss:00000000 _pressedBuffer
C:\Users\ADMINI~1\AppData\Local\Temp/ccLmO1h6.s:545    .text:00000202 popMWithKey

UNDEFINED SYMBOLS
__divmodhi4
itoa
findIndex
delete
append
__do_copy_data
__do_clear_bss
