GAS LISTING C:\Users\ADMINI~1\AppData\Local\Temp/cchZuvGY.s 			page 1


   1               		.file	"macrobuffer.c"
   2               	__SREG__ = 0x3f
   3               	__SP_H__ = 0x3e
   4               	__SP_L__ = 0x3d
   5               	__CCP__  = 0x34
   6               	__tmp_reg__ = 0
   7               	__zero_reg__ = 1
   8               		.section	.debug_abbrev,"",@progbits
   9               	.Ldebug_abbrev0:
  10               		.section	.debug_info,"",@progbits
  11               	.Ldebug_info0:
  12               		.section	.debug_line,"",@progbits
  13               	.Ldebug_line0:
  14               		.text
  15               	.Ltext0:
  16               	.global	pushM
  17               		.type	pushM, @function
  18               	pushM:
  19               	.LFB3:
  20               	.LM1:
  21               	.LVL0:
  22               	/* prologue: function */
  23               	/* frame size = 0 */
  24 0000 282F      		mov r18,r24
  25               	.LM2:
  26 0002 8091 0000 		lds r24,rearm
  27 0006 9091 0000 		lds r25,(rearm)+1
  28               	.LVL1:
  29 000a 0196      		adiw r24,1
  30 000c 60E0      		ldi r22,lo8(256)
  31 000e 71E0      		ldi r23,hi8(256)
  32 0010 0E94 0000 		call __divmodhi4
  33 0014 FC01      		movw r30,r24
  34 0016 9093 0000 		sts (rearm)+1,r25
  35 001a 8093 0000 		sts rearm,r24
  36               	.LM3:
  37 001e 8091 0000 		lds r24,frontm
  38 0022 9091 0000 		lds r25,(frontm)+1
  39 0026 8E17      		cp r24,r30
  40 0028 9F07      		cpc r25,r31
  41 002a 01F4      		brne .L2
  42               	.LM4:
  43 002c 0097      		sbiw r24,0
  44 002e 01F4      		brne .L3
  45 0030 8FEF      		ldi r24,lo8(255)
  46 0032 90E0      		ldi r25,hi8(255)
  47 0034 00C0      		rjmp .L4
  48               	.L3:
  49 0036 0197      		sbiw r24,1
  50               	.L4:
  51 0038 9093 0000 		sts (rearm)+1,r25
  52 003c 8093 0000 		sts rearm,r24
  53 0040 0895      		ret
  54               	.L2:
  55               	.LM5:
  56 0042 E050      		subi r30,lo8(-(QUEUE_M))
  57 0044 F040      		sbci r31,hi8(-(QUEUE_M))
GAS LISTING C:\Users\ADMINI~1\AppData\Local\Temp/cchZuvGY.s 			page 2


  58 0046 2083      		st Z,r18
  59 0048 0895      		ret
  60               	.LFE3:
  61               		.size	pushM, .-pushM
  62               	.global	popM
  63               		.type	popM, @function
  64               	popM:
  65               	.LFB4:
  66               	.LM6:
  67               	/* prologue: function */
  68               	/* frame size = 0 */
  69               	.LM7:
  70 004a 2091 0000 		lds r18,frontm
  71 004e 3091 0000 		lds r19,(frontm)+1
  72 0052 8091 0000 		lds r24,rearm
  73 0056 9091 0000 		lds r25,(rearm)+1
  74 005a 2817      		cp r18,r24
  75 005c 3907      		cpc r19,r25
  76 005e 01F4      		brne .L8
  77 0060 80E0      		ldi r24,lo8(0)
  78 0062 0895      		ret
  79               	.L8:
  80               	.LM8:
  81 0064 C901      		movw r24,r18
  82 0066 0196      		adiw r24,1
  83 0068 60E0      		ldi r22,lo8(256)
  84 006a 71E0      		ldi r23,hi8(256)
  85 006c 0E94 0000 		call __divmodhi4
  86 0070 FC01      		movw r30,r24
  87 0072 9093 0000 		sts (frontm)+1,r25
  88 0076 8093 0000 		sts frontm,r24
  89               	.LM9:
  90 007a E050      		subi r30,lo8(-(QUEUE_M))
  91 007c F040      		sbci r31,hi8(-(QUEUE_M))
  92 007e 8081      		ld r24,Z
  93               	.LM10:
  94 0080 0895      		ret
  95               	.LFE4:
  96               		.size	popM, .-popM
  97               	.global	isEmptyM
  98               		.type	isEmptyM, @function
  99               	isEmptyM:
 100               	.LFB6:
 101               	.LM11:
 102               	/* prologue: function */
 103               	/* frame size = 0 */
 104               	.LM12:
 105 0082 40E0      		ldi r20,lo8(0)
 106 0084 2091 0000 		lds r18,frontm
 107 0088 3091 0000 		lds r19,(frontm)+1
 108 008c 8091 0000 		lds r24,rearm
 109 0090 9091 0000 		lds r25,(rearm)+1
 110 0094 2817      		cp r18,r24
 111 0096 3907      		cpc r19,r25
 112 0098 01F4      		brne .L12
 113 009a 41E0      		ldi r20,lo8(1)
 114               	.L12:
GAS LISTING C:\Users\ADMINI~1\AppData\Local\Temp/cchZuvGY.s 			page 3


 115               	.LM13:
 116 009c 842F      		mov r24,r20
 117               	/* epilogue start */
 118 009e 0895      		ret
 119               	.LFE6:
 120               		.size	isEmptyM, .-isEmptyM
 121               	.global	isMacroProcessEnd
 122               		.type	isMacroProcessEnd, @function
 123               	isMacroProcessEnd:
 124               	.LFB8:
 125               	.LM14:
 126               	/* prologue: function */
 127               	/* frame size = 0 */
 128               	.LM15:
 129 00a0 8091 0000 		lds r24,_isMacroProcessEnd
 130 00a4 8823      		tst r24
 131 00a6 01F4      		brne .L15
 132 00a8 40E0      		ldi r20,lo8(0)
 133 00aa 50E0      		ldi r21,hi8(0)
 134 00ac 00C0      		rjmp .L16
 135               	.L15:
 136 00ae 40E0      		ldi r20,lo8(0)
 137 00b0 50E0      		ldi r21,hi8(0)
 138 00b2 2091 0000 		lds r18,frontm
 139 00b6 3091 0000 		lds r19,(frontm)+1
 140 00ba 8091 0000 		lds r24,rearm
 141 00be 9091 0000 		lds r25,(rearm)+1
 142 00c2 2817      		cp r18,r24
 143 00c4 3907      		cpc r19,r25
 144 00c6 01F4      		brne .L16
 145 00c8 41E0      		ldi r20,lo8(1)
 146 00ca 50E0      		ldi r21,hi8(1)
 147               	.L16:
 148               	.LM16:
 149 00cc 842F      		mov r24,r20
 150               	/* epilogue start */
 151 00ce 0895      		ret
 152               	.LFE8:
 153               		.size	isMacroProcessEnd, .-isMacroProcessEnd
 154               	.global	setMacroProcessEnd
 155               		.type	setMacroProcessEnd, @function
 156               	setMacroProcessEnd:
 157               	.LFB9:
 158               	.LM17:
 159               	.LVL2:
 160               	/* prologue: function */
 161               	/* frame size = 0 */
 162               	.LM18:
 163 00d0 8093 0000 		sts _isMacroProcessEnd,r24
 164               	/* epilogue start */
 165               	.LM19:
 166 00d4 0895      		ret
 167               	.LFE9:
 168               		.size	setMacroProcessEnd, .-setMacroProcessEnd
 169               	.global	charToKey
 170               		.type	charToKey, @function
 171               	charToKey:
GAS LISTING C:\Users\ADMINI~1\AppData\Local\Temp/cchZuvGY.s 			page 4


 172               	.LFB11:
 173               	.LM20:
 174               	.LVL3:
 175               	/* prologue: function */
 176               	/* frame size = 0 */
 177 00d6 982F      		mov r25,r24
 178               	.LM21:
 179 00d8 8156      		subi r24,lo8(-(-97))
 180               	.LVL4:
 181 00da 8A31      		cpi r24,lo8(26)
 182 00dc 00F4      		brsh .L22
 183               	.LM22:
 184 00de 292F      		mov r18,r25
 185 00e0 2D55      		subi r18,lo8(-(-93))
 186 00e2 00C0      		rjmp .L64
 187               	.L22:
 188               	.LM23:
 189 00e4 892F      		mov r24,r25
 190 00e6 8154      		subi r24,lo8(-(-65))
 191 00e8 8A31      		cpi r24,lo8(26)
 192 00ea 00F4      		brsh .L24
 193               	.LM24:
 194 00ec 292F      		mov r18,r25
 195 00ee 2D53      		subi r18,lo8(-(-61))
 196 00f0 32E0      		ldi r19,lo8(2)
 197 00f2 00C0      		rjmp .L23
 198               	.L24:
 199               	.LM25:
 200 00f4 892F      		mov r24,r25
 201 00f6 8153      		subi r24,lo8(-(-49))
 202 00f8 8930      		cpi r24,lo8(9)
 203 00fa 00F0      		brlo .L25
 204 00fc 20E0      		ldi r18,lo8(0)
 205 00fe 00C0      		rjmp .L64
 206               	.L25:
 207               	.LM26:
 208 0100 292F      		mov r18,r25
 209 0102 2351      		subi r18,lo8(-(-19))
 210               	.L64:
 211 0104 30E0      		ldi r19,lo8(0)
 212               	.L23:
 213               	.LM27:
 214 0106 892F      		mov r24,r25
 215 0108 9927      		clr r25
 216 010a 87FD      		sbrc r24,7
 217 010c 9095      		com r25
 218 010e A92F      		mov r26,r25
 219 0110 B92F      		mov r27,r25
 220               	.LVL5:
 221 0112 FC01      		movw r30,r24
 222               	.LVL6:
 223 0114 B097      		sbiw r30,32
 224 0116 EF35      		cpi r30,95
 225 0118 F105      		cpc r31,__zero_reg__
 226 011a 00F0      		brlo .+2
 227 011c 00C0      		rjmp .L26
 228 011e E050      		subi r30,lo8(-(gs(.L61)))
GAS LISTING C:\Users\ADMINI~1\AppData\Local\Temp/cchZuvGY.s 			page 5


 229 0120 F040      		sbci r31,hi8(-(gs(.L61)))
 230 0122 EE0F      		lsl r30
 231 0124 FF1F      		rol r31
 232 0126 0590      		lpm __tmp_reg__,Z+
 233 0128 F491      		lpm r31,Z
 234 012a E02D      		mov r30,__tmp_reg__
 235 012c 0994      		ijmp
 236               		.data
 237               		.section .progmem.gcc_sw_table, "a", @progbits
 238               		.p2align 1
 239               	.L61:
 240               		.data
 241               		.section .progmem.gcc_sw_table, "a", @progbits
 242               		.p2align 1
 243 0000 0000      		.word gs(.L27)
 244 0002 0000      		.word gs(.L28)
 245 0004 0000      		.word gs(.L29)
 246 0006 0000      		.word gs(.L30)
 247 0008 0000      		.word gs(.L31)
 248 000a 0000      		.word gs(.L32)
 249 000c 0000      		.word gs(.L33)
 250 000e 0000      		.word gs(.L34)
 251 0010 0000      		.word gs(.L35)
 252 0012 0000      		.word gs(.L36)
 253 0014 0000      		.word gs(.L37)
 254 0016 0000      		.word gs(.L38)
 255 0018 0000      		.word gs(.L39)
 256 001a 0000      		.word gs(.L40)
 257 001c 0000      		.word gs(.L41)
 258 001e 0000      		.word gs(.L42)
 259 0020 0000      		.word gs(.L43)
 260 0022 0000      		.word gs(.L26)
 261 0024 0000      		.word gs(.L26)
 262 0026 0000      		.word gs(.L26)
 263 0028 0000      		.word gs(.L26)
 264 002a 0000      		.word gs(.L26)
 265 002c 0000      		.word gs(.L26)
 266 002e 0000      		.word gs(.L26)
 267 0030 0000      		.word gs(.L26)
 268 0032 0000      		.word gs(.L26)
 269 0034 0000      		.word gs(.L44)
 270 0036 0000      		.word gs(.L45)
 271 0038 0000      		.word gs(.L46)
 272 003a 0000      		.word gs(.L47)
 273 003c 0000      		.word gs(.L48)
 274 003e 0000      		.word gs(.L66)
 275 0040 0000      		.word gs(.L50)
 276 0042 0000      		.word gs(.L26)
 277 0044 0000      		.word gs(.L26)
 278 0046 0000      		.word gs(.L26)
 279 0048 0000      		.word gs(.L26)
 280 004a 0000      		.word gs(.L26)
 281 004c 0000      		.word gs(.L26)
 282 004e 0000      		.word gs(.L26)
 283 0050 0000      		.word gs(.L26)
 284 0052 0000      		.word gs(.L26)
 285 0054 0000      		.word gs(.L26)
GAS LISTING C:\Users\ADMINI~1\AppData\Local\Temp/cchZuvGY.s 			page 6


 286 0056 0000      		.word gs(.L26)
 287 0058 0000      		.word gs(.L26)
 288 005a 0000      		.word gs(.L26)
 289 005c 0000      		.word gs(.L26)
 290 005e 0000      		.word gs(.L26)
 291 0060 0000      		.word gs(.L26)
 292 0062 0000      		.word gs(.L26)
 293 0064 0000      		.word gs(.L26)
 294 0066 0000      		.word gs(.L26)
 295 0068 0000      		.word gs(.L26)
 296 006a 0000      		.word gs(.L26)
 297 006c 0000      		.word gs(.L26)
 298 006e 0000      		.word gs(.L26)
 299 0070 0000      		.word gs(.L26)
 300 0072 0000      		.word gs(.L26)
 301 0074 0000      		.word gs(.L26)
 302 0076 0000      		.word gs(.L51)
 303 0078 0000      		.word gs(.L52)
 304 007a 0000      		.word gs(.L53)
 305 007c 0000      		.word gs(.L54)
 306 007e 0000      		.word gs(.L55)
 307 0080 0000      		.word gs(.L56)
 308 0082 0000      		.word gs(.L26)
 309 0084 0000      		.word gs(.L26)
 310 0086 0000      		.word gs(.L26)
 311 0088 0000      		.word gs(.L26)
 312 008a 0000      		.word gs(.L26)
 313 008c 0000      		.word gs(.L26)
 314 008e 0000      		.word gs(.L26)
 315 0090 0000      		.word gs(.L26)
 316 0092 0000      		.word gs(.L26)
 317 0094 0000      		.word gs(.L26)
 318 0096 0000      		.word gs(.L26)
 319 0098 0000      		.word gs(.L26)
 320 009a 0000      		.word gs(.L26)
 321 009c 0000      		.word gs(.L26)
 322 009e 0000      		.word gs(.L26)
 323 00a0 0000      		.word gs(.L26)
 324 00a2 0000      		.word gs(.L26)
 325 00a4 0000      		.word gs(.L26)
 326 00a6 0000      		.word gs(.L26)
 327 00a8 0000      		.word gs(.L26)
 328 00aa 0000      		.word gs(.L26)
 329 00ac 0000      		.word gs(.L26)
 330 00ae 0000      		.word gs(.L26)
 331 00b0 0000      		.word gs(.L26)
 332 00b2 0000      		.word gs(.L26)
 333 00b4 0000      		.word gs(.L26)
 334 00b6 0000      		.word gs(.L57)
 335 00b8 0000      		.word gs(.L58)
 336 00ba 0000      		.word gs(.L59)
 337 00bc 0000      		.word gs(.L60)
 338               		.text
 339               	.L28:
 340 012e 2EE1      		ldi r18,lo8(30)
 341 0130 00C0      		rjmp .L65
 342               	.L50:
GAS LISTING C:\Users\ADMINI~1\AppData\Local\Temp/cchZuvGY.s 			page 7


 343 0132 2FE1      		ldi r18,lo8(31)
 344 0134 00C0      		rjmp .L65
 345               	.L30:
 346               	.LM28:
 347 0136 20E2      		ldi r18,lo8(32)
 348 0138 00C0      		rjmp .L65
 349               	.L31:
 350               	.LM29:
 351 013a 21E2      		ldi r18,lo8(33)
 352 013c 00C0      		rjmp .L65
 353               	.L32:
 354               	.LM30:
 355 013e 22E2      		ldi r18,lo8(34)
 356 0140 00C0      		rjmp .L65
 357               	.L54:
 358               	.LM31:
 359 0142 23E2      		ldi r18,lo8(35)
 360 0144 00C0      		rjmp .L65
 361               	.L33:
 362               	.LM32:
 363 0146 24E2      		ldi r18,lo8(36)
 364 0148 00C0      		rjmp .L65
 365               	.L37:
 366               	.LM33:
 367 014a 25E2      		ldi r18,lo8(37)
 368 014c 00C0      		rjmp .L65
 369               	.L35:
 370               	.LM34:
 371 014e 26E2      		ldi r18,lo8(38)
 372 0150 00C0      		rjmp .L65
 373               	.L36:
 374               	.LM35:
 375 0152 27E2      		ldi r18,lo8(39)
 376 0154 00C0      		rjmp .L65
 377               	.L27:
 378               	.LM36:
 379 0156 2CE2      		ldi r18,lo8(44)
 380 0158 00C0      		rjmp .L62
 381               	.L40:
 382               	.LM37:
 383 015a 2DE2      		ldi r18,lo8(45)
 384 015c 00C0      		rjmp .L62
 385               	.L55:
 386               	.LM38:
 387 015e 2DE2      		ldi r18,lo8(45)
 388 0160 00C0      		rjmp .L65
 389               	.L47:
 390               	.LM39:
 391 0162 2EE2      		ldi r18,lo8(46)
 392 0164 00C0      		rjmp .L62
 393               	.L38:
 394               	.LM40:
 395 0166 2EE2      		ldi r18,lo8(46)
 396 0168 00C0      		rjmp .L65
 397               	.L51:
 398               	.LM41:
 399 016a 2FE2      		ldi r18,lo8(47)
GAS LISTING C:\Users\ADMINI~1\AppData\Local\Temp/cchZuvGY.s 			page 8


 400 016c 00C0      		rjmp .L62
 401               	.L57:
 402               	.LM42:
 403 016e 2FE2      		ldi r18,lo8(47)
 404 0170 00C0      		rjmp .L65
 405               	.L53:
 406               	.LM43:
 407 0172 20E3      		ldi r18,lo8(48)
 408 0174 00C0      		rjmp .L62
 409               	.L59:
 410               	.LM44:
 411 0176 20E3      		ldi r18,lo8(48)
 412 0178 00C0      		rjmp .L65
 413               	.L52:
 414               	.LM45:
 415 017a 21E3      		ldi r18,lo8(49)
 416 017c 00C0      		rjmp .L62
 417               	.L58:
 418               	.LM46:
 419 017e 21E3      		ldi r18,lo8(49)
 420 0180 00C0      		rjmp .L65
 421               	.L45:
 422               	.LM47:
 423 0182 23E3      		ldi r18,lo8(51)
 424 0184 00C0      		rjmp .L62
 425               	.L44:
 426               	.LM48:
 427 0186 23E3      		ldi r18,lo8(51)
 428 0188 00C0      		rjmp .L65
 429               	.L34:
 430               	.LM49:
 431 018a 24E3      		ldi r18,lo8(52)
 432 018c 00C0      		rjmp .L62
 433               	.L29:
 434               	.LM50:
 435 018e 24E3      		ldi r18,lo8(52)
 436 0190 00C0      		rjmp .L65
 437               	.L56:
 438               	.LM51:
 439 0192 25E3      		ldi r18,lo8(53)
 440 0194 00C0      		rjmp .L62
 441               	.L60:
 442               	.LM52:
 443 0196 25E3      		ldi r18,lo8(53)
 444 0198 00C0      		rjmp .L65
 445               	.L39:
 446               	.LM53:
 447 019a 26E3      		ldi r18,lo8(54)
 448 019c 00C0      		rjmp .L62
 449               	.L46:
 450               	.LM54:
 451 019e 26E3      		ldi r18,lo8(54)
 452 01a0 00C0      		rjmp .L65
 453               	.L41:
 454               	.LM55:
 455 01a2 27E3      		ldi r18,lo8(55)
 456 01a4 00C0      		rjmp .L62
GAS LISTING C:\Users\ADMINI~1\AppData\Local\Temp/cchZuvGY.s 			page 9


 457               	.L48:
 458               	.LM56:
 459 01a6 27E3      		ldi r18,lo8(55)
 460 01a8 00C0      		rjmp .L65
 461               	.L42:
 462               	.LM57:
 463 01aa 28E3      		ldi r18,lo8(56)
 464 01ac 00C0      		rjmp .L62
 465               	.L26:
 466               	.LM58:
 467 01ae 2223      		tst r18
 468 01b0 01F4      		brne .L62
 469               	.L66:
 470 01b2 28E3      		ldi r18,lo8(56)
 471               	.L65:
 472 01b4 32E0      		ldi r19,lo8(2)
 473               	.L62:
 474               	.LM59:
 475 01b6 832F      		mov r24,r19
 476 01b8 922F      		mov r25,r18
 477               	/* epilogue start */
 478 01ba 0895      		ret
 479               	.L43:
 480               	.LM60:
 481 01bc 27E2      		ldi r18,lo8(39)
 482 01be 00C0      		rjmp .L62
 483               	.LFE11:
 484               		.size	charToKey, .-charToKey
 485               	.global	toString
 486               		.type	toString, @function
 487               	toString:
 488               	.LFB10:
 489               	.LM61:
 490               	.LVL7:
 491 01c0 0F93      		push r16
 492 01c2 1F93      		push r17
 493               	/* prologue: function */
 494               	/* frame size = 0 */
 495               	.LM62:
 496 01c4 00E0      		ldi r16,lo8(gStr.2023)
 497 01c6 10E0      		ldi r17,hi8(gStr.2023)
 498 01c8 90E0      		ldi r25,lo8(0)
 499 01ca B801      		movw r22,r16
 500 01cc 4AE0      		ldi r20,lo8(10)
 501 01ce 50E0      		ldi r21,hi8(10)
 502 01d0 0E94 0000 		call itoa
 503               	.LVL8:
 504               	.LM63:
 505 01d4 C801      		movw r24,r16
 506               	/* epilogue start */
 507 01d6 1F91      		pop r17
 508 01d8 0F91      		pop r16
 509 01da 0895      		ret
 510               	.LFE10:
 511               		.size	toString, .-toString
 512               	.global	clearMacroPressedBuffer
 513               		.type	clearMacroPressedBuffer, @function
GAS LISTING C:\Users\ADMINI~1\AppData\Local\Temp/cchZuvGY.s 			page 10


 514               	clearMacroPressedBuffer:
 515               	.LFB7:
 516               	.LM64:
 517               	/* prologue: function */
 518               	/* frame size = 0 */
 519               	.LBB6:
 520               	.LBB7:
 521               	.LM65:
 522 01dc 2091 0000 		lds r18,frontm
 523 01e0 3091 0000 		lds r19,(frontm)+1
 524 01e4 8091 0000 		lds r24,rearm
 525 01e8 9091 0000 		lds r25,(rearm)+1
 526 01ec 2817      		cp r18,r24
 527 01ee 3907      		cpc r19,r25
 528 01f0 01F4      		brne .L71
 529               	.LBE7:
 530               	.LBE6:
 531               	.LM66:
 532 01f2 80E2      		ldi r24,lo8(32)
 533 01f4 E0E0      		ldi r30,lo8(_pressedBuffer)
 534 01f6 F0E0      		ldi r31,hi8(_pressedBuffer)
 535 01f8 DF01      		movw r26,r30
 536 01fa 1D92      		st X+,__zero_reg__
 537 01fc 8A95      	        dec r24
 538 01fe 01F4      		brne .-6
 539               	.L71:
 540 0200 0895      		ret
 541               	.LFE7:
 542               		.size	clearMacroPressedBuffer, .-clearMacroPressedBuffer
 543               	.global	popMWithKey
 544               		.type	popMWithKey, @function
 545               	popMWithKey:
 546               	.LFB5:
 547               	.LM67:
 548 0202 1F93      		push r17
 549 0204 CF93      		push r28
 550 0206 DF93      		push r29
 551               	/* prologue: function */
 552               	/* frame size = 0 */
 553               	.LM68:
 554 0208 0E94 0000 		call popM
 555 020c 182F      		mov r17,r24
 556 020e C0E0      		ldi r28,lo8(_pressedBuffer)
 557 0210 D0E0      		ldi r29,hi8(_pressedBuffer)
 558               	.LM69:
 559 0212 8823      		tst r24
 560 0214 01F4      		brne .L73
 561               	.LM70:
 562 0216 80E2      		ldi r24,lo8(32)
 563 0218 FE01      		movw r30,r28
 564 021a 1192      		st Z+,__zero_reg__
 565 021c 8A95      	        dec r24
 566 021e 01F4      		brne .-6
 567 0220 00C0      		rjmp .L77
 568               	.L73:
 569               	.LM71:
 570 0222 FE01      		movw r30,r28
GAS LISTING C:\Users\ADMINI~1\AppData\Local\Temp/cchZuvGY.s 			page 11


 571 0224 0190      		ld __tmp_reg__,Z+
 572 0226 0020      		tst __tmp_reg__
 573 0228 01F4      		brne .-6
 574 022a 3197      		sbiw r30,1
 575 022c E050      		subi r30,lo8(_pressedBuffer)
 576 022e F040      		sbci r31,hi8(_pressedBuffer)
 577               	.LM72:
 578 0230 CE01      		movw r24,r28
 579 0232 6E2F      		mov r22,r30
 580 0234 412F      		mov r20,r17
 581 0236 0E94 0000 		call findIndex
 582 023a BC01      		movw r22,r24
 583               	.LVL9:
 584               	.LM73:
 585 023c 97FD      		sbrc r25,7
 586 023e 00C0      		rjmp .L75
 587               	.LVL10:
 588               	.LM74:
 589 0240 CE01      		movw r24,r28
 590               	.LVL11:
 591 0242 0E94 0000 		call delete
 592               	.LVL12:
 593               	.L77:
 594 0246 80E0      		ldi r24,lo8(0)
 595 0248 00C0      		rjmp .L74
 596               	.LVL13:
 597               	.L75:
 598               	.LM75:
 599 024a CE01      		movw r24,r28
 600               	.LVL14:
 601 024c 612F      		mov r22,r17
 602               	.LVL15:
 603 024e 0E94 0000 		call append
 604 0252 81E0      		ldi r24,lo8(1)
 605               	.L74:
 606               	.LM76:
 607 0254 912F      		mov r25,r17
 608               	/* epilogue start */
 609 0256 DF91      		pop r29
 610 0258 CF91      		pop r28
 611 025a 1F91      		pop r17
 612 025c 0895      		ret
 613               	.LFE5:
 614               		.size	popMWithKey, .-popMWithKey
 615               	.global	_pressedBuffer
 616               	.global	_pressedBuffer
 617               		.section .bss
 618               		.type	_pressedBuffer, @object
 619               		.size	_pressedBuffer, 32
 620               	_pressedBuffer:
 621 0000 0000 0000 		.skip 32,0
 621      0000 0000 
 621      0000 0000 
 621      0000 0000 
 621      0000 0000 
 622               		.lcomm gStr.2023,3
 623               		.lcomm _isMacroProcessEnd,1
GAS LISTING C:\Users\ADMINI~1\AppData\Local\Temp/cchZuvGY.s 			page 12


 624               		.lcomm frontm,2
 625               		.lcomm rearm,2
 626               		.lcomm QUEUE_M,256
 627               		.section	.debug_frame,"",@progbits
 628               	.Lframe0:
 629 0000 0C00 0000 		.long	.LECIE0-.LSCIE0
 630               	.LSCIE0:
 631 0004 FFFF FFFF 		.long	0xffffffff
 632 0008 01        		.byte	0x1
 633 0009 00        		.string	""
 634 000a 01        		.uleb128 0x1
 635 000b 7F        		.sleb128 -1
 636 000c 24        		.byte	0x24
 637 000d 0C        		.byte	0xc
 638 000e 20        		.uleb128 0x20
 639 000f 00        		.uleb128 0x0
 640               		.p2align	2
 641               	.LECIE0:
 642               	.LSFDE0:
 643 0010 0C00 0000 		.long	.LEFDE0-.LASFDE0
 644               	.LASFDE0:
 645 0014 0000 0000 		.long	.Lframe0
 646 0018 0000 0000 		.long	.LFB3
 647 001c 4A00 0000 		.long	.LFE3-.LFB3
 648               		.p2align	2
 649               	.LEFDE0:
 650               	.LSFDE2:
 651 0020 0C00 0000 		.long	.LEFDE2-.LASFDE2
 652               	.LASFDE2:
 653 0024 0000 0000 		.long	.Lframe0
 654 0028 0000 0000 		.long	.LFB4
 655 002c 3800 0000 		.long	.LFE4-.LFB4
 656               		.p2align	2
 657               	.LEFDE2:
 658               	.LSFDE4:
 659 0030 0C00 0000 		.long	.LEFDE4-.LASFDE4
 660               	.LASFDE4:
 661 0034 0000 0000 		.long	.Lframe0
 662 0038 0000 0000 		.long	.LFB6
 663 003c 1E00 0000 		.long	.LFE6-.LFB6
 664               		.p2align	2
 665               	.LEFDE4:
 666               	.LSFDE6:
 667 0040 0C00 0000 		.long	.LEFDE6-.LASFDE6
 668               	.LASFDE6:
 669 0044 0000 0000 		.long	.Lframe0
 670 0048 0000 0000 		.long	.LFB8
 671 004c 3000 0000 		.long	.LFE8-.LFB8
 672               		.p2align	2
 673               	.LEFDE6:
 674               	.LSFDE8:
 675 0050 0C00 0000 		.long	.LEFDE8-.LASFDE8
 676               	.LASFDE8:
 677 0054 0000 0000 		.long	.Lframe0
 678 0058 0000 0000 		.long	.LFB9
 679 005c 0600 0000 		.long	.LFE9-.LFB9
 680               		.p2align	2
GAS LISTING C:\Users\ADMINI~1\AppData\Local\Temp/cchZuvGY.s 			page 13


 681               	.LEFDE8:
 682               	.LSFDE10:
 683 0060 0C00 0000 		.long	.LEFDE10-.LASFDE10
 684               	.LASFDE10:
 685 0064 0000 0000 		.long	.Lframe0
 686 0068 0000 0000 		.long	.LFB11
 687 006c EA00 0000 		.long	.LFE11-.LFB11
 688               		.p2align	2
 689               	.LEFDE10:
 690               	.LSFDE12:
 691 0070 0C00 0000 		.long	.LEFDE12-.LASFDE12
 692               	.LASFDE12:
 693 0074 0000 0000 		.long	.Lframe0
 694 0078 0000 0000 		.long	.LFB10
 695 007c 1C00 0000 		.long	.LFE10-.LFB10
 696               		.p2align	2
 697               	.LEFDE12:
 698               	.LSFDE14:
 699 0080 0C00 0000 		.long	.LEFDE14-.LASFDE14
 700               	.LASFDE14:
 701 0084 0000 0000 		.long	.Lframe0
 702 0088 0000 0000 		.long	.LFB7
 703 008c 2600 0000 		.long	.LFE7-.LFB7
 704               		.p2align	2
 705               	.LEFDE14:
 706               	.LSFDE16:
 707 0090 0C00 0000 		.long	.LEFDE16-.LASFDE16
 708               	.LASFDE16:
 709 0094 0000 0000 		.long	.Lframe0
 710 0098 0000 0000 		.long	.LFB5
 711 009c 5C00 0000 		.long	.LFE5-.LFB5
 712               		.p2align	2
 713               	.LEFDE16:
 714               		.text
 715               	.Letext0:
 716               		.section	.debug_loc,"",@progbits
 717               	.Ldebug_loc0:
 718               	.LLST1:
 719 0000 0000 0000 		.long	.LVL0-.Ltext0
 720 0004 0A00 0000 		.long	.LVL1-.Ltext0
 721 0008 0100      		.word	0x1
 722 000a 68        		.byte	0x68
 723 000b 0A00 0000 		.long	.LVL1-.Ltext0
 724 000f 4A00 0000 		.long	.LFE3-.Ltext0
 725 0013 0100      		.word	0x1
 726 0015 62        		.byte	0x62
 727 0016 0000 0000 		.long	0x0
 728 001a 0000 0000 		.long	0x0
 729               	.LLST7:
 730 001e D600 0000 		.long	.LVL3-.Ltext0
 731 0022 DA00 0000 		.long	.LVL4-.Ltext0
 732 0026 0100      		.word	0x1
 733 0028 68        		.byte	0x68
 734 0029 DA00 0000 		.long	.LVL4-.Ltext0
 735 002d 1201 0000 		.long	.LVL5-.Ltext0
 736 0031 0100      		.word	0x1
 737 0033 69        		.byte	0x69
GAS LISTING C:\Users\ADMINI~1\AppData\Local\Temp/cchZuvGY.s 			page 14


 738 0034 1201 0000 		.long	.LVL5-.Ltext0
 739 0038 1401 0000 		.long	.LVL6-.Ltext0
 740 003c 0100      		.word	0x1
 741 003e 68        		.byte	0x68
 742 003f 0000 0000 		.long	0x0
 743 0043 0000 0000 		.long	0x0
 744               	.LLST9:
 745 0047 C001 0000 		.long	.LVL7-.Ltext0
 746 004b D401 0000 		.long	.LVL8-.Ltext0
 747 004f 0100      		.word	0x1
 748 0051 68        		.byte	0x68
 749 0052 0000 0000 		.long	0x0
 750 0056 0000 0000 		.long	0x0
 751               	.LLST12:
 752 005a 3C02 0000 		.long	.LVL9-.Ltext0
 753 005e 4002 0000 		.long	.LVL10-.Ltext0
 754 0062 0600      		.word	0x6
 755 0064 66        		.byte	0x66
 756 0065 93        		.byte	0x93
 757 0066 01        		.uleb128 0x1
 758 0067 67        		.byte	0x67
 759 0068 93        		.byte	0x93
 760 0069 01        		.uleb128 0x1
 761 006a 4002 0000 		.long	.LVL10-.Ltext0
 762 006e 4202 0000 		.long	.LVL11-.Ltext0
 763 0072 0600      		.word	0x6
 764 0074 68        		.byte	0x68
 765 0075 93        		.byte	0x93
 766 0076 01        		.uleb128 0x1
 767 0077 69        		.byte	0x69
 768 0078 93        		.byte	0x93
 769 0079 01        		.uleb128 0x1
 770 007a 4202 0000 		.long	.LVL11-.Ltext0
 771 007e 4602 0000 		.long	.LVL12-.Ltext0
 772 0082 0600      		.word	0x6
 773 0084 66        		.byte	0x66
 774 0085 93        		.byte	0x93
 775 0086 01        		.uleb128 0x1
 776 0087 67        		.byte	0x67
 777 0088 93        		.byte	0x93
 778 0089 01        		.uleb128 0x1
 779 008a 4A02 0000 		.long	.LVL13-.Ltext0
 780 008e 4C02 0000 		.long	.LVL14-.Ltext0
 781 0092 0600      		.word	0x6
 782 0094 68        		.byte	0x68
 783 0095 93        		.byte	0x93
 784 0096 01        		.uleb128 0x1
 785 0097 69        		.byte	0x69
 786 0098 93        		.byte	0x93
 787 0099 01        		.uleb128 0x1
 788 009a 4C02 0000 		.long	.LVL14-.Ltext0
 789 009e 4E02 0000 		.long	.LVL15-.Ltext0
 790 00a2 0600      		.word	0x6
 791 00a4 66        		.byte	0x66
 792 00a5 93        		.byte	0x93
 793 00a6 01        		.uleb128 0x1
 794 00a7 67        		.byte	0x67
GAS LISTING C:\Users\ADMINI~1\AppData\Local\Temp/cchZuvGY.s 			page 15


 795 00a8 93        		.byte	0x93
 796 00a9 01        		.uleb128 0x1
 797 00aa 0000 0000 		.long	0x0
 798 00ae 0000 0000 		.long	0x0
 799               		.section	.debug_info
 800 0000 6906 0000 		.long	0x669
 801 0004 0200      		.word	0x2
 802 0006 0000 0000 		.long	.Ldebug_abbrev0
 803 000a 04        		.byte	0x4
 804 000b 01        		.uleb128 0x1
 805 000c 0000 0000 		.long	.LASF175
 806 0010 01        		.byte	0x1
 807 0011 0000 0000 		.long	.LASF176
 808 0015 0000 0000 		.long	.LASF177
 809 0019 0000 0000 		.long	.Ltext0
 810 001d 0000 0000 		.long	.Letext0
 811 0021 0000 0000 		.long	.Ldebug_line0
 812 0025 02        		.uleb128 0x2
 813 0026 02        		.byte	0x2
 814 0027 07        		.byte	0x7
 815 0028 0000 0000 		.long	.LASF0
 816 002c 03        		.uleb128 0x3
 817 002d 02        		.byte	0x2
 818 002e 05        		.byte	0x5
 819 002f 696E 7400 		.string	"int"
 820 0033 02        		.uleb128 0x2
 821 0034 04        		.byte	0x4
 822 0035 05        		.byte	0x5
 823 0036 0000 0000 		.long	.LASF1
 824 003a 02        		.uleb128 0x2
 825 003b 01        		.byte	0x1
 826 003c 06        		.byte	0x6
 827 003d 0000 0000 		.long	.LASF2
 828 0041 04        		.uleb128 0x4
 829 0042 0000 0000 		.long	.LASF154
 830 0046 03        		.byte	0x3
 831 0047 7A        		.byte	0x7a
 832 0048 4C00 0000 		.long	0x4c
 833 004c 02        		.uleb128 0x2
 834 004d 01        		.byte	0x1
 835 004e 08        		.byte	0x8
 836 004f 0000 0000 		.long	.LASF3
 837 0053 02        		.uleb128 0x2
 838 0054 04        		.byte	0x4
 839 0055 07        		.byte	0x7
 840 0056 0000 0000 		.long	.LASF4
 841 005a 02        		.uleb128 0x2
 842 005b 08        		.byte	0x8
 843 005c 05        		.byte	0x5
 844 005d 0000 0000 		.long	.LASF5
 845 0061 02        		.uleb128 0x2
 846 0062 08        		.byte	0x8
 847 0063 07        		.byte	0x7
 848 0064 0000 0000 		.long	.LASF6
 849 0068 05        		.uleb128 0x5
 850 0069 01        		.byte	0x1
 851 006a 06        		.byte	0x6
GAS LISTING C:\Users\ADMINI~1\AppData\Local\Temp/cchZuvGY.s 			page 16


 852 006b 05        		.uleb128 0x5
 853 006c 01        		.byte	0x1
 854 006d 08        		.byte	0x8
 855 006e 06        		.uleb128 0x6
 856 006f 02        		.byte	0x2
 857 0070 04        		.byte	0x4
 858 0071 26        		.byte	0x26
 859 0072 2704 0000 		.long	0x427
 860 0076 07        		.uleb128 0x7
 861 0077 0000 0000 		.long	.LASF7
 862 007b 00        		.sleb128 0
 863 007c 07        		.uleb128 0x7
 864 007d 0000 0000 		.long	.LASF8
 865 0081 01        		.sleb128 1
 866 0082 07        		.uleb128 0x7
 867 0083 0000 0000 		.long	.LASF9
 868 0087 02        		.sleb128 2
 869 0088 07        		.uleb128 0x7
 870 0089 0000 0000 		.long	.LASF10
 871 008d 03        		.sleb128 3
 872 008e 07        		.uleb128 0x7
 873 008f 0000 0000 		.long	.LASF11
 874 0093 04        		.sleb128 4
 875 0094 07        		.uleb128 0x7
 876 0095 0000 0000 		.long	.LASF12
 877 0099 05        		.sleb128 5
 878 009a 07        		.uleb128 0x7
 879 009b 0000 0000 		.long	.LASF13
 880 009f 06        		.sleb128 6
 881 00a0 07        		.uleb128 0x7
 882 00a1 0000 0000 		.long	.LASF14
 883 00a5 07        		.sleb128 7
 884 00a6 07        		.uleb128 0x7
 885 00a7 0000 0000 		.long	.LASF15
 886 00ab 08        		.sleb128 8
 887 00ac 07        		.uleb128 0x7
 888 00ad 0000 0000 		.long	.LASF16
 889 00b1 09        		.sleb128 9
 890 00b2 07        		.uleb128 0x7
 891 00b3 0000 0000 		.long	.LASF17
 892 00b7 0A        		.sleb128 10
 893 00b8 07        		.uleb128 0x7
 894 00b9 0000 0000 		.long	.LASF18
 895 00bd 0B        		.sleb128 11
 896 00be 07        		.uleb128 0x7
 897 00bf 0000 0000 		.long	.LASF19
 898 00c3 0C        		.sleb128 12
 899 00c4 07        		.uleb128 0x7
 900 00c5 0000 0000 		.long	.LASF20
 901 00c9 0D        		.sleb128 13
 902 00ca 07        		.uleb128 0x7
 903 00cb 0000 0000 		.long	.LASF21
 904 00cf 0E        		.sleb128 14
 905 00d0 07        		.uleb128 0x7
 906 00d1 0000 0000 		.long	.LASF22
 907 00d5 0F        		.sleb128 15
 908 00d6 07        		.uleb128 0x7
GAS LISTING C:\Users\ADMINI~1\AppData\Local\Temp/cchZuvGY.s 			page 17


 909 00d7 0000 0000 		.long	.LASF23
 910 00db 10        		.sleb128 16
 911 00dc 07        		.uleb128 0x7
 912 00dd 0000 0000 		.long	.LASF24
 913 00e1 11        		.sleb128 17
 914 00e2 07        		.uleb128 0x7
 915 00e3 0000 0000 		.long	.LASF25
 916 00e7 12        		.sleb128 18
 917 00e8 07        		.uleb128 0x7
 918 00e9 0000 0000 		.long	.LASF26
 919 00ed 13        		.sleb128 19
 920 00ee 07        		.uleb128 0x7
 921 00ef 0000 0000 		.long	.LASF27
 922 00f3 14        		.sleb128 20
 923 00f4 07        		.uleb128 0x7
 924 00f5 0000 0000 		.long	.LASF28
 925 00f9 15        		.sleb128 21
 926 00fa 07        		.uleb128 0x7
 927 00fb 0000 0000 		.long	.LASF29
 928 00ff 16        		.sleb128 22
 929 0100 07        		.uleb128 0x7
 930 0101 0000 0000 		.long	.LASF30
 931 0105 17        		.sleb128 23
 932 0106 07        		.uleb128 0x7
 933 0107 0000 0000 		.long	.LASF31
 934 010b 18        		.sleb128 24
 935 010c 07        		.uleb128 0x7
 936 010d 0000 0000 		.long	.LASF32
 937 0111 19        		.sleb128 25
 938 0112 07        		.uleb128 0x7
 939 0113 0000 0000 		.long	.LASF33
 940 0117 1A        		.sleb128 26
 941 0118 07        		.uleb128 0x7
 942 0119 0000 0000 		.long	.LASF34
 943 011d 1B        		.sleb128 27
 944 011e 07        		.uleb128 0x7
 945 011f 0000 0000 		.long	.LASF35
 946 0123 1C        		.sleb128 28
 947 0124 07        		.uleb128 0x7
 948 0125 0000 0000 		.long	.LASF36
 949 0129 1D        		.sleb128 29
 950 012a 07        		.uleb128 0x7
 951 012b 0000 0000 		.long	.LASF37
 952 012f 1E        		.sleb128 30
 953 0130 07        		.uleb128 0x7
 954 0131 0000 0000 		.long	.LASF38
 955 0135 1F        		.sleb128 31
 956 0136 07        		.uleb128 0x7
 957 0137 0000 0000 		.long	.LASF39
 958 013b 20        		.sleb128 32
 959 013c 07        		.uleb128 0x7
 960 013d 0000 0000 		.long	.LASF40
 961 0141 21        		.sleb128 33
 962 0142 07        		.uleb128 0x7
 963 0143 0000 0000 		.long	.LASF41
 964 0147 22        		.sleb128 34
 965 0148 07        		.uleb128 0x7
GAS LISTING C:\Users\ADMINI~1\AppData\Local\Temp/cchZuvGY.s 			page 18


 966 0149 0000 0000 		.long	.LASF42
 967 014d 23        		.sleb128 35
 968 014e 07        		.uleb128 0x7
 969 014f 0000 0000 		.long	.LASF43
 970 0153 24        		.sleb128 36
 971 0154 07        		.uleb128 0x7
 972 0155 0000 0000 		.long	.LASF44
 973 0159 25        		.sleb128 37
 974 015a 07        		.uleb128 0x7
 975 015b 0000 0000 		.long	.LASF45
 976 015f 26        		.sleb128 38
 977 0160 07        		.uleb128 0x7
 978 0161 0000 0000 		.long	.LASF46
 979 0165 27        		.sleb128 39
 980 0166 07        		.uleb128 0x7
 981 0167 0000 0000 		.long	.LASF47
 982 016b 28        		.sleb128 40
 983 016c 07        		.uleb128 0x7
 984 016d 0000 0000 		.long	.LASF48
 985 0171 29        		.sleb128 41
 986 0172 07        		.uleb128 0x7
 987 0173 0000 0000 		.long	.LASF49
 988 0177 2A        		.sleb128 42
 989 0178 07        		.uleb128 0x7
 990 0179 0000 0000 		.long	.LASF50
 991 017d 2B        		.sleb128 43
 992 017e 07        		.uleb128 0x7
 993 017f 0000 0000 		.long	.LASF51
 994 0183 2C        		.sleb128 44
 995 0184 07        		.uleb128 0x7
 996 0185 0000 0000 		.long	.LASF52
 997 0189 2D        		.sleb128 45
 998 018a 07        		.uleb128 0x7
 999 018b 0000 0000 		.long	.LASF53
 1000 018f 2E        		.sleb128 46
 1001 0190 07        		.uleb128 0x7
 1002 0191 0000 0000 		.long	.LASF54
 1003 0195 2F        		.sleb128 47
 1004 0196 07        		.uleb128 0x7
 1005 0197 0000 0000 		.long	.LASF55
 1006 019b 30        		.sleb128 48
 1007 019c 07        		.uleb128 0x7
 1008 019d 0000 0000 		.long	.LASF56
 1009 01a1 31        		.sleb128 49
 1010 01a2 07        		.uleb128 0x7
 1011 01a3 0000 0000 		.long	.LASF57
 1012 01a7 32        		.sleb128 50
 1013 01a8 07        		.uleb128 0x7
 1014 01a9 0000 0000 		.long	.LASF58
 1015 01ad 33        		.sleb128 51
 1016 01ae 07        		.uleb128 0x7
 1017 01af 0000 0000 		.long	.LASF59
 1018 01b3 34        		.sleb128 52
 1019 01b4 07        		.uleb128 0x7
 1020 01b5 0000 0000 		.long	.LASF60
 1021 01b9 35        		.sleb128 53
 1022 01ba 07        		.uleb128 0x7
GAS LISTING C:\Users\ADMINI~1\AppData\Local\Temp/cchZuvGY.s 			page 19


 1023 01bb 0000 0000 		.long	.LASF61
 1024 01bf 36        		.sleb128 54
 1025 01c0 07        		.uleb128 0x7
 1026 01c1 0000 0000 		.long	.LASF62
 1027 01c5 37        		.sleb128 55
 1028 01c6 07        		.uleb128 0x7
 1029 01c7 0000 0000 		.long	.LASF63
 1030 01cb 38        		.sleb128 56
 1031 01cc 07        		.uleb128 0x7
 1032 01cd 0000 0000 		.long	.LASF64
 1033 01d1 39        		.sleb128 57
 1034 01d2 07        		.uleb128 0x7
 1035 01d3 0000 0000 		.long	.LASF65
 1036 01d7 3A        		.sleb128 58
 1037 01d8 07        		.uleb128 0x7
 1038 01d9 0000 0000 		.long	.LASF66
 1039 01dd 3B        		.sleb128 59
 1040 01de 07        		.uleb128 0x7
 1041 01df 0000 0000 		.long	.LASF67
 1042 01e3 3C        		.sleb128 60
 1043 01e4 07        		.uleb128 0x7
 1044 01e5 0000 0000 		.long	.LASF68
 1045 01e9 3D        		.sleb128 61
 1046 01ea 07        		.uleb128 0x7
 1047 01eb 0000 0000 		.long	.LASF69
 1048 01ef 3E        		.sleb128 62
 1049 01f0 07        		.uleb128 0x7
 1050 01f1 0000 0000 		.long	.LASF70
 1051 01f5 3F        		.sleb128 63
 1052 01f6 07        		.uleb128 0x7
 1053 01f7 0000 0000 		.long	.LASF71
 1054 01fb C000      		.sleb128 64
 1055 01fd 07        		.uleb128 0x7
 1056 01fe 0000 0000 		.long	.LASF72
 1057 0202 C100      		.sleb128 65
 1058 0204 07        		.uleb128 0x7
 1059 0205 0000 0000 		.long	.LASF73
 1060 0209 C200      		.sleb128 66
 1061 020b 07        		.uleb128 0x7
 1062 020c 0000 0000 		.long	.LASF74
 1063 0210 C300      		.sleb128 67
 1064 0212 07        		.uleb128 0x7
 1065 0213 0000 0000 		.long	.LASF75
 1066 0217 C400      		.sleb128 68
 1067 0219 07        		.uleb128 0x7
 1068 021a 0000 0000 		.long	.LASF76
 1069 021e C500      		.sleb128 69
 1070 0220 07        		.uleb128 0x7
 1071 0221 0000 0000 		.long	.LASF77
 1072 0225 C600      		.sleb128 70
 1073 0227 07        		.uleb128 0x7
 1074 0228 0000 0000 		.long	.LASF78
 1075 022c C700      		.sleb128 71
 1076 022e 07        		.uleb128 0x7
 1077 022f 0000 0000 		.long	.LASF79
 1078 0233 C800      		.sleb128 72
 1079 0235 07        		.uleb128 0x7
GAS LISTING C:\Users\ADMINI~1\AppData\Local\Temp/cchZuvGY.s 			page 20


 1080 0236 0000 0000 		.long	.LASF80
 1081 023a C900      		.sleb128 73
 1082 023c 07        		.uleb128 0x7
 1083 023d 0000 0000 		.long	.LASF81
 1084 0241 CA00      		.sleb128 74
 1085 0243 07        		.uleb128 0x7
 1086 0244 0000 0000 		.long	.LASF82
 1087 0248 CB00      		.sleb128 75
 1088 024a 07        		.uleb128 0x7
 1089 024b 0000 0000 		.long	.LASF83
 1090 024f CC00      		.sleb128 76
 1091 0251 07        		.uleb128 0x7
 1092 0252 0000 0000 		.long	.LASF84
 1093 0256 CD00      		.sleb128 77
 1094 0258 07        		.uleb128 0x7
 1095 0259 0000 0000 		.long	.LASF85
 1096 025d CE00      		.sleb128 78
 1097 025f 07        		.uleb128 0x7
 1098 0260 0000 0000 		.long	.LASF86
 1099 0264 CF00      		.sleb128 79
 1100 0266 07        		.uleb128 0x7
 1101 0267 0000 0000 		.long	.LASF87
 1102 026b D000      		.sleb128 80
 1103 026d 07        		.uleb128 0x7
 1104 026e 0000 0000 		.long	.LASF88
 1105 0272 D100      		.sleb128 81
 1106 0274 07        		.uleb128 0x7
 1107 0275 0000 0000 		.long	.LASF89
 1108 0279 D200      		.sleb128 82
 1109 027b 07        		.uleb128 0x7
 1110 027c 0000 0000 		.long	.LASF90
 1111 0280 D300      		.sleb128 83
 1112 0282 07        		.uleb128 0x7
 1113 0283 0000 0000 		.long	.LASF91
 1114 0287 D400      		.sleb128 84
 1115 0289 07        		.uleb128 0x7
 1116 028a 0000 0000 		.long	.LASF92
 1117 028e D500      		.sleb128 85
 1118 0290 07        		.uleb128 0x7
 1119 0291 0000 0000 		.long	.LASF93
 1120 0295 D600      		.sleb128 86
 1121 0297 07        		.uleb128 0x7
 1122 0298 0000 0000 		.long	.LASF94
 1123 029c D700      		.sleb128 87
 1124 029e 07        		.uleb128 0x7
 1125 029f 0000 0000 		.long	.LASF95
 1126 02a3 D800      		.sleb128 88
 1127 02a5 07        		.uleb128 0x7
 1128 02a6 0000 0000 		.long	.LASF96
 1129 02aa D900      		.sleb128 89
 1130 02ac 07        		.uleb128 0x7
 1131 02ad 0000 0000 		.long	.LASF97
 1132 02b1 DA00      		.sleb128 90
 1133 02b3 07        		.uleb128 0x7
 1134 02b4 0000 0000 		.long	.LASF98
 1135 02b8 DB00      		.sleb128 91
 1136 02ba 07        		.uleb128 0x7
GAS LISTING C:\Users\ADMINI~1\AppData\Local\Temp/cchZuvGY.s 			page 21


 1137 02bb 0000 0000 		.long	.LASF99
 1138 02bf DC00      		.sleb128 92
 1139 02c1 07        		.uleb128 0x7
 1140 02c2 0000 0000 		.long	.LASF100
 1141 02c6 DD00      		.sleb128 93
 1142 02c8 07        		.uleb128 0x7
 1143 02c9 0000 0000 		.long	.LASF101
 1144 02cd DE00      		.sleb128 94
 1145 02cf 07        		.uleb128 0x7
 1146 02d0 0000 0000 		.long	.LASF102
 1147 02d4 DF00      		.sleb128 95
 1148 02d6 07        		.uleb128 0x7
 1149 02d7 0000 0000 		.long	.LASF103
 1150 02db E000      		.sleb128 96
 1151 02dd 07        		.uleb128 0x7
 1152 02de 0000 0000 		.long	.LASF104
 1153 02e2 E100      		.sleb128 97
 1154 02e4 07        		.uleb128 0x7
 1155 02e5 0000 0000 		.long	.LASF105
 1156 02e9 E200      		.sleb128 98
 1157 02eb 07        		.uleb128 0x7
 1158 02ec 0000 0000 		.long	.LASF106
 1159 02f0 E300      		.sleb128 99
 1160 02f2 07        		.uleb128 0x7
 1161 02f3 0000 0000 		.long	.LASF107
 1162 02f7 E400      		.sleb128 100
 1163 02f9 07        		.uleb128 0x7
 1164 02fa 0000 0000 		.long	.LASF108
 1165 02fe E500      		.sleb128 101
 1166 0300 07        		.uleb128 0x7
 1167 0301 0000 0000 		.long	.LASF109
 1168 0305 E600      		.sleb128 102
 1169 0307 07        		.uleb128 0x7
 1170 0308 0000 0000 		.long	.LASF110
 1171 030c E700      		.sleb128 103
 1172 030e 07        		.uleb128 0x7
 1173 030f 0000 0000 		.long	.LASF111
 1174 0313 E800      		.sleb128 104
 1175 0315 07        		.uleb128 0x7
 1176 0316 0000 0000 		.long	.LASF112
 1177 031a E900      		.sleb128 105
 1178 031c 07        		.uleb128 0x7
 1179 031d 0000 0000 		.long	.LASF113
 1180 0321 EA00      		.sleb128 106
 1181 0323 07        		.uleb128 0x7
 1182 0324 0000 0000 		.long	.LASF114
 1183 0328 EB00      		.sleb128 107
 1184 032a 07        		.uleb128 0x7
 1185 032b 0000 0000 		.long	.LASF115
 1186 032f EC00      		.sleb128 108
 1187 0331 07        		.uleb128 0x7
 1188 0332 0000 0000 		.long	.LASF116
 1189 0336 ED00      		.sleb128 109
 1190 0338 07        		.uleb128 0x7
 1191 0339 0000 0000 		.long	.LASF117
 1192 033d EE00      		.sleb128 110
 1193 033f 07        		.uleb128 0x7
GAS LISTING C:\Users\ADMINI~1\AppData\Local\Temp/cchZuvGY.s 			page 22


 1194 0340 0000 0000 		.long	.LASF118
 1195 0344 EF00      		.sleb128 111
 1196 0346 07        		.uleb128 0x7
 1197 0347 0000 0000 		.long	.LASF119
 1198 034b F000      		.sleb128 112
 1199 034d 07        		.uleb128 0x7
 1200 034e 0000 0000 		.long	.LASF120
 1201 0352 F100      		.sleb128 113
 1202 0354 07        		.uleb128 0x7
 1203 0355 0000 0000 		.long	.LASF121
 1204 0359 F200      		.sleb128 114
 1205 035b 07        		.uleb128 0x7
 1206 035c 0000 0000 		.long	.LASF122
 1207 0360 F300      		.sleb128 115
 1208 0362 07        		.uleb128 0x7
 1209 0363 0000 0000 		.long	.LASF123
 1210 0367 F400      		.sleb128 116
 1211 0369 07        		.uleb128 0x7
 1212 036a 0000 0000 		.long	.LASF124
 1213 036e F500      		.sleb128 117
 1214 0370 07        		.uleb128 0x7
 1215 0371 0000 0000 		.long	.LASF125
 1216 0375 F600      		.sleb128 118
 1217 0377 07        		.uleb128 0x7
 1218 0378 0000 0000 		.long	.LASF126
 1219 037c F700      		.sleb128 119
 1220 037e 07        		.uleb128 0x7
 1221 037f 0000 0000 		.long	.LASF127
 1222 0383 F800      		.sleb128 120
 1223 0385 07        		.uleb128 0x7
 1224 0386 0000 0000 		.long	.LASF128
 1225 038a F900      		.sleb128 121
 1226 038c 07        		.uleb128 0x7
 1227 038d 0000 0000 		.long	.LASF129
 1228 0391 FA00      		.sleb128 122
 1229 0393 07        		.uleb128 0x7
 1230 0394 0000 0000 		.long	.LASF130
 1231 0398 FB00      		.sleb128 123
 1232 039a 07        		.uleb128 0x7
 1233 039b 0000 0000 		.long	.LASF131
 1234 039f FC00      		.sleb128 124
 1235 03a1 07        		.uleb128 0x7
 1236 03a2 0000 0000 		.long	.LASF132
 1237 03a6 FD00      		.sleb128 125
 1238 03a8 07        		.uleb128 0x7
 1239 03a9 0000 0000 		.long	.LASF133
 1240 03ad FE00      		.sleb128 126
 1241 03af 07        		.uleb128 0x7
 1242 03b0 0000 0000 		.long	.LASF134
 1243 03b4 FF00      		.sleb128 127
 1244 03b6 07        		.uleb128 0x7
 1245 03b7 0000 0000 		.long	.LASF135
 1246 03bb 8001      		.sleb128 128
 1247 03bd 07        		.uleb128 0x7
 1248 03be 0000 0000 		.long	.LASF136
 1249 03c2 8101      		.sleb128 129
 1250 03c4 07        		.uleb128 0x7
GAS LISTING C:\Users\ADMINI~1\AppData\Local\Temp/cchZuvGY.s 			page 23


 1251 03c5 0000 0000 		.long	.LASF137
 1252 03c9 8201      		.sleb128 130
 1253 03cb 07        		.uleb128 0x7
 1254 03cc 0000 0000 		.long	.LASF138
 1255 03d0 8301      		.sleb128 131
 1256 03d2 07        		.uleb128 0x7
 1257 03d3 0000 0000 		.long	.LASF139
 1258 03d7 8401      		.sleb128 132
 1259 03d9 07        		.uleb128 0x7
 1260 03da 0000 0000 		.long	.LASF140
 1261 03de 8501      		.sleb128 133
 1262 03e0 07        		.uleb128 0x7
 1263 03e1 0000 0000 		.long	.LASF141
 1264 03e5 8601      		.sleb128 134
 1265 03e7 07        		.uleb128 0x7
 1266 03e8 0000 0000 		.long	.LASF142
 1267 03ec 8701      		.sleb128 135
 1268 03ee 07        		.uleb128 0x7
 1269 03ef 0000 0000 		.long	.LASF143
 1270 03f3 8801      		.sleb128 136
 1271 03f5 07        		.uleb128 0x7
 1272 03f6 0000 0000 		.long	.LASF144
 1273 03fa 8901      		.sleb128 137
 1274 03fc 07        		.uleb128 0x7
 1275 03fd 0000 0000 		.long	.LASF145
 1276 0401 8A01      		.sleb128 138
 1277 0403 07        		.uleb128 0x7
 1278 0404 0000 0000 		.long	.LASF146
 1279 0408 8B01      		.sleb128 139
 1280 040a 07        		.uleb128 0x7
 1281 040b 0000 0000 		.long	.LASF147
 1282 040f 8C01      		.sleb128 140
 1283 0411 07        		.uleb128 0x7
 1284 0412 0000 0000 		.long	.LASF148
 1285 0416 8D01      		.sleb128 141
 1286 0418 07        		.uleb128 0x7
 1287 0419 0000 0000 		.long	.LASF149
 1288 041d 8E01      		.sleb128 142
 1289 041f 07        		.uleb128 0x7
 1290 0420 0000 0000 		.long	.LASF150
 1291 0424 8F01      		.sleb128 143
 1292 0426 00        		.byte	0x0
 1293 0427 02        		.uleb128 0x2
 1294 0428 01        		.byte	0x1
 1295 0429 06        		.byte	0x6
 1296 042a 0000 0000 		.long	.LASF151
 1297 042e 08        		.uleb128 0x8
 1298 042f 02        		.byte	0x2
 1299 0430 02        		.byte	0x2
 1300 0431 0F        		.byte	0xf
 1301 0432 5304 0000 		.long	0x453
 1302 0436 09        		.uleb128 0x9
 1303 0437 0000 0000 		.long	.LASF152
 1304 043b 02        		.byte	0x2
 1305 043c 10        		.byte	0x10
 1306 043d 4100 0000 		.long	0x41
 1307 0441 02        		.byte	0x2
GAS LISTING C:\Users\ADMINI~1\AppData\Local\Temp/cchZuvGY.s 			page 24


 1308 0442 23        		.byte	0x23
 1309 0443 00        		.uleb128 0x0
 1310 0444 09        		.uleb128 0x9
 1311 0445 0000 0000 		.long	.LASF153
 1312 0449 02        		.byte	0x2
 1313 044a 11        		.byte	0x11
 1314 044b 4100 0000 		.long	0x41
 1315 044f 02        		.byte	0x2
 1316 0450 23        		.byte	0x23
 1317 0451 01        		.uleb128 0x1
 1318 0452 00        		.byte	0x0
 1319 0453 0A        		.uleb128 0xa
 1320 0454 4B65 7900 		.string	"Key"
 1321 0458 02        		.byte	0x2
 1322 0459 12        		.byte	0x12
 1323 045a 2E04 0000 		.long	0x42e
 1324 045e 0B        		.uleb128 0xb
 1325 045f 01        		.byte	0x1
 1326 0460 0000 0000 		.long	.LASF178
 1327 0464 01        		.byte	0x1
 1328 0465 47        		.byte	0x47
 1329 0466 01        		.byte	0x1
 1330 0467 4100 0000 		.long	0x41
 1331 046b 01        		.byte	0x1
 1332 046c 0C        		.uleb128 0xc
 1333 046d 01        		.byte	0x1
 1334 046e 0000 0000 		.long	.LASF157
 1335 0472 01        		.byte	0x1
 1336 0473 13        		.byte	0x13
 1337 0474 01        		.byte	0x1
 1338 0475 0000 0000 		.long	.LFB3
 1339 0479 0000 0000 		.long	.LFE3
 1340 047d 02        		.byte	0x2
 1341 047e 90        		.byte	0x90
 1342 047f 20        		.uleb128 0x20
 1343 0480 9404 0000 		.long	0x494
 1344 0484 0D        		.uleb128 0xd
 1345 0485 0000 0000 		.long	.LASF159
 1346 0489 01        		.byte	0x1
 1347 048a 13        		.byte	0x13
 1348 048b 4100 0000 		.long	0x41
 1349 048f 0000 0000 		.long	.LLST1
 1350 0493 00        		.byte	0x0
 1351 0494 0E        		.uleb128 0xe
 1352 0495 01        		.byte	0x1
 1353 0496 0000 0000 		.long	.LASF155
 1354 049a 01        		.byte	0x1
 1355 049b 1D        		.byte	0x1d
 1356 049c 01        		.byte	0x1
 1357 049d 4100 0000 		.long	0x41
 1358 04a1 0000 0000 		.long	.LFB4
 1359 04a5 0000 0000 		.long	.LFE4
 1360 04a9 02        		.byte	0x2
 1361 04aa 90        		.byte	0x90
 1362 04ab 20        		.uleb128 0x20
 1363 04ac 0F        		.uleb128 0xf
 1364 04ad 5E04 0000 		.long	0x45e
GAS LISTING C:\Users\ADMINI~1\AppData\Local\Temp/cchZuvGY.s 			page 25


 1365 04b1 0000 0000 		.long	.LFB6
 1366 04b5 0000 0000 		.long	.LFE6
 1367 04b9 02        		.byte	0x2
 1368 04ba 90        		.byte	0x90
 1369 04bb 20        		.uleb128 0x20
 1370 04bc 0E        		.uleb128 0xe
 1371 04bd 01        		.byte	0x1
 1372 04be 0000 0000 		.long	.LASF156
 1373 04c2 01        		.byte	0x1
 1374 04c3 5F        		.byte	0x5f
 1375 04c4 01        		.byte	0x1
 1376 04c5 4100 0000 		.long	0x41
 1377 04c9 0000 0000 		.long	.LFB8
 1378 04cd 0000 0000 		.long	.LFE8
 1379 04d1 02        		.byte	0x2
 1380 04d2 90        		.byte	0x90
 1381 04d3 20        		.uleb128 0x20
 1382 04d4 0C        		.uleb128 0xc
 1383 04d5 01        		.byte	0x1
 1384 04d6 0000 0000 		.long	.LASF158
 1385 04da 01        		.byte	0x1
 1386 04db 63        		.byte	0x63
 1387 04dc 01        		.byte	0x1
 1388 04dd 0000 0000 		.long	.LFB9
 1389 04e1 0000 0000 		.long	.LFE9
 1390 04e5 02        		.byte	0x2
 1391 04e6 90        		.byte	0x90
 1392 04e7 20        		.uleb128 0x20
 1393 04e8 FA04 0000 		.long	0x4fa
 1394 04ec 10        		.uleb128 0x10
 1395 04ed 0000 0000 		.long	.LASF160
 1396 04f1 01        		.byte	0x1
 1397 04f2 62        		.byte	0x62
 1398 04f3 4100 0000 		.long	0x41
 1399 04f7 01        		.byte	0x1
 1400 04f8 68        		.byte	0x68
 1401 04f9 00        		.byte	0x0
 1402 04fa 11        		.uleb128 0x11
 1403 04fb 01        		.byte	0x1
 1404 04fc 0000 0000 		.long	.LASF162
 1405 0500 01        		.byte	0x1
 1406 0501 77        		.byte	0x77
 1407 0502 01        		.byte	0x1
 1408 0503 5304 0000 		.long	0x453
 1409 0507 0000 0000 		.long	.LFB11
 1410 050b 0000 0000 		.long	.LFE11
 1411 050f 02        		.byte	0x2
 1412 0510 90        		.byte	0x90
 1413 0511 20        		.uleb128 0x20
 1414 0512 3105 0000 		.long	0x531
 1415 0516 0D        		.uleb128 0xd
 1416 0517 0000 0000 		.long	.LASF161
 1417 051b 01        		.byte	0x1
 1418 051c 77        		.byte	0x77
 1419 051d 2704 0000 		.long	0x427
 1420 0521 0000 0000 		.long	.LLST7
 1421 0525 12        		.uleb128 0x12
GAS LISTING C:\Users\ADMINI~1\AppData\Local\Temp/cchZuvGY.s 			page 26


 1422 0526 6B65 7900 		.string	"key"
 1423 052a 01        		.byte	0x1
 1424 052b 78        		.byte	0x78
 1425 052c 5304 0000 		.long	0x453
 1426 0530 00        		.byte	0x0
 1427 0531 11        		.uleb128 0x11
 1428 0532 01        		.byte	0x1
 1429 0533 0000 0000 		.long	.LASF163
 1430 0537 01        		.byte	0x1
 1431 0538 69        		.byte	0x69
 1432 0539 01        		.byte	0x1
 1433 053a 6E05 0000 		.long	0x56e
 1434 053e 0000 0000 		.long	.LFB10
 1435 0542 0000 0000 		.long	.LFE10
 1436 0546 02        		.byte	0x2
 1437 0547 90        		.byte	0x90
 1438 0548 20        		.uleb128 0x20
 1439 0549 6E05 0000 		.long	0x56e
 1440 054d 0D        		.uleb128 0xd
 1441 054e 0000 0000 		.long	.LASF164
 1442 0552 01        		.byte	0x1
 1443 0553 68        		.byte	0x68
 1444 0554 4100 0000 		.long	0x41
 1445 0558 0000 0000 		.long	.LLST9
 1446 055c 13        		.uleb128 0x13
 1447 055d 0000 0000 		.long	.LASF168
 1448 0561 01        		.byte	0x1
 1449 0562 6A        		.byte	0x6a
 1450 0563 E305 0000 		.long	0x5e3
 1451 0567 05        		.byte	0x5
 1452 0568 03        		.byte	0x3
 1453 0569 0000 0000 		.long	gStr.2023
 1454 056d 00        		.byte	0x0
 1455 056e 14        		.uleb128 0x14
 1456 056f 02        		.byte	0x2
 1457 0570 7405 0000 		.long	0x574
 1458 0574 15        		.uleb128 0x15
 1459 0575 2704 0000 		.long	0x427
 1460 0579 0C        		.uleb128 0xc
 1461 057a 01        		.byte	0x1
 1462 057b 0000 0000 		.long	.LASF165
 1463 057f 01        		.byte	0x1
 1464 0580 58        		.byte	0x58
 1465 0581 01        		.byte	0x1
 1466 0582 0000 0000 		.long	.LFB7
 1467 0586 0000 0000 		.long	.LFE7
 1468 058a 02        		.byte	0x2
 1469 058b 90        		.byte	0x90
 1470 058c 20        		.uleb128 0x20
 1471 058d A105 0000 		.long	0x5a1
 1472 0591 16        		.uleb128 0x16
 1473 0592 5E04 0000 		.long	0x45e
 1474 0596 0000 0000 		.long	.LBB6
 1475 059a 0000 0000 		.long	.LBE6
 1476 059e 01        		.byte	0x1
 1477 059f 59        		.byte	0x59
 1478 05a0 00        		.byte	0x0
GAS LISTING C:\Users\ADMINI~1\AppData\Local\Temp/cchZuvGY.s 			page 27


 1479 05a1 11        		.uleb128 0x11
 1480 05a2 01        		.byte	0x1
 1481 05a3 0000 0000 		.long	.LASF166
 1482 05a7 01        		.byte	0x1
 1483 05a8 27        		.byte	0x27
 1484 05a9 01        		.byte	0x1
 1485 05aa 5304 0000 		.long	0x453
 1486 05ae 0000 0000 		.long	.LFB5
 1487 05b2 0000 0000 		.long	.LFE5
 1488 05b6 02        		.byte	0x2
 1489 05b7 90        		.byte	0x90
 1490 05b8 20        		.uleb128 0x20
 1491 05b9 E305 0000 		.long	0x5e3
 1492 05bd 17        		.uleb128 0x17
 1493 05be 0000 0000 		.long	.LASF167
 1494 05c2 01        		.byte	0x1
 1495 05c3 28        		.byte	0x28
 1496 05c4 5304 0000 		.long	0x453
 1497 05c8 18        		.uleb128 0x18
 1498 05c9 0000 0000 		.long	.LASF169
 1499 05cd 01        		.byte	0x1
 1500 05ce 29        		.byte	0x29
 1501 05cf 2C00 0000 		.long	0x2c
 1502 05d3 0000 0000 		.long	.LLST12
 1503 05d7 17        		.uleb128 0x17
 1504 05d8 0000 0000 		.long	.LASF170
 1505 05dc 01        		.byte	0x1
 1506 05dd 2A        		.byte	0x2a
 1507 05de 2C00 0000 		.long	0x2c
 1508 05e2 00        		.byte	0x0
 1509 05e3 19        		.uleb128 0x19
 1510 05e4 2704 0000 		.long	0x427
 1511 05e8 F305 0000 		.long	0x5f3
 1512 05ec 1A        		.uleb128 0x1a
 1513 05ed F305 0000 		.long	0x5f3
 1514 05f1 02        		.byte	0x2
 1515 05f2 00        		.byte	0x0
 1516 05f3 05        		.uleb128 0x5
 1517 05f4 02        		.byte	0x2
 1518 05f5 07        		.byte	0x7
 1519 05f6 13        		.uleb128 0x13
 1520 05f7 0000 0000 		.long	.LASF171
 1521 05fb 01        		.byte	0x1
 1522 05fc 0C        		.byte	0xc
 1523 05fd 4100 0000 		.long	0x41
 1524 0601 05        		.byte	0x5
 1525 0602 03        		.byte	0x3
 1526 0603 0000 0000 		.long	_isMacroProcessEnd
 1527 0607 19        		.uleb128 0x19
 1528 0608 4100 0000 		.long	0x41
 1529 060c 1706 0000 		.long	0x617
 1530 0610 1A        		.uleb128 0x1a
 1531 0611 F305 0000 		.long	0x5f3
 1532 0615 FF        		.byte	0xff
 1533 0616 00        		.byte	0x0
 1534 0617 13        		.uleb128 0x13
 1535 0618 0000 0000 		.long	.LASF172
GAS LISTING C:\Users\ADMINI~1\AppData\Local\Temp/cchZuvGY.s 			page 28


 1536 061c 01        		.byte	0x1
 1537 061d 0D        		.byte	0xd
 1538 061e 0706 0000 		.long	0x607
 1539 0622 05        		.byte	0x5
 1540 0623 03        		.byte	0x3
 1541 0624 0000 0000 		.long	QUEUE_M
 1542 0628 13        		.uleb128 0x13
 1543 0629 0000 0000 		.long	.LASF173
 1544 062d 01        		.byte	0x1
 1545 062e 0E        		.byte	0xe
 1546 062f 2C00 0000 		.long	0x2c
 1547 0633 05        		.byte	0x5
 1548 0634 03        		.byte	0x3
 1549 0635 0000 0000 		.long	rearm
 1550 0639 13        		.uleb128 0x13
 1551 063a 0000 0000 		.long	.LASF174
 1552 063e 01        		.byte	0x1
 1553 063f 0E        		.byte	0xe
 1554 0640 2C00 0000 		.long	0x2c
 1555 0644 05        		.byte	0x5
 1556 0645 03        		.byte	0x3
 1557 0646 0000 0000 		.long	frontm
 1558 064a 19        		.uleb128 0x19
 1559 064b 4100 0000 		.long	0x41
 1560 064f 5A06 0000 		.long	0x65a
 1561 0653 1A        		.uleb128 0x1a
 1562 0654 F305 0000 		.long	0x5f3
 1563 0658 1F        		.byte	0x1f
 1564 0659 00        		.byte	0x0
 1565 065a 1B        		.uleb128 0x1b
 1566 065b 0000 0000 		.long	.LASF179
 1567 065f 01        		.byte	0x1
 1568 0660 10        		.byte	0x10
 1569 0661 4A06 0000 		.long	0x64a
 1570 0665 01        		.byte	0x1
 1571 0666 05        		.byte	0x5
 1572 0667 03        		.byte	0x3
 1573 0668 0000 0000 		.long	_pressedBuffer
 1574 066c 00        		.byte	0x0
 1575               		.section	.debug_abbrev
 1576 0000 01        		.uleb128 0x1
 1577 0001 11        		.uleb128 0x11
 1578 0002 01        		.byte	0x1
 1579 0003 25        		.uleb128 0x25
 1580 0004 0E        		.uleb128 0xe
 1581 0005 13        		.uleb128 0x13
 1582 0006 0B        		.uleb128 0xb
 1583 0007 03        		.uleb128 0x3
 1584 0008 0E        		.uleb128 0xe
 1585 0009 1B        		.uleb128 0x1b
 1586 000a 0E        		.uleb128 0xe
 1587 000b 11        		.uleb128 0x11
 1588 000c 01        		.uleb128 0x1
 1589 000d 12        		.uleb128 0x12
 1590 000e 01        		.uleb128 0x1
 1591 000f 10        		.uleb128 0x10
 1592 0010 06        		.uleb128 0x6
GAS LISTING C:\Users\ADMINI~1\AppData\Local\Temp/cchZuvGY.s 			page 29


 1593 0011 00        		.byte	0x0
 1594 0012 00        		.byte	0x0
 1595 0013 02        		.uleb128 0x2
 1596 0014 24        		.uleb128 0x24
 1597 0015 00        		.byte	0x0
 1598 0016 0B        		.uleb128 0xb
 1599 0017 0B        		.uleb128 0xb
 1600 0018 3E        		.uleb128 0x3e
 1601 0019 0B        		.uleb128 0xb
 1602 001a 03        		.uleb128 0x3
 1603 001b 0E        		.uleb128 0xe
 1604 001c 00        		.byte	0x0
 1605 001d 00        		.byte	0x0
 1606 001e 03        		.uleb128 0x3
 1607 001f 24        		.uleb128 0x24
 1608 0020 00        		.byte	0x0
 1609 0021 0B        		.uleb128 0xb
 1610 0022 0B        		.uleb128 0xb
 1611 0023 3E        		.uleb128 0x3e
 1612 0024 0B        		.uleb128 0xb
 1613 0025 03        		.uleb128 0x3
 1614 0026 08        		.uleb128 0x8
 1615 0027 00        		.byte	0x0
 1616 0028 00        		.byte	0x0
 1617 0029 04        		.uleb128 0x4
 1618 002a 16        		.uleb128 0x16
 1619 002b 00        		.byte	0x0
 1620 002c 03        		.uleb128 0x3
 1621 002d 0E        		.uleb128 0xe
 1622 002e 3A        		.uleb128 0x3a
 1623 002f 0B        		.uleb128 0xb
 1624 0030 3B        		.uleb128 0x3b
 1625 0031 0B        		.uleb128 0xb
 1626 0032 49        		.uleb128 0x49
 1627 0033 13        		.uleb128 0x13
 1628 0034 00        		.byte	0x0
 1629 0035 00        		.byte	0x0
 1630 0036 05        		.uleb128 0x5
 1631 0037 24        		.uleb128 0x24
 1632 0038 00        		.byte	0x0
 1633 0039 0B        		.uleb128 0xb
 1634 003a 0B        		.uleb128 0xb
 1635 003b 3E        		.uleb128 0x3e
 1636 003c 0B        		.uleb128 0xb
 1637 003d 00        		.byte	0x0
 1638 003e 00        		.byte	0x0
 1639 003f 06        		.uleb128 0x6
 1640 0040 04        		.uleb128 0x4
 1641 0041 01        		.byte	0x1
 1642 0042 0B        		.uleb128 0xb
 1643 0043 0B        		.uleb128 0xb
 1644 0044 3A        		.uleb128 0x3a
 1645 0045 0B        		.uleb128 0xb
 1646 0046 3B        		.uleb128 0x3b
 1647 0047 0B        		.uleb128 0xb
 1648 0048 01        		.uleb128 0x1
 1649 0049 13        		.uleb128 0x13
GAS LISTING C:\Users\ADMINI~1\AppData\Local\Temp/cchZuvGY.s 			page 30


 1650 004a 00        		.byte	0x0
 1651 004b 00        		.byte	0x0
 1652 004c 07        		.uleb128 0x7
 1653 004d 28        		.uleb128 0x28
 1654 004e 00        		.byte	0x0
 1655 004f 03        		.uleb128 0x3
 1656 0050 0E        		.uleb128 0xe
 1657 0051 1C        		.uleb128 0x1c
 1658 0052 0D        		.uleb128 0xd
 1659 0053 00        		.byte	0x0
 1660 0054 00        		.byte	0x0
 1661 0055 08        		.uleb128 0x8
 1662 0056 13        		.uleb128 0x13
 1663 0057 01        		.byte	0x1
 1664 0058 0B        		.uleb128 0xb
 1665 0059 0B        		.uleb128 0xb
 1666 005a 3A        		.uleb128 0x3a
 1667 005b 0B        		.uleb128 0xb
 1668 005c 3B        		.uleb128 0x3b
 1669 005d 0B        		.uleb128 0xb
 1670 005e 01        		.uleb128 0x1
 1671 005f 13        		.uleb128 0x13
 1672 0060 00        		.byte	0x0
 1673 0061 00        		.byte	0x0
 1674 0062 09        		.uleb128 0x9
 1675 0063 0D        		.uleb128 0xd
 1676 0064 00        		.byte	0x0
 1677 0065 03        		.uleb128 0x3
 1678 0066 0E        		.uleb128 0xe
 1679 0067 3A        		.uleb128 0x3a
 1680 0068 0B        		.uleb128 0xb
 1681 0069 3B        		.uleb128 0x3b
 1682 006a 0B        		.uleb128 0xb
 1683 006b 49        		.uleb128 0x49
 1684 006c 13        		.uleb128 0x13
 1685 006d 38        		.uleb128 0x38
 1686 006e 0A        		.uleb128 0xa
 1687 006f 00        		.byte	0x0
 1688 0070 00        		.byte	0x0
 1689 0071 0A        		.uleb128 0xa
 1690 0072 16        		.uleb128 0x16
 1691 0073 00        		.byte	0x0
 1692 0074 03        		.uleb128 0x3
 1693 0075 08        		.uleb128 0x8
 1694 0076 3A        		.uleb128 0x3a
 1695 0077 0B        		.uleb128 0xb
 1696 0078 3B        		.uleb128 0x3b
 1697 0079 0B        		.uleb128 0xb
 1698 007a 49        		.uleb128 0x49
 1699 007b 13        		.uleb128 0x13
 1700 007c 00        		.byte	0x0
 1701 007d 00        		.byte	0x0
 1702 007e 0B        		.uleb128 0xb
 1703 007f 2E        		.uleb128 0x2e
 1704 0080 00        		.byte	0x0
 1705 0081 3F        		.uleb128 0x3f
 1706 0082 0C        		.uleb128 0xc
GAS LISTING C:\Users\ADMINI~1\AppData\Local\Temp/cchZuvGY.s 			page 31


 1707 0083 03        		.uleb128 0x3
 1708 0084 0E        		.uleb128 0xe
 1709 0085 3A        		.uleb128 0x3a
 1710 0086 0B        		.uleb128 0xb
 1711 0087 3B        		.uleb128 0x3b
 1712 0088 0B        		.uleb128 0xb
 1713 0089 27        		.uleb128 0x27
 1714 008a 0C        		.uleb128 0xc
 1715 008b 49        		.uleb128 0x49
 1716 008c 13        		.uleb128 0x13
 1717 008d 20        		.uleb128 0x20
 1718 008e 0B        		.uleb128 0xb
 1719 008f 00        		.byte	0x0
 1720 0090 00        		.byte	0x0
 1721 0091 0C        		.uleb128 0xc
 1722 0092 2E        		.uleb128 0x2e
 1723 0093 01        		.byte	0x1
 1724 0094 3F        		.uleb128 0x3f
 1725 0095 0C        		.uleb128 0xc
 1726 0096 03        		.uleb128 0x3
 1727 0097 0E        		.uleb128 0xe
 1728 0098 3A        		.uleb128 0x3a
 1729 0099 0B        		.uleb128 0xb
 1730 009a 3B        		.uleb128 0x3b
 1731 009b 0B        		.uleb128 0xb
 1732 009c 27        		.uleb128 0x27
 1733 009d 0C        		.uleb128 0xc
 1734 009e 11        		.uleb128 0x11
 1735 009f 01        		.uleb128 0x1
 1736 00a0 12        		.uleb128 0x12
 1737 00a1 01        		.uleb128 0x1
 1738 00a2 40        		.uleb128 0x40
 1739 00a3 0A        		.uleb128 0xa
 1740 00a4 01        		.uleb128 0x1
 1741 00a5 13        		.uleb128 0x13
 1742 00a6 00        		.byte	0x0
 1743 00a7 00        		.byte	0x0
 1744 00a8 0D        		.uleb128 0xd
 1745 00a9 05        		.uleb128 0x5
 1746 00aa 00        		.byte	0x0
 1747 00ab 03        		.uleb128 0x3
 1748 00ac 0E        		.uleb128 0xe
 1749 00ad 3A        		.uleb128 0x3a
 1750 00ae 0B        		.uleb128 0xb
 1751 00af 3B        		.uleb128 0x3b
 1752 00b0 0B        		.uleb128 0xb
 1753 00b1 49        		.uleb128 0x49
 1754 00b2 13        		.uleb128 0x13
 1755 00b3 02        		.uleb128 0x2
 1756 00b4 06        		.uleb128 0x6
 1757 00b5 00        		.byte	0x0
 1758 00b6 00        		.byte	0x0
 1759 00b7 0E        		.uleb128 0xe
 1760 00b8 2E        		.uleb128 0x2e
 1761 00b9 00        		.byte	0x0
 1762 00ba 3F        		.uleb128 0x3f
 1763 00bb 0C        		.uleb128 0xc
GAS LISTING C:\Users\ADMINI~1\AppData\Local\Temp/cchZuvGY.s 			page 32


 1764 00bc 03        		.uleb128 0x3
 1765 00bd 0E        		.uleb128 0xe
 1766 00be 3A        		.uleb128 0x3a
 1767 00bf 0B        		.uleb128 0xb
 1768 00c0 3B        		.uleb128 0x3b
 1769 00c1 0B        		.uleb128 0xb
 1770 00c2 27        		.uleb128 0x27
 1771 00c3 0C        		.uleb128 0xc
 1772 00c4 49        		.uleb128 0x49
 1773 00c5 13        		.uleb128 0x13
 1774 00c6 11        		.uleb128 0x11
 1775 00c7 01        		.uleb128 0x1
 1776 00c8 12        		.uleb128 0x12
 1777 00c9 01        		.uleb128 0x1
 1778 00ca 40        		.uleb128 0x40
 1779 00cb 0A        		.uleb128 0xa
 1780 00cc 00        		.byte	0x0
 1781 00cd 00        		.byte	0x0
 1782 00ce 0F        		.uleb128 0xf
 1783 00cf 2E        		.uleb128 0x2e
 1784 00d0 00        		.byte	0x0
 1785 00d1 31        		.uleb128 0x31
 1786 00d2 13        		.uleb128 0x13
 1787 00d3 11        		.uleb128 0x11
 1788 00d4 01        		.uleb128 0x1
 1789 00d5 12        		.uleb128 0x12
 1790 00d6 01        		.uleb128 0x1
 1791 00d7 40        		.uleb128 0x40
 1792 00d8 0A        		.uleb128 0xa
 1793 00d9 00        		.byte	0x0
 1794 00da 00        		.byte	0x0
 1795 00db 10        		.uleb128 0x10
 1796 00dc 05        		.uleb128 0x5
 1797 00dd 00        		.byte	0x0
 1798 00de 03        		.uleb128 0x3
 1799 00df 0E        		.uleb128 0xe
 1800 00e0 3A        		.uleb128 0x3a
 1801 00e1 0B        		.uleb128 0xb
 1802 00e2 3B        		.uleb128 0x3b
 1803 00e3 0B        		.uleb128 0xb
 1804 00e4 49        		.uleb128 0x49
 1805 00e5 13        		.uleb128 0x13
 1806 00e6 02        		.uleb128 0x2
 1807 00e7 0A        		.uleb128 0xa
 1808 00e8 00        		.byte	0x0
 1809 00e9 00        		.byte	0x0
 1810 00ea 11        		.uleb128 0x11
 1811 00eb 2E        		.uleb128 0x2e
 1812 00ec 01        		.byte	0x1
 1813 00ed 3F        		.uleb128 0x3f
 1814 00ee 0C        		.uleb128 0xc
 1815 00ef 03        		.uleb128 0x3
 1816 00f0 0E        		.uleb128 0xe
 1817 00f1 3A        		.uleb128 0x3a
 1818 00f2 0B        		.uleb128 0xb
 1819 00f3 3B        		.uleb128 0x3b
 1820 00f4 0B        		.uleb128 0xb
GAS LISTING C:\Users\ADMINI~1\AppData\Local\Temp/cchZuvGY.s 			page 33


 1821 00f5 27        		.uleb128 0x27
 1822 00f6 0C        		.uleb128 0xc
 1823 00f7 49        		.uleb128 0x49
 1824 00f8 13        		.uleb128 0x13
 1825 00f9 11        		.uleb128 0x11
 1826 00fa 01        		.uleb128 0x1
 1827 00fb 12        		.uleb128 0x12
 1828 00fc 01        		.uleb128 0x1
 1829 00fd 40        		.uleb128 0x40
 1830 00fe 0A        		.uleb128 0xa
 1831 00ff 01        		.uleb128 0x1
 1832 0100 13        		.uleb128 0x13
 1833 0101 00        		.byte	0x0
 1834 0102 00        		.byte	0x0
 1835 0103 12        		.uleb128 0x12
 1836 0104 34        		.uleb128 0x34
 1837 0105 00        		.byte	0x0
 1838 0106 03        		.uleb128 0x3
 1839 0107 08        		.uleb128 0x8
 1840 0108 3A        		.uleb128 0x3a
 1841 0109 0B        		.uleb128 0xb
 1842 010a 3B        		.uleb128 0x3b
 1843 010b 0B        		.uleb128 0xb
 1844 010c 49        		.uleb128 0x49
 1845 010d 13        		.uleb128 0x13
 1846 010e 00        		.byte	0x0
 1847 010f 00        		.byte	0x0
 1848 0110 13        		.uleb128 0x13
 1849 0111 34        		.uleb128 0x34
 1850 0112 00        		.byte	0x0
 1851 0113 03        		.uleb128 0x3
 1852 0114 0E        		.uleb128 0xe
 1853 0115 3A        		.uleb128 0x3a
 1854 0116 0B        		.uleb128 0xb
 1855 0117 3B        		.uleb128 0x3b
 1856 0118 0B        		.uleb128 0xb
 1857 0119 49        		.uleb128 0x49
 1858 011a 13        		.uleb128 0x13
 1859 011b 02        		.uleb128 0x2
 1860 011c 0A        		.uleb128 0xa
 1861 011d 00        		.byte	0x0
 1862 011e 00        		.byte	0x0
 1863 011f 14        		.uleb128 0x14
 1864 0120 0F        		.uleb128 0xf
 1865 0121 00        		.byte	0x0
 1866 0122 0B        		.uleb128 0xb
 1867 0123 0B        		.uleb128 0xb
 1868 0124 49        		.uleb128 0x49
 1869 0125 13        		.uleb128 0x13
 1870 0126 00        		.byte	0x0
 1871 0127 00        		.byte	0x0
 1872 0128 15        		.uleb128 0x15
 1873 0129 26        		.uleb128 0x26
 1874 012a 00        		.byte	0x0
 1875 012b 49        		.uleb128 0x49
 1876 012c 13        		.uleb128 0x13
 1877 012d 00        		.byte	0x0
GAS LISTING C:\Users\ADMINI~1\AppData\Local\Temp/cchZuvGY.s 			page 34


 1878 012e 00        		.byte	0x0
 1879 012f 16        		.uleb128 0x16
 1880 0130 1D        		.uleb128 0x1d
 1881 0131 00        		.byte	0x0
 1882 0132 31        		.uleb128 0x31
 1883 0133 13        		.uleb128 0x13
 1884 0134 11        		.uleb128 0x11
 1885 0135 01        		.uleb128 0x1
 1886 0136 12        		.uleb128 0x12
 1887 0137 01        		.uleb128 0x1
 1888 0138 58        		.uleb128 0x58
 1889 0139 0B        		.uleb128 0xb
 1890 013a 59        		.uleb128 0x59
 1891 013b 0B        		.uleb128 0xb
 1892 013c 00        		.byte	0x0
 1893 013d 00        		.byte	0x0
 1894 013e 17        		.uleb128 0x17
 1895 013f 34        		.uleb128 0x34
 1896 0140 00        		.byte	0x0
 1897 0141 03        		.uleb128 0x3
 1898 0142 0E        		.uleb128 0xe
 1899 0143 3A        		.uleb128 0x3a
 1900 0144 0B        		.uleb128 0xb
 1901 0145 3B        		.uleb128 0x3b
 1902 0146 0B        		.uleb128 0xb
 1903 0147 49        		.uleb128 0x49
 1904 0148 13        		.uleb128 0x13
 1905 0149 00        		.byte	0x0
 1906 014a 00        		.byte	0x0
 1907 014b 18        		.uleb128 0x18
 1908 014c 34        		.uleb128 0x34
 1909 014d 00        		.byte	0x0
 1910 014e 03        		.uleb128 0x3
 1911 014f 0E        		.uleb128 0xe
 1912 0150 3A        		.uleb128 0x3a
 1913 0151 0B        		.uleb128 0xb
 1914 0152 3B        		.uleb128 0x3b
 1915 0153 0B        		.uleb128 0xb
 1916 0154 49        		.uleb128 0x49
 1917 0155 13        		.uleb128 0x13
 1918 0156 02        		.uleb128 0x2
 1919 0157 06        		.uleb128 0x6
 1920 0158 00        		.byte	0x0
 1921 0159 00        		.byte	0x0
 1922 015a 19        		.uleb128 0x19
 1923 015b 01        		.uleb128 0x1
 1924 015c 01        		.byte	0x1
 1925 015d 49        		.uleb128 0x49
 1926 015e 13        		.uleb128 0x13
 1927 015f 01        		.uleb128 0x1
 1928 0160 13        		.uleb128 0x13
 1929 0161 00        		.byte	0x0
 1930 0162 00        		.byte	0x0
 1931 0163 1A        		.uleb128 0x1a
 1932 0164 21        		.uleb128 0x21
 1933 0165 00        		.byte	0x0
 1934 0166 49        		.uleb128 0x49
GAS LISTING C:\Users\ADMINI~1\AppData\Local\Temp/cchZuvGY.s 			page 35


 1935 0167 13        		.uleb128 0x13
 1936 0168 2F        		.uleb128 0x2f
 1937 0169 0B        		.uleb128 0xb
 1938 016a 00        		.byte	0x0
 1939 016b 00        		.byte	0x0
 1940 016c 1B        		.uleb128 0x1b
 1941 016d 34        		.uleb128 0x34
 1942 016e 00        		.byte	0x0
 1943 016f 03        		.uleb128 0x3
 1944 0170 0E        		.uleb128 0xe
 1945 0171 3A        		.uleb128 0x3a
 1946 0172 0B        		.uleb128 0xb
 1947 0173 3B        		.uleb128 0x3b
 1948 0174 0B        		.uleb128 0xb
 1949 0175 49        		.uleb128 0x49
 1950 0176 13        		.uleb128 0x13
 1951 0177 3F        		.uleb128 0x3f
 1952 0178 0C        		.uleb128 0xc
 1953 0179 02        		.uleb128 0x2
 1954 017a 0A        		.uleb128 0xa
 1955 017b 00        		.byte	0x0
 1956 017c 00        		.byte	0x0
 1957 017d 00        		.byte	0x0
 1958               		.section	.debug_pubnames,"",@progbits
 1959 0000 B500 0000 		.long	0xb5
 1960 0004 0200      		.word	0x2
 1961 0006 0000 0000 		.long	.Ldebug_info0
 1962 000a 6D06 0000 		.long	0x66d
 1963 000e 6C04 0000 		.long	0x46c
 1964 0012 7075 7368 		.string	"pushM"
 1964      4D00 
 1965 0018 9404 0000 		.long	0x494
 1966 001c 706F 704D 		.string	"popM"
 1966      00
 1967 0021 AC04 0000 		.long	0x4ac
 1968 0025 6973 456D 		.string	"isEmptyM"
 1968      7074 794D 
 1968      00
 1969 002e BC04 0000 		.long	0x4bc
 1970 0032 6973 4D61 		.string	"isMacroProcessEnd"
 1970      6372 6F50 
 1970      726F 6365 
 1970      7373 456E 
 1970      6400 
 1971 0044 D404 0000 		.long	0x4d4
 1972 0048 7365 744D 		.string	"setMacroProcessEnd"
 1972      6163 726F 
 1972      5072 6F63 
 1972      6573 7345 
 1972      6E64 00
 1973 005b FA04 0000 		.long	0x4fa
 1974 005f 6368 6172 		.string	"charToKey"
 1974      546F 4B65 
 1974      7900 
 1975 0069 3105 0000 		.long	0x531
 1976 006d 746F 5374 		.string	"toString"
 1976      7269 6E67 
GAS LISTING C:\Users\ADMINI~1\AppData\Local\Temp/cchZuvGY.s 			page 36


 1976      00
 1977 0076 7905 0000 		.long	0x579
 1978 007a 636C 6561 		.string	"clearMacroPressedBuffer"
 1978      724D 6163 
 1978      726F 5072 
 1978      6573 7365 
 1978      6442 7566 
 1979 0092 A105 0000 		.long	0x5a1
 1980 0096 706F 704D 		.string	"popMWithKey"
 1980      5769 7468 
 1980      4B65 7900 
 1981 00a2 5A06 0000 		.long	0x65a
 1982 00a6 5F70 7265 		.string	"_pressedBuffer"
 1982      7373 6564 
 1982      4275 6666 
 1982      6572 00
 1983 00b5 0000 0000 		.long	0x0
 1984               		.section	.debug_aranges,"",@progbits
 1985 0000 1C00 0000 		.long	0x1c
 1986 0004 0200      		.word	0x2
 1987 0006 0000 0000 		.long	.Ldebug_info0
 1988 000a 04        		.byte	0x4
 1989 000b 00        		.byte	0x0
 1990 000c 0000      		.word	0x0
 1991 000e 0000      		.word	0x0
 1992 0010 0000 0000 		.long	.Ltext0
 1993 0014 5E02 0000 		.long	.Letext0-.Ltext0
 1994 0018 0000 0000 		.long	0x0
 1995 001c 0000 0000 		.long	0x0
 1996               		.section	.debug_line
 1997 0000 F002 0000 		.long	.LELT0-.LSLT0
 1998               	.LSLT0:
 1999 0004 0200      		.word	0x2
 2000 0006 7700 0000 		.long	.LELTP0-.LASLTP0
 2001               	.LASLTP0:
 2002 000a 01        		.byte	0x1
 2003 000b 01        		.byte	0x1
 2004 000c F6        		.byte	0xf6
 2005 000d F5        		.byte	0xf5
 2006 000e 0A        		.byte	0xa
 2007 000f 00        		.byte	0x0
 2008 0010 01        		.byte	0x1
 2009 0011 01        		.byte	0x1
 2010 0012 01        		.byte	0x1
 2011 0013 01        		.byte	0x1
 2012 0014 00        		.byte	0x0
 2013 0015 00        		.byte	0x0
 2014 0016 00        		.byte	0x0
 2015 0017 01        		.byte	0x1
 2016 0018 633A 2F77 		.ascii	"c:/winavr-20100110/lib/gcc/../../avr/include"
 2016      696E 6176 
 2016      722D 3230 
 2016      3130 3031 
 2016      3130 2F6C 
 2017 0044 00        		.byte	0
 2018 0045 00        		.byte	0x0
 2019 0046 6D61 6372 		.string	"macrobuffer.c"
GAS LISTING C:\Users\ADMINI~1\AppData\Local\Temp/cchZuvGY.s 			page 37


 2019      6F62 7566 
 2019      6665 722E 
 2019      6300 
 2020 0054 00        		.uleb128 0x0
 2021 0055 00        		.uleb128 0x0
 2022 0056 00        		.uleb128 0x0
 2023 0057 6D61 6372 		.string	"macrobuffer.h"
 2023      6F62 7566 
 2023      6665 722E 
 2023      6800 
 2024 0065 00        		.uleb128 0x0
 2025 0066 00        		.uleb128 0x0
 2026 0067 00        		.uleb128 0x0
 2027 0068 7374 6469 		.string	"stdint.h"
 2027      6E74 2E68 
 2027      00
 2028 0071 01        		.uleb128 0x1
 2029 0072 00        		.uleb128 0x0
 2030 0073 00        		.uleb128 0x0
 2031 0074 6B65 796D 		.string	"keymap.h"
 2031      6170 2E68 
 2031      00
 2032 007d 00        		.uleb128 0x0
 2033 007e 00        		.uleb128 0x0
 2034 007f 00        		.uleb128 0x0
 2035 0080 00        		.byte	0x0
 2036               	.LELTP0:
 2037 0081 00        		.byte	0x0
 2038 0082 05        		.uleb128 0x5
 2039 0083 02        		.byte	0x2
 2040 0084 0000 0000 		.long	.LM1
 2041 0088 26        		.byte	0x26
 2042 0089 00        		.byte	0x0
 2043 008a 05        		.uleb128 0x5
 2044 008b 02        		.byte	0x2
 2045 008c 0000 0000 		.long	.LM2
 2046 0090 16        		.byte	0x16
 2047 0091 00        		.byte	0x0
 2048 0092 05        		.uleb128 0x5
 2049 0093 02        		.byte	0x2
 2050 0094 0000 0000 		.long	.LM3
 2051 0098 15        		.byte	0x15
 2052 0099 00        		.byte	0x0
 2053 009a 05        		.uleb128 0x5
 2054 009b 02        		.byte	0x2
 2055 009c 0000 0000 		.long	.LM4
 2056 00a0 15        		.byte	0x15
 2057 00a1 00        		.byte	0x0
 2058 00a2 05        		.uleb128 0x5
 2059 00a3 02        		.byte	0x2
 2060 00a4 0000 0000 		.long	.LM5
 2061 00a8 17        		.byte	0x17
 2062 00a9 00        		.byte	0x0
 2063 00aa 05        		.uleb128 0x5
 2064 00ab 02        		.byte	0x2
 2065 00ac 0000 0000 		.long	.LM6
 2066 00b0 17        		.byte	0x17
GAS LISTING C:\Users\ADMINI~1\AppData\Local\Temp/cchZuvGY.s 			page 38


 2067 00b1 00        		.byte	0x0
 2068 00b2 05        		.uleb128 0x5
 2069 00b3 02        		.byte	0x2
 2070 00b4 0000 0000 		.long	.LM7
 2071 00b8 15        		.byte	0x15
 2072 00b9 00        		.byte	0x0
 2073 00ba 05        		.uleb128 0x5
 2074 00bb 02        		.byte	0x2
 2075 00bc 0000 0000 		.long	.LM8
 2076 00c0 17        		.byte	0x17
 2077 00c1 00        		.byte	0x0
 2078 00c2 05        		.uleb128 0x5
 2079 00c3 02        		.byte	0x2
 2080 00c4 0000 0000 		.long	.LM9
 2081 00c8 16        		.byte	0x16
 2082 00c9 00        		.byte	0x0
 2083 00ca 05        		.uleb128 0x5
 2084 00cb 02        		.byte	0x2
 2085 00cc 0000 0000 		.long	.LM10
 2086 00d0 15        		.byte	0x15
 2087 00d1 00        		.byte	0x0
 2088 00d2 05        		.uleb128 0x5
 2089 00d3 02        		.byte	0x2
 2090 00d4 0000 0000 		.long	.LM11
 2091 00d8 37        		.byte	0x37
 2092 00d9 00        		.byte	0x0
 2093 00da 05        		.uleb128 0x5
 2094 00db 02        		.byte	0x2
 2095 00dc 0000 0000 		.long	.LM12
 2096 00e0 01        		.byte	0x1
 2097 00e1 00        		.byte	0x0
 2098 00e2 05        		.uleb128 0x5
 2099 00e3 02        		.byte	0x2
 2100 00e4 0000 0000 		.long	.LM13
 2101 00e8 19        		.byte	0x19
 2102 00e9 00        		.byte	0x0
 2103 00ea 05        		.uleb128 0x5
 2104 00eb 02        		.byte	0x2
 2105 00ec 0000 0000 		.long	.LM14
 2106 00f0 27        		.byte	0x27
 2107 00f1 00        		.byte	0x0
 2108 00f2 05        		.uleb128 0x5
 2109 00f3 02        		.byte	0x2
 2110 00f4 0000 0000 		.long	.LM15
 2111 00f8 15        		.byte	0x15
 2112 00f9 00        		.byte	0x0
 2113 00fa 05        		.uleb128 0x5
 2114 00fb 02        		.byte	0x2
 2115 00fc 0000 0000 		.long	.LM16
 2116 0100 15        		.byte	0x15
 2117 0101 00        		.byte	0x0
 2118 0102 05        		.uleb128 0x5
 2119 0103 02        		.byte	0x2
 2120 0104 0000 0000 		.long	.LM17
 2121 0108 16        		.byte	0x16
 2122 0109 00        		.byte	0x0
 2123 010a 05        		.uleb128 0x5
GAS LISTING C:\Users\ADMINI~1\AppData\Local\Temp/cchZuvGY.s 			page 39


 2124 010b 02        		.byte	0x2
 2125 010c 0000 0000 		.long	.LM18
 2126 0110 15        		.byte	0x15
 2127 0111 00        		.byte	0x0
 2128 0112 05        		.uleb128 0x5
 2129 0113 02        		.byte	0x2
 2130 0114 0000 0000 		.long	.LM19
 2131 0118 15        		.byte	0x15
 2132 0119 00        		.byte	0x0
 2133 011a 05        		.uleb128 0x5
 2134 011b 02        		.byte	0x2
 2135 011c 0000 0000 		.long	.LM20
 2136 0120 26        		.byte	0x26
 2137 0121 00        		.byte	0x0
 2138 0122 05        		.uleb128 0x5
 2139 0123 02        		.byte	0x2
 2140 0124 0000 0000 		.long	.LM21
 2141 0128 19        		.byte	0x19
 2142 0129 00        		.byte	0x0
 2143 012a 05        		.uleb128 0x5
 2144 012b 02        		.byte	0x2
 2145 012c 0000 0000 		.long	.LM22
 2146 0130 16        		.byte	0x16
 2147 0131 00        		.byte	0x0
 2148 0132 05        		.uleb128 0x5
 2149 0133 02        		.byte	0x2
 2150 0134 0000 0000 		.long	.LM23
 2151 0138 16        		.byte	0x16
 2152 0139 00        		.byte	0x0
 2153 013a 05        		.uleb128 0x5
 2154 013b 02        		.byte	0x2
 2155 013c 0000 0000 		.long	.LM24
 2156 0140 17        		.byte	0x17
 2157 0141 00        		.byte	0x0
 2158 0142 05        		.uleb128 0x5
 2159 0143 02        		.byte	0x2
 2160 0144 0000 0000 		.long	.LM25
 2161 0148 16        		.byte	0x16
 2162 0149 00        		.byte	0x0
 2163 014a 05        		.uleb128 0x5
 2164 014b 02        		.byte	0x2
 2165 014c 0000 0000 		.long	.LM26
 2166 0150 16        		.byte	0x16
 2167 0151 00        		.byte	0x0
 2168 0152 05        		.uleb128 0x5
 2169 0153 02        		.byte	0x2
 2170 0154 0000 0000 		.long	.LM27
 2171 0158 18        		.byte	0x18
 2172 0159 00        		.byte	0x0
 2173 015a 05        		.uleb128 0x5
 2174 015b 02        		.byte	0x2
 2175 015c 0000 0000 		.long	.LM28
 2176 0160 1C        		.byte	0x1c
 2177 0161 00        		.byte	0x0
 2178 0162 05        		.uleb128 0x5
 2179 0163 02        		.byte	0x2
 2180 0164 0000 0000 		.long	.LM29
GAS LISTING C:\Users\ADMINI~1\AppData\Local\Temp/cchZuvGY.s 			page 40


 2181 0168 17        		.byte	0x17
 2182 0169 00        		.byte	0x0
 2183 016a 05        		.uleb128 0x5
 2184 016b 02        		.byte	0x2
 2185 016c 0000 0000 		.long	.LM30
 2186 0170 17        		.byte	0x17
 2187 0171 00        		.byte	0x0
 2188 0172 05        		.uleb128 0x5
 2189 0173 02        		.byte	0x2
 2190 0174 0000 0000 		.long	.LM31
 2191 0178 17        		.byte	0x17
 2192 0179 00        		.byte	0x0
 2193 017a 05        		.uleb128 0x5
 2194 017b 02        		.byte	0x2
 2195 017c 0000 0000 		.long	.LM32
 2196 0180 17        		.byte	0x17
 2197 0181 00        		.byte	0x0
 2198 0182 05        		.uleb128 0x5
 2199 0183 02        		.byte	0x2
 2200 0184 0000 0000 		.long	.LM33
 2201 0188 17        		.byte	0x17
 2202 0189 00        		.byte	0x0
 2203 018a 05        		.uleb128 0x5
 2204 018b 02        		.byte	0x2
 2205 018c 0000 0000 		.long	.LM34
 2206 0190 17        		.byte	0x17
 2207 0191 00        		.byte	0x0
 2208 0192 05        		.uleb128 0x5
 2209 0193 02        		.byte	0x2
 2210 0194 0000 0000 		.long	.LM35
 2211 0198 17        		.byte	0x17
 2212 0199 00        		.byte	0x0
 2213 019a 05        		.uleb128 0x5
 2214 019b 02        		.byte	0x2
 2215 019c 0000 0000 		.long	.LM36
 2216 01a0 17        		.byte	0x17
 2217 01a1 00        		.byte	0x0
 2218 01a2 05        		.uleb128 0x5
 2219 01a3 02        		.byte	0x2
 2220 01a4 0000 0000 		.long	.LM37
 2221 01a8 16        		.byte	0x16
 2222 01a9 00        		.byte	0x0
 2223 01aa 05        		.uleb128 0x5
 2224 01ab 02        		.byte	0x2
 2225 01ac 0000 0000 		.long	.LM38
 2226 01b0 16        		.byte	0x16
 2227 01b1 00        		.byte	0x0
 2228 01b2 05        		.uleb128 0x5
 2229 01b3 02        		.byte	0x2
 2230 01b4 0000 0000 		.long	.LM39
 2231 01b8 17        		.byte	0x17
 2232 01b9 00        		.byte	0x0
 2233 01ba 05        		.uleb128 0x5
 2234 01bb 02        		.byte	0x2
 2235 01bc 0000 0000 		.long	.LM40
 2236 01c0 16        		.byte	0x16
 2237 01c1 00        		.byte	0x0
GAS LISTING C:\Users\ADMINI~1\AppData\Local\Temp/cchZuvGY.s 			page 41


 2238 01c2 05        		.uleb128 0x5
 2239 01c3 02        		.byte	0x2
 2240 01c4 0000 0000 		.long	.LM41
 2241 01c8 17        		.byte	0x17
 2242 01c9 00        		.byte	0x0
 2243 01ca 05        		.uleb128 0x5
 2244 01cb 02        		.byte	0x2
 2245 01cc 0000 0000 		.long	.LM42
 2246 01d0 16        		.byte	0x16
 2247 01d1 00        		.byte	0x0
 2248 01d2 05        		.uleb128 0x5
 2249 01d3 02        		.byte	0x2
 2250 01d4 0000 0000 		.long	.LM43
 2251 01d8 17        		.byte	0x17
 2252 01d9 00        		.byte	0x0
 2253 01da 05        		.uleb128 0x5
 2254 01db 02        		.byte	0x2
 2255 01dc 0000 0000 		.long	.LM44
 2256 01e0 16        		.byte	0x16
 2257 01e1 00        		.byte	0x0
 2258 01e2 05        		.uleb128 0x5
 2259 01e3 02        		.byte	0x2
 2260 01e4 0000 0000 		.long	.LM45
 2261 01e8 17        		.byte	0x17
 2262 01e9 00        		.byte	0x0
 2263 01ea 05        		.uleb128 0x5
 2264 01eb 02        		.byte	0x2
 2265 01ec 0000 0000 		.long	.LM46
 2266 01f0 16        		.byte	0x16
 2267 01f1 00        		.byte	0x0
 2268 01f2 05        		.uleb128 0x5
 2269 01f3 02        		.byte	0x2
 2270 01f4 0000 0000 		.long	.LM47
 2271 01f8 17        		.byte	0x17
 2272 01f9 00        		.byte	0x0
 2273 01fa 05        		.uleb128 0x5
 2274 01fb 02        		.byte	0x2
 2275 01fc 0000 0000 		.long	.LM48
 2276 0200 1B        		.byte	0x1b
 2277 0201 00        		.byte	0x0
 2278 0202 05        		.uleb128 0x5
 2279 0203 02        		.byte	0x2
 2280 0204 0000 0000 		.long	.LM49
 2281 0208 17        		.byte	0x17
 2282 0209 00        		.byte	0x0
 2283 020a 05        		.uleb128 0x5
 2284 020b 02        		.byte	0x2
 2285 020c 0000 0000 		.long	.LM50
 2286 0210 16        		.byte	0x16
 2287 0211 00        		.byte	0x0
 2288 0212 05        		.uleb128 0x5
 2289 0213 02        		.byte	0x2
 2290 0214 0000 0000 		.long	.LM51
 2291 0218 17        		.byte	0x17
 2292 0219 00        		.byte	0x0
 2293 021a 05        		.uleb128 0x5
 2294 021b 02        		.byte	0x2
GAS LISTING C:\Users\ADMINI~1\AppData\Local\Temp/cchZuvGY.s 			page 42


 2295 021c 0000 0000 		.long	.LM52
 2296 0220 16        		.byte	0x16
 2297 0221 00        		.byte	0x0
 2298 0222 05        		.uleb128 0x5
 2299 0223 02        		.byte	0x2
 2300 0224 0000 0000 		.long	.LM53
 2301 0228 17        		.byte	0x17
 2302 0229 00        		.byte	0x0
 2303 022a 05        		.uleb128 0x5
 2304 022b 02        		.byte	0x2
 2305 022c 0000 0000 		.long	.LM54
 2306 0230 16        		.byte	0x16
 2307 0231 00        		.byte	0x0
 2308 0232 05        		.uleb128 0x5
 2309 0233 02        		.byte	0x2
 2310 0234 0000 0000 		.long	.LM55
 2311 0238 17        		.byte	0x17
 2312 0239 00        		.byte	0x0
 2313 023a 05        		.uleb128 0x5
 2314 023b 02        		.byte	0x2
 2315 023c 0000 0000 		.long	.LM56
 2316 0240 16        		.byte	0x16
 2317 0241 00        		.byte	0x0
 2318 0242 05        		.uleb128 0x5
 2319 0243 02        		.byte	0x2
 2320 0244 0000 0000 		.long	.LM57
 2321 0248 17        		.byte	0x17
 2322 0249 00        		.byte	0x0
 2323 024a 05        		.uleb128 0x5
 2324 024b 02        		.byte	0x2
 2325 024c 0000 0000 		.long	.LM58
 2326 0250 1B        		.byte	0x1b
 2327 0251 00        		.byte	0x0
 2328 0252 05        		.uleb128 0x5
 2329 0253 02        		.byte	0x2
 2330 0254 0000 0000 		.long	.LM59
 2331 0258 1A        		.byte	0x1a
 2332 0259 00        		.byte	0x0
 2333 025a 05        		.uleb128 0x5
 2334 025b 02        		.byte	0x2
 2335 025c 0000 0000 		.long	.LM60
 2336 0260 13        		.byte	0x13
 2337 0261 00        		.byte	0x0
 2338 0262 05        		.uleb128 0x5
 2339 0263 02        		.byte	0x2
 2340 0264 0000 0000 		.long	.LM61
 2341 0268 03        		.byte	0x3
 2342 0269 F97E      		.sleb128 -135
 2343 026b 01        		.byte	0x1
 2344 026c 00        		.byte	0x0
 2345 026d 05        		.uleb128 0x5
 2346 026e 02        		.byte	0x2
 2347 026f 0000 0000 		.long	.LM62
 2348 0273 16        		.byte	0x16
 2349 0274 00        		.byte	0x0
 2350 0275 05        		.uleb128 0x5
 2351 0276 02        		.byte	0x2
GAS LISTING C:\Users\ADMINI~1\AppData\Local\Temp/cchZuvGY.s 			page 43


 2352 0277 0000 0000 		.long	.LM63
 2353 027b 16        		.byte	0x16
 2354 027c 00        		.byte	0x0
 2355 027d 05        		.uleb128 0x5
 2356 027e 02        		.byte	0x2
 2357 027f 0000 0000 		.long	.LM64
 2358 0283 03        		.byte	0x3
 2359 0284 6B        		.sleb128 -21
 2360 0285 01        		.byte	0x1
 2361 0286 00        		.byte	0x0
 2362 0287 05        		.uleb128 0x5
 2363 0288 02        		.byte	0x2
 2364 0289 0000 0000 		.long	.LM65
 2365 028d 03        		.byte	0x3
 2366 028e 70        		.sleb128 -16
 2367 028f 01        		.byte	0x1
 2368 0290 00        		.byte	0x0
 2369 0291 05        		.uleb128 0x5
 2370 0292 02        		.byte	0x2
 2371 0293 0000 0000 		.long	.LM66
 2372 0297 25        		.byte	0x25
 2373 0298 00        		.byte	0x0
 2374 0299 05        		.uleb128 0x5
 2375 029a 02        		.byte	0x2
 2376 029b 0000 0000 		.long	.LM67
 2377 029f 03        		.byte	0x3
 2378 02a0 4E        		.sleb128 -50
 2379 02a1 01        		.byte	0x1
 2380 02a2 00        		.byte	0x0
 2381 02a3 05        		.uleb128 0x5
 2382 02a4 02        		.byte	0x2
 2383 02a5 0000 0000 		.long	.LM68
 2384 02a9 1A        		.byte	0x1a
 2385 02aa 00        		.byte	0x0
 2386 02ab 05        		.uleb128 0x5
 2387 02ac 02        		.byte	0x2
 2388 02ad 0000 0000 		.long	.LM69
 2389 02b1 16        		.byte	0x16
 2390 02b2 00        		.byte	0x0
 2391 02b3 05        		.uleb128 0x5
 2392 02b4 02        		.byte	0x2
 2393 02b5 0000 0000 		.long	.LM70
 2394 02b9 15        		.byte	0x15
 2395 02ba 00        		.byte	0x0
 2396 02bb 05        		.uleb128 0x5
 2397 02bc 02        		.byte	0x2
 2398 02bd 0000 0000 		.long	.LM71
 2399 02c1 19        		.byte	0x19
 2400 02c2 00        		.byte	0x0
 2401 02c3 05        		.uleb128 0x5
 2402 02c4 02        		.byte	0x2
 2403 02c5 0000 0000 		.long	.LM72
 2404 02c9 15        		.byte	0x15
 2405 02ca 00        		.byte	0x0
 2406 02cb 05        		.uleb128 0x5
 2407 02cc 02        		.byte	0x2
 2408 02cd 0000 0000 		.long	.LM73
GAS LISTING C:\Users\ADMINI~1\AppData\Local\Temp/cchZuvGY.s 			page 44


 2409 02d1 16        		.byte	0x16
 2410 02d2 00        		.byte	0x0
 2411 02d3 05        		.uleb128 0x5
 2412 02d4 02        		.byte	0x2
 2413 02d5 0000 0000 		.long	.LM74
 2414 02d9 16        		.byte	0x16
 2415 02da 00        		.byte	0x0
 2416 02db 05        		.uleb128 0x5
 2417 02dc 02        		.byte	0x2
 2418 02dd 0000 0000 		.long	.LM75
 2419 02e1 16        		.byte	0x16
 2420 02e2 00        		.byte	0x0
 2421 02e3 05        		.uleb128 0x5
 2422 02e4 02        		.byte	0x2
 2423 02e5 0000 0000 		.long	.LM76
 2424 02e9 19        		.byte	0x19
 2425 02ea 00        		.byte	0x0
 2426 02eb 05        		.uleb128 0x5
 2427 02ec 02        		.byte	0x2
 2428 02ed 0000 0000 		.long	.Letext0
 2429 02f1 00        		.byte	0x0
 2430 02f2 01        		.uleb128 0x1
 2431 02f3 01        		.byte	0x1
 2432               	.LELT0:
 2433 02f4 1600 0000 		.section	.debug_str,"MS",@progbits,1
 2433      0200 1000 
 2433      0000 0101 
 2433      FB0E 0A00 
 2433      0101 0101 
 2434               	.LASF111:
 2435 0000 4B45 595F 		.string	"KEY_LSHIFT"
 2435      4C53 4849 
 2435      4654 00
 2436               	.LASF157:
 2437 000b 7075 7368 		.string	"pushM"
 2437      4D00 
 2438               	.LASF63:
 2439 0011 4B45 595F 		.string	"KEY_SLASH"
 2439      534C 4153 
 2439      4800 
 2440               	.LASF134:
 2441 001b 4B45 595F 		.string	"KEY_PLAY"
 2441      504C 4159 
 2441      00
 2442               	.LASF90:
 2443 0024 4B45 595F 		.string	"KEY_NUMLOCK"
 2443      4E55 4D4C 
 2443      4F43 4B00 
 2444               	.LASF142:
 2445 0030 4B45 595F 		.string	"KEY_REC"
 2445      5245 4300 
 2446               	.LASF110:
 2447 0038 4B45 595F 		.string	"KEY_LCTRL"
 2447      4C43 5452 
 2447      4C00 
 2448               	.LASF74:
 2449 0042 4B45 595F 		.string	"KEY_F10"
GAS LISTING C:\Users\ADMINI~1\AppData\Local\Temp/cchZuvGY.s 			page 45


 2449      4631 3000 
 2450               	.LASF75:
 2451 004a 4B45 595F 		.string	"KEY_F11"
 2451      4631 3100 
 2452               	.LASF76:
 2453 0052 4B45 595F 		.string	"KEY_F12"
 2453      4631 3200 
 2454               	.LASF106:
 2455 005a 4B45 595F 		.string	"KEY_KP_DOT"
 2455      4B50 5F44 
 2455      4F54 00
 2456               	.LASF164:
 2457 0065 7849 6E74 		.string	"xInt"
 2457      00
 2458               	.LASF133:
 2459 006a 4B45 595F 		.string	"KEY_STOP"
 2459      5354 4F50 
 2459      00
 2460               	.LASF177:
 2461 0073 443A 5C67 		.string	"D:\\git2\\ps2avrU\\.git\\source"
 2461      6974 325C 
 2461      7073 3261 
 2461      7672 555C 
 2461      2E67 6974 
 2462               	.LASF84:
 2463 008f 4B45 595F 		.string	"KEY_END"
 2463      454E 4400 
 2464               	.LASF6:
 2465 0097 6C6F 6E67 		.string	"long long unsigned int"
 2465      206C 6F6E 
 2465      6720 756E 
 2465      7369 676E 
 2465      6564 2069 
 2466               	.LASF49:
 2467 00ae 4B45 595F 		.string	"KEY_BKSP"
 2467      424B 5350 
 2467      00
 2468               	.LASF83:
 2469 00b7 4B45 595F 		.string	"KEY_DEL"
 2469      4445 4C00 
 2470               	.LASF167:
 2471 00bf 674B 6579 		.string	"gKey"
 2471      00
 2472               	.LASF132:
 2473 00c4 4B45 595F 		.string	"KEY_PREV_TRK"
 2473      5052 4556 
 2473      5F54 524B 
 2473      00
 2474               	.LASF58:
 2475 00d1 4B45 595F 		.string	"KEY_COLON"
 2475      434F 4C4F 
 2475      4E00 
 2476               	.LASF153:
 2477 00db 6B65 7963 		.string	"keycode"
 2477      6F64 6500 
 2478               	.LASF120:
 2479 00e3 4B45 595F 		.string	"KEY_POWER"
GAS LISTING C:\Users\ADMINI~1\AppData\Local\Temp/cchZuvGY.s 			page 46


 2479      504F 5745 
 2479      5200 
 2480               	.LASF8:
 2481 00ed 4B45 595F 		.string	"KEY_ErrorRollOver"
 2481      4572 726F 
 2481      7252 6F6C 
 2481      6C4F 7665 
 2481      7200 
 2482               	.LASF138:
 2483 00ff 4B45 595F 		.string	"KEY_MEDIA"
 2483      4D45 4449 
 2483      4100 
 2484               	.LASF5:
 2485 0109 6C6F 6E67 		.string	"long long int"
 2485      206C 6F6E 
 2485      6720 696E 
 2485      7400 
 2486               	.LASF2:
 2487 0117 7369 676E 		.string	"signed char"
 2487      6564 2063 
 2487      6861 7200 
 2488               	.LASF93:
 2489 0123 4B45 595F 		.string	"KEY_KP_MINUS"
 2489      4B50 5F4D 
 2489      494E 5553 
 2489      00
 2490               	.LASF136:
 2491 0130 4B45 595F 		.string	"KEY_VOL_UP"
 2491      564F 4C5F 
 2491      5550 00
 2492               	.LASF55:
 2493 013b 4B45 595F 		.string	"KEY_RBR"
 2493      5242 5200 
 2494               	.LASF135:
 2495 0143 4B45 595F 		.string	"KEY_MUTE"
 2495      4D55 5445 
 2495      00
 2496               	.LASF163:
 2497 014c 746F 5374 		.string	"toString"
 2497      7269 6E67 
 2497      00
 2498               	.LASF1:
 2499 0155 6C6F 6E67 		.string	"long int"
 2499      2069 6E74 
 2499      00
 2500               	.LASF126:
 2501 015e 4B45 595F 		.string	"KEY_WWW_BACK"
 2501      5757 575F 
 2501      4241 434B 
 2501      00
 2502               	.LASF57:
 2503 016b 4B45 595F 		.string	"KEY_Europe1"
 2503      4575 726F 
 2503      7065 3100 
 2504               	.LASF107:
 2505 0177 4B45 595F 		.string	"KEY_Europe2"
 2505      4575 726F 
GAS LISTING C:\Users\ADMINI~1\AppData\Local\Temp/cchZuvGY.s 			page 47


 2505      7065 3200 
 2506               	.LASF91:
 2507 0183 4B45 595F 		.string	"KEY_KP_SLASH"
 2507      4B50 5F53 
 2507      4C41 5348 
 2507      00
 2508               	.LASF86:
 2509 0190 4B45 595F 		.string	"KEY_RIGHT"
 2509      5249 4748 
 2509      5400 
 2510               	.LASF60:
 2511 019a 4B45 595F 		.string	"KEY_HASH"
 2511      4841 5348 
 2511      00
 2512               	.LASF116:
 2513 01a3 4B45 595F 		.string	"KEY_RALT"
 2513      5241 4C54 
 2513      00
 2514               	.LASF130:
 2515 01ac 4B45 595F 		.string	"KEY_WWW_FAVORITE"
 2515      5757 575F 
 2515      4641 564F 
 2515      5249 5445 
 2515      00
 2516               	.LASF165:
 2517 01bd 636C 6561 		.string	"clearMacroPressedBuffer"
 2517      724D 6163 
 2517      726F 5072 
 2517      6573 7365 
 2517      6442 7566 
 2518               	.LASF158:
 2519 01d5 7365 744D 		.string	"setMacroProcessEnd"
 2519      6163 726F 
 2519      5072 6F63 
 2519      6573 7345 
 2519      6E64 00
 2520               	.LASF129:
 2521 01e8 4B45 595F 		.string	"KEY_WWW_REFRESH"
 2521      5757 575F 
 2521      5245 4652 
 2521      4553 4800 
 2522               	.LASF54:
 2523 01f8 4B45 595F 		.string	"KEY_LBR"
 2523      4C42 5200 
 2524               	.LASF161:
 2525 0200 6368 6172 		.string	"character"
 2525      6163 7465 
 2525      7200 
 2526               	.LASF80:
 2527 020a 4B45 595F 		.string	"KEY_INSERT"
 2527      494E 5345 
 2527      5254 00
 2528               	.LASF175:
 2529 0215 474E 5520 		.string	"GNU C 4.3.3"
 2529      4320 342E 
 2529      332E 3300 
 2530               	.LASF77:
GAS LISTING C:\Users\ADMINI~1\AppData\Local\Temp/cchZuvGY.s 			page 48


 2531 0221 4B45 595F 		.string	"KEY_PRNSCR"
 2531      5052 4E53 
 2531      4352 00
 2532               	.LASF85:
 2533 022c 4B45 595F 		.string	"KEY_PGDN"
 2533      5047 444E 
 2533      00
 2534               	.LASF117:
 2535 0235 4B45 595F 		.string	"KEY_RGUI"
 2535      5247 5549 
 2535      00
 2536               	.LASF125:
 2537 023e 4B45 595F 		.string	"KEY_WWW_HOME"
 2537      5757 575F 
 2537      484F 4D45 
 2537      00
 2538               	.LASF152:
 2539 024b 6D6F 6465 		.string	"mode"
 2539      00
 2540               	.LASF0:
 2541 0250 756E 7369 		.string	"unsigned int"
 2541      676E 6564 
 2541      2069 6E74 
 2541      00
 2542               	.LASF169:
 2543 025d 6749 6478 		.string	"gIdx"
 2543      00
 2544               	.LASF115:
 2545 0262 4B45 595F 		.string	"KEY_RSHIFT"
 2545      5253 4849 
 2545      4654 00
 2546               	.LASF78:
 2547 026d 4B45 595F 		.string	"KEY_SCRLCK"
 2547      5343 524C 
 2547      434B 00
 2548               	.LASF4:
 2549 0278 6C6F 6E67 		.string	"long unsigned int"
 2549      2075 6E73 
 2549      6967 6E65 
 2549      6420 696E 
 2549      7400 
 2550               	.LASF149:
 2551 028a 4B45 595F 		.string	"KEY_HANGLE"
 2551      4841 4E47 
 2551      4C45 00
 2552               	.LASF59:
 2553 0295 4B45 595F 		.string	"KEY_QUOTE"
 2553      5155 4F54 
 2553      4500 
 2554               	.LASF7:
 2555 029f 4B45 595F 		.string	"KEY_NONE"
 2555      4E4F 4E45 
 2555      00
 2556               	.LASF95:
 2557 02a8 4B45 595F 		.string	"KEY_KP_ENTER"
 2557      4B50 5F45 
 2557      4E54 4552 
GAS LISTING C:\Users\ADMINI~1\AppData\Local\Temp/cchZuvGY.s 			page 49


 2557      00
 2558               	.LASF87:
 2559 02b5 4B45 595F 		.string	"KEY_LEFT"
 2559      4C45 4654 
 2559      00
 2560               	.LASF94:
 2561 02be 4B45 595F 		.string	"KEY_KP_PLUS"
 2561      4B50 5F50 
 2561      4C55 5300 
 2562               	.LASF170:
 2563 02ca 674C 656E 		.string	"gLen"
 2563      00
 2564               	.LASF64:
 2565 02cf 4B45 595F 		.string	"KEY_CAPS"
 2565      4341 5053 
 2565      00
 2566               	.LASF156:
 2567 02d8 6973 4D61 		.string	"isMacroProcessEnd"
 2567      6372 6F50 
 2567      726F 6365 
 2567      7373 456E 
 2567      6400 
 2568               	.LASF62:
 2569 02ea 4B45 595F 		.string	"KEY_DOT"
 2569      444F 5400 
 2570               	.LASF159:
 2571 02f2 6974 656D 		.string	"item"
 2571      00
 2572               	.LASF144:
 2573 02f7 4B45 595F 		.string	"KEY_MINIMIZE"
 2573      4D49 4E49 
 2573      4D49 5A45 
 2573      00
 2574               	.LASF51:
 2575 0304 4B45 595F 		.string	"KEY_SPACE"
 2575      5350 4143 
 2575      4500 
 2576               	.LASF121:
 2577 030e 4B45 595F 		.string	"KEY_SLEEP"
 2577      534C 4545 
 2577      5000 
 2578               	.LASF146:
 2579 0318 4B45 595F 		.string	"KEY_Multimedia_end"
 2579      4D75 6C74 
 2579      696D 6564 
 2579      6961 5F65 
 2579      6E64 00
 2580               	.LASF10:
 2581 032b 4B45 595F 		.string	"KEY_ErrorUndefined"
 2581      4572 726F 
 2581      7255 6E64 
 2581      6566 696E 
 2581      6564 00
 2582               	.LASF128:
 2583 033e 4B45 595F 		.string	"KEY_WWW_STOP"
 2583      5757 575F 
 2583      5354 4F50 
GAS LISTING C:\Users\ADMINI~1\AppData\Local\Temp/cchZuvGY.s 			page 50


 2583      00
 2584               	.LASF46:
 2585 034b 4B45 595F 		.string	"KEY_0"
 2585      3000 
 2586               	.LASF37:
 2587 0351 4B45 595F 		.string	"KEY_1"
 2587      3100 
 2588               	.LASF38:
 2589 0357 4B45 595F 		.string	"KEY_2"
 2589      3200 
 2590               	.LASF39:
 2591 035d 4B45 595F 		.string	"KEY_3"
 2591      3300 
 2592               	.LASF40:
 2593 0363 4B45 595F 		.string	"KEY_4"
 2593      3400 
 2594               	.LASF41:
 2595 0369 4B45 595F 		.string	"KEY_5"
 2595      3500 
 2596               	.LASF42:
 2597 036f 4B45 595F 		.string	"KEY_6"
 2597      3600 
 2598               	.LASF43:
 2599 0375 4B45 595F 		.string	"KEY_7"
 2599      3700 
 2600               	.LASF44:
 2601 037b 4B45 595F 		.string	"KEY_8"
 2601      3800 
 2602               	.LASF45:
 2603 0381 4B45 595F 		.string	"KEY_9"
 2603      3900 
 2604               	.LASF52:
 2605 0387 4B45 595F 		.string	"KEY_MINUS"
 2605      4D49 4E55 
 2605      5300 
 2606               	.LASF122:
 2607 0391 4B45 595F 		.string	"KEY_WAKE"
 2607      5741 4B45 
 2607      00
 2608               	.LASF11:
 2609 039a 4B45 595F 		.string	"KEY_A"
 2609      4100 
 2610               	.LASF12:
 2611 03a0 4B45 595F 		.string	"KEY_B"
 2611      4200 
 2612               	.LASF13:
 2613 03a6 4B45 595F 		.string	"KEY_C"
 2613      4300 
 2614               	.LASF14:
 2615 03ac 4B45 595F 		.string	"KEY_D"
 2615      4400 
 2616               	.LASF15:
 2617 03b2 4B45 595F 		.string	"KEY_E"
 2617      4500 
 2618               	.LASF16:
 2619 03b8 4B45 595F 		.string	"KEY_F"
 2619      4600 
GAS LISTING C:\Users\ADMINI~1\AppData\Local\Temp/cchZuvGY.s 			page 51


 2620               	.LASF17:
 2621 03be 4B45 595F 		.string	"KEY_G"
 2621      4700 
 2622               	.LASF18:
 2623 03c4 4B45 595F 		.string	"KEY_H"
 2623      4800 
 2624               	.LASF19:
 2625 03ca 4B45 595F 		.string	"KEY_I"
 2625      4900 
 2626               	.LASF20:
 2627 03d0 4B45 595F 		.string	"KEY_J"
 2627      4A00 
 2628               	.LASF21:
 2629 03d6 4B45 595F 		.string	"KEY_K"
 2629      4B00 
 2630               	.LASF22:
 2631 03dc 4B45 595F 		.string	"KEY_L"
 2631      4C00 
 2632               	.LASF23:
 2633 03e2 4B45 595F 		.string	"KEY_M"
 2633      4D00 
 2634               	.LASF24:
 2635 03e8 4B45 595F 		.string	"KEY_N"
 2635      4E00 
 2636               	.LASF25:
 2637 03ee 4B45 595F 		.string	"KEY_O"
 2637      4F00 
 2638               	.LASF26:
 2639 03f4 4B45 595F 		.string	"KEY_P"
 2639      5000 
 2640               	.LASF27:
 2641 03fa 4B45 595F 		.string	"KEY_Q"
 2641      5100 
 2642               	.LASF28:
 2643 0400 4B45 595F 		.string	"KEY_R"
 2643      5200 
 2644               	.LASF29:
 2645 0406 4B45 595F 		.string	"KEY_S"
 2645      5300 
 2646               	.LASF30:
 2647 040c 4B45 595F 		.string	"KEY_T"
 2647      5400 
 2648               	.LASF31:
 2649 0412 4B45 595F 		.string	"KEY_U"
 2649      5500 
 2650               	.LASF32:
 2651 0418 4B45 595F 		.string	"KEY_V"
 2651      5600 
 2652               	.LASF33:
 2653 041e 4B45 595F 		.string	"KEY_W"
 2653      5700 
 2654               	.LASF34:
 2655 0424 4B45 595F 		.string	"KEY_X"
 2655      5800 
 2656               	.LASF35:
 2657 042a 4B45 595F 		.string	"KEY_Y"
 2657      5900 
GAS LISTING C:\Users\ADMINI~1\AppData\Local\Temp/cchZuvGY.s 			page 52


 2658               	.LASF36:
 2659 0430 4B45 595F 		.string	"KEY_Z"
 2659      5A00 
 2660               	.LASF178:
 2661 0436 6973 456D 		.string	"isEmptyM"
 2661      7074 794D 
 2661      00
 2662               	.LASF131:
 2663 043f 4B45 595F 		.string	"KEY_NEXT_TRK"
 2663      4E45 5854 
 2663      5F54 524B 
 2663      00
 2664               	.LASF168:
 2665 044c 6753 7472 		.string	"gStr"
 2665      00
 2666               	.LASF92:
 2667 0451 4B45 595F 		.string	"KEY_KP_AST"
 2667      4B50 5F41 
 2667      5354 00
 2668               	.LASF160:
 2669 045c 7849 7345 		.string	"xIsEnd"
 2669      6E64 00
 2670               	.LASF137:
 2671 0463 4B45 595F 		.string	"KEY_VOL_DOWN"
 2671      564F 4C5F 
 2671      444F 574E 
 2671      00
 2672               	.LASF145:
 2673 0470 4B45 595F 		.string	"KEY_EJECT"
 2673      454A 4543 
 2673      5400 
 2674               	.LASF118:
 2675 047a 4B45 595F 		.string	"KEY_Modifiers_end"
 2675      4D6F 6469 
 2675      6669 6572 
 2675      735F 656E 
 2675      6400 
 2676               	.LASF3:
 2677 048c 756E 7369 		.string	"unsigned char"
 2677      676E 6564 
 2677      2063 6861 
 2677      7200 
 2678               	.LASF141:
 2679 049a 4B45 595F 		.string	"KEY_SCREENSAVE"
 2679      5343 5245 
 2679      454E 5341 
 2679      5645 00
 2680               	.LASF150:
 2681 04a9 4B45 595F 		.string	"KEY_extend_end"
 2681      6578 7465 
 2681      6E64 5F65 
 2681      6E64 00
 2682               	.LASF61:
 2683 04b8 4B45 595F 		.string	"KEY_COMMA"
 2683      434F 4D4D 
 2683      4100 
 2684               	.LASF166:
GAS LISTING C:\Users\ADMINI~1\AppData\Local\Temp/cchZuvGY.s 			page 53


 2685 04c2 706F 704D 		.string	"popMWithKey"
 2685      5769 7468 
 2685      4B65 7900 
 2686               	.LASF50:
 2687 04ce 4B45 595F 		.string	"KEY_TAB"
 2687      5441 4200 
 2688               	.LASF88:
 2689 04d6 4B45 595F 		.string	"KEY_DOWN"
 2689      444F 574E 
 2689      00
 2690               	.LASF162:
 2691 04df 6368 6172 		.string	"charToKey"
 2691      546F 4B65 
 2691      7900 
 2692               	.LASF53:
 2693 04e9 4B45 595F 		.string	"KEY_EQUAL"
 2693      4551 5541 
 2693      4C00 
 2694               	.LASF179:
 2695 04f3 5F70 7265 		.string	"_pressedBuffer"
 2695      7373 6564 
 2695      4275 6666 
 2695      6572 00
 2696               	.LASF79:
 2697 0502 4B45 595F 		.string	"KEY_PAUSE"
 2697      5041 5553 
 2697      4500 
 2698               	.LASF96:
 2699 050c 4B45 595F 		.string	"KEY_KP_1"
 2699      4B50 5F31 
 2699      00
 2700               	.LASF97:
 2701 0515 4B45 595F 		.string	"KEY_KP_2"
 2701      4B50 5F32 
 2701      00
 2702               	.LASF98:
 2703 051e 4B45 595F 		.string	"KEY_KP_3"
 2703      4B50 5F33 
 2703      00
 2704               	.LASF82:
 2705 0527 4B45 595F 		.string	"KEY_PGUP"
 2705      5047 5550 
 2705      00
 2706               	.LASF9:
 2707 0530 4B45 595F 		.string	"KEY_POSTFail"
 2707      504F 5354 
 2707      4661 696C 
 2707      00
 2708               	.LASF101:
 2709 053d 4B45 595F 		.string	"KEY_KP_6"
 2709      4B50 5F36 
 2709      00
 2710               	.LASF102:
 2711 0546 4B45 595F 		.string	"KEY_KP_7"
 2711      4B50 5F37 
 2711      00
 2712               	.LASF103:
GAS LISTING C:\Users\ADMINI~1\AppData\Local\Temp/cchZuvGY.s 			page 54


 2713 054f 4B45 595F 		.string	"KEY_KP_8"
 2713      4B50 5F38 
 2713      00
 2714               	.LASF47:
 2715 0558 4B45 595F 		.string	"KEY_ENTER"
 2715      454E 5445 
 2715      5200 
 2716               	.LASF48:
 2717 0562 4B45 595F 		.string	"KEY_ESC"
 2717      4553 4300 
 2718               	.LASF105:
 2719 056a 4B45 595F 		.string	"KEY_KP_0"
 2719      4B50 5F30 
 2719      00
 2720               	.LASF151:
 2721 0573 6368 6172 		.string	"char"
 2721      00
 2722               	.LASF99:
 2723 0578 4B45 595F 		.string	"KEY_KP_4"
 2723      4B50 5F34 
 2723      00
 2724               	.LASF148:
 2725 0581 4B45 595F 		.string	"KEY_HANJA"
 2725      4841 4E4A 
 2725      4100 
 2726               	.LASF100:
 2727 058b 4B45 595F 		.string	"KEY_KP_5"
 2727      4B50 5F35 
 2727      00
 2728               	.LASF127:
 2729 0594 4B45 595F 		.string	"KEY_WWW_FORWARD"
 2729      5757 575F 
 2729      464F 5257 
 2729      4152 4400 
 2730               	.LASF104:
 2731 05a4 4B45 595F 		.string	"KEY_KP_9"
 2731      4B50 5F39 
 2731      00
 2732               	.LASF174:
 2733 05ad 6672 6F6E 		.string	"frontm"
 2733      746D 00
 2734               	.LASF124:
 2735 05b4 4B45 595F 		.string	"KEY_WWW_SEARCH"
 2735      5757 575F 
 2735      5345 4152 
 2735      4348 00
 2736               	.LASF123:
 2737 05c3 4B45 595F 		.string	"KEY_EMAIL"
 2737      454D 4149 
 2737      4C00 
 2738               	.LASF176:
 2739 05cd 6D61 6372 		.string	"macrobuffer.c"
 2739      6F62 7566 
 2739      6665 722E 
 2739      6300 
 2740               	.LASF114:
 2741 05db 4B45 595F 		.string	"KEY_RCTRL"
GAS LISTING C:\Users\ADMINI~1\AppData\Local\Temp/cchZuvGY.s 			page 55


 2741      5243 5452 
 2741      4C00 
 2742               	.LASF172:
 2743 05e5 5155 4555 		.string	"QUEUE_M"
 2743      455F 4D00 
 2744               	.LASF56:
 2745 05ed 4B45 595F 		.string	"KEY_BKSLASH"
 2745      424B 534C 
 2745      4153 4800 
 2746               	.LASF171:
 2747 05f9 5F69 734D 		.string	"_isMacroProcessEnd"
 2747      6163 726F 
 2747      5072 6F63 
 2747      6573 7345 
 2747      6E64 00
 2748               	.LASF139:
 2749 060c 4B45 595F 		.string	"KEY_CALC"
 2749      4341 4C43 
 2749      00
 2750               	.LASF112:
 2751 0615 4B45 595F 		.string	"KEY_LALT"
 2751      4C41 4C54 
 2751      00
 2752               	.LASF65:
 2753 061e 4B45 595F 		.string	"KEY_F1"
 2753      4631 00
 2754               	.LASF66:
 2755 0625 4B45 595F 		.string	"KEY_F2"
 2755      4632 00
 2756               	.LASF67:
 2757 062c 4B45 595F 		.string	"KEY_F3"
 2757      4633 00
 2758               	.LASF68:
 2759 0633 4B45 595F 		.string	"KEY_F4"
 2759      4634 00
 2760               	.LASF69:
 2761 063a 4B45 595F 		.string	"KEY_F5"
 2761      4635 00
 2762               	.LASF70:
 2763 0641 4B45 595F 		.string	"KEY_F6"
 2763      4636 00
 2764               	.LASF71:
 2765 0648 4B45 595F 		.string	"KEY_F7"
 2765      4637 00
 2766               	.LASF72:
 2767 064f 4B45 595F 		.string	"KEY_F8"
 2767      4638 00
 2768               	.LASF154:
 2769 0656 7569 6E74 		.string	"uint8_t"
 2769      385F 7400 
 2770               	.LASF81:
 2771 065e 4B45 595F 		.string	"KEY_HOME"
 2771      484F 4D45 
 2771      00
 2772               	.LASF143:
 2773 0667 4B45 595F 		.string	"KEY_REWIND"
 2773      5245 5749 
GAS LISTING C:\Users\ADMINI~1\AppData\Local\Temp/cchZuvGY.s 			page 56


 2773      4E44 00
 2774               	.LASF147:
 2775 0672 4B45 595F 		.string	"KEY_extend"
 2775      6578 7465 
 2775      6E64 00
 2776               	.LASF108:
 2777 067d 4B45 595F 		.string	"KEY_APPS"
 2777      4150 5053 
 2777      00
 2778               	.LASF89:
 2779 0686 4B45 595F 		.string	"KEY_UP"
 2779      5550 00
 2780               	.LASF140:
 2781 068d 4B45 595F 		.string	"KEY_MYCOM"
 2781      4D59 434F 
 2781      4D00 
 2782               	.LASF73:
 2783 0697 4B45 595F 		.string	"KEY_F9"
 2783      4639 00
 2784               	.LASF173:
 2785 069e 7265 6172 		.string	"rearm"
 2785      6D00 
 2786               	.LASF155:
 2787 06a4 706F 704D 		.string	"popM"
 2787      00
 2788               	.LASF113:
 2789 06a9 4B45 595F 		.string	"KEY_LGUI"
 2789      4C47 5549 
 2789      00
 2790               	.LASF119:
 2791 06b2 4B45 595F 		.string	"KEY_Multimedia"
 2791      4D75 6C74 
 2791      696D 6564 
 2791      6961 00
 2792               	.LASF109:
 2793 06c1 4B45 595F 		.string	"KEY_Modifiers"
 2793      4D6F 6469 
 2793      6669 6572 
 2793      7300 
 2794               	.global __do_copy_data
 2795               	.global __do_clear_bss
GAS LISTING C:\Users\ADMINI~1\AppData\Local\Temp/cchZuvGY.s 			page 57


DEFINED SYMBOLS
                            *ABS*:00000000 macrobuffer.c
C:\Users\ADMINI~1\AppData\Local\Temp/cchZuvGY.s:2      *ABS*:0000003f __SREG__
C:\Users\ADMINI~1\AppData\Local\Temp/cchZuvGY.s:3      *ABS*:0000003e __SP_H__
C:\Users\ADMINI~1\AppData\Local\Temp/cchZuvGY.s:4      *ABS*:0000003d __SP_L__
C:\Users\ADMINI~1\AppData\Local\Temp/cchZuvGY.s:5      *ABS*:00000034 __CCP__
C:\Users\ADMINI~1\AppData\Local\Temp/cchZuvGY.s:6      *ABS*:00000000 __tmp_reg__
C:\Users\ADMINI~1\AppData\Local\Temp/cchZuvGY.s:7      *ABS*:00000001 __zero_reg__
C:\Users\ADMINI~1\AppData\Local\Temp/cchZuvGY.s:18     .text:00000000 pushM
C:\Users\ADMINI~1\AppData\Local\Temp/cchZuvGY.s:624    .bss:00000026 rearm
C:\Users\ADMINI~1\AppData\Local\Temp/cchZuvGY.s:623    .bss:00000024 frontm
C:\Users\ADMINI~1\AppData\Local\Temp/cchZuvGY.s:625    .bss:00000028 QUEUE_M
C:\Users\ADMINI~1\AppData\Local\Temp/cchZuvGY.s:64     .text:0000004a popM
C:\Users\ADMINI~1\AppData\Local\Temp/cchZuvGY.s:99     .text:00000082 isEmptyM
C:\Users\ADMINI~1\AppData\Local\Temp/cchZuvGY.s:123    .text:000000a0 isMacroProcessEnd
C:\Users\ADMINI~1\AppData\Local\Temp/cchZuvGY.s:622    .bss:00000023 _isMacroProcessEnd
C:\Users\ADMINI~1\AppData\Local\Temp/cchZuvGY.s:156    .text:000000d0 setMacroProcessEnd
C:\Users\ADMINI~1\AppData\Local\Temp/cchZuvGY.s:171    .text:000000d6 charToKey
C:\Users\ADMINI~1\AppData\Local\Temp/cchZuvGY.s:487    .text:000001c0 toString
                             .bss:00000020 gStr.2023
C:\Users\ADMINI~1\AppData\Local\Temp/cchZuvGY.s:514    .text:000001dc clearMacroPressedBuffer
C:\Users\ADMINI~1\AppData\Local\Temp/cchZuvGY.s:620    .bss:00000000 _pressedBuffer
C:\Users\ADMINI~1\AppData\Local\Temp/cchZuvGY.s:545    .text:00000202 popMWithKey

UNDEFINED SYMBOLS
__divmodhi4
itoa
findIndex
delete
append
__do_copy_data
__do_clear_bss
