GAS LISTING C:\Users\ADMINI~1\AppData\Local\Temp/ccZzqakh.s 			page 1


   1               		.file	"ps2avru_util.c"
   2               	__SREG__ = 0x3f
   3               	__SP_H__ = 0x3e
   4               	__SP_L__ = 0x3d
   5               	__CCP__  = 0x34
   6               	__tmp_reg__ = 0
   7               	__zero_reg__ = 1
   8               		.section	.debug_abbrev,"",@progbits
   9               	.Ldebug_abbrev0:
  10               		.section	.debug_info,"",@progbits
  11               	.Ldebug_info0:
  12               		.section	.debug_line,"",@progbits
  13               	.Ldebug_line0:
  14               		.text
  15               	.Ltext0:
  16               	.global	findIndex
  17               		.type	findIndex, @function
  18               	findIndex:
  19               	.LFB6:
  20               	.LM1:
  21               	.LVL0:
  22               	/* prologue: function */
  23               	/* frame size = 0 */
  24               	.LM2:
  25 0000 FC01      		movw r30,r24
  26               	.LVL1:
  27 0002 90E0      		ldi r25,lo8(0)
  28               	.LVL2:
  29 0004 00C0      		rjmp .L2
  30               	.L5:
  31               	.LM3:
  32 0006 8191      		ld r24,Z+
  33 0008 8417      		cp r24,r20
  34 000a 01F4      		brne .L3
  35               	.LM4:
  36 000c 292F      		mov r18,r25
  37 000e 30E0      		ldi r19,lo8(0)
  38 0010 00C0      		rjmp .L4
  39               	.L3:
  40               	.LM5:
  41 0012 9F5F      		subi r25,lo8(-(1))
  42               	.L2:
  43 0014 9617      		cp r25,r22
  44 0016 00F0      		brlo .L5
  45 0018 2FEF      		ldi r18,lo8(-1)
  46 001a 3FEF      		ldi r19,hi8(-1)
  47               	.L4:
  48               	.LM6:
  49 001c C901      		movw r24,r18
  50               	/* epilogue start */
  51 001e 0895      		ret
  52               	.LFE6:
  53               		.size	findIndex, .-findIndex
  54               	.global	equalAll
  55               		.type	equalAll, @function
  56               	equalAll:
  57               	.LFB7:
GAS LISTING C:\Users\ADMINI~1\AppData\Local\Temp/ccZzqakh.s 			page 2


  58               	.LM7:
  59               	.LVL3:
  60               	/* prologue: function */
  61               	/* frame size = 0 */
  62 0020 FC01      		movw r30,r24
  63               	.LM8:
  64 0022 8081      		ld r24,Z
  65               	.LVL4:
  66 0024 40E0      		ldi r20,lo8(0)
  67               	.LVL5:
  68 0026 2FEF      		ldi r18,lo8(-1)
  69 0028 3FEF      		ldi r19,hi8(-1)
  70               	.LVL6:
  71 002a 00C0      		rjmp .L8
  72               	.LVL7:
  73               	.L11:
  74               	.LM9:
  75 002c 5191      		ld r21,Z+
  76               	.LVL8:
  77 002e 252F      		mov r18,r21
  78 0030 30E0      		ldi r19,lo8(0)
  79               	.LM10:
  80 0032 90E0      		ldi r25,lo8(0)
  81 0034 2817      		cp r18,r24
  82 0036 3907      		cpc r19,r25
  83 0038 01F0      		breq .L9
  84               	.LVL9:
  85 003a 2FEF      		ldi r18,lo8(-1)
  86 003c 3FEF      		ldi r19,hi8(-1)
  87               	.LVL10:
  88 003e 00C0      		rjmp .L10
  89               	.L9:
  90               	.LM11:
  91 0040 4F5F      		subi r20,lo8(-(1))
  92 0042 852F      		mov r24,r21
  93               	.LVL11:
  94               	.L8:
  95 0044 4617      		cp r20,r22
  96 0046 00F0      		brlo .L11
  97               	.L10:
  98               	.LM12:
  99 0048 C901      		movw r24,r18
 100               	.LVL12:
 101               	/* epilogue start */
 102 004a 0895      		ret
 103               	.LFE7:
 104               		.size	equalAll, .-equalAll
 105               	.global	delete
 106               		.type	delete, @function
 107               	delete:
 108               	.LFB4:
 109               	.LM13:
 110               	.LVL13:
 111               	/* prologue: function */
 112               	/* frame size = 0 */
 113               	.LM14:
 114 004c 9B01      		movw r18,r22
GAS LISTING C:\Users\ADMINI~1\AppData\Local\Temp/ccZzqakh.s 			page 3


 115               	.LVL14:
 116 004e FC01      		movw r30,r24
 117 0050 0190      		ld __tmp_reg__,Z+
 118 0052 0020      		tst __tmp_reg__
 119 0054 01F4      		brne .-6
 120 0056 3197      		sbiw r30,1
 121 0058 E81B      		sub r30,r24
 122 005a F90B      		sbc r31,r25
 123 005c 6F5F      		subi r22,lo8(-(1))
 124 005e 7F4F      		sbci r23,hi8(-(1))
 125 0060 680F      		add r22,r24
 126 0062 791F      		adc r23,r25
 127 0064 E21B      		sub r30,r18
 128 0066 F30B      		sbc r31,r19
 129 0068 820F      		add r24,r18
 130 006a 931F      		adc r25,r19
 131               	.LVL15:
 132 006c AF01      		movw r20,r30
 133 006e 0E94 0000 		call memmove
 134               	/* epilogue start */
 135               	.LM15:
 136 0072 0895      		ret
 137               	.LFE4:
 138               		.size	delete, .-delete
 139               	.global	insert
 140               		.type	insert, @function
 141               	insert:
 142               	.LFB3:
 143               	.LM16:
 144               	.LVL16:
 145 0074 FF92      		push r15
 146 0076 0F93      		push r16
 147 0078 1F93      		push r17
 148               	/* prologue: function */
 149               	/* frame size = 0 */
 150 007a F42E      		mov r15,r20
 151               	.LM17:
 152 007c 9B01      		movw r18,r22
 153               	.LVL17:
 154 007e DC01      		movw r26,r24
 155 0080 0D90      		ld __tmp_reg__,X+
 156 0082 0020      		tst __tmp_reg__
 157 0084 01F4      		brne .-6
 158 0086 8C01      		movw r16,r24
 159 0088 060F      		add r16,r22
 160 008a 171F      		adc r17,r23
 161 008c A81B      		sub r26,r24
 162 008e B90B      		sbc r27,r25
 163 0090 A61B      		sub r26,r22
 164 0092 B70B      		sbc r27,r23
 165 0094 2F5F      		subi r18,lo8(-(1))
 166 0096 3F4F      		sbci r19,hi8(-(1))
 167 0098 820F      		add r24,r18
 168 009a 931F      		adc r25,r19
 169               	.LVL18:
 170 009c B801      		movw r22,r16
 171 009e AD01      		movw r20,r26
GAS LISTING C:\Users\ADMINI~1\AppData\Local\Temp/ccZzqakh.s 			page 4


 172               	.LVL19:
 173 00a0 0E94 0000 		call memmove
 174               	.LM18:
 175 00a4 F801      		movw r30,r16
 176 00a6 F082      		st Z,r15
 177               	/* epilogue start */
 178               	.LM19:
 179 00a8 1F91      		pop r17
 180 00aa 0F91      		pop r16
 181 00ac FF90      		pop r15
 182               	.LVL20:
 183 00ae 0895      		ret
 184               	.LFE3:
 185               		.size	insert, .-insert
 186               	.global	append
 187               		.type	append, @function
 188               	append:
 189               	.LFB5:
 190               	.LM20:
 191               	.LVL21:
 192               	/* prologue: function */
 193               	/* frame size = 0 */
 194 00b0 462F      		mov r20,r22
 195               	.LM21:
 196 00b2 DC01      		movw r26,r24
 197 00b4 0D90      		ld __tmp_reg__,X+
 198 00b6 0020      		tst __tmp_reg__
 199 00b8 01F4      		brne .-6
 200 00ba 1197      		sbiw r26,1
 201 00bc A81B      		sub r26,r24
 202 00be B90B      		sbc r27,r25
 203 00c0 BD01      		movw r22,r26
 204               	.LVL22:
 205 00c2 0E94 0000 		call insert
 206               	.LVL23:
 207               	/* epilogue start */
 208               	.LM22:
 209 00c6 0895      		ret
 210               	.LFE5:
 211               		.size	append, .-append
 212               		.section	.debug_frame,"",@progbits
 213               	.Lframe0:
 214 0000 0C00 0000 		.long	.LECIE0-.LSCIE0
 215               	.LSCIE0:
 216 0004 FFFF FFFF 		.long	0xffffffff
 217 0008 01        		.byte	0x1
 218 0009 00        		.string	""
 219 000a 01        		.uleb128 0x1
 220 000b 7F        		.sleb128 -1
 221 000c 24        		.byte	0x24
 222 000d 0C        		.byte	0xc
 223 000e 20        		.uleb128 0x20
 224 000f 00        		.uleb128 0x0
 225               		.p2align	2
 226               	.LECIE0:
 227               	.LSFDE0:
 228 0010 0C00 0000 		.long	.LEFDE0-.LASFDE0
GAS LISTING C:\Users\ADMINI~1\AppData\Local\Temp/ccZzqakh.s 			page 5


 229               	.LASFDE0:
 230 0014 0000 0000 		.long	.Lframe0
 231 0018 0000 0000 		.long	.LFB6
 232 001c 2000 0000 		.long	.LFE6-.LFB6
 233               		.p2align	2
 234               	.LEFDE0:
 235               	.LSFDE2:
 236 0020 0C00 0000 		.long	.LEFDE2-.LASFDE2
 237               	.LASFDE2:
 238 0024 0000 0000 		.long	.Lframe0
 239 0028 0000 0000 		.long	.LFB7
 240 002c 2C00 0000 		.long	.LFE7-.LFB7
 241               		.p2align	2
 242               	.LEFDE2:
 243               	.LSFDE4:
 244 0030 0C00 0000 		.long	.LEFDE4-.LASFDE4
 245               	.LASFDE4:
 246 0034 0000 0000 		.long	.Lframe0
 247 0038 0000 0000 		.long	.LFB4
 248 003c 2800 0000 		.long	.LFE4-.LFB4
 249               		.p2align	2
 250               	.LEFDE4:
 251               	.LSFDE6:
 252 0040 0C00 0000 		.long	.LEFDE6-.LASFDE6
 253               	.LASFDE6:
 254 0044 0000 0000 		.long	.Lframe0
 255 0048 0000 0000 		.long	.LFB3
 256 004c 3C00 0000 		.long	.LFE3-.LFB3
 257               		.p2align	2
 258               	.LEFDE6:
 259               	.LSFDE8:
 260 0050 0C00 0000 		.long	.LEFDE8-.LASFDE8
 261               	.LASFDE8:
 262 0054 0000 0000 		.long	.Lframe0
 263 0058 0000 0000 		.long	.LFB5
 264 005c 1800 0000 		.long	.LFE5-.LFB5
 265               		.p2align	2
 266               	.LEFDE8:
 267               		.text
 268               	.Letext0:
 269               		.section	.debug_loc,"",@progbits
 270               	.Ldebug_loc0:
 271               	.LLST1:
 272 0000 0000 0000 		.long	.LVL0-.Ltext0
 273 0004 0200 0000 		.long	.LVL1-.Ltext0
 274 0008 0600      		.word	0x6
 275 000a 68        		.byte	0x68
 276 000b 93        		.byte	0x93
 277 000c 01        		.uleb128 0x1
 278 000d 69        		.byte	0x69
 279 000e 93        		.byte	0x93
 280 000f 01        		.uleb128 0x1
 281 0010 0000 0000 		.long	0x0
 282 0014 0000 0000 		.long	0x0
 283               	.LLST3:
 284 0018 2000 0000 		.long	.LVL3-.Ltext0
 285 001c 2400 0000 		.long	.LVL4-.Ltext0
GAS LISTING C:\Users\ADMINI~1\AppData\Local\Temp/ccZzqakh.s 			page 6


 286 0020 0600      		.word	0x6
 287 0022 68        		.byte	0x68
 288 0023 93        		.byte	0x93
 289 0024 01        		.uleb128 0x1
 290 0025 69        		.byte	0x69
 291 0026 93        		.byte	0x93
 292 0027 01        		.uleb128 0x1
 293 0028 2400 0000 		.long	.LVL4-.Ltext0
 294 002c 2E00 0000 		.long	.LVL8-.Ltext0
 295 0030 0600      		.word	0x6
 296 0032 6E        		.byte	0x6e
 297 0033 93        		.byte	0x93
 298 0034 01        		.uleb128 0x1
 299 0035 6F        		.byte	0x6f
 300 0036 93        		.byte	0x93
 301 0037 01        		.uleb128 0x1
 302 0038 4400 0000 		.long	.LVL11-.Ltext0
 303 003c 4C00 0000 		.long	.LFE7-.Ltext0
 304 0040 0600      		.word	0x6
 305 0042 6E        		.byte	0x6e
 306 0043 93        		.byte	0x93
 307 0044 01        		.uleb128 0x1
 308 0045 6F        		.byte	0x6f
 309 0046 93        		.byte	0x93
 310 0047 01        		.uleb128 0x1
 311 0048 0000 0000 		.long	0x0
 312 004c 0000 0000 		.long	0x0
 313               	.LLST4:
 314 0050 2400 0000 		.long	.LVL4-.Ltext0
 315 0054 2C00 0000 		.long	.LVL7-.Ltext0
 316 0058 0100      		.word	0x1
 317 005a 68        		.byte	0x68
 318 005b 2C00 0000 		.long	.LVL7-.Ltext0
 319 005f 2E00 0000 		.long	.LVL8-.Ltext0
 320 0063 0600      		.word	0x6
 321 0065 68        		.byte	0x68
 322 0066 93        		.byte	0x93
 323 0067 01        		.uleb128 0x1
 324 0068 69        		.byte	0x69
 325 0069 93        		.byte	0x93
 326 006a 01        		.uleb128 0x1
 327 006b 2E00 0000 		.long	.LVL8-.Ltext0
 328 006f 3A00 0000 		.long	.LVL9-.Ltext0
 329 0073 0600      		.word	0x6
 330 0075 65        		.byte	0x65
 331 0076 93        		.byte	0x93
 332 0077 01        		.uleb128 0x1
 333 0078 69        		.byte	0x69
 334 0079 93        		.byte	0x93
 335 007a 01        		.uleb128 0x1
 336 007b 3A00 0000 		.long	.LVL9-.Ltext0
 337 007f 4A00 0000 		.long	.LVL12-.Ltext0
 338 0083 0600      		.word	0x6
 339 0085 68        		.byte	0x68
 340 0086 93        		.byte	0x93
 341 0087 01        		.uleb128 0x1
 342 0088 69        		.byte	0x69
GAS LISTING C:\Users\ADMINI~1\AppData\Local\Temp/ccZzqakh.s 			page 7


 343 0089 93        		.byte	0x93
 344 008a 01        		.uleb128 0x1
 345 008b 4A00 0000 		.long	.LVL12-.Ltext0
 346 008f 4C00 0000 		.long	.LFE7-.Ltext0
 347 0093 0600      		.word	0x6
 348 0095 65        		.byte	0x65
 349 0096 93        		.byte	0x93
 350 0097 01        		.uleb128 0x1
 351 0098 69        		.byte	0x69
 352 0099 93        		.byte	0x93
 353 009a 01        		.uleb128 0x1
 354 009b 0000 0000 		.long	0x0
 355 009f 0000 0000 		.long	0x0
 356               	.LLST5:
 357 00a3 2A00 0000 		.long	.LVL6-.Ltext0
 358 00a7 4A00 0000 		.long	.LVL12-.Ltext0
 359 00ab 0600      		.word	0x6
 360 00ad 62        		.byte	0x62
 361 00ae 93        		.byte	0x93
 362 00af 01        		.uleb128 0x1
 363 00b0 63        		.byte	0x63
 364 00b1 93        		.byte	0x93
 365 00b2 01        		.uleb128 0x1
 366 00b3 0000 0000 		.long	0x0
 367 00b7 0000 0000 		.long	0x0
 368               	.LLST7:
 369 00bb 4C00 0000 		.long	.LVL13-.Ltext0
 370 00bf 6C00 0000 		.long	.LVL15-.Ltext0
 371 00c3 0600      		.word	0x6
 372 00c5 68        		.byte	0x68
 373 00c6 93        		.byte	0x93
 374 00c7 01        		.uleb128 0x1
 375 00c8 69        		.byte	0x69
 376 00c9 93        		.byte	0x93
 377 00ca 01        		.uleb128 0x1
 378 00cb 0000 0000 		.long	0x0
 379 00cf 0000 0000 		.long	0x0
 380               	.LLST8:
 381 00d3 4C00 0000 		.long	.LVL13-.Ltext0
 382 00d7 4E00 0000 		.long	.LVL14-.Ltext0
 383 00db 0600      		.word	0x6
 384 00dd 66        		.byte	0x66
 385 00de 93        		.byte	0x93
 386 00df 01        		.uleb128 0x1
 387 00e0 67        		.byte	0x67
 388 00e1 93        		.byte	0x93
 389 00e2 01        		.uleb128 0x1
 390 00e3 0000 0000 		.long	0x0
 391 00e7 0000 0000 		.long	0x0
 392               	.LLST10:
 393 00eb 7400 0000 		.long	.LVL16-.Ltext0
 394 00ef 9C00 0000 		.long	.LVL18-.Ltext0
 395 00f3 0600      		.word	0x6
 396 00f5 68        		.byte	0x68
 397 00f6 93        		.byte	0x93
 398 00f7 01        		.uleb128 0x1
 399 00f8 69        		.byte	0x69
GAS LISTING C:\Users\ADMINI~1\AppData\Local\Temp/ccZzqakh.s 			page 8


 400 00f9 93        		.byte	0x93
 401 00fa 01        		.uleb128 0x1
 402 00fb 0000 0000 		.long	0x0
 403 00ff 0000 0000 		.long	0x0
 404               	.LLST11:
 405 0103 7400 0000 		.long	.LVL16-.Ltext0
 406 0107 7E00 0000 		.long	.LVL17-.Ltext0
 407 010b 0600      		.word	0x6
 408 010d 66        		.byte	0x66
 409 010e 93        		.byte	0x93
 410 010f 01        		.uleb128 0x1
 411 0110 67        		.byte	0x67
 412 0111 93        		.byte	0x93
 413 0112 01        		.uleb128 0x1
 414 0113 0000 0000 		.long	0x0
 415 0117 0000 0000 		.long	0x0
 416               	.LLST12:
 417 011b 7400 0000 		.long	.LVL16-.Ltext0
 418 011f A000 0000 		.long	.LVL19-.Ltext0
 419 0123 0100      		.word	0x1
 420 0125 64        		.byte	0x64
 421 0126 A000 0000 		.long	.LVL19-.Ltext0
 422 012a AE00 0000 		.long	.LVL20-.Ltext0
 423 012e 0100      		.word	0x1
 424 0130 5F        		.byte	0x5f
 425 0131 0000 0000 		.long	0x0
 426 0135 0000 0000 		.long	0x0
 427               	.LLST14:
 428 0139 B000 0000 		.long	.LVL21-.Ltext0
 429 013d C600 0000 		.long	.LVL23-.Ltext0
 430 0141 0600      		.word	0x6
 431 0143 68        		.byte	0x68
 432 0144 93        		.byte	0x93
 433 0145 01        		.uleb128 0x1
 434 0146 69        		.byte	0x69
 435 0147 93        		.byte	0x93
 436 0148 01        		.uleb128 0x1
 437 0149 0000 0000 		.long	0x0
 438 014d 0000 0000 		.long	0x0
 439               	.LLST15:
 440 0151 B000 0000 		.long	.LVL21-.Ltext0
 441 0155 C200 0000 		.long	.LVL22-.Ltext0
 442 0159 0100      		.word	0x1
 443 015b 66        		.byte	0x66
 444 015c C200 0000 		.long	.LVL22-.Ltext0
 445 0160 C600 0000 		.long	.LVL23-.Ltext0
 446 0164 0100      		.word	0x1
 447 0166 64        		.byte	0x64
 448 0167 0000 0000 		.long	0x0
 449 016b 0000 0000 		.long	0x0
 450               		.section	.debug_info
 451 0000 D301 0000 		.long	0x1d3
 452 0004 0200      		.word	0x2
 453 0006 0000 0000 		.long	.Ldebug_abbrev0
 454 000a 04        		.byte	0x4
 455 000b 01        		.uleb128 0x1
 456 000c 0000 0000 		.long	.LASF16
GAS LISTING C:\Users\ADMINI~1\AppData\Local\Temp/ccZzqakh.s 			page 9


 457 0010 01        		.byte	0x1
 458 0011 0000 0000 		.long	.LASF17
 459 0015 0000 0000 		.long	.LASF18
 460 0019 0000 0000 		.long	.Ltext0
 461 001d 0000 0000 		.long	.Letext0
 462 0021 0000 0000 		.long	.Ldebug_line0
 463 0025 02        		.uleb128 0x2
 464 0026 02        		.byte	0x2
 465 0027 07        		.byte	0x7
 466 0028 0000 0000 		.long	.LASF0
 467 002c 02        		.uleb128 0x2
 468 002d 01        		.byte	0x1
 469 002e 06        		.byte	0x6
 470 002f 0000 0000 		.long	.LASF1
 471 0033 03        		.uleb128 0x3
 472 0034 0000 0000 		.long	.LASF19
 473 0038 02        		.byte	0x2
 474 0039 7A        		.byte	0x7a
 475 003a 3E00 0000 		.long	0x3e
 476 003e 02        		.uleb128 0x2
 477 003f 01        		.byte	0x1
 478 0040 08        		.byte	0x8
 479 0041 0000 0000 		.long	.LASF2
 480 0045 04        		.uleb128 0x4
 481 0046 02        		.byte	0x2
 482 0047 05        		.byte	0x5
 483 0048 696E 7400 		.string	"int"
 484 004c 02        		.uleb128 0x2
 485 004d 04        		.byte	0x4
 486 004e 05        		.byte	0x5
 487 004f 0000 0000 		.long	.LASF3
 488 0053 02        		.uleb128 0x2
 489 0054 04        		.byte	0x4
 490 0055 07        		.byte	0x7
 491 0056 0000 0000 		.long	.LASF4
 492 005a 02        		.uleb128 0x2
 493 005b 08        		.byte	0x8
 494 005c 05        		.byte	0x5
 495 005d 0000 0000 		.long	.LASF5
 496 0061 02        		.uleb128 0x2
 497 0062 08        		.byte	0x8
 498 0063 07        		.byte	0x7
 499 0064 0000 0000 		.long	.LASF6
 500 0068 02        		.uleb128 0x2
 501 0069 01        		.byte	0x1
 502 006a 06        		.byte	0x6
 503 006b 0000 0000 		.long	.LASF7
 504 006f 05        		.uleb128 0x5
 505 0070 01        		.byte	0x1
 506 0071 0000 0000 		.long	.LASF11
 507 0075 01        		.byte	0x1
 508 0076 1A        		.byte	0x1a
 509 0077 01        		.byte	0x1
 510 0078 4500 0000 		.long	0x45
 511 007c 0000 0000 		.long	.LFB6
 512 0080 0000 0000 		.long	.LFE6
 513 0084 02        		.byte	0x2
GAS LISTING C:\Users\ADMINI~1\AppData\Local\Temp/ccZzqakh.s 			page 10


 514 0085 90        		.byte	0x90
 515 0086 20        		.uleb128 0x20
 516 0087 C000 0000 		.long	0xc0
 517 008b 06        		.uleb128 0x6
 518 008c 0000 0000 		.long	.LASF8
 519 0090 01        		.byte	0x1
 520 0091 19        		.byte	0x19
 521 0092 C000 0000 		.long	0xc0
 522 0096 0000 0000 		.long	.LLST1
 523 009a 07        		.uleb128 0x7
 524 009b 0000 0000 		.long	.LASF9
 525 009f 01        		.byte	0x1
 526 00a0 19        		.byte	0x19
 527 00a1 3300 0000 		.long	0x33
 528 00a5 01        		.byte	0x1
 529 00a6 66        		.byte	0x66
 530 00a7 07        		.uleb128 0x7
 531 00a8 0000 0000 		.long	.LASF10
 532 00ac 01        		.byte	0x1
 533 00ad 19        		.byte	0x19
 534 00ae 3300 0000 		.long	0x33
 535 00b2 01        		.byte	0x1
 536 00b3 64        		.byte	0x64
 537 00b4 08        		.uleb128 0x8
 538 00b5 6900      		.string	"i"
 539 00b7 01        		.byte	0x1
 540 00b8 1B        		.byte	0x1b
 541 00b9 3300 0000 		.long	0x33
 542 00bd 01        		.byte	0x1
 543 00be 69        		.byte	0x69
 544 00bf 00        		.byte	0x0
 545 00c0 09        		.uleb128 0x9
 546 00c1 02        		.byte	0x2
 547 00c2 3300 0000 		.long	0x33
 548 00c6 05        		.uleb128 0x5
 549 00c7 01        		.byte	0x1
 550 00c8 0000 0000 		.long	.LASF12
 551 00cc 01        		.byte	0x1
 552 00cd 27        		.byte	0x27
 553 00ce 01        		.byte	0x1
 554 00cf 4500 0000 		.long	0x45
 555 00d3 0000 0000 		.long	.LFB7
 556 00d7 0000 0000 		.long	.LFE7
 557 00db 02        		.byte	0x2
 558 00dc 90        		.byte	0x90
 559 00dd 20        		.uleb128 0x20
 560 00de 2801 0000 		.long	0x128
 561 00e2 06        		.uleb128 0x6
 562 00e3 0000 0000 		.long	.LASF8
 563 00e7 01        		.byte	0x1
 564 00e8 26        		.byte	0x26
 565 00e9 C000 0000 		.long	0xc0
 566 00ed 0000 0000 		.long	.LLST3
 567 00f1 07        		.uleb128 0x7
 568 00f2 0000 0000 		.long	.LASF9
 569 00f6 01        		.byte	0x1
 570 00f7 26        		.byte	0x26
GAS LISTING C:\Users\ADMINI~1\AppData\Local\Temp/ccZzqakh.s 			page 11


 571 00f8 3300 0000 		.long	0x33
 572 00fc 01        		.byte	0x1
 573 00fd 66        		.byte	0x66
 574 00fe 08        		.uleb128 0x8
 575 00ff 6900      		.string	"i"
 576 0101 01        		.byte	0x1
 577 0102 28        		.byte	0x28
 578 0103 3300 0000 		.long	0x33
 579 0107 01        		.byte	0x1
 580 0108 64        		.byte	0x64
 581 0109 0A        		.uleb128 0xa
 582 010a 0000 0000 		.long	.LASF13
 583 010e 01        		.byte	0x1
 584 010f 29        		.byte	0x29
 585 0110 3300 0000 		.long	0x33
 586 0114 0000 0000 		.long	.LLST4
 587 0118 0B        		.uleb128 0xb
 588 0119 6375 7200 		.string	"cur"
 589 011d 01        		.byte	0x1
 590 011e 2A        		.byte	0x2a
 591 011f 4500 0000 		.long	0x45
 592 0123 0000 0000 		.long	.LLST5
 593 0127 00        		.byte	0x0
 594 0128 0C        		.uleb128 0xc
 595 0129 01        		.byte	0x1
 596 012a 0000 0000 		.long	.LASF14
 597 012e 01        		.byte	0x1
 598 012f 10        		.byte	0x10
 599 0130 01        		.byte	0x1
 600 0131 0000 0000 		.long	.LFB4
 601 0135 0000 0000 		.long	.LFE4
 602 0139 02        		.byte	0x2
 603 013a 90        		.byte	0x90
 604 013b 20        		.uleb128 0x20
 605 013c 5F01 0000 		.long	0x15f
 606 0140 0D        		.uleb128 0xd
 607 0141 6172 7900 		.string	"ary"
 608 0145 01        		.byte	0x1
 609 0146 0F        		.byte	0xf
 610 0147 C000 0000 		.long	0xc0
 611 014b 0000 0000 		.long	.LLST7
 612 014f 0D        		.uleb128 0xd
 613 0150 6964 7800 		.string	"idx"
 614 0154 01        		.byte	0x1
 615 0155 0F        		.byte	0xf
 616 0156 4500 0000 		.long	0x45
 617 015a 0000 0000 		.long	.LLST8
 618 015e 00        		.byte	0x0
 619 015f 0C        		.uleb128 0xc
 620 0160 01        		.byte	0x1
 621 0161 0000 0000 		.long	.LASF15
 622 0165 01        		.byte	0x1
 623 0166 0A        		.byte	0xa
 624 0167 01        		.byte	0x1
 625 0168 0000 0000 		.long	.LFB3
 626 016c 0000 0000 		.long	.LFE3
 627 0170 02        		.byte	0x2
GAS LISTING C:\Users\ADMINI~1\AppData\Local\Temp/ccZzqakh.s 			page 12


 628 0171 90        		.byte	0x90
 629 0172 20        		.uleb128 0x20
 630 0173 A401 0000 		.long	0x1a4
 631 0177 0D        		.uleb128 0xd
 632 0178 6172 7900 		.string	"ary"
 633 017c 01        		.byte	0x1
 634 017d 09        		.byte	0x9
 635 017e C000 0000 		.long	0xc0
 636 0182 0000 0000 		.long	.LLST10
 637 0186 0D        		.uleb128 0xd
 638 0187 6964 7800 		.string	"idx"
 639 018b 01        		.byte	0x1
 640 018c 09        		.byte	0x9
 641 018d 4500 0000 		.long	0x45
 642 0191 0000 0000 		.long	.LLST11
 643 0195 0D        		.uleb128 0xd
 644 0196 6368 00   		.string	"ch"
 645 0199 01        		.byte	0x1
 646 019a 09        		.byte	0x9
 647 019b 6800 0000 		.long	0x68
 648 019f 0000 0000 		.long	.LLST12
 649 01a3 00        		.byte	0x0
 650 01a4 0E        		.uleb128 0xe
 651 01a5 01        		.byte	0x1
 652 01a6 0000 0000 		.long	.LASF20
 653 01aa 01        		.byte	0x1
 654 01ab 15        		.byte	0x15
 655 01ac 01        		.byte	0x1
 656 01ad 0000 0000 		.long	.LFB5
 657 01b1 0000 0000 		.long	.LFE5
 658 01b5 02        		.byte	0x2
 659 01b6 90        		.byte	0x90
 660 01b7 20        		.uleb128 0x20
 661 01b8 0D        		.uleb128 0xd
 662 01b9 6172 7900 		.string	"ary"
 663 01bd 01        		.byte	0x1
 664 01be 14        		.byte	0x14
 665 01bf C000 0000 		.long	0xc0
 666 01c3 0000 0000 		.long	.LLST14
 667 01c7 0D        		.uleb128 0xd
 668 01c8 6368 00   		.string	"ch"
 669 01cb 01        		.byte	0x1
 670 01cc 14        		.byte	0x14
 671 01cd 6800 0000 		.long	0x68
 672 01d1 0000 0000 		.long	.LLST15
 673 01d5 00        		.byte	0x0
 674 01d6 00        		.byte	0x0
 675               		.section	.debug_abbrev
 676 0000 01        		.uleb128 0x1
 677 0001 11        		.uleb128 0x11
 678 0002 01        		.byte	0x1
 679 0003 25        		.uleb128 0x25
 680 0004 0E        		.uleb128 0xe
 681 0005 13        		.uleb128 0x13
 682 0006 0B        		.uleb128 0xb
 683 0007 03        		.uleb128 0x3
 684 0008 0E        		.uleb128 0xe
GAS LISTING C:\Users\ADMINI~1\AppData\Local\Temp/ccZzqakh.s 			page 13


 685 0009 1B        		.uleb128 0x1b
 686 000a 0E        		.uleb128 0xe
 687 000b 11        		.uleb128 0x11
 688 000c 01        		.uleb128 0x1
 689 000d 12        		.uleb128 0x12
 690 000e 01        		.uleb128 0x1
 691 000f 10        		.uleb128 0x10
 692 0010 06        		.uleb128 0x6
 693 0011 00        		.byte	0x0
 694 0012 00        		.byte	0x0
 695 0013 02        		.uleb128 0x2
 696 0014 24        		.uleb128 0x24
 697 0015 00        		.byte	0x0
 698 0016 0B        		.uleb128 0xb
 699 0017 0B        		.uleb128 0xb
 700 0018 3E        		.uleb128 0x3e
 701 0019 0B        		.uleb128 0xb
 702 001a 03        		.uleb128 0x3
 703 001b 0E        		.uleb128 0xe
 704 001c 00        		.byte	0x0
 705 001d 00        		.byte	0x0
 706 001e 03        		.uleb128 0x3
 707 001f 16        		.uleb128 0x16
 708 0020 00        		.byte	0x0
 709 0021 03        		.uleb128 0x3
 710 0022 0E        		.uleb128 0xe
 711 0023 3A        		.uleb128 0x3a
 712 0024 0B        		.uleb128 0xb
 713 0025 3B        		.uleb128 0x3b
 714 0026 0B        		.uleb128 0xb
 715 0027 49        		.uleb128 0x49
 716 0028 13        		.uleb128 0x13
 717 0029 00        		.byte	0x0
 718 002a 00        		.byte	0x0
 719 002b 04        		.uleb128 0x4
 720 002c 24        		.uleb128 0x24
 721 002d 00        		.byte	0x0
 722 002e 0B        		.uleb128 0xb
 723 002f 0B        		.uleb128 0xb
 724 0030 3E        		.uleb128 0x3e
 725 0031 0B        		.uleb128 0xb
 726 0032 03        		.uleb128 0x3
 727 0033 08        		.uleb128 0x8
 728 0034 00        		.byte	0x0
 729 0035 00        		.byte	0x0
 730 0036 05        		.uleb128 0x5
 731 0037 2E        		.uleb128 0x2e
 732 0038 01        		.byte	0x1
 733 0039 3F        		.uleb128 0x3f
 734 003a 0C        		.uleb128 0xc
 735 003b 03        		.uleb128 0x3
 736 003c 0E        		.uleb128 0xe
 737 003d 3A        		.uleb128 0x3a
 738 003e 0B        		.uleb128 0xb
 739 003f 3B        		.uleb128 0x3b
 740 0040 0B        		.uleb128 0xb
 741 0041 27        		.uleb128 0x27
GAS LISTING C:\Users\ADMINI~1\AppData\Local\Temp/ccZzqakh.s 			page 14


 742 0042 0C        		.uleb128 0xc
 743 0043 49        		.uleb128 0x49
 744 0044 13        		.uleb128 0x13
 745 0045 11        		.uleb128 0x11
 746 0046 01        		.uleb128 0x1
 747 0047 12        		.uleb128 0x12
 748 0048 01        		.uleb128 0x1
 749 0049 40        		.uleb128 0x40
 750 004a 0A        		.uleb128 0xa
 751 004b 01        		.uleb128 0x1
 752 004c 13        		.uleb128 0x13
 753 004d 00        		.byte	0x0
 754 004e 00        		.byte	0x0
 755 004f 06        		.uleb128 0x6
 756 0050 05        		.uleb128 0x5
 757 0051 00        		.byte	0x0
 758 0052 03        		.uleb128 0x3
 759 0053 0E        		.uleb128 0xe
 760 0054 3A        		.uleb128 0x3a
 761 0055 0B        		.uleb128 0xb
 762 0056 3B        		.uleb128 0x3b
 763 0057 0B        		.uleb128 0xb
 764 0058 49        		.uleb128 0x49
 765 0059 13        		.uleb128 0x13
 766 005a 02        		.uleb128 0x2
 767 005b 06        		.uleb128 0x6
 768 005c 00        		.byte	0x0
 769 005d 00        		.byte	0x0
 770 005e 07        		.uleb128 0x7
 771 005f 05        		.uleb128 0x5
 772 0060 00        		.byte	0x0
 773 0061 03        		.uleb128 0x3
 774 0062 0E        		.uleb128 0xe
 775 0063 3A        		.uleb128 0x3a
 776 0064 0B        		.uleb128 0xb
 777 0065 3B        		.uleb128 0x3b
 778 0066 0B        		.uleb128 0xb
 779 0067 49        		.uleb128 0x49
 780 0068 13        		.uleb128 0x13
 781 0069 02        		.uleb128 0x2
 782 006a 0A        		.uleb128 0xa
 783 006b 00        		.byte	0x0
 784 006c 00        		.byte	0x0
 785 006d 08        		.uleb128 0x8
 786 006e 34        		.uleb128 0x34
 787 006f 00        		.byte	0x0
 788 0070 03        		.uleb128 0x3
 789 0071 08        		.uleb128 0x8
 790 0072 3A        		.uleb128 0x3a
 791 0073 0B        		.uleb128 0xb
 792 0074 3B        		.uleb128 0x3b
 793 0075 0B        		.uleb128 0xb
 794 0076 49        		.uleb128 0x49
 795 0077 13        		.uleb128 0x13
 796 0078 02        		.uleb128 0x2
 797 0079 0A        		.uleb128 0xa
 798 007a 00        		.byte	0x0
GAS LISTING C:\Users\ADMINI~1\AppData\Local\Temp/ccZzqakh.s 			page 15


 799 007b 00        		.byte	0x0
 800 007c 09        		.uleb128 0x9
 801 007d 0F        		.uleb128 0xf
 802 007e 00        		.byte	0x0
 803 007f 0B        		.uleb128 0xb
 804 0080 0B        		.uleb128 0xb
 805 0081 49        		.uleb128 0x49
 806 0082 13        		.uleb128 0x13
 807 0083 00        		.byte	0x0
 808 0084 00        		.byte	0x0
 809 0085 0A        		.uleb128 0xa
 810 0086 34        		.uleb128 0x34
 811 0087 00        		.byte	0x0
 812 0088 03        		.uleb128 0x3
 813 0089 0E        		.uleb128 0xe
 814 008a 3A        		.uleb128 0x3a
 815 008b 0B        		.uleb128 0xb
 816 008c 3B        		.uleb128 0x3b
 817 008d 0B        		.uleb128 0xb
 818 008e 49        		.uleb128 0x49
 819 008f 13        		.uleb128 0x13
 820 0090 02        		.uleb128 0x2
 821 0091 06        		.uleb128 0x6
 822 0092 00        		.byte	0x0
 823 0093 00        		.byte	0x0
 824 0094 0B        		.uleb128 0xb
 825 0095 34        		.uleb128 0x34
 826 0096 00        		.byte	0x0
 827 0097 03        		.uleb128 0x3
 828 0098 08        		.uleb128 0x8
 829 0099 3A        		.uleb128 0x3a
 830 009a 0B        		.uleb128 0xb
 831 009b 3B        		.uleb128 0x3b
 832 009c 0B        		.uleb128 0xb
 833 009d 49        		.uleb128 0x49
 834 009e 13        		.uleb128 0x13
 835 009f 02        		.uleb128 0x2
 836 00a0 06        		.uleb128 0x6
 837 00a1 00        		.byte	0x0
 838 00a2 00        		.byte	0x0
 839 00a3 0C        		.uleb128 0xc
 840 00a4 2E        		.uleb128 0x2e
 841 00a5 01        		.byte	0x1
 842 00a6 3F        		.uleb128 0x3f
 843 00a7 0C        		.uleb128 0xc
 844 00a8 03        		.uleb128 0x3
 845 00a9 0E        		.uleb128 0xe
 846 00aa 3A        		.uleb128 0x3a
 847 00ab 0B        		.uleb128 0xb
 848 00ac 3B        		.uleb128 0x3b
 849 00ad 0B        		.uleb128 0xb
 850 00ae 27        		.uleb128 0x27
 851 00af 0C        		.uleb128 0xc
 852 00b0 11        		.uleb128 0x11
 853 00b1 01        		.uleb128 0x1
 854 00b2 12        		.uleb128 0x12
 855 00b3 01        		.uleb128 0x1
GAS LISTING C:\Users\ADMINI~1\AppData\Local\Temp/ccZzqakh.s 			page 16


 856 00b4 40        		.uleb128 0x40
 857 00b5 0A        		.uleb128 0xa
 858 00b6 01        		.uleb128 0x1
 859 00b7 13        		.uleb128 0x13
 860 00b8 00        		.byte	0x0
 861 00b9 00        		.byte	0x0
 862 00ba 0D        		.uleb128 0xd
 863 00bb 05        		.uleb128 0x5
 864 00bc 00        		.byte	0x0
 865 00bd 03        		.uleb128 0x3
 866 00be 08        		.uleb128 0x8
 867 00bf 3A        		.uleb128 0x3a
 868 00c0 0B        		.uleb128 0xb
 869 00c1 3B        		.uleb128 0x3b
 870 00c2 0B        		.uleb128 0xb
 871 00c3 49        		.uleb128 0x49
 872 00c4 13        		.uleb128 0x13
 873 00c5 02        		.uleb128 0x2
 874 00c6 06        		.uleb128 0x6
 875 00c7 00        		.byte	0x0
 876 00c8 00        		.byte	0x0
 877 00c9 0E        		.uleb128 0xe
 878 00ca 2E        		.uleb128 0x2e
 879 00cb 01        		.byte	0x1
 880 00cc 3F        		.uleb128 0x3f
 881 00cd 0C        		.uleb128 0xc
 882 00ce 03        		.uleb128 0x3
 883 00cf 0E        		.uleb128 0xe
 884 00d0 3A        		.uleb128 0x3a
 885 00d1 0B        		.uleb128 0xb
 886 00d2 3B        		.uleb128 0x3b
 887 00d3 0B        		.uleb128 0xb
 888 00d4 27        		.uleb128 0x27
 889 00d5 0C        		.uleb128 0xc
 890 00d6 11        		.uleb128 0x11
 891 00d7 01        		.uleb128 0x1
 892 00d8 12        		.uleb128 0x12
 893 00d9 01        		.uleb128 0x1
 894 00da 40        		.uleb128 0x40
 895 00db 0A        		.uleb128 0xa
 896 00dc 00        		.byte	0x0
 897 00dd 00        		.byte	0x0
 898 00de 00        		.byte	0x0
 899               		.section	.debug_pubnames,"",@progbits
 900 0000 4A00 0000 		.long	0x4a
 901 0004 0200      		.word	0x2
 902 0006 0000 0000 		.long	.Ldebug_info0
 903 000a D701 0000 		.long	0x1d7
 904 000e 6F00 0000 		.long	0x6f
 905 0012 6669 6E64 		.string	"findIndex"
 905      496E 6465 
 905      7800 
 906 001c C600 0000 		.long	0xc6
 907 0020 6571 7561 		.string	"equalAll"
 907      6C41 6C6C 
 907      00
 908 0029 2801 0000 		.long	0x128
GAS LISTING C:\Users\ADMINI~1\AppData\Local\Temp/ccZzqakh.s 			page 17


 909 002d 6465 6C65 		.string	"delete"
 909      7465 00
 910 0034 5F01 0000 		.long	0x15f
 911 0038 696E 7365 		.string	"insert"
 911      7274 00
 912 003f A401 0000 		.long	0x1a4
 913 0043 6170 7065 		.string	"append"
 913      6E64 00
 914 004a 0000 0000 		.long	0x0
 915               		.section	.debug_aranges,"",@progbits
 916 0000 1C00 0000 		.long	0x1c
 917 0004 0200      		.word	0x2
 918 0006 0000 0000 		.long	.Ldebug_info0
 919 000a 04        		.byte	0x4
 920 000b 00        		.byte	0x0
 921 000c 0000      		.word	0x0
 922 000e 0000      		.word	0x0
 923 0010 0000 0000 		.long	.Ltext0
 924 0014 C800 0000 		.long	.Letext0-.Ltext0
 925 0018 0000 0000 		.long	0x0
 926 001c 0000 0000 		.long	0x0
 927               		.section	.debug_line
 928 0000 1D01 0000 		.long	.LELT0-.LSLT0
 929               	.LSLT0:
 930 0004 0200      		.word	0x2
 931 0006 5B00 0000 		.long	.LELTP0-.LASLTP0
 932               	.LASLTP0:
 933 000a 01        		.byte	0x1
 934 000b 01        		.byte	0x1
 935 000c F6        		.byte	0xf6
 936 000d F5        		.byte	0xf5
 937 000e 0A        		.byte	0xa
 938 000f 00        		.byte	0x0
 939 0010 01        		.byte	0x1
 940 0011 01        		.byte	0x1
 941 0012 01        		.byte	0x1
 942 0013 01        		.byte	0x1
 943 0014 00        		.byte	0x0
 944 0015 00        		.byte	0x0
 945 0016 00        		.byte	0x0
 946 0017 01        		.byte	0x1
 947 0018 633A 2F77 		.ascii	"c:/winavr-20100110/lib/gcc/../../avr/include"
 947      696E 6176 
 947      722D 3230 
 947      3130 3031 
 947      3130 2F6C 
 948 0044 00        		.byte	0
 949 0045 00        		.byte	0x0
 950 0046 7073 3261 		.string	"ps2avru_util.c"
 950      7672 755F 
 950      7574 696C 
 950      2E63 00
 951 0055 00        		.uleb128 0x0
 952 0056 00        		.uleb128 0x0
 953 0057 00        		.uleb128 0x0
 954 0058 7374 6469 		.string	"stdint.h"
 954      6E74 2E68 
GAS LISTING C:\Users\ADMINI~1\AppData\Local\Temp/ccZzqakh.s 			page 18


 954      00
 955 0061 01        		.uleb128 0x1
 956 0062 00        		.uleb128 0x0
 957 0063 00        		.uleb128 0x0
 958 0064 00        		.byte	0x0
 959               	.LELTP0:
 960 0065 00        		.byte	0x0
 961 0066 05        		.uleb128 0x5
 962 0067 02        		.byte	0x2
 963 0068 0000 0000 		.long	.LM1
 964 006c 2D        		.byte	0x2d
 965 006d 00        		.byte	0x0
 966 006e 05        		.uleb128 0x5
 967 006f 02        		.byte	0x2
 968 0070 0000 0000 		.long	.LM2
 969 0074 01        		.byte	0x1
 970 0075 00        		.byte	0x0
 971 0076 05        		.uleb128 0x5
 972 0077 02        		.byte	0x2
 973 0078 0000 0000 		.long	.LM3
 974 007c 18        		.byte	0x18
 975 007d 00        		.byte	0x0
 976 007e 05        		.uleb128 0x5
 977 007f 02        		.byte	0x2
 978 0080 0000 0000 		.long	.LM4
 979 0084 16        		.byte	0x16
 980 0085 00        		.byte	0x0
 981 0086 05        		.uleb128 0x5
 982 0087 02        		.byte	0x2
 983 0088 0000 0000 		.long	.LM5
 984 008c 10        		.byte	0x10
 985 008d 00        		.byte	0x0
 986 008e 05        		.uleb128 0x5
 987 008f 02        		.byte	0x2
 988 0090 0000 0000 		.long	.LM6
 989 0094 1C        		.byte	0x1c
 990 0095 00        		.byte	0x0
 991 0096 05        		.uleb128 0x5
 992 0097 02        		.byte	0x2
 993 0098 0000 0000 		.long	.LM7
 994 009c 17        		.byte	0x17
 995 009d 00        		.byte	0x0
 996 009e 05        		.uleb128 0x5
 997 009f 02        		.byte	0x2
 998 00a0 0000 0000 		.long	.LM8
 999 00a4 18        		.byte	0x18
 1000 00a5 00        		.byte	0x0
 1001 00a6 05        		.uleb128 0x5
 1002 00a7 02        		.byte	0x2
 1003 00a8 0000 0000 		.long	.LM9
 1004 00ac 17        		.byte	0x17
 1005 00ad 00        		.byte	0x0
 1006 00ae 05        		.uleb128 0x5
 1007 00af 02        		.byte	0x2
 1008 00b0 0000 0000 		.long	.LM10
 1009 00b4 15        		.byte	0x15
 1010 00b5 00        		.byte	0x0
GAS LISTING C:\Users\ADMINI~1\AppData\Local\Temp/ccZzqakh.s 			page 19


 1011 00b6 05        		.uleb128 0x5
 1012 00b7 02        		.byte	0x2
 1013 00b8 0000 0000 		.long	.LM11
 1014 00bc 11        		.byte	0x11
 1015 00bd 00        		.byte	0x0
 1016 00be 05        		.uleb128 0x5
 1017 00bf 02        		.byte	0x2
 1018 00c0 0000 0000 		.long	.LM12
 1019 00c4 1E        		.byte	0x1e
 1020 00c5 00        		.byte	0x0
 1021 00c6 05        		.uleb128 0x5
 1022 00c7 02        		.byte	0x2
 1023 00c8 0000 0000 		.long	.LM13
 1024 00cc 03        		.byte	0x3
 1025 00cd 5A        		.sleb128 -38
 1026 00ce 01        		.byte	0x1
 1027 00cf 00        		.byte	0x0
 1028 00d0 05        		.uleb128 0x5
 1029 00d1 02        		.byte	0x2
 1030 00d2 0000 0000 		.long	.LM14
 1031 00d6 15        		.byte	0x15
 1032 00d7 00        		.byte	0x0
 1033 00d8 05        		.uleb128 0x5
 1034 00d9 02        		.byte	0x2
 1035 00da 0000 0000 		.long	.LM15
 1036 00de 15        		.byte	0x15
 1037 00df 00        		.byte	0x0
 1038 00e0 05        		.uleb128 0x5
 1039 00e1 02        		.byte	0x2
 1040 00e2 0000 0000 		.long	.LM16
 1041 00e6 0C        		.byte	0xc
 1042 00e7 00        		.byte	0x0
 1043 00e8 05        		.uleb128 0x5
 1044 00e9 02        		.byte	0x2
 1045 00ea 0000 0000 		.long	.LM17
 1046 00ee 15        		.byte	0x15
 1047 00ef 00        		.byte	0x0
 1048 00f0 05        		.uleb128 0x5
 1049 00f1 02        		.byte	0x2
 1050 00f2 0000 0000 		.long	.LM18
 1051 00f6 15        		.byte	0x15
 1052 00f7 00        		.byte	0x0
 1053 00f8 05        		.uleb128 0x5
 1054 00f9 02        		.byte	0x2
 1055 00fa 0000 0000 		.long	.LM19
 1056 00fe 15        		.byte	0x15
 1057 00ff 00        		.byte	0x0
 1058 0100 05        		.uleb128 0x5
 1059 0101 02        		.byte	0x2
 1060 0102 0000 0000 		.long	.LM20
 1061 0106 1C        		.byte	0x1c
 1062 0107 00        		.byte	0x0
 1063 0108 05        		.uleb128 0x5
 1064 0109 02        		.byte	0x2
 1065 010a 0000 0000 		.long	.LM21
 1066 010e 15        		.byte	0x15
 1067 010f 00        		.byte	0x0
GAS LISTING C:\Users\ADMINI~1\AppData\Local\Temp/ccZzqakh.s 			page 20


 1068 0110 05        		.uleb128 0x5
 1069 0111 02        		.byte	0x2
 1070 0112 0000 0000 		.long	.LM22
 1071 0116 15        		.byte	0x15
 1072 0117 00        		.byte	0x0
 1073 0118 05        		.uleb128 0x5
 1074 0119 02        		.byte	0x2
 1075 011a 0000 0000 		.long	.Letext0
 1076 011e 00        		.byte	0x0
 1077 011f 01        		.uleb128 0x1
 1078 0120 01        		.byte	0x1
 1079               	.LELT0:
 1080 0121 1600 0000 		.section	.debug_str,"MS",@progbits,1
 1080      0200 1000 
 1080      0000 0101 
 1080      FB0E 0A00 
 1080      0101 0101 
 1081               	.LASF2:
 1082 0000 756E 7369 		.string	"unsigned char"
 1082      676E 6564 
 1082      2063 6861 
 1082      7200 
 1083               	.LASF12:
 1084 000e 6571 7561 		.string	"equalAll"
 1084      6C41 6C6C 
 1084      00
 1085               	.LASF18:
 1086 0017 443A 5C67 		.string	"D:\\git\\ps2avrU\\source"
 1086      6974 5C70 
 1086      7332 6176 
 1086      7255 5C73 
 1086      6F75 7263 
 1087               	.LASF14:
 1088 002d 6465 6C65 		.string	"delete"
 1088      7465 00
 1089               	.LASF16:
 1090 0034 474E 5520 		.string	"GNU C 4.3.3"
 1090      4320 342E 
 1090      332E 3300 
 1091               	.LASF8:
 1092 0040 7841 7272 		.string	"xArr"
 1092      00
 1093               	.LASF9:
 1094 0045 786C 656E 		.string	"xlen"
 1094      00
 1095               	.LASF17:
 1096 004a 7073 3261 		.string	"ps2avru_util.c"
 1096      7672 755F 
 1096      7574 696C 
 1096      2E63 00
 1097               	.LASF4:
 1098 0059 6C6F 6E67 		.string	"long unsigned int"
 1098      2075 6E73 
 1098      6967 6E65 
 1098      6420 696E 
 1098      7400 
 1099               	.LASF10:
GAS LISTING C:\Users\ADMINI~1\AppData\Local\Temp/ccZzqakh.s 			page 21


 1100 006b 7856 616C 		.string	"xValue"
 1100      7565 00
 1101               	.LASF0:
 1102 0072 756E 7369 		.string	"unsigned int"
 1102      676E 6564 
 1102      2069 6E74 
 1102      00
 1103               	.LASF6:
 1104 007f 6C6F 6E67 		.string	"long long unsigned int"
 1104      206C 6F6E 
 1104      6720 756E 
 1104      7369 676E 
 1104      6564 2069 
 1105               	.LASF19:
 1106 0096 7569 6E74 		.string	"uint8_t"
 1106      385F 7400 
 1107               	.LASF15:
 1108 009e 696E 7365 		.string	"insert"
 1108      7274 00
 1109               	.LASF5:
 1110 00a5 6C6F 6E67 		.string	"long long int"
 1110      206C 6F6E 
 1110      6720 696E 
 1110      7400 
 1111               	.LASF7:
 1112 00b3 6368 6172 		.string	"char"
 1112      00
 1113               	.LASF20:
 1114 00b8 6170 7065 		.string	"append"
 1114      6E64 00
 1115               	.LASF11:
 1116 00bf 6669 6E64 		.string	"findIndex"
 1116      496E 6465 
 1116      7800 
 1117               	.LASF3:
 1118 00c9 6C6F 6E67 		.string	"long int"
 1118      2069 6E74 
 1118      00
 1119               	.LASF1:
 1120 00d2 7369 676E 		.string	"signed char"
 1120      6564 2063 
 1120      6861 7200 
 1121               	.LASF13:
 1122 00de 7072 6576 		.string	"prev"
 1122      00
GAS LISTING C:\Users\ADMINI~1\AppData\Local\Temp/ccZzqakh.s 			page 22


DEFINED SYMBOLS
                            *ABS*:00000000 ps2avru_util.c
C:\Users\ADMINI~1\AppData\Local\Temp/ccZzqakh.s:2      *ABS*:0000003f __SREG__
C:\Users\ADMINI~1\AppData\Local\Temp/ccZzqakh.s:3      *ABS*:0000003e __SP_H__
C:\Users\ADMINI~1\AppData\Local\Temp/ccZzqakh.s:4      *ABS*:0000003d __SP_L__
C:\Users\ADMINI~1\AppData\Local\Temp/ccZzqakh.s:5      *ABS*:00000034 __CCP__
C:\Users\ADMINI~1\AppData\Local\Temp/ccZzqakh.s:6      *ABS*:00000000 __tmp_reg__
C:\Users\ADMINI~1\AppData\Local\Temp/ccZzqakh.s:7      *ABS*:00000001 __zero_reg__
C:\Users\ADMINI~1\AppData\Local\Temp/ccZzqakh.s:18     .text:00000000 findIndex
C:\Users\ADMINI~1\AppData\Local\Temp/ccZzqakh.s:56     .text:00000020 equalAll
C:\Users\ADMINI~1\AppData\Local\Temp/ccZzqakh.s:107    .text:0000004c delete
C:\Users\ADMINI~1\AppData\Local\Temp/ccZzqakh.s:141    .text:00000074 insert
C:\Users\ADMINI~1\AppData\Local\Temp/ccZzqakh.s:188    .text:000000b0 append

UNDEFINED SYMBOLS
memmove
