GAS LISTING C:\Users\ADMINI~1\AppData\Local\Temp/ccGgWWW3.s 			page 1


   1               		.file	"sleep.c"
   2               	__SREG__ = 0x3f
   3               	__SP_H__ = 0x3e
   4               	__SP_L__ = 0x3d
   5               	__CCP__  = 0x34
   6               	__tmp_reg__ = 0
   7               	__zero_reg__ = 1
   8               		.section	.debug_abbrev,"",@progbits
   9               	.Ldebug_abbrev0:
  10               		.section	.debug_info,"",@progbits
  11               	.Ldebug_info0:
  12               		.section	.debug_line,"",@progbits
  13               	.Ldebug_line0:
  14               		.text
  15               	.Ltext0:
  16               	.global	isSleep
  17               		.type	isSleep, @function
  18               	isSleep:
  19               	.LFB10:
  20               	.LM1:
  21               	/* prologue: function */
  22               	/* frame size = 0 */
  23               	.LM2:
  24 0000 8091 0000 		lds r24,_isSleep
  25               	/* epilogue start */
  26 0004 0895      		ret
  27               	.LFE10:
  28               		.size	isSleep, .-isSleep
  29               	.global	sleep
  30               		.type	sleep, @function
  31               	sleep:
  32               	.LFB9:
  33               	.LM3:
  34               	/* prologue: function */
  35               	/* frame size = 0 */
  36               	.LM4:
  37 0006 8091 0000 		lds r24,_isSleep
  38 000a 8823      		tst r24
  39 000c 01F4      		brne .L5
  40               	.LM5:
  41 000e 81E0      		ldi r24,lo8(1)
  42 0010 8093 0000 		sts _isSleep,r24
  43               	.LM6:
  44 0014 0E94 0000 		call sleepLED
  45               	.L5:
  46 0018 0895      		ret
  47               	.LFE9:
  48               		.size	sleep, .-sleep
  49               	.global	countSleep
  50               		.type	countSleep, @function
  51               	countSleep:
  52               	.LFB7:
  53               	.LM7:
  54               	/* prologue: function */
  55               	/* frame size = 0 */
  56               	.LM8:
  57 001a 8091 0000 		lds r24,_isSleep
GAS LISTING C:\Users\ADMINI~1\AppData\Local\Temp/ccGgWWW3.s 			page 2


  58 001e 8823      		tst r24
  59 0020 01F4      		brne .L8
  60               	.LM9:
  61 0022 8091 0000 		lds r24,_sleepCount
  62 0026 9091 0000 		lds r25,(_sleepCount)+1
  63 002a A091 0000 		lds r26,(_sleepCount)+2
  64 002e B091 0000 		lds r27,(_sleepCount)+3
  65 0032 0196      		adiw r24,1
  66 0034 A11D      		adc r26,__zero_reg__
  67 0036 B11D      		adc r27,__zero_reg__
  68 0038 8093 0000 		sts _sleepCount,r24
  69 003c 9093 0000 		sts (_sleepCount)+1,r25
  70 0040 A093 0000 		sts (_sleepCount)+2,r26
  71 0044 B093 0000 		sts (_sleepCount)+3,r27
  72               	.LM10:
  73 0048 8053      		subi r24,lo8(30000)
  74 004a 9547      		sbci r25,hi8(30000)
  75 004c A040      		sbci r26,hlo8(30000)
  76 004e B040      		sbci r27,hhi8(30000)
  77 0050 04F0      		brlt .L8
  78               	.LM11:
  79 0052 1092 0000 		sts _sleepCount,__zero_reg__
  80 0056 1092 0000 		sts (_sleepCount)+1,__zero_reg__
  81 005a 1092 0000 		sts (_sleepCount)+2,__zero_reg__
  82 005e 1092 0000 		sts (_sleepCount)+3,__zero_reg__
  83               	.LM12:
  84 0062 0E94 0000 		call sleep
  85               	.L8:
  86 0066 0895      		ret
  87               	.LFE7:
  88               		.size	countSleep, .-countSleep
  89               	.global	wakeUp
  90               		.type	wakeUp, @function
  91               	wakeUp:
  92               	.LFB8:
  93               	.LM13:
  94               	/* prologue: function */
  95               	/* frame size = 0 */
  96               	.LM14:
  97 0068 8091 0000 		lds r24,_isSleep
  98 006c 8823      		tst r24
  99 006e 01F0      		breq .L10
 100               	.LM15:
 101 0070 1092 0000 		sts _isSleep,__zero_reg__
 102               	.LM16:
 103 0074 0E94 0000 		call wakeUpLED
 104               	.L10:
 105               	.LM17:
 106 0078 1092 0000 		sts _sleepCount,__zero_reg__
 107 007c 1092 0000 		sts (_sleepCount)+1,__zero_reg__
 108 0080 1092 0000 		sts (_sleepCount)+2,__zero_reg__
 109 0084 1092 0000 		sts (_sleepCount)+3,__zero_reg__
 110               	/* epilogue start */
 111               	.LM18:
 112 0088 0895      		ret
 113               	.LFE8:
 114               		.size	wakeUp, .-wakeUp
GAS LISTING C:\Users\ADMINI~1\AppData\Local\Temp/ccGgWWW3.s 			page 3


 115               		.lcomm _isSleep,1
 116               		.lcomm _sleepCount,4
 117               		.section	.debug_frame,"",@progbits
 118               	.Lframe0:
 119 0000 0C00 0000 		.long	.LECIE0-.LSCIE0
 120               	.LSCIE0:
 121 0004 FFFF FFFF 		.long	0xffffffff
 122 0008 01        		.byte	0x1
 123 0009 00        		.string	""
 124 000a 01        		.uleb128 0x1
 125 000b 7F        		.sleb128 -1
 126 000c 24        		.byte	0x24
 127 000d 0C        		.byte	0xc
 128 000e 20        		.uleb128 0x20
 129 000f 00        		.uleb128 0x0
 130               		.p2align	2
 131               	.LECIE0:
 132               	.LSFDE0:
 133 0010 0C00 0000 		.long	.LEFDE0-.LASFDE0
 134               	.LASFDE0:
 135 0014 0000 0000 		.long	.Lframe0
 136 0018 0000 0000 		.long	.LFB10
 137 001c 0600 0000 		.long	.LFE10-.LFB10
 138               		.p2align	2
 139               	.LEFDE0:
 140               	.LSFDE2:
 141 0020 0C00 0000 		.long	.LEFDE2-.LASFDE2
 142               	.LASFDE2:
 143 0024 0000 0000 		.long	.Lframe0
 144 0028 0000 0000 		.long	.LFB9
 145 002c 1400 0000 		.long	.LFE9-.LFB9
 146               		.p2align	2
 147               	.LEFDE2:
 148               	.LSFDE4:
 149 0030 0C00 0000 		.long	.LEFDE4-.LASFDE4
 150               	.LASFDE4:
 151 0034 0000 0000 		.long	.Lframe0
 152 0038 0000 0000 		.long	.LFB7
 153 003c 4E00 0000 		.long	.LFE7-.LFB7
 154               		.p2align	2
 155               	.LEFDE4:
 156               	.LSFDE6:
 157 0040 0C00 0000 		.long	.LEFDE6-.LASFDE6
 158               	.LASFDE6:
 159 0044 0000 0000 		.long	.Lframe0
 160 0048 0000 0000 		.long	.LFB8
 161 004c 2200 0000 		.long	.LFE8-.LFB8
 162               		.p2align	2
 163               	.LEFDE6:
 164               		.text
 165               	.Letext0:
 166               		.section	.debug_info
 167 0000 F600 0000 		.long	0xf6
 168 0004 0200      		.word	0x2
 169 0006 0000 0000 		.long	.Ldebug_abbrev0
 170 000a 04        		.byte	0x4
 171 000b 01        		.uleb128 0x1
GAS LISTING C:\Users\ADMINI~1\AppData\Local\Temp/ccGgWWW3.s 			page 4


 172 000c 0000 0000 		.long	.LASF15
 173 0010 01        		.byte	0x1
 174 0011 0000 0000 		.long	.LASF16
 175 0015 0000 0000 		.long	.LASF17
 176 0019 0000 0000 		.long	.Ltext0
 177 001d 0000 0000 		.long	.Letext0
 178 0021 0000 0000 		.long	.Ldebug_line0
 179 0025 02        		.uleb128 0x2
 180 0026 01        		.byte	0x1
 181 0027 06        		.byte	0x6
 182 0028 0000 0000 		.long	.LASF0
 183 002c 03        		.uleb128 0x3
 184 002d 0000 0000 		.long	.LASF18
 185 0031 02        		.byte	0x2
 186 0032 7A        		.byte	0x7a
 187 0033 3700 0000 		.long	0x37
 188 0037 02        		.uleb128 0x2
 189 0038 01        		.byte	0x1
 190 0039 08        		.byte	0x8
 191 003a 0000 0000 		.long	.LASF1
 192 003e 04        		.uleb128 0x4
 193 003f 02        		.byte	0x2
 194 0040 05        		.byte	0x5
 195 0041 696E 7400 		.string	"int"
 196 0045 02        		.uleb128 0x2
 197 0046 02        		.byte	0x2
 198 0047 07        		.byte	0x7
 199 0048 0000 0000 		.long	.LASF2
 200 004c 02        		.uleb128 0x2
 201 004d 04        		.byte	0x4
 202 004e 05        		.byte	0x5
 203 004f 0000 0000 		.long	.LASF3
 204 0053 02        		.uleb128 0x2
 205 0054 04        		.byte	0x4
 206 0055 07        		.byte	0x7
 207 0056 0000 0000 		.long	.LASF4
 208 005a 02        		.uleb128 0x2
 209 005b 08        		.byte	0x8
 210 005c 05        		.byte	0x5
 211 005d 0000 0000 		.long	.LASF5
 212 0061 02        		.uleb128 0x2
 213 0062 08        		.byte	0x8
 214 0063 07        		.byte	0x7
 215 0064 0000 0000 		.long	.LASF6
 216 0068 05        		.uleb128 0x5
 217 0069 01        		.byte	0x1
 218 006a 06        		.byte	0x6
 219 006b 05        		.uleb128 0x5
 220 006c 01        		.byte	0x1
 221 006d 08        		.byte	0x8
 222 006e 02        		.uleb128 0x2
 223 006f 01        		.byte	0x1
 224 0070 06        		.byte	0x6
 225 0071 0000 0000 		.long	.LASF7
 226 0075 02        		.uleb128 0x2
 227 0076 02        		.byte	0x2
 228 0077 07        		.byte	0x7
GAS LISTING C:\Users\ADMINI~1\AppData\Local\Temp/ccGgWWW3.s 			page 5


 229 0078 0000 0000 		.long	.LASF8
 230 007c 02        		.uleb128 0x2
 231 007d 02        		.byte	0x2
 232 007e 05        		.byte	0x5
 233 007f 0000 0000 		.long	.LASF9
 234 0083 06        		.uleb128 0x6
 235 0084 01        		.byte	0x1
 236 0085 0000 0000 		.long	.LASF19
 237 0089 01        		.byte	0x1
 238 008a 2F        		.byte	0x2f
 239 008b 01        		.byte	0x1
 240 008c 2C00 0000 		.long	0x2c
 241 0090 0000 0000 		.long	.LFB10
 242 0094 0000 0000 		.long	.LFE10
 243 0098 02        		.byte	0x2
 244 0099 90        		.byte	0x90
 245 009a 20        		.uleb128 0x20
 246 009b 07        		.uleb128 0x7
 247 009c 01        		.byte	0x1
 248 009d 0000 0000 		.long	.LASF10
 249 00a1 01        		.byte	0x1
 250 00a2 27        		.byte	0x27
 251 00a3 01        		.byte	0x1
 252 00a4 0000 0000 		.long	.LFB9
 253 00a8 0000 0000 		.long	.LFE9
 254 00ac 02        		.byte	0x2
 255 00ad 90        		.byte	0x90
 256 00ae 20        		.uleb128 0x20
 257 00af 07        		.uleb128 0x7
 258 00b0 01        		.byte	0x1
 259 00b1 0000 0000 		.long	.LASF11
 260 00b5 01        		.byte	0x1
 261 00b6 13        		.byte	0x13
 262 00b7 01        		.byte	0x1
 263 00b8 0000 0000 		.long	.LFB7
 264 00bc 0000 0000 		.long	.LFE7
 265 00c0 02        		.byte	0x2
 266 00c1 90        		.byte	0x90
 267 00c2 20        		.uleb128 0x20
 268 00c3 07        		.uleb128 0x7
 269 00c4 01        		.byte	0x1
 270 00c5 0000 0000 		.long	.LASF12
 271 00c9 01        		.byte	0x1
 272 00ca 1E        		.byte	0x1e
 273 00cb 01        		.byte	0x1
 274 00cc 0000 0000 		.long	.LFB8
 275 00d0 0000 0000 		.long	.LFE8
 276 00d4 02        		.byte	0x2
 277 00d5 90        		.byte	0x90
 278 00d6 20        		.uleb128 0x20
 279 00d7 08        		.uleb128 0x8
 280 00d8 0000 0000 		.long	.LASF13
 281 00dc 01        		.byte	0x1
 282 00dd 10        		.byte	0x10
 283 00de 4C00 0000 		.long	0x4c
 284 00e2 05        		.byte	0x5
 285 00e3 03        		.byte	0x3
GAS LISTING C:\Users\ADMINI~1\AppData\Local\Temp/ccGgWWW3.s 			page 6


 286 00e4 0000 0000 		.long	_sleepCount
 287 00e8 08        		.uleb128 0x8
 288 00e9 0000 0000 		.long	.LASF14
 289 00ed 01        		.byte	0x1
 290 00ee 11        		.byte	0x11
 291 00ef 2C00 0000 		.long	0x2c
 292 00f3 05        		.byte	0x5
 293 00f4 03        		.byte	0x3
 294 00f5 0000 0000 		.long	_isSleep
 295 00f9 00        		.byte	0x0
 296               		.section	.debug_abbrev
 297 0000 01        		.uleb128 0x1
 298 0001 11        		.uleb128 0x11
 299 0002 01        		.byte	0x1
 300 0003 25        		.uleb128 0x25
 301 0004 0E        		.uleb128 0xe
 302 0005 13        		.uleb128 0x13
 303 0006 0B        		.uleb128 0xb
 304 0007 03        		.uleb128 0x3
 305 0008 0E        		.uleb128 0xe
 306 0009 1B        		.uleb128 0x1b
 307 000a 0E        		.uleb128 0xe
 308 000b 11        		.uleb128 0x11
 309 000c 01        		.uleb128 0x1
 310 000d 12        		.uleb128 0x12
 311 000e 01        		.uleb128 0x1
 312 000f 10        		.uleb128 0x10
 313 0010 06        		.uleb128 0x6
 314 0011 00        		.byte	0x0
 315 0012 00        		.byte	0x0
 316 0013 02        		.uleb128 0x2
 317 0014 24        		.uleb128 0x24
 318 0015 00        		.byte	0x0
 319 0016 0B        		.uleb128 0xb
 320 0017 0B        		.uleb128 0xb
 321 0018 3E        		.uleb128 0x3e
 322 0019 0B        		.uleb128 0xb
 323 001a 03        		.uleb128 0x3
 324 001b 0E        		.uleb128 0xe
 325 001c 00        		.byte	0x0
 326 001d 00        		.byte	0x0
 327 001e 03        		.uleb128 0x3
 328 001f 16        		.uleb128 0x16
 329 0020 00        		.byte	0x0
 330 0021 03        		.uleb128 0x3
 331 0022 0E        		.uleb128 0xe
 332 0023 3A        		.uleb128 0x3a
 333 0024 0B        		.uleb128 0xb
 334 0025 3B        		.uleb128 0x3b
 335 0026 0B        		.uleb128 0xb
 336 0027 49        		.uleb128 0x49
 337 0028 13        		.uleb128 0x13
 338 0029 00        		.byte	0x0
 339 002a 00        		.byte	0x0
 340 002b 04        		.uleb128 0x4
 341 002c 24        		.uleb128 0x24
 342 002d 00        		.byte	0x0
GAS LISTING C:\Users\ADMINI~1\AppData\Local\Temp/ccGgWWW3.s 			page 7


 343 002e 0B        		.uleb128 0xb
 344 002f 0B        		.uleb128 0xb
 345 0030 3E        		.uleb128 0x3e
 346 0031 0B        		.uleb128 0xb
 347 0032 03        		.uleb128 0x3
 348 0033 08        		.uleb128 0x8
 349 0034 00        		.byte	0x0
 350 0035 00        		.byte	0x0
 351 0036 05        		.uleb128 0x5
 352 0037 24        		.uleb128 0x24
 353 0038 00        		.byte	0x0
 354 0039 0B        		.uleb128 0xb
 355 003a 0B        		.uleb128 0xb
 356 003b 3E        		.uleb128 0x3e
 357 003c 0B        		.uleb128 0xb
 358 003d 00        		.byte	0x0
 359 003e 00        		.byte	0x0
 360 003f 06        		.uleb128 0x6
 361 0040 2E        		.uleb128 0x2e
 362 0041 00        		.byte	0x0
 363 0042 3F        		.uleb128 0x3f
 364 0043 0C        		.uleb128 0xc
 365 0044 03        		.uleb128 0x3
 366 0045 0E        		.uleb128 0xe
 367 0046 3A        		.uleb128 0x3a
 368 0047 0B        		.uleb128 0xb
 369 0048 3B        		.uleb128 0x3b
 370 0049 0B        		.uleb128 0xb
 371 004a 27        		.uleb128 0x27
 372 004b 0C        		.uleb128 0xc
 373 004c 49        		.uleb128 0x49
 374 004d 13        		.uleb128 0x13
 375 004e 11        		.uleb128 0x11
 376 004f 01        		.uleb128 0x1
 377 0050 12        		.uleb128 0x12
 378 0051 01        		.uleb128 0x1
 379 0052 40        		.uleb128 0x40
 380 0053 0A        		.uleb128 0xa
 381 0054 00        		.byte	0x0
 382 0055 00        		.byte	0x0
 383 0056 07        		.uleb128 0x7
 384 0057 2E        		.uleb128 0x2e
 385 0058 00        		.byte	0x0
 386 0059 3F        		.uleb128 0x3f
 387 005a 0C        		.uleb128 0xc
 388 005b 03        		.uleb128 0x3
 389 005c 0E        		.uleb128 0xe
 390 005d 3A        		.uleb128 0x3a
 391 005e 0B        		.uleb128 0xb
 392 005f 3B        		.uleb128 0x3b
 393 0060 0B        		.uleb128 0xb
 394 0061 27        		.uleb128 0x27
 395 0062 0C        		.uleb128 0xc
 396 0063 11        		.uleb128 0x11
 397 0064 01        		.uleb128 0x1
 398 0065 12        		.uleb128 0x12
 399 0066 01        		.uleb128 0x1
GAS LISTING C:\Users\ADMINI~1\AppData\Local\Temp/ccGgWWW3.s 			page 8


 400 0067 40        		.uleb128 0x40
 401 0068 0A        		.uleb128 0xa
 402 0069 00        		.byte	0x0
 403 006a 00        		.byte	0x0
 404 006b 08        		.uleb128 0x8
 405 006c 34        		.uleb128 0x34
 406 006d 00        		.byte	0x0
 407 006e 03        		.uleb128 0x3
 408 006f 0E        		.uleb128 0xe
 409 0070 3A        		.uleb128 0x3a
 410 0071 0B        		.uleb128 0xb
 411 0072 3B        		.uleb128 0x3b
 412 0073 0B        		.uleb128 0xb
 413 0074 49        		.uleb128 0x49
 414 0075 13        		.uleb128 0x13
 415 0076 02        		.uleb128 0x2
 416 0077 0A        		.uleb128 0xa
 417 0078 00        		.byte	0x0
 418 0079 00        		.byte	0x0
 419 007a 00        		.byte	0x0
 420               		.section	.debug_pubnames,"",@progbits
 421 0000 3E00 0000 		.long	0x3e
 422 0004 0200      		.word	0x2
 423 0006 0000 0000 		.long	.Ldebug_info0
 424 000a FA00 0000 		.long	0xfa
 425 000e 8300 0000 		.long	0x83
 426 0012 6973 536C 		.string	"isSleep"
 426      6565 7000 
 427 001a 9B00 0000 		.long	0x9b
 428 001e 736C 6565 		.string	"sleep"
 428      7000 
 429 0024 AF00 0000 		.long	0xaf
 430 0028 636F 756E 		.string	"countSleep"
 430      7453 6C65 
 430      6570 00
 431 0033 C300 0000 		.long	0xc3
 432 0037 7761 6B65 		.string	"wakeUp"
 432      5570 00
 433 003e 0000 0000 		.long	0x0
 434               		.section	.debug_aranges,"",@progbits
 435 0000 1C00 0000 		.long	0x1c
 436 0004 0200      		.word	0x2
 437 0006 0000 0000 		.long	.Ldebug_info0
 438 000a 04        		.byte	0x4
 439 000b 00        		.byte	0x0
 440 000c 0000      		.word	0x0
 441 000e 0000      		.word	0x0
 442 0010 0000 0000 		.long	.Ltext0
 443 0014 8A00 0000 		.long	.Letext0-.Ltext0
 444 0018 0000 0000 		.long	0x0
 445 001c 0000 0000 		.long	0x0
 446               		.section	.debug_line
 447 0000 F600 0000 		.long	.LELT0-.LSLT0
 448               	.LSLT0:
 449 0004 0200      		.word	0x2
 450 0006 5400 0000 		.long	.LELTP0-.LASLTP0
 451               	.LASLTP0:
GAS LISTING C:\Users\ADMINI~1\AppData\Local\Temp/ccGgWWW3.s 			page 9


 452 000a 01        		.byte	0x1
 453 000b 01        		.byte	0x1
 454 000c F6        		.byte	0xf6
 455 000d F5        		.byte	0xf5
 456 000e 0A        		.byte	0xa
 457 000f 00        		.byte	0x0
 458 0010 01        		.byte	0x1
 459 0011 01        		.byte	0x1
 460 0012 01        		.byte	0x1
 461 0013 01        		.byte	0x1
 462 0014 00        		.byte	0x0
 463 0015 00        		.byte	0x0
 464 0016 00        		.byte	0x0
 465 0017 01        		.byte	0x1
 466 0018 633A 2F77 		.ascii	"c:/winavr-20100110/lib/gcc/../../avr/include"
 466      696E 6176 
 466      722D 3230 
 466      3130 3031 
 466      3130 2F6C 
 467 0044 00        		.byte	0
 468 0045 00        		.byte	0x0
 469 0046 736C 6565 		.string	"sleep.c"
 469      702E 6300 
 470 004e 00        		.uleb128 0x0
 471 004f 00        		.uleb128 0x0
 472 0050 00        		.uleb128 0x0
 473 0051 7374 6469 		.string	"stdint.h"
 473      6E74 2E68 
 473      00
 474 005a 01        		.uleb128 0x1
 475 005b 00        		.uleb128 0x0
 476 005c 00        		.uleb128 0x0
 477 005d 00        		.byte	0x0
 478               	.LELTP0:
 479 005e 00        		.byte	0x0
 480 005f 05        		.uleb128 0x5
 481 0060 02        		.byte	0x2
 482 0061 0000 0000 		.long	.LM1
 483 0065 42        		.byte	0x42
 484 0066 00        		.byte	0x0
 485 0067 05        		.uleb128 0x5
 486 0068 02        		.byte	0x2
 487 0069 0000 0000 		.long	.LM2
 488 006d 16        		.byte	0x16
 489 006e 00        		.byte	0x0
 490 006f 05        		.uleb128 0x5
 491 0070 02        		.byte	0x2
 492 0071 0000 0000 		.long	.LM3
 493 0075 0A        		.byte	0xa
 494 0076 00        		.byte	0x0
 495 0077 05        		.uleb128 0x5
 496 0078 02        		.byte	0x2
 497 0079 0000 0000 		.long	.LM4
 498 007d 15        		.byte	0x15
 499 007e 00        		.byte	0x0
 500 007f 05        		.uleb128 0x5
 501 0080 02        		.byte	0x2
GAS LISTING C:\Users\ADMINI~1\AppData\Local\Temp/ccGgWWW3.s 			page 10


 502 0081 0000 0000 		.long	.LM5
 503 0085 15        		.byte	0x15
 504 0086 00        		.byte	0x0
 505 0087 05        		.uleb128 0x5
 506 0088 02        		.byte	0x2
 507 0089 0000 0000 		.long	.LM6
 508 008d 16        		.byte	0x16
 509 008e 00        		.byte	0x0
 510 008f 05        		.uleb128 0x5
 511 0090 02        		.byte	0x2
 512 0091 0000 0000 		.long	.LM7
 513 0095 03        		.byte	0x3
 514 0096 68        		.sleb128 -24
 515 0097 01        		.byte	0x1
 516 0098 00        		.byte	0x0
 517 0099 05        		.uleb128 0x5
 518 009a 02        		.byte	0x2
 519 009b 0000 0000 		.long	.LM8
 520 009f 15        		.byte	0x15
 521 00a0 00        		.byte	0x0
 522 00a1 05        		.uleb128 0x5
 523 00a2 02        		.byte	0x2
 524 00a3 0000 0000 		.long	.LM9
 525 00a7 16        		.byte	0x16
 526 00a8 00        		.byte	0x0
 527 00a9 05        		.uleb128 0x5
 528 00aa 02        		.byte	0x2
 529 00ab 0000 0000 		.long	.LM10
 530 00af 16        		.byte	0x16
 531 00b0 00        		.byte	0x0
 532 00b1 05        		.uleb128 0x5
 533 00b2 02        		.byte	0x2
 534 00b3 0000 0000 		.long	.LM11
 535 00b7 15        		.byte	0x15
 536 00b8 00        		.byte	0x0
 537 00b9 05        		.uleb128 0x5
 538 00ba 02        		.byte	0x2
 539 00bb 0000 0000 		.long	.LM12
 540 00bf 15        		.byte	0x15
 541 00c0 00        		.byte	0x0
 542 00c1 05        		.uleb128 0x5
 543 00c2 02        		.byte	0x2
 544 00c3 0000 0000 		.long	.LM13
 545 00c7 18        		.byte	0x18
 546 00c8 00        		.byte	0x0
 547 00c9 05        		.uleb128 0x5
 548 00ca 02        		.byte	0x2
 549 00cb 0000 0000 		.long	.LM14
 550 00cf 15        		.byte	0x15
 551 00d0 00        		.byte	0x0
 552 00d1 05        		.uleb128 0x5
 553 00d2 02        		.byte	0x2
 554 00d3 0000 0000 		.long	.LM15
 555 00d7 15        		.byte	0x15
 556 00d8 00        		.byte	0x0
 557 00d9 05        		.uleb128 0x5
 558 00da 02        		.byte	0x2
GAS LISTING C:\Users\ADMINI~1\AppData\Local\Temp/ccGgWWW3.s 			page 11


 559 00db 0000 0000 		.long	.LM16
 560 00df 16        		.byte	0x16
 561 00e0 00        		.byte	0x0
 562 00e1 05        		.uleb128 0x5
 563 00e2 02        		.byte	0x2
 564 00e3 0000 0000 		.long	.LM17
 565 00e7 16        		.byte	0x16
 566 00e8 00        		.byte	0x0
 567 00e9 05        		.uleb128 0x5
 568 00ea 02        		.byte	0x2
 569 00eb 0000 0000 		.long	.LM18
 570 00ef 15        		.byte	0x15
 571 00f0 00        		.byte	0x0
 572 00f1 05        		.uleb128 0x5
 573 00f2 02        		.byte	0x2
 574 00f3 0000 0000 		.long	.Letext0
 575 00f7 00        		.byte	0x0
 576 00f8 01        		.uleb128 0x1
 577 00f9 01        		.byte	0x1
 578               	.LELT0:
 579 00fa 1600 0000 		.section	.debug_str,"MS",@progbits,1
 579      0200 1000 
 579      0000 0101 
 579      FB0E 0A00 
 579      0101 0101 
 580               	.LASF5:
 581 0000 6C6F 6E67 		.string	"long long int"
 581      206C 6F6E 
 581      6720 696E 
 581      7400 
 582               	.LASF14:
 583 000e 5F69 7353 		.string	"_isSleep"
 583      6C65 6570 
 583      00
 584               	.LASF16:
 585 0017 736C 6565 		.string	"sleep.c"
 585      702E 6300 
 586               	.LASF13:
 587 001f 5F73 6C65 		.string	"_sleepCount"
 587      6570 436F 
 587      756E 7400 
 588               	.LASF4:
 589 002b 6C6F 6E67 		.string	"long unsigned int"
 589      2075 6E73 
 589      6967 6E65 
 589      6420 696E 
 589      7400 
 590               	.LASF6:
 591 003d 6C6F 6E67 		.string	"long long unsigned int"
 591      206C 6F6E 
 591      6720 756E 
 591      7369 676E 
 591      6564 2069 
 592               	.LASF18:
 593 0054 7569 6E74 		.string	"uint8_t"
 593      385F 7400 
 594               	.LASF1:
GAS LISTING C:\Users\ADMINI~1\AppData\Local\Temp/ccGgWWW3.s 			page 12


 595 005c 756E 7369 		.string	"unsigned char"
 595      676E 6564 
 595      2063 6861 
 595      7200 
 596               	.LASF7:
 597 006a 6368 6172 		.string	"char"
 597      00
 598               	.LASF10:
 599 006f 736C 6565 		.string	"sleep"
 599      7000 
 600               	.LASF17:
 601 0075 443A 5C67 		.string	"D:\\git\\ps2avrU\\source"
 601      6974 5C70 
 601      7332 6176 
 601      7255 5C73 
 601      6F75 7263 
 602               	.LASF3:
 603 008b 6C6F 6E67 		.string	"long int"
 603      2069 6E74 
 603      00
 604               	.LASF9:
 605 0094 7368 6F72 		.string	"short int"
 605      7420 696E 
 605      7400 
 606               	.LASF19:
 607 009e 6973 536C 		.string	"isSleep"
 607      6565 7000 
 608               	.LASF8:
 609 00a6 7368 6F72 		.string	"short unsigned int"
 609      7420 756E 
 609      7369 676E 
 609      6564 2069 
 609      6E74 00
 610               	.LASF0:
 611 00b9 7369 676E 		.string	"signed char"
 611      6564 2063 
 611      6861 7200 
 612               	.LASF15:
 613 00c5 474E 5520 		.string	"GNU C 4.3.3"
 613      4320 342E 
 613      332E 3300 
 614               	.LASF12:
 615 00d1 7761 6B65 		.string	"wakeUp"
 615      5570 00
 616               	.LASF2:
 617 00d8 756E 7369 		.string	"unsigned int"
 617      676E 6564 
 617      2069 6E74 
 617      00
 618               	.LASF11:
 619 00e5 636F 756E 		.string	"countSleep"
 619      7453 6C65 
 619      6570 00
 620               	.global __do_clear_bss
GAS LISTING C:\Users\ADMINI~1\AppData\Local\Temp/ccGgWWW3.s 			page 13


DEFINED SYMBOLS
                            *ABS*:00000000 sleep.c
C:\Users\ADMINI~1\AppData\Local\Temp/ccGgWWW3.s:2      *ABS*:0000003f __SREG__
C:\Users\ADMINI~1\AppData\Local\Temp/ccGgWWW3.s:3      *ABS*:0000003e __SP_H__
C:\Users\ADMINI~1\AppData\Local\Temp/ccGgWWW3.s:4      *ABS*:0000003d __SP_L__
C:\Users\ADMINI~1\AppData\Local\Temp/ccGgWWW3.s:5      *ABS*:00000034 __CCP__
C:\Users\ADMINI~1\AppData\Local\Temp/ccGgWWW3.s:6      *ABS*:00000000 __tmp_reg__
C:\Users\ADMINI~1\AppData\Local\Temp/ccGgWWW3.s:7      *ABS*:00000001 __zero_reg__
C:\Users\ADMINI~1\AppData\Local\Temp/ccGgWWW3.s:18     .text:00000000 isSleep
                             .bss:00000000 _isSleep
C:\Users\ADMINI~1\AppData\Local\Temp/ccGgWWW3.s:31     .text:00000006 sleep
C:\Users\ADMINI~1\AppData\Local\Temp/ccGgWWW3.s:51     .text:0000001a countSleep
C:\Users\ADMINI~1\AppData\Local\Temp/ccGgWWW3.s:115    .bss:00000001 _sleepCount
C:\Users\ADMINI~1\AppData\Local\Temp/ccGgWWW3.s:91     .text:00000068 wakeUp

UNDEFINED SYMBOLS
sleepLED
wakeUpLED
__do_clear_bss
