GAS LISTING C:\Users\ADMINI~1\AppData\Local\Temp/ccRLNvvW.s 			page 1


   1               		.file	"usbmain.c"
   2               	__SREG__ = 0x3f
   3               	__SP_H__ = 0x3e
   4               	__SP_L__ = 0x3d
   5               	__CCP__  = 0x34
   6               	__tmp_reg__ = 0
   7               	__zero_reg__ = 1
   8               		.section	.debug_abbrev,"",@progbits
   9               	.Ldebug_abbrev0:
  10               		.section	.debug_info,"",@progbits
  11               	.Ldebug_info0:
  12               		.section	.debug_line,"",@progbits
  13               	.Ldebug_line0:
  14               		.text
  15               	.Ltext0:
  16               	.global	hasMacroUsb
  17               		.type	hasMacroUsb, @function
  18               	hasMacroUsb:
  19               	.LFB16:
  20               	.LM1:
  21               	/* prologue: function */
  22               	/* frame size = 0 */
  23               	.LM2:
  24 0000 8091 0000 		lds r24,_needRelease
  25 0004 8823      		tst r24
  26 0006 01F4      		brne .L6
  27               	.L2:
  28 0008 0E94 0000 		call isEmptyM
  29 000c 20E0      		ldi r18,lo8(0)
  30 000e 30E0      		ldi r19,hi8(0)
  31 0010 8823      		tst r24
  32 0012 01F4      		brne .L3
  33               	.L6:
  34 0014 21E0      		ldi r18,lo8(1)
  35 0016 30E0      		ldi r19,hi8(1)
  36               	.L3:
  37               	.LM3:
  38 0018 822F      		mov r24,r18
  39               	/* epilogue start */
  40 001a 0895      		ret
  41               	.LFE16:
  42               		.size	hasMacroUsb, .-hasMacroUsb
  43               	.global	clearReportBuffer
  44               		.type	clearReportBuffer, @function
  45               	clearReportBuffer:
  46               	.LFB13:
  47               	.LM4:
  48               	/* prologue: function */
  49               	/* frame size = 0 */
  50               	.LM5:
  51 001c 88E0      		ldi r24,lo8(8)
  52 001e E0E0      		ldi r30,lo8(reportBuffer)
  53 0020 F0E0      		ldi r31,hi8(reportBuffer)
  54 0022 DF01      		movw r26,r30
  55 0024 1D92      		st X+,__zero_reg__
  56 0026 8A95      	        dec r24
  57 0028 01F4      		brne .-6
GAS LISTING C:\Users\ADMINI~1\AppData\Local\Temp/ccRLNvvW.s 			page 2


  58               	.LM6:
  59 002a 81E0      		ldi r24,lo8(1)
  60 002c 8093 0000 		sts reportBuffer,r24
  61               	/* epilogue start */
  62               	.LM7:
  63 0030 0895      		ret
  64               	.LFE13:
  65               		.size	clearReportBuffer, .-clearReportBuffer
  66               	.global	prepareKeyMappingUsb
  67               		.type	prepareKeyMappingUsb, @function
  68               	prepareKeyMappingUsb:
  69               	.LFB11:
  70               	.LM8:
  71               	/* prologue: function */
  72               	/* frame size = 0 */
  73               	.LM9:
  74 0032 80E3      		ldi r24,lo8(48)
  75 0034 E0E0      		ldi r30,lo8(_prevPressedBuffer)
  76 0036 F0E0      		ldi r31,hi8(_prevPressedBuffer)
  77 0038 DF01      		movw r26,r30
  78 003a 1D92      		st X+,__zero_reg__
  79 003c 8A95      	        dec r24
  80 003e 01F4      		brne .-6
  81               	/* epilogue start */
  82               	.LM10:
  83 0040 0895      		ret
  84               	.LFE11:
  85               		.size	prepareKeyMappingUsb, .-prepareKeyMappingUsb
  86               	.global	makeReportBuffer
  87               		.type	makeReportBuffer, @function
  88               	makeReportBuffer:
  89               	.LFB12:
  90               	.LM11:
  91               	.LVL0:
  92               	/* prologue: function */
  93               	/* frame size = 0 */
  94               	.LM12:
  95 0042 0E94 0000 		call getDualActionDownKeyIdex
  96               	.LVL1:
  97 0046 982F      		mov r25,r24
  98               	.LVL2:
  99               	.LM13:
 100 0048 853D      		cpi r24,lo8(-43)
 101 004a 00F0      		brlo .+2
 102 004c 00C0      		rjmp .L12
 103               	.LVL3:
 104               	.LM14:
 105 004e 8157      		subi r24,lo8(-(-113))
 106               	.LVL4:
 107 0050 8A31      		cpi r24,lo8(26)
 108 0052 00F4      		brsh .L13
 109               	.LBB2:
 110               	.LM15:
 111 0054 81E0      		ldi r24,lo8(1)
 112 0056 8093 0000 		sts _isMultimediaPressed,r24
 113               	.LBB3:
 114               	.LM16:
GAS LISTING C:\Users\ADMINI~1\AppData\Local\Temp/ccRLNvvW.s 			page 3


 115 005a E92F      		mov r30,r25
 116               	.LVL5:
 117 005c F0E0      		ldi r31,lo8(0)
 118               	.LVL6:
 119 005e EE0F      		lsl r30
 120 0060 FF1F      		rol r31
 121               	.LVL7:
 122 0062 E050      		subi r30,lo8(-(keycode_USB_multimedia-226))
 123 0064 F040      		sbci r31,hi8(-(keycode_USB_multimedia-226))
 124               	/* #APP */
 125               	 ;  430 "usbmain.c" 1
 126 0066 2591      		lpm r18, Z+
 127 0068 3491      		lpm r19, Z
 128               		
 129               	 ;  0 "" 2
 130               	.LVL8:
 131               	/* #NOAPP */
 132               	.LBE3:
 133               	.LM17:
 134 006a 82E0      		ldi r24,lo8(2)
 135 006c 8093 0000 		sts reportBuffer,r24
 136               	.LM18:
 137 0070 2093 0000 		sts reportBuffer+1,r18
 138               	.LM19:
 139 0074 3093 0000 		sts reportBuffer+2,r19
 140               	.LVL9:
 141 0078 00C0      		rjmp .L12
 142               	.LVL10:
 143               	.L13:
 144               	.LBE2:
 145               	.LM20:
 146 007a 892F      		mov r24,r25
 147 007c 8756      		subi r24,lo8(-(-103))
 148 007e 8830      		cpi r24,lo8(8)
 149 0080 00F4      		brsh .L14
 150               	.LM21:
 151 0082 E92F      		mov r30,r25
 152 0084 F0E0      		ldi r31,lo8(0)
 153               	.LVL11:
 154 0086 EE0F      		lsl r30
 155 0088 FF1F      		rol r31
 156               	.LVL12:
 157 008a E050      		subi r30,lo8(-(modmask-206))
 158 008c F040      		sbci r31,hi8(-(modmask-206))
 159               	.LVL13:
 160 008e 8081      		ld r24,Z
 161 0090 9091 0000 		lds r25,reportBuffer+1
 162 0094 892B      		or r24,r25
 163 0096 8093 0000 		sts reportBuffer+1,r24
 164 009a 00C0      		rjmp .L12
 165               	.LVL14:
 166               	.L14:
 167               	.LM22:
 168 009c 9923      		tst r25
 169 009e 01F0      		breq .L12
 170               	.LM23:
 171 00a0 2091 0000 		lds r18,reportIndex
GAS LISTING C:\Users\ADMINI~1\AppData\Local\Temp/ccRLNvvW.s 			page 4


 172 00a4 2830      		cpi r18,lo8(8)
 173 00a6 00F4      		brsh .L12
 174               	.LM24:
 175 00a8 892F      		mov r24,r25
 176 00aa 8D58      		subi r24,lo8(-(115))
 177 00ac 8230      		cpi r24,lo8(2)
 178 00ae 00F4      		brsh .L15
 179               	.LBB4:
 180               	.LM25:
 181 00b0 E92F      		mov r30,r25
 182               	.LVL15:
 183 00b2 F0E0      		ldi r31,lo8(0)
 184               	.LVL16:
 185 00b4 EE0F      		lsl r30
 186 00b6 FF1F      		rol r31
 187               	.LVL17:
 188 00b8 E050      		subi r30,lo8(-(keycode_USB_extend-282))
 189 00ba F040      		sbci r31,hi8(-(keycode_USB_extend-282))
 190               	/* #APP */
 191               	 ;  453 "usbmain.c" 1
 192 00bc 8591      		lpm r24, Z+
 193 00be 9491      		lpm r25, Z
 194               		
 195               	 ;  0 "" 2
 196               	.LVL18:
 197               	/* #NOAPP */
 198               	.LBE4:
 199 00c0 982F      		mov r25,r24
 200               	.L15:
 201               	.LM26:
 202 00c2 E22F      		mov r30,r18
 203               	.LVL19:
 204 00c4 F0E0      		ldi r31,lo8(0)
 205               	.LVL20:
 206 00c6 E050      		subi r30,lo8(-(reportBuffer))
 207 00c8 F040      		sbci r31,hi8(-(reportBuffer))
 208 00ca 9083      		st Z,r25
 209               	.LM27:
 210 00cc 2F5F      		subi r18,lo8(-(1))
 211 00ce 2093 0000 		sts reportIndex,r18
 212               	.LVL21:
 213               	.L12:
 214               	.LM28:
 215 00d2 80E0      		ldi r24,lo8(0)
 216               	.LVL22:
 217               	/* epilogue start */
 218 00d4 0895      		ret
 219               	.LFE12:
 220               		.size	makeReportBuffer, .-makeReportBuffer
 221               	.global	scanMacroUsb
 222               		.type	scanMacroUsb, @function
 223               	scanMacroUsb:
 224               	.LFB15:
 225               	.LM29:
 226 00d6 AF92      		push r10
 227 00d8 BF92      		push r11
 228 00da CF92      		push r12
GAS LISTING C:\Users\ADMINI~1\AppData\Local\Temp/ccRLNvvW.s 			page 5


 229 00dc DF92      		push r13
 230 00de EF92      		push r14
 231 00e0 FF92      		push r15
 232 00e2 1F93      		push r17
 233 00e4 CF93      		push r28
 234 00e6 DF93      		push r29
 235               	/* prologue: function */
 236               	/* frame size = 0 */
 237               	.LM30:
 238 00e8 0E94 0000 		call isEmptyM
 239 00ec 8823      		tst r24
 240 00ee 01F0      		breq .+2
 241 00f0 00C0      		rjmp .L18
 242               	.LBB5:
 243               	.LM31:
 244 00f2 0E94 0000 		call clearReportBuffer
 245               	.LM32:
 246 00f6 0E94 0000 		call popMWithKey
 247               	.LM33:
 248 00fa E0E0      		ldi r30,lo8(_pressedBuffer)
 249 00fc F0E0      		ldi r31,hi8(_pressedBuffer)
 250 00fe DF01      		movw r26,r30
 251 0100 0D90      		ld __tmp_reg__,X+
 252 0102 0020      		tst __tmp_reg__
 253 0104 01F4      		brne .-6
 254 0106 1197      		sbiw r26,1
 255 0108 AE1B      		sub r26,r30
 256 010a BF0B      		sbc r27,r31
 257               	.LM34:
 258 010c 82E0      		ldi r24,lo8(2)
 259 010e 8093 0000 		sts reportIndex,r24
 260 0112 EF01      		movw r28,r30
 261               	.LM35:
 262 0114 EA2E      		mov r14,r26
 263               	.LVL23:
 264 0116 FF24      		clr r15
 265               	.LVL24:
 266 0118 6F01      		movw r12,r30
 267 011a CE0C      		add r12,r14
 268 011c DF1C      		adc r13,r15
 269               	.LM36:
 270 011e 30E0      		ldi r19,lo8(_prevPressedBuffer)
 271 0120 A32E      		mov r10,r19
 272 0122 30E0      		ldi r19,hi8(_prevPressedBuffer)
 273 0124 B32E      		mov r11,r19
 274 0126 00C0      		rjmp .L19
 275               	.LVL25:
 276               	.L22:
 277               	.LM37:
 278 0128 1881      		ld r17,Y
 279               	.LM38:
 280 012a 812F      		mov r24,r17
 281 012c 8756      		subi r24,lo8(-(-103))
 282 012e 8830      		cpi r24,lo8(8)
 283 0130 00F0      		brlo .L26
 284               	.L20:
 285               	.LM39:
GAS LISTING C:\Users\ADMINI~1\AppData\Local\Temp/ccRLNvvW.s 			page 6


 286 0132 F501      		movw r30,r10
 287 0134 0190      		ld __tmp_reg__,Z+
 288 0136 0020      		tst __tmp_reg__
 289 0138 01F4      		brne .-6
 290 013a 3197      		sbiw r30,1
 291 013c E050      		subi r30,lo8(_prevPressedBuffer)
 292 013e F040      		sbci r31,hi8(_prevPressedBuffer)
 293 0140 80E0      		ldi r24,lo8(_prevPressedBuffer)
 294 0142 90E0      		ldi r25,hi8(_prevPressedBuffer)
 295 0144 6E2F      		mov r22,r30
 296 0146 412F      		mov r20,r17
 297 0148 0E94 0000 		call findIndex
 298               	.LM40:
 299 014c 8F5F      		subi r24,lo8(-1)
 300 014e 9F4F      		sbci r25,hi8(-1)
 301 0150 01F4      		brne .L21
 302               	.L26:
 303               	.LM41:
 304 0152 812F      		mov r24,r17
 305 0154 61E0      		ldi r22,lo8(1)
 306 0156 0E94 0000 		call makeReportBuffer
 307               	.L21:
 308 015a 2196      		adiw r28,1
 309               	.L19:
 310               	.LM42:
 311 015c 40E0      		ldi r20,lo8(_pressedBuffer)
 312 015e 50E0      		ldi r21,hi8(_pressedBuffer)
 313 0160 CC15      		cp r28,r12
 314 0162 DD05      		cpc r29,r13
 315 0164 01F4      		brne .L22
 316               	.LM43:
 317 0166 81E0      		ldi r24,lo8(1)
 318 0168 8093 0000 		sts _needRelease,r24
 319               	.LM44:
 320 016c 20E0      		ldi r18,lo8(_prevPressedBuffer)
 321 016e 30E0      		ldi r19,hi8(_prevPressedBuffer)
 322 0170 F701      		movw r30,r14
 323 0172 3196      		adiw r30,1
 324 0174 C901      		movw r24,r18
 325 0176 BA01      		movw r22,r20
 326 0178 AF01      		movw r20,r30
 327 017a 0E94 0000 		call memcpy
 328 017e 00C0      		rjmp .L24
 329               	.LVL26:
 330               	.L18:
 331               	.LBE5:
 332               	.LM45:
 333 0180 8091 0000 		lds r24,_needRelease
 334 0184 8823      		tst r24
 335 0186 01F0      		breq .L24
 336               	.LM46:
 337 0188 0E94 0000 		call clearReportBuffer
 338               	.LM47:
 339 018c 1092 0000 		sts _needRelease,__zero_reg__
 340               	.LVL27:
 341               	.L24:
 342               	.LM48:
GAS LISTING C:\Users\ADMINI~1\AppData\Local\Temp/ccRLNvvW.s 			page 7


 343 0190 81E0      		ldi r24,lo8(1)
 344               	/* epilogue start */
 345 0192 DF91      		pop r29
 346 0194 CF91      		pop r28
 347 0196 1F91      		pop r17
 348               	.LVL28:
 349 0198 FF90      		pop r15
 350               	.LVL29:
 351 019a EF90      		pop r14
 352               	.LVL30:
 353 019c DF90      		pop r13
 354 019e CF90      		pop r12
 355 01a0 BF90      		pop r11
 356 01a2 AF90      		pop r10
 357 01a4 0895      		ret
 358               	.LFE15:
 359               		.size	scanMacroUsb, .-scanMacroUsb
 360               	.global	scanKeyUSB
 361               		.type	scanKeyUSB, @function
 362               	scanKeyUSB:
 363               	.LFB14:
 364               	.LM49:
 365 01a6 3F92      		push r3
 366 01a8 4F92      		push r4
 367 01aa 5F92      		push r5
 368 01ac 6F92      		push r6
 369 01ae 7F92      		push r7
 370 01b0 8F92      		push r8
 371 01b2 9F92      		push r9
 372 01b4 AF92      		push r10
 373 01b6 BF92      		push r11
 374 01b8 CF92      		push r12
 375 01ba DF92      		push r13
 376 01bc EF92      		push r14
 377 01be FF92      		push r15
 378 01c0 0F93      		push r16
 379 01c2 1F93      		push r17
 380 01c4 DF93      		push r29
 381 01c6 CF93      		push r28
 382 01c8 00D0      		rcall .
 383 01ca 0F92      		push __tmp_reg__
 384 01cc CDB7      		in r28,__SP_L__
 385 01ce DEB7      		in r29,__SP_H__
 386               	/* prologue: function */
 387               	/* frame size = 3 */
 388               	.LM50:
 389 01d0 0E94 0000 		call setCurrentMatrix
 390 01d4 8823      		tst r24
 391 01d6 01F4      		brne .+2
 392 01d8 00C0      		rjmp .L28
 393               	.LM51:
 394 01da 0E94 0000 		call getLayer
 395 01de 382E      		mov r3,r24
 396               	.LVL31:
 397               	.LM52:
 398 01e0 82E0      		ldi r24,lo8(2)
 399 01e2 8093 0000 		sts reportIndex,r24
GAS LISTING C:\Users\ADMINI~1\AppData\Local\Temp/ccRLNvvW.s 			page 8


 400               	.LM53:
 401 01e6 0E94 0000 		call clearReportBuffer
 402               	.LM54:
 403 01ea 0E94 0000 		call getCurrentMatrix
 404 01ee 3C01      		movw r6,r24
 405               	.LVL32:
 406 01f0 9924      		clr r9
 407               	.LVL33:
 408 01f2 1982      		std Y+1,__zero_reg__
 409               	.LVL34:
 410 01f4 CC24      		clr r12
 411 01f6 DD24      		clr r13
 412               	.LM55:
 413 01f8 41E0      		ldi r20,lo8(1)
 414 01fa 442E      		mov r4,r20
 415 01fc 512C      		mov r5,__zero_reg__
 416 01fe 00C0      		rjmp .L29
 417               	.LVL35:
 418               	.L40:
 419               	.LM56:
 420 0200 BA80      		ldd r11,Y+2
 421               	.LM57:
 422 0202 EA81      		ldd r30,Y+2
 423 0204 FB81      		ldd r31,Y+3
 424 0206 E050      		subi r30,lo8(-(prevMatrix))
 425 0208 F040      		sbci r31,hi8(-(prevMatrix))
 426 020a 0081      		ld r16,Z
 427               	.LVL36:
 428               	.LM58:
 429 020c EA81      		ldd r30,Y+2
 430 020e FB81      		ldd r31,Y+3
 431 0210 E60D      		add r30,r6
 432 0212 F71D      		adc r31,r7
 433 0214 F080      		ld r15,Z
 434 0216 F820      		and r15,r8
 435               	.LM59:
 436 0218 832D      		mov r24,r3
 437 021a 6B2D      		mov r22,r11
 438 021c 4A2D      		mov r20,r10
 439 021e 0E94 0000 		call getCurrentKeycode
 440 0222 182F      		mov r17,r24
 441               	.LM60:
 442 0224 FF20      		tst r15
 443 0226 01F0      		breq .L30
 444 0228 8823      		tst r24
 445 022a 01F0      		breq .L30
 446               	.LVL37:
 447 022c 0E94 0000 		call applyMacro
 448               	.LVL38:
 449 0230 8823      		tst r24
 450 0232 01F0      		breq .+2
 451 0234 00C0      		rjmp .L28
 452               	.LVL39:
 453               	.L30:
 454               	.LM61:
 455 0236 E82C      		mov r14,r8
 456 0238 E022      		and r14,r16
GAS LISTING C:\Users\ADMINI~1\AppData\Local\Temp/ccRLNvvW.s 			page 9


 457               	.LM62:
 458 023a EF14      		cp r14,r15
 459 023c 01F4      		brne .+2
 460 023e 00C0      		rjmp .L31
 461               	.LM63:
 462 0240 0E94 0000 		call isBootMapper
 463 0244 8823      		tst r24
 464 0246 01F0      		breq .L32
 465               	.LM64:
 466 0248 FF20      		tst r15
 467 024a 01F4      		brne .+2
 468 024c 00C0      		rjmp .L33
 469 024e 8B2D      		mov r24,r11
 470 0250 6A2D      		mov r22,r10
 471 0252 0E94 0000 		call trace
 472 0256 00C0      		rjmp .L33
 473               	.L32:
 474               	.LM65:
 475 0258 1123      		tst r17
 476 025a 01F4      		brne .+2
 477 025c 00C0      		rjmp .L34
 478               	.LM66:
 479 025e FF20      		tst r15
 480 0260 01F0      		breq .L35
 481               	.LM67:
 482 0262 812F      		mov r24,r17
 483 0264 61E0      		ldi r22,lo8(1)
 484 0266 0E94 0000 		call applyFN
 485 026a 082F      		mov r16,r24
 486               	.LVL40:
 487               	.LM68:
 488 026c 0E94 0000 		call wakeUp
 489               	.LM69:
 490 0270 80E0      		ldi r24,lo8(gs(makeReportBuffer))
 491 0272 90E0      		ldi r25,hi8(gs(makeReportBuffer))
 492 0274 61E0      		ldi r22,lo8(1)
 493 0276 0E94 0000 		call applyDualActionDown
 494 027a 00C0      		rjmp .L36
 495               	.LVL41:
 496               	.L35:
 497               	.LM70:
 498 027c 812F      		mov r24,r17
 499 027e 60E0      		ldi r22,lo8(0)
 500 0280 0E94 0000 		call applyFN
 501 0284 082F      		mov r16,r24
 502               	.LVL42:
 503               	.LM71:
 504 0286 EE20      		tst r14
 505 0288 01F0      		breq .L37
 506               	.L36:
 507 028a 0E94 0000 		call isKeyMapping
 508 028e 8823      		tst r24
 509 0290 01F0      		breq .L37
 510               	.LM72:
 511 0292 FF20      		tst r15
 512 0294 01F0      		breq .L38
 513               	.LM73:
GAS LISTING C:\Users\ADMINI~1\AppData\Local\Temp/ccRLNvvW.s 			page 10


 514 0296 812F      		mov r24,r17
 515 0298 6A2D      		mov r22,r10
 516 029a 4B2D      		mov r20,r11
 517 029c 21E0      		ldi r18,lo8(1)
 518 029e 0E94 0000 		call putKeyCode
 519 02a2 81E0      		ldi r24,lo8(1)
 520 02a4 8983      		std Y+1,r24
 521               	.LVL43:
 522 02a6 00C0      		rjmp .L39
 523               	.L38:
 524               	.LM74:
 525 02a8 812F      		mov r24,r17
 526 02aa 6A2D      		mov r22,r10
 527 02ac 4B2D      		mov r20,r11
 528 02ae 20E0      		ldi r18,lo8(0)
 529 02b0 0E94 0000 		call putKeyCode
 530 02b4 91E0      		ldi r25,lo8(1)
 531 02b6 9983      		std Y+1,r25
 532               	.LVL44:
 533 02b8 00C0      		rjmp .L39
 534               	.L37:
 535               	.LM75:
 536 02ba 0023      		tst r16
 537 02bc 01F0      		breq .L39
 538               	.LVL45:
 539               	.L31:
 540               	.LM76:
 541 02be FF20      		tst r15
 542 02c0 01F0      		breq .L39
 543               	.LM77:
 544 02c2 812F      		mov r24,r17
 545 02c4 61E0      		ldi r22,lo8(1)
 546 02c6 0E94 0000 		call makeReportBuffer
 547 02ca 982A      		or r9,r24
 548               	.LVL46:
 549               	.L39:
 550 02cc EA81      		ldd r30,Y+2
 551 02ce FB81      		ldd r31,Y+3
 552 02d0 3196      		adiw r30,1
 553 02d2 FB83      		std Y+3,r31
 554 02d4 EA83      		std Y+2,r30
 555               	.LM78:
 556 02d6 7197      		sbiw r30,17
 557 02d8 01F0      		breq .+2
 558 02da 00C0      		rjmp .L40
 559               	.L33:
 560 02dc 0894      		sec
 561 02de C11C      		adc r12,__zero_reg__
 562 02e0 D11C      		adc r13,__zero_reg__
 563               	.LM79:
 564 02e2 F8E0      		ldi r31,lo8(8)
 565 02e4 CF16      		cp r12,r31
 566 02e6 D104      		cpc r13,__zero_reg__
 567 02e8 01F0      		breq .L41
 568               	.L29:
 569 02ea AC2C      		mov r10,r12
 570               	.LM80:
GAS LISTING C:\Users\ADMINI~1\AppData\Local\Temp/ccRLNvvW.s 			page 11


 571 02ec C201      		movw r24,r4
 572 02ee 0C2C      		mov r0,r12
 573 02f0 00C0      		rjmp 2f
 574 02f2 880F      	1:	lsl r24
 575 02f4 991F      		rol r25
 576 02f6 0A94      	2:	dec r0
 577 02f8 02F4      		brpl 1b
 578 02fa 882E      		mov r8,r24
 579 02fc 1B82      		std Y+3,__zero_reg__
 580 02fe 1A82      		std Y+2,__zero_reg__
 581 0300 00C0      		rjmp .L40
 582               	.LVL47:
 583               	.L41:
 584               	.LM81:
 585 0302 8091 0000 		lds r24,reportBuffer
 586 0306 8130      		cpi r24,lo8(1)
 587 0308 01F4      		brne .L42
 588 030a 9091 0000 		lds r25,reportBuffer+1
 589 030e 8091 0000 		lds r24,prevModifier.2353
 590 0312 9817      		cp r25,r24
 591 0314 01F0      		breq .L42
 592               	.LM82:
 593 0316 892F      		mov r24,r25
 594 0318 0E94 0000 		call applyKeyMapping
 595               	.LM83:
 596 031c 8091 0000 		lds r24,reportBuffer+1
 597 0320 8093 0000 		sts prevModifier.2353,r24
 598               	.L42:
 599               	.LM84:
 600 0324 8091 0000 		lds r24,_isMultimediaPressed
 601 0328 8823      		tst r24
 602 032a 01F0      		breq .L43
 603 032c 8091 0000 		lds r24,reportBuffer
 604 0330 8230      		cpi r24,lo8(2)
 605 0332 01F0      		breq .L43
 606               	.LM85:
 607 0334 82E0      		ldi r24,lo8(2)
 608 0336 8093 0000 		sts reportBuffer,r24
 609               	.LM86:
 610 033a 1092 0000 		sts reportBuffer+1,__zero_reg__
 611               	.LM87:
 612 033e 1092 0000 		sts reportBuffer+2,__zero_reg__
 613               	.LM88:
 614 0342 1092 0000 		sts _isMultimediaPressed,__zero_reg__
 615               	.L43:
 616 0346 20E0      		ldi r18,lo8(0)
 617 0348 30E0      		ldi r19,hi8(0)
 618               	.L44:
 619               	.LM89:
 620 034a F901      		movw r30,r18
 621 034c E050      		subi r30,lo8(-(prevMatrix))
 622 034e F040      		sbci r31,hi8(-(prevMatrix))
 623 0350 D301      		movw r26,r6
 624 0352 A20F      		add r26,r18
 625 0354 B31F      		adc r27,r19
 626 0356 8C91      		ld r24,X
 627 0358 8083      		st Z,r24
GAS LISTING C:\Users\ADMINI~1\AppData\Local\Temp/ccRLNvvW.s 			page 12


 628 035a 2F5F      		subi r18,lo8(-(1))
 629 035c 3F4F      		sbci r19,hi8(-(1))
 630               	.LM90:
 631 035e 2131      		cpi r18,17
 632 0360 3105      		cpc r19,__zero_reg__
 633 0362 01F4      		brne .L44
 634               	.LM91:
 635 0364 8981      		ldd r24,Y+1
 636 0366 8130      		cpi r24,lo8(1)
 637 0368 01F0      		breq .L28
 638               	.LM92:
 639 036a 892D      		mov r24,r9
 640 036c 8160      		ori r24,lo8(1)
 641               	.LVL48:
 642 036e 00C0      		rjmp .L45
 643               	.LVL49:
 644               	.L28:
 645               	.LM93:
 646 0370 80E0      		ldi r24,lo8(0)
 647               	.LVL50:
 648               	.L45:
 649               	.LVL51:
 650               	/* epilogue start */
 651               	.LM94:
 652 0372 0F90      		pop __tmp_reg__
 653 0374 0F90      		pop __tmp_reg__
 654 0376 0F90      		pop __tmp_reg__
 655 0378 CF91      		pop r28
 656 037a DF91      		pop r29
 657 037c 1F91      		pop r17
 658               	.LVL52:
 659 037e 0F91      		pop r16
 660               	.LVL53:
 661 0380 FF90      		pop r15
 662               	.LVL54:
 663 0382 EF90      		pop r14
 664               	.LVL55:
 665 0384 DF90      		pop r13
 666 0386 CF90      		pop r12
 667 0388 BF90      		pop r11
 668               	.LVL56:
 669 038a AF90      		pop r10
 670               	.LVL57:
 671 038c 9F90      		pop r9
 672 038e 8F90      		pop r8
 673 0390 7F90      		pop r7
 674 0392 6F90      		pop r6
 675               	.LVL58:
 676 0394 5F90      		pop r5
 677 0396 4F90      		pop r4
 678 0398 3F90      		pop r3
 679               	.LVL59:
 680 039a 0895      		ret
 681               	.LVL60:
 682               	.L34:
 683               	.LM95:
 684 039c 01E0      		ldi r16,lo8(1)
GAS LISTING C:\Users\ADMINI~1\AppData\Local\Temp/ccRLNvvW.s 			page 13


 685               	.LVL61:
 686 039e 00C0      		rjmp .L36
 687               	.LFE14:
 688               		.size	scanKeyUSB, .-scanKeyUSB
 689               	.global	usb_main
 690               		.type	usb_main, @function
 691               	usb_main:
 692               	.LFB17:
 693               	.LM96:
 694 03a0 EF92      		push r14
 695 03a2 FF92      		push r15
 696 03a4 0F93      		push r16
 697 03a6 1F93      		push r17
 698               	/* prologue: function */
 699               	/* frame size = 0 */
 700               	.LM97:
 701 03a8 0E94 0000 		call usbInit
 702               	.LM98:
 703               	/* #APP */
 704               	 ;  643 "usbmain.c" 1
 705 03ac 7894      		sei
 706               	 ;  0 "" 2
 707               	/* #NOAPP */
 708 03ae 00E0      		ldi r16,lo8(0)
 709               	.LVL62:
 710 03b0 10E0      		ldi r17,lo8(0)
 711               	.LVL63:
 712               	.LM99:
 713 03b2 EE24      		clr r14
 714 03b4 E394      		inc r14
 715               	.LVL64:
 716               	.L50:
 717               	.LM100:
 718 03b6 8091 0000 		lds r24,INTERFACE
 719 03ba 8130      		cpi r24,lo8(1)
 720 03bc 01F4      		brne .L51
 721 03be 8091 0000 		lds r24,interfaceReady
 722 03c2 8823      		tst r24
 723 03c4 01F4      		brne .L51
 724 03c6 8091 0000 		lds r24,interfaceCount
 725 03ca 9091 0000 		lds r25,(interfaceCount)+1
 726 03ce 0196      		adiw r24,1
 727 03d0 9093 0000 		sts (interfaceCount)+1,r25
 728 03d4 8093 0000 		sts interfaceCount,r24
 729 03d8 0197      		sbiw r24,1
 730 03da 815D      		subi r24,lo8(2001)
 731 03dc 9740      		sbci r25,hi8(2001)
 732 03de 04F0      		brlt .L51
 733               	.LM101:
 734 03e0 1092 0000 		sts INTERFACE,__zero_reg__
 735               	.LM102:
 736 03e4 8BB7      		in r24,91-32
 737 03e6 8F7B      		andi r24,lo8(-65)
 738 03e8 8BBF      		out 91-32,r24
 739               	/* epilogue start */
 740               	.LM103:
 741 03ea 1F91      		pop r17
GAS LISTING C:\Users\ADMINI~1\AppData\Local\Temp/ccRLNvvW.s 			page 14


 742               	.LVL65:
 743 03ec 0F91      		pop r16
 744               	.LVL66:
 745 03ee FF90      		pop r15
 746               	.LVL67:
 747 03f0 EF90      		pop r14
 748 03f2 0895      		ret
 749               	.LVL68:
 750               	.L51:
 751               	.LM104:
 752 03f4 0E94 0000 		call usbPoll
 753               	.LM105:
 754 03f8 0023      		tst r16
 755 03fa 01F4      		brne .L52
 756               	.LM106:
 757 03fc 0E94 0000 		call scanKeyUSB
 758 0400 082F      		mov r16,r24
 759               	.LM107:
 760 0402 08B6      		in __tmp_reg__,88-32
 761 0404 00FE      		sbrs __tmp_reg__,0
 762 0406 00C0      		rjmp .L53
 763               	.LM108:
 764 0408 E8BE      		out 88-32,r14
 765               	.LM109:
 766 040a F090 0000 		lds r15,idleRate
 767               	.LVL69:
 768 040e FF20      		tst r15
 769 0410 01F0      		breq .L53
 770               	.LM110:
 771 0412 1530      		cpi r17,lo8(5)
 772 0414 00F4      		brsh .L54
 773               	.LVL70:
 774 0416 01E0      		ldi r16,lo8(1)
 775 0418 00C0      		rjmp .L55
 776               	.L54:
 777               	.LM111:
 778 041a 5BEF      		ldi r21,lo8(-5)
 779 041c F52E      		mov r15,r21
 780               	.LVL71:
 781 041e F10E      		add r15,r17
 782 0420 00C0      		rjmp .L55
 783               	.LVL72:
 784               	.L52:
 785               	.LM112:
 786 0422 0E94 0000 		call scanKeyUSB
 787               	.LVL73:
 788               	.L53:
 789 0426 F12E      		mov r15,r17
 790               	.L55:
 791               	.LM113:
 792 0428 8091 0000 		lds r24,usbTxStatus1
 793 042c 84FF      		sbrs r24,4
 794 042e 00C0      		rjmp .L56
 795               	.LM114:
 796 0430 8091 0000 		lds r24,_isInit
 797 0434 8823      		tst r24
 798 0436 01F0      		breq .L57
GAS LISTING C:\Users\ADMINI~1\AppData\Local\Temp/ccRLNvvW.s 			page 15


 799               	.LM115:
 800 0438 1092 0000 		sts _isInit,__zero_reg__
 801               	.LM116:
 802 043c 0E94 0000 		call clearReportBuffer
 803               	.LM117:
 804 0440 80E0      		ldi r24,lo8(reportBuffer)
 805 0442 90E0      		ldi r25,hi8(reportBuffer)
 806 0444 68E0      		ldi r22,lo8(8)
 807 0446 0E94 0000 		call usbSetInterrupt
 808               	.LM118:
 809 044a 0E94 0000 		call startKeyMappingOnBoot
 810 044e 00C0      		rjmp .L56
 811               	.L57:
 812               	.LM119:
 813 0450 0E94 0000 		call hasMacroUsb
 814 0454 8823      		tst r24
 815 0456 01F0      		breq .L58
 816               	.LM120:
 817 0458 0E94 0000 		call scanMacroUsb
 818               	.LM121:
 819 045c 80E0      		ldi r24,lo8(reportBuffer)
 820 045e 90E0      		ldi r25,hi8(reportBuffer)
 821 0460 68E0      		ldi r22,lo8(8)
 822 0462 0E94 0000 		call usbSetInterrupt
 823 0466 00C0      		rjmp .L56
 824               	.L58:
 825               	.LM122:
 826 0468 0023      		tst r16
 827 046a 01F0      		breq .L56
 828               	.LM123:
 829 046c 8091 0000 		lds r24,reportBuffer
 830 0470 8230      		cpi r24,lo8(2)
 831 0472 01F4      		brne .L59
 832               	.LM124:
 833 0474 80E0      		ldi r24,lo8(reportBuffer)
 834 0476 90E0      		ldi r25,hi8(reportBuffer)
 835 0478 63E0      		ldi r22,lo8(3)
 836 047a 00C0      		rjmp .L65
 837               	.L59:
 838               	.LM125:
 839 047c 8130      		cpi r24,lo8(1)
 840 047e 01F4      		brne .L66
 841               	.L60:
 842               	.LM126:
 843 0480 80E0      		ldi r24,lo8(reportBuffer)
 844 0482 90E0      		ldi r25,hi8(reportBuffer)
 845 0484 68E0      		ldi r22,lo8(8)
 846               	.L65:
 847 0486 0E94 0000 		call usbSetInterrupt
 848               	.L66:
 849 048a 00E0      		ldi r16,lo8(0)
 850               	.L56:
 851               	.LM127:
 852 048c 0E94 0000 		call countSleep
 853               	.LM128:
 854 0490 8091 0000 		lds r24,isBeyondFN
 855 0494 0E94 0000 		call renderLED
GAS LISTING C:\Users\ADMINI~1\AppData\Local\Temp/ccRLNvvW.s 			page 16


 856               	.LM129:
 857 0498 0E94 0000 		call hasMacroUsb
 858 049c 8823      		tst r24
 859 049e 01F0      		breq .L61
 860               	.LM130:
 861 04a0 80E0      		ldi r24,lo8(0)
 862 04a2 00C0      		rjmp .L64
 863               	.L61:
 864               	.LM131:
 865 04a4 81E0      		ldi r24,lo8(1)
 866               	.L64:
 867 04a6 0E94 0000 		call setMacroProcessEnd
 868               	.LM132:
 869 04aa 1F2D      		mov r17,r15
 870 04ac 00C0      		rjmp .L50
 871               	.LFE17:
 872               		.size	usb_main, .-usb_main
 873               	.global	initInterfaceUsb
 874               		.type	initInterfaceUsb, @function
 875               	initInterfaceUsb:
 876               	.LFB10:
 877               	.LM133:
 878               	/* prologue: function */
 879               	/* frame size = 0 */
 880               	.LM134:
 881 04ae 81E0      		ldi r24,lo8(1)
 882 04b0 8093 0000 		sts _isInit,r24
 883               	.LM135:
 884 04b4 0E94 0000 		call initFullLEDState
 885               	.LM136:
 886 04b8 0E94 0000 		call wakeUp
 887               	/* epilogue start */
 888               	.LM137:
 889 04bc 0895      		ret
 890               	.LFE10:
 891               		.size	initInterfaceUsb, .-initInterfaceUsb
 892               	.global	usbFunctionSetup
 893               		.type	usbFunctionSetup, @function
 894               	usbFunctionSetup:
 895               	.LFB8:
 896               	.LM138:
 897               	.LVL74:
 898 04be CF93      		push r28
 899 04c0 DF93      		push r29
 900               	/* prologue: function */
 901               	/* frame size = 0 */
 902               	.LM139:
 903 04c2 21E0      		ldi r18,lo8(1)
 904 04c4 2093 0000 		sts interfaceReady,r18
 905               	.LM140:
 906 04c8 EC01      		movw r28,r24
 907               	.LVL75:
 908               	.LM141:
 909 04ca 8091 0000 		lds r24,reportBuffer
 910 04ce 8093 0000 		sts usbMsgPtr,r24
 911 04d2 1092 0000 		sts usbMsgPtr+1,__zero_reg__
 912               	.LM142:
GAS LISTING C:\Users\ADMINI~1\AppData\Local\Temp/ccRLNvvW.s 			page 17


 913 04d6 8881      		ld r24,Y
 914               	.LVL76:
 915 04d8 8076      		andi r24,lo8(96)
 916 04da 8032      		cpi r24,lo8(32)
 917 04dc 01F4      		brne .L70
 918               	.LM143:
 919 04de 8981      		ldd r24,Y+1
 920 04e0 8130      		cpi r24,lo8(1)
 921 04e2 01F4      		brne .L71
 922 04e4 88E0      		ldi r24,lo8(8)
 923 04e6 00C0      		rjmp .L72
 924               	.L71:
 925               	.LM144:
 926 04e8 8930      		cpi r24,lo8(9)
 927 04ea 01F4      		brne .L73
 928               	.LM145:
 929 04ec 8E81      		ldd r24,Y+6
 930 04ee 9F81      		ldd r25,Y+7
 931 04f0 0297      		sbiw r24,2
 932 04f2 01F4      		brne .L70
 933               	.LM146:
 934 04f4 2093 0000 		sts expectReport,r18
 935 04f8 8FEF      		ldi r24,lo8(-1)
 936 04fa 00C0      		rjmp .L72
 937               	.L73:
 938               	.LM147:
 939 04fc 8230      		cpi r24,lo8(2)
 940 04fe 01F4      		brne .L74
 941               	.LM148:
 942 0500 8091 0000 		lds r24,idleRate
 943 0504 00C0      		rjmp .L78
 944               	.L74:
 945               	.LM149:
 946 0506 8A30      		cpi r24,lo8(10)
 947 0508 01F4      		brne .L75
 948               	.LM150:
 949 050a 0E94 0000 		call initInterfaceUsb
 950               	.LM151:
 951 050e 8B81      		ldd r24,Y+3
 952 0510 8093 0000 		sts idleRate,r24
 953 0514 00C0      		rjmp .L70
 954               	.L75:
 955               	.LM152:
 956 0516 8330      		cpi r24,lo8(3)
 957 0518 01F4      		brne .L76
 958               	.LM153:
 959 051a 8B81      		ldd r24,Y+3
 960 051c 8823      		tst r24
 961 051e 01F4      		brne .L70
 962               	.LM154:
 963 0520 1092 0000 		sts protocolVer,__zero_reg__
 964 0524 00C0      		rjmp .L72
 965               	.L76:
 966               	.LM155:
 967 0526 8B30      		cpi r24,lo8(11)
 968 0528 01F4      		brne .L70
 969               	.LM156:
GAS LISTING C:\Users\ADMINI~1\AppData\Local\Temp/ccRLNvvW.s 			page 18


 970 052a 8091 0000 		lds r24,protocolVer
 971               	.L78:
 972 052e 8093 0000 		sts usbMsgPtr,r24
 973 0532 1092 0000 		sts usbMsgPtr+1,__zero_reg__
 974 0536 81E0      		ldi r24,lo8(1)
 975 0538 00C0      		rjmp .L72
 976               	.L70:
 977               	.LM157:
 978 053a 80E0      		ldi r24,lo8(0)
 979               	.L72:
 980               	/* epilogue start */
 981               	.LM158:
 982 053c DF91      		pop r29
 983 053e CF91      		pop r28
 984               	.LVL77:
 985 0540 0895      		ret
 986               	.LFE8:
 987               		.size	usbFunctionSetup, .-usbFunctionSetup
 988               	.global	usbFunctionWrite
 989               		.type	usbFunctionWrite, @function
 990               	usbFunctionWrite:
 991               	.LFB9:
 992               	.LM159:
 993               	.LVL78:
 994               	/* prologue: function */
 995               	/* frame size = 0 */
 996 0542 FC01      		movw r30,r24
 997               	.LM160:
 998 0544 8091 0000 		lds r24,expectReport
 999               	.LVL79:
 1000 0548 8823      		tst r24
 1001 054a 01F0      		breq .L80
 1002 054c 6230      		cpi r22,lo8(2)
 1003 054e 01F4      		brne .L80
 1004 0550 8081      		ld r24,Z
 1005 0552 8130      		cpi r24,lo8(1)
 1006 0554 01F4      		brne .L80
 1007               	.LM161:
 1008 0556 8181      		ldd r24,Z+1
 1009 0558 0E94 0000 		call setLEDState
 1010               	.LVL80:
 1011               	.LM162:
 1012 055c 0E94 0000 		call setLEDIndicate
 1013               	.LVL81:
 1014               	.L80:
 1015               	.LM163:
 1016 0560 1092 0000 		sts expectReport,__zero_reg__
 1017               	.LM164:
 1018 0564 81E0      		ldi r24,lo8(1)
 1019               	/* epilogue start */
 1020 0566 0895      		ret
 1021               	.LFE9:
 1022               		.size	usbFunctionWrite, .-usbFunctionWrite
 1023               	.global	usbDescriptorHidReport
 1024               		.section	.progmem.data,"a",@progbits
 1025               		.type	usbDescriptorHidReport, @object
 1026               		.size	usbDescriptorHidReport, 85
GAS LISTING C:\Users\ADMINI~1\AppData\Local\Temp/ccRLNvvW.s 			page 19


 1027               	usbDescriptorHidReport:
 1028 0000 05        		.byte	5
 1029 0001 01        		.byte	1
 1030 0002 09        		.byte	9
 1031 0003 06        		.byte	6
 1032 0004 A1        		.byte	-95
 1033 0005 01        		.byte	1
 1034 0006 85        		.byte	-123
 1035 0007 01        		.byte	1
 1036 0008 05        		.byte	5
 1037 0009 07        		.byte	7
 1038 000a 19        		.byte	25
 1039 000b E0        		.byte	-32
 1040 000c 29        		.byte	41
 1041 000d E7        		.byte	-25
 1042 000e 15        		.byte	21
 1043 000f 00        		.byte	0
 1044 0010 25        		.byte	37
 1045 0011 01        		.byte	1
 1046 0012 75        		.byte	117
 1047 0013 01        		.byte	1
 1048 0014 95        		.byte	-107
 1049 0015 08        		.byte	8
 1050 0016 81        		.byte	-127
 1051 0017 02        		.byte	2
 1052 0018 95        		.byte	-107
 1053 0019 05        		.byte	5
 1054 001a 75        		.byte	117
 1055 001b 01        		.byte	1
 1056 001c 05        		.byte	5
 1057 001d 08        		.byte	8
 1058 001e 19        		.byte	25
 1059 001f 01        		.byte	1
 1060 0020 29        		.byte	41
 1061 0021 05        		.byte	5
 1062 0022 91        		.byte	-111
 1063 0023 02        		.byte	2
 1064 0024 95        		.byte	-107
 1065 0025 01        		.byte	1
 1066 0026 75        		.byte	117
 1067 0027 03        		.byte	3
 1068 0028 91        		.byte	-111
 1069 0029 03        		.byte	3
 1070 002a 95        		.byte	-107
 1071 002b 06        		.byte	6
 1072 002c 75        		.byte	117
 1073 002d 08        		.byte	8
 1074 002e 15        		.byte	21
 1075 002f 00        		.byte	0
 1076 0030 26        		.byte	38
 1077 0031 91        		.byte	-111
 1078 0032 00        		.byte	0
 1079 0033 05        		.byte	5
 1080 0034 07        		.byte	7
 1081 0035 19        		.byte	25
 1082 0036 00        		.byte	0
 1083 0037 29        		.byte	41
GAS LISTING C:\Users\ADMINI~1\AppData\Local\Temp/ccRLNvvW.s 			page 20


 1084 0038 A4        		.byte	-92
 1085 0039 81        		.byte	-127
 1086 003a 00        		.byte	0
 1087 003b C0        		.byte	-64
 1088 003c 05        		.byte	5
 1089 003d 0C        		.byte	12
 1090 003e 09        		.byte	9
 1091 003f 01        		.byte	1
 1092 0040 A1        		.byte	-95
 1093 0041 01        		.byte	1
 1094 0042 85        		.byte	-123
 1095 0043 02        		.byte	2
 1096 0044 19        		.byte	25
 1097 0045 00        		.byte	0
 1098 0046 2A        		.byte	42
 1099 0047 3C        		.byte	60
 1100 0048 02        		.byte	2
 1101 0049 15        		.byte	21
 1102 004a 00        		.byte	0
 1103 004b 26        		.byte	38
 1104 004c 3C        		.byte	60
 1105 004d 02        		.byte	2
 1106 004e 95        		.byte	-107
 1107 004f 01        		.byte	1
 1108 0050 75        		.byte	117
 1109 0051 10        		.byte	16
 1110 0052 81        		.byte	-127
 1111 0053 00        		.byte	0
 1112 0054 C0        		.byte	-64
 1113               	.global	_isMultimediaPressed
 1114               	.global	_isMultimediaPressed
 1115               		.section .bss
 1116               		.type	_isMultimediaPressed, @object
 1117               		.size	_isMultimediaPressed, 1
 1118               	_isMultimediaPressed:
 1119 0000 00        		.skip 1,0
 1120               		.lcomm _isInit,1
 1121               		.lcomm _needRelease,1
 1122               		.lcomm prevModifier.2353,1
 1123               		.lcomm expectReport,1
 1124               		.data
 1125               		.type	protocolVer, @object
 1126               		.size	protocolVer, 1
 1127               	protocolVer:
 1128 0000 01        		.byte	1
 1129               		.lcomm reportBuffer,8
 1130               		.lcomm idleRate,1
 1131               		.lcomm _prevPressedBuffer,48
 1132               		.comm reportIndex,1,1
 1133               		.section	.debug_frame,"",@progbits
 1134               	.Lframe0:
 1135 0000 0C00 0000 		.long	.LECIE0-.LSCIE0
 1136               	.LSCIE0:
 1137 0004 FFFF FFFF 		.long	0xffffffff
 1138 0008 01        		.byte	0x1
 1139 0009 00        		.string	""
 1140 000a 01        		.uleb128 0x1
GAS LISTING C:\Users\ADMINI~1\AppData\Local\Temp/ccRLNvvW.s 			page 21


 1141 000b 7F        		.sleb128 -1
 1142 000c 24        		.byte	0x24
 1143 000d 0C        		.byte	0xc
 1144 000e 20        		.uleb128 0x20
 1145 000f 00        		.uleb128 0x0
 1146               		.p2align	2
 1147               	.LECIE0:
 1148               	.LSFDE0:
 1149 0010 0C00 0000 		.long	.LEFDE0-.LASFDE0
 1150               	.LASFDE0:
 1151 0014 0000 0000 		.long	.Lframe0
 1152 0018 0000 0000 		.long	.LFB16
 1153 001c 1C00 0000 		.long	.LFE16-.LFB16
 1154               		.p2align	2
 1155               	.LEFDE0:
 1156               	.LSFDE2:
 1157 0020 0C00 0000 		.long	.LEFDE2-.LASFDE2
 1158               	.LASFDE2:
 1159 0024 0000 0000 		.long	.Lframe0
 1160 0028 0000 0000 		.long	.LFB13
 1161 002c 1600 0000 		.long	.LFE13-.LFB13
 1162               		.p2align	2
 1163               	.LEFDE2:
 1164               	.LSFDE4:
 1165 0030 0C00 0000 		.long	.LEFDE4-.LASFDE4
 1166               	.LASFDE4:
 1167 0034 0000 0000 		.long	.Lframe0
 1168 0038 0000 0000 		.long	.LFB11
 1169 003c 1000 0000 		.long	.LFE11-.LFB11
 1170               		.p2align	2
 1171               	.LEFDE4:
 1172               	.LSFDE6:
 1173 0040 0C00 0000 		.long	.LEFDE6-.LASFDE6
 1174               	.LASFDE6:
 1175 0044 0000 0000 		.long	.Lframe0
 1176 0048 0000 0000 		.long	.LFB12
 1177 004c 9400 0000 		.long	.LFE12-.LFB12
 1178               		.p2align	2
 1179               	.LEFDE6:
 1180               	.LSFDE8:
 1181 0050 0C00 0000 		.long	.LEFDE8-.LASFDE8
 1182               	.LASFDE8:
 1183 0054 0000 0000 		.long	.Lframe0
 1184 0058 0000 0000 		.long	.LFB15
 1185 005c D000 0000 		.long	.LFE15-.LFB15
 1186               		.p2align	2
 1187               	.LEFDE8:
 1188               	.LSFDE10:
 1189 0060 0C00 0000 		.long	.LEFDE10-.LASFDE10
 1190               	.LASFDE10:
 1191 0064 0000 0000 		.long	.Lframe0
 1192 0068 0000 0000 		.long	.LFB14
 1193 006c FA01 0000 		.long	.LFE14-.LFB14
 1194               		.p2align	2
 1195               	.LEFDE10:
 1196               	.LSFDE12:
 1197 0070 0C00 0000 		.long	.LEFDE12-.LASFDE12
GAS LISTING C:\Users\ADMINI~1\AppData\Local\Temp/ccRLNvvW.s 			page 22


 1198               	.LASFDE12:
 1199 0074 0000 0000 		.long	.Lframe0
 1200 0078 0000 0000 		.long	.LFB17
 1201 007c 0E01 0000 		.long	.LFE17-.LFB17
 1202               		.p2align	2
 1203               	.LEFDE12:
 1204               	.LSFDE14:
 1205 0080 0C00 0000 		.long	.LEFDE14-.LASFDE14
 1206               	.LASFDE14:
 1207 0084 0000 0000 		.long	.Lframe0
 1208 0088 0000 0000 		.long	.LFB10
 1209 008c 1000 0000 		.long	.LFE10-.LFB10
 1210               		.p2align	2
 1211               	.LEFDE14:
 1212               	.LSFDE16:
 1213 0090 0C00 0000 		.long	.LEFDE16-.LASFDE16
 1214               	.LASFDE16:
 1215 0094 0000 0000 		.long	.Lframe0
 1216 0098 0000 0000 		.long	.LFB8
 1217 009c 8400 0000 		.long	.LFE8-.LFB8
 1218               		.p2align	2
 1219               	.LEFDE16:
 1220               	.LSFDE18:
 1221 00a0 0C00 0000 		.long	.LEFDE18-.LASFDE18
 1222               	.LASFDE18:
 1223 00a4 0000 0000 		.long	.Lframe0
 1224 00a8 0000 0000 		.long	.LFB9
 1225 00ac 2600 0000 		.long	.LFE9-.LFB9
 1226               		.p2align	2
 1227               	.LEFDE18:
 1228               		.text
 1229               	.Letext0:
 1230               		.section	.debug_loc,"",@progbits
 1231               	.Ldebug_loc0:
 1232               	.LLST4:
 1233 0000 4200 0000 		.long	.LVL0-.Ltext0
 1234 0004 4600 0000 		.long	.LVL1-.Ltext0
 1235 0008 0100      		.word	0x1
 1236 000a 68        		.byte	0x68
 1237 000b 4800 0000 		.long	.LVL2-.Ltext0
 1238 000f 4E00 0000 		.long	.LVL3-.Ltext0
 1239 0013 0100      		.word	0x1
 1240 0015 69        		.byte	0x69
 1241 0016 4E00 0000 		.long	.LVL3-.Ltext0
 1242 001a 5000 0000 		.long	.LVL4-.Ltext0
 1243 001e 0100      		.word	0x1
 1244 0020 68        		.byte	0x68
 1245 0021 5000 0000 		.long	.LVL4-.Ltext0
 1246 0025 8600 0000 		.long	.LVL11-.Ltext0
 1247 0029 0100      		.word	0x1
 1248 002b 69        		.byte	0x69
 1249 002c 8600 0000 		.long	.LVL11-.Ltext0
 1250 0030 9C00 0000 		.long	.LVL14-.Ltext0
 1251 0034 0600      		.word	0x6
 1252 0036 6E        		.byte	0x6e
 1253 0037 93        		.byte	0x93
 1254 0038 01        		.uleb128 0x1
GAS LISTING C:\Users\ADMINI~1\AppData\Local\Temp/ccRLNvvW.s 			page 23


 1255 0039 6F        		.byte	0x6f
 1256 003a 93        		.byte	0x93
 1257 003b 01        		.uleb128 0x1
 1258 003c 9C00 0000 		.long	.LVL14-.Ltext0
 1259 0040 D200 0000 		.long	.LVL21-.Ltext0
 1260 0044 0100      		.word	0x1
 1261 0046 69        		.byte	0x69
 1262 0047 D200 0000 		.long	.LVL21-.Ltext0
 1263 004b D600 0000 		.long	.LFE12-.Ltext0
 1264 004f 0600      		.word	0x6
 1265 0051 69        		.byte	0x69
 1266 0052 93        		.byte	0x93
 1267 0053 01        		.uleb128 0x1
 1268 0054 6F        		.byte	0x6f
 1269 0055 93        		.byte	0x93
 1270 0056 01        		.uleb128 0x1
 1271 0057 0000 0000 		.long	0x0
 1272 005b 0000 0000 		.long	0x0
 1273               	.LLST5:
 1274 005f 4200 0000 		.long	.LVL0-.Ltext0
 1275 0063 4600 0000 		.long	.LVL1-.Ltext0
 1276 0067 0100      		.word	0x1
 1277 0069 66        		.byte	0x66
 1278 006a 0000 0000 		.long	0x0
 1279 006e 0000 0000 		.long	0x0
 1280               	.LLST6:
 1281 0072 5E00 0000 		.long	.LVL6-.Ltext0
 1282 0076 7A00 0000 		.long	.LVL10-.Ltext0
 1283 007a 0600      		.word	0x6
 1284 007c 6E        		.byte	0x6e
 1285 007d 93        		.byte	0x93
 1286 007e 01        		.uleb128 0x1
 1287 007f 6F        		.byte	0x6f
 1288 0080 93        		.byte	0x93
 1289 0081 01        		.uleb128 0x1
 1290 0082 D200 0000 		.long	.LVL21-.Ltext0
 1291 0086 D600 0000 		.long	.LFE12-.Ltext0
 1292 008a 0600      		.word	0x6
 1293 008c 6E        		.byte	0x6e
 1294 008d 93        		.byte	0x93
 1295 008e 01        		.uleb128 0x1
 1296 008f 6F        		.byte	0x6f
 1297 0090 93        		.byte	0x93
 1298 0091 01        		.uleb128 0x1
 1299 0092 0000 0000 		.long	0x0
 1300 0096 0000 0000 		.long	0x0
 1301               	.LLST7:
 1302 009a 6A00 0000 		.long	.LVL8-.Ltext0
 1303 009e 7A00 0000 		.long	.LVL10-.Ltext0
 1304 00a2 0600      		.word	0x6
 1305 00a4 62        		.byte	0x62
 1306 00a5 93        		.byte	0x93
 1307 00a6 01        		.uleb128 0x1
 1308 00a7 63        		.byte	0x63
 1309 00a8 93        		.byte	0x93
 1310 00a9 01        		.uleb128 0x1
 1311 00aa D200 0000 		.long	.LVL21-.Ltext0
GAS LISTING C:\Users\ADMINI~1\AppData\Local\Temp/ccRLNvvW.s 			page 24


 1312 00ae D600 0000 		.long	.LFE12-.Ltext0
 1313 00b2 0600      		.word	0x6
 1314 00b4 62        		.byte	0x62
 1315 00b5 93        		.byte	0x93
 1316 00b6 01        		.uleb128 0x1
 1317 00b7 63        		.byte	0x63
 1318 00b8 93        		.byte	0x93
 1319 00b9 01        		.uleb128 0x1
 1320 00ba 0000 0000 		.long	0x0
 1321 00be 0000 0000 		.long	0x0
 1322               	.LLST8:
 1323 00c2 B400 0000 		.long	.LVL16-.Ltext0
 1324 00c6 C400 0000 		.long	.LVL19-.Ltext0
 1325 00ca 0600      		.word	0x6
 1326 00cc 6E        		.byte	0x6e
 1327 00cd 93        		.byte	0x93
 1328 00ce 01        		.uleb128 0x1
 1329 00cf 6F        		.byte	0x6f
 1330 00d0 93        		.byte	0x93
 1331 00d1 01        		.uleb128 0x1
 1332 00d2 0000 0000 		.long	0x0
 1333 00d6 0000 0000 		.long	0x0
 1334               	.LLST9:
 1335 00da C000 0000 		.long	.LVL18-.Ltext0
 1336 00de D400 0000 		.long	.LVL22-.Ltext0
 1337 00e2 0600      		.word	0x6
 1338 00e4 68        		.byte	0x68
 1339 00e5 93        		.byte	0x93
 1340 00e6 01        		.uleb128 0x1
 1341 00e7 69        		.byte	0x69
 1342 00e8 93        		.byte	0x93
 1343 00e9 01        		.uleb128 0x1
 1344 00ea 0000 0000 		.long	0x0
 1345 00ee 0000 0000 		.long	0x0
 1346               	.LLST11:
 1347 00f2 1601 0000 		.long	.LVL23-.Ltext0
 1348 00f6 1801 0000 		.long	.LVL24-.Ltext0
 1349 00fa 0100      		.word	0x1
 1350 00fc 5E        		.byte	0x5e
 1351 00fd 1801 0000 		.long	.LVL24-.Ltext0
 1352 0101 8001 0000 		.long	.LVL26-.Ltext0
 1353 0105 0600      		.word	0x6
 1354 0107 5E        		.byte	0x5e
 1355 0108 93        		.byte	0x93
 1356 0109 01        		.uleb128 0x1
 1357 010a 5F        		.byte	0x5f
 1358 010b 93        		.byte	0x93
 1359 010c 01        		.uleb128 0x1
 1360 010d 9001 0000 		.long	.LVL27-.Ltext0
 1361 0111 9A01 0000 		.long	.LVL29-.Ltext0
 1362 0115 0600      		.word	0x6
 1363 0117 5E        		.byte	0x5e
 1364 0118 93        		.byte	0x93
 1365 0119 01        		.uleb128 0x1
 1366 011a 5F        		.byte	0x5f
 1367 011b 93        		.byte	0x93
 1368 011c 01        		.uleb128 0x1
GAS LISTING C:\Users\ADMINI~1\AppData\Local\Temp/ccRLNvvW.s 			page 25


 1369 011d 9A01 0000 		.long	.LVL29-.Ltext0
 1370 0121 9C01 0000 		.long	.LVL30-.Ltext0
 1371 0125 0100      		.word	0x1
 1372 0127 5E        		.byte	0x5e
 1373 0128 0000 0000 		.long	0x0
 1374 012c 0000 0000 		.long	0x0
 1375               	.LLST12:
 1376 0130 2801 0000 		.long	.LVL25-.Ltext0
 1377 0134 8001 0000 		.long	.LVL26-.Ltext0
 1378 0138 0100      		.word	0x1
 1379 013a 61        		.byte	0x61
 1380 013b 9001 0000 		.long	.LVL27-.Ltext0
 1381 013f 9801 0000 		.long	.LVL28-.Ltext0
 1382 0143 0100      		.word	0x1
 1383 0145 61        		.byte	0x61
 1384 0146 0000 0000 		.long	0x0
 1385 014a 0000 0000 		.long	0x0
 1386               	.LLST14:
 1387 014e F201 0000 		.long	.LVL33-.Ltext0
 1388 0152 6E03 0000 		.long	.LVL48-.Ltext0
 1389 0156 0100      		.word	0x1
 1390 0158 59        		.byte	0x59
 1391 0159 6E03 0000 		.long	.LVL48-.Ltext0
 1392 015d 7003 0000 		.long	.LVL49-.Ltext0
 1393 0161 0100      		.word	0x1
 1394 0163 68        		.byte	0x68
 1395 0164 7003 0000 		.long	.LVL49-.Ltext0
 1396 0168 7203 0000 		.long	.LVL50-.Ltext0
 1397 016c 0100      		.word	0x1
 1398 016e 59        		.byte	0x59
 1399 016f 7203 0000 		.long	.LVL50-.Ltext0
 1400 0173 7203 0000 		.long	.LVL51-.Ltext0
 1401 0177 0100      		.word	0x1
 1402 0179 68        		.byte	0x68
 1403 017a 9C03 0000 		.long	.LVL60-.Ltext0
 1404 017e A003 0000 		.long	.LFE14-.Ltext0
 1405 0182 0100      		.word	0x1
 1406 0184 59        		.byte	0x59
 1407 0185 0000 0000 		.long	0x0
 1408 0189 0000 0000 		.long	0x0
 1409               	.LLST15:
 1410 018d 0002 0000 		.long	.LVL35-.Ltext0
 1411 0191 8A03 0000 		.long	.LVL56-.Ltext0
 1412 0195 0100      		.word	0x1
 1413 0197 5B        		.byte	0x5b
 1414 0198 9C03 0000 		.long	.LVL60-.Ltext0
 1415 019c A003 0000 		.long	.LFE14-.Ltext0
 1416 01a0 0100      		.word	0x1
 1417 01a2 5B        		.byte	0x5b
 1418 01a3 0000 0000 		.long	0x0
 1419 01a7 0000 0000 		.long	0x0
 1420               	.LLST16:
 1421 01ab 0002 0000 		.long	.LVL35-.Ltext0
 1422 01af 8C03 0000 		.long	.LVL57-.Ltext0
 1423 01b3 0100      		.word	0x1
 1424 01b5 5A        		.byte	0x5a
 1425 01b6 9C03 0000 		.long	.LVL60-.Ltext0
GAS LISTING C:\Users\ADMINI~1\AppData\Local\Temp/ccRLNvvW.s 			page 26


 1426 01ba A003 0000 		.long	.LFE14-.Ltext0
 1427 01be 0100      		.word	0x1
 1428 01c0 5A        		.byte	0x5a
 1429 01c1 0000 0000 		.long	0x0
 1430 01c5 0000 0000 		.long	0x0
 1431               	.LLST17:
 1432 01c9 0002 0000 		.long	.LVL35-.Ltext0
 1433 01cd 8403 0000 		.long	.LVL55-.Ltext0
 1434 01d1 0100      		.word	0x1
 1435 01d3 5E        		.byte	0x5e
 1436 01d4 9C03 0000 		.long	.LVL60-.Ltext0
 1437 01d8 A003 0000 		.long	.LFE14-.Ltext0
 1438 01dc 0100      		.word	0x1
 1439 01de 5E        		.byte	0x5e
 1440 01df 0000 0000 		.long	0x0
 1441 01e3 0000 0000 		.long	0x0
 1442               	.LLST18:
 1443 01e7 0002 0000 		.long	.LVL35-.Ltext0
 1444 01eb 8203 0000 		.long	.LVL54-.Ltext0
 1445 01ef 0100      		.word	0x1
 1446 01f1 5F        		.byte	0x5f
 1447 01f2 9C03 0000 		.long	.LVL60-.Ltext0
 1448 01f6 A003 0000 		.long	.LFE14-.Ltext0
 1449 01fa 0100      		.word	0x1
 1450 01fc 5F        		.byte	0x5f
 1451 01fd 0000 0000 		.long	0x0
 1452 0201 0000 0000 		.long	0x0
 1453               	.LLST19:
 1454 0205 0002 0000 		.long	.LVL35-.Ltext0
 1455 0209 2C02 0000 		.long	.LVL37-.Ltext0
 1456 020d 0100      		.word	0x1
 1457 020f 61        		.byte	0x61
 1458 0210 2C02 0000 		.long	.LVL37-.Ltext0
 1459 0214 3002 0000 		.long	.LVL38-.Ltext0
 1460 0218 0100      		.word	0x1
 1461 021a 68        		.byte	0x68
 1462 021b 3002 0000 		.long	.LVL38-.Ltext0
 1463 021f 7E03 0000 		.long	.LVL52-.Ltext0
 1464 0223 0100      		.word	0x1
 1465 0225 61        		.byte	0x61
 1466 0226 9C03 0000 		.long	.LVL60-.Ltext0
 1467 022a A003 0000 		.long	.LFE14-.Ltext0
 1468 022e 0100      		.word	0x1
 1469 0230 61        		.byte	0x61
 1470 0231 0000 0000 		.long	0x0
 1471 0235 0000 0000 		.long	0x0
 1472               	.LLST20:
 1473 0239 0002 0000 		.long	.LVL35-.Ltext0
 1474 023d 0C02 0000 		.long	.LVL36-.Ltext0
 1475 0241 0100      		.word	0x1
 1476 0243 60        		.byte	0x60
 1477 0244 6C02 0000 		.long	.LVL40-.Ltext0
 1478 0248 7C02 0000 		.long	.LVL41-.Ltext0
 1479 024c 0100      		.word	0x1
 1480 024e 60        		.byte	0x60
 1481 024f 8602 0000 		.long	.LVL42-.Ltext0
 1482 0253 8003 0000 		.long	.LVL53-.Ltext0
GAS LISTING C:\Users\ADMINI~1\AppData\Local\Temp/ccRLNvvW.s 			page 27


 1483 0257 0100      		.word	0x1
 1484 0259 60        		.byte	0x60
 1485 025a 9E03 0000 		.long	.LVL61-.Ltext0
 1486 025e A003 0000 		.long	.LFE14-.Ltext0
 1487 0262 0100      		.word	0x1
 1488 0264 60        		.byte	0x60
 1489 0265 0000 0000 		.long	0x0
 1490 0269 0000 0000 		.long	0x0
 1491               	.LLST21:
 1492 026d E001 0000 		.long	.LVL31-.Ltext0
 1493 0271 9A03 0000 		.long	.LVL59-.Ltext0
 1494 0275 0100      		.word	0x1
 1495 0277 53        		.byte	0x53
 1496 0278 9C03 0000 		.long	.LVL60-.Ltext0
 1497 027c A003 0000 		.long	.LFE14-.Ltext0
 1498 0280 0100      		.word	0x1
 1499 0282 53        		.byte	0x53
 1500 0283 0000 0000 		.long	0x0
 1501 0287 0000 0000 		.long	0x0
 1502               	.LLST22:
 1503 028b F001 0000 		.long	.LVL32-.Ltext0
 1504 028f 9403 0000 		.long	.LVL58-.Ltext0
 1505 0293 0600      		.word	0x6
 1506 0295 56        		.byte	0x56
 1507 0296 93        		.byte	0x93
 1508 0297 01        		.uleb128 0x1
 1509 0298 57        		.byte	0x57
 1510 0299 93        		.byte	0x93
 1511 029a 01        		.uleb128 0x1
 1512 029b 9C03 0000 		.long	.LVL60-.Ltext0
 1513 029f A003 0000 		.long	.LFE14-.Ltext0
 1514 02a3 0600      		.word	0x6
 1515 02a5 56        		.byte	0x56
 1516 02a6 93        		.byte	0x93
 1517 02a7 01        		.uleb128 0x1
 1518 02a8 57        		.byte	0x57
 1519 02a9 93        		.byte	0x93
 1520 02aa 01        		.uleb128 0x1
 1521 02ab 0000 0000 		.long	0x0
 1522 02af 0000 0000 		.long	0x0
 1523               	.LLST24:
 1524 02b3 B003 0000 		.long	.LVL62-.Ltext0
 1525 02b7 EE03 0000 		.long	.LVL66-.Ltext0
 1526 02bb 0100      		.word	0x1
 1527 02bd 60        		.byte	0x60
 1528 02be F403 0000 		.long	.LVL68-.Ltext0
 1529 02c2 AE04 0000 		.long	.LFE17-.Ltext0
 1530 02c6 0100      		.word	0x1
 1531 02c8 60        		.byte	0x60
 1532 02c9 0000 0000 		.long	0x0
 1533 02cd 0000 0000 		.long	0x0
 1534               	.LLST25:
 1535 02d1 B203 0000 		.long	.LVL63-.Ltext0
 1536 02d5 EC03 0000 		.long	.LVL65-.Ltext0
 1537 02d9 0100      		.word	0x1
 1538 02db 61        		.byte	0x61
 1539 02dc EC03 0000 		.long	.LVL65-.Ltext0
GAS LISTING C:\Users\ADMINI~1\AppData\Local\Temp/ccRLNvvW.s 			page 28


 1540 02e0 F003 0000 		.long	.LVL67-.Ltext0
 1541 02e4 0100      		.word	0x1
 1542 02e6 5F        		.byte	0x5f
 1543 02e7 F403 0000 		.long	.LVL68-.Ltext0
 1544 02eb 0E04 0000 		.long	.LVL69-.Ltext0
 1545 02ef 0100      		.word	0x1
 1546 02f1 61        		.byte	0x61
 1547 02f2 0E04 0000 		.long	.LVL69-.Ltext0
 1548 02f6 1604 0000 		.long	.LVL70-.Ltext0
 1549 02fa 0100      		.word	0x1
 1550 02fc 5F        		.byte	0x5f
 1551 02fd 1604 0000 		.long	.LVL70-.Ltext0
 1552 0301 1E04 0000 		.long	.LVL71-.Ltext0
 1553 0305 0100      		.word	0x1
 1554 0307 61        		.byte	0x61
 1555 0308 1E04 0000 		.long	.LVL71-.Ltext0
 1556 030c 2204 0000 		.long	.LVL72-.Ltext0
 1557 0310 0100      		.word	0x1
 1558 0312 5F        		.byte	0x5f
 1559 0313 2204 0000 		.long	.LVL72-.Ltext0
 1560 0317 2604 0000 		.long	.LVL73-.Ltext0
 1561 031b 0100      		.word	0x1
 1562 031d 61        		.byte	0x61
 1563 031e 2604 0000 		.long	.LVL73-.Ltext0
 1564 0322 AE04 0000 		.long	.LFE17-.Ltext0
 1565 0326 0100      		.word	0x1
 1566 0328 5F        		.byte	0x5f
 1567 0329 0000 0000 		.long	0x0
 1568 032d 0000 0000 		.long	0x0
 1569               	.LLST28:
 1570 0331 BE04 0000 		.long	.LVL74-.Ltext0
 1571 0335 CA04 0000 		.long	.LVL75-.Ltext0
 1572 0339 0600      		.word	0x6
 1573 033b 68        		.byte	0x68
 1574 033c 93        		.byte	0x93
 1575 033d 01        		.uleb128 0x1
 1576 033e 69        		.byte	0x69
 1577 033f 93        		.byte	0x93
 1578 0340 01        		.uleb128 0x1
 1579 0341 0000 0000 		.long	0x0
 1580 0345 0000 0000 		.long	0x0
 1581               	.LLST29:
 1582 0349 D804 0000 		.long	.LVL76-.Ltext0
 1583 034d 4005 0000 		.long	.LVL77-.Ltext0
 1584 0351 0600      		.word	0x6
 1585 0353 6C        		.byte	0x6c
 1586 0354 93        		.byte	0x93
 1587 0355 01        		.uleb128 0x1
 1588 0356 6D        		.byte	0x6d
 1589 0357 93        		.byte	0x93
 1590 0358 01        		.uleb128 0x1
 1591 0359 0000 0000 		.long	0x0
 1592 035d 0000 0000 		.long	0x0
 1593               	.LLST31:
 1594 0361 4205 0000 		.long	.LVL78-.Ltext0
 1595 0365 4805 0000 		.long	.LVL79-.Ltext0
 1596 0369 0600      		.word	0x6
GAS LISTING C:\Users\ADMINI~1\AppData\Local\Temp/ccRLNvvW.s 			page 29


 1597 036b 68        		.byte	0x68
 1598 036c 93        		.byte	0x93
 1599 036d 01        		.uleb128 0x1
 1600 036e 69        		.byte	0x69
 1601 036f 93        		.byte	0x93
 1602 0370 01        		.uleb128 0x1
 1603 0371 4805 0000 		.long	.LVL79-.Ltext0
 1604 0375 5C05 0000 		.long	.LVL80-.Ltext0
 1605 0379 0600      		.word	0x6
 1606 037b 6E        		.byte	0x6e
 1607 037c 93        		.byte	0x93
 1608 037d 01        		.uleb128 0x1
 1609 037e 6F        		.byte	0x6f
 1610 037f 93        		.byte	0x93
 1611 0380 01        		.uleb128 0x1
 1612 0381 6005 0000 		.long	.LVL81-.Ltext0
 1613 0385 6805 0000 		.long	.LFE9-.Ltext0
 1614 0389 0600      		.word	0x6
 1615 038b 6E        		.byte	0x6e
 1616 038c 93        		.byte	0x93
 1617 038d 01        		.uleb128 0x1
 1618 038e 6F        		.byte	0x6f
 1619 038f 93        		.byte	0x93
 1620 0390 01        		.uleb128 0x1
 1621 0391 0000 0000 		.long	0x0
 1622 0395 0000 0000 		.long	0x0
 1623               	.LLST32:
 1624 0399 4205 0000 		.long	.LVL78-.Ltext0
 1625 039d 5C05 0000 		.long	.LVL80-.Ltext0
 1626 03a1 0100      		.word	0x1
 1627 03a3 66        		.byte	0x66
 1628 03a4 6005 0000 		.long	.LVL81-.Ltext0
 1629 03a8 6805 0000 		.long	.LFE9-.Ltext0
 1630 03ac 0100      		.word	0x1
 1631 03ae 66        		.byte	0x66
 1632 03af 0000 0000 		.long	0x0
 1633 03b3 0000 0000 		.long	0x0
 1634               		.section	.debug_info
 1635 0000 750A 0000 		.long	0xa75
 1636 0004 0200      		.word	0x2
 1637 0006 0000 0000 		.long	.Ldebug_abbrev0
 1638 000a 04        		.byte	0x4
 1639 000b 01        		.uleb128 0x1
 1640 000c 0000 0000 		.long	.LASF233
 1641 0010 01        		.byte	0x1
 1642 0011 0000 0000 		.long	.LASF234
 1643 0015 0000 0000 		.long	.LASF235
 1644 0019 0000 0000 		.long	.Ltext0
 1645 001d 0000 0000 		.long	.Letext0
 1646 0021 0000 0000 		.long	.Ldebug_line0
 1647 0025 02        		.uleb128 0x2
 1648 0026 01        		.byte	0x1
 1649 0027 08        		.byte	0x8
 1650 0028 0000 0000 		.long	.LASF0
 1651 002c 02        		.uleb128 0x2
 1652 002d 01        		.byte	0x1
 1653 002e 06        		.byte	0x6
GAS LISTING C:\Users\ADMINI~1\AppData\Local\Temp/ccRLNvvW.s 			page 30


 1654 002f 0000 0000 		.long	.LASF1
 1655 0033 02        		.uleb128 0x2
 1656 0034 02        		.byte	0x2
 1657 0035 07        		.byte	0x7
 1658 0036 0000 0000 		.long	.LASF2
 1659 003a 02        		.uleb128 0x2
 1660 003b 02        		.byte	0x2
 1661 003c 05        		.byte	0x5
 1662 003d 0000 0000 		.long	.LASF3
 1663 0041 02        		.uleb128 0x2
 1664 0042 04        		.byte	0x4
 1665 0043 07        		.byte	0x7
 1666 0044 0000 0000 		.long	.LASF4
 1667 0048 02        		.uleb128 0x2
 1668 0049 04        		.byte	0x4
 1669 004a 05        		.byte	0x5
 1670 004b 0000 0000 		.long	.LASF5
 1671 004f 02        		.uleb128 0x2
 1672 0050 08        		.byte	0x8
 1673 0051 07        		.byte	0x7
 1674 0052 0000 0000 		.long	.LASF6
 1675 0056 02        		.uleb128 0x2
 1676 0057 08        		.byte	0x8
 1677 0058 05        		.byte	0x5
 1678 0059 0000 0000 		.long	.LASF7
 1679 005d 02        		.uleb128 0x2
 1680 005e 02        		.byte	0x2
 1681 005f 07        		.byte	0x7
 1682 0060 0000 0000 		.long	.LASF8
 1683 0064 02        		.uleb128 0x2
 1684 0065 01        		.byte	0x1
 1685 0066 06        		.byte	0x6
 1686 0067 0000 0000 		.long	.LASF9
 1687 006b 03        		.uleb128 0x3
 1688 006c 02        		.byte	0x2
 1689 006d 05        		.byte	0x5
 1690 006e 696E 7400 		.string	"int"
 1691 0072 04        		.uleb128 0x4
 1692 0073 0000 0000 		.long	.LASF10
 1693 0077 02        		.byte	0x2
 1694 0078 7A        		.byte	0x7a
 1695 0079 2500 0000 		.long	0x25
 1696 007d 04        		.uleb128 0x4
 1697 007e 0000 0000 		.long	.LASF11
 1698 0082 02        		.byte	0x2
 1699 0083 7C        		.byte	0x7c
 1700 0084 5D00 0000 		.long	0x5d
 1701 0088 05        		.uleb128 0x5
 1702 0089 01        		.byte	0x1
 1703 008a 06        		.byte	0x6
 1704 008b 05        		.uleb128 0x5
 1705 008c 01        		.byte	0x1
 1706 008d 08        		.byte	0x8
 1707 008e 06        		.uleb128 0x6
 1708 008f 02        		.byte	0x2
 1709 0090 03        		.byte	0x3
 1710 0091 18        		.byte	0x18
GAS LISTING C:\Users\ADMINI~1\AppData\Local\Temp/ccRLNvvW.s 			page 31


 1711 0092 1501 0000 		.long	0x115
 1712 0096 07        		.uleb128 0x7
 1713 0097 0000 0000 		.long	.LASF12
 1714 009b D501      		.sleb128 213
 1715 009d 07        		.uleb128 0x7
 1716 009e 0000 0000 		.long	.LASF13
 1717 00a2 D601      		.sleb128 214
 1718 00a4 07        		.uleb128 0x7
 1719 00a5 0000 0000 		.long	.LASF14
 1720 00a9 D701      		.sleb128 215
 1721 00ab 07        		.uleb128 0x7
 1722 00ac 0000 0000 		.long	.LASF15
 1723 00b0 D801      		.sleb128 216
 1724 00b2 07        		.uleb128 0x7
 1725 00b3 0000 0000 		.long	.LASF16
 1726 00b7 D901      		.sleb128 217
 1727 00b9 07        		.uleb128 0x7
 1728 00ba 0000 0000 		.long	.LASF17
 1729 00be DA01      		.sleb128 218
 1730 00c0 07        		.uleb128 0x7
 1731 00c1 0000 0000 		.long	.LASF18
 1732 00c5 DB01      		.sleb128 219
 1733 00c7 07        		.uleb128 0x7
 1734 00c8 0000 0000 		.long	.LASF19
 1735 00cc DC01      		.sleb128 220
 1736 00ce 07        		.uleb128 0x7
 1737 00cf 0000 0000 		.long	.LASF20
 1738 00d3 DD01      		.sleb128 221
 1739 00d5 07        		.uleb128 0x7
 1740 00d6 0000 0000 		.long	.LASF21
 1741 00da DE01      		.sleb128 222
 1742 00dc 07        		.uleb128 0x7
 1743 00dd 0000 0000 		.long	.LASF22
 1744 00e1 DF01      		.sleb128 223
 1745 00e3 07        		.uleb128 0x7
 1746 00e4 0000 0000 		.long	.LASF23
 1747 00e8 E001      		.sleb128 224
 1748 00ea 07        		.uleb128 0x7
 1749 00eb 0000 0000 		.long	.LASF24
 1750 00ef E101      		.sleb128 225
 1751 00f1 07        		.uleb128 0x7
 1752 00f2 0000 0000 		.long	.LASF25
 1753 00f6 E201      		.sleb128 226
 1754 00f8 07        		.uleb128 0x7
 1755 00f9 0000 0000 		.long	.LASF26
 1756 00fd E301      		.sleb128 227
 1757 00ff 07        		.uleb128 0x7
 1758 0100 0000 0000 		.long	.LASF27
 1759 0104 E401      		.sleb128 228
 1760 0106 07        		.uleb128 0x7
 1761 0107 0000 0000 		.long	.LASF28
 1762 010b E501      		.sleb128 229
 1763 010d 07        		.uleb128 0x7
 1764 010e 0000 0000 		.long	.LASF29
 1765 0112 E601      		.sleb128 230
 1766 0114 00        		.byte	0x0
 1767 0115 06        		.uleb128 0x6
GAS LISTING C:\Users\ADMINI~1\AppData\Local\Temp/ccRLNvvW.s 			page 32


 1768 0116 02        		.byte	0x2
 1769 0117 03        		.byte	0x3
 1770 0118 3E        		.byte	0x3e
 1771 0119 CE04 0000 		.long	0x4ce
 1772 011d 07        		.uleb128 0x7
 1773 011e 0000 0000 		.long	.LASF30
 1774 0122 00        		.sleb128 0
 1775 0123 07        		.uleb128 0x7
 1776 0124 0000 0000 		.long	.LASF31
 1777 0128 01        		.sleb128 1
 1778 0129 07        		.uleb128 0x7
 1779 012a 0000 0000 		.long	.LASF32
 1780 012e 02        		.sleb128 2
 1781 012f 07        		.uleb128 0x7
 1782 0130 0000 0000 		.long	.LASF33
 1783 0134 03        		.sleb128 3
 1784 0135 07        		.uleb128 0x7
 1785 0136 0000 0000 		.long	.LASF34
 1786 013a 04        		.sleb128 4
 1787 013b 07        		.uleb128 0x7
 1788 013c 0000 0000 		.long	.LASF35
 1789 0140 05        		.sleb128 5
 1790 0141 07        		.uleb128 0x7
 1791 0142 0000 0000 		.long	.LASF36
 1792 0146 06        		.sleb128 6
 1793 0147 07        		.uleb128 0x7
 1794 0148 0000 0000 		.long	.LASF37
 1795 014c 07        		.sleb128 7
 1796 014d 07        		.uleb128 0x7
 1797 014e 0000 0000 		.long	.LASF38
 1798 0152 08        		.sleb128 8
 1799 0153 07        		.uleb128 0x7
 1800 0154 0000 0000 		.long	.LASF39
 1801 0158 09        		.sleb128 9
 1802 0159 07        		.uleb128 0x7
 1803 015a 0000 0000 		.long	.LASF40
 1804 015e 0A        		.sleb128 10
 1805 015f 07        		.uleb128 0x7
 1806 0160 0000 0000 		.long	.LASF41
 1807 0164 0B        		.sleb128 11
 1808 0165 07        		.uleb128 0x7
 1809 0166 0000 0000 		.long	.LASF42
 1810 016a 0C        		.sleb128 12
 1811 016b 07        		.uleb128 0x7
 1812 016c 0000 0000 		.long	.LASF43
 1813 0170 0D        		.sleb128 13
 1814 0171 07        		.uleb128 0x7
 1815 0172 0000 0000 		.long	.LASF44
 1816 0176 0E        		.sleb128 14
 1817 0177 07        		.uleb128 0x7
 1818 0178 0000 0000 		.long	.LASF45
 1819 017c 0F        		.sleb128 15
 1820 017d 07        		.uleb128 0x7
 1821 017e 0000 0000 		.long	.LASF46
 1822 0182 10        		.sleb128 16
 1823 0183 07        		.uleb128 0x7
 1824 0184 0000 0000 		.long	.LASF47
GAS LISTING C:\Users\ADMINI~1\AppData\Local\Temp/ccRLNvvW.s 			page 33


 1825 0188 11        		.sleb128 17
 1826 0189 07        		.uleb128 0x7
 1827 018a 0000 0000 		.long	.LASF48
 1828 018e 12        		.sleb128 18
 1829 018f 07        		.uleb128 0x7
 1830 0190 0000 0000 		.long	.LASF49
 1831 0194 13        		.sleb128 19
 1832 0195 07        		.uleb128 0x7
 1833 0196 0000 0000 		.long	.LASF50
 1834 019a 14        		.sleb128 20
 1835 019b 07        		.uleb128 0x7
 1836 019c 0000 0000 		.long	.LASF51
 1837 01a0 15        		.sleb128 21
 1838 01a1 07        		.uleb128 0x7
 1839 01a2 0000 0000 		.long	.LASF52
 1840 01a6 16        		.sleb128 22
 1841 01a7 07        		.uleb128 0x7
 1842 01a8 0000 0000 		.long	.LASF53
 1843 01ac 17        		.sleb128 23
 1844 01ad 07        		.uleb128 0x7
 1845 01ae 0000 0000 		.long	.LASF54
 1846 01b2 18        		.sleb128 24
 1847 01b3 07        		.uleb128 0x7
 1848 01b4 0000 0000 		.long	.LASF55
 1849 01b8 19        		.sleb128 25
 1850 01b9 07        		.uleb128 0x7
 1851 01ba 0000 0000 		.long	.LASF56
 1852 01be 1A        		.sleb128 26
 1853 01bf 07        		.uleb128 0x7
 1854 01c0 0000 0000 		.long	.LASF57
 1855 01c4 1B        		.sleb128 27
 1856 01c5 07        		.uleb128 0x7
 1857 01c6 0000 0000 		.long	.LASF58
 1858 01ca 1C        		.sleb128 28
 1859 01cb 07        		.uleb128 0x7
 1860 01cc 0000 0000 		.long	.LASF59
 1861 01d0 1D        		.sleb128 29
 1862 01d1 07        		.uleb128 0x7
 1863 01d2 0000 0000 		.long	.LASF60
 1864 01d6 1E        		.sleb128 30
 1865 01d7 07        		.uleb128 0x7
 1866 01d8 0000 0000 		.long	.LASF61
 1867 01dc 1F        		.sleb128 31
 1868 01dd 07        		.uleb128 0x7
 1869 01de 0000 0000 		.long	.LASF62
 1870 01e2 20        		.sleb128 32
 1871 01e3 07        		.uleb128 0x7
 1872 01e4 0000 0000 		.long	.LASF63
 1873 01e8 21        		.sleb128 33
 1874 01e9 07        		.uleb128 0x7
 1875 01ea 0000 0000 		.long	.LASF64
 1876 01ee 22        		.sleb128 34
 1877 01ef 07        		.uleb128 0x7
 1878 01f0 0000 0000 		.long	.LASF65
 1879 01f4 23        		.sleb128 35
 1880 01f5 07        		.uleb128 0x7
 1881 01f6 0000 0000 		.long	.LASF66
GAS LISTING C:\Users\ADMINI~1\AppData\Local\Temp/ccRLNvvW.s 			page 34


 1882 01fa 24        		.sleb128 36
 1883 01fb 07        		.uleb128 0x7
 1884 01fc 0000 0000 		.long	.LASF67
 1885 0200 25        		.sleb128 37
 1886 0201 07        		.uleb128 0x7
 1887 0202 0000 0000 		.long	.LASF68
 1888 0206 26        		.sleb128 38
 1889 0207 07        		.uleb128 0x7
 1890 0208 0000 0000 		.long	.LASF69
 1891 020c 27        		.sleb128 39
 1892 020d 07        		.uleb128 0x7
 1893 020e 0000 0000 		.long	.LASF70
 1894 0212 28        		.sleb128 40
 1895 0213 07        		.uleb128 0x7
 1896 0214 0000 0000 		.long	.LASF71
 1897 0218 29        		.sleb128 41
 1898 0219 07        		.uleb128 0x7
 1899 021a 0000 0000 		.long	.LASF72
 1900 021e 2A        		.sleb128 42
 1901 021f 07        		.uleb128 0x7
 1902 0220 0000 0000 		.long	.LASF73
 1903 0224 2B        		.sleb128 43
 1904 0225 07        		.uleb128 0x7
 1905 0226 0000 0000 		.long	.LASF74
 1906 022a 2C        		.sleb128 44
 1907 022b 07        		.uleb128 0x7
 1908 022c 0000 0000 		.long	.LASF75
 1909 0230 2D        		.sleb128 45
 1910 0231 07        		.uleb128 0x7
 1911 0232 0000 0000 		.long	.LASF76
 1912 0236 2E        		.sleb128 46
 1913 0237 07        		.uleb128 0x7
 1914 0238 0000 0000 		.long	.LASF77
 1915 023c 2F        		.sleb128 47
 1916 023d 07        		.uleb128 0x7
 1917 023e 0000 0000 		.long	.LASF78
 1918 0242 30        		.sleb128 48
 1919 0243 07        		.uleb128 0x7
 1920 0244 0000 0000 		.long	.LASF79
 1921 0248 31        		.sleb128 49
 1922 0249 07        		.uleb128 0x7
 1923 024a 0000 0000 		.long	.LASF80
 1924 024e 32        		.sleb128 50
 1925 024f 07        		.uleb128 0x7
 1926 0250 0000 0000 		.long	.LASF81
 1927 0254 33        		.sleb128 51
 1928 0255 07        		.uleb128 0x7
 1929 0256 0000 0000 		.long	.LASF82
 1930 025a 34        		.sleb128 52
 1931 025b 07        		.uleb128 0x7
 1932 025c 0000 0000 		.long	.LASF83
 1933 0260 35        		.sleb128 53
 1934 0261 07        		.uleb128 0x7
 1935 0262 0000 0000 		.long	.LASF84
 1936 0266 36        		.sleb128 54
 1937 0267 07        		.uleb128 0x7
 1938 0268 0000 0000 		.long	.LASF85
GAS LISTING C:\Users\ADMINI~1\AppData\Local\Temp/ccRLNvvW.s 			page 35


 1939 026c 37        		.sleb128 55
 1940 026d 07        		.uleb128 0x7
 1941 026e 0000 0000 		.long	.LASF86
 1942 0272 38        		.sleb128 56
 1943 0273 07        		.uleb128 0x7
 1944 0274 0000 0000 		.long	.LASF87
 1945 0278 39        		.sleb128 57
 1946 0279 07        		.uleb128 0x7
 1947 027a 0000 0000 		.long	.LASF88
 1948 027e 3A        		.sleb128 58
 1949 027f 07        		.uleb128 0x7
 1950 0280 0000 0000 		.long	.LASF89
 1951 0284 3B        		.sleb128 59
 1952 0285 07        		.uleb128 0x7
 1953 0286 0000 0000 		.long	.LASF90
 1954 028a 3C        		.sleb128 60
 1955 028b 07        		.uleb128 0x7
 1956 028c 0000 0000 		.long	.LASF91
 1957 0290 3D        		.sleb128 61
 1958 0291 07        		.uleb128 0x7
 1959 0292 0000 0000 		.long	.LASF92
 1960 0296 3E        		.sleb128 62
 1961 0297 07        		.uleb128 0x7
 1962 0298 0000 0000 		.long	.LASF93
 1963 029c 3F        		.sleb128 63
 1964 029d 07        		.uleb128 0x7
 1965 029e 0000 0000 		.long	.LASF94
 1966 02a2 C000      		.sleb128 64
 1967 02a4 07        		.uleb128 0x7
 1968 02a5 0000 0000 		.long	.LASF95
 1969 02a9 C100      		.sleb128 65
 1970 02ab 07        		.uleb128 0x7
 1971 02ac 0000 0000 		.long	.LASF96
 1972 02b0 C200      		.sleb128 66
 1973 02b2 07        		.uleb128 0x7
 1974 02b3 0000 0000 		.long	.LASF97
 1975 02b7 C300      		.sleb128 67
 1976 02b9 07        		.uleb128 0x7
 1977 02ba 0000 0000 		.long	.LASF98
 1978 02be C400      		.sleb128 68
 1979 02c0 07        		.uleb128 0x7
 1980 02c1 0000 0000 		.long	.LASF99
 1981 02c5 C500      		.sleb128 69
 1982 02c7 07        		.uleb128 0x7
 1983 02c8 0000 0000 		.long	.LASF100
 1984 02cc C600      		.sleb128 70
 1985 02ce 07        		.uleb128 0x7
 1986 02cf 0000 0000 		.long	.LASF101
 1987 02d3 C700      		.sleb128 71
 1988 02d5 07        		.uleb128 0x7
 1989 02d6 0000 0000 		.long	.LASF102
 1990 02da C800      		.sleb128 72
 1991 02dc 07        		.uleb128 0x7
 1992 02dd 0000 0000 		.long	.LASF103
 1993 02e1 C900      		.sleb128 73
 1994 02e3 07        		.uleb128 0x7
 1995 02e4 0000 0000 		.long	.LASF104
GAS LISTING C:\Users\ADMINI~1\AppData\Local\Temp/ccRLNvvW.s 			page 36


 1996 02e8 CA00      		.sleb128 74
 1997 02ea 07        		.uleb128 0x7
 1998 02eb 0000 0000 		.long	.LASF105
 1999 02ef CB00      		.sleb128 75
 2000 02f1 07        		.uleb128 0x7
 2001 02f2 0000 0000 		.long	.LASF106
 2002 02f6 CC00      		.sleb128 76
 2003 02f8 07        		.uleb128 0x7
 2004 02f9 0000 0000 		.long	.LASF107
 2005 02fd CD00      		.sleb128 77
 2006 02ff 07        		.uleb128 0x7
 2007 0300 0000 0000 		.long	.LASF108
 2008 0304 CE00      		.sleb128 78
 2009 0306 07        		.uleb128 0x7
 2010 0307 0000 0000 		.long	.LASF109
 2011 030b CF00      		.sleb128 79
 2012 030d 07        		.uleb128 0x7
 2013 030e 0000 0000 		.long	.LASF110
 2014 0312 D000      		.sleb128 80
 2015 0314 07        		.uleb128 0x7
 2016 0315 0000 0000 		.long	.LASF111
 2017 0319 D100      		.sleb128 81
 2018 031b 07        		.uleb128 0x7
 2019 031c 0000 0000 		.long	.LASF112
 2020 0320 D200      		.sleb128 82
 2021 0322 07        		.uleb128 0x7
 2022 0323 0000 0000 		.long	.LASF113
 2023 0327 D300      		.sleb128 83
 2024 0329 07        		.uleb128 0x7
 2025 032a 0000 0000 		.long	.LASF114
 2026 032e D400      		.sleb128 84
 2027 0330 07        		.uleb128 0x7
 2028 0331 0000 0000 		.long	.LASF115
 2029 0335 D500      		.sleb128 85
 2030 0337 07        		.uleb128 0x7
 2031 0338 0000 0000 		.long	.LASF116
 2032 033c D600      		.sleb128 86
 2033 033e 07        		.uleb128 0x7
 2034 033f 0000 0000 		.long	.LASF117
 2035 0343 D700      		.sleb128 87
 2036 0345 07        		.uleb128 0x7
 2037 0346 0000 0000 		.long	.LASF118
 2038 034a D800      		.sleb128 88
 2039 034c 07        		.uleb128 0x7
 2040 034d 0000 0000 		.long	.LASF119
 2041 0351 D900      		.sleb128 89
 2042 0353 07        		.uleb128 0x7
 2043 0354 0000 0000 		.long	.LASF120
 2044 0358 DA00      		.sleb128 90
 2045 035a 07        		.uleb128 0x7
 2046 035b 0000 0000 		.long	.LASF121
 2047 035f DB00      		.sleb128 91
 2048 0361 07        		.uleb128 0x7
 2049 0362 0000 0000 		.long	.LASF122
 2050 0366 DC00      		.sleb128 92
 2051 0368 07        		.uleb128 0x7
 2052 0369 0000 0000 		.long	.LASF123
GAS LISTING C:\Users\ADMINI~1\AppData\Local\Temp/ccRLNvvW.s 			page 37


 2053 036d DD00      		.sleb128 93
 2054 036f 07        		.uleb128 0x7
 2055 0370 0000 0000 		.long	.LASF124
 2056 0374 DE00      		.sleb128 94
 2057 0376 07        		.uleb128 0x7
 2058 0377 0000 0000 		.long	.LASF125
 2059 037b DF00      		.sleb128 95
 2060 037d 07        		.uleb128 0x7
 2061 037e 0000 0000 		.long	.LASF126
 2062 0382 E000      		.sleb128 96
 2063 0384 07        		.uleb128 0x7
 2064 0385 0000 0000 		.long	.LASF127
 2065 0389 E100      		.sleb128 97
 2066 038b 07        		.uleb128 0x7
 2067 038c 0000 0000 		.long	.LASF128
 2068 0390 E200      		.sleb128 98
 2069 0392 07        		.uleb128 0x7
 2070 0393 0000 0000 		.long	.LASF129
 2071 0397 E300      		.sleb128 99
 2072 0399 07        		.uleb128 0x7
 2073 039a 0000 0000 		.long	.LASF130
 2074 039e E400      		.sleb128 100
 2075 03a0 07        		.uleb128 0x7
 2076 03a1 0000 0000 		.long	.LASF131
 2077 03a5 E500      		.sleb128 101
 2078 03a7 07        		.uleb128 0x7
 2079 03a8 0000 0000 		.long	.LASF132
 2080 03ac E600      		.sleb128 102
 2081 03ae 07        		.uleb128 0x7
 2082 03af 0000 0000 		.long	.LASF133
 2083 03b3 E700      		.sleb128 103
 2084 03b5 07        		.uleb128 0x7
 2085 03b6 0000 0000 		.long	.LASF134
 2086 03ba E800      		.sleb128 104
 2087 03bc 07        		.uleb128 0x7
 2088 03bd 0000 0000 		.long	.LASF135
 2089 03c1 E900      		.sleb128 105
 2090 03c3 07        		.uleb128 0x7
 2091 03c4 0000 0000 		.long	.LASF136
 2092 03c8 EA00      		.sleb128 106
 2093 03ca 07        		.uleb128 0x7
 2094 03cb 0000 0000 		.long	.LASF137
 2095 03cf EB00      		.sleb128 107
 2096 03d1 07        		.uleb128 0x7
 2097 03d2 0000 0000 		.long	.LASF138
 2098 03d6 EC00      		.sleb128 108
 2099 03d8 07        		.uleb128 0x7
 2100 03d9 0000 0000 		.long	.LASF139
 2101 03dd ED00      		.sleb128 109
 2102 03df 07        		.uleb128 0x7
 2103 03e0 0000 0000 		.long	.LASF140
 2104 03e4 EE00      		.sleb128 110
 2105 03e6 07        		.uleb128 0x7
 2106 03e7 0000 0000 		.long	.LASF141
 2107 03eb EF00      		.sleb128 111
 2108 03ed 07        		.uleb128 0x7
 2109 03ee 0000 0000 		.long	.LASF142
GAS LISTING C:\Users\ADMINI~1\AppData\Local\Temp/ccRLNvvW.s 			page 38


 2110 03f2 F000      		.sleb128 112
 2111 03f4 07        		.uleb128 0x7
 2112 03f5 0000 0000 		.long	.LASF143
 2113 03f9 F100      		.sleb128 113
 2114 03fb 07        		.uleb128 0x7
 2115 03fc 0000 0000 		.long	.LASF144
 2116 0400 F200      		.sleb128 114
 2117 0402 07        		.uleb128 0x7
 2118 0403 0000 0000 		.long	.LASF145
 2119 0407 F300      		.sleb128 115
 2120 0409 07        		.uleb128 0x7
 2121 040a 0000 0000 		.long	.LASF146
 2122 040e F400      		.sleb128 116
 2123 0410 07        		.uleb128 0x7
 2124 0411 0000 0000 		.long	.LASF147
 2125 0415 F500      		.sleb128 117
 2126 0417 07        		.uleb128 0x7
 2127 0418 0000 0000 		.long	.LASF148
 2128 041c F600      		.sleb128 118
 2129 041e 07        		.uleb128 0x7
 2130 041f 0000 0000 		.long	.LASF149
 2131 0423 F700      		.sleb128 119
 2132 0425 07        		.uleb128 0x7
 2133 0426 0000 0000 		.long	.LASF150
 2134 042a F800      		.sleb128 120
 2135 042c 07        		.uleb128 0x7
 2136 042d 0000 0000 		.long	.LASF151
 2137 0431 F900      		.sleb128 121
 2138 0433 07        		.uleb128 0x7
 2139 0434 0000 0000 		.long	.LASF152
 2140 0438 FA00      		.sleb128 122
 2141 043a 07        		.uleb128 0x7
 2142 043b 0000 0000 		.long	.LASF153
 2143 043f FB00      		.sleb128 123
 2144 0441 07        		.uleb128 0x7
 2145 0442 0000 0000 		.long	.LASF154
 2146 0446 FC00      		.sleb128 124
 2147 0448 07        		.uleb128 0x7
 2148 0449 0000 0000 		.long	.LASF155
 2149 044d FD00      		.sleb128 125
 2150 044f 07        		.uleb128 0x7
 2151 0450 0000 0000 		.long	.LASF156
 2152 0454 FE00      		.sleb128 126
 2153 0456 07        		.uleb128 0x7
 2154 0457 0000 0000 		.long	.LASF157
 2155 045b FF00      		.sleb128 127
 2156 045d 07        		.uleb128 0x7
 2157 045e 0000 0000 		.long	.LASF158
 2158 0462 8001      		.sleb128 128
 2159 0464 07        		.uleb128 0x7
 2160 0465 0000 0000 		.long	.LASF159
 2161 0469 8101      		.sleb128 129
 2162 046b 07        		.uleb128 0x7
 2163 046c 0000 0000 		.long	.LASF160
 2164 0470 8201      		.sleb128 130
 2165 0472 07        		.uleb128 0x7
 2166 0473 0000 0000 		.long	.LASF161
GAS LISTING C:\Users\ADMINI~1\AppData\Local\Temp/ccRLNvvW.s 			page 39


 2167 0477 8301      		.sleb128 131
 2168 0479 07        		.uleb128 0x7
 2169 047a 0000 0000 		.long	.LASF162
 2170 047e 8401      		.sleb128 132
 2171 0480 07        		.uleb128 0x7
 2172 0481 0000 0000 		.long	.LASF163
 2173 0485 8501      		.sleb128 133
 2174 0487 07        		.uleb128 0x7
 2175 0488 0000 0000 		.long	.LASF164
 2176 048c 8601      		.sleb128 134
 2177 048e 07        		.uleb128 0x7
 2178 048f 0000 0000 		.long	.LASF165
 2179 0493 8701      		.sleb128 135
 2180 0495 07        		.uleb128 0x7
 2181 0496 0000 0000 		.long	.LASF166
 2182 049a 8801      		.sleb128 136
 2183 049c 07        		.uleb128 0x7
 2184 049d 0000 0000 		.long	.LASF167
 2185 04a1 8901      		.sleb128 137
 2186 04a3 07        		.uleb128 0x7
 2187 04a4 0000 0000 		.long	.LASF168
 2188 04a8 8A01      		.sleb128 138
 2189 04aa 07        		.uleb128 0x7
 2190 04ab 0000 0000 		.long	.LASF169
 2191 04af 8B01      		.sleb128 139
 2192 04b1 07        		.uleb128 0x7
 2193 04b2 0000 0000 		.long	.LASF170
 2194 04b6 8C01      		.sleb128 140
 2195 04b8 07        		.uleb128 0x7
 2196 04b9 0000 0000 		.long	.LASF171
 2197 04bd 8D01      		.sleb128 141
 2198 04bf 07        		.uleb128 0x7
 2199 04c0 0000 0000 		.long	.LASF172
 2200 04c4 8E01      		.sleb128 142
 2201 04c6 07        		.uleb128 0x7
 2202 04c7 0000 0000 		.long	.LASF173
 2203 04cb 8F01      		.sleb128 143
 2204 04cd 00        		.byte	0x0
 2205 04ce 08        		.uleb128 0x8
 2206 04cf 0000 0000 		.long	.LASF179
 2207 04d3 0C        		.byte	0xc
 2208 04d4 04        		.byte	0x4
 2209 04d5 9102      		.word	0x291
 2210 04d7 FA04 0000 		.long	0x4fa
 2211 04db 09        		.uleb128 0x9
 2212 04dc 6C65 6E00 		.string	"len"
 2213 04e0 04        		.byte	0x4
 2214 04e1 9202      		.word	0x292
 2215 04e3 FA04 0000 		.long	0x4fa
 2216 04e7 02        		.byte	0x2
 2217 04e8 23        		.byte	0x23
 2218 04e9 00        		.uleb128 0x0
 2219 04ea 0A        		.uleb128 0xa
 2220 04eb 0000 0000 		.long	.LASF174
 2221 04ef 04        		.byte	0x4
 2222 04f0 9302      		.word	0x293
 2223 04f2 FF04 0000 		.long	0x4ff
GAS LISTING C:\Users\ADMINI~1\AppData\Local\Temp/ccRLNvvW.s 			page 40


 2224 04f6 02        		.byte	0x2
 2225 04f7 23        		.byte	0x23
 2226 04f8 01        		.uleb128 0x1
 2227 04f9 00        		.byte	0x0
 2228 04fa 0B        		.uleb128 0xb
 2229 04fb 2500 0000 		.long	0x25
 2230 04ff 0C        		.uleb128 0xc
 2231 0500 2500 0000 		.long	0x25
 2232 0504 0F05 0000 		.long	0x50f
 2233 0508 0D        		.uleb128 0xd
 2234 0509 0F05 0000 		.long	0x50f
 2235 050d 0A        		.byte	0xa
 2236 050e 00        		.byte	0x0
 2237 050f 05        		.uleb128 0x5
 2238 0510 02        		.byte	0x2
 2239 0511 07        		.byte	0x7
 2240 0512 0E        		.uleb128 0xe
 2241 0513 0000 0000 		.long	.LASF175
 2242 0517 04        		.byte	0x4
 2243 0518 9402      		.word	0x294
 2244 051a CE04 0000 		.long	0x4ce
 2245 051e 0F        		.uleb128 0xf
 2246 051f 0000 0000 		.long	.LASF236
 2247 0523 02        		.byte	0x2
 2248 0524 04        		.byte	0x4
 2249 0525 9D02      		.word	0x29d
 2250 0527 4405 0000 		.long	0x544
 2251 052b 10        		.uleb128 0x10
 2252 052c 0000 0000 		.long	.LASF176
 2253 0530 04        		.byte	0x4
 2254 0531 9E02      		.word	0x29e
 2255 0533 5D00 0000 		.long	0x5d
 2256 0537 10        		.uleb128 0x10
 2257 0538 0000 0000 		.long	.LASF177
 2258 053c 04        		.byte	0x4
 2259 053d 9F02      		.word	0x29f
 2260 053f 4405 0000 		.long	0x544
 2261 0543 00        		.byte	0x0
 2262 0544 0C        		.uleb128 0xc
 2263 0545 2500 0000 		.long	0x25
 2264 0549 5405 0000 		.long	0x554
 2265 054d 0D        		.uleb128 0xd
 2266 054e 0F05 0000 		.long	0x50f
 2267 0552 01        		.byte	0x1
 2268 0553 00        		.byte	0x0
 2269 0554 0E        		.uleb128 0xe
 2270 0555 0000 0000 		.long	.LASF178
 2271 0559 04        		.byte	0x4
 2272 055a A002      		.word	0x2a0
 2273 055c 1E05 0000 		.long	0x51e
 2274 0560 11        		.uleb128 0x11
 2275 0561 0000 0000 		.long	.LASF180
 2276 0565 08        		.byte	0x8
 2277 0566 04        		.byte	0x4
 2278 0567 B0        		.byte	0xb0
 2279 0568 B805 0000 		.long	0x5b8
 2280 056c 0A        		.uleb128 0xa
GAS LISTING C:\Users\ADMINI~1\AppData\Local\Temp/ccRLNvvW.s 			page 41


 2281 056d 0000 0000 		.long	.LASF181
 2282 0571 04        		.byte	0x4
 2283 0572 A302      		.word	0x2a3
 2284 0574 2500 0000 		.long	0x25
 2285 0578 02        		.byte	0x2
 2286 0579 23        		.byte	0x23
 2287 057a 00        		.uleb128 0x0
 2288 057b 0A        		.uleb128 0xa
 2289 057c 0000 0000 		.long	.LASF182
 2290 0580 04        		.byte	0x4
 2291 0581 A402      		.word	0x2a4
 2292 0583 2500 0000 		.long	0x25
 2293 0587 02        		.byte	0x2
 2294 0588 23        		.byte	0x23
 2295 0589 01        		.uleb128 0x1
 2296 058a 0A        		.uleb128 0xa
 2297 058b 0000 0000 		.long	.LASF183
 2298 058f 04        		.byte	0x4
 2299 0590 A502      		.word	0x2a5
 2300 0592 5405 0000 		.long	0x554
 2301 0596 02        		.byte	0x2
 2302 0597 23        		.byte	0x23
 2303 0598 02        		.uleb128 0x2
 2304 0599 0A        		.uleb128 0xa
 2305 059a 0000 0000 		.long	.LASF184
 2306 059e 04        		.byte	0x4
 2307 059f A602      		.word	0x2a6
 2308 05a1 5405 0000 		.long	0x554
 2309 05a5 02        		.byte	0x2
 2310 05a6 23        		.byte	0x23
 2311 05a7 04        		.uleb128 0x4
 2312 05a8 0A        		.uleb128 0xa
 2313 05a9 0000 0000 		.long	.LASF185
 2314 05ad 04        		.byte	0x4
 2315 05ae A702      		.word	0x2a7
 2316 05b0 5405 0000 		.long	0x554
 2317 05b4 02        		.byte	0x2
 2318 05b5 23        		.byte	0x23
 2319 05b6 06        		.uleb128 0x6
 2320 05b7 00        		.byte	0x0
 2321 05b8 0E        		.uleb128 0xe
 2322 05b9 0000 0000 		.long	.LASF186
 2323 05bd 04        		.byte	0x4
 2324 05be A802      		.word	0x2a8
 2325 05c0 6005 0000 		.long	0x560
 2326 05c4 12        		.uleb128 0x12
 2327 05c5 01        		.byte	0x1
 2328 05c6 0000 0000 		.long	.LASF237
 2329 05ca 01        		.byte	0x1
 2330 05cb 7102      		.word	0x271
 2331 05cd 01        		.byte	0x1
 2332 05ce 7200 0000 		.long	0x72
 2333 05d2 0000 0000 		.long	.LFB16
 2334 05d6 0000 0000 		.long	.LFE16
 2335 05da 02        		.byte	0x2
 2336 05db 90        		.byte	0x90
 2337 05dc 20        		.uleb128 0x20
GAS LISTING C:\Users\ADMINI~1\AppData\Local\Temp/ccRLNvvW.s 			page 42


 2338 05dd 13        		.uleb128 0x13
 2339 05de 01        		.byte	0x1
 2340 05df 0000 0000 		.long	.LASF187
 2341 05e3 01        		.byte	0x1
 2342 05e4 CF01      		.word	0x1cf
 2343 05e6 01        		.byte	0x1
 2344 05e7 0000 0000 		.long	.LFB13
 2345 05eb 0000 0000 		.long	.LFE13
 2346 05ef 02        		.byte	0x2
 2347 05f0 90        		.byte	0x90
 2348 05f1 20        		.uleb128 0x20
 2349 05f2 13        		.uleb128 0x13
 2350 05f3 01        		.byte	0x1
 2351 05f4 0000 0000 		.long	.LASF188
 2352 05f8 01        		.byte	0x1
 2353 05f9 8E01      		.word	0x18e
 2354 05fb 01        		.byte	0x1
 2355 05fc 0000 0000 		.long	.LFB11
 2356 0600 0000 0000 		.long	.LFE11
 2357 0604 02        		.byte	0x2
 2358 0605 90        		.byte	0x90
 2359 0606 20        		.uleb128 0x20
 2360 0607 14        		.uleb128 0x14
 2361 0608 01        		.byte	0x1
 2362 0609 0000 0000 		.long	.LASF195
 2363 060d 01        		.byte	0x1
 2364 060e A001      		.word	0x1a0
 2365 0610 01        		.byte	0x1
 2366 0611 7200 0000 		.long	0x72
 2367 0615 0000 0000 		.long	.LFB12
 2368 0619 0000 0000 		.long	.LFE12
 2369 061d 02        		.byte	0x2
 2370 061e 90        		.byte	0x90
 2371 061f 20        		.uleb128 0x20
 2372 0620 BF06 0000 		.long	0x6bf
 2373 0624 15        		.uleb128 0x15
 2374 0625 0000 0000 		.long	.LASF189
 2375 0629 01        		.byte	0x1
 2376 062a A001      		.word	0x1a0
 2377 062c 7200 0000 		.long	0x72
 2378 0630 0000 0000 		.long	.LLST4
 2379 0634 15        		.uleb128 0x15
 2380 0635 0000 0000 		.long	.LASF190
 2381 0639 01        		.byte	0x1
 2382 063a A001      		.word	0x1a0
 2383 063c 7200 0000 		.long	0x72
 2384 0640 0000 0000 		.long	.LLST5
 2385 0644 16        		.uleb128 0x16
 2386 0645 0000 0000 		.long	.LASF191
 2387 0649 01        		.byte	0x1
 2388 064a A101      		.word	0x1a1
 2389 064c 7200 0000 		.long	0x72
 2390 0650 17        		.uleb128 0x17
 2391 0651 0000 0000 		.long	.LBB2
 2392 0655 0000 0000 		.long	.LBE2
 2393 0659 9406 0000 		.long	0x694
 2394 065d 16        		.uleb128 0x16
GAS LISTING C:\Users\ADMINI~1\AppData\Local\Temp/ccRLNvvW.s 			page 43


 2395 065e 0000 0000 		.long	.LASF192
 2396 0662 01        		.byte	0x1
 2397 0663 AE01      		.word	0x1ae
 2398 0665 7D00 0000 		.long	0x7d
 2399 0669 18        		.uleb128 0x18
 2400 066a 0000 0000 		.long	.LBB3
 2401 066e 0000 0000 		.long	.LBE3
 2402 0672 19        		.uleb128 0x19
 2403 0673 0000 0000 		.long	.LASF193
 2404 0677 01        		.byte	0x1
 2405 0678 AE01      		.word	0x1ae
 2406 067a 7D00 0000 		.long	0x7d
 2407 067e 0000 0000 		.long	.LLST6
 2408 0682 19        		.uleb128 0x19
 2409 0683 0000 0000 		.long	.LASF194
 2410 0687 01        		.byte	0x1
 2411 0688 AE01      		.word	0x1ae
 2412 068a 7D00 0000 		.long	0x7d
 2413 068e 0000 0000 		.long	.LLST7
 2414 0692 00        		.byte	0x0
 2415 0693 00        		.byte	0x0
 2416 0694 18        		.uleb128 0x18
 2417 0695 0000 0000 		.long	.LBB4
 2418 0699 0000 0000 		.long	.LBE4
 2419 069d 19        		.uleb128 0x19
 2420 069e 0000 0000 		.long	.LASF193
 2421 06a2 01        		.byte	0x1
 2422 06a3 C501      		.word	0x1c5
 2423 06a5 7D00 0000 		.long	0x7d
 2424 06a9 0000 0000 		.long	.LLST8
 2425 06ad 19        		.uleb128 0x19
 2426 06ae 0000 0000 		.long	.LASF194
 2427 06b2 01        		.byte	0x1
 2428 06b3 C501      		.word	0x1c5
 2429 06b5 7D00 0000 		.long	0x7d
 2430 06b9 0000 0000 		.long	.LLST9
 2431 06bd 00        		.byte	0x0
 2432 06be 00        		.byte	0x0
 2433 06bf 14        		.uleb128 0x14
 2434 06c0 01        		.byte	0x1
 2435 06c1 0000 0000 		.long	.LASF196
 2436 06c5 01        		.byte	0x1
 2437 06c6 4902      		.word	0x249
 2438 06c8 01        		.byte	0x1
 2439 06c9 7200 0000 		.long	0x72
 2440 06cd 0000 0000 		.long	.LFB15
 2441 06d1 0000 0000 		.long	.LFE15
 2442 06d5 02        		.byte	0x2
 2443 06d6 90        		.byte	0x90
 2444 06d7 20        		.uleb128 0x20
 2445 06d8 1D07 0000 		.long	0x71d
 2446 06dc 18        		.uleb128 0x18
 2447 06dd 0000 0000 		.long	.LBB5
 2448 06e1 0000 0000 		.long	.LBE5
 2449 06e5 16        		.uleb128 0x16
 2450 06e6 0000 0000 		.long	.LASF197
 2451 06ea 01        		.byte	0x1
GAS LISTING C:\Users\ADMINI~1\AppData\Local\Temp/ccRLNvvW.s 			page 44


 2452 06eb 4B02      		.word	0x24b
 2453 06ed 6B00 0000 		.long	0x6b
 2454 06f1 1A        		.uleb128 0x1a
 2455 06f2 6900      		.string	"i"
 2456 06f4 01        		.byte	0x1
 2457 06f5 5102      		.word	0x251
 2458 06f7 7200 0000 		.long	0x72
 2459 06fb 19        		.uleb128 0x19
 2460 06fc 0000 0000 		.long	.LASF198
 2461 0700 01        		.byte	0x1
 2462 0701 5202      		.word	0x252
 2463 0703 7200 0000 		.long	0x72
 2464 0707 0000 0000 		.long	.LLST11
 2465 070b 19        		.uleb128 0x19
 2466 070c 0000 0000 		.long	.LASF199
 2467 0710 01        		.byte	0x1
 2468 0711 5302      		.word	0x253
 2469 0713 7200 0000 		.long	0x72
 2470 0717 0000 0000 		.long	.LLST12
 2471 071b 00        		.byte	0x0
 2472 071c 00        		.byte	0x0
 2473 071d 14        		.uleb128 0x14
 2474 071e 01        		.byte	0x1
 2475 071f 0000 0000 		.long	.LASF200
 2476 0723 01        		.byte	0x1
 2477 0724 D401      		.word	0x1d4
 2478 0726 01        		.byte	0x1
 2479 0727 7200 0000 		.long	0x72
 2480 072b 0000 0000 		.long	.LFB14
 2481 072f 0000 0000 		.long	.LFE14
 2482 0733 02        		.byte	0x2
 2483 0734 90        		.byte	0x90
 2484 0735 20        		.uleb128 0x20
 2485 0736 EC07 0000 		.long	0x7ec
 2486 073a 19        		.uleb128 0x19
 2487 073b 0000 0000 		.long	.LASF191
 2488 073f 01        		.byte	0x1
 2489 0740 D501      		.word	0x1d5
 2490 0742 7200 0000 		.long	0x72
 2491 0746 0000 0000 		.long	.LLST14
 2492 074a 1B        		.uleb128 0x1b
 2493 074b 726F 7700 		.string	"row"
 2494 074f 01        		.byte	0x1
 2495 0750 DA01      		.word	0x1da
 2496 0752 7200 0000 		.long	0x72
 2497 0756 0000 0000 		.long	.LLST15
 2498 075a 1B        		.uleb128 0x1b
 2499 075b 636F 6C00 		.string	"col"
 2500 075f 01        		.byte	0x1
 2501 0760 DA01      		.word	0x1da
 2502 0762 7200 0000 		.long	0x72
 2503 0766 0000 0000 		.long	.LLST16
 2504 076a 19        		.uleb128 0x19
 2505 076b 0000 0000 		.long	.LASF201
 2506 076f 01        		.byte	0x1
 2507 0770 DA01      		.word	0x1da
 2508 0772 7200 0000 		.long	0x72
GAS LISTING C:\Users\ADMINI~1\AppData\Local\Temp/ccRLNvvW.s 			page 45


 2509 0776 0000 0000 		.long	.LLST17
 2510 077a 1B        		.uleb128 0x1b
 2511 077b 6375 7200 		.string	"cur"
 2512 077f 01        		.byte	0x1
 2513 0780 DA01      		.word	0x1da
 2514 0782 7200 0000 		.long	0x72
 2515 0786 0000 0000 		.long	.LLST18
 2516 078a 19        		.uleb128 0x19
 2517 078b 0000 0000 		.long	.LASF189
 2518 078f 01        		.byte	0x1
 2519 0790 DA01      		.word	0x1da
 2520 0792 7200 0000 		.long	0x72
 2521 0796 0000 0000 		.long	.LLST19
 2522 079a 1C        		.uleb128 0x1c
 2523 079b 0000 0000 		.long	.LASF202
 2524 079f 01        		.byte	0x1
 2525 07a0 DA01      		.word	0x1da
 2526 07a2 7200 0000 		.long	0x72
 2527 07a6 02        		.byte	0x2
 2528 07a7 8C        		.byte	0x8c
 2529 07a8 01        		.sleb128 1
 2530 07a9 1B        		.uleb128 0x1b
 2531 07aa 6746 4E00 		.string	"gFN"
 2532 07ae 01        		.byte	0x1
 2533 07af DA01      		.word	0x1da
 2534 07b1 7200 0000 		.long	0x72
 2535 07b5 0000 0000 		.long	.LLST20
 2536 07b9 19        		.uleb128 0x19
 2537 07ba 0000 0000 		.long	.LASF203
 2538 07be 01        		.byte	0x1
 2539 07bf DB01      		.word	0x1db
 2540 07c1 7200 0000 		.long	0x72
 2541 07c5 0000 0000 		.long	.LLST21
 2542 07c9 19        		.uleb128 0x19
 2543 07ca 0000 0000 		.long	.LASF204
 2544 07ce 01        		.byte	0x1
 2545 07cf E201      		.word	0x1e2
 2546 07d1 EC07 0000 		.long	0x7ec
 2547 07d5 0000 0000 		.long	.LLST22
 2548 07d9 1C        		.uleb128 0x1c
 2549 07da 0000 0000 		.long	.LASF205
 2550 07de 01        		.byte	0x1
 2551 07df DC01      		.word	0x1dc
 2552 07e1 7200 0000 		.long	0x72
 2553 07e5 05        		.byte	0x5
 2554 07e6 03        		.byte	0x3
 2555 07e7 0000 0000 		.long	prevModifier.2353
 2556 07eb 00        		.byte	0x0
 2557 07ec 1D        		.uleb128 0x1d
 2558 07ed 02        		.byte	0x2
 2559 07ee 7200 0000 		.long	0x72
 2560 07f2 1E        		.uleb128 0x1e
 2561 07f3 01        		.byte	0x1
 2562 07f4 0000 0000 		.long	.LASF238
 2563 07f8 01        		.byte	0x1
 2564 07f9 7A02      		.word	0x27a
 2565 07fb 01        		.byte	0x1
GAS LISTING C:\Users\ADMINI~1\AppData\Local\Temp/ccRLNvvW.s 			page 46


 2566 07fc 0000 0000 		.long	.LFB17
 2567 0800 0000 0000 		.long	.LFE17
 2568 0804 02        		.byte	0x2
 2569 0805 90        		.byte	0x90
 2570 0806 20        		.uleb128 0x20
 2571 0807 2C08 0000 		.long	0x82c
 2572 080b 19        		.uleb128 0x19
 2573 080c 0000 0000 		.long	.LASF206
 2574 0810 01        		.byte	0x1
 2575 0811 7E02      		.word	0x27e
 2576 0813 7200 0000 		.long	0x72
 2577 0817 0000 0000 		.long	.LLST24
 2578 081b 19        		.uleb128 0x19
 2579 081c 0000 0000 		.long	.LASF207
 2580 0820 01        		.byte	0x1
 2581 0821 7F02      		.word	0x27f
 2582 0823 7200 0000 		.long	0x72
 2583 0827 0000 0000 		.long	.LLST25
 2584 082b 00        		.byte	0x0
 2585 082c 13        		.uleb128 0x13
 2586 082d 01        		.byte	0x1
 2587 082e 0000 0000 		.long	.LASF208
 2588 0832 01        		.byte	0x1
 2589 0833 8701      		.word	0x187
 2590 0835 01        		.byte	0x1
 2591 0836 0000 0000 		.long	.LFB10
 2592 083a 0000 0000 		.long	.LFE10
 2593 083e 02        		.byte	0x2
 2594 083f 90        		.byte	0x90
 2595 0840 20        		.uleb128 0x20
 2596 0841 14        		.uleb128 0x14
 2597 0842 01        		.byte	0x1
 2598 0843 0000 0000 		.long	.LASF209
 2599 0847 01        		.byte	0x1
 2600 0848 3C01      		.word	0x13c
 2601 084a 01        		.byte	0x1
 2602 084b 7200 0000 		.long	0x72
 2603 084f 0000 0000 		.long	.LFB8
 2604 0853 0000 0000 		.long	.LFE8
 2605 0857 02        		.byte	0x2
 2606 0858 90        		.byte	0x90
 2607 0859 20        		.uleb128 0x20
 2608 085a 7E08 0000 		.long	0x87e
 2609 085e 15        		.uleb128 0x15
 2610 085f 0000 0000 		.long	.LASF210
 2611 0863 01        		.byte	0x1
 2612 0864 3C01      		.word	0x13c
 2613 0866 EC07 0000 		.long	0x7ec
 2614 086a 0000 0000 		.long	.LLST28
 2615 086e 1B        		.uleb128 0x1b
 2616 086f 7271 00   		.string	"rq"
 2617 0872 01        		.byte	0x1
 2618 0873 4001      		.word	0x140
 2619 0875 7E08 0000 		.long	0x87e
 2620 0879 0000 0000 		.long	.LLST29
 2621 087d 00        		.byte	0x0
 2622 087e 1D        		.uleb128 0x1d
GAS LISTING C:\Users\ADMINI~1\AppData\Local\Temp/ccRLNvvW.s 			page 47


 2623 087f 02        		.byte	0x2
 2624 0880 B805 0000 		.long	0x5b8
 2625 0884 14        		.uleb128 0x14
 2626 0885 01        		.byte	0x1
 2627 0886 0000 0000 		.long	.LASF211
 2628 088a 01        		.byte	0x1
 2629 088b 7901      		.word	0x179
 2630 088d 01        		.byte	0x1
 2631 088e 7200 0000 		.long	0x72
 2632 0892 0000 0000 		.long	.LFB9
 2633 0896 0000 0000 		.long	.LFE9
 2634 089a 02        		.byte	0x2
 2635 089b 90        		.byte	0x90
 2636 089c 20        		.uleb128 0x20
 2637 089d C208 0000 		.long	0x8c2
 2638 08a1 15        		.uleb128 0x15
 2639 08a2 0000 0000 		.long	.LASF210
 2640 08a6 01        		.byte	0x1
 2641 08a7 7901      		.word	0x179
 2642 08a9 C208 0000 		.long	0x8c2
 2643 08ad 0000 0000 		.long	.LLST31
 2644 08b1 1F        		.uleb128 0x1f
 2645 08b2 6C65 6E00 		.string	"len"
 2646 08b6 01        		.byte	0x1
 2647 08b7 7901      		.word	0x179
 2648 08b9 2500 0000 		.long	0x25
 2649 08bd 0000 0000 		.long	.LLST32
 2650 08c1 00        		.byte	0x0
 2651 08c2 1D        		.uleb128 0x1d
 2652 08c3 02        		.byte	0x2
 2653 08c4 2500 0000 		.long	0x25
 2654 08c8 0C        		.uleb128 0xc
 2655 08c9 7200 0000 		.long	0x72
 2656 08cd D808 0000 		.long	0x8d8
 2657 08d1 0D        		.uleb128 0xd
 2658 08d2 0F05 0000 		.long	0x50f
 2659 08d6 07        		.byte	0x7
 2660 08d7 00        		.byte	0x0
 2661 08d8 20        		.uleb128 0x20
 2662 08d9 0000 0000 		.long	.LASF212
 2663 08dd 01        		.byte	0x1
 2664 08de EF        		.byte	0xef
 2665 08df C808 0000 		.long	0x8c8
 2666 08e3 05        		.byte	0x5
 2667 08e4 03        		.byte	0x3
 2668 08e5 0000 0000 		.long	reportBuffer
 2669 08e9 20        		.uleb128 0x20
 2670 08ea 0000 0000 		.long	.LASF213
 2671 08ee 01        		.byte	0x1
 2672 08ef F0        		.byte	0xf0
 2673 08f0 7200 0000 		.long	0x72
 2674 08f4 05        		.byte	0x5
 2675 08f5 03        		.byte	0x3
 2676 08f6 0000 0000 		.long	idleRate
 2677 08fa 20        		.uleb128 0x20
 2678 08fb 0000 0000 		.long	.LASF214
 2679 08ff 01        		.byte	0x1
GAS LISTING C:\Users\ADMINI~1\AppData\Local\Temp/ccRLNvvW.s 			page 48


 2680 0900 F1        		.byte	0xf1
 2681 0901 7200 0000 		.long	0x72
 2682 0905 05        		.byte	0x5
 2683 0906 03        		.byte	0x3
 2684 0907 0000 0000 		.long	protocolVer
 2685 090b 20        		.uleb128 0x20
 2686 090c 0000 0000 		.long	.LASF215
 2687 0910 01        		.byte	0x1
 2688 0911 F2        		.byte	0xf2
 2689 0912 7200 0000 		.long	0x72
 2690 0916 05        		.byte	0x5
 2691 0917 03        		.byte	0x3
 2692 0918 0000 0000 		.long	expectReport
 2693 091c 20        		.uleb128 0x20
 2694 091d 0000 0000 		.long	.LASF216
 2695 0921 01        		.byte	0x1
 2696 0922 F3        		.byte	0xf3
 2697 0923 7200 0000 		.long	0x72
 2698 0927 05        		.byte	0x5
 2699 0928 03        		.byte	0x3
 2700 0929 0000 0000 		.long	_isInit
 2701 092d 0C        		.uleb128 0xc
 2702 092e 7200 0000 		.long	0x72
 2703 0932 3D09 0000 		.long	0x93d
 2704 0936 0D        		.uleb128 0xd
 2705 0937 0F05 0000 		.long	0x50f
 2706 093b 2F        		.byte	0x2f
 2707 093c 00        		.byte	0x0
 2708 093d 20        		.uleb128 0x20
 2709 093e 0000 0000 		.long	.LASF217
 2710 0942 01        		.byte	0x1
 2711 0943 F5        		.byte	0xf5
 2712 0944 2D09 0000 		.long	0x92d
 2713 0948 05        		.byte	0x5
 2714 0949 03        		.byte	0x3
 2715 094a 0000 0000 		.long	_prevPressedBuffer
 2716 094e 1C        		.uleb128 0x1c
 2717 094f 0000 0000 		.long	.LASF218
 2718 0953 01        		.byte	0x1
 2719 0954 4702      		.word	0x247
 2720 0956 7200 0000 		.long	0x72
 2721 095a 05        		.byte	0x5
 2722 095b 03        		.byte	0x3
 2723 095c 0000 0000 		.long	_needRelease
 2724 0960 0C        		.uleb128 0xc
 2725 0961 7D00 0000 		.long	0x7d
 2726 0965 6B09 0000 		.long	0x96b
 2727 0969 21        		.uleb128 0x21
 2728 096a 00        		.byte	0x0
 2729 096b 22        		.uleb128 0x22
 2730 096c 0000 0000 		.long	.LASF219
 2731 0970 03        		.byte	0x3
 2732 0971 D2        		.byte	0xd2
 2733 0972 7809 0000 		.long	0x978
 2734 0976 01        		.byte	0x1
 2735 0977 01        		.byte	0x1
 2736 0978 23        		.uleb128 0x23
GAS LISTING C:\Users\ADMINI~1\AppData\Local\Temp/ccRLNvvW.s 			page 49


 2737 0979 6009 0000 		.long	0x960
 2738 097d 22        		.uleb128 0x22
 2739 097e 0000 0000 		.long	.LASF220
 2740 0982 03        		.byte	0x3
 2741 0983 D5        		.byte	0xd5
 2742 0984 8A09 0000 		.long	0x98a
 2743 0988 01        		.byte	0x1
 2744 0989 01        		.byte	0x1
 2745 098a 23        		.uleb128 0x23
 2746 098b 6009 0000 		.long	0x960
 2747 098f 22        		.uleb128 0x22
 2748 0990 0000 0000 		.long	.LASF221
 2749 0994 04        		.byte	0x4
 2750 0995 BF        		.byte	0xbf
 2751 0996 3300 0000 		.long	0x33
 2752 099a 01        		.byte	0x1
 2753 099b 01        		.byte	0x1
 2754 099c 0C        		.uleb128 0xc
 2755 099d 6400 0000 		.long	0x64
 2756 09a1 AC09 0000 		.long	0x9ac
 2757 09a5 0D        		.uleb128 0xd
 2758 09a6 0F05 0000 		.long	0x50f
 2759 09aa 54        		.byte	0x54
 2760 09ab 00        		.byte	0x0
 2761 09ac 24        		.uleb128 0x24
 2762 09ad 0000 0000 		.long	.LASF222
 2763 09b1 01        		.byte	0x1
 2764 09b2 0101      		.word	0x101
 2765 09b4 BF09 0000 		.long	0x9bf
 2766 09b8 01        		.byte	0x1
 2767 09b9 05        		.byte	0x5
 2768 09ba 03        		.byte	0x3
 2769 09bb 0000 0000 		.long	usbDescriptorHidReport
 2770 09bf 23        		.uleb128 0x23
 2771 09c0 9C09 0000 		.long	0x99c
 2772 09c4 25        		.uleb128 0x25
 2773 09c5 0000 0000 		.long	.LASF223
 2774 09c9 04        		.byte	0x4
 2775 09ca 9602      		.word	0x296
 2776 09cc 1205 0000 		.long	0x512
 2777 09d0 01        		.byte	0x1
 2778 09d1 01        		.byte	0x1
 2779 09d2 22        		.uleb128 0x22
 2780 09d3 0000 0000 		.long	.LASF224
 2781 09d7 05        		.byte	0x5
 2782 09d8 38        		.byte	0x38
 2783 09d9 6B00 0000 		.long	0x6b
 2784 09dd 01        		.byte	0x1
 2785 09de 01        		.byte	0x1
 2786 09df 22        		.uleb128 0x22
 2787 09e0 0000 0000 		.long	.LASF225
 2788 09e4 05        		.byte	0x5
 2789 09e5 39        		.byte	0x39
 2790 09e6 7200 0000 		.long	0x72
 2791 09ea 01        		.byte	0x1
 2792 09eb 01        		.byte	0x1
 2793 09ec 22        		.uleb128 0x22
GAS LISTING C:\Users\ADMINI~1\AppData\Local\Temp/ccRLNvvW.s 			page 50


 2794 09ed 0000 0000 		.long	.LASF226
 2795 09f1 05        		.byte	0x5
 2796 09f2 3B        		.byte	0x3b
 2797 09f3 7200 0000 		.long	0x72
 2798 09f7 01        		.byte	0x1
 2799 09f8 01        		.byte	0x1
 2800 09f9 22        		.uleb128 0x22
 2801 09fa 0000 0000 		.long	.LASF227
 2802 09fe 06        		.byte	0x6
 2803 09ff 0D        		.byte	0xd
 2804 0a00 7200 0000 		.long	0x72
 2805 0a04 01        		.byte	0x1
 2806 0a05 01        		.byte	0x1
 2807 0a06 0C        		.uleb128 0xc
 2808 0a07 3300 0000 		.long	0x33
 2809 0a0b 160A 0000 		.long	0xa16
 2810 0a0f 0D        		.uleb128 0xd
 2811 0a10 0F05 0000 		.long	0x50f
 2812 0a14 0F        		.byte	0xf
 2813 0a15 00        		.byte	0x0
 2814 0a16 22        		.uleb128 0x22
 2815 0a17 0000 0000 		.long	.LASF228
 2816 0a1b 06        		.byte	0x6
 2817 0a1c 0E        		.byte	0xe
 2818 0a1d 230A 0000 		.long	0xa23
 2819 0a21 01        		.byte	0x1
 2820 0a22 01        		.byte	0x1
 2821 0a23 23        		.uleb128 0x23
 2822 0a24 060A 0000 		.long	0xa06
 2823 0a28 0C        		.uleb128 0xc
 2824 0a29 7200 0000 		.long	0x72
 2825 0a2d 380A 0000 		.long	0xa38
 2826 0a31 0D        		.uleb128 0xd
 2827 0a32 0F05 0000 		.long	0x50f
 2828 0a36 10        		.byte	0x10
 2829 0a37 00        		.byte	0x0
 2830 0a38 22        		.uleb128 0x22
 2831 0a39 0000 0000 		.long	.LASF229
 2832 0a3d 06        		.byte	0x6
 2833 0a3e 0F        		.byte	0xf
 2834 0a3f 280A 0000 		.long	0xa28
 2835 0a43 01        		.byte	0x1
 2836 0a44 01        		.byte	0x1
 2837 0a45 22        		.uleb128 0x22
 2838 0a46 0000 0000 		.long	.LASF230
 2839 0a4a 07        		.byte	0x7
 2840 0a4b 19        		.byte	0x19
 2841 0a4c 2D09 0000 		.long	0x92d
 2842 0a50 01        		.byte	0x1
 2843 0a51 01        		.byte	0x1
 2844 0a52 24        		.uleb128 0x24
 2845 0a53 0000 0000 		.long	.LASF231
 2846 0a57 01        		.byte	0x1
 2847 0a58 9E01      		.word	0x19e
 2848 0a5a 7200 0000 		.long	0x72
 2849 0a5e 01        		.byte	0x1
 2850 0a5f 05        		.byte	0x5
GAS LISTING C:\Users\ADMINI~1\AppData\Local\Temp/ccRLNvvW.s 			page 51


 2851 0a60 03        		.byte	0x3
 2852 0a61 0000 0000 		.long	reportIndex
 2853 0a65 24        		.uleb128 0x24
 2854 0a66 0000 0000 		.long	.LASF232
 2855 0a6a 01        		.byte	0x1
 2856 0a6b 9F01      		.word	0x19f
 2857 0a6d 7200 0000 		.long	0x72
 2858 0a71 01        		.byte	0x1
 2859 0a72 05        		.byte	0x5
 2860 0a73 03        		.byte	0x3
 2861 0a74 0000 0000 		.long	_isMultimediaPressed
 2862 0a78 00        		.byte	0x0
 2863               		.section	.debug_abbrev
 2864 0000 01        		.uleb128 0x1
 2865 0001 11        		.uleb128 0x11
 2866 0002 01        		.byte	0x1
 2867 0003 25        		.uleb128 0x25
 2868 0004 0E        		.uleb128 0xe
 2869 0005 13        		.uleb128 0x13
 2870 0006 0B        		.uleb128 0xb
 2871 0007 03        		.uleb128 0x3
 2872 0008 0E        		.uleb128 0xe
 2873 0009 1B        		.uleb128 0x1b
 2874 000a 0E        		.uleb128 0xe
 2875 000b 11        		.uleb128 0x11
 2876 000c 01        		.uleb128 0x1
 2877 000d 12        		.uleb128 0x12
 2878 000e 01        		.uleb128 0x1
 2879 000f 10        		.uleb128 0x10
 2880 0010 06        		.uleb128 0x6
 2881 0011 00        		.byte	0x0
 2882 0012 00        		.byte	0x0
 2883 0013 02        		.uleb128 0x2
 2884 0014 24        		.uleb128 0x24
 2885 0015 00        		.byte	0x0
 2886 0016 0B        		.uleb128 0xb
 2887 0017 0B        		.uleb128 0xb
 2888 0018 3E        		.uleb128 0x3e
 2889 0019 0B        		.uleb128 0xb
 2890 001a 03        		.uleb128 0x3
 2891 001b 0E        		.uleb128 0xe
 2892 001c 00        		.byte	0x0
 2893 001d 00        		.byte	0x0
 2894 001e 03        		.uleb128 0x3
 2895 001f 24        		.uleb128 0x24
 2896 0020 00        		.byte	0x0
 2897 0021 0B        		.uleb128 0xb
 2898 0022 0B        		.uleb128 0xb
 2899 0023 3E        		.uleb128 0x3e
 2900 0024 0B        		.uleb128 0xb
 2901 0025 03        		.uleb128 0x3
 2902 0026 08        		.uleb128 0x8
 2903 0027 00        		.byte	0x0
 2904 0028 00        		.byte	0x0
 2905 0029 04        		.uleb128 0x4
 2906 002a 16        		.uleb128 0x16
 2907 002b 00        		.byte	0x0
GAS LISTING C:\Users\ADMINI~1\AppData\Local\Temp/ccRLNvvW.s 			page 52


 2908 002c 03        		.uleb128 0x3
 2909 002d 0E        		.uleb128 0xe
 2910 002e 3A        		.uleb128 0x3a
 2911 002f 0B        		.uleb128 0xb
 2912 0030 3B        		.uleb128 0x3b
 2913 0031 0B        		.uleb128 0xb
 2914 0032 49        		.uleb128 0x49
 2915 0033 13        		.uleb128 0x13
 2916 0034 00        		.byte	0x0
 2917 0035 00        		.byte	0x0
 2918 0036 05        		.uleb128 0x5
 2919 0037 24        		.uleb128 0x24
 2920 0038 00        		.byte	0x0
 2921 0039 0B        		.uleb128 0xb
 2922 003a 0B        		.uleb128 0xb
 2923 003b 3E        		.uleb128 0x3e
 2924 003c 0B        		.uleb128 0xb
 2925 003d 00        		.byte	0x0
 2926 003e 00        		.byte	0x0
 2927 003f 06        		.uleb128 0x6
 2928 0040 04        		.uleb128 0x4
 2929 0041 01        		.byte	0x1
 2930 0042 0B        		.uleb128 0xb
 2931 0043 0B        		.uleb128 0xb
 2932 0044 3A        		.uleb128 0x3a
 2933 0045 0B        		.uleb128 0xb
 2934 0046 3B        		.uleb128 0x3b
 2935 0047 0B        		.uleb128 0xb
 2936 0048 01        		.uleb128 0x1
 2937 0049 13        		.uleb128 0x13
 2938 004a 00        		.byte	0x0
 2939 004b 00        		.byte	0x0
 2940 004c 07        		.uleb128 0x7
 2941 004d 28        		.uleb128 0x28
 2942 004e 00        		.byte	0x0
 2943 004f 03        		.uleb128 0x3
 2944 0050 0E        		.uleb128 0xe
 2945 0051 1C        		.uleb128 0x1c
 2946 0052 0D        		.uleb128 0xd
 2947 0053 00        		.byte	0x0
 2948 0054 00        		.byte	0x0
 2949 0055 08        		.uleb128 0x8
 2950 0056 13        		.uleb128 0x13
 2951 0057 01        		.byte	0x1
 2952 0058 03        		.uleb128 0x3
 2953 0059 0E        		.uleb128 0xe
 2954 005a 0B        		.uleb128 0xb
 2955 005b 0B        		.uleb128 0xb
 2956 005c 3A        		.uleb128 0x3a
 2957 005d 0B        		.uleb128 0xb
 2958 005e 3B        		.uleb128 0x3b
 2959 005f 05        		.uleb128 0x5
 2960 0060 01        		.uleb128 0x1
 2961 0061 13        		.uleb128 0x13
 2962 0062 00        		.byte	0x0
 2963 0063 00        		.byte	0x0
 2964 0064 09        		.uleb128 0x9
GAS LISTING C:\Users\ADMINI~1\AppData\Local\Temp/ccRLNvvW.s 			page 53


 2965 0065 0D        		.uleb128 0xd
 2966 0066 00        		.byte	0x0
 2967 0067 03        		.uleb128 0x3
 2968 0068 08        		.uleb128 0x8
 2969 0069 3A        		.uleb128 0x3a
 2970 006a 0B        		.uleb128 0xb
 2971 006b 3B        		.uleb128 0x3b
 2972 006c 05        		.uleb128 0x5
 2973 006d 49        		.uleb128 0x49
 2974 006e 13        		.uleb128 0x13
 2975 006f 38        		.uleb128 0x38
 2976 0070 0A        		.uleb128 0xa
 2977 0071 00        		.byte	0x0
 2978 0072 00        		.byte	0x0
 2979 0073 0A        		.uleb128 0xa
 2980 0074 0D        		.uleb128 0xd
 2981 0075 00        		.byte	0x0
 2982 0076 03        		.uleb128 0x3
 2983 0077 0E        		.uleb128 0xe
 2984 0078 3A        		.uleb128 0x3a
 2985 0079 0B        		.uleb128 0xb
 2986 007a 3B        		.uleb128 0x3b
 2987 007b 05        		.uleb128 0x5
 2988 007c 49        		.uleb128 0x49
 2989 007d 13        		.uleb128 0x13
 2990 007e 38        		.uleb128 0x38
 2991 007f 0A        		.uleb128 0xa
 2992 0080 00        		.byte	0x0
 2993 0081 00        		.byte	0x0
 2994 0082 0B        		.uleb128 0xb
 2995 0083 35        		.uleb128 0x35
 2996 0084 00        		.byte	0x0
 2997 0085 49        		.uleb128 0x49
 2998 0086 13        		.uleb128 0x13
 2999 0087 00        		.byte	0x0
 3000 0088 00        		.byte	0x0
 3001 0089 0C        		.uleb128 0xc
 3002 008a 01        		.uleb128 0x1
 3003 008b 01        		.byte	0x1
 3004 008c 49        		.uleb128 0x49
 3005 008d 13        		.uleb128 0x13
 3006 008e 01        		.uleb128 0x1
 3007 008f 13        		.uleb128 0x13
 3008 0090 00        		.byte	0x0
 3009 0091 00        		.byte	0x0
 3010 0092 0D        		.uleb128 0xd
 3011 0093 21        		.uleb128 0x21
 3012 0094 00        		.byte	0x0
 3013 0095 49        		.uleb128 0x49
 3014 0096 13        		.uleb128 0x13
 3015 0097 2F        		.uleb128 0x2f
 3016 0098 0B        		.uleb128 0xb
 3017 0099 00        		.byte	0x0
 3018 009a 00        		.byte	0x0
 3019 009b 0E        		.uleb128 0xe
 3020 009c 16        		.uleb128 0x16
 3021 009d 00        		.byte	0x0
GAS LISTING C:\Users\ADMINI~1\AppData\Local\Temp/ccRLNvvW.s 			page 54


 3022 009e 03        		.uleb128 0x3
 3023 009f 0E        		.uleb128 0xe
 3024 00a0 3A        		.uleb128 0x3a
 3025 00a1 0B        		.uleb128 0xb
 3026 00a2 3B        		.uleb128 0x3b
 3027 00a3 05        		.uleb128 0x5
 3028 00a4 49        		.uleb128 0x49
 3029 00a5 13        		.uleb128 0x13
 3030 00a6 00        		.byte	0x0
 3031 00a7 00        		.byte	0x0
 3032 00a8 0F        		.uleb128 0xf
 3033 00a9 17        		.uleb128 0x17
 3034 00aa 01        		.byte	0x1
 3035 00ab 03        		.uleb128 0x3
 3036 00ac 0E        		.uleb128 0xe
 3037 00ad 0B        		.uleb128 0xb
 3038 00ae 0B        		.uleb128 0xb
 3039 00af 3A        		.uleb128 0x3a
 3040 00b0 0B        		.uleb128 0xb
 3041 00b1 3B        		.uleb128 0x3b
 3042 00b2 05        		.uleb128 0x5
 3043 00b3 01        		.uleb128 0x1
 3044 00b4 13        		.uleb128 0x13
 3045 00b5 00        		.byte	0x0
 3046 00b6 00        		.byte	0x0
 3047 00b7 10        		.uleb128 0x10
 3048 00b8 0D        		.uleb128 0xd
 3049 00b9 00        		.byte	0x0
 3050 00ba 03        		.uleb128 0x3
 3051 00bb 0E        		.uleb128 0xe
 3052 00bc 3A        		.uleb128 0x3a
 3053 00bd 0B        		.uleb128 0xb
 3054 00be 3B        		.uleb128 0x3b
 3055 00bf 05        		.uleb128 0x5
 3056 00c0 49        		.uleb128 0x49
 3057 00c1 13        		.uleb128 0x13
 3058 00c2 00        		.byte	0x0
 3059 00c3 00        		.byte	0x0
 3060 00c4 11        		.uleb128 0x11
 3061 00c5 13        		.uleb128 0x13
 3062 00c6 01        		.byte	0x1
 3063 00c7 03        		.uleb128 0x3
 3064 00c8 0E        		.uleb128 0xe
 3065 00c9 0B        		.uleb128 0xb
 3066 00ca 0B        		.uleb128 0xb
 3067 00cb 3A        		.uleb128 0x3a
 3068 00cc 0B        		.uleb128 0xb
 3069 00cd 3B        		.uleb128 0x3b
 3070 00ce 0B        		.uleb128 0xb
 3071 00cf 01        		.uleb128 0x1
 3072 00d0 13        		.uleb128 0x13
 3073 00d1 00        		.byte	0x0
 3074 00d2 00        		.byte	0x0
 3075 00d3 12        		.uleb128 0x12
 3076 00d4 2E        		.uleb128 0x2e
 3077 00d5 00        		.byte	0x0
 3078 00d6 3F        		.uleb128 0x3f
GAS LISTING C:\Users\ADMINI~1\AppData\Local\Temp/ccRLNvvW.s 			page 55


 3079 00d7 0C        		.uleb128 0xc
 3080 00d8 03        		.uleb128 0x3
 3081 00d9 0E        		.uleb128 0xe
 3082 00da 3A        		.uleb128 0x3a
 3083 00db 0B        		.uleb128 0xb
 3084 00dc 3B        		.uleb128 0x3b
 3085 00dd 05        		.uleb128 0x5
 3086 00de 27        		.uleb128 0x27
 3087 00df 0C        		.uleb128 0xc
 3088 00e0 49        		.uleb128 0x49
 3089 00e1 13        		.uleb128 0x13
 3090 00e2 11        		.uleb128 0x11
 3091 00e3 01        		.uleb128 0x1
 3092 00e4 12        		.uleb128 0x12
 3093 00e5 01        		.uleb128 0x1
 3094 00e6 40        		.uleb128 0x40
 3095 00e7 0A        		.uleb128 0xa
 3096 00e8 00        		.byte	0x0
 3097 00e9 00        		.byte	0x0
 3098 00ea 13        		.uleb128 0x13
 3099 00eb 2E        		.uleb128 0x2e
 3100 00ec 00        		.byte	0x0
 3101 00ed 3F        		.uleb128 0x3f
 3102 00ee 0C        		.uleb128 0xc
 3103 00ef 03        		.uleb128 0x3
 3104 00f0 0E        		.uleb128 0xe
 3105 00f1 3A        		.uleb128 0x3a
 3106 00f2 0B        		.uleb128 0xb
 3107 00f3 3B        		.uleb128 0x3b
 3108 00f4 05        		.uleb128 0x5
 3109 00f5 27        		.uleb128 0x27
 3110 00f6 0C        		.uleb128 0xc
 3111 00f7 11        		.uleb128 0x11
 3112 00f8 01        		.uleb128 0x1
 3113 00f9 12        		.uleb128 0x12
 3114 00fa 01        		.uleb128 0x1
 3115 00fb 40        		.uleb128 0x40
 3116 00fc 0A        		.uleb128 0xa
 3117 00fd 00        		.byte	0x0
 3118 00fe 00        		.byte	0x0
 3119 00ff 14        		.uleb128 0x14
 3120 0100 2E        		.uleb128 0x2e
 3121 0101 01        		.byte	0x1
 3122 0102 3F        		.uleb128 0x3f
 3123 0103 0C        		.uleb128 0xc
 3124 0104 03        		.uleb128 0x3
 3125 0105 0E        		.uleb128 0xe
 3126 0106 3A        		.uleb128 0x3a
 3127 0107 0B        		.uleb128 0xb
 3128 0108 3B        		.uleb128 0x3b
 3129 0109 05        		.uleb128 0x5
 3130 010a 27        		.uleb128 0x27
 3131 010b 0C        		.uleb128 0xc
 3132 010c 49        		.uleb128 0x49
 3133 010d 13        		.uleb128 0x13
 3134 010e 11        		.uleb128 0x11
 3135 010f 01        		.uleb128 0x1
GAS LISTING C:\Users\ADMINI~1\AppData\Local\Temp/ccRLNvvW.s 			page 56


 3136 0110 12        		.uleb128 0x12
 3137 0111 01        		.uleb128 0x1
 3138 0112 40        		.uleb128 0x40
 3139 0113 0A        		.uleb128 0xa
 3140 0114 01        		.uleb128 0x1
 3141 0115 13        		.uleb128 0x13
 3142 0116 00        		.byte	0x0
 3143 0117 00        		.byte	0x0
 3144 0118 15        		.uleb128 0x15
 3145 0119 05        		.uleb128 0x5
 3146 011a 00        		.byte	0x0
 3147 011b 03        		.uleb128 0x3
 3148 011c 0E        		.uleb128 0xe
 3149 011d 3A        		.uleb128 0x3a
 3150 011e 0B        		.uleb128 0xb
 3151 011f 3B        		.uleb128 0x3b
 3152 0120 05        		.uleb128 0x5
 3153 0121 49        		.uleb128 0x49
 3154 0122 13        		.uleb128 0x13
 3155 0123 02        		.uleb128 0x2
 3156 0124 06        		.uleb128 0x6
 3157 0125 00        		.byte	0x0
 3158 0126 00        		.byte	0x0
 3159 0127 16        		.uleb128 0x16
 3160 0128 34        		.uleb128 0x34
 3161 0129 00        		.byte	0x0
 3162 012a 03        		.uleb128 0x3
 3163 012b 0E        		.uleb128 0xe
 3164 012c 3A        		.uleb128 0x3a
 3165 012d 0B        		.uleb128 0xb
 3166 012e 3B        		.uleb128 0x3b
 3167 012f 05        		.uleb128 0x5
 3168 0130 49        		.uleb128 0x49
 3169 0131 13        		.uleb128 0x13
 3170 0132 00        		.byte	0x0
 3171 0133 00        		.byte	0x0
 3172 0134 17        		.uleb128 0x17
 3173 0135 0B        		.uleb128 0xb
 3174 0136 01        		.byte	0x1
 3175 0137 11        		.uleb128 0x11
 3176 0138 01        		.uleb128 0x1
 3177 0139 12        		.uleb128 0x12
 3178 013a 01        		.uleb128 0x1
 3179 013b 01        		.uleb128 0x1
 3180 013c 13        		.uleb128 0x13
 3181 013d 00        		.byte	0x0
 3182 013e 00        		.byte	0x0
 3183 013f 18        		.uleb128 0x18
 3184 0140 0B        		.uleb128 0xb
 3185 0141 01        		.byte	0x1
 3186 0142 11        		.uleb128 0x11
 3187 0143 01        		.uleb128 0x1
 3188 0144 12        		.uleb128 0x12
 3189 0145 01        		.uleb128 0x1
 3190 0146 00        		.byte	0x0
 3191 0147 00        		.byte	0x0
 3192 0148 19        		.uleb128 0x19
GAS LISTING C:\Users\ADMINI~1\AppData\Local\Temp/ccRLNvvW.s 			page 57


 3193 0149 34        		.uleb128 0x34
 3194 014a 00        		.byte	0x0
 3195 014b 03        		.uleb128 0x3
 3196 014c 0E        		.uleb128 0xe
 3197 014d 3A        		.uleb128 0x3a
 3198 014e 0B        		.uleb128 0xb
 3199 014f 3B        		.uleb128 0x3b
 3200 0150 05        		.uleb128 0x5
 3201 0151 49        		.uleb128 0x49
 3202 0152 13        		.uleb128 0x13
 3203 0153 02        		.uleb128 0x2
 3204 0154 06        		.uleb128 0x6
 3205 0155 00        		.byte	0x0
 3206 0156 00        		.byte	0x0
 3207 0157 1A        		.uleb128 0x1a
 3208 0158 34        		.uleb128 0x34
 3209 0159 00        		.byte	0x0
 3210 015a 03        		.uleb128 0x3
 3211 015b 08        		.uleb128 0x8
 3212 015c 3A        		.uleb128 0x3a
 3213 015d 0B        		.uleb128 0xb
 3214 015e 3B        		.uleb128 0x3b
 3215 015f 05        		.uleb128 0x5
 3216 0160 49        		.uleb128 0x49
 3217 0161 13        		.uleb128 0x13
 3218 0162 00        		.byte	0x0
 3219 0163 00        		.byte	0x0
 3220 0164 1B        		.uleb128 0x1b
 3221 0165 34        		.uleb128 0x34
 3222 0166 00        		.byte	0x0
 3223 0167 03        		.uleb128 0x3
 3224 0168 08        		.uleb128 0x8
 3225 0169 3A        		.uleb128 0x3a
 3226 016a 0B        		.uleb128 0xb
 3227 016b 3B        		.uleb128 0x3b
 3228 016c 05        		.uleb128 0x5
 3229 016d 49        		.uleb128 0x49
 3230 016e 13        		.uleb128 0x13
 3231 016f 02        		.uleb128 0x2
 3232 0170 06        		.uleb128 0x6
 3233 0171 00        		.byte	0x0
 3234 0172 00        		.byte	0x0
 3235 0173 1C        		.uleb128 0x1c
 3236 0174 34        		.uleb128 0x34
 3237 0175 00        		.byte	0x0
 3238 0176 03        		.uleb128 0x3
 3239 0177 0E        		.uleb128 0xe
 3240 0178 3A        		.uleb128 0x3a
 3241 0179 0B        		.uleb128 0xb
 3242 017a 3B        		.uleb128 0x3b
 3243 017b 05        		.uleb128 0x5
 3244 017c 49        		.uleb128 0x49
 3245 017d 13        		.uleb128 0x13
 3246 017e 02        		.uleb128 0x2
 3247 017f 0A        		.uleb128 0xa
 3248 0180 00        		.byte	0x0
 3249 0181 00        		.byte	0x0
GAS LISTING C:\Users\ADMINI~1\AppData\Local\Temp/ccRLNvvW.s 			page 58


 3250 0182 1D        		.uleb128 0x1d
 3251 0183 0F        		.uleb128 0xf
 3252 0184 00        		.byte	0x0
 3253 0185 0B        		.uleb128 0xb
 3254 0186 0B        		.uleb128 0xb
 3255 0187 49        		.uleb128 0x49
 3256 0188 13        		.uleb128 0x13
 3257 0189 00        		.byte	0x0
 3258 018a 00        		.byte	0x0
 3259 018b 1E        		.uleb128 0x1e
 3260 018c 2E        		.uleb128 0x2e
 3261 018d 01        		.byte	0x1
 3262 018e 3F        		.uleb128 0x3f
 3263 018f 0C        		.uleb128 0xc
 3264 0190 03        		.uleb128 0x3
 3265 0191 0E        		.uleb128 0xe
 3266 0192 3A        		.uleb128 0x3a
 3267 0193 0B        		.uleb128 0xb
 3268 0194 3B        		.uleb128 0x3b
 3269 0195 05        		.uleb128 0x5
 3270 0196 27        		.uleb128 0x27
 3271 0197 0C        		.uleb128 0xc
 3272 0198 11        		.uleb128 0x11
 3273 0199 01        		.uleb128 0x1
 3274 019a 12        		.uleb128 0x12
 3275 019b 01        		.uleb128 0x1
 3276 019c 40        		.uleb128 0x40
 3277 019d 0A        		.uleb128 0xa
 3278 019e 01        		.uleb128 0x1
 3279 019f 13        		.uleb128 0x13
 3280 01a0 00        		.byte	0x0
 3281 01a1 00        		.byte	0x0
 3282 01a2 1F        		.uleb128 0x1f
 3283 01a3 05        		.uleb128 0x5
 3284 01a4 00        		.byte	0x0
 3285 01a5 03        		.uleb128 0x3
 3286 01a6 08        		.uleb128 0x8
 3287 01a7 3A        		.uleb128 0x3a
 3288 01a8 0B        		.uleb128 0xb
 3289 01a9 3B        		.uleb128 0x3b
 3290 01aa 05        		.uleb128 0x5
 3291 01ab 49        		.uleb128 0x49
 3292 01ac 13        		.uleb128 0x13
 3293 01ad 02        		.uleb128 0x2
 3294 01ae 06        		.uleb128 0x6
 3295 01af 00        		.byte	0x0
 3296 01b0 00        		.byte	0x0
 3297 01b1 20        		.uleb128 0x20
 3298 01b2 34        		.uleb128 0x34
 3299 01b3 00        		.byte	0x0
 3300 01b4 03        		.uleb128 0x3
 3301 01b5 0E        		.uleb128 0xe
 3302 01b6 3A        		.uleb128 0x3a
 3303 01b7 0B        		.uleb128 0xb
 3304 01b8 3B        		.uleb128 0x3b
 3305 01b9 0B        		.uleb128 0xb
 3306 01ba 49        		.uleb128 0x49
GAS LISTING C:\Users\ADMINI~1\AppData\Local\Temp/ccRLNvvW.s 			page 59


 3307 01bb 13        		.uleb128 0x13
 3308 01bc 02        		.uleb128 0x2
 3309 01bd 0A        		.uleb128 0xa
 3310 01be 00        		.byte	0x0
 3311 01bf 00        		.byte	0x0
 3312 01c0 21        		.uleb128 0x21
 3313 01c1 21        		.uleb128 0x21
 3314 01c2 00        		.byte	0x0
 3315 01c3 00        		.byte	0x0
 3316 01c4 00        		.byte	0x0
 3317 01c5 22        		.uleb128 0x22
 3318 01c6 34        		.uleb128 0x34
 3319 01c7 00        		.byte	0x0
 3320 01c8 03        		.uleb128 0x3
 3321 01c9 0E        		.uleb128 0xe
 3322 01ca 3A        		.uleb128 0x3a
 3323 01cb 0B        		.uleb128 0xb
 3324 01cc 3B        		.uleb128 0x3b
 3325 01cd 0B        		.uleb128 0xb
 3326 01ce 49        		.uleb128 0x49
 3327 01cf 13        		.uleb128 0x13
 3328 01d0 3F        		.uleb128 0x3f
 3329 01d1 0C        		.uleb128 0xc
 3330 01d2 3C        		.uleb128 0x3c
 3331 01d3 0C        		.uleb128 0xc
 3332 01d4 00        		.byte	0x0
 3333 01d5 00        		.byte	0x0
 3334 01d6 23        		.uleb128 0x23
 3335 01d7 26        		.uleb128 0x26
 3336 01d8 00        		.byte	0x0
 3337 01d9 49        		.uleb128 0x49
 3338 01da 13        		.uleb128 0x13
 3339 01db 00        		.byte	0x0
 3340 01dc 00        		.byte	0x0
 3341 01dd 24        		.uleb128 0x24
 3342 01de 34        		.uleb128 0x34
 3343 01df 00        		.byte	0x0
 3344 01e0 03        		.uleb128 0x3
 3345 01e1 0E        		.uleb128 0xe
 3346 01e2 3A        		.uleb128 0x3a
 3347 01e3 0B        		.uleb128 0xb
 3348 01e4 3B        		.uleb128 0x3b
 3349 01e5 05        		.uleb128 0x5
 3350 01e6 49        		.uleb128 0x49
 3351 01e7 13        		.uleb128 0x13
 3352 01e8 3F        		.uleb128 0x3f
 3353 01e9 0C        		.uleb128 0xc
 3354 01ea 02        		.uleb128 0x2
 3355 01eb 0A        		.uleb128 0xa
 3356 01ec 00        		.byte	0x0
 3357 01ed 00        		.byte	0x0
 3358 01ee 25        		.uleb128 0x25
 3359 01ef 34        		.uleb128 0x34
 3360 01f0 00        		.byte	0x0
 3361 01f1 03        		.uleb128 0x3
 3362 01f2 0E        		.uleb128 0xe
 3363 01f3 3A        		.uleb128 0x3a
GAS LISTING C:\Users\ADMINI~1\AppData\Local\Temp/ccRLNvvW.s 			page 60


 3364 01f4 0B        		.uleb128 0xb
 3365 01f5 3B        		.uleb128 0x3b
 3366 01f6 05        		.uleb128 0x5
 3367 01f7 49        		.uleb128 0x49
 3368 01f8 13        		.uleb128 0x13
 3369 01f9 3F        		.uleb128 0x3f
 3370 01fa 0C        		.uleb128 0xc
 3371 01fb 3C        		.uleb128 0x3c
 3372 01fc 0C        		.uleb128 0xc
 3373 01fd 00        		.byte	0x0
 3374 01fe 00        		.byte	0x0
 3375 01ff 00        		.byte	0x0
 3376               		.section	.debug_pubnames,"",@progbits
 3377 0000 1201 0000 		.long	0x112
 3378 0004 0200      		.word	0x2
 3379 0006 0000 0000 		.long	.Ldebug_info0
 3380 000a 790A 0000 		.long	0xa79
 3381 000e C405 0000 		.long	0x5c4
 3382 0012 6861 734D 		.string	"hasMacroUsb"
 3382      6163 726F 
 3382      5573 6200 
 3383 001e DD05 0000 		.long	0x5dd
 3384 0022 636C 6561 		.string	"clearReportBuffer"
 3384      7252 6570 
 3384      6F72 7442 
 3384      7566 6665 
 3384      7200 
 3385 0034 F205 0000 		.long	0x5f2
 3386 0038 7072 6570 		.string	"prepareKeyMappingUsb"
 3386      6172 654B 
 3386      6579 4D61 
 3386      7070 696E 
 3386      6755 7362 
 3387 004d 0706 0000 		.long	0x607
 3388 0051 6D61 6B65 		.string	"makeReportBuffer"
 3388      5265 706F 
 3388      7274 4275 
 3388      6666 6572 
 3388      00
 3389 0062 BF06 0000 		.long	0x6bf
 3390 0066 7363 616E 		.string	"scanMacroUsb"
 3390      4D61 6372 
 3390      6F55 7362 
 3390      00
 3391 0073 1D07 0000 		.long	0x71d
 3392 0077 7363 616E 		.string	"scanKeyUSB"
 3392      4B65 7955 
 3392      5342 00
 3393 0082 F207 0000 		.long	0x7f2
 3394 0086 7573 625F 		.string	"usb_main"
 3394      6D61 696E 
 3394      00
 3395 008f 2C08 0000 		.long	0x82c
 3396 0093 696E 6974 		.string	"initInterfaceUsb"
 3396      496E 7465 
 3396      7266 6163 
 3396      6555 7362 
GAS LISTING C:\Users\ADMINI~1\AppData\Local\Temp/ccRLNvvW.s 			page 61


 3396      00
 3397 00a4 4108 0000 		.long	0x841
 3398 00a8 7573 6246 		.string	"usbFunctionSetup"
 3398      756E 6374 
 3398      696F 6E53 
 3398      6574 7570 
 3398      00
 3399 00b9 8408 0000 		.long	0x884
 3400 00bd 7573 6246 		.string	"usbFunctionWrite"
 3400      756E 6374 
 3400      696F 6E57 
 3400      7269 7465 
 3400      00
 3401 00ce AC09 0000 		.long	0x9ac
 3402 00d2 7573 6244 		.string	"usbDescriptorHidReport"
 3402      6573 6372 
 3402      6970 746F 
 3402      7248 6964 
 3402      5265 706F 
 3403 00e9 520A 0000 		.long	0xa52
 3404 00ed 7265 706F 		.string	"reportIndex"
 3404      7274 496E 
 3404      6465 7800 
 3405 00f9 650A 0000 		.long	0xa65
 3406 00fd 5F69 734D 		.string	"_isMultimediaPressed"
 3406      756C 7469 
 3406      6D65 6469 
 3406      6150 7265 
 3406      7373 6564 
 3407 0112 0000 0000 		.long	0x0
 3408               		.section	.debug_aranges,"",@progbits
 3409 0000 1C00 0000 		.long	0x1c
 3410 0004 0200      		.word	0x2
 3411 0006 0000 0000 		.long	.Ldebug_info0
 3412 000a 04        		.byte	0x4
 3413 000b 00        		.byte	0x0
 3414 000c 0000      		.word	0x0
 3415 000e 0000      		.word	0x0
 3416 0010 0000 0000 		.long	.Ltext0
 3417 0014 6805 0000 		.long	.Letext0-.Ltext0
 3418 0018 0000 0000 		.long	0x0
 3419 001c 0000 0000 		.long	0x0
 3420               		.section	.debug_line
 3421 0000 F305 0000 		.long	.LELT0-.LSLT0
 3422               	.LSLT0:
 3423 0004 0200      		.word	0x2
 3424 0006 A700 0000 		.long	.LELTP0-.LASLTP0
 3425               	.LASLTP0:
 3426 000a 01        		.byte	0x1
 3427 000b 01        		.byte	0x1
 3428 000c F6        		.byte	0xf6
 3429 000d F5        		.byte	0xf5
 3430 000e 0A        		.byte	0xa
 3431 000f 00        		.byte	0x0
 3432 0010 01        		.byte	0x1
 3433 0011 01        		.byte	0x1
 3434 0012 01        		.byte	0x1
GAS LISTING C:\Users\ADMINI~1\AppData\Local\Temp/ccRLNvvW.s 			page 62


 3435 0013 01        		.byte	0x1
 3436 0014 00        		.byte	0x0
 3437 0015 00        		.byte	0x0
 3438 0016 00        		.byte	0x0
 3439 0017 01        		.byte	0x1
 3440 0018 633A 2F77 		.ascii	"c:/winavr-20100110/lib/gcc/../../avr/include"
 3440      696E 6176 
 3440      722D 3230 
 3440      3130 3031 
 3440      3130 2F6C 
 3441 0044 00        		.byte	0
 3442 0045 7573 6264 		.ascii	"usbdrv"
 3442      7276 
 3443 004b 00        		.byte	0
 3444 004c 00        		.byte	0x0
 3445 004d 7573 626D 		.string	"usbmain.c"
 3445      6169 6E2E 
 3445      6300 
 3446 0057 00        		.uleb128 0x0
 3447 0058 00        		.uleb128 0x0
 3448 0059 00        		.uleb128 0x0
 3449 005a 7374 6469 		.string	"stdint.h"
 3449      6E74 2E68 
 3449      00
 3450 0063 01        		.uleb128 0x1
 3451 0064 00        		.uleb128 0x0
 3452 0065 00        		.uleb128 0x0
 3453 0066 6B65 796D 		.string	"keymap.h"
 3453      6170 2E68 
 3453      00
 3454 006f 00        		.uleb128 0x0
 3455 0070 00        		.uleb128 0x0
 3456 0071 00        		.uleb128 0x0
 3457 0072 7573 6264 		.string	"usbdrv.h"
 3457      7276 2E68 
 3457      00
 3458 007b 02        		.uleb128 0x2
 3459 007c 00        		.uleb128 0x0
 3460 007d 00        		.uleb128 0x0
 3461 007e 6861 7264 		.string	"hardwareinfo.h"
 3461      7761 7265 
 3461      696E 666F 
 3461      2E68 00
 3462 008d 00        		.uleb128 0x0
 3463 008e 00        		.uleb128 0x0
 3464 008f 00        		.uleb128 0x0
 3465 0090 6B65 796D 		.string	"keymatrix.h"
 3465      6174 7269 
 3465      782E 6800 
 3466 009c 00        		.uleb128 0x0
 3467 009d 00        		.uleb128 0x0
 3468 009e 00        		.uleb128 0x0
 3469 009f 6D61 6372 		.string	"macrobuffer.h"
 3469      6F62 7566 
 3469      6665 722E 
 3469      6800 
 3470 00ad 00        		.uleb128 0x0
GAS LISTING C:\Users\ADMINI~1\AppData\Local\Temp/ccRLNvvW.s 			page 63


 3471 00ae 00        		.uleb128 0x0
 3472 00af 00        		.uleb128 0x0
 3473 00b0 00        		.byte	0x0
 3474               	.LELTP0:
 3475 00b1 00        		.byte	0x0
 3476 00b2 05        		.uleb128 0x5
 3477 00b3 02        		.byte	0x2
 3478 00b4 0000 0000 		.long	.LM1
 3479 00b8 03        		.byte	0x3
 3480 00b9 F004      		.sleb128 624
 3481 00bb 01        		.byte	0x1
 3482 00bc 00        		.byte	0x0
 3483 00bd 05        		.uleb128 0x5
 3484 00be 02        		.byte	0x2
 3485 00bf 0000 0000 		.long	.LM2
 3486 00c3 15        		.byte	0x15
 3487 00c4 00        		.byte	0x0
 3488 00c5 05        		.uleb128 0x5
 3489 00c6 02        		.byte	0x2
 3490 00c7 0000 0000 		.long	.LM3
 3491 00cb 15        		.byte	0x15
 3492 00cc 00        		.byte	0x0
 3493 00cd 05        		.uleb128 0x5
 3494 00ce 02        		.byte	0x2
 3495 00cf 0000 0000 		.long	.LM4
 3496 00d3 03        		.byte	0x3
 3497 00d4 DC7E      		.sleb128 -164
 3498 00d6 01        		.byte	0x1
 3499 00d7 00        		.byte	0x0
 3500 00d8 05        		.uleb128 0x5
 3501 00d9 02        		.byte	0x2
 3502 00da 0000 0000 		.long	.LM5
 3503 00de 15        		.byte	0x15
 3504 00df 00        		.byte	0x0
 3505 00e0 05        		.uleb128 0x5
 3506 00e1 02        		.byte	0x2
 3507 00e2 0000 0000 		.long	.LM6
 3508 00e6 15        		.byte	0x15
 3509 00e7 00        		.byte	0x0
 3510 00e8 05        		.uleb128 0x5
 3511 00e9 02        		.byte	0x2
 3512 00ea 0000 0000 		.long	.LM7
 3513 00ee 15        		.byte	0x15
 3514 00ef 00        		.byte	0x0
 3515 00f0 05        		.uleb128 0x5
 3516 00f1 02        		.byte	0x2
 3517 00f2 0000 0000 		.long	.LM8
 3518 00f6 03        		.byte	0x3
 3519 00f7 BC7F      		.sleb128 -68
 3520 00f9 01        		.byte	0x1
 3521 00fa 00        		.byte	0x0
 3522 00fb 05        		.uleb128 0x5
 3523 00fc 02        		.byte	0x2
 3524 00fd 0000 0000 		.long	.LM9
 3525 0101 15        		.byte	0x15
 3526 0102 00        		.byte	0x0
 3527 0103 05        		.uleb128 0x5
GAS LISTING C:\Users\ADMINI~1\AppData\Local\Temp/ccRLNvvW.s 			page 64


 3528 0104 02        		.byte	0x2
 3529 0105 0000 0000 		.long	.LM10
 3530 0109 15        		.byte	0x15
 3531 010a 00        		.byte	0x0
 3532 010b 05        		.uleb128 0x5
 3533 010c 02        		.byte	0x2
 3534 010d 0000 0000 		.long	.LM11
 3535 0111 24        		.byte	0x24
 3536 0112 00        		.byte	0x0
 3537 0113 05        		.uleb128 0x5
 3538 0114 02        		.byte	0x2
 3539 0115 0000 0000 		.long	.LM12
 3540 0119 19        		.byte	0x19
 3541 011a 00        		.byte	0x0
 3542 011b 05        		.uleb128 0x5
 3543 011c 02        		.byte	0x2
 3544 011d 0000 0000 		.long	.LM13
 3545 0121 18        		.byte	0x18
 3546 0122 00        		.byte	0x0
 3547 0123 05        		.uleb128 0x5
 3548 0124 02        		.byte	0x2
 3549 0125 0000 0000 		.long	.LM14
 3550 0129 16        		.byte	0x16
 3551 012a 00        		.byte	0x0
 3552 012b 05        		.uleb128 0x5
 3553 012c 02        		.byte	0x2
 3554 012d 0000 0000 		.long	.LM15
 3555 0131 15        		.byte	0x15
 3556 0132 00        		.byte	0x0
 3557 0133 05        		.uleb128 0x5
 3558 0134 02        		.byte	0x2
 3559 0135 0000 0000 		.long	.LM16
 3560 0139 16        		.byte	0x16
 3561 013a 00        		.byte	0x0
 3562 013b 05        		.uleb128 0x5
 3563 013c 02        		.byte	0x2
 3564 013d 0000 0000 		.long	.LM17
 3565 0141 15        		.byte	0x15
 3566 0142 00        		.byte	0x0
 3567 0143 05        		.uleb128 0x5
 3568 0144 02        		.byte	0x2
 3569 0145 0000 0000 		.long	.LM18
 3570 0149 15        		.byte	0x15
 3571 014a 00        		.byte	0x0
 3572 014b 05        		.uleb128 0x5
 3573 014c 02        		.byte	0x2
 3574 014d 0000 0000 		.long	.LM19
 3575 0151 15        		.byte	0x15
 3576 0152 00        		.byte	0x0
 3577 0153 05        		.uleb128 0x5
 3578 0154 02        		.byte	0x2
 3579 0155 0000 0000 		.long	.LM20
 3580 0159 17        		.byte	0x17
 3581 015a 00        		.byte	0x0
 3582 015b 05        		.uleb128 0x5
 3583 015c 02        		.byte	0x2
 3584 015d 0000 0000 		.long	.LM21
GAS LISTING C:\Users\ADMINI~1\AppData\Local\Temp/ccRLNvvW.s 			page 65


 3585 0161 15        		.byte	0x15
 3586 0162 00        		.byte	0x0
 3587 0163 05        		.uleb128 0x5
 3588 0164 02        		.byte	0x2
 3589 0165 0000 0000 		.long	.LM22
 3590 0169 1A        		.byte	0x1a
 3591 016a 00        		.byte	0x0
 3592 016b 05        		.uleb128 0x5
 3593 016c 02        		.byte	0x2
 3594 016d 0000 0000 		.long	.LM23
 3595 0171 15        		.byte	0x15
 3596 0172 00        		.byte	0x0
 3597 0173 05        		.uleb128 0x5
 3598 0174 02        		.byte	0x2
 3599 0175 0000 0000 		.long	.LM24
 3600 0179 1C        		.byte	0x1c
 3601 017a 00        		.byte	0x0
 3602 017b 05        		.uleb128 0x5
 3603 017c 02        		.byte	0x2
 3604 017d 0000 0000 		.long	.LM25
 3605 0181 15        		.byte	0x15
 3606 0182 00        		.byte	0x0
 3607 0183 05        		.uleb128 0x5
 3608 0184 02        		.byte	0x2
 3609 0185 0000 0000 		.long	.LM26
 3610 0189 16        		.byte	0x16
 3611 018a 00        		.byte	0x0
 3612 018b 05        		.uleb128 0x5
 3613 018c 02        		.byte	0x2
 3614 018d 0000 0000 		.long	.LM27
 3615 0191 15        		.byte	0x15
 3616 0192 00        		.byte	0x0
 3617 0193 05        		.uleb128 0x5
 3618 0194 02        		.byte	0x2
 3619 0195 0000 0000 		.long	.LM28
 3620 0199 19        		.byte	0x19
 3621 019a 00        		.byte	0x0
 3622 019b 05        		.uleb128 0x5
 3623 019c 02        		.byte	0x2
 3624 019d 0000 0000 		.long	.LM29
 3625 01a1 90        		.byte	0x90
 3626 01a2 00        		.byte	0x0
 3627 01a3 05        		.uleb128 0x5
 3628 01a4 02        		.byte	0x2
 3629 01a5 0000 0000 		.long	.LM30
 3630 01a9 15        		.byte	0x15
 3631 01aa 00        		.byte	0x0
 3632 01ab 05        		.uleb128 0x5
 3633 01ac 02        		.byte	0x2
 3634 01ad 0000 0000 		.long	.LM31
 3635 01b1 17        		.byte	0x17
 3636 01b2 00        		.byte	0x0
 3637 01b3 05        		.uleb128 0x5
 3638 01b4 02        		.byte	0x2
 3639 01b5 0000 0000 		.long	.LM32
 3640 01b9 16        		.byte	0x16
 3641 01ba 00        		.byte	0x0
GAS LISTING C:\Users\ADMINI~1\AppData\Local\Temp/ccRLNvvW.s 			page 66


 3642 01bb 05        		.uleb128 0x5
 3643 01bc 02        		.byte	0x2
 3644 01bd 0000 0000 		.long	.LM33
 3645 01c1 17        		.byte	0x17
 3646 01c2 00        		.byte	0x0
 3647 01c3 05        		.uleb128 0x5
 3648 01c4 02        		.byte	0x2
 3649 01c5 0000 0000 		.long	.LM34
 3650 01c9 16        		.byte	0x16
 3651 01ca 00        		.byte	0x0
 3652 01cb 05        		.uleb128 0x5
 3653 01cc 02        		.byte	0x2
 3654 01cd 0000 0000 		.long	.LM35
 3655 01d1 15        		.byte	0x15
 3656 01d2 00        		.byte	0x0
 3657 01d3 05        		.uleb128 0x5
 3658 01d4 02        		.byte	0x2
 3659 01d5 0000 0000 		.long	.LM36
 3660 01d9 1C        		.byte	0x1c
 3661 01da 00        		.byte	0x0
 3662 01db 05        		.uleb128 0x5
 3663 01dc 02        		.byte	0x2
 3664 01dd 0000 0000 		.long	.LM37
 3665 01e1 0E        		.byte	0xe
 3666 01e2 00        		.byte	0x0
 3667 01e3 05        		.uleb128 0x5
 3668 01e4 02        		.byte	0x2
 3669 01e5 0000 0000 		.long	.LM38
 3670 01e9 17        		.byte	0x17
 3671 01ea 00        		.byte	0x0
 3672 01eb 05        		.uleb128 0x5
 3673 01ec 02        		.byte	0x2
 3674 01ed 0000 0000 		.long	.LM39
 3675 01f1 17        		.byte	0x17
 3676 01f2 00        		.byte	0x0
 3677 01f3 05        		.uleb128 0x5
 3678 01f4 02        		.byte	0x2
 3679 01f5 0000 0000 		.long	.LM40
 3680 01f9 15        		.byte	0x15
 3681 01fa 00        		.byte	0x0
 3682 01fb 05        		.uleb128 0x5
 3683 01fc 02        		.byte	0x2
 3684 01fd 0000 0000 		.long	.LM41
 3685 0201 15        		.byte	0x15
 3686 0202 00        		.byte	0x0
 3687 0203 05        		.uleb128 0x5
 3688 0204 02        		.byte	0x2
 3689 0205 0000 0000 		.long	.LM42
 3690 0209 0A        		.byte	0xa
 3691 020a 00        		.byte	0x0
 3692 020b 05        		.uleb128 0x5
 3693 020c 02        		.byte	0x2
 3694 020d 0000 0000 		.long	.LM43
 3695 0211 22        		.byte	0x22
 3696 0212 00        		.byte	0x0
 3697 0213 05        		.uleb128 0x5
 3698 0214 02        		.byte	0x2
GAS LISTING C:\Users\ADMINI~1\AppData\Local\Temp/ccRLNvvW.s 			page 67


 3699 0215 0000 0000 		.long	.LM44
 3700 0219 16        		.byte	0x16
 3701 021a 00        		.byte	0x0
 3702 021b 05        		.uleb128 0x5
 3703 021c 02        		.byte	0x2
 3704 021d 0000 0000 		.long	.LM45
 3705 0221 16        		.byte	0x16
 3706 0222 00        		.byte	0x0
 3707 0223 05        		.uleb128 0x5
 3708 0224 02        		.byte	0x2
 3709 0225 0000 0000 		.long	.LM46
 3710 0229 15        		.byte	0x15
 3711 022a 00        		.byte	0x0
 3712 022b 05        		.uleb128 0x5
 3713 022c 02        		.byte	0x2
 3714 022d 0000 0000 		.long	.LM47
 3715 0231 15        		.byte	0x15
 3716 0232 00        		.byte	0x0
 3717 0233 05        		.uleb128 0x5
 3718 0234 02        		.byte	0x2
 3719 0235 0000 0000 		.long	.LM48
 3720 0239 1A        		.byte	0x1a
 3721 023a 00        		.byte	0x0
 3722 023b 05        		.uleb128 0x5
 3723 023c 02        		.byte	0x2
 3724 023d 0000 0000 		.long	.LM49
 3725 0241 03        		.byte	0x3
 3726 0242 E57E      		.sleb128 -155
 3727 0244 01        		.byte	0x1
 3728 0245 00        		.byte	0x0
 3729 0246 05        		.uleb128 0x5
 3730 0247 02        		.byte	0x2
 3731 0248 0000 0000 		.long	.LM50
 3732 024c 18        		.byte	0x18
 3733 024d 00        		.byte	0x0
 3734 024e 05        		.uleb128 0x5
 3735 024f 02        		.byte	0x2
 3736 0250 0000 0000 		.long	.LM51
 3737 0254 17        		.byte	0x17
 3738 0255 00        		.byte	0x0
 3739 0256 05        		.uleb128 0x5
 3740 0257 02        		.byte	0x2
 3741 0258 0000 0000 		.long	.LM52
 3742 025c 18        		.byte	0x18
 3743 025d 00        		.byte	0x0
 3744 025e 05        		.uleb128 0x5
 3745 025f 02        		.byte	0x2
 3746 0260 0000 0000 		.long	.LM53
 3747 0264 15        		.byte	0x15
 3748 0265 00        		.byte	0x0
 3749 0266 05        		.uleb128 0x5
 3750 0267 02        		.byte	0x2
 3751 0268 0000 0000 		.long	.LM54
 3752 026c 16        		.byte	0x16
 3753 026d 00        		.byte	0x0
 3754 026e 05        		.uleb128 0x5
 3755 026f 02        		.byte	0x2
GAS LISTING C:\Users\ADMINI~1\AppData\Local\Temp/ccRLNvvW.s 			page 68


 3756 0270 0000 0000 		.long	.LM55
 3757 0274 19        		.byte	0x19
 3758 0275 00        		.byte	0x0
 3759 0276 05        		.uleb128 0x5
 3760 0277 02        		.byte	0x2
 3761 0278 0000 0000 		.long	.LM56
 3762 027c 0F        		.byte	0xf
 3763 027d 00        		.byte	0x0
 3764 027e 05        		.uleb128 0x5
 3765 027f 02        		.byte	0x2
 3766 0280 0000 0000 		.long	.LM57
 3767 0284 19        		.byte	0x19
 3768 0285 00        		.byte	0x0
 3769 0286 05        		.uleb128 0x5
 3770 0287 02        		.byte	0x2
 3771 0288 0000 0000 		.long	.LM58
 3772 028c 15        		.byte	0x15
 3773 028d 00        		.byte	0x0
 3774 028e 05        		.uleb128 0x5
 3775 028f 02        		.byte	0x2
 3776 0290 0000 0000 		.long	.LM59
 3777 0294 16        		.byte	0x16
 3778 0295 00        		.byte	0x0
 3779 0296 05        		.uleb128 0x5
 3780 0297 02        		.byte	0x2
 3781 0298 0000 0000 		.long	.LM60
 3782 029c 17        		.byte	0x17
 3783 029d 00        		.byte	0x0
 3784 029e 05        		.uleb128 0x5
 3785 029f 02        		.byte	0x2
 3786 02a0 0000 0000 		.long	.LM61
 3787 02a4 0E        		.byte	0xe
 3788 02a5 00        		.byte	0x0
 3789 02a6 05        		.uleb128 0x5
 3790 02a7 02        		.byte	0x2
 3791 02a8 0000 0000 		.long	.LM62
 3792 02ac 23        		.byte	0x23
 3793 02ad 00        		.byte	0x0
 3794 02ae 05        		.uleb128 0x5
 3795 02af 02        		.byte	0x2
 3796 02b0 0000 0000 		.long	.LM63
 3797 02b4 17        		.byte	0x17
 3798 02b5 00        		.byte	0x0
 3799 02b6 05        		.uleb128 0x5
 3800 02b7 02        		.byte	0x2
 3801 02b8 0000 0000 		.long	.LM64
 3802 02bc 15        		.byte	0x15
 3803 02bd 00        		.byte	0x0
 3804 02be 05        		.uleb128 0x5
 3805 02bf 02        		.byte	0x2
 3806 02c0 0000 0000 		.long	.LM65
 3807 02c4 18        		.byte	0x18
 3808 02c5 00        		.byte	0x0
 3809 02c6 05        		.uleb128 0x5
 3810 02c7 02        		.byte	0x2
 3811 02c8 0000 0000 		.long	.LM66
 3812 02cc 15        		.byte	0x15
GAS LISTING C:\Users\ADMINI~1\AppData\Local\Temp/ccRLNvvW.s 			page 69


 3813 02cd 00        		.byte	0x0
 3814 02ce 05        		.uleb128 0x5
 3815 02cf 02        		.byte	0x2
 3816 02d0 0000 0000 		.long	.LM67
 3817 02d4 16        		.byte	0x16
 3818 02d5 00        		.byte	0x0
 3819 02d6 05        		.uleb128 0x5
 3820 02d7 02        		.byte	0x2
 3821 02d8 0000 0000 		.long	.LM68
 3822 02dc 15        		.byte	0x15
 3823 02dd 00        		.byte	0x0
 3824 02de 05        		.uleb128 0x5
 3825 02df 02        		.byte	0x2
 3826 02e0 0000 0000 		.long	.LM69
 3827 02e4 1B        		.byte	0x1b
 3828 02e5 00        		.byte	0x0
 3829 02e6 05        		.uleb128 0x5
 3830 02e7 02        		.byte	0x2
 3831 02e8 0000 0000 		.long	.LM70
 3832 02ec 18        		.byte	0x18
 3833 02ed 00        		.byte	0x0
 3834 02ee 05        		.uleb128 0x5
 3835 02ef 02        		.byte	0x2
 3836 02f0 0000 0000 		.long	.LM71
 3837 02f4 1A        		.byte	0x1a
 3838 02f5 00        		.byte	0x0
 3839 02f6 05        		.uleb128 0x5
 3840 02f7 02        		.byte	0x2
 3841 02f8 0000 0000 		.long	.LM72
 3842 02fc 15        		.byte	0x15
 3843 02fd 00        		.byte	0x0
 3844 02fe 05        		.uleb128 0x5
 3845 02ff 02        		.byte	0x2
 3846 0300 0000 0000 		.long	.LM73
 3847 0304 15        		.byte	0x15
 3848 0305 00        		.byte	0x0
 3849 0306 05        		.uleb128 0x5
 3850 0307 02        		.byte	0x2
 3851 0308 0000 0000 		.long	.LM74
 3852 030c 16        		.byte	0x16
 3853 030d 00        		.byte	0x0
 3854 030e 05        		.uleb128 0x5
 3855 030f 02        		.byte	0x2
 3856 0310 0000 0000 		.long	.LM75
 3857 0314 1C        		.byte	0x1c
 3858 0315 00        		.byte	0x0
 3859 0316 05        		.uleb128 0x5
 3860 0317 02        		.byte	0x2
 3861 0318 0000 0000 		.long	.LM76
 3862 031c 17        		.byte	0x17
 3863 031d 00        		.byte	0x0
 3864 031e 05        		.uleb128 0x5
 3865 031f 02        		.byte	0x2
 3866 0320 0000 0000 		.long	.LM77
 3867 0324 16        		.byte	0x16
 3868 0325 00        		.byte	0x0
 3869 0326 05        		.uleb128 0x5
GAS LISTING C:\Users\ADMINI~1\AppData\Local\Temp/ccRLNvvW.s 			page 70


 3870 0327 02        		.byte	0x2
 3871 0328 0000 0000 		.long	.LM78
 3872 032c 03        		.byte	0x3
 3873 032d 40        		.sleb128 -64
 3874 032e 01        		.byte	0x1
 3875 032f 00        		.byte	0x0
 3876 0330 05        		.uleb128 0x5
 3877 0331 02        		.byte	0x2
 3878 0332 0000 0000 		.long	.LM79
 3879 0336 13        		.byte	0x13
 3880 0337 00        		.byte	0x0
 3881 0338 05        		.uleb128 0x5
 3882 0339 02        		.byte	0x2
 3883 033a 0000 0000 		.long	.LM80
 3884 033e 18        		.byte	0x18
 3885 033f 00        		.byte	0x0
 3886 0340 05        		.uleb128 0x5
 3887 0341 02        		.byte	0x2
 3888 0342 0000 0000 		.long	.LM81
 3889 0346 57        		.byte	0x57
 3890 0347 00        		.byte	0x0
 3891 0348 05        		.uleb128 0x5
 3892 0349 02        		.byte	0x2
 3893 034a 0000 0000 		.long	.LM82
 3894 034e 15        		.byte	0x15
 3895 034f 00        		.byte	0x0
 3896 0350 05        		.uleb128 0x5
 3897 0351 02        		.byte	0x2
 3898 0352 0000 0000 		.long	.LM83
 3899 0356 15        		.byte	0x15
 3900 0357 00        		.byte	0x0
 3901 0358 05        		.uleb128 0x5
 3902 0359 02        		.byte	0x2
 3903 035a 0000 0000 		.long	.LM84
 3904 035e 18        		.byte	0x18
 3905 035f 00        		.byte	0x0
 3906 0360 05        		.uleb128 0x5
 3907 0361 02        		.byte	0x2
 3908 0362 0000 0000 		.long	.LM85
 3909 0366 15        		.byte	0x15
 3910 0367 00        		.byte	0x0
 3911 0368 05        		.uleb128 0x5
 3912 0369 02        		.byte	0x2
 3913 036a 0000 0000 		.long	.LM86
 3914 036e 15        		.byte	0x15
 3915 036f 00        		.byte	0x0
 3916 0370 05        		.uleb128 0x5
 3917 0371 02        		.byte	0x2
 3918 0372 0000 0000 		.long	.LM87
 3919 0376 15        		.byte	0x15
 3920 0377 00        		.byte	0x0
 3921 0378 05        		.uleb128 0x5
 3922 0379 02        		.byte	0x2
 3923 037a 0000 0000 		.long	.LM88
 3924 037e 15        		.byte	0x15
 3925 037f 00        		.byte	0x0
 3926 0380 05        		.uleb128 0x5
GAS LISTING C:\Users\ADMINI~1\AppData\Local\Temp/ccRLNvvW.s 			page 71


 3927 0381 02        		.byte	0x2
 3928 0382 0000 0000 		.long	.LM89
 3929 0386 1F        		.byte	0x1f
 3930 0387 00        		.byte	0x0
 3931 0388 05        		.uleb128 0x5
 3932 0389 02        		.byte	0x2
 3933 038a 0000 0000 		.long	.LM90
 3934 038e 13        		.byte	0x13
 3935 038f 00        		.byte	0x0
 3936 0390 05        		.uleb128 0x5
 3937 0391 02        		.byte	0x2
 3938 0392 0000 0000 		.long	.LM91
 3939 0396 18        		.byte	0x18
 3940 0397 00        		.byte	0x0
 3941 0398 05        		.uleb128 0x5
 3942 0399 02        		.byte	0x2
 3943 039a 0000 0000 		.long	.LM92
 3944 039e 0E        		.byte	0xe
 3945 039f 00        		.byte	0x0
 3946 03a0 05        		.uleb128 0x5
 3947 03a1 02        		.byte	0x2
 3948 03a2 0000 0000 		.long	.LM93
 3949 03a6 1C        		.byte	0x1c
 3950 03a7 00        		.byte	0x0
 3951 03a8 05        		.uleb128 0x5
 3952 03a9 02        		.byte	0x2
 3953 03aa 0000 0000 		.long	.LM94
 3954 03ae 15        		.byte	0x15
 3955 03af 00        		.byte	0x0
 3956 03b0 05        		.uleb128 0x5
 3957 03b1 02        		.byte	0x2
 3958 03b2 0000 0000 		.long	.LM95
 3959 03b6 13        		.byte	0x13
 3960 03b7 00        		.byte	0x0
 3961 03b8 05        		.uleb128 0x5
 3962 03b9 02        		.byte	0x2
 3963 03ba 0000 0000 		.long	.LM96
 3964 03be 4A        		.byte	0x4a
 3965 03bf 00        		.byte	0x0
 3966 03c0 05        		.uleb128 0x5
 3967 03c1 02        		.byte	0x2
 3968 03c2 0000 0000 		.long	.LM97
 3969 03c6 16        		.byte	0x16
 3970 03c7 00        		.byte	0x0
 3971 03c8 05        		.uleb128 0x5
 3972 03c9 02        		.byte	0x2
 3973 03ca 0000 0000 		.long	.LM98
 3974 03ce 1B        		.byte	0x1b
 3975 03cf 00        		.byte	0x0
 3976 03d0 05        		.uleb128 0x5
 3977 03d1 02        		.byte	0x2
 3978 03d2 0000 0000 		.long	.LM99
 3979 03d6 2B        		.byte	0x2b
 3980 03d7 00        		.byte	0x0
 3981 03d8 05        		.uleb128 0x5
 3982 03d9 02        		.byte	0x2
 3983 03da 0000 0000 		.long	.LM100
GAS LISTING C:\Users\ADMINI~1\AppData\Local\Temp/ccRLNvvW.s 			page 72


 3984 03de 03        		.byte	0x3
 3985 03df 70        		.sleb128 -16
 3986 03e0 01        		.byte	0x1
 3987 03e1 00        		.byte	0x0
 3988 03e2 05        		.uleb128 0x5
 3989 03e3 02        		.byte	0x2
 3990 03e4 0000 0000 		.long	.LM101
 3991 03e8 16        		.byte	0x16
 3992 03e9 00        		.byte	0x0
 3993 03ea 05        		.uleb128 0x5
 3994 03eb 02        		.byte	0x2
 3995 03ec 0000 0000 		.long	.LM102
 3996 03f0 5B        		.byte	0x5b
 3997 03f1 00        		.byte	0x0
 3998 03f2 05        		.uleb128 0x5
 3999 03f3 02        		.byte	0x2
 4000 03f4 0000 0000 		.long	.LM103
 4001 03f8 17        		.byte	0x17
 4002 03f9 00        		.byte	0x0
 4003 03fa 05        		.uleb128 0x5
 4004 03fb 02        		.byte	0x2
 4005 03fc 0000 0000 		.long	.LM104
 4006 0400 03        		.byte	0x3
 4007 0401 BC7F      		.sleb128 -68
 4008 0403 01        		.byte	0x1
 4009 0404 00        		.byte	0x0
 4010 0405 05        		.uleb128 0x5
 4011 0406 02        		.byte	0x2
 4012 0407 0000 0000 		.long	.LM105
 4013 040b 16        		.byte	0x16
 4014 040c 00        		.byte	0x0
 4015 040d 05        		.uleb128 0x5
 4016 040e 02        		.byte	0x2
 4017 040f 0000 0000 		.long	.LM106
 4018 0413 16        		.byte	0x16
 4019 0414 00        		.byte	0x0
 4020 0415 05        		.uleb128 0x5
 4021 0416 02        		.byte	0x2
 4022 0417 0000 0000 		.long	.LM107
 4023 041b 17        		.byte	0x17
 4024 041c 00        		.byte	0x0
 4025 041d 05        		.uleb128 0x5
 4026 041e 02        		.byte	0x2
 4027 041f 0000 0000 		.long	.LM108
 4028 0423 15        		.byte	0x15
 4029 0424 00        		.byte	0x0
 4030 0425 05        		.uleb128 0x5
 4031 0426 02        		.byte	0x2
 4032 0427 0000 0000 		.long	.LM109
 4033 042b 15        		.byte	0x15
 4034 042c 00        		.byte	0x0
 4035 042d 05        		.uleb128 0x5
 4036 042e 02        		.byte	0x2
 4037 042f 0000 0000 		.long	.LM110
 4038 0433 15        		.byte	0x15
 4039 0434 00        		.byte	0x0
 4040 0435 05        		.uleb128 0x5
GAS LISTING C:\Users\ADMINI~1\AppData\Local\Temp/ccRLNvvW.s 			page 73


 4041 0436 02        		.byte	0x2
 4042 0437 0000 0000 		.long	.LM111
 4043 043b 15        		.byte	0x15
 4044 043c 00        		.byte	0x0
 4045 043d 05        		.uleb128 0x5
 4046 043e 02        		.byte	0x2
 4047 043f 0000 0000 		.long	.LM112
 4048 0443 1C        		.byte	0x1c
 4049 0444 00        		.byte	0x0
 4050 0445 05        		.uleb128 0x5
 4051 0446 02        		.byte	0x2
 4052 0447 0000 0000 		.long	.LM113
 4053 044b 18        		.byte	0x18
 4054 044c 00        		.byte	0x0
 4055 044d 05        		.uleb128 0x5
 4056 044e 02        		.byte	0x2
 4057 044f 0000 0000 		.long	.LM114
 4058 0453 15        		.byte	0x15
 4059 0454 00        		.byte	0x0
 4060 0455 05        		.uleb128 0x5
 4061 0456 02        		.byte	0x2
 4062 0457 0000 0000 		.long	.LM115
 4063 045b 15        		.byte	0x15
 4064 045c 00        		.byte	0x0
 4065 045d 05        		.uleb128 0x5
 4066 045e 02        		.byte	0x2
 4067 045f 0000 0000 		.long	.LM116
 4068 0463 15        		.byte	0x15
 4069 0464 00        		.byte	0x0
 4070 0465 05        		.uleb128 0x5
 4071 0466 02        		.byte	0x2
 4072 0467 0000 0000 		.long	.LM117
 4073 046b 15        		.byte	0x15
 4074 046c 00        		.byte	0x0
 4075 046d 05        		.uleb128 0x5
 4076 046e 02        		.byte	0x2
 4077 046f 0000 0000 		.long	.LM118
 4078 0473 19        		.byte	0x19
 4079 0474 00        		.byte	0x0
 4080 0475 05        		.uleb128 0x5
 4081 0476 02        		.byte	0x2
 4082 0477 0000 0000 		.long	.LM119
 4083 047b 15        		.byte	0x15
 4084 047c 00        		.byte	0x0
 4085 047d 05        		.uleb128 0x5
 4086 047e 02        		.byte	0x2
 4087 047f 0000 0000 		.long	.LM120
 4088 0483 15        		.byte	0x15
 4089 0484 00        		.byte	0x0
 4090 0485 05        		.uleb128 0x5
 4091 0486 02        		.byte	0x2
 4092 0487 0000 0000 		.long	.LM121
 4093 048b 16        		.byte	0x16
 4094 048c 00        		.byte	0x0
 4095 048d 05        		.uleb128 0x5
 4096 048e 02        		.byte	0x2
 4097 048f 0000 0000 		.long	.LM122
GAS LISTING C:\Users\ADMINI~1\AppData\Local\Temp/ccRLNvvW.s 			page 74


 4098 0493 15        		.byte	0x15
 4099 0494 00        		.byte	0x0
 4100 0495 05        		.uleb128 0x5
 4101 0496 02        		.byte	0x2
 4102 0497 0000 0000 		.long	.LM123
 4103 049b 15        		.byte	0x15
 4104 049c 00        		.byte	0x0
 4105 049d 05        		.uleb128 0x5
 4106 049e 02        		.byte	0x2
 4107 049f 0000 0000 		.long	.LM124
 4108 04a3 16        		.byte	0x16
 4109 04a4 00        		.byte	0x0
 4110 04a5 05        		.uleb128 0x5
 4111 04a6 02        		.byte	0x2
 4112 04a7 0000 0000 		.long	.LM125
 4113 04ab 15        		.byte	0x15
 4114 04ac 00        		.byte	0x0
 4115 04ad 05        		.uleb128 0x5
 4116 04ae 02        		.byte	0x2
 4117 04af 0000 0000 		.long	.LM126
 4118 04b3 16        		.byte	0x16
 4119 04b4 00        		.byte	0x0
 4120 04b5 05        		.uleb128 0x5
 4121 04b6 02        		.byte	0x2
 4122 04b7 0000 0000 		.long	.LM127
 4123 04bb 1B        		.byte	0x1b
 4124 04bc 00        		.byte	0x0
 4125 04bd 05        		.uleb128 0x5
 4126 04be 02        		.byte	0x2
 4127 04bf 0000 0000 		.long	.LM128
 4128 04c3 17        		.byte	0x17
 4129 04c4 00        		.byte	0x0
 4130 04c5 05        		.uleb128 0x5
 4131 04c6 02        		.byte	0x2
 4132 04c7 0000 0000 		.long	.LM129
 4133 04cb 16        		.byte	0x16
 4134 04cc 00        		.byte	0x0
 4135 04cd 05        		.uleb128 0x5
 4136 04ce 02        		.byte	0x2
 4137 04cf 0000 0000 		.long	.LM130
 4138 04d3 16        		.byte	0x16
 4139 04d4 00        		.byte	0x0
 4140 04d5 05        		.uleb128 0x5
 4141 04d6 02        		.byte	0x2
 4142 04d7 0000 0000 		.long	.LM131
 4143 04db 16        		.byte	0x16
 4144 04dc 00        		.byte	0x0
 4145 04dd 05        		.uleb128 0x5
 4146 04de 02        		.byte	0x2
 4147 04df 0000 0000 		.long	.LM132
 4148 04e3 03        		.byte	0x3
 4149 04e4 B67F      		.sleb128 -74
 4150 04e6 01        		.byte	0x1
 4151 04e7 00        		.byte	0x0
 4152 04e8 05        		.uleb128 0x5
 4153 04e9 02        		.byte	0x2
 4154 04ea 0000 0000 		.long	.LM133
GAS LISTING C:\Users\ADMINI~1\AppData\Local\Temp/ccRLNvvW.s 			page 75


 4155 04ee 03        		.byte	0x3
 4156 04ef 847E      		.sleb128 -252
 4157 04f1 01        		.byte	0x1
 4158 04f2 00        		.byte	0x0
 4159 04f3 05        		.uleb128 0x5
 4160 04f4 02        		.byte	0x2
 4161 04f5 0000 0000 		.long	.LM134
 4162 04f9 15        		.byte	0x15
 4163 04fa 00        		.byte	0x0
 4164 04fb 05        		.uleb128 0x5
 4165 04fc 02        		.byte	0x2
 4166 04fd 0000 0000 		.long	.LM135
 4167 0501 15        		.byte	0x15
 4168 0502 00        		.byte	0x0
 4169 0503 05        		.uleb128 0x5
 4170 0504 02        		.byte	0x2
 4171 0505 0000 0000 		.long	.LM136
 4172 0509 15        		.byte	0x15
 4173 050a 00        		.byte	0x0
 4174 050b 05        		.uleb128 0x5
 4175 050c 02        		.byte	0x2
 4176 050d 0000 0000 		.long	.LM137
 4177 0511 15        		.byte	0x15
 4178 0512 00        		.byte	0x0
 4179 0513 05        		.uleb128 0x5
 4180 0514 02        		.byte	0x2
 4181 0515 0000 0000 		.long	.LM138
 4182 0519 03        		.byte	0x3
 4183 051a B17F      		.sleb128 -79
 4184 051c 01        		.byte	0x1
 4185 051d 00        		.byte	0x0
 4186 051e 05        		.uleb128 0x5
 4187 051f 02        		.byte	0x2
 4188 0520 0000 0000 		.long	.LM139
 4189 0524 16        		.byte	0x16
 4190 0525 00        		.byte	0x0
 4191 0526 05        		.uleb128 0x5
 4192 0527 02        		.byte	0x2
 4193 0528 0000 0000 		.long	.LM140
 4194 052c 16        		.byte	0x16
 4195 052d 00        		.byte	0x0
 4196 052e 05        		.uleb128 0x5
 4197 052f 02        		.byte	0x2
 4198 0530 0000 0000 		.long	.LM141
 4199 0534 15        		.byte	0x15
 4200 0535 00        		.byte	0x0
 4201 0536 05        		.uleb128 0x5
 4202 0537 02        		.byte	0x2
 4203 0538 0000 0000 		.long	.LM142
 4204 053c 18        		.byte	0x18
 4205 053d 00        		.byte	0x0
 4206 053e 05        		.uleb128 0x5
 4207 053f 02        		.byte	0x2
 4208 0540 0000 0000 		.long	.LM143
 4209 0544 19        		.byte	0x19
 4210 0545 00        		.byte	0x0
 4211 0546 05        		.uleb128 0x5
GAS LISTING C:\Users\ADMINI~1\AppData\Local\Temp/ccRLNvvW.s 			page 76


 4212 0547 02        		.byte	0x2
 4213 0548 0000 0000 		.long	.LM144
 4214 054c 19        		.byte	0x19
 4215 054d 00        		.byte	0x0
 4216 054e 05        		.uleb128 0x5
 4217 054f 02        		.byte	0x2
 4218 0550 0000 0000 		.long	.LM145
 4219 0554 18        		.byte	0x18
 4220 0555 00        		.byte	0x0
 4221 0556 05        		.uleb128 0x5
 4222 0557 02        		.byte	0x2
 4223 0558 0000 0000 		.long	.LM146
 4224 055c 16        		.byte	0x16
 4225 055d 00        		.byte	0x0
 4226 055e 05        		.uleb128 0x5
 4227 055f 02        		.byte	0x2
 4228 0560 0000 0000 		.long	.LM147
 4229 0564 17        		.byte	0x17
 4230 0565 00        		.byte	0x0
 4231 0566 05        		.uleb128 0x5
 4232 0567 02        		.byte	0x2
 4233 0568 0000 0000 		.long	.LM148
 4234 056c 15        		.byte	0x15
 4235 056d 00        		.byte	0x0
 4236 056e 05        		.uleb128 0x5
 4237 056f 02        		.byte	0x2
 4238 0570 0000 0000 		.long	.LM149
 4239 0574 16        		.byte	0x16
 4240 0575 00        		.byte	0x0
 4241 0576 05        		.uleb128 0x5
 4242 0577 02        		.byte	0x2
 4243 0578 0000 0000 		.long	.LM150
 4244 057c 17        		.byte	0x17
 4245 057d 00        		.byte	0x0
 4246 057e 05        		.uleb128 0x5
 4247 057f 02        		.byte	0x2
 4248 0580 0000 0000 		.long	.LM151
 4249 0584 16        		.byte	0x16
 4250 0585 00        		.byte	0x0
 4251 0586 05        		.uleb128 0x5
 4252 0587 02        		.byte	0x2
 4253 0588 0000 0000 		.long	.LM152
 4254 058c 15        		.byte	0x15
 4255 058d 00        		.byte	0x0
 4256 058e 05        		.uleb128 0x5
 4257 058f 02        		.byte	0x2
 4258 0590 0000 0000 		.long	.LM153
 4259 0594 15        		.byte	0x15
 4260 0595 00        		.byte	0x0
 4261 0596 05        		.uleb128 0x5
 4262 0597 02        		.byte	0x2
 4263 0598 0000 0000 		.long	.LM154
 4264 059c 15        		.byte	0x15
 4265 059d 00        		.byte	0x0
 4266 059e 05        		.uleb128 0x5
 4267 059f 02        		.byte	0x2
 4268 05a0 0000 0000 		.long	.LM155
GAS LISTING C:\Users\ADMINI~1\AppData\Local\Temp/ccRLNvvW.s 			page 77


 4269 05a4 16        		.byte	0x16
 4270 05a5 00        		.byte	0x0
 4271 05a6 05        		.uleb128 0x5
 4272 05a7 02        		.byte	0x2
 4273 05a8 0000 0000 		.long	.LM156
 4274 05ac 15        		.byte	0x15
 4275 05ad 00        		.byte	0x0
 4276 05ae 05        		.uleb128 0x5
 4277 05af 02        		.byte	0x2
 4278 05b0 0000 0000 		.long	.LM157
 4279 05b4 15        		.byte	0x15
 4280 05b5 00        		.byte	0x0
 4281 05b6 05        		.uleb128 0x5
 4282 05b7 02        		.byte	0x2
 4283 05b8 0000 0000 		.long	.LM158
 4284 05bc 1B        		.byte	0x1b
 4285 05bd 00        		.byte	0x0
 4286 05be 05        		.uleb128 0x5
 4287 05bf 02        		.byte	0x2
 4288 05c0 0000 0000 		.long	.LM159
 4289 05c4 1F        		.byte	0x1f
 4290 05c5 00        		.byte	0x0
 4291 05c6 05        		.uleb128 0x5
 4292 05c7 02        		.byte	0x2
 4293 05c8 0000 0000 		.long	.LM160
 4294 05cc 18        		.byte	0x18
 4295 05cd 00        		.byte	0x0
 4296 05ce 05        		.uleb128 0x5
 4297 05cf 02        		.byte	0x2
 4298 05d0 0000 0000 		.long	.LM161
 4299 05d4 16        		.byte	0x16
 4300 05d5 00        		.byte	0x0
 4301 05d6 05        		.uleb128 0x5
 4302 05d7 02        		.byte	0x2
 4303 05d8 0000 0000 		.long	.LM162
 4304 05dc 15        		.byte	0x15
 4305 05dd 00        		.byte	0x0
 4306 05de 05        		.uleb128 0x5
 4307 05df 02        		.byte	0x2
 4308 05e0 0000 0000 		.long	.LM163
 4309 05e4 16        		.byte	0x16
 4310 05e5 00        		.byte	0x0
 4311 05e6 05        		.uleb128 0x5
 4312 05e7 02        		.byte	0x2
 4313 05e8 0000 0000 		.long	.LM164
 4314 05ec 16        		.byte	0x16
 4315 05ed 00        		.byte	0x0
 4316 05ee 05        		.uleb128 0x5
 4317 05ef 02        		.byte	0x2
 4318 05f0 0000 0000 		.long	.Letext0
 4319 05f4 00        		.byte	0x0
 4320 05f5 01        		.uleb128 0x1
 4321 05f6 01        		.byte	0x1
 4322               	.LELT0:
 4323 05f7 1600 0000 		.section	.debug_str,"MS",@progbits,1
 4323      0200 1000 
 4323      0000 0101 
GAS LISTING C:\Users\ADMINI~1\AppData\Local\Temp/ccRLNvvW.s 			page 78


 4323      FB0E 0A00 
 4323      0101 0101 
 4324               	.LASF134:
 4325 0000 4B45 595F 		.string	"KEY_LSHIFT"
 4325      4C53 4849 
 4325      4654 00
 4326               	.LASF231:
 4327 000b 7265 706F 		.string	"reportIndex"
 4327      7274 496E 
 4327      6465 7800 
 4328               	.LASF180:
 4329 0017 7573 6252 		.string	"usbRequest"
 4329      6571 7565 
 4329      7374 00
 4330               	.LASF86:
 4331 0022 4B45 595F 		.string	"KEY_SLASH"
 4331      534C 4153 
 4331      4800 
 4332               	.LASF24:
 4333 002c 4B45 595F 		.string	"KEY_LALT_HANJA"
 4333      4C41 4C54 
 4333      5F48 414E 
 4333      4A41 00
 4334               	.LASF157:
 4335 003b 4B45 595F 		.string	"KEY_PLAY"
 4335      504C 4159 
 4335      00
 4336               	.LASF211:
 4337 0044 7573 6246 		.string	"usbFunctionWrite"
 4337      756E 6374 
 4337      696F 6E57 
 4337      7269 7465 
 4337      00
 4338               	.LASF165:
 4339 0055 4B45 595F 		.string	"KEY_REC"
 4339      5245 4300 
 4340               	.LASF113:
 4341 005d 4B45 595F 		.string	"KEY_NUMLOCK"
 4341      4E55 4D4C 
 4341      4F43 4B00 
 4342               	.LASF22:
 4343 0069 4B45 595F 		.string	"KEY_RALT_HANJA"
 4343      5241 4C54 
 4343      5F48 414E 
 4343      4A41 00
 4344               	.LASF19:
 4345 0078 4B45 595F 		.string	"KEY_LSHIFT_HANGLE"
 4345      4C53 4849 
 4345      4654 5F48 
 4345      414E 474C 
 4345      4500 
 4346               	.LASF133:
 4347 008a 4B45 595F 		.string	"KEY_LCTRL"
 4347      4C43 5452 
 4347      4C00 
 4348               	.LASF97:
 4349 0094 4B45 595F 		.string	"KEY_F10"
GAS LISTING C:\Users\ADMINI~1\AppData\Local\Temp/ccRLNvvW.s 			page 79


 4349      4631 3000 
 4350               	.LASF98:
 4351 009c 4B45 595F 		.string	"KEY_F11"
 4351      4631 3100 
 4352               	.LASF99:
 4353 00a4 4B45 595F 		.string	"KEY_F12"
 4353      4631 3200 
 4354               	.LASF226:
 4355 00ac 494E 5445 		.string	"INTERFACE"
 4355      5246 4143 
 4355      4500 
 4356               	.LASF201:
 4357 00b6 7072 6576 		.string	"prev"
 4357      00
 4358               	.LASF215:
 4359 00bb 6578 7065 		.string	"expectReport"
 4359      6374 5265 
 4359      706F 7274 
 4359      00
 4360               	.LASF129:
 4361 00c8 4B45 595F 		.string	"KEY_KP_DOT"
 4361      4B50 5F44 
 4361      4F54 00
 4362               	.LASF156:
 4363 00d3 4B45 595F 		.string	"KEY_STOP"
 4363      5354 4F50 
 4363      00
 4364               	.LASF235:
 4365 00dc 443A 5C67 		.string	"D:\\git2\\ps2avrU\\.git\\source"
 4365      6974 325C 
 4365      7073 3261 
 4365      7672 555C 
 4365      2E67 6974 
 4366               	.LASF191:
 4367 00f8 7265 7476 		.string	"retval"
 4367      616C 00
 4368               	.LASF107:
 4369 00ff 4B45 595F 		.string	"KEY_END"
 4369      454E 4400 
 4370               	.LASF6:
 4371 0107 6C6F 6E67 		.string	"long long unsigned int"
 4371      206C 6F6E 
 4371      6720 756E 
 4371      7369 676E 
 4371      6564 2069 
 4372               	.LASF152:
 4373 011e 4B45 595F 		.string	"KEY_WWW_REFRESH"
 4373      5757 575F 
 4373      5245 4652 
 4373      4553 4800 
 4374               	.LASF72:
 4375 012e 4B45 595F 		.string	"KEY_BKSP"
 4375      424B 5350 
 4375      00
 4376               	.LASF106:
 4377 0137 4B45 595F 		.string	"KEY_DEL"
 4377      4445 4C00 
GAS LISTING C:\Users\ADMINI~1\AppData\Local\Temp/ccRLNvvW.s 			page 80


 4378               	.LASF187:
 4379 013f 636C 6561 		.string	"clearReportBuffer"
 4379      7252 6570 
 4379      6F72 7442 
 4379      7566 6665 
 4379      7200 
 4380               	.LASF206:
 4381 0151 7570 6461 		.string	"updateNeeded"
 4381      7465 4E65 
 4381      6564 6564 
 4381      00
 4382               	.LASF186:
 4383 015e 7573 6252 		.string	"usbRequest_t"
 4383      6571 7565 
 4383      7374 5F74 
 4383      00
 4384               	.LASF155:
 4385 016b 4B45 595F 		.string	"KEY_PREV_TRK"
 4385      5052 4556 
 4385      5F54 524B 
 4385      00
 4386               	.LASF81:
 4387 0178 4B45 595F 		.string	"KEY_COLON"
 4387      434F 4C4F 
 4387      4E00 
 4388               	.LASF17:
 4389 0182 4B45 595F 		.string	"KEY_RSHIFT_HANGLE"
 4389      5253 4849 
 4389      4654 5F48 
 4389      414E 474C 
 4389      4500 
 4390               	.LASF143:
 4391 0194 4B45 595F 		.string	"KEY_POWER"
 4391      504F 5745 
 4391      5200 
 4392               	.LASF13:
 4393 019e 4B45 595F 		.string	"KEY_FN_HANGLE"
 4393      464E 5F48 
 4393      414E 474C 
 4393      4500 
 4394               	.LASF161:
 4395 01ac 4B45 595F 		.string	"KEY_MEDIA"
 4395      4D45 4449 
 4395      4100 
 4396               	.LASF7:
 4397 01b6 6C6F 6E67 		.string	"long long int"
 4397      206C 6F6E 
 4397      6720 696E 
 4397      7400 
 4398               	.LASF1:
 4399 01c4 7369 676E 		.string	"signed char"
 4399      6564 2063 
 4399      6861 7200 
 4400               	.LASF116:
 4401 01d0 4B45 595F 		.string	"KEY_KP_MINUS"
 4401      4B50 5F4D 
 4401      494E 5553 
GAS LISTING C:\Users\ADMINI~1\AppData\Local\Temp/ccRLNvvW.s 			page 81


 4401      00
 4402               	.LASF190:
 4403 01dd 7849 7344 		.string	"xIsDown"
 4403      6F77 6E00 
 4404               	.LASF192:
 4405 01e5 674B 6579 		.string	"gKeyidxMulti"
 4405      6964 784D 
 4405      756C 7469 
 4405      00
 4406               	.LASF159:
 4407 01f2 4B45 595F 		.string	"KEY_VOL_UP"
 4407      564F 4C5F 
 4407      5550 00
 4408               	.LASF219:
 4409 01fd 6B65 7963 		.string	"keycode_USB_multimedia"
 4409      6F64 655F 
 4409      5553 425F 
 4409      6D75 6C74 
 4409      696D 6564 
 4410               	.LASF178:
 4411 0214 7573 6257 		.string	"usbWord_t"
 4411      6F72 645F 
 4411      7400 
 4412               	.LASF232:
 4413 021e 5F69 734D 		.string	"_isMultimediaPressed"
 4413      756C 7469 
 4413      6D65 6469 
 4413      6150 7265 
 4413      7373 6564 
 4414               	.LASF78:
 4415 0233 4B45 595F 		.string	"KEY_RBR"
 4415      5242 5200 
 4416               	.LASF153:
 4417 023b 4B45 595F 		.string	"KEY_WWW_FAVORITE"
 4417      5757 575F 
 4417      4641 564F 
 4417      5249 5445 
 4417      00
 4418               	.LASF5:
 4419 024c 6C6F 6E67 		.string	"long int"
 4419      2069 6E74 
 4419      00
 4420               	.LASF149:
 4421 0255 4B45 595F 		.string	"KEY_WWW_BACK"
 4421      5757 575F 
 4421      4241 434B 
 4421      00
 4422               	.LASF80:
 4423 0262 4B45 595F 		.string	"KEY_Europe1"
 4423      4575 726F 
 4423      7065 3100 
 4424               	.LASF130:
 4425 026e 4B45 595F 		.string	"KEY_Europe2"
 4425      4575 726F 
 4425      7065 3200 
 4426               	.LASF114:
 4427 027a 4B45 595F 		.string	"KEY_KP_SLASH"
GAS LISTING C:\Users\ADMINI~1\AppData\Local\Temp/ccRLNvvW.s 			page 82


 4427      4B50 5F53 
 4427      4C41 5348 
 4427      00
 4428               	.LASF109:
 4429 0287 4B45 595F 		.string	"KEY_RIGHT"
 4429      5249 4748 
 4429      5400 
 4430               	.LASF183:
 4431 0291 7756 616C 		.string	"wValue"
 4431      7565 00
 4432               	.LASF83:
 4433 0298 4B45 595F 		.string	"KEY_HASH"
 4433      4841 5348 
 4433      00
 4434               	.LASF139:
 4435 02a1 4B45 595F 		.string	"KEY_RALT"
 4435      5241 4C54 
 4435      00
 4436               	.LASF11:
 4437 02aa 7569 6E74 		.string	"uint16_t"
 4437      3136 5F74 
 4437      00
 4438               	.LASF25:
 4439 02b3 4B45 595F 		.string	"KEY_RCTRL_HANGLE"
 4439      5243 5452 
 4439      4C5F 4841 
 4439      4E47 4C45 
 4439      00
 4440               	.LASF174:
 4441 02c4 6275 6666 		.string	"buffer"
 4441      6572 00
 4442               	.LASF196:
 4443 02cb 7363 616E 		.string	"scanMacroUsb"
 4443      4D61 6372 
 4443      6F55 7362 
 4443      00
 4444               	.LASF194:
 4445 02d8 5F5F 7265 		.string	"__result"
 4445      7375 6C74 
 4445      00
 4446               	.LASF77:
 4447 02e1 4B45 595F 		.string	"KEY_LBR"
 4447      4C42 5200 
 4448               	.LASF207:
 4449 02e9 6964 6C65 		.string	"idleCounter"
 4449      436F 756E 
 4449      7465 7200 
 4450               	.LASF16:
 4451 02f5 4B45 595F 		.string	"KEY_FN2_HANJA"
 4451      464E 325F 
 4451      4841 4E4A 
 4451      4100 
 4452               	.LASF179:
 4453 0303 7573 6254 		.string	"usbTxStatus"
 4453      7853 7461 
 4453      7475 7300 
 4454               	.LASF195:
GAS LISTING C:\Users\ADMINI~1\AppData\Local\Temp/ccRLNvvW.s 			page 83


 4455 030f 6D61 6B65 		.string	"makeReportBuffer"
 4455      5265 706F 
 4455      7274 4275 
 4455      6666 6572 
 4455      00
 4456               	.LASF181:
 4457 0320 626D 5265 		.string	"bmRequestType"
 4457      7175 6573 
 4457      7454 7970 
 4457      6500 
 4458               	.LASF233:
 4459 032e 474E 5520 		.string	"GNU C 4.3.3"
 4459      4320 342E 
 4459      332E 3300 
 4460               	.LASF100:
 4461 033a 4B45 595F 		.string	"KEY_PRNSCR"
 4461      5052 4E53 
 4461      4352 00
 4462               	.LASF108:
 4463 0345 4B45 595F 		.string	"KEY_PGDN"
 4463      5047 444E 
 4463      00
 4464               	.LASF140:
 4465 034e 4B45 595F 		.string	"KEY_RGUI"
 4465      5247 5549 
 4465      00
 4466               	.LASF148:
 4467 0357 4B45 595F 		.string	"KEY_WWW_HOME"
 4467      5757 575F 
 4467      484F 4D45 
 4467      00
 4468               	.LASF20:
 4469 0364 4B45 595F 		.string	"KEY_LSHIFT_HANJA"
 4469      4C53 4849 
 4469      4654 5F48 
 4469      414E 4A41 
 4469      00
 4470               	.LASF8:
 4471 0375 756E 7369 		.string	"unsigned int"
 4471      676E 6564 
 4471      2069 6E74 
 4471      00
 4472               	.LASF214:
 4473 0382 7072 6F74 		.string	"protocolVer"
 4473      6F63 6F6C 
 4473      5665 7200 
 4474               	.LASF197:
 4475 038e 6749 6478 		.string	"gIdx"
 4475      00
 4476               	.LASF138:
 4477 0393 4B45 595F 		.string	"KEY_RSHIFT"
 4477      5253 4849 
 4477      4654 00
 4478               	.LASF46:
 4479 039e 4B45 595F 		.string	"KEY_M"
 4479      4D00 
 4480               	.LASF101:
GAS LISTING C:\Users\ADMINI~1\AppData\Local\Temp/ccRLNvvW.s 			page 84


 4481 03a4 4B45 595F 		.string	"KEY_SCRLCK"
 4481      5343 524C 
 4481      434B 00
 4482               	.LASF4:
 4483 03af 6C6F 6E67 		.string	"long unsigned int"
 4483      2075 6E73 
 4483      6967 6E65 
 4483      6420 696E 
 4483      7400 
 4484               	.LASF172:
 4485 03c1 4B45 595F 		.string	"KEY_HANGLE"
 4485      4841 4E47 
 4485      4C45 00
 4486               	.LASF82:
 4487 03cc 4B45 595F 		.string	"KEY_QUOTE"
 4487      5155 4F54 
 4487      4500 
 4488               	.LASF213:
 4489 03d6 6964 6C65 		.string	"idleRate"
 4489      5261 7465 
 4489      00
 4490               	.LASF30:
 4491 03df 4B45 595F 		.string	"KEY_NONE"
 4491      4E4F 4E45 
 4491      00
 4492               	.LASF118:
 4493 03e8 4B45 595F 		.string	"KEY_KP_ENTER"
 4493      4B50 5F45 
 4493      4E54 4552 
 4493      00
 4494               	.LASF56:
 4495 03f5 4B45 595F 		.string	"KEY_W"
 4495      5700 
 4496               	.LASF103:
 4497 03fb 4B45 595F 		.string	"KEY_INSERT"
 4497      494E 5345 
 4497      5254 00
 4498               	.LASF210:
 4499 0406 6461 7461 		.string	"data"
 4499      00
 4500               	.LASF117:
 4501 040b 4B45 595F 		.string	"KEY_KP_PLUS"
 4501      4B50 5F50 
 4501      4C55 5300 
 4502               	.LASF2:
 4503 0417 7368 6F72 		.string	"short unsigned int"
 4503      7420 756E 
 4503      7369 676E 
 4503      6564 2069 
 4503      6E74 00
 4504               	.LASF234:
 4505 042a 7573 626D 		.string	"usbmain.c"
 4505      6169 6E2E 
 4505      6300 
 4506               	.LASF236:
 4507 0434 7573 6257 		.string	"usbWord"
 4507      6F72 6400 
GAS LISTING C:\Users\ADMINI~1\AppData\Local\Temp/ccRLNvvW.s 			page 85


 4508               	.LASF87:
 4509 043c 4B45 595F 		.string	"KEY_CAPS"
 4509      4341 5053 
 4509      00
 4510               	.LASF229:
 4511 0445 7072 6576 		.string	"prevMatrix"
 4511      4D61 7472 
 4511      6978 00
 4512               	.LASF85:
 4513 0450 4B45 595F 		.string	"KEY_DOT"
 4513      444F 5400 
 4514               	.LASF220:
 4515 0458 6B65 7963 		.string	"keycode_USB_extend"
 4515      6F64 655F 
 4515      5553 425F 
 4515      6578 7465 
 4515      6E64 00
 4516               	.LASF238:
 4517 046b 7573 625F 		.string	"usb_main"
 4517      6D61 696E 
 4517      00
 4518               	.LASF225:
 4519 0474 696E 7465 		.string	"interfaceReady"
 4519      7266 6163 
 4519      6552 6561 
 4519      6479 00
 4520               	.LASF167:
 4521 0483 4B45 595F 		.string	"KEY_MINIMIZE"
 4521      4D49 4E49 
 4521      4D49 5A45 
 4521      00
 4522               	.LASF227:
 4523 0490 6973 4265 		.string	"isBeyondFN"
 4523      796F 6E64 
 4523      464E 00
 4524               	.LASF74:
 4525 049b 4B45 595F 		.string	"KEY_SPACE"
 4525      5350 4143 
 4525      4500 
 4526               	.LASF144:
 4527 04a5 4B45 595F 		.string	"KEY_SLEEP"
 4527      534C 4545 
 4527      5000 
 4528               	.LASF189:
 4529 04af 6B65 7969 		.string	"keyidx"
 4529      6478 00
 4530               	.LASF175:
 4531 04b6 7573 6254 		.string	"usbTxStatus_t"
 4531      7853 7461 
 4531      7475 735F 
 4531      7400 
 4532               	.LASF169:
 4533 04c4 4B45 595F 		.string	"KEY_Multimedia_end"
 4533      4D75 6C74 
 4533      696D 6564 
 4533      6961 5F65 
 4533      6E64 00
GAS LISTING C:\Users\ADMINI~1\AppData\Local\Temp/ccRLNvvW.s 			page 86


 4534               	.LASF33:
 4535 04d7 4B45 595F 		.string	"KEY_ErrorUndefined"
 4535      4572 726F 
 4535      7255 6E64 
 4535      6566 696E 
 4535      6564 00
 4536               	.LASF151:
 4537 04ea 4B45 595F 		.string	"KEY_WWW_STOP"
 4537      5757 575F 
 4537      5354 4F50 
 4537      00
 4538               	.LASF69:
 4539 04f7 4B45 595F 		.string	"KEY_0"
 4539      3000 
 4540               	.LASF60:
 4541 04fd 4B45 595F 		.string	"KEY_1"
 4541      3100 
 4542               	.LASF61:
 4543 0503 4B45 595F 		.string	"KEY_2"
 4543      3200 
 4544               	.LASF62:
 4545 0509 4B45 595F 		.string	"KEY_3"
 4545      3300 
 4546               	.LASF63:
 4547 050f 4B45 595F 		.string	"KEY_4"
 4547      3400 
 4548               	.LASF64:
 4549 0515 4B45 595F 		.string	"KEY_5"
 4549      3500 
 4550               	.LASF65:
 4551 051b 4B45 595F 		.string	"KEY_6"
 4551      3600 
 4552               	.LASF66:
 4553 0521 4B45 595F 		.string	"KEY_7"
 4553      3700 
 4554               	.LASF67:
 4555 0527 4B45 595F 		.string	"KEY_8"
 4555      3800 
 4556               	.LASF68:
 4557 052d 4B45 595F 		.string	"KEY_9"
 4557      3900 
 4558               	.LASF75:
 4559 0533 4B45 595F 		.string	"KEY_MINUS"
 4559      4D49 4E55 
 4559      5300 
 4560               	.LASF158:
 4561 053d 4B45 595F 		.string	"KEY_MUTE"
 4561      4D55 5445 
 4561      00
 4562               	.LASF145:
 4563 0546 4B45 595F 		.string	"KEY_WAKE"
 4563      5741 4B45 
 4563      00
 4564               	.LASF34:
 4565 054f 4B45 595F 		.string	"KEY_A"
 4565      4100 
 4566               	.LASF35:
GAS LISTING C:\Users\ADMINI~1\AppData\Local\Temp/ccRLNvvW.s 			page 87


 4567 0555 4B45 595F 		.string	"KEY_B"
 4567      4200 
 4568               	.LASF36:
 4569 055b 4B45 595F 		.string	"KEY_C"
 4569      4300 
 4570               	.LASF37:
 4571 0561 4B45 595F 		.string	"KEY_D"
 4571      4400 
 4572               	.LASF38:
 4573 0567 4B45 595F 		.string	"KEY_E"
 4573      4500 
 4574               	.LASF39:
 4575 056d 4B45 595F 		.string	"KEY_F"
 4575      4600 
 4576               	.LASF40:
 4577 0573 4B45 595F 		.string	"KEY_G"
 4577      4700 
 4578               	.LASF41:
 4579 0579 4B45 595F 		.string	"KEY_H"
 4579      4800 
 4580               	.LASF42:
 4581 057f 4B45 595F 		.string	"KEY_I"
 4581      4900 
 4582               	.LASF43:
 4583 0585 4B45 595F 		.string	"KEY_J"
 4583      4A00 
 4584               	.LASF44:
 4585 058b 4B45 595F 		.string	"KEY_K"
 4585      4B00 
 4586               	.LASF45:
 4587 0591 4B45 595F 		.string	"KEY_L"
 4587      4C00 
 4588               	.LASF12:
 4589 0597 4B45 595F 		.string	"KEY_dualAction"
 4589      6475 616C 
 4589      4163 7469 
 4589      6F6E 00
 4590               	.LASF47:
 4591 05a6 4B45 595F 		.string	"KEY_N"
 4591      4E00 
 4592               	.LASF48:
 4593 05ac 4B45 595F 		.string	"KEY_O"
 4593      4F00 
 4594               	.LASF49:
 4595 05b2 4B45 595F 		.string	"KEY_P"
 4595      5000 
 4596               	.LASF50:
 4597 05b8 4B45 595F 		.string	"KEY_Q"
 4597      5100 
 4598               	.LASF51:
 4599 05be 4B45 595F 		.string	"KEY_R"
 4599      5200 
 4600               	.LASF52:
 4601 05c4 4B45 595F 		.string	"KEY_S"
 4601      5300 
 4602               	.LASF53:
 4603 05ca 4B45 595F 		.string	"KEY_T"
GAS LISTING C:\Users\ADMINI~1\AppData\Local\Temp/ccRLNvvW.s 			page 88


 4603      5400 
 4604               	.LASF54:
 4605 05d0 4B45 595F 		.string	"KEY_U"
 4605      5500 
 4606               	.LASF55:
 4607 05d6 4B45 595F 		.string	"KEY_V"
 4607      5600 
 4608               	.LASF29:
 4609 05dc 4B45 595F 		.string	"KEY_dualAction_end"
 4609      6475 616C 
 4609      4163 7469 
 4609      6F6E 5F65 
 4609      6E64 00
 4610               	.LASF57:
 4611 05ef 4B45 595F 		.string	"KEY_X"
 4611      5800 
 4612               	.LASF58:
 4613 05f5 4B45 595F 		.string	"KEY_Y"
 4613      5900 
 4614               	.LASF59:
 4615 05fb 4B45 595F 		.string	"KEY_Z"
 4615      5A00 
 4616               	.LASF166:
 4617 0601 4B45 595F 		.string	"KEY_REWIND"
 4617      5245 5749 
 4617      4E44 00
 4618               	.LASF209:
 4619 060c 7573 6246 		.string	"usbFunctionSetup"
 4619      756E 6374 
 4619      696F 6E53 
 4619      6574 7570 
 4619      00
 4620               	.LASF212:
 4621 061d 7265 706F 		.string	"reportBuffer"
 4621      7274 4275 
 4621      6666 6572 
 4621      00
 4622               	.LASF224:
 4623 062a 696E 7465 		.string	"interfaceCount"
 4623      7266 6163 
 4623      6543 6F75 
 4623      6E74 00
 4624               	.LASF154:
 4625 0639 4B45 595F 		.string	"KEY_NEXT_TRK"
 4625      4E45 5854 
 4625      5F54 524B 
 4625      00
 4626               	.LASF26:
 4627 0646 4B45 595F 		.string	"KEY_RCTRL_HANJA"
 4627      5243 5452 
 4627      4C5F 4841 
 4627      4E4A 4100 
 4628               	.LASF199:
 4629 0656 674B 6579 		.string	"gKeyidx"
 4629      6964 7800 
 4630               	.LASF28:
 4631 065e 4B45 595F 		.string	"KEY_LCTRL_HANJA"
GAS LISTING C:\Users\ADMINI~1\AppData\Local\Temp/ccRLNvvW.s 			page 89


 4631      4C43 5452 
 4631      4C5F 4841 
 4631      4E4A 4100 
 4632               	.LASF115:
 4633 066e 4B45 595F 		.string	"KEY_KP_AST"
 4633      4B50 5F41 
 4633      5354 00
 4634               	.LASF160:
 4635 0679 4B45 595F 		.string	"KEY_VOL_DOWN"
 4635      564F 4C5F 
 4635      444F 574E 
 4635      00
 4636               	.LASF168:
 4637 0686 4B45 595F 		.string	"KEY_EJECT"
 4637      454A 4543 
 4637      5400 
 4638               	.LASF141:
 4639 0690 4B45 595F 		.string	"KEY_Modifiers_end"
 4639      4D6F 6469 
 4639      6669 6572 
 4639      735F 656E 
 4639      6400 
 4640               	.LASF200:
 4641 06a2 7363 616E 		.string	"scanKeyUSB"
 4641      4B65 7955 
 4641      5342 00
 4642               	.LASF0:
 4643 06ad 756E 7369 		.string	"unsigned char"
 4643      676E 6564 
 4643      2063 6861 
 4643      7200 
 4644               	.LASF164:
 4645 06bb 4B45 595F 		.string	"KEY_SCREENSAVE"
 4645      5343 5245 
 4645      454E 5341 
 4645      5645 00
 4646               	.LASF173:
 4647 06ca 4B45 595F 		.string	"KEY_extend_end"
 4647      6578 7465 
 4647      6E64 5F65 
 4647      6E64 00
 4648               	.LASF84:
 4649 06d9 4B45 595F 		.string	"KEY_COMMA"
 4649      434F 4D4D 
 4649      4100 
 4650               	.LASF27:
 4651 06e3 4B45 595F 		.string	"KEY_LCTRL_HANGLE"
 4651      4C43 5452 
 4651      4C5F 4841 
 4651      4E47 4C45 
 4651      00
 4652               	.LASF184:
 4653 06f4 7749 6E64 		.string	"wIndex"
 4653      6578 00
 4654               	.LASF73:
 4655 06fb 4B45 595F 		.string	"KEY_TAB"
 4655      5441 4200 
GAS LISTING C:\Users\ADMINI~1\AppData\Local\Temp/ccRLNvvW.s 			page 90


 4656               	.LASF188:
 4657 0703 7072 6570 		.string	"prepareKeyMappingUsb"
 4657      6172 654B 
 4657      6579 4D61 
 4657      7070 696E 
 4657      6755 7362 
 4658               	.LASF3:
 4659 0718 7368 6F72 		.string	"short int"
 4659      7420 696E 
 4659      7400 
 4660               	.LASF237:
 4661 0722 6861 734D 		.string	"hasMacroUsb"
 4661      6163 726F 
 4661      5573 6200 
 4662               	.LASF111:
 4663 072e 4B45 595F 		.string	"KEY_DOWN"
 4663      444F 574E 
 4663      00
 4664               	.LASF23:
 4665 0737 4B45 595F 		.string	"KEY_LALT_HANGLE"
 4665      4C41 4C54 
 4665      5F48 414E 
 4665      474C 4500 
 4666               	.LASF76:
 4667 0747 4B45 595F 		.string	"KEY_EQUAL"
 4667      4551 5541 
 4667      4C00 
 4668               	.LASF205:
 4669 0751 7072 6576 		.string	"prevModifier"
 4669      4D6F 6469 
 4669      6669 6572 
 4669      00
 4670               	.LASF182:
 4671 075e 6252 6571 		.string	"bRequest"
 4671      7565 7374 
 4671      00
 4672               	.LASF216:
 4673 0767 5F69 7349 		.string	"_isInit"
 4673      6E69 7400 
 4674               	.LASF202:
 4675 076f 674B 6579 		.string	"gKeymapping"
 4675      6D61 7070 
 4675      696E 6700 
 4676               	.LASF230:
 4677 077b 5F70 7265 		.string	"_pressedBuffer"
 4677      7373 6564 
 4677      4275 6666 
 4677      6572 00
 4678               	.LASF18:
 4679 078a 4B45 595F 		.string	"KEY_RSHIFT_HANJA"
 4679      5253 4849 
 4679      4654 5F48 
 4679      414E 4A41 
 4679      00
 4680               	.LASF102:
 4681 079b 4B45 595F 		.string	"KEY_PAUSE"
 4681      5041 5553 
GAS LISTING C:\Users\ADMINI~1\AppData\Local\Temp/ccRLNvvW.s 			page 91


 4681      4500 
 4682               	.LASF119:
 4683 07a5 4B45 595F 		.string	"KEY_KP_1"
 4683      4B50 5F31 
 4683      00
 4684               	.LASF120:
 4685 07ae 4B45 595F 		.string	"KEY_KP_2"
 4685      4B50 5F32 
 4685      00
 4686               	.LASF121:
 4687 07b7 4B45 595F 		.string	"KEY_KP_3"
 4687      4B50 5F33 
 4687      00
 4688               	.LASF105:
 4689 07c0 4B45 595F 		.string	"KEY_PGUP"
 4689      5047 5550 
 4689      00
 4690               	.LASF32:
 4691 07c9 4B45 595F 		.string	"KEY_POSTFail"
 4691      504F 5354 
 4691      4661 696C 
 4691      00
 4692               	.LASF124:
 4693 07d6 4B45 595F 		.string	"KEY_KP_6"
 4693      4B50 5F36 
 4693      00
 4694               	.LASF125:
 4695 07df 4B45 595F 		.string	"KEY_KP_7"
 4695      4B50 5F37 
 4695      00
 4696               	.LASF126:
 4697 07e8 4B45 595F 		.string	"KEY_KP_8"
 4697      4B50 5F38 
 4697      00
 4698               	.LASF70:
 4699 07f1 4B45 595F 		.string	"KEY_ENTER"
 4699      454E 5445 
 4699      5200 
 4700               	.LASF71:
 4701 07fb 4B45 595F 		.string	"KEY_ESC"
 4701      4553 4300 
 4702               	.LASF15:
 4703 0803 4B45 595F 		.string	"KEY_FN2_HANGLE"
 4703      464E 325F 
 4703      4841 4E47 
 4703      4C45 00
 4704               	.LASF9:
 4705 0812 6368 6172 		.string	"char"
 4705      00
 4706               	.LASF171:
 4707 0817 4B45 595F 		.string	"KEY_HANJA"
 4707      4841 4E4A 
 4707      4100 
 4708               	.LASF123:
 4709 0821 4B45 595F 		.string	"KEY_KP_5"
 4709      4B50 5F35 
 4709      00
GAS LISTING C:\Users\ADMINI~1\AppData\Local\Temp/ccRLNvvW.s 			page 92


 4710               	.LASF177:
 4711 082a 6279 7465 		.string	"bytes"
 4711      7300 
 4712               	.LASF128:
 4713 0830 4B45 595F 		.string	"KEY_KP_0"
 4713      4B50 5F30 
 4713      00
 4714               	.LASF127:
 4715 0839 4B45 595F 		.string	"KEY_KP_9"
 4715      4B50 5F39 
 4715      00
 4716               	.LASF122:
 4717 0842 4B45 595F 		.string	"KEY_KP_4"
 4717      4B50 5F34 
 4717      00
 4718               	.LASF146:
 4719 084b 4B45 595F 		.string	"KEY_EMAIL"
 4719      454D 4149 
 4719      4C00 
 4720               	.LASF223:
 4721 0855 7573 6254 		.string	"usbTxStatus1"
 4721      7853 7461 
 4721      7475 7331 
 4721      00
 4722               	.LASF228:
 4723 0862 6D6F 646D 		.string	"modmask"
 4723      6173 6B00 
 4724               	.LASF176:
 4725 086a 776F 7264 		.string	"word"
 4725      00
 4726               	.LASF193:
 4727 086f 5F5F 6164 		.string	"__addr16"
 4727      6472 3136 
 4727      00
 4728               	.LASF137:
 4729 0878 4B45 595F 		.string	"KEY_RCTRL"
 4729      5243 5452 
 4729      4C00 
 4730               	.LASF79:
 4731 0882 4B45 595F 		.string	"KEY_BKSLASH"
 4731      424B 534C 
 4731      4153 4800 
 4732               	.LASF162:
 4733 088e 4B45 595F 		.string	"KEY_CALC"
 4733      4341 4C43 
 4733      00
 4734               	.LASF218:
 4735 0897 5F6E 6565 		.string	"_needRelease"
 4735      6452 656C 
 4735      6561 7365 
 4735      00
 4736               	.LASF203:
 4737 08a4 6B65 796D 		.string	"keymap"
 4737      6170 00
 4738               	.LASF217:
 4739 08ab 5F70 7265 		.string	"_prevPressedBuffer"
 4739      7650 7265 
GAS LISTING C:\Users\ADMINI~1\AppData\Local\Temp/ccRLNvvW.s 			page 93


 4739      7373 6564 
 4739      4275 6666 
 4739      6572 00
 4740               	.LASF198:
 4741 08be 674C 656E 		.string	"gLen"
 4741      00
 4742               	.LASF135:
 4743 08c3 4B45 595F 		.string	"KEY_LALT"
 4743      4C41 4C54 
 4743      00
 4744               	.LASF14:
 4745 08cc 4B45 595F 		.string	"KEY_FN_HANJA"
 4745      464E 5F48 
 4745      414E 4A41 
 4745      00
 4746               	.LASF89:
 4747 08d9 4B45 595F 		.string	"KEY_F2"
 4747      4632 00
 4748               	.LASF90:
 4749 08e0 4B45 595F 		.string	"KEY_F3"
 4749      4633 00
 4750               	.LASF91:
 4751 08e7 4B45 595F 		.string	"KEY_F4"
 4751      4634 00
 4752               	.LASF92:
 4753 08ee 4B45 595F 		.string	"KEY_F5"
 4753      4635 00
 4754               	.LASF93:
 4755 08f5 4B45 595F 		.string	"KEY_F6"
 4755      4636 00
 4756               	.LASF94:
 4757 08fc 4B45 595F 		.string	"KEY_F7"
 4757      4637 00
 4758               	.LASF95:
 4759 0903 4B45 595F 		.string	"KEY_F8"
 4759      4638 00
 4760               	.LASF10:
 4761 090a 7569 6E74 		.string	"uint8_t"
 4761      385F 7400 
 4762               	.LASF104:
 4763 0912 4B45 595F 		.string	"KEY_HOME"
 4763      484F 4D45 
 4763      00
 4764               	.LASF150:
 4765 091b 4B45 595F 		.string	"KEY_WWW_FORWARD"
 4765      5757 575F 
 4765      464F 5257 
 4765      4152 4400 
 4766               	.LASF170:
 4767 092b 4B45 595F 		.string	"KEY_extend"
 4767      6578 7465 
 4767      6E64 00
 4768               	.LASF131:
 4769 0936 4B45 595F 		.string	"KEY_APPS"
 4769      4150 5053 
 4769      00
 4770               	.LASF147:
GAS LISTING C:\Users\ADMINI~1\AppData\Local\Temp/ccRLNvvW.s 			page 94


 4771 093f 4B45 595F 		.string	"KEY_WWW_SEARCH"
 4771      5757 575F 
 4771      5345 4152 
 4771      4348 00
 4772               	.LASF112:
 4773 094e 4B45 595F 		.string	"KEY_UP"
 4773      5550 00
 4774               	.LASF185:
 4775 0955 774C 656E 		.string	"wLength"
 4775      6774 6800 
 4776               	.LASF88:
 4777 095d 4B45 595F 		.string	"KEY_F1"
 4777      4631 00
 4778               	.LASF204:
 4779 0964 674D 6174 		.string	"gMatrix"
 4779      7269 7800 
 4780               	.LASF163:
 4781 096c 4B45 595F 		.string	"KEY_MYCOM"
 4781      4D59 434F 
 4781      4D00 
 4782               	.LASF31:
 4783 0976 4B45 595F 		.string	"KEY_ErrorRollOver"
 4783      4572 726F 
 4783      7252 6F6C 
 4783      6C4F 7665 
 4783      7200 
 4784               	.LASF96:
 4785 0988 4B45 595F 		.string	"KEY_F9"
 4785      4639 00
 4786               	.LASF222:
 4787 098f 7573 6244 		.string	"usbDescriptorHidReport"
 4787      6573 6372 
 4787      6970 746F 
 4787      7248 6964 
 4787      5265 706F 
 4788               	.LASF208:
 4789 09a6 696E 6974 		.string	"initInterfaceUsb"
 4789      496E 7465 
 4789      7266 6163 
 4789      6555 7362 
 4789      00
 4790               	.LASF136:
 4791 09b7 4B45 595F 		.string	"KEY_LGUI"
 4791      4C47 5549 
 4791      00
 4792               	.LASF21:
 4793 09c0 4B45 595F 		.string	"KEY_RALT_HANGLE"
 4793      5241 4C54 
 4793      5F48 414E 
 4793      474C 4500 
 4794               	.LASF221:
 4795 09d0 7573 624D 		.string	"usbMsgPtr"
 4795      7367 5074 
 4795      7200 
 4796               	.LASF142:
 4797 09da 4B45 595F 		.string	"KEY_Multimedia"
 4797      4D75 6C74 
GAS LISTING C:\Users\ADMINI~1\AppData\Local\Temp/ccRLNvvW.s 			page 95


 4797      696D 6564 
 4797      6961 00
 4798               	.LASF132:
 4799 09e9 4B45 595F 		.string	"KEY_Modifiers"
 4799      4D6F 6469 
 4799      6669 6572 
 4799      7300 
 4800               	.LASF110:
 4801 09f7 4B45 595F 		.string	"KEY_LEFT"
 4801      4C45 4654 
 4801      00
 4802               	.global __do_copy_data
 4803               	.global __do_clear_bss
GAS LISTING C:\Users\ADMINI~1\AppData\Local\Temp/ccRLNvvW.s 			page 96


DEFINED SYMBOLS
                            *ABS*:00000000 usbmain.c
C:\Users\ADMINI~1\AppData\Local\Temp/ccRLNvvW.s:2      *ABS*:0000003f __SREG__
C:\Users\ADMINI~1\AppData\Local\Temp/ccRLNvvW.s:3      *ABS*:0000003e __SP_H__
C:\Users\ADMINI~1\AppData\Local\Temp/ccRLNvvW.s:4      *ABS*:0000003d __SP_L__
C:\Users\ADMINI~1\AppData\Local\Temp/ccRLNvvW.s:5      *ABS*:00000034 __CCP__
C:\Users\ADMINI~1\AppData\Local\Temp/ccRLNvvW.s:6      *ABS*:00000000 __tmp_reg__
C:\Users\ADMINI~1\AppData\Local\Temp/ccRLNvvW.s:7      *ABS*:00000001 __zero_reg__
C:\Users\ADMINI~1\AppData\Local\Temp/ccRLNvvW.s:18     .text:00000000 hasMacroUsb
C:\Users\ADMINI~1\AppData\Local\Temp/ccRLNvvW.s:1120   .bss:00000002 _needRelease
C:\Users\ADMINI~1\AppData\Local\Temp/ccRLNvvW.s:45     .text:0000001c clearReportBuffer
C:\Users\ADMINI~1\AppData\Local\Temp/ccRLNvvW.s:1123   .bss:00000005 reportBuffer
C:\Users\ADMINI~1\AppData\Local\Temp/ccRLNvvW.s:68     .text:00000032 prepareKeyMappingUsb
C:\Users\ADMINI~1\AppData\Local\Temp/ccRLNvvW.s:1130   .bss:0000000e _prevPressedBuffer
C:\Users\ADMINI~1\AppData\Local\Temp/ccRLNvvW.s:88     .text:00000042 makeReportBuffer
C:\Users\ADMINI~1\AppData\Local\Temp/ccRLNvvW.s:1118   .bss:00000000 _isMultimediaPressed
                            *COM*:00000001 reportIndex
C:\Users\ADMINI~1\AppData\Local\Temp/ccRLNvvW.s:223    .text:000000d6 scanMacroUsb
C:\Users\ADMINI~1\AppData\Local\Temp/ccRLNvvW.s:362    .text:000001a6 scanKeyUSB
C:\Users\ADMINI~1\AppData\Local\Temp/ccRLNvvW.s:1121   .bss:00000003 prevModifier.2353
C:\Users\ADMINI~1\AppData\Local\Temp/ccRLNvvW.s:691    .text:000003a0 usb_main
C:\Users\ADMINI~1\AppData\Local\Temp/ccRLNvvW.s:1129   .bss:0000000d idleRate
                             .bss:00000001 _isInit
C:\Users\ADMINI~1\AppData\Local\Temp/ccRLNvvW.s:875    .text:000004ae initInterfaceUsb
C:\Users\ADMINI~1\AppData\Local\Temp/ccRLNvvW.s:894    .text:000004be usbFunctionSetup
C:\Users\ADMINI~1\AppData\Local\Temp/ccRLNvvW.s:1122   .bss:00000004 expectReport
C:\Users\ADMINI~1\AppData\Local\Temp/ccRLNvvW.s:1127   .data:00000000 protocolVer
C:\Users\ADMINI~1\AppData\Local\Temp/ccRLNvvW.s:990    .text:00000542 usbFunctionWrite
C:\Users\ADMINI~1\AppData\Local\Temp/ccRLNvvW.s:1027   .progmem.data:00000000 usbDescriptorHidReport

UNDEFINED SYMBOLS
isEmptyM
getDualActionDownKeyIdex
keycode_USB_multimedia
modmask
keycode_USB_extend
popMWithKey
_pressedBuffer
findIndex
memcpy
setCurrentMatrix
getLayer
getCurrentMatrix
prevMatrix
getCurrentKeycode
applyMacro
isBootMapper
trace
applyFN
wakeUp
applyDualActionDown
isKeyMapping
putKeyCode
applyKeyMapping
usbInit
INTERFACE
interfaceReady
GAS LISTING C:\Users\ADMINI~1\AppData\Local\Temp/ccRLNvvW.s 			page 97


interfaceCount
usbPoll
usbTxStatus1
usbSetInterrupt
startKeyMappingOnBoot
countSleep
isBeyondFN
renderLED
setMacroProcessEnd
initFullLEDState
usbMsgPtr
setLEDState
setLEDIndicate
__do_copy_data
__do_clear_bss
