GAS LISTING C:\Users\ADMINI~1\AppData\Local\Temp/cc7IMSsM.s 			page 1


   1               		.file	"usbmain.c"
   2               	__SREG__ = 0x3f
   3               	__SP_H__ = 0x3e
   4               	__SP_L__ = 0x3d
   5               	__CCP__  = 0x34
   6               	__tmp_reg__ = 0
   7               	__zero_reg__ = 1
   8               		.section	.debug_abbrev,"",@progbits
   9               	.Ldebug_abbrev0:
  10               		.section	.debug_info,"",@progbits
  11               	.Ldebug_info0:
  12               		.section	.debug_line,"",@progbits
  13               	.Ldebug_line0:
  14               		.text
  15               	.Ltext0:
  16               	.global	hasMacroUsb
  17               		.type	hasMacroUsb, @function
  18               	hasMacroUsb:
  19               	.LFB16:
  20               	.LM1:
  21               	/* prologue: function */
  22               	/* frame size = 0 */
  23               	.LM2:
  24 0000 8091 0000 		lds r24,_needRelease
  25 0004 8823      		tst r24
  26 0006 01F4      		brne .L6
  27               	.L2:
  28 0008 0E94 0000 		call isEmptyM
  29 000c 20E0      		ldi r18,lo8(0)
  30 000e 30E0      		ldi r19,hi8(0)
  31 0010 8823      		tst r24
  32 0012 01F4      		brne .L3
  33               	.L6:
  34 0014 21E0      		ldi r18,lo8(1)
  35 0016 30E0      		ldi r19,hi8(1)
  36               	.L3:
  37               	.LM3:
  38 0018 822F      		mov r24,r18
  39               	/* epilogue start */
  40 001a 0895      		ret
  41               	.LFE16:
  42               		.size	hasMacroUsb, .-hasMacroUsb
  43               	.global	clearReportBuffer
  44               		.type	clearReportBuffer, @function
  45               	clearReportBuffer:
  46               	.LFB13:
  47               	.LM4:
  48               	/* prologue: function */
  49               	/* frame size = 0 */
  50               	.LM5:
  51 001c 88E0      		ldi r24,lo8(8)
  52 001e E0E0      		ldi r30,lo8(reportBuffer)
  53 0020 F0E0      		ldi r31,hi8(reportBuffer)
  54 0022 DF01      		movw r26,r30
  55 0024 1D92      		st X+,__zero_reg__
  56 0026 8A95      	        dec r24
  57 0028 01F4      		brne .-6
GAS LISTING C:\Users\ADMINI~1\AppData\Local\Temp/cc7IMSsM.s 			page 2


  58               	.LM6:
  59 002a 81E0      		ldi r24,lo8(1)
  60 002c 8093 0000 		sts reportBuffer,r24
  61               	/* epilogue start */
  62               	.LM7:
  63 0030 0895      		ret
  64               	.LFE13:
  65               		.size	clearReportBuffer, .-clearReportBuffer
  66               	.global	prepareKeyMappingUsb
  67               		.type	prepareKeyMappingUsb, @function
  68               	prepareKeyMappingUsb:
  69               	.LFB11:
  70               	.LM8:
  71               	/* prologue: function */
  72               	/* frame size = 0 */
  73               	.LM9:
  74 0032 80E3      		ldi r24,lo8(48)
  75 0034 E0E0      		ldi r30,lo8(_prevPressedBuffer)
  76 0036 F0E0      		ldi r31,hi8(_prevPressedBuffer)
  77 0038 DF01      		movw r26,r30
  78 003a 1D92      		st X+,__zero_reg__
  79 003c 8A95      	        dec r24
  80 003e 01F4      		brne .-6
  81               	/* epilogue start */
  82               	.LM10:
  83 0040 0895      		ret
  84               	.LFE11:
  85               		.size	prepareKeyMappingUsb, .-prepareKeyMappingUsb
  86               	.global	makeReportBuffer
  87               		.type	makeReportBuffer, @function
  88               	makeReportBuffer:
  89               	.LFB12:
  90               	.LM11:
  91               	.LVL0:
  92               	/* prologue: function */
  93               	/* frame size = 0 */
  94               	.LM12:
  95 0042 0E94 0000 		call getDualActionDownKeyIdex
  96               	.LVL1:
  97 0046 982F      		mov r25,r24
  98               	.LVL2:
  99               	.LM13:
 100 0048 853D      		cpi r24,lo8(-43)
 101 004a 00F0      		brlo .+2
 102 004c 00C0      		rjmp .L12
 103               	.LVL3:
 104               	.LM14:
 105 004e 8157      		subi r24,lo8(-(-113))
 106               	.LVL4:
 107 0050 8A31      		cpi r24,lo8(26)
 108 0052 00F4      		brsh .L13
 109               	.LBB2:
 110               	.LM15:
 111 0054 81E0      		ldi r24,lo8(1)
 112 0056 8093 0000 		sts _isMultimediaPressed,r24
 113               	.LBB3:
 114               	.LM16:
GAS LISTING C:\Users\ADMINI~1\AppData\Local\Temp/cc7IMSsM.s 			page 3


 115 005a E92F      		mov r30,r25
 116               	.LVL5:
 117 005c F0E0      		ldi r31,lo8(0)
 118               	.LVL6:
 119 005e EE0F      		lsl r30
 120 0060 FF1F      		rol r31
 121               	.LVL7:
 122 0062 E050      		subi r30,lo8(-(keycode_USB_multimedia-226))
 123 0064 F040      		sbci r31,hi8(-(keycode_USB_multimedia-226))
 124               	/* #APP */
 125               	 ;  430 "usbmain.c" 1
 126 0066 2591      		lpm r18, Z+
 127 0068 3491      		lpm r19, Z
 128               		
 129               	 ;  0 "" 2
 130               	.LVL8:
 131               	/* #NOAPP */
 132               	.LBE3:
 133               	.LM17:
 134 006a 82E0      		ldi r24,lo8(2)
 135 006c 8093 0000 		sts reportBuffer,r24
 136               	.LM18:
 137 0070 2093 0000 		sts reportBuffer+1,r18
 138               	.LM19:
 139 0074 3093 0000 		sts reportBuffer+2,r19
 140               	.LVL9:
 141 0078 00C0      		rjmp .L12
 142               	.LVL10:
 143               	.L13:
 144               	.LBE2:
 145               	.LM20:
 146 007a 892F      		mov r24,r25
 147 007c 8756      		subi r24,lo8(-(-103))
 148 007e 8830      		cpi r24,lo8(8)
 149 0080 00F4      		brsh .L14
 150               	.LM21:
 151 0082 E92F      		mov r30,r25
 152 0084 F0E0      		ldi r31,lo8(0)
 153               	.LVL11:
 154 0086 EE0F      		lsl r30
 155 0088 FF1F      		rol r31
 156               	.LVL12:
 157 008a E050      		subi r30,lo8(-(modmask-206))
 158 008c F040      		sbci r31,hi8(-(modmask-206))
 159               	.LVL13:
 160 008e 8081      		ld r24,Z
 161 0090 9091 0000 		lds r25,reportBuffer+1
 162 0094 892B      		or r24,r25
 163 0096 8093 0000 		sts reportBuffer+1,r24
 164 009a 00C0      		rjmp .L12
 165               	.LVL14:
 166               	.L14:
 167               	.LM22:
 168 009c 9923      		tst r25
 169 009e 01F0      		breq .L12
 170               	.LM23:
 171 00a0 2091 0000 		lds r18,reportIndex
GAS LISTING C:\Users\ADMINI~1\AppData\Local\Temp/cc7IMSsM.s 			page 4


 172 00a4 2830      		cpi r18,lo8(8)
 173 00a6 00F4      		brsh .L12
 174               	.LM24:
 175 00a8 892F      		mov r24,r25
 176 00aa 8D58      		subi r24,lo8(-(115))
 177 00ac 8232      		cpi r24,lo8(34)
 178 00ae 00F4      		brsh .L15
 179               	.LBB4:
 180               	.LM25:
 181 00b0 E92F      		mov r30,r25
 182               	.LVL15:
 183 00b2 F0E0      		ldi r31,lo8(0)
 184               	.LVL16:
 185 00b4 EE0F      		lsl r30
 186 00b6 FF1F      		rol r31
 187               	.LVL17:
 188 00b8 E050      		subi r30,lo8(-(keycode_USB_extend-282))
 189 00ba F040      		sbci r31,hi8(-(keycode_USB_extend-282))
 190               	/* #APP */
 191               	 ;  453 "usbmain.c" 1
 192 00bc 8591      		lpm r24, Z+
 193 00be 9491      		lpm r25, Z
 194               		
 195               	 ;  0 "" 2
 196               	.LVL18:
 197               	/* #NOAPP */
 198               	.LBE4:
 199 00c0 982F      		mov r25,r24
 200               	.L15:
 201               	.LM26:
 202 00c2 E22F      		mov r30,r18
 203               	.LVL19:
 204 00c4 F0E0      		ldi r31,lo8(0)
 205               	.LVL20:
 206 00c6 E050      		subi r30,lo8(-(reportBuffer))
 207 00c8 F040      		sbci r31,hi8(-(reportBuffer))
 208 00ca 9083      		st Z,r25
 209               	.LM27:
 210 00cc 2F5F      		subi r18,lo8(-(1))
 211 00ce 2093 0000 		sts reportIndex,r18
 212               	.LVL21:
 213               	.L12:
 214               	.LM28:
 215 00d2 80E0      		ldi r24,lo8(0)
 216               	.LVL22:
 217               	/* epilogue start */
 218 00d4 0895      		ret
 219               	.LFE12:
 220               		.size	makeReportBuffer, .-makeReportBuffer
 221               	.global	scanMacroUsb
 222               		.type	scanMacroUsb, @function
 223               	scanMacroUsb:
 224               	.LFB15:
 225               	.LM29:
 226 00d6 AF92      		push r10
 227 00d8 BF92      		push r11
 228 00da CF92      		push r12
GAS LISTING C:\Users\ADMINI~1\AppData\Local\Temp/cc7IMSsM.s 			page 5


 229 00dc DF92      		push r13
 230 00de EF92      		push r14
 231 00e0 FF92      		push r15
 232 00e2 1F93      		push r17
 233 00e4 CF93      		push r28
 234 00e6 DF93      		push r29
 235               	/* prologue: function */
 236               	/* frame size = 0 */
 237               	.LM30:
 238 00e8 0E94 0000 		call isEmptyM
 239 00ec 8823      		tst r24
 240 00ee 01F0      		breq .+2
 241 00f0 00C0      		rjmp .L18
 242               	.LBB5:
 243               	.LM31:
 244 00f2 0E94 0000 		call clearReportBuffer
 245               	.LM32:
 246 00f6 0E94 0000 		call popMWithKey
 247               	.LM33:
 248 00fa E0E0      		ldi r30,lo8(_pressedBuffer)
 249 00fc F0E0      		ldi r31,hi8(_pressedBuffer)
 250 00fe DF01      		movw r26,r30
 251 0100 0D90      		ld __tmp_reg__,X+
 252 0102 0020      		tst __tmp_reg__
 253 0104 01F4      		brne .-6
 254 0106 1197      		sbiw r26,1
 255 0108 AE1B      		sub r26,r30
 256 010a BF0B      		sbc r27,r31
 257               	.LM34:
 258 010c 82E0      		ldi r24,lo8(2)
 259 010e 8093 0000 		sts reportIndex,r24
 260 0112 EF01      		movw r28,r30
 261               	.LM35:
 262 0114 EA2E      		mov r14,r26
 263               	.LVL23:
 264 0116 FF24      		clr r15
 265               	.LVL24:
 266 0118 6F01      		movw r12,r30
 267 011a CE0C      		add r12,r14
 268 011c DF1C      		adc r13,r15
 269               	.LM36:
 270 011e 30E0      		ldi r19,lo8(_prevPressedBuffer)
 271 0120 A32E      		mov r10,r19
 272 0122 30E0      		ldi r19,hi8(_prevPressedBuffer)
 273 0124 B32E      		mov r11,r19
 274 0126 00C0      		rjmp .L19
 275               	.LVL25:
 276               	.L22:
 277               	.LM37:
 278 0128 1881      		ld r17,Y
 279               	.LM38:
 280 012a 812F      		mov r24,r17
 281 012c 8756      		subi r24,lo8(-(-103))
 282 012e 8830      		cpi r24,lo8(8)
 283 0130 00F0      		brlo .L26
 284               	.L20:
 285               	.LM39:
GAS LISTING C:\Users\ADMINI~1\AppData\Local\Temp/cc7IMSsM.s 			page 6


 286 0132 F501      		movw r30,r10
 287 0134 0190      		ld __tmp_reg__,Z+
 288 0136 0020      		tst __tmp_reg__
 289 0138 01F4      		brne .-6
 290 013a 3197      		sbiw r30,1
 291 013c E050      		subi r30,lo8(_prevPressedBuffer)
 292 013e F040      		sbci r31,hi8(_prevPressedBuffer)
 293 0140 80E0      		ldi r24,lo8(_prevPressedBuffer)
 294 0142 90E0      		ldi r25,hi8(_prevPressedBuffer)
 295 0144 6E2F      		mov r22,r30
 296 0146 412F      		mov r20,r17
 297 0148 0E94 0000 		call findIndex
 298               	.LM40:
 299 014c 8F5F      		subi r24,lo8(-1)
 300 014e 9F4F      		sbci r25,hi8(-1)
 301 0150 01F4      		brne .L21
 302               	.L26:
 303               	.LM41:
 304 0152 812F      		mov r24,r17
 305 0154 61E0      		ldi r22,lo8(1)
 306 0156 0E94 0000 		call makeReportBuffer
 307               	.L21:
 308 015a 2196      		adiw r28,1
 309               	.L19:
 310               	.LM42:
 311 015c 40E0      		ldi r20,lo8(_pressedBuffer)
 312 015e 50E0      		ldi r21,hi8(_pressedBuffer)
 313 0160 CC15      		cp r28,r12
 314 0162 DD05      		cpc r29,r13
 315 0164 01F4      		brne .L22
 316               	.LM43:
 317 0166 81E0      		ldi r24,lo8(1)
 318 0168 8093 0000 		sts _needRelease,r24
 319               	.LM44:
 320 016c 20E0      		ldi r18,lo8(_prevPressedBuffer)
 321 016e 30E0      		ldi r19,hi8(_prevPressedBuffer)
 322 0170 F701      		movw r30,r14
 323 0172 3196      		adiw r30,1
 324 0174 C901      		movw r24,r18
 325 0176 BA01      		movw r22,r20
 326 0178 AF01      		movw r20,r30
 327 017a 0E94 0000 		call memcpy
 328 017e 00C0      		rjmp .L24
 329               	.LVL26:
 330               	.L18:
 331               	.LBE5:
 332               	.LM45:
 333 0180 8091 0000 		lds r24,_needRelease
 334 0184 8823      		tst r24
 335 0186 01F0      		breq .L24
 336               	.LM46:
 337 0188 0E94 0000 		call clearReportBuffer
 338               	.LM47:
 339 018c 1092 0000 		sts _needRelease,__zero_reg__
 340               	.LVL27:
 341               	.L24:
 342               	.LM48:
GAS LISTING C:\Users\ADMINI~1\AppData\Local\Temp/cc7IMSsM.s 			page 7


 343 0190 81E0      		ldi r24,lo8(1)
 344               	/* epilogue start */
 345 0192 DF91      		pop r29
 346 0194 CF91      		pop r28
 347 0196 1F91      		pop r17
 348               	.LVL28:
 349 0198 FF90      		pop r15
 350               	.LVL29:
 351 019a EF90      		pop r14
 352               	.LVL30:
 353 019c DF90      		pop r13
 354 019e CF90      		pop r12
 355 01a0 BF90      		pop r11
 356 01a2 AF90      		pop r10
 357 01a4 0895      		ret
 358               	.LFE15:
 359               		.size	scanMacroUsb, .-scanMacroUsb
 360               	.global	scanKeyUSB
 361               		.type	scanKeyUSB, @function
 362               	scanKeyUSB:
 363               	.LFB14:
 364               	.LM49:
 365 01a6 3F92      		push r3
 366 01a8 4F92      		push r4
 367 01aa 5F92      		push r5
 368 01ac 6F92      		push r6
 369 01ae 7F92      		push r7
 370 01b0 8F92      		push r8
 371 01b2 9F92      		push r9
 372 01b4 AF92      		push r10
 373 01b6 BF92      		push r11
 374 01b8 CF92      		push r12
 375 01ba DF92      		push r13
 376 01bc EF92      		push r14
 377 01be FF92      		push r15
 378 01c0 0F93      		push r16
 379 01c2 1F93      		push r17
 380 01c4 DF93      		push r29
 381 01c6 CF93      		push r28
 382 01c8 00D0      		rcall .
 383 01ca 0F92      		push __tmp_reg__
 384 01cc CDB7      		in r28,__SP_L__
 385 01ce DEB7      		in r29,__SP_H__
 386               	/* prologue: function */
 387               	/* frame size = 3 */
 388               	.LM50:
 389 01d0 0E94 0000 		call setCurrentMatrix
 390 01d4 8823      		tst r24
 391 01d6 01F4      		brne .+2
 392 01d8 00C0      		rjmp .L28
 393               	.LM51:
 394 01da 0E94 0000 		call getLayer
 395 01de 382E      		mov r3,r24
 396               	.LVL31:
 397               	.LM52:
 398 01e0 82E0      		ldi r24,lo8(2)
 399 01e2 8093 0000 		sts reportIndex,r24
GAS LISTING C:\Users\ADMINI~1\AppData\Local\Temp/cc7IMSsM.s 			page 8


 400               	.LM53:
 401 01e6 0E94 0000 		call clearReportBuffer
 402               	.LM54:
 403 01ea 0E94 0000 		call getCurrentMatrix
 404 01ee 3C01      		movw r6,r24
 405               	.LVL32:
 406 01f0 1982      		std Y+1,__zero_reg__
 407               	.LVL33:
 408 01f2 9924      		clr r9
 409               	.LVL34:
 410 01f4 CC24      		clr r12
 411 01f6 DD24      		clr r13
 412               	.LM55:
 413 01f8 41E0      		ldi r20,lo8(1)
 414 01fa 442E      		mov r4,r20
 415 01fc 512C      		mov r5,__zero_reg__
 416 01fe 00C0      		rjmp .L29
 417               	.LVL35:
 418               	.L41:
 419               	.LM56:
 420 0200 BA80      		ldd r11,Y+2
 421               	.LM57:
 422 0202 EA81      		ldd r30,Y+2
 423 0204 FB81      		ldd r31,Y+3
 424 0206 E050      		subi r30,lo8(-(prevMatrix))
 425 0208 F040      		sbci r31,hi8(-(prevMatrix))
 426 020a 0081      		ld r16,Z
 427               	.LVL36:
 428               	.LM58:
 429 020c EA81      		ldd r30,Y+2
 430 020e FB81      		ldd r31,Y+3
 431 0210 E60D      		add r30,r6
 432 0212 F71D      		adc r31,r7
 433 0214 F080      		ld r15,Z
 434 0216 F820      		and r15,r8
 435               	.LM59:
 436 0218 832D      		mov r24,r3
 437 021a 6B2D      		mov r22,r11
 438 021c 4A2D      		mov r20,r10
 439 021e 0E94 0000 		call getCurrentKeycode
 440 0222 182F      		mov r17,r24
 441               	.LM60:
 442 0224 FF20      		tst r15
 443 0226 01F0      		breq .L30
 444 0228 8823      		tst r24
 445 022a 01F0      		breq .L30
 446               	.LVL37:
 447 022c 0E94 0000 		call applyMacro
 448               	.LVL38:
 449 0230 8823      		tst r24
 450 0232 01F0      		breq .+2
 451 0234 00C0      		rjmp .L28
 452               	.LVL39:
 453               	.L30:
 454               	.LM61:
 455 0236 E82C      		mov r14,r8
 456 0238 E022      		and r14,r16
GAS LISTING C:\Users\ADMINI~1\AppData\Local\Temp/cc7IMSsM.s 			page 9


 457               	.LM62:
 458 023a EF14      		cp r14,r15
 459 023c 01F4      		brne .+2
 460 023e 00C0      		rjmp .L31
 461               	.LM63:
 462 0240 0E94 0000 		call isBootMapper
 463 0244 8823      		tst r24
 464 0246 01F0      		breq .L32
 465               	.LM64:
 466 0248 FF20      		tst r15
 467 024a 01F0      		breq .L33
 468 024c 8B2D      		mov r24,r11
 469 024e 6A2D      		mov r22,r10
 470 0250 0E94 0000 		call trace
 471               	.L33:
 472               	.LM65:
 473 0254 0E94 0000 		call wakeUp
 474 0258 00C0      		rjmp .L34
 475               	.L32:
 476               	.LM66:
 477 025a 1123      		tst r17
 478 025c 01F4      		brne .+2
 479 025e 00C0      		rjmp .L35
 480               	.LM67:
 481 0260 FF20      		tst r15
 482 0262 01F0      		breq .L36
 483               	.LM68:
 484 0264 812F      		mov r24,r17
 485 0266 61E0      		ldi r22,lo8(1)
 486 0268 0E94 0000 		call applyFN
 487 026c 082F      		mov r16,r24
 488               	.LVL40:
 489               	.LM69:
 490 026e 0E94 0000 		call wakeUp
 491               	.LM70:
 492 0272 80E0      		ldi r24,lo8(gs(makeReportBuffer))
 493 0274 90E0      		ldi r25,hi8(gs(makeReportBuffer))
 494 0276 61E0      		ldi r22,lo8(1)
 495 0278 0E94 0000 		call applyDualActionDown
 496 027c 00C0      		rjmp .L37
 497               	.LVL41:
 498               	.L36:
 499               	.LM71:
 500 027e 812F      		mov r24,r17
 501 0280 60E0      		ldi r22,lo8(0)
 502 0282 0E94 0000 		call applyFN
 503 0286 082F      		mov r16,r24
 504               	.LVL42:
 505               	.LM72:
 506 0288 EE20      		tst r14
 507 028a 01F0      		breq .L38
 508               	.L37:
 509 028c 0E94 0000 		call isKeyMapping
 510 0290 8823      		tst r24
 511 0292 01F0      		breq .L38
 512               	.LM73:
 513 0294 FF20      		tst r15
GAS LISTING C:\Users\ADMINI~1\AppData\Local\Temp/cc7IMSsM.s 			page 10


 514 0296 01F0      		breq .L39
 515               	.LM74:
 516 0298 812F      		mov r24,r17
 517 029a 6A2D      		mov r22,r10
 518 029c 4B2D      		mov r20,r11
 519 029e 21E0      		ldi r18,lo8(1)
 520 02a0 0E94 0000 		call putKeyCode
 521 02a4 81E0      		ldi r24,lo8(1)
 522 02a6 8983      		std Y+1,r24
 523               	.LVL43:
 524 02a8 00C0      		rjmp .L40
 525               	.L39:
 526               	.LM75:
 527 02aa 812F      		mov r24,r17
 528 02ac 6A2D      		mov r22,r10
 529 02ae 4B2D      		mov r20,r11
 530 02b0 20E0      		ldi r18,lo8(0)
 531 02b2 0E94 0000 		call putKeyCode
 532 02b6 91E0      		ldi r25,lo8(1)
 533 02b8 9983      		std Y+1,r25
 534               	.LVL44:
 535 02ba 00C0      		rjmp .L40
 536               	.L38:
 537               	.LM76:
 538 02bc 0023      		tst r16
 539 02be 01F0      		breq .L40
 540               	.LVL45:
 541               	.L31:
 542               	.LM77:
 543 02c0 FF20      		tst r15
 544 02c2 01F0      		breq .L40
 545               	.LM78:
 546 02c4 812F      		mov r24,r17
 547 02c6 61E0      		ldi r22,lo8(1)
 548 02c8 0E94 0000 		call makeReportBuffer
 549 02cc 982A      		or r9,r24
 550               	.LVL46:
 551               	.L40:
 552 02ce EA81      		ldd r30,Y+2
 553 02d0 FB81      		ldd r31,Y+3
 554 02d2 3196      		adiw r30,1
 555 02d4 FB83      		std Y+3,r31
 556 02d6 EA83      		std Y+2,r30
 557               	.LM79:
 558 02d8 7197      		sbiw r30,17
 559 02da 01F0      		breq .+2
 560 02dc 00C0      		rjmp .L41
 561               	.L34:
 562 02de 0894      		sec
 563 02e0 C11C      		adc r12,__zero_reg__
 564 02e2 D11C      		adc r13,__zero_reg__
 565               	.LM80:
 566 02e4 F8E0      		ldi r31,lo8(8)
 567 02e6 CF16      		cp r12,r31
 568 02e8 D104      		cpc r13,__zero_reg__
 569 02ea 01F0      		breq .L42
 570               	.L29:
GAS LISTING C:\Users\ADMINI~1\AppData\Local\Temp/cc7IMSsM.s 			page 11


 571 02ec AC2C      		mov r10,r12
 572               	.LM81:
 573 02ee C201      		movw r24,r4
 574 02f0 0C2C      		mov r0,r12
 575 02f2 00C0      		rjmp 2f
 576 02f4 880F      	1:	lsl r24
 577 02f6 991F      		rol r25
 578 02f8 0A94      	2:	dec r0
 579 02fa 02F4      		brpl 1b
 580 02fc 882E      		mov r8,r24
 581 02fe 1B82      		std Y+3,__zero_reg__
 582 0300 1A82      		std Y+2,__zero_reg__
 583 0302 00C0      		rjmp .L41
 584               	.LVL47:
 585               	.L42:
 586               	.LM82:
 587 0304 8091 0000 		lds r24,reportBuffer
 588 0308 8130      		cpi r24,lo8(1)
 589 030a 01F4      		brne .L43
 590 030c 9091 0000 		lds r25,reportBuffer+1
 591 0310 8091 0000 		lds r24,prevModifier.2387
 592 0314 9817      		cp r25,r24
 593 0316 01F0      		breq .L43
 594               	.LM83:
 595 0318 892F      		mov r24,r25
 596 031a 0E94 0000 		call applyKeyMapping
 597               	.LM84:
 598 031e 8091 0000 		lds r24,reportBuffer+1
 599 0322 8093 0000 		sts prevModifier.2387,r24
 600               	.L43:
 601               	.LM85:
 602 0326 8091 0000 		lds r24,_isMultimediaPressed
 603 032a 8823      		tst r24
 604 032c 01F0      		breq .L44
 605 032e 8091 0000 		lds r24,reportBuffer
 606 0332 8230      		cpi r24,lo8(2)
 607 0334 01F0      		breq .L44
 608               	.LM86:
 609 0336 82E0      		ldi r24,lo8(2)
 610 0338 8093 0000 		sts reportBuffer,r24
 611               	.LM87:
 612 033c 1092 0000 		sts reportBuffer+1,__zero_reg__
 613               	.LM88:
 614 0340 1092 0000 		sts reportBuffer+2,__zero_reg__
 615               	.LM89:
 616 0344 1092 0000 		sts _isMultimediaPressed,__zero_reg__
 617               	.L44:
 618 0348 20E0      		ldi r18,lo8(0)
 619 034a 30E0      		ldi r19,hi8(0)
 620               	.L45:
 621               	.LM90:
 622 034c F901      		movw r30,r18
 623 034e E050      		subi r30,lo8(-(prevMatrix))
 624 0350 F040      		sbci r31,hi8(-(prevMatrix))
 625 0352 D301      		movw r26,r6
 626 0354 A20F      		add r26,r18
 627 0356 B31F      		adc r27,r19
GAS LISTING C:\Users\ADMINI~1\AppData\Local\Temp/cc7IMSsM.s 			page 12


 628 0358 8C91      		ld r24,X
 629 035a 8083      		st Z,r24
 630 035c 2F5F      		subi r18,lo8(-(1))
 631 035e 3F4F      		sbci r19,hi8(-(1))
 632               	.LM91:
 633 0360 2131      		cpi r18,17
 634 0362 3105      		cpc r19,__zero_reg__
 635 0364 01F4      		brne .L45
 636               	.LM92:
 637 0366 8981      		ldd r24,Y+1
 638 0368 8130      		cpi r24,lo8(1)
 639 036a 01F0      		breq .L28
 640               	.LM93:
 641 036c 892D      		mov r24,r9
 642 036e 8160      		ori r24,lo8(1)
 643               	.LVL48:
 644 0370 00C0      		rjmp .L46
 645               	.LVL49:
 646               	.L28:
 647               	.LM94:
 648 0372 80E0      		ldi r24,lo8(0)
 649               	.LVL50:
 650               	.L46:
 651               	.LVL51:
 652               	/* epilogue start */
 653               	.LM95:
 654 0374 0F90      		pop __tmp_reg__
 655 0376 0F90      		pop __tmp_reg__
 656 0378 0F90      		pop __tmp_reg__
 657 037a CF91      		pop r28
 658 037c DF91      		pop r29
 659 037e 1F91      		pop r17
 660               	.LVL52:
 661 0380 0F91      		pop r16
 662               	.LVL53:
 663 0382 FF90      		pop r15
 664               	.LVL54:
 665 0384 EF90      		pop r14
 666               	.LVL55:
 667 0386 DF90      		pop r13
 668 0388 CF90      		pop r12
 669 038a BF90      		pop r11
 670               	.LVL56:
 671 038c AF90      		pop r10
 672               	.LVL57:
 673 038e 9F90      		pop r9
 674 0390 8F90      		pop r8
 675 0392 7F90      		pop r7
 676 0394 6F90      		pop r6
 677               	.LVL58:
 678 0396 5F90      		pop r5
 679 0398 4F90      		pop r4
 680 039a 3F90      		pop r3
 681               	.LVL59:
 682 039c 0895      		ret
 683               	.LVL60:
 684               	.L35:
GAS LISTING C:\Users\ADMINI~1\AppData\Local\Temp/cc7IMSsM.s 			page 13


 685               	.LM96:
 686 039e 01E0      		ldi r16,lo8(1)
 687               	.LVL61:
 688 03a0 00C0      		rjmp .L37
 689               	.LFE14:
 690               		.size	scanKeyUSB, .-scanKeyUSB
 691               	.global	usb_main
 692               		.type	usb_main, @function
 693               	usb_main:
 694               	.LFB17:
 695               	.LM97:
 696 03a2 EF92      		push r14
 697 03a4 FF92      		push r15
 698 03a6 0F93      		push r16
 699 03a8 1F93      		push r17
 700               	/* prologue: function */
 701               	/* frame size = 0 */
 702               	.LM98:
 703 03aa 0E94 0000 		call usbInit
 704               	.LM99:
 705               	/* #APP */
 706               	 ;  644 "usbmain.c" 1
 707 03ae 7894      		sei
 708               	 ;  0 "" 2
 709               	/* #NOAPP */
 710 03b0 00E0      		ldi r16,lo8(0)
 711               	.LVL62:
 712 03b2 10E0      		ldi r17,lo8(0)
 713               	.LVL63:
 714               	.LM100:
 715 03b4 EE24      		clr r14
 716 03b6 E394      		inc r14
 717               	.LVL64:
 718               	.L51:
 719               	.LM101:
 720 03b8 8091 0000 		lds r24,INTERFACE
 721 03bc 8130      		cpi r24,lo8(1)
 722 03be 01F4      		brne .L52
 723 03c0 8091 0000 		lds r24,interfaceReady
 724 03c4 8823      		tst r24
 725 03c6 01F4      		brne .L52
 726 03c8 8091 0000 		lds r24,interfaceCount
 727 03cc 9091 0000 		lds r25,(interfaceCount)+1
 728 03d0 0196      		adiw r24,1
 729 03d2 9093 0000 		sts (interfaceCount)+1,r25
 730 03d6 8093 0000 		sts interfaceCount,r24
 731 03da 0197      		sbiw r24,1
 732 03dc 815D      		subi r24,lo8(2001)
 733 03de 9740      		sbci r25,hi8(2001)
 734 03e0 04F0      		brlt .L52
 735               	.LM102:
 736 03e2 1092 0000 		sts INTERFACE,__zero_reg__
 737               	.LM103:
 738 03e6 8BB7      		in r24,91-32
 739 03e8 8F7B      		andi r24,lo8(-65)
 740 03ea 8BBF      		out 91-32,r24
 741               	/* epilogue start */
GAS LISTING C:\Users\ADMINI~1\AppData\Local\Temp/cc7IMSsM.s 			page 14


 742               	.LM104:
 743 03ec 1F91      		pop r17
 744               	.LVL65:
 745 03ee 0F91      		pop r16
 746               	.LVL66:
 747 03f0 FF90      		pop r15
 748               	.LVL67:
 749 03f2 EF90      		pop r14
 750 03f4 0895      		ret
 751               	.LVL68:
 752               	.L52:
 753               	.LM105:
 754 03f6 0E94 0000 		call usbPoll
 755               	.LM106:
 756 03fa 0023      		tst r16
 757 03fc 01F4      		brne .L53
 758               	.LM107:
 759 03fe 0E94 0000 		call scanKeyUSB
 760 0402 082F      		mov r16,r24
 761               	.LM108:
 762 0404 08B6      		in __tmp_reg__,88-32
 763 0406 00FE      		sbrs __tmp_reg__,0
 764 0408 00C0      		rjmp .L54
 765               	.LM109:
 766 040a E8BE      		out 88-32,r14
 767               	.LM110:
 768 040c F090 0000 		lds r15,idleRate
 769               	.LVL69:
 770 0410 FF20      		tst r15
 771 0412 01F0      		breq .L54
 772               	.LM111:
 773 0414 1530      		cpi r17,lo8(5)
 774 0416 00F4      		brsh .L55
 775               	.LVL70:
 776 0418 01E0      		ldi r16,lo8(1)
 777 041a 00C0      		rjmp .L56
 778               	.L55:
 779               	.LM112:
 780 041c 5BEF      		ldi r21,lo8(-5)
 781 041e F52E      		mov r15,r21
 782               	.LVL71:
 783 0420 F10E      		add r15,r17
 784 0422 00C0      		rjmp .L56
 785               	.LVL72:
 786               	.L53:
 787               	.LM113:
 788 0424 0E94 0000 		call scanKeyUSB
 789               	.LVL73:
 790               	.L54:
 791 0428 F12E      		mov r15,r17
 792               	.L56:
 793               	.LM114:
 794 042a 8091 0000 		lds r24,usbTxStatus1
 795 042e 84FF      		sbrs r24,4
 796 0430 00C0      		rjmp .L57
 797               	.LM115:
 798 0432 8091 0000 		lds r24,_isInit
GAS LISTING C:\Users\ADMINI~1\AppData\Local\Temp/cc7IMSsM.s 			page 15


 799 0436 8823      		tst r24
 800 0438 01F0      		breq .L58
 801               	.LM116:
 802 043a 1092 0000 		sts _isInit,__zero_reg__
 803               	.LM117:
 804 043e 0E94 0000 		call clearReportBuffer
 805               	.LM118:
 806 0442 80E0      		ldi r24,lo8(reportBuffer)
 807 0444 90E0      		ldi r25,hi8(reportBuffer)
 808 0446 68E0      		ldi r22,lo8(8)
 809 0448 0E94 0000 		call usbSetInterrupt
 810               	.LM119:
 811 044c 0E94 0000 		call startKeyMappingOnBoot
 812 0450 00C0      		rjmp .L57
 813               	.L58:
 814               	.LM120:
 815 0452 0E94 0000 		call hasMacroUsb
 816 0456 8823      		tst r24
 817 0458 01F0      		breq .L59
 818               	.LM121:
 819 045a 0E94 0000 		call scanMacroUsb
 820               	.LM122:
 821 045e 80E0      		ldi r24,lo8(reportBuffer)
 822 0460 90E0      		ldi r25,hi8(reportBuffer)
 823 0462 68E0      		ldi r22,lo8(8)
 824 0464 0E94 0000 		call usbSetInterrupt
 825 0468 00C0      		rjmp .L57
 826               	.L59:
 827               	.LM123:
 828 046a 0023      		tst r16
 829 046c 01F0      		breq .L57
 830               	.LM124:
 831 046e 8091 0000 		lds r24,reportBuffer
 832 0472 8230      		cpi r24,lo8(2)
 833 0474 01F4      		brne .L60
 834               	.LM125:
 835 0476 80E0      		ldi r24,lo8(reportBuffer)
 836 0478 90E0      		ldi r25,hi8(reportBuffer)
 837 047a 63E0      		ldi r22,lo8(3)
 838 047c 00C0      		rjmp .L66
 839               	.L60:
 840               	.LM126:
 841 047e 8130      		cpi r24,lo8(1)
 842 0480 01F4      		brne .L67
 843               	.L61:
 844               	.LM127:
 845 0482 80E0      		ldi r24,lo8(reportBuffer)
 846 0484 90E0      		ldi r25,hi8(reportBuffer)
 847 0486 68E0      		ldi r22,lo8(8)
 848               	.L66:
 849 0488 0E94 0000 		call usbSetInterrupt
 850               	.L67:
 851 048c 00E0      		ldi r16,lo8(0)
 852               	.L57:
 853               	.LM128:
 854 048e 0E94 0000 		call countSleep
 855               	.LM129:
GAS LISTING C:\Users\ADMINI~1\AppData\Local\Temp/cc7IMSsM.s 			page 16


 856 0492 8091 0000 		lds r24,isBeyondFN
 857 0496 0E94 0000 		call renderLED
 858               	.LM130:
 859 049a 0E94 0000 		call hasMacroUsb
 860 049e 8823      		tst r24
 861 04a0 01F0      		breq .L62
 862               	.LM131:
 863 04a2 80E0      		ldi r24,lo8(0)
 864 04a4 00C0      		rjmp .L65
 865               	.L62:
 866               	.LM132:
 867 04a6 81E0      		ldi r24,lo8(1)
 868               	.L65:
 869 04a8 0E94 0000 		call setMacroProcessEnd
 870               	.LM133:
 871 04ac 1F2D      		mov r17,r15
 872 04ae 00C0      		rjmp .L51
 873               	.LFE17:
 874               		.size	usb_main, .-usb_main
 875               	.global	initInterfaceUsb
 876               		.type	initInterfaceUsb, @function
 877               	initInterfaceUsb:
 878               	.LFB10:
 879               	.LM134:
 880               	/* prologue: function */
 881               	/* frame size = 0 */
 882               	.LM135:
 883 04b0 81E0      		ldi r24,lo8(1)
 884 04b2 8093 0000 		sts _isInit,r24
 885               	.LM136:
 886 04b6 0E94 0000 		call initFullLEDState
 887               	.LM137:
 888 04ba 0E94 0000 		call wakeUp
 889               	/* epilogue start */
 890               	.LM138:
 891 04be 0895      		ret
 892               	.LFE10:
 893               		.size	initInterfaceUsb, .-initInterfaceUsb
 894               	.global	usbFunctionSetup
 895               		.type	usbFunctionSetup, @function
 896               	usbFunctionSetup:
 897               	.LFB8:
 898               	.LM139:
 899               	.LVL74:
 900 04c0 CF93      		push r28
 901 04c2 DF93      		push r29
 902               	/* prologue: function */
 903               	/* frame size = 0 */
 904               	.LM140:
 905 04c4 21E0      		ldi r18,lo8(1)
 906 04c6 2093 0000 		sts interfaceReady,r18
 907               	.LM141:
 908 04ca EC01      		movw r28,r24
 909               	.LVL75:
 910               	.LM142:
 911 04cc 8091 0000 		lds r24,reportBuffer
 912 04d0 8093 0000 		sts usbMsgPtr,r24
GAS LISTING C:\Users\ADMINI~1\AppData\Local\Temp/cc7IMSsM.s 			page 17


 913 04d4 1092 0000 		sts usbMsgPtr+1,__zero_reg__
 914               	.LM143:
 915 04d8 8881      		ld r24,Y
 916               	.LVL76:
 917 04da 8076      		andi r24,lo8(96)
 918 04dc 8032      		cpi r24,lo8(32)
 919 04de 01F4      		brne .L71
 920               	.LM144:
 921 04e0 8981      		ldd r24,Y+1
 922 04e2 8130      		cpi r24,lo8(1)
 923 04e4 01F4      		brne .L72
 924 04e6 88E0      		ldi r24,lo8(8)
 925 04e8 00C0      		rjmp .L73
 926               	.L72:
 927               	.LM145:
 928 04ea 8930      		cpi r24,lo8(9)
 929 04ec 01F4      		brne .L74
 930               	.LM146:
 931 04ee 8E81      		ldd r24,Y+6
 932 04f0 9F81      		ldd r25,Y+7
 933 04f2 0297      		sbiw r24,2
 934 04f4 01F4      		brne .L71
 935               	.LM147:
 936 04f6 2093 0000 		sts expectReport,r18
 937 04fa 8FEF      		ldi r24,lo8(-1)
 938 04fc 00C0      		rjmp .L73
 939               	.L74:
 940               	.LM148:
 941 04fe 8230      		cpi r24,lo8(2)
 942 0500 01F4      		brne .L75
 943               	.LM149:
 944 0502 8091 0000 		lds r24,idleRate
 945 0506 00C0      		rjmp .L79
 946               	.L75:
 947               	.LM150:
 948 0508 8A30      		cpi r24,lo8(10)
 949 050a 01F4      		brne .L76
 950               	.LM151:
 951 050c 0E94 0000 		call initInterfaceUsb
 952               	.LM152:
 953 0510 8B81      		ldd r24,Y+3
 954 0512 8093 0000 		sts idleRate,r24
 955 0516 00C0      		rjmp .L71
 956               	.L76:
 957               	.LM153:
 958 0518 8330      		cpi r24,lo8(3)
 959 051a 01F4      		brne .L77
 960               	.LM154:
 961 051c 8B81      		ldd r24,Y+3
 962 051e 8823      		tst r24
 963 0520 01F4      		brne .L71
 964               	.LM155:
 965 0522 1092 0000 		sts protocolVer,__zero_reg__
 966 0526 00C0      		rjmp .L73
 967               	.L77:
 968               	.LM156:
 969 0528 8B30      		cpi r24,lo8(11)
GAS LISTING C:\Users\ADMINI~1\AppData\Local\Temp/cc7IMSsM.s 			page 18


 970 052a 01F4      		brne .L71
 971               	.LM157:
 972 052c 8091 0000 		lds r24,protocolVer
 973               	.L79:
 974 0530 8093 0000 		sts usbMsgPtr,r24
 975 0534 1092 0000 		sts usbMsgPtr+1,__zero_reg__
 976 0538 81E0      		ldi r24,lo8(1)
 977 053a 00C0      		rjmp .L73
 978               	.L71:
 979               	.LM158:
 980 053c 80E0      		ldi r24,lo8(0)
 981               	.L73:
 982               	/* epilogue start */
 983               	.LM159:
 984 053e DF91      		pop r29
 985 0540 CF91      		pop r28
 986               	.LVL77:
 987 0542 0895      		ret
 988               	.LFE8:
 989               		.size	usbFunctionSetup, .-usbFunctionSetup
 990               	.global	usbFunctionWrite
 991               		.type	usbFunctionWrite, @function
 992               	usbFunctionWrite:
 993               	.LFB9:
 994               	.LM160:
 995               	.LVL78:
 996               	/* prologue: function */
 997               	/* frame size = 0 */
 998 0544 FC01      		movw r30,r24
 999               	.LM161:
 1000 0546 8091 0000 		lds r24,expectReport
 1001               	.LVL79:
 1002 054a 8823      		tst r24
 1003 054c 01F0      		breq .L81
 1004 054e 6230      		cpi r22,lo8(2)
 1005 0550 01F4      		brne .L81
 1006 0552 8081      		ld r24,Z
 1007 0554 8130      		cpi r24,lo8(1)
 1008 0556 01F4      		brne .L81
 1009               	.LM162:
 1010 0558 8181      		ldd r24,Z+1
 1011 055a 0E94 0000 		call setLEDState
 1012               	.LVL80:
 1013               	.LM163:
 1014 055e 0E94 0000 		call setLEDIndicate
 1015               	.LVL81:
 1016               	.L81:
 1017               	.LM164:
 1018 0562 1092 0000 		sts expectReport,__zero_reg__
 1019               	.LM165:
 1020 0566 81E0      		ldi r24,lo8(1)
 1021               	/* epilogue start */
 1022 0568 0895      		ret
 1023               	.LFE9:
 1024               		.size	usbFunctionWrite, .-usbFunctionWrite
 1025               	.global	usbDescriptorHidReport
 1026               		.section	.progmem.data,"a",@progbits
GAS LISTING C:\Users\ADMINI~1\AppData\Local\Temp/cc7IMSsM.s 			page 19


 1027               		.type	usbDescriptorHidReport, @object
 1028               		.size	usbDescriptorHidReport, 85
 1029               	usbDescriptorHidReport:
 1030 0000 05        		.byte	5
 1031 0001 01        		.byte	1
 1032 0002 09        		.byte	9
 1033 0003 06        		.byte	6
 1034 0004 A1        		.byte	-95
 1035 0005 01        		.byte	1
 1036 0006 85        		.byte	-123
 1037 0007 01        		.byte	1
 1038 0008 05        		.byte	5
 1039 0009 07        		.byte	7
 1040 000a 19        		.byte	25
 1041 000b E0        		.byte	-32
 1042 000c 29        		.byte	41
 1043 000d E7        		.byte	-25
 1044 000e 15        		.byte	21
 1045 000f 00        		.byte	0
 1046 0010 25        		.byte	37
 1047 0011 01        		.byte	1
 1048 0012 75        		.byte	117
 1049 0013 01        		.byte	1
 1050 0014 95        		.byte	-107
 1051 0015 08        		.byte	8
 1052 0016 81        		.byte	-127
 1053 0017 02        		.byte	2
 1054 0018 95        		.byte	-107
 1055 0019 05        		.byte	5
 1056 001a 75        		.byte	117
 1057 001b 01        		.byte	1
 1058 001c 05        		.byte	5
 1059 001d 08        		.byte	8
 1060 001e 19        		.byte	25
 1061 001f 01        		.byte	1
 1062 0020 29        		.byte	41
 1063 0021 05        		.byte	5
 1064 0022 91        		.byte	-111
 1065 0023 02        		.byte	2
 1066 0024 95        		.byte	-107
 1067 0025 01        		.byte	1
 1068 0026 75        		.byte	117
 1069 0027 03        		.byte	3
 1070 0028 91        		.byte	-111
 1071 0029 03        		.byte	3
 1072 002a 95        		.byte	-107
 1073 002b 06        		.byte	6
 1074 002c 75        		.byte	117
 1075 002d 08        		.byte	8
 1076 002e 15        		.byte	21
 1077 002f 00        		.byte	0
 1078 0030 26        		.byte	38
 1079 0031 91        		.byte	-111
 1080 0032 00        		.byte	0
 1081 0033 05        		.byte	5
 1082 0034 07        		.byte	7
 1083 0035 19        		.byte	25
GAS LISTING C:\Users\ADMINI~1\AppData\Local\Temp/cc7IMSsM.s 			page 20


 1084 0036 00        		.byte	0
 1085 0037 29        		.byte	41
 1086 0038 A4        		.byte	-92
 1087 0039 81        		.byte	-127
 1088 003a 00        		.byte	0
 1089 003b C0        		.byte	-64
 1090 003c 05        		.byte	5
 1091 003d 0C        		.byte	12
 1092 003e 09        		.byte	9
 1093 003f 01        		.byte	1
 1094 0040 A1        		.byte	-95
 1095 0041 01        		.byte	1
 1096 0042 85        		.byte	-123
 1097 0043 02        		.byte	2
 1098 0044 19        		.byte	25
 1099 0045 00        		.byte	0
 1100 0046 2A        		.byte	42
 1101 0047 3C        		.byte	60
 1102 0048 02        		.byte	2
 1103 0049 15        		.byte	21
 1104 004a 00        		.byte	0
 1105 004b 26        		.byte	38
 1106 004c 3C        		.byte	60
 1107 004d 02        		.byte	2
 1108 004e 95        		.byte	-107
 1109 004f 01        		.byte	1
 1110 0050 75        		.byte	117
 1111 0051 10        		.byte	16
 1112 0052 81        		.byte	-127
 1113 0053 00        		.byte	0
 1114 0054 C0        		.byte	-64
 1115               	.global	_isMultimediaPressed
 1116               	.global	_isMultimediaPressed
 1117               		.section .bss
 1118               		.type	_isMultimediaPressed, @object
 1119               		.size	_isMultimediaPressed, 1
 1120               	_isMultimediaPressed:
 1121 0000 00        		.skip 1,0
 1122               		.lcomm _isInit,1
 1123               		.lcomm _needRelease,1
 1124               		.lcomm prevModifier.2387,1
 1125               		.lcomm expectReport,1
 1126               		.data
 1127               		.type	protocolVer, @object
 1128               		.size	protocolVer, 1
 1129               	protocolVer:
 1130 0000 01        		.byte	1
 1131               		.lcomm reportBuffer,8
 1132               		.lcomm idleRate,1
 1133               		.lcomm _prevPressedBuffer,48
 1134               		.comm reportIndex,1,1
 1135               		.section	.debug_frame,"",@progbits
 1136               	.Lframe0:
 1137 0000 0C00 0000 		.long	.LECIE0-.LSCIE0
 1138               	.LSCIE0:
 1139 0004 FFFF FFFF 		.long	0xffffffff
 1140 0008 01        		.byte	0x1
GAS LISTING C:\Users\ADMINI~1\AppData\Local\Temp/cc7IMSsM.s 			page 21


 1141 0009 00        		.string	""
 1142 000a 01        		.uleb128 0x1
 1143 000b 7F        		.sleb128 -1
 1144 000c 24        		.byte	0x24
 1145 000d 0C        		.byte	0xc
 1146 000e 20        		.uleb128 0x20
 1147 000f 00        		.uleb128 0x0
 1148               		.p2align	2
 1149               	.LECIE0:
 1150               	.LSFDE0:
 1151 0010 0C00 0000 		.long	.LEFDE0-.LASFDE0
 1152               	.LASFDE0:
 1153 0014 0000 0000 		.long	.Lframe0
 1154 0018 0000 0000 		.long	.LFB16
 1155 001c 1C00 0000 		.long	.LFE16-.LFB16
 1156               		.p2align	2
 1157               	.LEFDE0:
 1158               	.LSFDE2:
 1159 0020 0C00 0000 		.long	.LEFDE2-.LASFDE2
 1160               	.LASFDE2:
 1161 0024 0000 0000 		.long	.Lframe0
 1162 0028 0000 0000 		.long	.LFB13
 1163 002c 1600 0000 		.long	.LFE13-.LFB13
 1164               		.p2align	2
 1165               	.LEFDE2:
 1166               	.LSFDE4:
 1167 0030 0C00 0000 		.long	.LEFDE4-.LASFDE4
 1168               	.LASFDE4:
 1169 0034 0000 0000 		.long	.Lframe0
 1170 0038 0000 0000 		.long	.LFB11
 1171 003c 1000 0000 		.long	.LFE11-.LFB11
 1172               		.p2align	2
 1173               	.LEFDE4:
 1174               	.LSFDE6:
 1175 0040 0C00 0000 		.long	.LEFDE6-.LASFDE6
 1176               	.LASFDE6:
 1177 0044 0000 0000 		.long	.Lframe0
 1178 0048 0000 0000 		.long	.LFB12
 1179 004c 9400 0000 		.long	.LFE12-.LFB12
 1180               		.p2align	2
 1181               	.LEFDE6:
 1182               	.LSFDE8:
 1183 0050 0C00 0000 		.long	.LEFDE8-.LASFDE8
 1184               	.LASFDE8:
 1185 0054 0000 0000 		.long	.Lframe0
 1186 0058 0000 0000 		.long	.LFB15
 1187 005c D000 0000 		.long	.LFE15-.LFB15
 1188               		.p2align	2
 1189               	.LEFDE8:
 1190               	.LSFDE10:
 1191 0060 0C00 0000 		.long	.LEFDE10-.LASFDE10
 1192               	.LASFDE10:
 1193 0064 0000 0000 		.long	.Lframe0
 1194 0068 0000 0000 		.long	.LFB14
 1195 006c FC01 0000 		.long	.LFE14-.LFB14
 1196               		.p2align	2
 1197               	.LEFDE10:
GAS LISTING C:\Users\ADMINI~1\AppData\Local\Temp/cc7IMSsM.s 			page 22


 1198               	.LSFDE12:
 1199 0070 0C00 0000 		.long	.LEFDE12-.LASFDE12
 1200               	.LASFDE12:
 1201 0074 0000 0000 		.long	.Lframe0
 1202 0078 0000 0000 		.long	.LFB17
 1203 007c 0E01 0000 		.long	.LFE17-.LFB17
 1204               		.p2align	2
 1205               	.LEFDE12:
 1206               	.LSFDE14:
 1207 0080 0C00 0000 		.long	.LEFDE14-.LASFDE14
 1208               	.LASFDE14:
 1209 0084 0000 0000 		.long	.Lframe0
 1210 0088 0000 0000 		.long	.LFB10
 1211 008c 1000 0000 		.long	.LFE10-.LFB10
 1212               		.p2align	2
 1213               	.LEFDE14:
 1214               	.LSFDE16:
 1215 0090 0C00 0000 		.long	.LEFDE16-.LASFDE16
 1216               	.LASFDE16:
 1217 0094 0000 0000 		.long	.Lframe0
 1218 0098 0000 0000 		.long	.LFB8
 1219 009c 8400 0000 		.long	.LFE8-.LFB8
 1220               		.p2align	2
 1221               	.LEFDE16:
 1222               	.LSFDE18:
 1223 00a0 0C00 0000 		.long	.LEFDE18-.LASFDE18
 1224               	.LASFDE18:
 1225 00a4 0000 0000 		.long	.Lframe0
 1226 00a8 0000 0000 		.long	.LFB9
 1227 00ac 2600 0000 		.long	.LFE9-.LFB9
 1228               		.p2align	2
 1229               	.LEFDE18:
 1230               		.text
 1231               	.Letext0:
 1232               		.section	.debug_loc,"",@progbits
 1233               	.Ldebug_loc0:
 1234               	.LLST4:
 1235 0000 4200 0000 		.long	.LVL0-.Ltext0
 1236 0004 4600 0000 		.long	.LVL1-.Ltext0
 1237 0008 0100      		.word	0x1
 1238 000a 68        		.byte	0x68
 1239 000b 4800 0000 		.long	.LVL2-.Ltext0
 1240 000f 4E00 0000 		.long	.LVL3-.Ltext0
 1241 0013 0100      		.word	0x1
 1242 0015 69        		.byte	0x69
 1243 0016 4E00 0000 		.long	.LVL3-.Ltext0
 1244 001a 5000 0000 		.long	.LVL4-.Ltext0
 1245 001e 0100      		.word	0x1
 1246 0020 68        		.byte	0x68
 1247 0021 5000 0000 		.long	.LVL4-.Ltext0
 1248 0025 8600 0000 		.long	.LVL11-.Ltext0
 1249 0029 0100      		.word	0x1
 1250 002b 69        		.byte	0x69
 1251 002c 8600 0000 		.long	.LVL11-.Ltext0
 1252 0030 9C00 0000 		.long	.LVL14-.Ltext0
 1253 0034 0600      		.word	0x6
 1254 0036 6E        		.byte	0x6e
GAS LISTING C:\Users\ADMINI~1\AppData\Local\Temp/cc7IMSsM.s 			page 23


 1255 0037 93        		.byte	0x93
 1256 0038 01        		.uleb128 0x1
 1257 0039 6F        		.byte	0x6f
 1258 003a 93        		.byte	0x93
 1259 003b 01        		.uleb128 0x1
 1260 003c 9C00 0000 		.long	.LVL14-.Ltext0
 1261 0040 D200 0000 		.long	.LVL21-.Ltext0
 1262 0044 0100      		.word	0x1
 1263 0046 69        		.byte	0x69
 1264 0047 D200 0000 		.long	.LVL21-.Ltext0
 1265 004b D600 0000 		.long	.LFE12-.Ltext0
 1266 004f 0600      		.word	0x6
 1267 0051 69        		.byte	0x69
 1268 0052 93        		.byte	0x93
 1269 0053 01        		.uleb128 0x1
 1270 0054 6F        		.byte	0x6f
 1271 0055 93        		.byte	0x93
 1272 0056 01        		.uleb128 0x1
 1273 0057 0000 0000 		.long	0x0
 1274 005b 0000 0000 		.long	0x0
 1275               	.LLST5:
 1276 005f 4200 0000 		.long	.LVL0-.Ltext0
 1277 0063 4600 0000 		.long	.LVL1-.Ltext0
 1278 0067 0100      		.word	0x1
 1279 0069 66        		.byte	0x66
 1280 006a 0000 0000 		.long	0x0
 1281 006e 0000 0000 		.long	0x0
 1282               	.LLST6:
 1283 0072 5E00 0000 		.long	.LVL6-.Ltext0
 1284 0076 7A00 0000 		.long	.LVL10-.Ltext0
 1285 007a 0600      		.word	0x6
 1286 007c 6E        		.byte	0x6e
 1287 007d 93        		.byte	0x93
 1288 007e 01        		.uleb128 0x1
 1289 007f 6F        		.byte	0x6f
 1290 0080 93        		.byte	0x93
 1291 0081 01        		.uleb128 0x1
 1292 0082 D200 0000 		.long	.LVL21-.Ltext0
 1293 0086 D600 0000 		.long	.LFE12-.Ltext0
 1294 008a 0600      		.word	0x6
 1295 008c 6E        		.byte	0x6e
 1296 008d 93        		.byte	0x93
 1297 008e 01        		.uleb128 0x1
 1298 008f 6F        		.byte	0x6f
 1299 0090 93        		.byte	0x93
 1300 0091 01        		.uleb128 0x1
 1301 0092 0000 0000 		.long	0x0
 1302 0096 0000 0000 		.long	0x0
 1303               	.LLST7:
 1304 009a 6A00 0000 		.long	.LVL8-.Ltext0
 1305 009e 7A00 0000 		.long	.LVL10-.Ltext0
 1306 00a2 0600      		.word	0x6
 1307 00a4 62        		.byte	0x62
 1308 00a5 93        		.byte	0x93
 1309 00a6 01        		.uleb128 0x1
 1310 00a7 63        		.byte	0x63
 1311 00a8 93        		.byte	0x93
GAS LISTING C:\Users\ADMINI~1\AppData\Local\Temp/cc7IMSsM.s 			page 24


 1312 00a9 01        		.uleb128 0x1
 1313 00aa D200 0000 		.long	.LVL21-.Ltext0
 1314 00ae D600 0000 		.long	.LFE12-.Ltext0
 1315 00b2 0600      		.word	0x6
 1316 00b4 62        		.byte	0x62
 1317 00b5 93        		.byte	0x93
 1318 00b6 01        		.uleb128 0x1
 1319 00b7 63        		.byte	0x63
 1320 00b8 93        		.byte	0x93
 1321 00b9 01        		.uleb128 0x1
 1322 00ba 0000 0000 		.long	0x0
 1323 00be 0000 0000 		.long	0x0
 1324               	.LLST8:
 1325 00c2 B400 0000 		.long	.LVL16-.Ltext0
 1326 00c6 C400 0000 		.long	.LVL19-.Ltext0
 1327 00ca 0600      		.word	0x6
 1328 00cc 6E        		.byte	0x6e
 1329 00cd 93        		.byte	0x93
 1330 00ce 01        		.uleb128 0x1
 1331 00cf 6F        		.byte	0x6f
 1332 00d0 93        		.byte	0x93
 1333 00d1 01        		.uleb128 0x1
 1334 00d2 0000 0000 		.long	0x0
 1335 00d6 0000 0000 		.long	0x0
 1336               	.LLST9:
 1337 00da C000 0000 		.long	.LVL18-.Ltext0
 1338 00de D400 0000 		.long	.LVL22-.Ltext0
 1339 00e2 0600      		.word	0x6
 1340 00e4 68        		.byte	0x68
 1341 00e5 93        		.byte	0x93
 1342 00e6 01        		.uleb128 0x1
 1343 00e7 69        		.byte	0x69
 1344 00e8 93        		.byte	0x93
 1345 00e9 01        		.uleb128 0x1
 1346 00ea 0000 0000 		.long	0x0
 1347 00ee 0000 0000 		.long	0x0
 1348               	.LLST11:
 1349 00f2 1601 0000 		.long	.LVL23-.Ltext0
 1350 00f6 1801 0000 		.long	.LVL24-.Ltext0
 1351 00fa 0100      		.word	0x1
 1352 00fc 5E        		.byte	0x5e
 1353 00fd 1801 0000 		.long	.LVL24-.Ltext0
 1354 0101 8001 0000 		.long	.LVL26-.Ltext0
 1355 0105 0600      		.word	0x6
 1356 0107 5E        		.byte	0x5e
 1357 0108 93        		.byte	0x93
 1358 0109 01        		.uleb128 0x1
 1359 010a 5F        		.byte	0x5f
 1360 010b 93        		.byte	0x93
 1361 010c 01        		.uleb128 0x1
 1362 010d 9001 0000 		.long	.LVL27-.Ltext0
 1363 0111 9A01 0000 		.long	.LVL29-.Ltext0
 1364 0115 0600      		.word	0x6
 1365 0117 5E        		.byte	0x5e
 1366 0118 93        		.byte	0x93
 1367 0119 01        		.uleb128 0x1
 1368 011a 5F        		.byte	0x5f
GAS LISTING C:\Users\ADMINI~1\AppData\Local\Temp/cc7IMSsM.s 			page 25


 1369 011b 93        		.byte	0x93
 1370 011c 01        		.uleb128 0x1
 1371 011d 9A01 0000 		.long	.LVL29-.Ltext0
 1372 0121 9C01 0000 		.long	.LVL30-.Ltext0
 1373 0125 0100      		.word	0x1
 1374 0127 5E        		.byte	0x5e
 1375 0128 0000 0000 		.long	0x0
 1376 012c 0000 0000 		.long	0x0
 1377               	.LLST12:
 1378 0130 2801 0000 		.long	.LVL25-.Ltext0
 1379 0134 8001 0000 		.long	.LVL26-.Ltext0
 1380 0138 0100      		.word	0x1
 1381 013a 61        		.byte	0x61
 1382 013b 9001 0000 		.long	.LVL27-.Ltext0
 1383 013f 9801 0000 		.long	.LVL28-.Ltext0
 1384 0143 0100      		.word	0x1
 1385 0145 61        		.byte	0x61
 1386 0146 0000 0000 		.long	0x0
 1387 014a 0000 0000 		.long	0x0
 1388               	.LLST14:
 1389 014e F401 0000 		.long	.LVL34-.Ltext0
 1390 0152 7003 0000 		.long	.LVL48-.Ltext0
 1391 0156 0100      		.word	0x1
 1392 0158 59        		.byte	0x59
 1393 0159 7003 0000 		.long	.LVL48-.Ltext0
 1394 015d 7203 0000 		.long	.LVL49-.Ltext0
 1395 0161 0100      		.word	0x1
 1396 0163 68        		.byte	0x68
 1397 0164 7203 0000 		.long	.LVL49-.Ltext0
 1398 0168 7403 0000 		.long	.LVL50-.Ltext0
 1399 016c 0100      		.word	0x1
 1400 016e 59        		.byte	0x59
 1401 016f 7403 0000 		.long	.LVL50-.Ltext0
 1402 0173 7403 0000 		.long	.LVL51-.Ltext0
 1403 0177 0100      		.word	0x1
 1404 0179 68        		.byte	0x68
 1405 017a 9E03 0000 		.long	.LVL60-.Ltext0
 1406 017e A203 0000 		.long	.LFE14-.Ltext0
 1407 0182 0100      		.word	0x1
 1408 0184 59        		.byte	0x59
 1409 0185 0000 0000 		.long	0x0
 1410 0189 0000 0000 		.long	0x0
 1411               	.LLST15:
 1412 018d 0002 0000 		.long	.LVL35-.Ltext0
 1413 0191 8C03 0000 		.long	.LVL56-.Ltext0
 1414 0195 0100      		.word	0x1
 1415 0197 5B        		.byte	0x5b
 1416 0198 9E03 0000 		.long	.LVL60-.Ltext0
 1417 019c A203 0000 		.long	.LFE14-.Ltext0
 1418 01a0 0100      		.word	0x1
 1419 01a2 5B        		.byte	0x5b
 1420 01a3 0000 0000 		.long	0x0
 1421 01a7 0000 0000 		.long	0x0
 1422               	.LLST16:
 1423 01ab 0002 0000 		.long	.LVL35-.Ltext0
 1424 01af 8E03 0000 		.long	.LVL57-.Ltext0
 1425 01b3 0100      		.word	0x1
GAS LISTING C:\Users\ADMINI~1\AppData\Local\Temp/cc7IMSsM.s 			page 26


 1426 01b5 5A        		.byte	0x5a
 1427 01b6 9E03 0000 		.long	.LVL60-.Ltext0
 1428 01ba A203 0000 		.long	.LFE14-.Ltext0
 1429 01be 0100      		.word	0x1
 1430 01c0 5A        		.byte	0x5a
 1431 01c1 0000 0000 		.long	0x0
 1432 01c5 0000 0000 		.long	0x0
 1433               	.LLST17:
 1434 01c9 0002 0000 		.long	.LVL35-.Ltext0
 1435 01cd 8603 0000 		.long	.LVL55-.Ltext0
 1436 01d1 0100      		.word	0x1
 1437 01d3 5E        		.byte	0x5e
 1438 01d4 9E03 0000 		.long	.LVL60-.Ltext0
 1439 01d8 A203 0000 		.long	.LFE14-.Ltext0
 1440 01dc 0100      		.word	0x1
 1441 01de 5E        		.byte	0x5e
 1442 01df 0000 0000 		.long	0x0
 1443 01e3 0000 0000 		.long	0x0
 1444               	.LLST18:
 1445 01e7 0002 0000 		.long	.LVL35-.Ltext0
 1446 01eb 8403 0000 		.long	.LVL54-.Ltext0
 1447 01ef 0100      		.word	0x1
 1448 01f1 5F        		.byte	0x5f
 1449 01f2 9E03 0000 		.long	.LVL60-.Ltext0
 1450 01f6 A203 0000 		.long	.LFE14-.Ltext0
 1451 01fa 0100      		.word	0x1
 1452 01fc 5F        		.byte	0x5f
 1453 01fd 0000 0000 		.long	0x0
 1454 0201 0000 0000 		.long	0x0
 1455               	.LLST19:
 1456 0205 0002 0000 		.long	.LVL35-.Ltext0
 1457 0209 2C02 0000 		.long	.LVL37-.Ltext0
 1458 020d 0100      		.word	0x1
 1459 020f 61        		.byte	0x61
 1460 0210 2C02 0000 		.long	.LVL37-.Ltext0
 1461 0214 3002 0000 		.long	.LVL38-.Ltext0
 1462 0218 0100      		.word	0x1
 1463 021a 68        		.byte	0x68
 1464 021b 3002 0000 		.long	.LVL38-.Ltext0
 1465 021f 8003 0000 		.long	.LVL52-.Ltext0
 1466 0223 0100      		.word	0x1
 1467 0225 61        		.byte	0x61
 1468 0226 9E03 0000 		.long	.LVL60-.Ltext0
 1469 022a A203 0000 		.long	.LFE14-.Ltext0
 1470 022e 0100      		.word	0x1
 1471 0230 61        		.byte	0x61
 1472 0231 0000 0000 		.long	0x0
 1473 0235 0000 0000 		.long	0x0
 1474               	.LLST20:
 1475 0239 0002 0000 		.long	.LVL35-.Ltext0
 1476 023d 0C02 0000 		.long	.LVL36-.Ltext0
 1477 0241 0100      		.word	0x1
 1478 0243 60        		.byte	0x60
 1479 0244 6E02 0000 		.long	.LVL40-.Ltext0
 1480 0248 7E02 0000 		.long	.LVL41-.Ltext0
 1481 024c 0100      		.word	0x1
 1482 024e 60        		.byte	0x60
GAS LISTING C:\Users\ADMINI~1\AppData\Local\Temp/cc7IMSsM.s 			page 27


 1483 024f 8802 0000 		.long	.LVL42-.Ltext0
 1484 0253 8203 0000 		.long	.LVL53-.Ltext0
 1485 0257 0100      		.word	0x1
 1486 0259 60        		.byte	0x60
 1487 025a A003 0000 		.long	.LVL61-.Ltext0
 1488 025e A203 0000 		.long	.LFE14-.Ltext0
 1489 0262 0100      		.word	0x1
 1490 0264 60        		.byte	0x60
 1491 0265 0000 0000 		.long	0x0
 1492 0269 0000 0000 		.long	0x0
 1493               	.LLST21:
 1494 026d E001 0000 		.long	.LVL31-.Ltext0
 1495 0271 9C03 0000 		.long	.LVL59-.Ltext0
 1496 0275 0100      		.word	0x1
 1497 0277 53        		.byte	0x53
 1498 0278 9E03 0000 		.long	.LVL60-.Ltext0
 1499 027c A203 0000 		.long	.LFE14-.Ltext0
 1500 0280 0100      		.word	0x1
 1501 0282 53        		.byte	0x53
 1502 0283 0000 0000 		.long	0x0
 1503 0287 0000 0000 		.long	0x0
 1504               	.LLST22:
 1505 028b F001 0000 		.long	.LVL32-.Ltext0
 1506 028f 9603 0000 		.long	.LVL58-.Ltext0
 1507 0293 0600      		.word	0x6
 1508 0295 56        		.byte	0x56
 1509 0296 93        		.byte	0x93
 1510 0297 01        		.uleb128 0x1
 1511 0298 57        		.byte	0x57
 1512 0299 93        		.byte	0x93
 1513 029a 01        		.uleb128 0x1
 1514 029b 9E03 0000 		.long	.LVL60-.Ltext0
 1515 029f A203 0000 		.long	.LFE14-.Ltext0
 1516 02a3 0600      		.word	0x6
 1517 02a5 56        		.byte	0x56
 1518 02a6 93        		.byte	0x93
 1519 02a7 01        		.uleb128 0x1
 1520 02a8 57        		.byte	0x57
 1521 02a9 93        		.byte	0x93
 1522 02aa 01        		.uleb128 0x1
 1523 02ab 0000 0000 		.long	0x0
 1524 02af 0000 0000 		.long	0x0
 1525               	.LLST24:
 1526 02b3 B203 0000 		.long	.LVL62-.Ltext0
 1527 02b7 F003 0000 		.long	.LVL66-.Ltext0
 1528 02bb 0100      		.word	0x1
 1529 02bd 60        		.byte	0x60
 1530 02be F603 0000 		.long	.LVL68-.Ltext0
 1531 02c2 B004 0000 		.long	.LFE17-.Ltext0
 1532 02c6 0100      		.word	0x1
 1533 02c8 60        		.byte	0x60
 1534 02c9 0000 0000 		.long	0x0
 1535 02cd 0000 0000 		.long	0x0
 1536               	.LLST25:
 1537 02d1 B403 0000 		.long	.LVL63-.Ltext0
 1538 02d5 EE03 0000 		.long	.LVL65-.Ltext0
 1539 02d9 0100      		.word	0x1
GAS LISTING C:\Users\ADMINI~1\AppData\Local\Temp/cc7IMSsM.s 			page 28


 1540 02db 61        		.byte	0x61
 1541 02dc EE03 0000 		.long	.LVL65-.Ltext0
 1542 02e0 F203 0000 		.long	.LVL67-.Ltext0
 1543 02e4 0100      		.word	0x1
 1544 02e6 5F        		.byte	0x5f
 1545 02e7 F603 0000 		.long	.LVL68-.Ltext0
 1546 02eb 1004 0000 		.long	.LVL69-.Ltext0
 1547 02ef 0100      		.word	0x1
 1548 02f1 61        		.byte	0x61
 1549 02f2 1004 0000 		.long	.LVL69-.Ltext0
 1550 02f6 1804 0000 		.long	.LVL70-.Ltext0
 1551 02fa 0100      		.word	0x1
 1552 02fc 5F        		.byte	0x5f
 1553 02fd 1804 0000 		.long	.LVL70-.Ltext0
 1554 0301 2004 0000 		.long	.LVL71-.Ltext0
 1555 0305 0100      		.word	0x1
 1556 0307 61        		.byte	0x61
 1557 0308 2004 0000 		.long	.LVL71-.Ltext0
 1558 030c 2404 0000 		.long	.LVL72-.Ltext0
 1559 0310 0100      		.word	0x1
 1560 0312 5F        		.byte	0x5f
 1561 0313 2404 0000 		.long	.LVL72-.Ltext0
 1562 0317 2804 0000 		.long	.LVL73-.Ltext0
 1563 031b 0100      		.word	0x1
 1564 031d 61        		.byte	0x61
 1565 031e 2804 0000 		.long	.LVL73-.Ltext0
 1566 0322 B004 0000 		.long	.LFE17-.Ltext0
 1567 0326 0100      		.word	0x1
 1568 0328 5F        		.byte	0x5f
 1569 0329 0000 0000 		.long	0x0
 1570 032d 0000 0000 		.long	0x0
 1571               	.LLST28:
 1572 0331 C004 0000 		.long	.LVL74-.Ltext0
 1573 0335 CC04 0000 		.long	.LVL75-.Ltext0
 1574 0339 0600      		.word	0x6
 1575 033b 68        		.byte	0x68
 1576 033c 93        		.byte	0x93
 1577 033d 01        		.uleb128 0x1
 1578 033e 69        		.byte	0x69
 1579 033f 93        		.byte	0x93
 1580 0340 01        		.uleb128 0x1
 1581 0341 0000 0000 		.long	0x0
 1582 0345 0000 0000 		.long	0x0
 1583               	.LLST29:
 1584 0349 DA04 0000 		.long	.LVL76-.Ltext0
 1585 034d 4205 0000 		.long	.LVL77-.Ltext0
 1586 0351 0600      		.word	0x6
 1587 0353 6C        		.byte	0x6c
 1588 0354 93        		.byte	0x93
 1589 0355 01        		.uleb128 0x1
 1590 0356 6D        		.byte	0x6d
 1591 0357 93        		.byte	0x93
 1592 0358 01        		.uleb128 0x1
 1593 0359 0000 0000 		.long	0x0
 1594 035d 0000 0000 		.long	0x0
 1595               	.LLST31:
 1596 0361 4405 0000 		.long	.LVL78-.Ltext0
GAS LISTING C:\Users\ADMINI~1\AppData\Local\Temp/cc7IMSsM.s 			page 29


 1597 0365 4A05 0000 		.long	.LVL79-.Ltext0
 1598 0369 0600      		.word	0x6
 1599 036b 68        		.byte	0x68
 1600 036c 93        		.byte	0x93
 1601 036d 01        		.uleb128 0x1
 1602 036e 69        		.byte	0x69
 1603 036f 93        		.byte	0x93
 1604 0370 01        		.uleb128 0x1
 1605 0371 4A05 0000 		.long	.LVL79-.Ltext0
 1606 0375 5E05 0000 		.long	.LVL80-.Ltext0
 1607 0379 0600      		.word	0x6
 1608 037b 6E        		.byte	0x6e
 1609 037c 93        		.byte	0x93
 1610 037d 01        		.uleb128 0x1
 1611 037e 6F        		.byte	0x6f
 1612 037f 93        		.byte	0x93
 1613 0380 01        		.uleb128 0x1
 1614 0381 6205 0000 		.long	.LVL81-.Ltext0
 1615 0385 6A05 0000 		.long	.LFE9-.Ltext0
 1616 0389 0600      		.word	0x6
 1617 038b 6E        		.byte	0x6e
 1618 038c 93        		.byte	0x93
 1619 038d 01        		.uleb128 0x1
 1620 038e 6F        		.byte	0x6f
 1621 038f 93        		.byte	0x93
 1622 0390 01        		.uleb128 0x1
 1623 0391 0000 0000 		.long	0x0
 1624 0395 0000 0000 		.long	0x0
 1625               	.LLST32:
 1626 0399 4405 0000 		.long	.LVL78-.Ltext0
 1627 039d 5E05 0000 		.long	.LVL80-.Ltext0
 1628 03a1 0100      		.word	0x1
 1629 03a3 66        		.byte	0x66
 1630 03a4 6205 0000 		.long	.LVL81-.Ltext0
 1631 03a8 6A05 0000 		.long	.LFE9-.Ltext0
 1632 03ac 0100      		.word	0x1
 1633 03ae 66        		.byte	0x66
 1634 03af 0000 0000 		.long	0x0
 1635 03b3 0000 0000 		.long	0x0
 1636               		.section	.debug_info
 1637 0000 550B 0000 		.long	0xb55
 1638 0004 0200      		.word	0x2
 1639 0006 0000 0000 		.long	.Ldebug_abbrev0
 1640 000a 04        		.byte	0x4
 1641 000b 01        		.uleb128 0x1
 1642 000c 0000 0000 		.long	.LASF265
 1643 0010 01        		.byte	0x1
 1644 0011 0000 0000 		.long	.LASF266
 1645 0015 0000 0000 		.long	.LASF267
 1646 0019 0000 0000 		.long	.Ltext0
 1647 001d 0000 0000 		.long	.Letext0
 1648 0021 0000 0000 		.long	.Ldebug_line0
 1649 0025 02        		.uleb128 0x2
 1650 0026 01        		.byte	0x1
 1651 0027 08        		.byte	0x8
 1652 0028 0000 0000 		.long	.LASF0
 1653 002c 02        		.uleb128 0x2
GAS LISTING C:\Users\ADMINI~1\AppData\Local\Temp/cc7IMSsM.s 			page 30


 1654 002d 01        		.byte	0x1
 1655 002e 06        		.byte	0x6
 1656 002f 0000 0000 		.long	.LASF1
 1657 0033 02        		.uleb128 0x2
 1658 0034 02        		.byte	0x2
 1659 0035 07        		.byte	0x7
 1660 0036 0000 0000 		.long	.LASF2
 1661 003a 02        		.uleb128 0x2
 1662 003b 02        		.byte	0x2
 1663 003c 05        		.byte	0x5
 1664 003d 0000 0000 		.long	.LASF3
 1665 0041 02        		.uleb128 0x2
 1666 0042 04        		.byte	0x4
 1667 0043 07        		.byte	0x7
 1668 0044 0000 0000 		.long	.LASF4
 1669 0048 02        		.uleb128 0x2
 1670 0049 04        		.byte	0x4
 1671 004a 05        		.byte	0x5
 1672 004b 0000 0000 		.long	.LASF5
 1673 004f 02        		.uleb128 0x2
 1674 0050 08        		.byte	0x8
 1675 0051 07        		.byte	0x7
 1676 0052 0000 0000 		.long	.LASF6
 1677 0056 02        		.uleb128 0x2
 1678 0057 08        		.byte	0x8
 1679 0058 05        		.byte	0x5
 1680 0059 0000 0000 		.long	.LASF7
 1681 005d 02        		.uleb128 0x2
 1682 005e 02        		.byte	0x2
 1683 005f 07        		.byte	0x7
 1684 0060 0000 0000 		.long	.LASF8
 1685 0064 02        		.uleb128 0x2
 1686 0065 01        		.byte	0x1
 1687 0066 06        		.byte	0x6
 1688 0067 0000 0000 		.long	.LASF9
 1689 006b 03        		.uleb128 0x3
 1690 006c 02        		.byte	0x2
 1691 006d 05        		.byte	0x5
 1692 006e 696E 7400 		.string	"int"
 1693 0072 04        		.uleb128 0x4
 1694 0073 0000 0000 		.long	.LASF10
 1695 0077 02        		.byte	0x2
 1696 0078 7A        		.byte	0x7a
 1697 0079 2500 0000 		.long	0x25
 1698 007d 04        		.uleb128 0x4
 1699 007e 0000 0000 		.long	.LASF11
 1700 0082 02        		.byte	0x2
 1701 0083 7C        		.byte	0x7c
 1702 0084 5D00 0000 		.long	0x5d
 1703 0088 05        		.uleb128 0x5
 1704 0089 01        		.byte	0x1
 1705 008a 06        		.byte	0x6
 1706 008b 05        		.uleb128 0x5
 1707 008c 01        		.byte	0x1
 1708 008d 08        		.byte	0x8
 1709 008e 06        		.uleb128 0x6
 1710 008f 02        		.byte	0x2
GAS LISTING C:\Users\ADMINI~1\AppData\Local\Temp/cc7IMSsM.s 			page 31


 1711 0090 03        		.byte	0x3
 1712 0091 1B        		.byte	0x1b
 1713 0092 1501 0000 		.long	0x115
 1714 0096 07        		.uleb128 0x7
 1715 0097 0000 0000 		.long	.LASF12
 1716 009b D501      		.sleb128 213
 1717 009d 07        		.uleb128 0x7
 1718 009e 0000 0000 		.long	.LASF13
 1719 00a2 D601      		.sleb128 214
 1720 00a4 07        		.uleb128 0x7
 1721 00a5 0000 0000 		.long	.LASF14
 1722 00a9 D701      		.sleb128 215
 1723 00ab 07        		.uleb128 0x7
 1724 00ac 0000 0000 		.long	.LASF15
 1725 00b0 D801      		.sleb128 216
 1726 00b2 07        		.uleb128 0x7
 1727 00b3 0000 0000 		.long	.LASF16
 1728 00b7 D901      		.sleb128 217
 1729 00b9 07        		.uleb128 0x7
 1730 00ba 0000 0000 		.long	.LASF17
 1731 00be DA01      		.sleb128 218
 1732 00c0 07        		.uleb128 0x7
 1733 00c1 0000 0000 		.long	.LASF18
 1734 00c5 DB01      		.sleb128 219
 1735 00c7 07        		.uleb128 0x7
 1736 00c8 0000 0000 		.long	.LASF19
 1737 00cc DC01      		.sleb128 220
 1738 00ce 07        		.uleb128 0x7
 1739 00cf 0000 0000 		.long	.LASF20
 1740 00d3 DD01      		.sleb128 221
 1741 00d5 07        		.uleb128 0x7
 1742 00d6 0000 0000 		.long	.LASF21
 1743 00da DE01      		.sleb128 222
 1744 00dc 07        		.uleb128 0x7
 1745 00dd 0000 0000 		.long	.LASF22
 1746 00e1 DF01      		.sleb128 223
 1747 00e3 07        		.uleb128 0x7
 1748 00e4 0000 0000 		.long	.LASF23
 1749 00e8 E001      		.sleb128 224
 1750 00ea 07        		.uleb128 0x7
 1751 00eb 0000 0000 		.long	.LASF24
 1752 00ef E101      		.sleb128 225
 1753 00f1 07        		.uleb128 0x7
 1754 00f2 0000 0000 		.long	.LASF25
 1755 00f6 E201      		.sleb128 226
 1756 00f8 07        		.uleb128 0x7
 1757 00f9 0000 0000 		.long	.LASF26
 1758 00fd E301      		.sleb128 227
 1759 00ff 07        		.uleb128 0x7
 1760 0100 0000 0000 		.long	.LASF27
 1761 0104 E401      		.sleb128 228
 1762 0106 07        		.uleb128 0x7
 1763 0107 0000 0000 		.long	.LASF28
 1764 010b E501      		.sleb128 229
 1765 010d 07        		.uleb128 0x7
 1766 010e 0000 0000 		.long	.LASF29
 1767 0112 E601      		.sleb128 230
GAS LISTING C:\Users\ADMINI~1\AppData\Local\Temp/cc7IMSsM.s 			page 32


 1768 0114 00        		.byte	0x0
 1769 0115 06        		.uleb128 0x6
 1770 0116 02        		.byte	0x2
 1771 0117 03        		.byte	0x3
 1772 0118 41        		.byte	0x41
 1773 0119 AE05 0000 		.long	0x5ae
 1774 011d 07        		.uleb128 0x7
 1775 011e 0000 0000 		.long	.LASF30
 1776 0122 00        		.sleb128 0
 1777 0123 07        		.uleb128 0x7
 1778 0124 0000 0000 		.long	.LASF31
 1779 0128 01        		.sleb128 1
 1780 0129 07        		.uleb128 0x7
 1781 012a 0000 0000 		.long	.LASF32
 1782 012e 02        		.sleb128 2
 1783 012f 07        		.uleb128 0x7
 1784 0130 0000 0000 		.long	.LASF33
 1785 0134 03        		.sleb128 3
 1786 0135 07        		.uleb128 0x7
 1787 0136 0000 0000 		.long	.LASF34
 1788 013a 04        		.sleb128 4
 1789 013b 07        		.uleb128 0x7
 1790 013c 0000 0000 		.long	.LASF35
 1791 0140 05        		.sleb128 5
 1792 0141 07        		.uleb128 0x7
 1793 0142 0000 0000 		.long	.LASF36
 1794 0146 06        		.sleb128 6
 1795 0147 07        		.uleb128 0x7
 1796 0148 0000 0000 		.long	.LASF37
 1797 014c 07        		.sleb128 7
 1798 014d 07        		.uleb128 0x7
 1799 014e 0000 0000 		.long	.LASF38
 1800 0152 08        		.sleb128 8
 1801 0153 07        		.uleb128 0x7
 1802 0154 0000 0000 		.long	.LASF39
 1803 0158 09        		.sleb128 9
 1804 0159 07        		.uleb128 0x7
 1805 015a 0000 0000 		.long	.LASF40
 1806 015e 0A        		.sleb128 10
 1807 015f 07        		.uleb128 0x7
 1808 0160 0000 0000 		.long	.LASF41
 1809 0164 0B        		.sleb128 11
 1810 0165 07        		.uleb128 0x7
 1811 0166 0000 0000 		.long	.LASF42
 1812 016a 0C        		.sleb128 12
 1813 016b 07        		.uleb128 0x7
 1814 016c 0000 0000 		.long	.LASF43
 1815 0170 0D        		.sleb128 13
 1816 0171 07        		.uleb128 0x7
 1817 0172 0000 0000 		.long	.LASF44
 1818 0176 0E        		.sleb128 14
 1819 0177 07        		.uleb128 0x7
 1820 0178 0000 0000 		.long	.LASF45
 1821 017c 0F        		.sleb128 15
 1822 017d 07        		.uleb128 0x7
 1823 017e 0000 0000 		.long	.LASF46
 1824 0182 10        		.sleb128 16
GAS LISTING C:\Users\ADMINI~1\AppData\Local\Temp/cc7IMSsM.s 			page 33


 1825 0183 07        		.uleb128 0x7
 1826 0184 0000 0000 		.long	.LASF47
 1827 0188 11        		.sleb128 17
 1828 0189 07        		.uleb128 0x7
 1829 018a 0000 0000 		.long	.LASF48
 1830 018e 12        		.sleb128 18
 1831 018f 07        		.uleb128 0x7
 1832 0190 0000 0000 		.long	.LASF49
 1833 0194 13        		.sleb128 19
 1834 0195 07        		.uleb128 0x7
 1835 0196 0000 0000 		.long	.LASF50
 1836 019a 14        		.sleb128 20
 1837 019b 07        		.uleb128 0x7
 1838 019c 0000 0000 		.long	.LASF51
 1839 01a0 15        		.sleb128 21
 1840 01a1 07        		.uleb128 0x7
 1841 01a2 0000 0000 		.long	.LASF52
 1842 01a6 16        		.sleb128 22
 1843 01a7 07        		.uleb128 0x7
 1844 01a8 0000 0000 		.long	.LASF53
 1845 01ac 17        		.sleb128 23
 1846 01ad 07        		.uleb128 0x7
 1847 01ae 0000 0000 		.long	.LASF54
 1848 01b2 18        		.sleb128 24
 1849 01b3 07        		.uleb128 0x7
 1850 01b4 0000 0000 		.long	.LASF55
 1851 01b8 19        		.sleb128 25
 1852 01b9 07        		.uleb128 0x7
 1853 01ba 0000 0000 		.long	.LASF56
 1854 01be 1A        		.sleb128 26
 1855 01bf 07        		.uleb128 0x7
 1856 01c0 0000 0000 		.long	.LASF57
 1857 01c4 1B        		.sleb128 27
 1858 01c5 07        		.uleb128 0x7
 1859 01c6 0000 0000 		.long	.LASF58
 1860 01ca 1C        		.sleb128 28
 1861 01cb 07        		.uleb128 0x7
 1862 01cc 0000 0000 		.long	.LASF59
 1863 01d0 1D        		.sleb128 29
 1864 01d1 07        		.uleb128 0x7
 1865 01d2 0000 0000 		.long	.LASF60
 1866 01d6 1E        		.sleb128 30
 1867 01d7 07        		.uleb128 0x7
 1868 01d8 0000 0000 		.long	.LASF61
 1869 01dc 1F        		.sleb128 31
 1870 01dd 07        		.uleb128 0x7
 1871 01de 0000 0000 		.long	.LASF62
 1872 01e2 20        		.sleb128 32
 1873 01e3 07        		.uleb128 0x7
 1874 01e4 0000 0000 		.long	.LASF63
 1875 01e8 21        		.sleb128 33
 1876 01e9 07        		.uleb128 0x7
 1877 01ea 0000 0000 		.long	.LASF64
 1878 01ee 22        		.sleb128 34
 1879 01ef 07        		.uleb128 0x7
 1880 01f0 0000 0000 		.long	.LASF65
 1881 01f4 23        		.sleb128 35
GAS LISTING C:\Users\ADMINI~1\AppData\Local\Temp/cc7IMSsM.s 			page 34


 1882 01f5 07        		.uleb128 0x7
 1883 01f6 0000 0000 		.long	.LASF66
 1884 01fa 24        		.sleb128 36
 1885 01fb 07        		.uleb128 0x7
 1886 01fc 0000 0000 		.long	.LASF67
 1887 0200 25        		.sleb128 37
 1888 0201 07        		.uleb128 0x7
 1889 0202 0000 0000 		.long	.LASF68
 1890 0206 26        		.sleb128 38
 1891 0207 07        		.uleb128 0x7
 1892 0208 0000 0000 		.long	.LASF69
 1893 020c 27        		.sleb128 39
 1894 020d 07        		.uleb128 0x7
 1895 020e 0000 0000 		.long	.LASF70
 1896 0212 28        		.sleb128 40
 1897 0213 07        		.uleb128 0x7
 1898 0214 0000 0000 		.long	.LASF71
 1899 0218 29        		.sleb128 41
 1900 0219 07        		.uleb128 0x7
 1901 021a 0000 0000 		.long	.LASF72
 1902 021e 2A        		.sleb128 42
 1903 021f 07        		.uleb128 0x7
 1904 0220 0000 0000 		.long	.LASF73
 1905 0224 2B        		.sleb128 43
 1906 0225 07        		.uleb128 0x7
 1907 0226 0000 0000 		.long	.LASF74
 1908 022a 2C        		.sleb128 44
 1909 022b 07        		.uleb128 0x7
 1910 022c 0000 0000 		.long	.LASF75
 1911 0230 2D        		.sleb128 45
 1912 0231 07        		.uleb128 0x7
 1913 0232 0000 0000 		.long	.LASF76
 1914 0236 2E        		.sleb128 46
 1915 0237 07        		.uleb128 0x7
 1916 0238 0000 0000 		.long	.LASF77
 1917 023c 2F        		.sleb128 47
 1918 023d 07        		.uleb128 0x7
 1919 023e 0000 0000 		.long	.LASF78
 1920 0242 30        		.sleb128 48
 1921 0243 07        		.uleb128 0x7
 1922 0244 0000 0000 		.long	.LASF79
 1923 0248 31        		.sleb128 49
 1924 0249 07        		.uleb128 0x7
 1925 024a 0000 0000 		.long	.LASF80
 1926 024e 32        		.sleb128 50
 1927 024f 07        		.uleb128 0x7
 1928 0250 0000 0000 		.long	.LASF81
 1929 0254 33        		.sleb128 51
 1930 0255 07        		.uleb128 0x7
 1931 0256 0000 0000 		.long	.LASF82
 1932 025a 34        		.sleb128 52
 1933 025b 07        		.uleb128 0x7
 1934 025c 0000 0000 		.long	.LASF83
 1935 0260 35        		.sleb128 53
 1936 0261 07        		.uleb128 0x7
 1937 0262 0000 0000 		.long	.LASF84
 1938 0266 36        		.sleb128 54
GAS LISTING C:\Users\ADMINI~1\AppData\Local\Temp/cc7IMSsM.s 			page 35


 1939 0267 07        		.uleb128 0x7
 1940 0268 0000 0000 		.long	.LASF85
 1941 026c 37        		.sleb128 55
 1942 026d 07        		.uleb128 0x7
 1943 026e 0000 0000 		.long	.LASF86
 1944 0272 38        		.sleb128 56
 1945 0273 07        		.uleb128 0x7
 1946 0274 0000 0000 		.long	.LASF87
 1947 0278 39        		.sleb128 57
 1948 0279 07        		.uleb128 0x7
 1949 027a 0000 0000 		.long	.LASF88
 1950 027e 3A        		.sleb128 58
 1951 027f 07        		.uleb128 0x7
 1952 0280 0000 0000 		.long	.LASF89
 1953 0284 3B        		.sleb128 59
 1954 0285 07        		.uleb128 0x7
 1955 0286 0000 0000 		.long	.LASF90
 1956 028a 3C        		.sleb128 60
 1957 028b 07        		.uleb128 0x7
 1958 028c 0000 0000 		.long	.LASF91
 1959 0290 3D        		.sleb128 61
 1960 0291 07        		.uleb128 0x7
 1961 0292 0000 0000 		.long	.LASF92
 1962 0296 3E        		.sleb128 62
 1963 0297 07        		.uleb128 0x7
 1964 0298 0000 0000 		.long	.LASF93
 1965 029c 3F        		.sleb128 63
 1966 029d 07        		.uleb128 0x7
 1967 029e 0000 0000 		.long	.LASF94
 1968 02a2 C000      		.sleb128 64
 1969 02a4 07        		.uleb128 0x7
 1970 02a5 0000 0000 		.long	.LASF95
 1971 02a9 C100      		.sleb128 65
 1972 02ab 07        		.uleb128 0x7
 1973 02ac 0000 0000 		.long	.LASF96
 1974 02b0 C200      		.sleb128 66
 1975 02b2 07        		.uleb128 0x7
 1976 02b3 0000 0000 		.long	.LASF97
 1977 02b7 C300      		.sleb128 67
 1978 02b9 07        		.uleb128 0x7
 1979 02ba 0000 0000 		.long	.LASF98
 1980 02be C400      		.sleb128 68
 1981 02c0 07        		.uleb128 0x7
 1982 02c1 0000 0000 		.long	.LASF99
 1983 02c5 C500      		.sleb128 69
 1984 02c7 07        		.uleb128 0x7
 1985 02c8 0000 0000 		.long	.LASF100
 1986 02cc C600      		.sleb128 70
 1987 02ce 07        		.uleb128 0x7
 1988 02cf 0000 0000 		.long	.LASF101
 1989 02d3 C700      		.sleb128 71
 1990 02d5 07        		.uleb128 0x7
 1991 02d6 0000 0000 		.long	.LASF102
 1992 02da C800      		.sleb128 72
 1993 02dc 07        		.uleb128 0x7
 1994 02dd 0000 0000 		.long	.LASF103
 1995 02e1 C900      		.sleb128 73
GAS LISTING C:\Users\ADMINI~1\AppData\Local\Temp/cc7IMSsM.s 			page 36


 1996 02e3 07        		.uleb128 0x7
 1997 02e4 0000 0000 		.long	.LASF104
 1998 02e8 CA00      		.sleb128 74
 1999 02ea 07        		.uleb128 0x7
 2000 02eb 0000 0000 		.long	.LASF105
 2001 02ef CB00      		.sleb128 75
 2002 02f1 07        		.uleb128 0x7
 2003 02f2 0000 0000 		.long	.LASF106
 2004 02f6 CC00      		.sleb128 76
 2005 02f8 07        		.uleb128 0x7
 2006 02f9 0000 0000 		.long	.LASF107
 2007 02fd CD00      		.sleb128 77
 2008 02ff 07        		.uleb128 0x7
 2009 0300 0000 0000 		.long	.LASF108
 2010 0304 CE00      		.sleb128 78
 2011 0306 07        		.uleb128 0x7
 2012 0307 0000 0000 		.long	.LASF109
 2013 030b CF00      		.sleb128 79
 2014 030d 07        		.uleb128 0x7
 2015 030e 0000 0000 		.long	.LASF110
 2016 0312 D000      		.sleb128 80
 2017 0314 07        		.uleb128 0x7
 2018 0315 0000 0000 		.long	.LASF111
 2019 0319 D100      		.sleb128 81
 2020 031b 07        		.uleb128 0x7
 2021 031c 0000 0000 		.long	.LASF112
 2022 0320 D200      		.sleb128 82
 2023 0322 07        		.uleb128 0x7
 2024 0323 0000 0000 		.long	.LASF113
 2025 0327 D300      		.sleb128 83
 2026 0329 07        		.uleb128 0x7
 2027 032a 0000 0000 		.long	.LASF114
 2028 032e D400      		.sleb128 84
 2029 0330 07        		.uleb128 0x7
 2030 0331 0000 0000 		.long	.LASF115
 2031 0335 D500      		.sleb128 85
 2032 0337 07        		.uleb128 0x7
 2033 0338 0000 0000 		.long	.LASF116
 2034 033c D600      		.sleb128 86
 2035 033e 07        		.uleb128 0x7
 2036 033f 0000 0000 		.long	.LASF117
 2037 0343 D700      		.sleb128 87
 2038 0345 07        		.uleb128 0x7
 2039 0346 0000 0000 		.long	.LASF118
 2040 034a D800      		.sleb128 88
 2041 034c 07        		.uleb128 0x7
 2042 034d 0000 0000 		.long	.LASF119
 2043 0351 D900      		.sleb128 89
 2044 0353 07        		.uleb128 0x7
 2045 0354 0000 0000 		.long	.LASF120
 2046 0358 DA00      		.sleb128 90
 2047 035a 07        		.uleb128 0x7
 2048 035b 0000 0000 		.long	.LASF121
 2049 035f DB00      		.sleb128 91
 2050 0361 07        		.uleb128 0x7
 2051 0362 0000 0000 		.long	.LASF122
 2052 0366 DC00      		.sleb128 92
GAS LISTING C:\Users\ADMINI~1\AppData\Local\Temp/cc7IMSsM.s 			page 37


 2053 0368 07        		.uleb128 0x7
 2054 0369 0000 0000 		.long	.LASF123
 2055 036d DD00      		.sleb128 93
 2056 036f 07        		.uleb128 0x7
 2057 0370 0000 0000 		.long	.LASF124
 2058 0374 DE00      		.sleb128 94
 2059 0376 07        		.uleb128 0x7
 2060 0377 0000 0000 		.long	.LASF125
 2061 037b DF00      		.sleb128 95
 2062 037d 07        		.uleb128 0x7
 2063 037e 0000 0000 		.long	.LASF126
 2064 0382 E000      		.sleb128 96
 2065 0384 07        		.uleb128 0x7
 2066 0385 0000 0000 		.long	.LASF127
 2067 0389 E100      		.sleb128 97
 2068 038b 07        		.uleb128 0x7
 2069 038c 0000 0000 		.long	.LASF128
 2070 0390 E200      		.sleb128 98
 2071 0392 07        		.uleb128 0x7
 2072 0393 0000 0000 		.long	.LASF129
 2073 0397 E300      		.sleb128 99
 2074 0399 07        		.uleb128 0x7
 2075 039a 0000 0000 		.long	.LASF130
 2076 039e E400      		.sleb128 100
 2077 03a0 07        		.uleb128 0x7
 2078 03a1 0000 0000 		.long	.LASF131
 2079 03a5 E500      		.sleb128 101
 2080 03a7 07        		.uleb128 0x7
 2081 03a8 0000 0000 		.long	.LASF132
 2082 03ac E600      		.sleb128 102
 2083 03ae 07        		.uleb128 0x7
 2084 03af 0000 0000 		.long	.LASF133
 2085 03b3 E700      		.sleb128 103
 2086 03b5 07        		.uleb128 0x7
 2087 03b6 0000 0000 		.long	.LASF134
 2088 03ba E800      		.sleb128 104
 2089 03bc 07        		.uleb128 0x7
 2090 03bd 0000 0000 		.long	.LASF135
 2091 03c1 E900      		.sleb128 105
 2092 03c3 07        		.uleb128 0x7
 2093 03c4 0000 0000 		.long	.LASF136
 2094 03c8 EA00      		.sleb128 106
 2095 03ca 07        		.uleb128 0x7
 2096 03cb 0000 0000 		.long	.LASF137
 2097 03cf EB00      		.sleb128 107
 2098 03d1 07        		.uleb128 0x7
 2099 03d2 0000 0000 		.long	.LASF138
 2100 03d6 EC00      		.sleb128 108
 2101 03d8 07        		.uleb128 0x7
 2102 03d9 0000 0000 		.long	.LASF139
 2103 03dd ED00      		.sleb128 109
 2104 03df 07        		.uleb128 0x7
 2105 03e0 0000 0000 		.long	.LASF140
 2106 03e4 EE00      		.sleb128 110
 2107 03e6 07        		.uleb128 0x7
 2108 03e7 0000 0000 		.long	.LASF141
 2109 03eb EF00      		.sleb128 111
GAS LISTING C:\Users\ADMINI~1\AppData\Local\Temp/cc7IMSsM.s 			page 38


 2110 03ed 07        		.uleb128 0x7
 2111 03ee 0000 0000 		.long	.LASF142
 2112 03f2 F000      		.sleb128 112
 2113 03f4 07        		.uleb128 0x7
 2114 03f5 0000 0000 		.long	.LASF143
 2115 03f9 F100      		.sleb128 113
 2116 03fb 07        		.uleb128 0x7
 2117 03fc 0000 0000 		.long	.LASF144
 2118 0400 F200      		.sleb128 114
 2119 0402 07        		.uleb128 0x7
 2120 0403 0000 0000 		.long	.LASF145
 2121 0407 F300      		.sleb128 115
 2122 0409 07        		.uleb128 0x7
 2123 040a 0000 0000 		.long	.LASF146
 2124 040e F400      		.sleb128 116
 2125 0410 07        		.uleb128 0x7
 2126 0411 0000 0000 		.long	.LASF147
 2127 0415 F500      		.sleb128 117
 2128 0417 07        		.uleb128 0x7
 2129 0418 0000 0000 		.long	.LASF148
 2130 041c F600      		.sleb128 118
 2131 041e 07        		.uleb128 0x7
 2132 041f 0000 0000 		.long	.LASF149
 2133 0423 F700      		.sleb128 119
 2134 0425 07        		.uleb128 0x7
 2135 0426 0000 0000 		.long	.LASF150
 2136 042a F800      		.sleb128 120
 2137 042c 07        		.uleb128 0x7
 2138 042d 0000 0000 		.long	.LASF151
 2139 0431 F900      		.sleb128 121
 2140 0433 07        		.uleb128 0x7
 2141 0434 0000 0000 		.long	.LASF152
 2142 0438 FA00      		.sleb128 122
 2143 043a 07        		.uleb128 0x7
 2144 043b 0000 0000 		.long	.LASF153
 2145 043f FB00      		.sleb128 123
 2146 0441 07        		.uleb128 0x7
 2147 0442 0000 0000 		.long	.LASF154
 2148 0446 FC00      		.sleb128 124
 2149 0448 07        		.uleb128 0x7
 2150 0449 0000 0000 		.long	.LASF155
 2151 044d FD00      		.sleb128 125
 2152 044f 07        		.uleb128 0x7
 2153 0450 0000 0000 		.long	.LASF156
 2154 0454 FE00      		.sleb128 126
 2155 0456 07        		.uleb128 0x7
 2156 0457 0000 0000 		.long	.LASF157
 2157 045b FF00      		.sleb128 127
 2158 045d 07        		.uleb128 0x7
 2159 045e 0000 0000 		.long	.LASF158
 2160 0462 8001      		.sleb128 128
 2161 0464 07        		.uleb128 0x7
 2162 0465 0000 0000 		.long	.LASF159
 2163 0469 8101      		.sleb128 129
 2164 046b 07        		.uleb128 0x7
 2165 046c 0000 0000 		.long	.LASF160
 2166 0470 8201      		.sleb128 130
GAS LISTING C:\Users\ADMINI~1\AppData\Local\Temp/cc7IMSsM.s 			page 39


 2167 0472 07        		.uleb128 0x7
 2168 0473 0000 0000 		.long	.LASF161
 2169 0477 8301      		.sleb128 131
 2170 0479 07        		.uleb128 0x7
 2171 047a 0000 0000 		.long	.LASF162
 2172 047e 8401      		.sleb128 132
 2173 0480 07        		.uleb128 0x7
 2174 0481 0000 0000 		.long	.LASF163
 2175 0485 8501      		.sleb128 133
 2176 0487 07        		.uleb128 0x7
 2177 0488 0000 0000 		.long	.LASF164
 2178 048c 8601      		.sleb128 134
 2179 048e 07        		.uleb128 0x7
 2180 048f 0000 0000 		.long	.LASF165
 2181 0493 8701      		.sleb128 135
 2182 0495 07        		.uleb128 0x7
 2183 0496 0000 0000 		.long	.LASF166
 2184 049a 8801      		.sleb128 136
 2185 049c 07        		.uleb128 0x7
 2186 049d 0000 0000 		.long	.LASF167
 2187 04a1 8901      		.sleb128 137
 2188 04a3 07        		.uleb128 0x7
 2189 04a4 0000 0000 		.long	.LASF168
 2190 04a8 8A01      		.sleb128 138
 2191 04aa 07        		.uleb128 0x7
 2192 04ab 0000 0000 		.long	.LASF169
 2193 04af 8B01      		.sleb128 139
 2194 04b1 07        		.uleb128 0x7
 2195 04b2 0000 0000 		.long	.LASF170
 2196 04b6 8C01      		.sleb128 140
 2197 04b8 07        		.uleb128 0x7
 2198 04b9 0000 0000 		.long	.LASF171
 2199 04bd 8D01      		.sleb128 141
 2200 04bf 07        		.uleb128 0x7
 2201 04c0 0000 0000 		.long	.LASF172
 2202 04c4 8E01      		.sleb128 142
 2203 04c6 07        		.uleb128 0x7
 2204 04c7 0000 0000 		.long	.LASF173
 2205 04cb 8F01      		.sleb128 143
 2206 04cd 07        		.uleb128 0x7
 2207 04ce 0000 0000 		.long	.LASF174
 2208 04d2 9001      		.sleb128 144
 2209 04d4 07        		.uleb128 0x7
 2210 04d5 0000 0000 		.long	.LASF175
 2211 04d9 9101      		.sleb128 145
 2212 04db 07        		.uleb128 0x7
 2213 04dc 0000 0000 		.long	.LASF176
 2214 04e0 9201      		.sleb128 146
 2215 04e2 07        		.uleb128 0x7
 2216 04e3 0000 0000 		.long	.LASF177
 2217 04e7 9301      		.sleb128 147
 2218 04e9 07        		.uleb128 0x7
 2219 04ea 0000 0000 		.long	.LASF178
 2220 04ee 9401      		.sleb128 148
 2221 04f0 07        		.uleb128 0x7
 2222 04f1 0000 0000 		.long	.LASF179
 2223 04f5 9501      		.sleb128 149
GAS LISTING C:\Users\ADMINI~1\AppData\Local\Temp/cc7IMSsM.s 			page 40


 2224 04f7 07        		.uleb128 0x7
 2225 04f8 0000 0000 		.long	.LASF180
 2226 04fc 9601      		.sleb128 150
 2227 04fe 07        		.uleb128 0x7
 2228 04ff 0000 0000 		.long	.LASF181
 2229 0503 9701      		.sleb128 151
 2230 0505 07        		.uleb128 0x7
 2231 0506 0000 0000 		.long	.LASF182
 2232 050a 9801      		.sleb128 152
 2233 050c 07        		.uleb128 0x7
 2234 050d 0000 0000 		.long	.LASF183
 2235 0511 9901      		.sleb128 153
 2236 0513 07        		.uleb128 0x7
 2237 0514 0000 0000 		.long	.LASF184
 2238 0518 9A01      		.sleb128 154
 2239 051a 07        		.uleb128 0x7
 2240 051b 0000 0000 		.long	.LASF185
 2241 051f 9B01      		.sleb128 155
 2242 0521 07        		.uleb128 0x7
 2243 0522 0000 0000 		.long	.LASF186
 2244 0526 9C01      		.sleb128 156
 2245 0528 07        		.uleb128 0x7
 2246 0529 0000 0000 		.long	.LASF187
 2247 052d 9D01      		.sleb128 157
 2248 052f 07        		.uleb128 0x7
 2249 0530 0000 0000 		.long	.LASF188
 2250 0534 9E01      		.sleb128 158
 2251 0536 07        		.uleb128 0x7
 2252 0537 0000 0000 		.long	.LASF189
 2253 053b 9F01      		.sleb128 159
 2254 053d 07        		.uleb128 0x7
 2255 053e 0000 0000 		.long	.LASF190
 2256 0542 A001      		.sleb128 160
 2257 0544 07        		.uleb128 0x7
 2258 0545 0000 0000 		.long	.LASF191
 2259 0549 A101      		.sleb128 161
 2260 054b 07        		.uleb128 0x7
 2261 054c 0000 0000 		.long	.LASF192
 2262 0550 A201      		.sleb128 162
 2263 0552 07        		.uleb128 0x7
 2264 0553 0000 0000 		.long	.LASF193
 2265 0557 A301      		.sleb128 163
 2266 0559 07        		.uleb128 0x7
 2267 055a 0000 0000 		.long	.LASF194
 2268 055e A401      		.sleb128 164
 2269 0560 07        		.uleb128 0x7
 2270 0561 0000 0000 		.long	.LASF195
 2271 0565 A501      		.sleb128 165
 2272 0567 07        		.uleb128 0x7
 2273 0568 0000 0000 		.long	.LASF196
 2274 056c A601      		.sleb128 166
 2275 056e 07        		.uleb128 0x7
 2276 056f 0000 0000 		.long	.LASF197
 2277 0573 A701      		.sleb128 167
 2278 0575 07        		.uleb128 0x7
 2279 0576 0000 0000 		.long	.LASF198
 2280 057a A801      		.sleb128 168
GAS LISTING C:\Users\ADMINI~1\AppData\Local\Temp/cc7IMSsM.s 			page 41


 2281 057c 07        		.uleb128 0x7
 2282 057d 0000 0000 		.long	.LASF199
 2283 0581 A901      		.sleb128 169
 2284 0583 07        		.uleb128 0x7
 2285 0584 0000 0000 		.long	.LASF200
 2286 0588 AA01      		.sleb128 170
 2287 058a 07        		.uleb128 0x7
 2288 058b 0000 0000 		.long	.LASF201
 2289 058f AB01      		.sleb128 171
 2290 0591 07        		.uleb128 0x7
 2291 0592 0000 0000 		.long	.LASF202
 2292 0596 AC01      		.sleb128 172
 2293 0598 07        		.uleb128 0x7
 2294 0599 0000 0000 		.long	.LASF203
 2295 059d AD01      		.sleb128 173
 2296 059f 07        		.uleb128 0x7
 2297 05a0 0000 0000 		.long	.LASF204
 2298 05a4 AE01      		.sleb128 174
 2299 05a6 07        		.uleb128 0x7
 2300 05a7 0000 0000 		.long	.LASF205
 2301 05ab AF01      		.sleb128 175
 2302 05ad 00        		.byte	0x0
 2303 05ae 08        		.uleb128 0x8
 2304 05af 0000 0000 		.long	.LASF211
 2305 05b3 0C        		.byte	0xc
 2306 05b4 04        		.byte	0x4
 2307 05b5 9102      		.word	0x291
 2308 05b7 DA05 0000 		.long	0x5da
 2309 05bb 09        		.uleb128 0x9
 2310 05bc 6C65 6E00 		.string	"len"
 2311 05c0 04        		.byte	0x4
 2312 05c1 9202      		.word	0x292
 2313 05c3 DA05 0000 		.long	0x5da
 2314 05c7 02        		.byte	0x2
 2315 05c8 23        		.byte	0x23
 2316 05c9 00        		.uleb128 0x0
 2317 05ca 0A        		.uleb128 0xa
 2318 05cb 0000 0000 		.long	.LASF206
 2319 05cf 04        		.byte	0x4
 2320 05d0 9302      		.word	0x293
 2321 05d2 DF05 0000 		.long	0x5df
 2322 05d6 02        		.byte	0x2
 2323 05d7 23        		.byte	0x23
 2324 05d8 01        		.uleb128 0x1
 2325 05d9 00        		.byte	0x0
 2326 05da 0B        		.uleb128 0xb
 2327 05db 2500 0000 		.long	0x25
 2328 05df 0C        		.uleb128 0xc
 2329 05e0 2500 0000 		.long	0x25
 2330 05e4 EF05 0000 		.long	0x5ef
 2331 05e8 0D        		.uleb128 0xd
 2332 05e9 EF05 0000 		.long	0x5ef
 2333 05ed 0A        		.byte	0xa
 2334 05ee 00        		.byte	0x0
 2335 05ef 05        		.uleb128 0x5
 2336 05f0 02        		.byte	0x2
 2337 05f1 07        		.byte	0x7
GAS LISTING C:\Users\ADMINI~1\AppData\Local\Temp/cc7IMSsM.s 			page 42


 2338 05f2 0E        		.uleb128 0xe
 2339 05f3 0000 0000 		.long	.LASF207
 2340 05f7 04        		.byte	0x4
 2341 05f8 9402      		.word	0x294
 2342 05fa AE05 0000 		.long	0x5ae
 2343 05fe 0F        		.uleb128 0xf
 2344 05ff 0000 0000 		.long	.LASF268
 2345 0603 02        		.byte	0x2
 2346 0604 04        		.byte	0x4
 2347 0605 9D02      		.word	0x29d
 2348 0607 2406 0000 		.long	0x624
 2349 060b 10        		.uleb128 0x10
 2350 060c 0000 0000 		.long	.LASF208
 2351 0610 04        		.byte	0x4
 2352 0611 9E02      		.word	0x29e
 2353 0613 5D00 0000 		.long	0x5d
 2354 0617 10        		.uleb128 0x10
 2355 0618 0000 0000 		.long	.LASF209
 2356 061c 04        		.byte	0x4
 2357 061d 9F02      		.word	0x29f
 2358 061f 2406 0000 		.long	0x624
 2359 0623 00        		.byte	0x0
 2360 0624 0C        		.uleb128 0xc
 2361 0625 2500 0000 		.long	0x25
 2362 0629 3406 0000 		.long	0x634
 2363 062d 0D        		.uleb128 0xd
 2364 062e EF05 0000 		.long	0x5ef
 2365 0632 01        		.byte	0x1
 2366 0633 00        		.byte	0x0
 2367 0634 0E        		.uleb128 0xe
 2368 0635 0000 0000 		.long	.LASF210
 2369 0639 04        		.byte	0x4
 2370 063a A002      		.word	0x2a0
 2371 063c FE05 0000 		.long	0x5fe
 2372 0640 11        		.uleb128 0x11
 2373 0641 0000 0000 		.long	.LASF212
 2374 0645 08        		.byte	0x8
 2375 0646 04        		.byte	0x4
 2376 0647 B0        		.byte	0xb0
 2377 0648 9806 0000 		.long	0x698
 2378 064c 0A        		.uleb128 0xa
 2379 064d 0000 0000 		.long	.LASF213
 2380 0651 04        		.byte	0x4
 2381 0652 A302      		.word	0x2a3
 2382 0654 2500 0000 		.long	0x25
 2383 0658 02        		.byte	0x2
 2384 0659 23        		.byte	0x23
 2385 065a 00        		.uleb128 0x0
 2386 065b 0A        		.uleb128 0xa
 2387 065c 0000 0000 		.long	.LASF214
 2388 0660 04        		.byte	0x4
 2389 0661 A402      		.word	0x2a4
 2390 0663 2500 0000 		.long	0x25
 2391 0667 02        		.byte	0x2
 2392 0668 23        		.byte	0x23
 2393 0669 01        		.uleb128 0x1
 2394 066a 0A        		.uleb128 0xa
GAS LISTING C:\Users\ADMINI~1\AppData\Local\Temp/cc7IMSsM.s 			page 43


 2395 066b 0000 0000 		.long	.LASF215
 2396 066f 04        		.byte	0x4
 2397 0670 A502      		.word	0x2a5
 2398 0672 3406 0000 		.long	0x634
 2399 0676 02        		.byte	0x2
 2400 0677 23        		.byte	0x23
 2401 0678 02        		.uleb128 0x2
 2402 0679 0A        		.uleb128 0xa
 2403 067a 0000 0000 		.long	.LASF216
 2404 067e 04        		.byte	0x4
 2405 067f A602      		.word	0x2a6
 2406 0681 3406 0000 		.long	0x634
 2407 0685 02        		.byte	0x2
 2408 0686 23        		.byte	0x23
 2409 0687 04        		.uleb128 0x4
 2410 0688 0A        		.uleb128 0xa
 2411 0689 0000 0000 		.long	.LASF217
 2412 068d 04        		.byte	0x4
 2413 068e A702      		.word	0x2a7
 2414 0690 3406 0000 		.long	0x634
 2415 0694 02        		.byte	0x2
 2416 0695 23        		.byte	0x23
 2417 0696 06        		.uleb128 0x6
 2418 0697 00        		.byte	0x0
 2419 0698 0E        		.uleb128 0xe
 2420 0699 0000 0000 		.long	.LASF218
 2421 069d 04        		.byte	0x4
 2422 069e A802      		.word	0x2a8
 2423 06a0 4006 0000 		.long	0x640
 2424 06a4 12        		.uleb128 0x12
 2425 06a5 01        		.byte	0x1
 2426 06a6 0000 0000 		.long	.LASF269
 2427 06aa 01        		.byte	0x1
 2428 06ab 7202      		.word	0x272
 2429 06ad 01        		.byte	0x1
 2430 06ae 7200 0000 		.long	0x72
 2431 06b2 0000 0000 		.long	.LFB16
 2432 06b6 0000 0000 		.long	.LFE16
 2433 06ba 02        		.byte	0x2
 2434 06bb 90        		.byte	0x90
 2435 06bc 20        		.uleb128 0x20
 2436 06bd 13        		.uleb128 0x13
 2437 06be 01        		.byte	0x1
 2438 06bf 0000 0000 		.long	.LASF219
 2439 06c3 01        		.byte	0x1
 2440 06c4 CF01      		.word	0x1cf
 2441 06c6 01        		.byte	0x1
 2442 06c7 0000 0000 		.long	.LFB13
 2443 06cb 0000 0000 		.long	.LFE13
 2444 06cf 02        		.byte	0x2
 2445 06d0 90        		.byte	0x90
 2446 06d1 20        		.uleb128 0x20
 2447 06d2 13        		.uleb128 0x13
 2448 06d3 01        		.byte	0x1
 2449 06d4 0000 0000 		.long	.LASF220
 2450 06d8 01        		.byte	0x1
 2451 06d9 8E01      		.word	0x18e
GAS LISTING C:\Users\ADMINI~1\AppData\Local\Temp/cc7IMSsM.s 			page 44


 2452 06db 01        		.byte	0x1
 2453 06dc 0000 0000 		.long	.LFB11
 2454 06e0 0000 0000 		.long	.LFE11
 2455 06e4 02        		.byte	0x2
 2456 06e5 90        		.byte	0x90
 2457 06e6 20        		.uleb128 0x20
 2458 06e7 14        		.uleb128 0x14
 2459 06e8 01        		.byte	0x1
 2460 06e9 0000 0000 		.long	.LASF227
 2461 06ed 01        		.byte	0x1
 2462 06ee A001      		.word	0x1a0
 2463 06f0 01        		.byte	0x1
 2464 06f1 7200 0000 		.long	0x72
 2465 06f5 0000 0000 		.long	.LFB12
 2466 06f9 0000 0000 		.long	.LFE12
 2467 06fd 02        		.byte	0x2
 2468 06fe 90        		.byte	0x90
 2469 06ff 20        		.uleb128 0x20
 2470 0700 9F07 0000 		.long	0x79f
 2471 0704 15        		.uleb128 0x15
 2472 0705 0000 0000 		.long	.LASF221
 2473 0709 01        		.byte	0x1
 2474 070a A001      		.word	0x1a0
 2475 070c 7200 0000 		.long	0x72
 2476 0710 0000 0000 		.long	.LLST4
 2477 0714 15        		.uleb128 0x15
 2478 0715 0000 0000 		.long	.LASF222
 2479 0719 01        		.byte	0x1
 2480 071a A001      		.word	0x1a0
 2481 071c 7200 0000 		.long	0x72
 2482 0720 0000 0000 		.long	.LLST5
 2483 0724 16        		.uleb128 0x16
 2484 0725 0000 0000 		.long	.LASF223
 2485 0729 01        		.byte	0x1
 2486 072a A101      		.word	0x1a1
 2487 072c 7200 0000 		.long	0x72
 2488 0730 17        		.uleb128 0x17
 2489 0731 0000 0000 		.long	.LBB2
 2490 0735 0000 0000 		.long	.LBE2
 2491 0739 7407 0000 		.long	0x774
 2492 073d 16        		.uleb128 0x16
 2493 073e 0000 0000 		.long	.LASF224
 2494 0742 01        		.byte	0x1
 2495 0743 AE01      		.word	0x1ae
 2496 0745 7D00 0000 		.long	0x7d
 2497 0749 18        		.uleb128 0x18
 2498 074a 0000 0000 		.long	.LBB3
 2499 074e 0000 0000 		.long	.LBE3
 2500 0752 19        		.uleb128 0x19
 2501 0753 0000 0000 		.long	.LASF225
 2502 0757 01        		.byte	0x1
 2503 0758 AE01      		.word	0x1ae
 2504 075a 7D00 0000 		.long	0x7d
 2505 075e 0000 0000 		.long	.LLST6
 2506 0762 19        		.uleb128 0x19
 2507 0763 0000 0000 		.long	.LASF226
 2508 0767 01        		.byte	0x1
GAS LISTING C:\Users\ADMINI~1\AppData\Local\Temp/cc7IMSsM.s 			page 45


 2509 0768 AE01      		.word	0x1ae
 2510 076a 7D00 0000 		.long	0x7d
 2511 076e 0000 0000 		.long	.LLST7
 2512 0772 00        		.byte	0x0
 2513 0773 00        		.byte	0x0
 2514 0774 18        		.uleb128 0x18
 2515 0775 0000 0000 		.long	.LBB4
 2516 0779 0000 0000 		.long	.LBE4
 2517 077d 19        		.uleb128 0x19
 2518 077e 0000 0000 		.long	.LASF225
 2519 0782 01        		.byte	0x1
 2520 0783 C501      		.word	0x1c5
 2521 0785 7D00 0000 		.long	0x7d
 2522 0789 0000 0000 		.long	.LLST8
 2523 078d 19        		.uleb128 0x19
 2524 078e 0000 0000 		.long	.LASF226
 2525 0792 01        		.byte	0x1
 2526 0793 C501      		.word	0x1c5
 2527 0795 7D00 0000 		.long	0x7d
 2528 0799 0000 0000 		.long	.LLST9
 2529 079d 00        		.byte	0x0
 2530 079e 00        		.byte	0x0
 2531 079f 14        		.uleb128 0x14
 2532 07a0 01        		.byte	0x1
 2533 07a1 0000 0000 		.long	.LASF228
 2534 07a5 01        		.byte	0x1
 2535 07a6 4A02      		.word	0x24a
 2536 07a8 01        		.byte	0x1
 2537 07a9 7200 0000 		.long	0x72
 2538 07ad 0000 0000 		.long	.LFB15
 2539 07b1 0000 0000 		.long	.LFE15
 2540 07b5 02        		.byte	0x2
 2541 07b6 90        		.byte	0x90
 2542 07b7 20        		.uleb128 0x20
 2543 07b8 FD07 0000 		.long	0x7fd
 2544 07bc 18        		.uleb128 0x18
 2545 07bd 0000 0000 		.long	.LBB5
 2546 07c1 0000 0000 		.long	.LBE5
 2547 07c5 16        		.uleb128 0x16
 2548 07c6 0000 0000 		.long	.LASF229
 2549 07ca 01        		.byte	0x1
 2550 07cb 4C02      		.word	0x24c
 2551 07cd 6B00 0000 		.long	0x6b
 2552 07d1 1A        		.uleb128 0x1a
 2553 07d2 6900      		.string	"i"
 2554 07d4 01        		.byte	0x1
 2555 07d5 5202      		.word	0x252
 2556 07d7 7200 0000 		.long	0x72
 2557 07db 19        		.uleb128 0x19
 2558 07dc 0000 0000 		.long	.LASF230
 2559 07e0 01        		.byte	0x1
 2560 07e1 5302      		.word	0x253
 2561 07e3 7200 0000 		.long	0x72
 2562 07e7 0000 0000 		.long	.LLST11
 2563 07eb 19        		.uleb128 0x19
 2564 07ec 0000 0000 		.long	.LASF231
 2565 07f0 01        		.byte	0x1
GAS LISTING C:\Users\ADMINI~1\AppData\Local\Temp/cc7IMSsM.s 			page 46


 2566 07f1 5402      		.word	0x254
 2567 07f3 7200 0000 		.long	0x72
 2568 07f7 0000 0000 		.long	.LLST12
 2569 07fb 00        		.byte	0x0
 2570 07fc 00        		.byte	0x0
 2571 07fd 14        		.uleb128 0x14
 2572 07fe 01        		.byte	0x1
 2573 07ff 0000 0000 		.long	.LASF232
 2574 0803 01        		.byte	0x1
 2575 0804 D401      		.word	0x1d4
 2576 0806 01        		.byte	0x1
 2577 0807 7200 0000 		.long	0x72
 2578 080b 0000 0000 		.long	.LFB14
 2579 080f 0000 0000 		.long	.LFE14
 2580 0813 02        		.byte	0x2
 2581 0814 90        		.byte	0x90
 2582 0815 20        		.uleb128 0x20
 2583 0816 CC08 0000 		.long	0x8cc
 2584 081a 19        		.uleb128 0x19
 2585 081b 0000 0000 		.long	.LASF223
 2586 081f 01        		.byte	0x1
 2587 0820 D501      		.word	0x1d5
 2588 0822 7200 0000 		.long	0x72
 2589 0826 0000 0000 		.long	.LLST14
 2590 082a 1B        		.uleb128 0x1b
 2591 082b 726F 7700 		.string	"row"
 2592 082f 01        		.byte	0x1
 2593 0830 DA01      		.word	0x1da
 2594 0832 7200 0000 		.long	0x72
 2595 0836 0000 0000 		.long	.LLST15
 2596 083a 1B        		.uleb128 0x1b
 2597 083b 636F 6C00 		.string	"col"
 2598 083f 01        		.byte	0x1
 2599 0840 DA01      		.word	0x1da
 2600 0842 7200 0000 		.long	0x72
 2601 0846 0000 0000 		.long	.LLST16
 2602 084a 19        		.uleb128 0x19
 2603 084b 0000 0000 		.long	.LASF233
 2604 084f 01        		.byte	0x1
 2605 0850 DA01      		.word	0x1da
 2606 0852 7200 0000 		.long	0x72
 2607 0856 0000 0000 		.long	.LLST17
 2608 085a 1B        		.uleb128 0x1b
 2609 085b 6375 7200 		.string	"cur"
 2610 085f 01        		.byte	0x1
 2611 0860 DA01      		.word	0x1da
 2612 0862 7200 0000 		.long	0x72
 2613 0866 0000 0000 		.long	.LLST18
 2614 086a 19        		.uleb128 0x19
 2615 086b 0000 0000 		.long	.LASF221
 2616 086f 01        		.byte	0x1
 2617 0870 DA01      		.word	0x1da
 2618 0872 7200 0000 		.long	0x72
 2619 0876 0000 0000 		.long	.LLST19
 2620 087a 1C        		.uleb128 0x1c
 2621 087b 0000 0000 		.long	.LASF234
 2622 087f 01        		.byte	0x1
GAS LISTING C:\Users\ADMINI~1\AppData\Local\Temp/cc7IMSsM.s 			page 47


 2623 0880 DA01      		.word	0x1da
 2624 0882 7200 0000 		.long	0x72
 2625 0886 02        		.byte	0x2
 2626 0887 8C        		.byte	0x8c
 2627 0888 01        		.sleb128 1
 2628 0889 1B        		.uleb128 0x1b
 2629 088a 6746 4E00 		.string	"gFN"
 2630 088e 01        		.byte	0x1
 2631 088f DA01      		.word	0x1da
 2632 0891 7200 0000 		.long	0x72
 2633 0895 0000 0000 		.long	.LLST20
 2634 0899 19        		.uleb128 0x19
 2635 089a 0000 0000 		.long	.LASF235
 2636 089e 01        		.byte	0x1
 2637 089f DB01      		.word	0x1db
 2638 08a1 7200 0000 		.long	0x72
 2639 08a5 0000 0000 		.long	.LLST21
 2640 08a9 19        		.uleb128 0x19
 2641 08aa 0000 0000 		.long	.LASF236
 2642 08ae 01        		.byte	0x1
 2643 08af E201      		.word	0x1e2
 2644 08b1 CC08 0000 		.long	0x8cc
 2645 08b5 0000 0000 		.long	.LLST22
 2646 08b9 1C        		.uleb128 0x1c
 2647 08ba 0000 0000 		.long	.LASF237
 2648 08be 01        		.byte	0x1
 2649 08bf DC01      		.word	0x1dc
 2650 08c1 7200 0000 		.long	0x72
 2651 08c5 05        		.byte	0x5
 2652 08c6 03        		.byte	0x3
 2653 08c7 0000 0000 		.long	prevModifier.2387
 2654 08cb 00        		.byte	0x0
 2655 08cc 1D        		.uleb128 0x1d
 2656 08cd 02        		.byte	0x2
 2657 08ce 7200 0000 		.long	0x72
 2658 08d2 1E        		.uleb128 0x1e
 2659 08d3 01        		.byte	0x1
 2660 08d4 0000 0000 		.long	.LASF270
 2661 08d8 01        		.byte	0x1
 2662 08d9 7B02      		.word	0x27b
 2663 08db 01        		.byte	0x1
 2664 08dc 0000 0000 		.long	.LFB17
 2665 08e0 0000 0000 		.long	.LFE17
 2666 08e4 02        		.byte	0x2
 2667 08e5 90        		.byte	0x90
 2668 08e6 20        		.uleb128 0x20
 2669 08e7 0C09 0000 		.long	0x90c
 2670 08eb 19        		.uleb128 0x19
 2671 08ec 0000 0000 		.long	.LASF238
 2672 08f0 01        		.byte	0x1
 2673 08f1 7F02      		.word	0x27f
 2674 08f3 7200 0000 		.long	0x72
 2675 08f7 0000 0000 		.long	.LLST24
 2676 08fb 19        		.uleb128 0x19
 2677 08fc 0000 0000 		.long	.LASF239
 2678 0900 01        		.byte	0x1
 2679 0901 8002      		.word	0x280
GAS LISTING C:\Users\ADMINI~1\AppData\Local\Temp/cc7IMSsM.s 			page 48


 2680 0903 7200 0000 		.long	0x72
 2681 0907 0000 0000 		.long	.LLST25
 2682 090b 00        		.byte	0x0
 2683 090c 13        		.uleb128 0x13
 2684 090d 01        		.byte	0x1
 2685 090e 0000 0000 		.long	.LASF240
 2686 0912 01        		.byte	0x1
 2687 0913 8701      		.word	0x187
 2688 0915 01        		.byte	0x1
 2689 0916 0000 0000 		.long	.LFB10
 2690 091a 0000 0000 		.long	.LFE10
 2691 091e 02        		.byte	0x2
 2692 091f 90        		.byte	0x90
 2693 0920 20        		.uleb128 0x20
 2694 0921 14        		.uleb128 0x14
 2695 0922 01        		.byte	0x1
 2696 0923 0000 0000 		.long	.LASF241
 2697 0927 01        		.byte	0x1
 2698 0928 3C01      		.word	0x13c
 2699 092a 01        		.byte	0x1
 2700 092b 7200 0000 		.long	0x72
 2701 092f 0000 0000 		.long	.LFB8
 2702 0933 0000 0000 		.long	.LFE8
 2703 0937 02        		.byte	0x2
 2704 0938 90        		.byte	0x90
 2705 0939 20        		.uleb128 0x20
 2706 093a 5E09 0000 		.long	0x95e
 2707 093e 15        		.uleb128 0x15
 2708 093f 0000 0000 		.long	.LASF242
 2709 0943 01        		.byte	0x1
 2710 0944 3C01      		.word	0x13c
 2711 0946 CC08 0000 		.long	0x8cc
 2712 094a 0000 0000 		.long	.LLST28
 2713 094e 1B        		.uleb128 0x1b
 2714 094f 7271 00   		.string	"rq"
 2715 0952 01        		.byte	0x1
 2716 0953 4001      		.word	0x140
 2717 0955 5E09 0000 		.long	0x95e
 2718 0959 0000 0000 		.long	.LLST29
 2719 095d 00        		.byte	0x0
 2720 095e 1D        		.uleb128 0x1d
 2721 095f 02        		.byte	0x2
 2722 0960 9806 0000 		.long	0x698
 2723 0964 14        		.uleb128 0x14
 2724 0965 01        		.byte	0x1
 2725 0966 0000 0000 		.long	.LASF243
 2726 096a 01        		.byte	0x1
 2727 096b 7901      		.word	0x179
 2728 096d 01        		.byte	0x1
 2729 096e 7200 0000 		.long	0x72
 2730 0972 0000 0000 		.long	.LFB9
 2731 0976 0000 0000 		.long	.LFE9
 2732 097a 02        		.byte	0x2
 2733 097b 90        		.byte	0x90
 2734 097c 20        		.uleb128 0x20
 2735 097d A209 0000 		.long	0x9a2
 2736 0981 15        		.uleb128 0x15
GAS LISTING C:\Users\ADMINI~1\AppData\Local\Temp/cc7IMSsM.s 			page 49


 2737 0982 0000 0000 		.long	.LASF242
 2738 0986 01        		.byte	0x1
 2739 0987 7901      		.word	0x179
 2740 0989 A209 0000 		.long	0x9a2
 2741 098d 0000 0000 		.long	.LLST31
 2742 0991 1F        		.uleb128 0x1f
 2743 0992 6C65 6E00 		.string	"len"
 2744 0996 01        		.byte	0x1
 2745 0997 7901      		.word	0x179
 2746 0999 2500 0000 		.long	0x25
 2747 099d 0000 0000 		.long	.LLST32
 2748 09a1 00        		.byte	0x0
 2749 09a2 1D        		.uleb128 0x1d
 2750 09a3 02        		.byte	0x2
 2751 09a4 2500 0000 		.long	0x25
 2752 09a8 0C        		.uleb128 0xc
 2753 09a9 7200 0000 		.long	0x72
 2754 09ad B809 0000 		.long	0x9b8
 2755 09b1 0D        		.uleb128 0xd
 2756 09b2 EF05 0000 		.long	0x5ef
 2757 09b6 07        		.byte	0x7
 2758 09b7 00        		.byte	0x0
 2759 09b8 20        		.uleb128 0x20
 2760 09b9 0000 0000 		.long	.LASF244
 2761 09bd 01        		.byte	0x1
 2762 09be EF        		.byte	0xef
 2763 09bf A809 0000 		.long	0x9a8
 2764 09c3 05        		.byte	0x5
 2765 09c4 03        		.byte	0x3
 2766 09c5 0000 0000 		.long	reportBuffer
 2767 09c9 20        		.uleb128 0x20
 2768 09ca 0000 0000 		.long	.LASF245
 2769 09ce 01        		.byte	0x1
 2770 09cf F0        		.byte	0xf0
 2771 09d0 7200 0000 		.long	0x72
 2772 09d4 05        		.byte	0x5
 2773 09d5 03        		.byte	0x3
 2774 09d6 0000 0000 		.long	idleRate
 2775 09da 20        		.uleb128 0x20
 2776 09db 0000 0000 		.long	.LASF246
 2777 09df 01        		.byte	0x1
 2778 09e0 F1        		.byte	0xf1
 2779 09e1 7200 0000 		.long	0x72
 2780 09e5 05        		.byte	0x5
 2781 09e6 03        		.byte	0x3
 2782 09e7 0000 0000 		.long	protocolVer
 2783 09eb 20        		.uleb128 0x20
 2784 09ec 0000 0000 		.long	.LASF247
 2785 09f0 01        		.byte	0x1
 2786 09f1 F2        		.byte	0xf2
 2787 09f2 7200 0000 		.long	0x72
 2788 09f6 05        		.byte	0x5
 2789 09f7 03        		.byte	0x3
 2790 09f8 0000 0000 		.long	expectReport
 2791 09fc 20        		.uleb128 0x20
 2792 09fd 0000 0000 		.long	.LASF248
 2793 0a01 01        		.byte	0x1
GAS LISTING C:\Users\ADMINI~1\AppData\Local\Temp/cc7IMSsM.s 			page 50


 2794 0a02 F3        		.byte	0xf3
 2795 0a03 7200 0000 		.long	0x72
 2796 0a07 05        		.byte	0x5
 2797 0a08 03        		.byte	0x3
 2798 0a09 0000 0000 		.long	_isInit
 2799 0a0d 0C        		.uleb128 0xc
 2800 0a0e 7200 0000 		.long	0x72
 2801 0a12 1D0A 0000 		.long	0xa1d
 2802 0a16 0D        		.uleb128 0xd
 2803 0a17 EF05 0000 		.long	0x5ef
 2804 0a1b 2F        		.byte	0x2f
 2805 0a1c 00        		.byte	0x0
 2806 0a1d 20        		.uleb128 0x20
 2807 0a1e 0000 0000 		.long	.LASF249
 2808 0a22 01        		.byte	0x1
 2809 0a23 F5        		.byte	0xf5
 2810 0a24 0D0A 0000 		.long	0xa0d
 2811 0a28 05        		.byte	0x5
 2812 0a29 03        		.byte	0x3
 2813 0a2a 0000 0000 		.long	_prevPressedBuffer
 2814 0a2e 1C        		.uleb128 0x1c
 2815 0a2f 0000 0000 		.long	.LASF250
 2816 0a33 01        		.byte	0x1
 2817 0a34 4802      		.word	0x248
 2818 0a36 7200 0000 		.long	0x72
 2819 0a3a 05        		.byte	0x5
 2820 0a3b 03        		.byte	0x3
 2821 0a3c 0000 0000 		.long	_needRelease
 2822 0a40 21        		.uleb128 0x21
 2823 0a41 0000 0000 		.long	.LASF251
 2824 0a45 05        		.byte	0x5
 2825 0a46 3D        		.byte	0x3d
 2826 0a47 6B00 0000 		.long	0x6b
 2827 0a4b 01        		.byte	0x1
 2828 0a4c 01        		.byte	0x1
 2829 0a4d 21        		.uleb128 0x21
 2830 0a4e 0000 0000 		.long	.LASF252
 2831 0a52 05        		.byte	0x5
 2832 0a53 3E        		.byte	0x3e
 2833 0a54 7200 0000 		.long	0x72
 2834 0a58 01        		.byte	0x1
 2835 0a59 01        		.byte	0x1
 2836 0a5a 21        		.uleb128 0x21
 2837 0a5b 0000 0000 		.long	.LASF253
 2838 0a5f 05        		.byte	0x5
 2839 0a60 40        		.byte	0x40
 2840 0a61 7200 0000 		.long	0x72
 2841 0a65 01        		.byte	0x1
 2842 0a66 01        		.byte	0x1
 2843 0a67 0C        		.uleb128 0xc
 2844 0a68 7D00 0000 		.long	0x7d
 2845 0a6c 720A 0000 		.long	0xa72
 2846 0a70 22        		.uleb128 0x22
 2847 0a71 00        		.byte	0x0
 2848 0a72 21        		.uleb128 0x21
 2849 0a73 0000 0000 		.long	.LASF254
 2850 0a77 03        		.byte	0x3
GAS LISTING C:\Users\ADMINI~1\AppData\Local\Temp/cc7IMSsM.s 			page 51


 2851 0a78 F8        		.byte	0xf8
 2852 0a79 7F0A 0000 		.long	0xa7f
 2853 0a7d 01        		.byte	0x1
 2854 0a7e 01        		.byte	0x1
 2855 0a7f 23        		.uleb128 0x23
 2856 0a80 670A 0000 		.long	0xa67
 2857 0a84 21        		.uleb128 0x21
 2858 0a85 0000 0000 		.long	.LASF255
 2859 0a89 03        		.byte	0x3
 2860 0a8a FB        		.byte	0xfb
 2861 0a8b 910A 0000 		.long	0xa91
 2862 0a8f 01        		.byte	0x1
 2863 0a90 01        		.byte	0x1
 2864 0a91 23        		.uleb128 0x23
 2865 0a92 670A 0000 		.long	0xa67
 2866 0a96 21        		.uleb128 0x21
 2867 0a97 0000 0000 		.long	.LASF256
 2868 0a9b 04        		.byte	0x4
 2869 0a9c BF        		.byte	0xbf
 2870 0a9d 3300 0000 		.long	0x33
 2871 0aa1 01        		.byte	0x1
 2872 0aa2 01        		.byte	0x1
 2873 0aa3 0C        		.uleb128 0xc
 2874 0aa4 6400 0000 		.long	0x64
 2875 0aa8 B30A 0000 		.long	0xab3
 2876 0aac 0D        		.uleb128 0xd
 2877 0aad EF05 0000 		.long	0x5ef
 2878 0ab1 54        		.byte	0x54
 2879 0ab2 00        		.byte	0x0
 2880 0ab3 24        		.uleb128 0x24
 2881 0ab4 0000 0000 		.long	.LASF257
 2882 0ab8 01        		.byte	0x1
 2883 0ab9 0101      		.word	0x101
 2884 0abb C60A 0000 		.long	0xac6
 2885 0abf 01        		.byte	0x1
 2886 0ac0 05        		.byte	0x5
 2887 0ac1 03        		.byte	0x3
 2888 0ac2 0000 0000 		.long	usbDescriptorHidReport
 2889 0ac6 23        		.uleb128 0x23
 2890 0ac7 A30A 0000 		.long	0xaa3
 2891 0acb 25        		.uleb128 0x25
 2892 0acc 0000 0000 		.long	.LASF258
 2893 0ad0 04        		.byte	0x4
 2894 0ad1 9602      		.word	0x296
 2895 0ad3 F205 0000 		.long	0x5f2
 2896 0ad7 01        		.byte	0x1
 2897 0ad8 01        		.byte	0x1
 2898 0ad9 21        		.uleb128 0x21
 2899 0ada 0000 0000 		.long	.LASF259
 2900 0ade 06        		.byte	0x6
 2901 0adf 0D        		.byte	0xd
 2902 0ae0 7200 0000 		.long	0x72
 2903 0ae4 01        		.byte	0x1
 2904 0ae5 01        		.byte	0x1
 2905 0ae6 0C        		.uleb128 0xc
 2906 0ae7 3300 0000 		.long	0x33
 2907 0aeb F60A 0000 		.long	0xaf6
GAS LISTING C:\Users\ADMINI~1\AppData\Local\Temp/cc7IMSsM.s 			page 52


 2908 0aef 0D        		.uleb128 0xd
 2909 0af0 EF05 0000 		.long	0x5ef
 2910 0af4 0F        		.byte	0xf
 2911 0af5 00        		.byte	0x0
 2912 0af6 21        		.uleb128 0x21
 2913 0af7 0000 0000 		.long	.LASF260
 2914 0afb 06        		.byte	0x6
 2915 0afc 0E        		.byte	0xe
 2916 0afd 030B 0000 		.long	0xb03
 2917 0b01 01        		.byte	0x1
 2918 0b02 01        		.byte	0x1
 2919 0b03 23        		.uleb128 0x23
 2920 0b04 E60A 0000 		.long	0xae6
 2921 0b08 0C        		.uleb128 0xc
 2922 0b09 7200 0000 		.long	0x72
 2923 0b0d 180B 0000 		.long	0xb18
 2924 0b11 0D        		.uleb128 0xd
 2925 0b12 EF05 0000 		.long	0x5ef
 2926 0b16 10        		.byte	0x10
 2927 0b17 00        		.byte	0x0
 2928 0b18 21        		.uleb128 0x21
 2929 0b19 0000 0000 		.long	.LASF261
 2930 0b1d 06        		.byte	0x6
 2931 0b1e 0F        		.byte	0xf
 2932 0b1f 080B 0000 		.long	0xb08
 2933 0b23 01        		.byte	0x1
 2934 0b24 01        		.byte	0x1
 2935 0b25 21        		.uleb128 0x21
 2936 0b26 0000 0000 		.long	.LASF262
 2937 0b2a 07        		.byte	0x7
 2938 0b2b 19        		.byte	0x19
 2939 0b2c 0D0A 0000 		.long	0xa0d
 2940 0b30 01        		.byte	0x1
 2941 0b31 01        		.byte	0x1
 2942 0b32 24        		.uleb128 0x24
 2943 0b33 0000 0000 		.long	.LASF263
 2944 0b37 01        		.byte	0x1
 2945 0b38 9E01      		.word	0x19e
 2946 0b3a 7200 0000 		.long	0x72
 2947 0b3e 01        		.byte	0x1
 2948 0b3f 05        		.byte	0x5
 2949 0b40 03        		.byte	0x3
 2950 0b41 0000 0000 		.long	reportIndex
 2951 0b45 24        		.uleb128 0x24
 2952 0b46 0000 0000 		.long	.LASF264
 2953 0b4a 01        		.byte	0x1
 2954 0b4b 9F01      		.word	0x19f
 2955 0b4d 7200 0000 		.long	0x72
 2956 0b51 01        		.byte	0x1
 2957 0b52 05        		.byte	0x5
 2958 0b53 03        		.byte	0x3
 2959 0b54 0000 0000 		.long	_isMultimediaPressed
 2960 0b58 00        		.byte	0x0
 2961               		.section	.debug_abbrev
 2962 0000 01        		.uleb128 0x1
 2963 0001 11        		.uleb128 0x11
 2964 0002 01        		.byte	0x1
GAS LISTING C:\Users\ADMINI~1\AppData\Local\Temp/cc7IMSsM.s 			page 53


 2965 0003 25        		.uleb128 0x25
 2966 0004 0E        		.uleb128 0xe
 2967 0005 13        		.uleb128 0x13
 2968 0006 0B        		.uleb128 0xb
 2969 0007 03        		.uleb128 0x3
 2970 0008 0E        		.uleb128 0xe
 2971 0009 1B        		.uleb128 0x1b
 2972 000a 0E        		.uleb128 0xe
 2973 000b 11        		.uleb128 0x11
 2974 000c 01        		.uleb128 0x1
 2975 000d 12        		.uleb128 0x12
 2976 000e 01        		.uleb128 0x1
 2977 000f 10        		.uleb128 0x10
 2978 0010 06        		.uleb128 0x6
 2979 0011 00        		.byte	0x0
 2980 0012 00        		.byte	0x0
 2981 0013 02        		.uleb128 0x2
 2982 0014 24        		.uleb128 0x24
 2983 0015 00        		.byte	0x0
 2984 0016 0B        		.uleb128 0xb
 2985 0017 0B        		.uleb128 0xb
 2986 0018 3E        		.uleb128 0x3e
 2987 0019 0B        		.uleb128 0xb
 2988 001a 03        		.uleb128 0x3
 2989 001b 0E        		.uleb128 0xe
 2990 001c 00        		.byte	0x0
 2991 001d 00        		.byte	0x0
 2992 001e 03        		.uleb128 0x3
 2993 001f 24        		.uleb128 0x24
 2994 0020 00        		.byte	0x0
 2995 0021 0B        		.uleb128 0xb
 2996 0022 0B        		.uleb128 0xb
 2997 0023 3E        		.uleb128 0x3e
 2998 0024 0B        		.uleb128 0xb
 2999 0025 03        		.uleb128 0x3
 3000 0026 08        		.uleb128 0x8
 3001 0027 00        		.byte	0x0
 3002 0028 00        		.byte	0x0
 3003 0029 04        		.uleb128 0x4
 3004 002a 16        		.uleb128 0x16
 3005 002b 00        		.byte	0x0
 3006 002c 03        		.uleb128 0x3
 3007 002d 0E        		.uleb128 0xe
 3008 002e 3A        		.uleb128 0x3a
 3009 002f 0B        		.uleb128 0xb
 3010 0030 3B        		.uleb128 0x3b
 3011 0031 0B        		.uleb128 0xb
 3012 0032 49        		.uleb128 0x49
 3013 0033 13        		.uleb128 0x13
 3014 0034 00        		.byte	0x0
 3015 0035 00        		.byte	0x0
 3016 0036 05        		.uleb128 0x5
 3017 0037 24        		.uleb128 0x24
 3018 0038 00        		.byte	0x0
 3019 0039 0B        		.uleb128 0xb
 3020 003a 0B        		.uleb128 0xb
 3021 003b 3E        		.uleb128 0x3e
GAS LISTING C:\Users\ADMINI~1\AppData\Local\Temp/cc7IMSsM.s 			page 54


 3022 003c 0B        		.uleb128 0xb
 3023 003d 00        		.byte	0x0
 3024 003e 00        		.byte	0x0
 3025 003f 06        		.uleb128 0x6
 3026 0040 04        		.uleb128 0x4
 3027 0041 01        		.byte	0x1
 3028 0042 0B        		.uleb128 0xb
 3029 0043 0B        		.uleb128 0xb
 3030 0044 3A        		.uleb128 0x3a
 3031 0045 0B        		.uleb128 0xb
 3032 0046 3B        		.uleb128 0x3b
 3033 0047 0B        		.uleb128 0xb
 3034 0048 01        		.uleb128 0x1
 3035 0049 13        		.uleb128 0x13
 3036 004a 00        		.byte	0x0
 3037 004b 00        		.byte	0x0
 3038 004c 07        		.uleb128 0x7
 3039 004d 28        		.uleb128 0x28
 3040 004e 00        		.byte	0x0
 3041 004f 03        		.uleb128 0x3
 3042 0050 0E        		.uleb128 0xe
 3043 0051 1C        		.uleb128 0x1c
 3044 0052 0D        		.uleb128 0xd
 3045 0053 00        		.byte	0x0
 3046 0054 00        		.byte	0x0
 3047 0055 08        		.uleb128 0x8
 3048 0056 13        		.uleb128 0x13
 3049 0057 01        		.byte	0x1
 3050 0058 03        		.uleb128 0x3
 3051 0059 0E        		.uleb128 0xe
 3052 005a 0B        		.uleb128 0xb
 3053 005b 0B        		.uleb128 0xb
 3054 005c 3A        		.uleb128 0x3a
 3055 005d 0B        		.uleb128 0xb
 3056 005e 3B        		.uleb128 0x3b
 3057 005f 05        		.uleb128 0x5
 3058 0060 01        		.uleb128 0x1
 3059 0061 13        		.uleb128 0x13
 3060 0062 00        		.byte	0x0
 3061 0063 00        		.byte	0x0
 3062 0064 09        		.uleb128 0x9
 3063 0065 0D        		.uleb128 0xd
 3064 0066 00        		.byte	0x0
 3065 0067 03        		.uleb128 0x3
 3066 0068 08        		.uleb128 0x8
 3067 0069 3A        		.uleb128 0x3a
 3068 006a 0B        		.uleb128 0xb
 3069 006b 3B        		.uleb128 0x3b
 3070 006c 05        		.uleb128 0x5
 3071 006d 49        		.uleb128 0x49
 3072 006e 13        		.uleb128 0x13
 3073 006f 38        		.uleb128 0x38
 3074 0070 0A        		.uleb128 0xa
 3075 0071 00        		.byte	0x0
 3076 0072 00        		.byte	0x0
 3077 0073 0A        		.uleb128 0xa
 3078 0074 0D        		.uleb128 0xd
GAS LISTING C:\Users\ADMINI~1\AppData\Local\Temp/cc7IMSsM.s 			page 55


 3079 0075 00        		.byte	0x0
 3080 0076 03        		.uleb128 0x3
 3081 0077 0E        		.uleb128 0xe
 3082 0078 3A        		.uleb128 0x3a
 3083 0079 0B        		.uleb128 0xb
 3084 007a 3B        		.uleb128 0x3b
 3085 007b 05        		.uleb128 0x5
 3086 007c 49        		.uleb128 0x49
 3087 007d 13        		.uleb128 0x13
 3088 007e 38        		.uleb128 0x38
 3089 007f 0A        		.uleb128 0xa
 3090 0080 00        		.byte	0x0
 3091 0081 00        		.byte	0x0
 3092 0082 0B        		.uleb128 0xb
 3093 0083 35        		.uleb128 0x35
 3094 0084 00        		.byte	0x0
 3095 0085 49        		.uleb128 0x49
 3096 0086 13        		.uleb128 0x13
 3097 0087 00        		.byte	0x0
 3098 0088 00        		.byte	0x0
 3099 0089 0C        		.uleb128 0xc
 3100 008a 01        		.uleb128 0x1
 3101 008b 01        		.byte	0x1
 3102 008c 49        		.uleb128 0x49
 3103 008d 13        		.uleb128 0x13
 3104 008e 01        		.uleb128 0x1
 3105 008f 13        		.uleb128 0x13
 3106 0090 00        		.byte	0x0
 3107 0091 00        		.byte	0x0
 3108 0092 0D        		.uleb128 0xd
 3109 0093 21        		.uleb128 0x21
 3110 0094 00        		.byte	0x0
 3111 0095 49        		.uleb128 0x49
 3112 0096 13        		.uleb128 0x13
 3113 0097 2F        		.uleb128 0x2f
 3114 0098 0B        		.uleb128 0xb
 3115 0099 00        		.byte	0x0
 3116 009a 00        		.byte	0x0
 3117 009b 0E        		.uleb128 0xe
 3118 009c 16        		.uleb128 0x16
 3119 009d 00        		.byte	0x0
 3120 009e 03        		.uleb128 0x3
 3121 009f 0E        		.uleb128 0xe
 3122 00a0 3A        		.uleb128 0x3a
 3123 00a1 0B        		.uleb128 0xb
 3124 00a2 3B        		.uleb128 0x3b
 3125 00a3 05        		.uleb128 0x5
 3126 00a4 49        		.uleb128 0x49
 3127 00a5 13        		.uleb128 0x13
 3128 00a6 00        		.byte	0x0
 3129 00a7 00        		.byte	0x0
 3130 00a8 0F        		.uleb128 0xf
 3131 00a9 17        		.uleb128 0x17
 3132 00aa 01        		.byte	0x1
 3133 00ab 03        		.uleb128 0x3
 3134 00ac 0E        		.uleb128 0xe
 3135 00ad 0B        		.uleb128 0xb
GAS LISTING C:\Users\ADMINI~1\AppData\Local\Temp/cc7IMSsM.s 			page 56


 3136 00ae 0B        		.uleb128 0xb
 3137 00af 3A        		.uleb128 0x3a
 3138 00b0 0B        		.uleb128 0xb
 3139 00b1 3B        		.uleb128 0x3b
 3140 00b2 05        		.uleb128 0x5
 3141 00b3 01        		.uleb128 0x1
 3142 00b4 13        		.uleb128 0x13
 3143 00b5 00        		.byte	0x0
 3144 00b6 00        		.byte	0x0
 3145 00b7 10        		.uleb128 0x10
 3146 00b8 0D        		.uleb128 0xd
 3147 00b9 00        		.byte	0x0
 3148 00ba 03        		.uleb128 0x3
 3149 00bb 0E        		.uleb128 0xe
 3150 00bc 3A        		.uleb128 0x3a
 3151 00bd 0B        		.uleb128 0xb
 3152 00be 3B        		.uleb128 0x3b
 3153 00bf 05        		.uleb128 0x5
 3154 00c0 49        		.uleb128 0x49
 3155 00c1 13        		.uleb128 0x13
 3156 00c2 00        		.byte	0x0
 3157 00c3 00        		.byte	0x0
 3158 00c4 11        		.uleb128 0x11
 3159 00c5 13        		.uleb128 0x13
 3160 00c6 01        		.byte	0x1
 3161 00c7 03        		.uleb128 0x3
 3162 00c8 0E        		.uleb128 0xe
 3163 00c9 0B        		.uleb128 0xb
 3164 00ca 0B        		.uleb128 0xb
 3165 00cb 3A        		.uleb128 0x3a
 3166 00cc 0B        		.uleb128 0xb
 3167 00cd 3B        		.uleb128 0x3b
 3168 00ce 0B        		.uleb128 0xb
 3169 00cf 01        		.uleb128 0x1
 3170 00d0 13        		.uleb128 0x13
 3171 00d1 00        		.byte	0x0
 3172 00d2 00        		.byte	0x0
 3173 00d3 12        		.uleb128 0x12
 3174 00d4 2E        		.uleb128 0x2e
 3175 00d5 00        		.byte	0x0
 3176 00d6 3F        		.uleb128 0x3f
 3177 00d7 0C        		.uleb128 0xc
 3178 00d8 03        		.uleb128 0x3
 3179 00d9 0E        		.uleb128 0xe
 3180 00da 3A        		.uleb128 0x3a
 3181 00db 0B        		.uleb128 0xb
 3182 00dc 3B        		.uleb128 0x3b
 3183 00dd 05        		.uleb128 0x5
 3184 00de 27        		.uleb128 0x27
 3185 00df 0C        		.uleb128 0xc
 3186 00e0 49        		.uleb128 0x49
 3187 00e1 13        		.uleb128 0x13
 3188 00e2 11        		.uleb128 0x11
 3189 00e3 01        		.uleb128 0x1
 3190 00e4 12        		.uleb128 0x12
 3191 00e5 01        		.uleb128 0x1
 3192 00e6 40        		.uleb128 0x40
GAS LISTING C:\Users\ADMINI~1\AppData\Local\Temp/cc7IMSsM.s 			page 57


 3193 00e7 0A        		.uleb128 0xa
 3194 00e8 00        		.byte	0x0
 3195 00e9 00        		.byte	0x0
 3196 00ea 13        		.uleb128 0x13
 3197 00eb 2E        		.uleb128 0x2e
 3198 00ec 00        		.byte	0x0
 3199 00ed 3F        		.uleb128 0x3f
 3200 00ee 0C        		.uleb128 0xc
 3201 00ef 03        		.uleb128 0x3
 3202 00f0 0E        		.uleb128 0xe
 3203 00f1 3A        		.uleb128 0x3a
 3204 00f2 0B        		.uleb128 0xb
 3205 00f3 3B        		.uleb128 0x3b
 3206 00f4 05        		.uleb128 0x5
 3207 00f5 27        		.uleb128 0x27
 3208 00f6 0C        		.uleb128 0xc
 3209 00f7 11        		.uleb128 0x11
 3210 00f8 01        		.uleb128 0x1
 3211 00f9 12        		.uleb128 0x12
 3212 00fa 01        		.uleb128 0x1
 3213 00fb 40        		.uleb128 0x40
 3214 00fc 0A        		.uleb128 0xa
 3215 00fd 00        		.byte	0x0
 3216 00fe 00        		.byte	0x0
 3217 00ff 14        		.uleb128 0x14
 3218 0100 2E        		.uleb128 0x2e
 3219 0101 01        		.byte	0x1
 3220 0102 3F        		.uleb128 0x3f
 3221 0103 0C        		.uleb128 0xc
 3222 0104 03        		.uleb128 0x3
 3223 0105 0E        		.uleb128 0xe
 3224 0106 3A        		.uleb128 0x3a
 3225 0107 0B        		.uleb128 0xb
 3226 0108 3B        		.uleb128 0x3b
 3227 0109 05        		.uleb128 0x5
 3228 010a 27        		.uleb128 0x27
 3229 010b 0C        		.uleb128 0xc
 3230 010c 49        		.uleb128 0x49
 3231 010d 13        		.uleb128 0x13
 3232 010e 11        		.uleb128 0x11
 3233 010f 01        		.uleb128 0x1
 3234 0110 12        		.uleb128 0x12
 3235 0111 01        		.uleb128 0x1
 3236 0112 40        		.uleb128 0x40
 3237 0113 0A        		.uleb128 0xa
 3238 0114 01        		.uleb128 0x1
 3239 0115 13        		.uleb128 0x13
 3240 0116 00        		.byte	0x0
 3241 0117 00        		.byte	0x0
 3242 0118 15        		.uleb128 0x15
 3243 0119 05        		.uleb128 0x5
 3244 011a 00        		.byte	0x0
 3245 011b 03        		.uleb128 0x3
 3246 011c 0E        		.uleb128 0xe
 3247 011d 3A        		.uleb128 0x3a
 3248 011e 0B        		.uleb128 0xb
 3249 011f 3B        		.uleb128 0x3b
GAS LISTING C:\Users\ADMINI~1\AppData\Local\Temp/cc7IMSsM.s 			page 58


 3250 0120 05        		.uleb128 0x5
 3251 0121 49        		.uleb128 0x49
 3252 0122 13        		.uleb128 0x13
 3253 0123 02        		.uleb128 0x2
 3254 0124 06        		.uleb128 0x6
 3255 0125 00        		.byte	0x0
 3256 0126 00        		.byte	0x0
 3257 0127 16        		.uleb128 0x16
 3258 0128 34        		.uleb128 0x34
 3259 0129 00        		.byte	0x0
 3260 012a 03        		.uleb128 0x3
 3261 012b 0E        		.uleb128 0xe
 3262 012c 3A        		.uleb128 0x3a
 3263 012d 0B        		.uleb128 0xb
 3264 012e 3B        		.uleb128 0x3b
 3265 012f 05        		.uleb128 0x5
 3266 0130 49        		.uleb128 0x49
 3267 0131 13        		.uleb128 0x13
 3268 0132 00        		.byte	0x0
 3269 0133 00        		.byte	0x0
 3270 0134 17        		.uleb128 0x17
 3271 0135 0B        		.uleb128 0xb
 3272 0136 01        		.byte	0x1
 3273 0137 11        		.uleb128 0x11
 3274 0138 01        		.uleb128 0x1
 3275 0139 12        		.uleb128 0x12
 3276 013a 01        		.uleb128 0x1
 3277 013b 01        		.uleb128 0x1
 3278 013c 13        		.uleb128 0x13
 3279 013d 00        		.byte	0x0
 3280 013e 00        		.byte	0x0
 3281 013f 18        		.uleb128 0x18
 3282 0140 0B        		.uleb128 0xb
 3283 0141 01        		.byte	0x1
 3284 0142 11        		.uleb128 0x11
 3285 0143 01        		.uleb128 0x1
 3286 0144 12        		.uleb128 0x12
 3287 0145 01        		.uleb128 0x1
 3288 0146 00        		.byte	0x0
 3289 0147 00        		.byte	0x0
 3290 0148 19        		.uleb128 0x19
 3291 0149 34        		.uleb128 0x34
 3292 014a 00        		.byte	0x0
 3293 014b 03        		.uleb128 0x3
 3294 014c 0E        		.uleb128 0xe
 3295 014d 3A        		.uleb128 0x3a
 3296 014e 0B        		.uleb128 0xb
 3297 014f 3B        		.uleb128 0x3b
 3298 0150 05        		.uleb128 0x5
 3299 0151 49        		.uleb128 0x49
 3300 0152 13        		.uleb128 0x13
 3301 0153 02        		.uleb128 0x2
 3302 0154 06        		.uleb128 0x6
 3303 0155 00        		.byte	0x0
 3304 0156 00        		.byte	0x0
 3305 0157 1A        		.uleb128 0x1a
 3306 0158 34        		.uleb128 0x34
GAS LISTING C:\Users\ADMINI~1\AppData\Local\Temp/cc7IMSsM.s 			page 59


 3307 0159 00        		.byte	0x0
 3308 015a 03        		.uleb128 0x3
 3309 015b 08        		.uleb128 0x8
 3310 015c 3A        		.uleb128 0x3a
 3311 015d 0B        		.uleb128 0xb
 3312 015e 3B        		.uleb128 0x3b
 3313 015f 05        		.uleb128 0x5
 3314 0160 49        		.uleb128 0x49
 3315 0161 13        		.uleb128 0x13
 3316 0162 00        		.byte	0x0
 3317 0163 00        		.byte	0x0
 3318 0164 1B        		.uleb128 0x1b
 3319 0165 34        		.uleb128 0x34
 3320 0166 00        		.byte	0x0
 3321 0167 03        		.uleb128 0x3
 3322 0168 08        		.uleb128 0x8
 3323 0169 3A        		.uleb128 0x3a
 3324 016a 0B        		.uleb128 0xb
 3325 016b 3B        		.uleb128 0x3b
 3326 016c 05        		.uleb128 0x5
 3327 016d 49        		.uleb128 0x49
 3328 016e 13        		.uleb128 0x13
 3329 016f 02        		.uleb128 0x2
 3330 0170 06        		.uleb128 0x6
 3331 0171 00        		.byte	0x0
 3332 0172 00        		.byte	0x0
 3333 0173 1C        		.uleb128 0x1c
 3334 0174 34        		.uleb128 0x34
 3335 0175 00        		.byte	0x0
 3336 0176 03        		.uleb128 0x3
 3337 0177 0E        		.uleb128 0xe
 3338 0178 3A        		.uleb128 0x3a
 3339 0179 0B        		.uleb128 0xb
 3340 017a 3B        		.uleb128 0x3b
 3341 017b 05        		.uleb128 0x5
 3342 017c 49        		.uleb128 0x49
 3343 017d 13        		.uleb128 0x13
 3344 017e 02        		.uleb128 0x2
 3345 017f 0A        		.uleb128 0xa
 3346 0180 00        		.byte	0x0
 3347 0181 00        		.byte	0x0
 3348 0182 1D        		.uleb128 0x1d
 3349 0183 0F        		.uleb128 0xf
 3350 0184 00        		.byte	0x0
 3351 0185 0B        		.uleb128 0xb
 3352 0186 0B        		.uleb128 0xb
 3353 0187 49        		.uleb128 0x49
 3354 0188 13        		.uleb128 0x13
 3355 0189 00        		.byte	0x0
 3356 018a 00        		.byte	0x0
 3357 018b 1E        		.uleb128 0x1e
 3358 018c 2E        		.uleb128 0x2e
 3359 018d 01        		.byte	0x1
 3360 018e 3F        		.uleb128 0x3f
 3361 018f 0C        		.uleb128 0xc
 3362 0190 03        		.uleb128 0x3
 3363 0191 0E        		.uleb128 0xe
GAS LISTING C:\Users\ADMINI~1\AppData\Local\Temp/cc7IMSsM.s 			page 60


 3364 0192 3A        		.uleb128 0x3a
 3365 0193 0B        		.uleb128 0xb
 3366 0194 3B        		.uleb128 0x3b
 3367 0195 05        		.uleb128 0x5
 3368 0196 27        		.uleb128 0x27
 3369 0197 0C        		.uleb128 0xc
 3370 0198 11        		.uleb128 0x11
 3371 0199 01        		.uleb128 0x1
 3372 019a 12        		.uleb128 0x12
 3373 019b 01        		.uleb128 0x1
 3374 019c 40        		.uleb128 0x40
 3375 019d 0A        		.uleb128 0xa
 3376 019e 01        		.uleb128 0x1
 3377 019f 13        		.uleb128 0x13
 3378 01a0 00        		.byte	0x0
 3379 01a1 00        		.byte	0x0
 3380 01a2 1F        		.uleb128 0x1f
 3381 01a3 05        		.uleb128 0x5
 3382 01a4 00        		.byte	0x0
 3383 01a5 03        		.uleb128 0x3
 3384 01a6 08        		.uleb128 0x8
 3385 01a7 3A        		.uleb128 0x3a
 3386 01a8 0B        		.uleb128 0xb
 3387 01a9 3B        		.uleb128 0x3b
 3388 01aa 05        		.uleb128 0x5
 3389 01ab 49        		.uleb128 0x49
 3390 01ac 13        		.uleb128 0x13
 3391 01ad 02        		.uleb128 0x2
 3392 01ae 06        		.uleb128 0x6
 3393 01af 00        		.byte	0x0
 3394 01b0 00        		.byte	0x0
 3395 01b1 20        		.uleb128 0x20
 3396 01b2 34        		.uleb128 0x34
 3397 01b3 00        		.byte	0x0
 3398 01b4 03        		.uleb128 0x3
 3399 01b5 0E        		.uleb128 0xe
 3400 01b6 3A        		.uleb128 0x3a
 3401 01b7 0B        		.uleb128 0xb
 3402 01b8 3B        		.uleb128 0x3b
 3403 01b9 0B        		.uleb128 0xb
 3404 01ba 49        		.uleb128 0x49
 3405 01bb 13        		.uleb128 0x13
 3406 01bc 02        		.uleb128 0x2
 3407 01bd 0A        		.uleb128 0xa
 3408 01be 00        		.byte	0x0
 3409 01bf 00        		.byte	0x0
 3410 01c0 21        		.uleb128 0x21
 3411 01c1 34        		.uleb128 0x34
 3412 01c2 00        		.byte	0x0
 3413 01c3 03        		.uleb128 0x3
 3414 01c4 0E        		.uleb128 0xe
 3415 01c5 3A        		.uleb128 0x3a
 3416 01c6 0B        		.uleb128 0xb
 3417 01c7 3B        		.uleb128 0x3b
 3418 01c8 0B        		.uleb128 0xb
 3419 01c9 49        		.uleb128 0x49
 3420 01ca 13        		.uleb128 0x13
GAS LISTING C:\Users\ADMINI~1\AppData\Local\Temp/cc7IMSsM.s 			page 61


 3421 01cb 3F        		.uleb128 0x3f
 3422 01cc 0C        		.uleb128 0xc
 3423 01cd 3C        		.uleb128 0x3c
 3424 01ce 0C        		.uleb128 0xc
 3425 01cf 00        		.byte	0x0
 3426 01d0 00        		.byte	0x0
 3427 01d1 22        		.uleb128 0x22
 3428 01d2 21        		.uleb128 0x21
 3429 01d3 00        		.byte	0x0
 3430 01d4 00        		.byte	0x0
 3431 01d5 00        		.byte	0x0
 3432 01d6 23        		.uleb128 0x23
 3433 01d7 26        		.uleb128 0x26
 3434 01d8 00        		.byte	0x0
 3435 01d9 49        		.uleb128 0x49
 3436 01da 13        		.uleb128 0x13
 3437 01db 00        		.byte	0x0
 3438 01dc 00        		.byte	0x0
 3439 01dd 24        		.uleb128 0x24
 3440 01de 34        		.uleb128 0x34
 3441 01df 00        		.byte	0x0
 3442 01e0 03        		.uleb128 0x3
 3443 01e1 0E        		.uleb128 0xe
 3444 01e2 3A        		.uleb128 0x3a
 3445 01e3 0B        		.uleb128 0xb
 3446 01e4 3B        		.uleb128 0x3b
 3447 01e5 05        		.uleb128 0x5
 3448 01e6 49        		.uleb128 0x49
 3449 01e7 13        		.uleb128 0x13
 3450 01e8 3F        		.uleb128 0x3f
 3451 01e9 0C        		.uleb128 0xc
 3452 01ea 02        		.uleb128 0x2
 3453 01eb 0A        		.uleb128 0xa
 3454 01ec 00        		.byte	0x0
 3455 01ed 00        		.byte	0x0
 3456 01ee 25        		.uleb128 0x25
 3457 01ef 34        		.uleb128 0x34
 3458 01f0 00        		.byte	0x0
 3459 01f1 03        		.uleb128 0x3
 3460 01f2 0E        		.uleb128 0xe
 3461 01f3 3A        		.uleb128 0x3a
 3462 01f4 0B        		.uleb128 0xb
 3463 01f5 3B        		.uleb128 0x3b
 3464 01f6 05        		.uleb128 0x5
 3465 01f7 49        		.uleb128 0x49
 3466 01f8 13        		.uleb128 0x13
 3467 01f9 3F        		.uleb128 0x3f
 3468 01fa 0C        		.uleb128 0xc
 3469 01fb 3C        		.uleb128 0x3c
 3470 01fc 0C        		.uleb128 0xc
 3471 01fd 00        		.byte	0x0
 3472 01fe 00        		.byte	0x0
 3473 01ff 00        		.byte	0x0
 3474               		.section	.debug_pubnames,"",@progbits
 3475 0000 1201 0000 		.long	0x112
 3476 0004 0200      		.word	0x2
 3477 0006 0000 0000 		.long	.Ldebug_info0
GAS LISTING C:\Users\ADMINI~1\AppData\Local\Temp/cc7IMSsM.s 			page 62


 3478 000a 590B 0000 		.long	0xb59
 3479 000e A406 0000 		.long	0x6a4
 3480 0012 6861 734D 		.string	"hasMacroUsb"
 3480      6163 726F 
 3480      5573 6200 
 3481 001e BD06 0000 		.long	0x6bd
 3482 0022 636C 6561 		.string	"clearReportBuffer"
 3482      7252 6570 
 3482      6F72 7442 
 3482      7566 6665 
 3482      7200 
 3483 0034 D206 0000 		.long	0x6d2
 3484 0038 7072 6570 		.string	"prepareKeyMappingUsb"
 3484      6172 654B 
 3484      6579 4D61 
 3484      7070 696E 
 3484      6755 7362 
 3485 004d E706 0000 		.long	0x6e7
 3486 0051 6D61 6B65 		.string	"makeReportBuffer"
 3486      5265 706F 
 3486      7274 4275 
 3486      6666 6572 
 3486      00
 3487 0062 9F07 0000 		.long	0x79f
 3488 0066 7363 616E 		.string	"scanMacroUsb"
 3488      4D61 6372 
 3488      6F55 7362 
 3488      00
 3489 0073 FD07 0000 		.long	0x7fd
 3490 0077 7363 616E 		.string	"scanKeyUSB"
 3490      4B65 7955 
 3490      5342 00
 3491 0082 D208 0000 		.long	0x8d2
 3492 0086 7573 625F 		.string	"usb_main"
 3492      6D61 696E 
 3492      00
 3493 008f 0C09 0000 		.long	0x90c
 3494 0093 696E 6974 		.string	"initInterfaceUsb"
 3494      496E 7465 
 3494      7266 6163 
 3494      6555 7362 
 3494      00
 3495 00a4 2109 0000 		.long	0x921
 3496 00a8 7573 6246 		.string	"usbFunctionSetup"
 3496      756E 6374 
 3496      696F 6E53 
 3496      6574 7570 
 3496      00
 3497 00b9 6409 0000 		.long	0x964
 3498 00bd 7573 6246 		.string	"usbFunctionWrite"
 3498      756E 6374 
 3498      696F 6E57 
 3498      7269 7465 
 3498      00
 3499 00ce B30A 0000 		.long	0xab3
 3500 00d2 7573 6244 		.string	"usbDescriptorHidReport"
 3500      6573 6372 
GAS LISTING C:\Users\ADMINI~1\AppData\Local\Temp/cc7IMSsM.s 			page 63


 3500      6970 746F 
 3500      7248 6964 
 3500      5265 706F 
 3501 00e9 320B 0000 		.long	0xb32
 3502 00ed 7265 706F 		.string	"reportIndex"
 3502      7274 496E 
 3502      6465 7800 
 3503 00f9 450B 0000 		.long	0xb45
 3504 00fd 5F69 734D 		.string	"_isMultimediaPressed"
 3504      756C 7469 
 3504      6D65 6469 
 3504      6150 7265 
 3504      7373 6564 
 3505 0112 0000 0000 		.long	0x0
 3506               		.section	.debug_aranges,"",@progbits
 3507 0000 1C00 0000 		.long	0x1c
 3508 0004 0200      		.word	0x2
 3509 0006 0000 0000 		.long	.Ldebug_info0
 3510 000a 04        		.byte	0x4
 3511 000b 00        		.byte	0x0
 3512 000c 0000      		.word	0x0
 3513 000e 0000      		.word	0x0
 3514 0010 0000 0000 		.long	.Ltext0
 3515 0014 6A05 0000 		.long	.Letext0-.Ltext0
 3516 0018 0000 0000 		.long	0x0
 3517 001c 0000 0000 		.long	0x0
 3518               		.section	.debug_line
 3519 0000 FC05 0000 		.long	.LELT0-.LSLT0
 3520               	.LSLT0:
 3521 0004 0200      		.word	0x2
 3522 0006 A700 0000 		.long	.LELTP0-.LASLTP0
 3523               	.LASLTP0:
 3524 000a 01        		.byte	0x1
 3525 000b 01        		.byte	0x1
 3526 000c F6        		.byte	0xf6
 3527 000d F5        		.byte	0xf5
 3528 000e 0A        		.byte	0xa
 3529 000f 00        		.byte	0x0
 3530 0010 01        		.byte	0x1
 3531 0011 01        		.byte	0x1
 3532 0012 01        		.byte	0x1
 3533 0013 01        		.byte	0x1
 3534 0014 00        		.byte	0x0
 3535 0015 00        		.byte	0x0
 3536 0016 00        		.byte	0x0
 3537 0017 01        		.byte	0x1
 3538 0018 633A 2F77 		.ascii	"c:/winavr-20100110/lib/gcc/../../avr/include"
 3538      696E 6176 
 3538      722D 3230 
 3538      3130 3031 
 3538      3130 2F6C 
 3539 0044 00        		.byte	0
 3540 0045 7573 6264 		.ascii	"usbdrv"
 3540      7276 
 3541 004b 00        		.byte	0
 3542 004c 00        		.byte	0x0
 3543 004d 7573 626D 		.string	"usbmain.c"
GAS LISTING C:\Users\ADMINI~1\AppData\Local\Temp/cc7IMSsM.s 			page 64


 3543      6169 6E2E 
 3543      6300 
 3544 0057 00        		.uleb128 0x0
 3545 0058 00        		.uleb128 0x0
 3546 0059 00        		.uleb128 0x0
 3547 005a 7374 6469 		.string	"stdint.h"
 3547      6E74 2E68 
 3547      00
 3548 0063 01        		.uleb128 0x1
 3549 0064 00        		.uleb128 0x0
 3550 0065 00        		.uleb128 0x0
 3551 0066 6B65 796D 		.string	"keymap.h"
 3551      6170 2E68 
 3551      00
 3552 006f 00        		.uleb128 0x0
 3553 0070 00        		.uleb128 0x0
 3554 0071 00        		.uleb128 0x0
 3555 0072 7573 6264 		.string	"usbdrv.h"
 3555      7276 2E68 
 3555      00
 3556 007b 02        		.uleb128 0x2
 3557 007c 00        		.uleb128 0x0
 3558 007d 00        		.uleb128 0x0
 3559 007e 6861 7264 		.string	"hardwareinfo.h"
 3559      7761 7265 
 3559      696E 666F 
 3559      2E68 00
 3560 008d 00        		.uleb128 0x0
 3561 008e 00        		.uleb128 0x0
 3562 008f 00        		.uleb128 0x0
 3563 0090 6B65 796D 		.string	"keymatrix.h"
 3563      6174 7269 
 3563      782E 6800 
 3564 009c 00        		.uleb128 0x0
 3565 009d 00        		.uleb128 0x0
 3566 009e 00        		.uleb128 0x0
 3567 009f 6D61 6372 		.string	"macrobuffer.h"
 3567      6F62 7566 
 3567      6665 722E 
 3567      6800 
 3568 00ad 00        		.uleb128 0x0
 3569 00ae 00        		.uleb128 0x0
 3570 00af 00        		.uleb128 0x0
 3571 00b0 00        		.byte	0x0
 3572               	.LELTP0:
 3573 00b1 00        		.byte	0x0
 3574 00b2 05        		.uleb128 0x5
 3575 00b3 02        		.byte	0x2
 3576 00b4 0000 0000 		.long	.LM1
 3577 00b8 03        		.byte	0x3
 3578 00b9 F104      		.sleb128 625
 3579 00bb 01        		.byte	0x1
 3580 00bc 00        		.byte	0x0
 3581 00bd 05        		.uleb128 0x5
 3582 00be 02        		.byte	0x2
 3583 00bf 0000 0000 		.long	.LM2
 3584 00c3 15        		.byte	0x15
GAS LISTING C:\Users\ADMINI~1\AppData\Local\Temp/cc7IMSsM.s 			page 65


 3585 00c4 00        		.byte	0x0
 3586 00c5 05        		.uleb128 0x5
 3587 00c6 02        		.byte	0x2
 3588 00c7 0000 0000 		.long	.LM3
 3589 00cb 15        		.byte	0x15
 3590 00cc 00        		.byte	0x0
 3591 00cd 05        		.uleb128 0x5
 3592 00ce 02        		.byte	0x2
 3593 00cf 0000 0000 		.long	.LM4
 3594 00d3 03        		.byte	0x3
 3595 00d4 DB7E      		.sleb128 -165
 3596 00d6 01        		.byte	0x1
 3597 00d7 00        		.byte	0x0
 3598 00d8 05        		.uleb128 0x5
 3599 00d9 02        		.byte	0x2
 3600 00da 0000 0000 		.long	.LM5
 3601 00de 15        		.byte	0x15
 3602 00df 00        		.byte	0x0
 3603 00e0 05        		.uleb128 0x5
 3604 00e1 02        		.byte	0x2
 3605 00e2 0000 0000 		.long	.LM6
 3606 00e6 15        		.byte	0x15
 3607 00e7 00        		.byte	0x0
 3608 00e8 05        		.uleb128 0x5
 3609 00e9 02        		.byte	0x2
 3610 00ea 0000 0000 		.long	.LM7
 3611 00ee 15        		.byte	0x15
 3612 00ef 00        		.byte	0x0
 3613 00f0 05        		.uleb128 0x5
 3614 00f1 02        		.byte	0x2
 3615 00f2 0000 0000 		.long	.LM8
 3616 00f6 03        		.byte	0x3
 3617 00f7 BC7F      		.sleb128 -68
 3618 00f9 01        		.byte	0x1
 3619 00fa 00        		.byte	0x0
 3620 00fb 05        		.uleb128 0x5
 3621 00fc 02        		.byte	0x2
 3622 00fd 0000 0000 		.long	.LM9
 3623 0101 15        		.byte	0x15
 3624 0102 00        		.byte	0x0
 3625 0103 05        		.uleb128 0x5
 3626 0104 02        		.byte	0x2
 3627 0105 0000 0000 		.long	.LM10
 3628 0109 15        		.byte	0x15
 3629 010a 00        		.byte	0x0
 3630 010b 05        		.uleb128 0x5
 3631 010c 02        		.byte	0x2
 3632 010d 0000 0000 		.long	.LM11
 3633 0111 24        		.byte	0x24
 3634 0112 00        		.byte	0x0
 3635 0113 05        		.uleb128 0x5
 3636 0114 02        		.byte	0x2
 3637 0115 0000 0000 		.long	.LM12
 3638 0119 19        		.byte	0x19
 3639 011a 00        		.byte	0x0
 3640 011b 05        		.uleb128 0x5
 3641 011c 02        		.byte	0x2
GAS LISTING C:\Users\ADMINI~1\AppData\Local\Temp/cc7IMSsM.s 			page 66


 3642 011d 0000 0000 		.long	.LM13
 3643 0121 18        		.byte	0x18
 3644 0122 00        		.byte	0x0
 3645 0123 05        		.uleb128 0x5
 3646 0124 02        		.byte	0x2
 3647 0125 0000 0000 		.long	.LM14
 3648 0129 16        		.byte	0x16
 3649 012a 00        		.byte	0x0
 3650 012b 05        		.uleb128 0x5
 3651 012c 02        		.byte	0x2
 3652 012d 0000 0000 		.long	.LM15
 3653 0131 15        		.byte	0x15
 3654 0132 00        		.byte	0x0
 3655 0133 05        		.uleb128 0x5
 3656 0134 02        		.byte	0x2
 3657 0135 0000 0000 		.long	.LM16
 3658 0139 16        		.byte	0x16
 3659 013a 00        		.byte	0x0
 3660 013b 05        		.uleb128 0x5
 3661 013c 02        		.byte	0x2
 3662 013d 0000 0000 		.long	.LM17
 3663 0141 15        		.byte	0x15
 3664 0142 00        		.byte	0x0
 3665 0143 05        		.uleb128 0x5
 3666 0144 02        		.byte	0x2
 3667 0145 0000 0000 		.long	.LM18
 3668 0149 15        		.byte	0x15
 3669 014a 00        		.byte	0x0
 3670 014b 05        		.uleb128 0x5
 3671 014c 02        		.byte	0x2
 3672 014d 0000 0000 		.long	.LM19
 3673 0151 15        		.byte	0x15
 3674 0152 00        		.byte	0x0
 3675 0153 05        		.uleb128 0x5
 3676 0154 02        		.byte	0x2
 3677 0155 0000 0000 		.long	.LM20
 3678 0159 17        		.byte	0x17
 3679 015a 00        		.byte	0x0
 3680 015b 05        		.uleb128 0x5
 3681 015c 02        		.byte	0x2
 3682 015d 0000 0000 		.long	.LM21
 3683 0161 15        		.byte	0x15
 3684 0162 00        		.byte	0x0
 3685 0163 05        		.uleb128 0x5
 3686 0164 02        		.byte	0x2
 3687 0165 0000 0000 		.long	.LM22
 3688 0169 1A        		.byte	0x1a
 3689 016a 00        		.byte	0x0
 3690 016b 05        		.uleb128 0x5
 3691 016c 02        		.byte	0x2
 3692 016d 0000 0000 		.long	.LM23
 3693 0171 15        		.byte	0x15
 3694 0172 00        		.byte	0x0
 3695 0173 05        		.uleb128 0x5
 3696 0174 02        		.byte	0x2
 3697 0175 0000 0000 		.long	.LM24
 3698 0179 1C        		.byte	0x1c
GAS LISTING C:\Users\ADMINI~1\AppData\Local\Temp/cc7IMSsM.s 			page 67


 3699 017a 00        		.byte	0x0
 3700 017b 05        		.uleb128 0x5
 3701 017c 02        		.byte	0x2
 3702 017d 0000 0000 		.long	.LM25
 3703 0181 15        		.byte	0x15
 3704 0182 00        		.byte	0x0
 3705 0183 05        		.uleb128 0x5
 3706 0184 02        		.byte	0x2
 3707 0185 0000 0000 		.long	.LM26
 3708 0189 16        		.byte	0x16
 3709 018a 00        		.byte	0x0
 3710 018b 05        		.uleb128 0x5
 3711 018c 02        		.byte	0x2
 3712 018d 0000 0000 		.long	.LM27
 3713 0191 15        		.byte	0x15
 3714 0192 00        		.byte	0x0
 3715 0193 05        		.uleb128 0x5
 3716 0194 02        		.byte	0x2
 3717 0195 0000 0000 		.long	.LM28
 3718 0199 19        		.byte	0x19
 3719 019a 00        		.byte	0x0
 3720 019b 05        		.uleb128 0x5
 3721 019c 02        		.byte	0x2
 3722 019d 0000 0000 		.long	.LM29
 3723 01a1 91        		.byte	0x91
 3724 01a2 00        		.byte	0x0
 3725 01a3 05        		.uleb128 0x5
 3726 01a4 02        		.byte	0x2
 3727 01a5 0000 0000 		.long	.LM30
 3728 01a9 15        		.byte	0x15
 3729 01aa 00        		.byte	0x0
 3730 01ab 05        		.uleb128 0x5
 3731 01ac 02        		.byte	0x2
 3732 01ad 0000 0000 		.long	.LM31
 3733 01b1 17        		.byte	0x17
 3734 01b2 00        		.byte	0x0
 3735 01b3 05        		.uleb128 0x5
 3736 01b4 02        		.byte	0x2
 3737 01b5 0000 0000 		.long	.LM32
 3738 01b9 16        		.byte	0x16
 3739 01ba 00        		.byte	0x0
 3740 01bb 05        		.uleb128 0x5
 3741 01bc 02        		.byte	0x2
 3742 01bd 0000 0000 		.long	.LM33
 3743 01c1 17        		.byte	0x17
 3744 01c2 00        		.byte	0x0
 3745 01c3 05        		.uleb128 0x5
 3746 01c4 02        		.byte	0x2
 3747 01c5 0000 0000 		.long	.LM34
 3748 01c9 16        		.byte	0x16
 3749 01ca 00        		.byte	0x0
 3750 01cb 05        		.uleb128 0x5
 3751 01cc 02        		.byte	0x2
 3752 01cd 0000 0000 		.long	.LM35
 3753 01d1 15        		.byte	0x15
 3754 01d2 00        		.byte	0x0
 3755 01d3 05        		.uleb128 0x5
GAS LISTING C:\Users\ADMINI~1\AppData\Local\Temp/cc7IMSsM.s 			page 68


 3756 01d4 02        		.byte	0x2
 3757 01d5 0000 0000 		.long	.LM36
 3758 01d9 1C        		.byte	0x1c
 3759 01da 00        		.byte	0x0
 3760 01db 05        		.uleb128 0x5
 3761 01dc 02        		.byte	0x2
 3762 01dd 0000 0000 		.long	.LM37
 3763 01e1 0E        		.byte	0xe
 3764 01e2 00        		.byte	0x0
 3765 01e3 05        		.uleb128 0x5
 3766 01e4 02        		.byte	0x2
 3767 01e5 0000 0000 		.long	.LM38
 3768 01e9 17        		.byte	0x17
 3769 01ea 00        		.byte	0x0
 3770 01eb 05        		.uleb128 0x5
 3771 01ec 02        		.byte	0x2
 3772 01ed 0000 0000 		.long	.LM39
 3773 01f1 17        		.byte	0x17
 3774 01f2 00        		.byte	0x0
 3775 01f3 05        		.uleb128 0x5
 3776 01f4 02        		.byte	0x2
 3777 01f5 0000 0000 		.long	.LM40
 3778 01f9 15        		.byte	0x15
 3779 01fa 00        		.byte	0x0
 3780 01fb 05        		.uleb128 0x5
 3781 01fc 02        		.byte	0x2
 3782 01fd 0000 0000 		.long	.LM41
 3783 0201 15        		.byte	0x15
 3784 0202 00        		.byte	0x0
 3785 0203 05        		.uleb128 0x5
 3786 0204 02        		.byte	0x2
 3787 0205 0000 0000 		.long	.LM42
 3788 0209 0A        		.byte	0xa
 3789 020a 00        		.byte	0x0
 3790 020b 05        		.uleb128 0x5
 3791 020c 02        		.byte	0x2
 3792 020d 0000 0000 		.long	.LM43
 3793 0211 22        		.byte	0x22
 3794 0212 00        		.byte	0x0
 3795 0213 05        		.uleb128 0x5
 3796 0214 02        		.byte	0x2
 3797 0215 0000 0000 		.long	.LM44
 3798 0219 16        		.byte	0x16
 3799 021a 00        		.byte	0x0
 3800 021b 05        		.uleb128 0x5
 3801 021c 02        		.byte	0x2
 3802 021d 0000 0000 		.long	.LM45
 3803 0221 16        		.byte	0x16
 3804 0222 00        		.byte	0x0
 3805 0223 05        		.uleb128 0x5
 3806 0224 02        		.byte	0x2
 3807 0225 0000 0000 		.long	.LM46
 3808 0229 15        		.byte	0x15
 3809 022a 00        		.byte	0x0
 3810 022b 05        		.uleb128 0x5
 3811 022c 02        		.byte	0x2
 3812 022d 0000 0000 		.long	.LM47
GAS LISTING C:\Users\ADMINI~1\AppData\Local\Temp/cc7IMSsM.s 			page 69


 3813 0231 15        		.byte	0x15
 3814 0232 00        		.byte	0x0
 3815 0233 05        		.uleb128 0x5
 3816 0234 02        		.byte	0x2
 3817 0235 0000 0000 		.long	.LM48
 3818 0239 1A        		.byte	0x1a
 3819 023a 00        		.byte	0x0
 3820 023b 05        		.uleb128 0x5
 3821 023c 02        		.byte	0x2
 3822 023d 0000 0000 		.long	.LM49
 3823 0241 03        		.byte	0x3
 3824 0242 E47E      		.sleb128 -156
 3825 0244 01        		.byte	0x1
 3826 0245 00        		.byte	0x0
 3827 0246 05        		.uleb128 0x5
 3828 0247 02        		.byte	0x2
 3829 0248 0000 0000 		.long	.LM50
 3830 024c 18        		.byte	0x18
 3831 024d 00        		.byte	0x0
 3832 024e 05        		.uleb128 0x5
 3833 024f 02        		.byte	0x2
 3834 0250 0000 0000 		.long	.LM51
 3835 0254 17        		.byte	0x17
 3836 0255 00        		.byte	0x0
 3837 0256 05        		.uleb128 0x5
 3838 0257 02        		.byte	0x2
 3839 0258 0000 0000 		.long	.LM52
 3840 025c 18        		.byte	0x18
 3841 025d 00        		.byte	0x0
 3842 025e 05        		.uleb128 0x5
 3843 025f 02        		.byte	0x2
 3844 0260 0000 0000 		.long	.LM53
 3845 0264 15        		.byte	0x15
 3846 0265 00        		.byte	0x0
 3847 0266 05        		.uleb128 0x5
 3848 0267 02        		.byte	0x2
 3849 0268 0000 0000 		.long	.LM54
 3850 026c 16        		.byte	0x16
 3851 026d 00        		.byte	0x0
 3852 026e 05        		.uleb128 0x5
 3853 026f 02        		.byte	0x2
 3854 0270 0000 0000 		.long	.LM55
 3855 0274 19        		.byte	0x19
 3856 0275 00        		.byte	0x0
 3857 0276 05        		.uleb128 0x5
 3858 0277 02        		.byte	0x2
 3859 0278 0000 0000 		.long	.LM56
 3860 027c 0F        		.byte	0xf
 3861 027d 00        		.byte	0x0
 3862 027e 05        		.uleb128 0x5
 3863 027f 02        		.byte	0x2
 3864 0280 0000 0000 		.long	.LM57
 3865 0284 19        		.byte	0x19
 3866 0285 00        		.byte	0x0
 3867 0286 05        		.uleb128 0x5
 3868 0287 02        		.byte	0x2
 3869 0288 0000 0000 		.long	.LM58
GAS LISTING C:\Users\ADMINI~1\AppData\Local\Temp/cc7IMSsM.s 			page 70


 3870 028c 15        		.byte	0x15
 3871 028d 00        		.byte	0x0
 3872 028e 05        		.uleb128 0x5
 3873 028f 02        		.byte	0x2
 3874 0290 0000 0000 		.long	.LM59
 3875 0294 16        		.byte	0x16
 3876 0295 00        		.byte	0x0
 3877 0296 05        		.uleb128 0x5
 3878 0297 02        		.byte	0x2
 3879 0298 0000 0000 		.long	.LM60
 3880 029c 17        		.byte	0x17
 3881 029d 00        		.byte	0x0
 3882 029e 05        		.uleb128 0x5
 3883 029f 02        		.byte	0x2
 3884 02a0 0000 0000 		.long	.LM61
 3885 02a4 0E        		.byte	0xe
 3886 02a5 00        		.byte	0x0
 3887 02a6 05        		.uleb128 0x5
 3888 02a7 02        		.byte	0x2
 3889 02a8 0000 0000 		.long	.LM62
 3890 02ac 23        		.byte	0x23
 3891 02ad 00        		.byte	0x0
 3892 02ae 05        		.uleb128 0x5
 3893 02af 02        		.byte	0x2
 3894 02b0 0000 0000 		.long	.LM63
 3895 02b4 17        		.byte	0x17
 3896 02b5 00        		.byte	0x0
 3897 02b6 05        		.uleb128 0x5
 3898 02b7 02        		.byte	0x2
 3899 02b8 0000 0000 		.long	.LM64
 3900 02bc 15        		.byte	0x15
 3901 02bd 00        		.byte	0x0
 3902 02be 05        		.uleb128 0x5
 3903 02bf 02        		.byte	0x2
 3904 02c0 0000 0000 		.long	.LM65
 3905 02c4 15        		.byte	0x15
 3906 02c5 00        		.byte	0x0
 3907 02c6 05        		.uleb128 0x5
 3908 02c7 02        		.byte	0x2
 3909 02c8 0000 0000 		.long	.LM66
 3910 02cc 18        		.byte	0x18
 3911 02cd 00        		.byte	0x0
 3912 02ce 05        		.uleb128 0x5
 3913 02cf 02        		.byte	0x2
 3914 02d0 0000 0000 		.long	.LM67
 3915 02d4 15        		.byte	0x15
 3916 02d5 00        		.byte	0x0
 3917 02d6 05        		.uleb128 0x5
 3918 02d7 02        		.byte	0x2
 3919 02d8 0000 0000 		.long	.LM68
 3920 02dc 16        		.byte	0x16
 3921 02dd 00        		.byte	0x0
 3922 02de 05        		.uleb128 0x5
 3923 02df 02        		.byte	0x2
 3924 02e0 0000 0000 		.long	.LM69
 3925 02e4 15        		.byte	0x15
 3926 02e5 00        		.byte	0x0
GAS LISTING C:\Users\ADMINI~1\AppData\Local\Temp/cc7IMSsM.s 			page 71


 3927 02e6 05        		.uleb128 0x5
 3928 02e7 02        		.byte	0x2
 3929 02e8 0000 0000 		.long	.LM70
 3930 02ec 1B        		.byte	0x1b
 3931 02ed 00        		.byte	0x0
 3932 02ee 05        		.uleb128 0x5
 3933 02ef 02        		.byte	0x2
 3934 02f0 0000 0000 		.long	.LM71
 3935 02f4 18        		.byte	0x18
 3936 02f5 00        		.byte	0x0
 3937 02f6 05        		.uleb128 0x5
 3938 02f7 02        		.byte	0x2
 3939 02f8 0000 0000 		.long	.LM72
 3940 02fc 1A        		.byte	0x1a
 3941 02fd 00        		.byte	0x0
 3942 02fe 05        		.uleb128 0x5
 3943 02ff 02        		.byte	0x2
 3944 0300 0000 0000 		.long	.LM73
 3945 0304 15        		.byte	0x15
 3946 0305 00        		.byte	0x0
 3947 0306 05        		.uleb128 0x5
 3948 0307 02        		.byte	0x2
 3949 0308 0000 0000 		.long	.LM74
 3950 030c 15        		.byte	0x15
 3951 030d 00        		.byte	0x0
 3952 030e 05        		.uleb128 0x5
 3953 030f 02        		.byte	0x2
 3954 0310 0000 0000 		.long	.LM75
 3955 0314 16        		.byte	0x16
 3956 0315 00        		.byte	0x0
 3957 0316 05        		.uleb128 0x5
 3958 0317 02        		.byte	0x2
 3959 0318 0000 0000 		.long	.LM76
 3960 031c 1C        		.byte	0x1c
 3961 031d 00        		.byte	0x0
 3962 031e 05        		.uleb128 0x5
 3963 031f 02        		.byte	0x2
 3964 0320 0000 0000 		.long	.LM77
 3965 0324 17        		.byte	0x17
 3966 0325 00        		.byte	0x0
 3967 0326 05        		.uleb128 0x5
 3968 0327 02        		.byte	0x2
 3969 0328 0000 0000 		.long	.LM78
 3970 032c 16        		.byte	0x16
 3971 032d 00        		.byte	0x0
 3972 032e 05        		.uleb128 0x5
 3973 032f 02        		.byte	0x2
 3974 0330 0000 0000 		.long	.LM79
 3975 0334 03        		.byte	0x3
 3976 0335 BF7F      		.sleb128 -65
 3977 0337 01        		.byte	0x1
 3978 0338 00        		.byte	0x0
 3979 0339 05        		.uleb128 0x5
 3980 033a 02        		.byte	0x2
 3981 033b 0000 0000 		.long	.LM80
 3982 033f 13        		.byte	0x13
 3983 0340 00        		.byte	0x0
GAS LISTING C:\Users\ADMINI~1\AppData\Local\Temp/cc7IMSsM.s 			page 72


 3984 0341 05        		.uleb128 0x5
 3985 0342 02        		.byte	0x2
 3986 0343 0000 0000 		.long	.LM81
 3987 0347 18        		.byte	0x18
 3988 0348 00        		.byte	0x0
 3989 0349 05        		.uleb128 0x5
 3990 034a 02        		.byte	0x2
 3991 034b 0000 0000 		.long	.LM82
 3992 034f 58        		.byte	0x58
 3993 0350 00        		.byte	0x0
 3994 0351 05        		.uleb128 0x5
 3995 0352 02        		.byte	0x2
 3996 0353 0000 0000 		.long	.LM83
 3997 0357 15        		.byte	0x15
 3998 0358 00        		.byte	0x0
 3999 0359 05        		.uleb128 0x5
 4000 035a 02        		.byte	0x2
 4001 035b 0000 0000 		.long	.LM84
 4002 035f 15        		.byte	0x15
 4003 0360 00        		.byte	0x0
 4004 0361 05        		.uleb128 0x5
 4005 0362 02        		.byte	0x2
 4006 0363 0000 0000 		.long	.LM85
 4007 0367 18        		.byte	0x18
 4008 0368 00        		.byte	0x0
 4009 0369 05        		.uleb128 0x5
 4010 036a 02        		.byte	0x2
 4011 036b 0000 0000 		.long	.LM86
 4012 036f 15        		.byte	0x15
 4013 0370 00        		.byte	0x0
 4014 0371 05        		.uleb128 0x5
 4015 0372 02        		.byte	0x2
 4016 0373 0000 0000 		.long	.LM87
 4017 0377 15        		.byte	0x15
 4018 0378 00        		.byte	0x0
 4019 0379 05        		.uleb128 0x5
 4020 037a 02        		.byte	0x2
 4021 037b 0000 0000 		.long	.LM88
 4022 037f 15        		.byte	0x15
 4023 0380 00        		.byte	0x0
 4024 0381 05        		.uleb128 0x5
 4025 0382 02        		.byte	0x2
 4026 0383 0000 0000 		.long	.LM89
 4027 0387 15        		.byte	0x15
 4028 0388 00        		.byte	0x0
 4029 0389 05        		.uleb128 0x5
 4030 038a 02        		.byte	0x2
 4031 038b 0000 0000 		.long	.LM90
 4032 038f 1F        		.byte	0x1f
 4033 0390 00        		.byte	0x0
 4034 0391 05        		.uleb128 0x5
 4035 0392 02        		.byte	0x2
 4036 0393 0000 0000 		.long	.LM91
 4037 0397 13        		.byte	0x13
 4038 0398 00        		.byte	0x0
 4039 0399 05        		.uleb128 0x5
 4040 039a 02        		.byte	0x2
GAS LISTING C:\Users\ADMINI~1\AppData\Local\Temp/cc7IMSsM.s 			page 73


 4041 039b 0000 0000 		.long	.LM92
 4042 039f 18        		.byte	0x18
 4043 03a0 00        		.byte	0x0
 4044 03a1 05        		.uleb128 0x5
 4045 03a2 02        		.byte	0x2
 4046 03a3 0000 0000 		.long	.LM93
 4047 03a7 0E        		.byte	0xe
 4048 03a8 00        		.byte	0x0
 4049 03a9 05        		.uleb128 0x5
 4050 03aa 02        		.byte	0x2
 4051 03ab 0000 0000 		.long	.LM94
 4052 03af 1C        		.byte	0x1c
 4053 03b0 00        		.byte	0x0
 4054 03b1 05        		.uleb128 0x5
 4055 03b2 02        		.byte	0x2
 4056 03b3 0000 0000 		.long	.LM95
 4057 03b7 15        		.byte	0x15
 4058 03b8 00        		.byte	0x0
 4059 03b9 05        		.uleb128 0x5
 4060 03ba 02        		.byte	0x2
 4061 03bb 0000 0000 		.long	.LM96
 4062 03bf 13        		.byte	0x13
 4063 03c0 00        		.byte	0x0
 4064 03c1 05        		.uleb128 0x5
 4065 03c2 02        		.byte	0x2
 4066 03c3 0000 0000 		.long	.LM97
 4067 03c7 4A        		.byte	0x4a
 4068 03c8 00        		.byte	0x0
 4069 03c9 05        		.uleb128 0x5
 4070 03ca 02        		.byte	0x2
 4071 03cb 0000 0000 		.long	.LM98
 4072 03cf 16        		.byte	0x16
 4073 03d0 00        		.byte	0x0
 4074 03d1 05        		.uleb128 0x5
 4075 03d2 02        		.byte	0x2
 4076 03d3 0000 0000 		.long	.LM99
 4077 03d7 1B        		.byte	0x1b
 4078 03d8 00        		.byte	0x0
 4079 03d9 05        		.uleb128 0x5
 4080 03da 02        		.byte	0x2
 4081 03db 0000 0000 		.long	.LM100
 4082 03df 2B        		.byte	0x2b
 4083 03e0 00        		.byte	0x0
 4084 03e1 05        		.uleb128 0x5
 4085 03e2 02        		.byte	0x2
 4086 03e3 0000 0000 		.long	.LM101
 4087 03e7 03        		.byte	0x3
 4088 03e8 70        		.sleb128 -16
 4089 03e9 01        		.byte	0x1
 4090 03ea 00        		.byte	0x0
 4091 03eb 05        		.uleb128 0x5
 4092 03ec 02        		.byte	0x2
 4093 03ed 0000 0000 		.long	.LM102
 4094 03f1 16        		.byte	0x16
 4095 03f2 00        		.byte	0x0
 4096 03f3 05        		.uleb128 0x5
 4097 03f4 02        		.byte	0x2
GAS LISTING C:\Users\ADMINI~1\AppData\Local\Temp/cc7IMSsM.s 			page 74


 4098 03f5 0000 0000 		.long	.LM103
 4099 03f9 5B        		.byte	0x5b
 4100 03fa 00        		.byte	0x0
 4101 03fb 05        		.uleb128 0x5
 4102 03fc 02        		.byte	0x2
 4103 03fd 0000 0000 		.long	.LM104
 4104 0401 17        		.byte	0x17
 4105 0402 00        		.byte	0x0
 4106 0403 05        		.uleb128 0x5
 4107 0404 02        		.byte	0x2
 4108 0405 0000 0000 		.long	.LM105
 4109 0409 03        		.byte	0x3
 4110 040a BC7F      		.sleb128 -68
 4111 040c 01        		.byte	0x1
 4112 040d 00        		.byte	0x0
 4113 040e 05        		.uleb128 0x5
 4114 040f 02        		.byte	0x2
 4115 0410 0000 0000 		.long	.LM106
 4116 0414 16        		.byte	0x16
 4117 0415 00        		.byte	0x0
 4118 0416 05        		.uleb128 0x5
 4119 0417 02        		.byte	0x2
 4120 0418 0000 0000 		.long	.LM107
 4121 041c 16        		.byte	0x16
 4122 041d 00        		.byte	0x0
 4123 041e 05        		.uleb128 0x5
 4124 041f 02        		.byte	0x2
 4125 0420 0000 0000 		.long	.LM108
 4126 0424 17        		.byte	0x17
 4127 0425 00        		.byte	0x0
 4128 0426 05        		.uleb128 0x5
 4129 0427 02        		.byte	0x2
 4130 0428 0000 0000 		.long	.LM109
 4131 042c 15        		.byte	0x15
 4132 042d 00        		.byte	0x0
 4133 042e 05        		.uleb128 0x5
 4134 042f 02        		.byte	0x2
 4135 0430 0000 0000 		.long	.LM110
 4136 0434 15        		.byte	0x15
 4137 0435 00        		.byte	0x0
 4138 0436 05        		.uleb128 0x5
 4139 0437 02        		.byte	0x2
 4140 0438 0000 0000 		.long	.LM111
 4141 043c 15        		.byte	0x15
 4142 043d 00        		.byte	0x0
 4143 043e 05        		.uleb128 0x5
 4144 043f 02        		.byte	0x2
 4145 0440 0000 0000 		.long	.LM112
 4146 0444 15        		.byte	0x15
 4147 0445 00        		.byte	0x0
 4148 0446 05        		.uleb128 0x5
 4149 0447 02        		.byte	0x2
 4150 0448 0000 0000 		.long	.LM113
 4151 044c 1C        		.byte	0x1c
 4152 044d 00        		.byte	0x0
 4153 044e 05        		.uleb128 0x5
 4154 044f 02        		.byte	0x2
GAS LISTING C:\Users\ADMINI~1\AppData\Local\Temp/cc7IMSsM.s 			page 75


 4155 0450 0000 0000 		.long	.LM114
 4156 0454 18        		.byte	0x18
 4157 0455 00        		.byte	0x0
 4158 0456 05        		.uleb128 0x5
 4159 0457 02        		.byte	0x2
 4160 0458 0000 0000 		.long	.LM115
 4161 045c 15        		.byte	0x15
 4162 045d 00        		.byte	0x0
 4163 045e 05        		.uleb128 0x5
 4164 045f 02        		.byte	0x2
 4165 0460 0000 0000 		.long	.LM116
 4166 0464 15        		.byte	0x15
 4167 0465 00        		.byte	0x0
 4168 0466 05        		.uleb128 0x5
 4169 0467 02        		.byte	0x2
 4170 0468 0000 0000 		.long	.LM117
 4171 046c 15        		.byte	0x15
 4172 046d 00        		.byte	0x0
 4173 046e 05        		.uleb128 0x5
 4174 046f 02        		.byte	0x2
 4175 0470 0000 0000 		.long	.LM118
 4176 0474 15        		.byte	0x15
 4177 0475 00        		.byte	0x0
 4178 0476 05        		.uleb128 0x5
 4179 0477 02        		.byte	0x2
 4180 0478 0000 0000 		.long	.LM119
 4181 047c 19        		.byte	0x19
 4182 047d 00        		.byte	0x0
 4183 047e 05        		.uleb128 0x5
 4184 047f 02        		.byte	0x2
 4185 0480 0000 0000 		.long	.LM120
 4186 0484 15        		.byte	0x15
 4187 0485 00        		.byte	0x0
 4188 0486 05        		.uleb128 0x5
 4189 0487 02        		.byte	0x2
 4190 0488 0000 0000 		.long	.LM121
 4191 048c 15        		.byte	0x15
 4192 048d 00        		.byte	0x0
 4193 048e 05        		.uleb128 0x5
 4194 048f 02        		.byte	0x2
 4195 0490 0000 0000 		.long	.LM122
 4196 0494 16        		.byte	0x16
 4197 0495 00        		.byte	0x0
 4198 0496 05        		.uleb128 0x5
 4199 0497 02        		.byte	0x2
 4200 0498 0000 0000 		.long	.LM123
 4201 049c 15        		.byte	0x15
 4202 049d 00        		.byte	0x0
 4203 049e 05        		.uleb128 0x5
 4204 049f 02        		.byte	0x2
 4205 04a0 0000 0000 		.long	.LM124
 4206 04a4 15        		.byte	0x15
 4207 04a5 00        		.byte	0x0
 4208 04a6 05        		.uleb128 0x5
 4209 04a7 02        		.byte	0x2
 4210 04a8 0000 0000 		.long	.LM125
 4211 04ac 16        		.byte	0x16
GAS LISTING C:\Users\ADMINI~1\AppData\Local\Temp/cc7IMSsM.s 			page 76


 4212 04ad 00        		.byte	0x0
 4213 04ae 05        		.uleb128 0x5
 4214 04af 02        		.byte	0x2
 4215 04b0 0000 0000 		.long	.LM126
 4216 04b4 15        		.byte	0x15
 4217 04b5 00        		.byte	0x0
 4218 04b6 05        		.uleb128 0x5
 4219 04b7 02        		.byte	0x2
 4220 04b8 0000 0000 		.long	.LM127
 4221 04bc 16        		.byte	0x16
 4222 04bd 00        		.byte	0x0
 4223 04be 05        		.uleb128 0x5
 4224 04bf 02        		.byte	0x2
 4225 04c0 0000 0000 		.long	.LM128
 4226 04c4 1B        		.byte	0x1b
 4227 04c5 00        		.byte	0x0
 4228 04c6 05        		.uleb128 0x5
 4229 04c7 02        		.byte	0x2
 4230 04c8 0000 0000 		.long	.LM129
 4231 04cc 17        		.byte	0x17
 4232 04cd 00        		.byte	0x0
 4233 04ce 05        		.uleb128 0x5
 4234 04cf 02        		.byte	0x2
 4235 04d0 0000 0000 		.long	.LM130
 4236 04d4 16        		.byte	0x16
 4237 04d5 00        		.byte	0x0
 4238 04d6 05        		.uleb128 0x5
 4239 04d7 02        		.byte	0x2
 4240 04d8 0000 0000 		.long	.LM131
 4241 04dc 16        		.byte	0x16
 4242 04dd 00        		.byte	0x0
 4243 04de 05        		.uleb128 0x5
 4244 04df 02        		.byte	0x2
 4245 04e0 0000 0000 		.long	.LM132
 4246 04e4 16        		.byte	0x16
 4247 04e5 00        		.byte	0x0
 4248 04e6 05        		.uleb128 0x5
 4249 04e7 02        		.byte	0x2
 4250 04e8 0000 0000 		.long	.LM133
 4251 04ec 03        		.byte	0x3
 4252 04ed B67F      		.sleb128 -74
 4253 04ef 01        		.byte	0x1
 4254 04f0 00        		.byte	0x0
 4255 04f1 05        		.uleb128 0x5
 4256 04f2 02        		.byte	0x2
 4257 04f3 0000 0000 		.long	.LM134
 4258 04f7 03        		.byte	0x3
 4259 04f8 837E      		.sleb128 -253
 4260 04fa 01        		.byte	0x1
 4261 04fb 00        		.byte	0x0
 4262 04fc 05        		.uleb128 0x5
 4263 04fd 02        		.byte	0x2
 4264 04fe 0000 0000 		.long	.LM135
 4265 0502 15        		.byte	0x15
 4266 0503 00        		.byte	0x0
 4267 0504 05        		.uleb128 0x5
 4268 0505 02        		.byte	0x2
GAS LISTING C:\Users\ADMINI~1\AppData\Local\Temp/cc7IMSsM.s 			page 77


 4269 0506 0000 0000 		.long	.LM136
 4270 050a 15        		.byte	0x15
 4271 050b 00        		.byte	0x0
 4272 050c 05        		.uleb128 0x5
 4273 050d 02        		.byte	0x2
 4274 050e 0000 0000 		.long	.LM137
 4275 0512 15        		.byte	0x15
 4276 0513 00        		.byte	0x0
 4277 0514 05        		.uleb128 0x5
 4278 0515 02        		.byte	0x2
 4279 0516 0000 0000 		.long	.LM138
 4280 051a 15        		.byte	0x15
 4281 051b 00        		.byte	0x0
 4282 051c 05        		.uleb128 0x5
 4283 051d 02        		.byte	0x2
 4284 051e 0000 0000 		.long	.LM139
 4285 0522 03        		.byte	0x3
 4286 0523 B17F      		.sleb128 -79
 4287 0525 01        		.byte	0x1
 4288 0526 00        		.byte	0x0
 4289 0527 05        		.uleb128 0x5
 4290 0528 02        		.byte	0x2
 4291 0529 0000 0000 		.long	.LM140
 4292 052d 16        		.byte	0x16
 4293 052e 00        		.byte	0x0
 4294 052f 05        		.uleb128 0x5
 4295 0530 02        		.byte	0x2
 4296 0531 0000 0000 		.long	.LM141
 4297 0535 16        		.byte	0x16
 4298 0536 00        		.byte	0x0
 4299 0537 05        		.uleb128 0x5
 4300 0538 02        		.byte	0x2
 4301 0539 0000 0000 		.long	.LM142
 4302 053d 15        		.byte	0x15
 4303 053e 00        		.byte	0x0
 4304 053f 05        		.uleb128 0x5
 4305 0540 02        		.byte	0x2
 4306 0541 0000 0000 		.long	.LM143
 4307 0545 18        		.byte	0x18
 4308 0546 00        		.byte	0x0
 4309 0547 05        		.uleb128 0x5
 4310 0548 02        		.byte	0x2
 4311 0549 0000 0000 		.long	.LM144
 4312 054d 19        		.byte	0x19
 4313 054e 00        		.byte	0x0
 4314 054f 05        		.uleb128 0x5
 4315 0550 02        		.byte	0x2
 4316 0551 0000 0000 		.long	.LM145
 4317 0555 19        		.byte	0x19
 4318 0556 00        		.byte	0x0
 4319 0557 05        		.uleb128 0x5
 4320 0558 02        		.byte	0x2
 4321 0559 0000 0000 		.long	.LM146
 4322 055d 18        		.byte	0x18
 4323 055e 00        		.byte	0x0
 4324 055f 05        		.uleb128 0x5
 4325 0560 02        		.byte	0x2
GAS LISTING C:\Users\ADMINI~1\AppData\Local\Temp/cc7IMSsM.s 			page 78


 4326 0561 0000 0000 		.long	.LM147
 4327 0565 16        		.byte	0x16
 4328 0566 00        		.byte	0x0
 4329 0567 05        		.uleb128 0x5
 4330 0568 02        		.byte	0x2
 4331 0569 0000 0000 		.long	.LM148
 4332 056d 17        		.byte	0x17
 4333 056e 00        		.byte	0x0
 4334 056f 05        		.uleb128 0x5
 4335 0570 02        		.byte	0x2
 4336 0571 0000 0000 		.long	.LM149
 4337 0575 15        		.byte	0x15
 4338 0576 00        		.byte	0x0
 4339 0577 05        		.uleb128 0x5
 4340 0578 02        		.byte	0x2
 4341 0579 0000 0000 		.long	.LM150
 4342 057d 16        		.byte	0x16
 4343 057e 00        		.byte	0x0
 4344 057f 05        		.uleb128 0x5
 4345 0580 02        		.byte	0x2
 4346 0581 0000 0000 		.long	.LM151
 4347 0585 17        		.byte	0x17
 4348 0586 00        		.byte	0x0
 4349 0587 05        		.uleb128 0x5
 4350 0588 02        		.byte	0x2
 4351 0589 0000 0000 		.long	.LM152
 4352 058d 16        		.byte	0x16
 4353 058e 00        		.byte	0x0
 4354 058f 05        		.uleb128 0x5
 4355 0590 02        		.byte	0x2
 4356 0591 0000 0000 		.long	.LM153
 4357 0595 15        		.byte	0x15
 4358 0596 00        		.byte	0x0
 4359 0597 05        		.uleb128 0x5
 4360 0598 02        		.byte	0x2
 4361 0599 0000 0000 		.long	.LM154
 4362 059d 15        		.byte	0x15
 4363 059e 00        		.byte	0x0
 4364 059f 05        		.uleb128 0x5
 4365 05a0 02        		.byte	0x2
 4366 05a1 0000 0000 		.long	.LM155
 4367 05a5 15        		.byte	0x15
 4368 05a6 00        		.byte	0x0
 4369 05a7 05        		.uleb128 0x5
 4370 05a8 02        		.byte	0x2
 4371 05a9 0000 0000 		.long	.LM156
 4372 05ad 16        		.byte	0x16
 4373 05ae 00        		.byte	0x0
 4374 05af 05        		.uleb128 0x5
 4375 05b0 02        		.byte	0x2
 4376 05b1 0000 0000 		.long	.LM157
 4377 05b5 15        		.byte	0x15
 4378 05b6 00        		.byte	0x0
 4379 05b7 05        		.uleb128 0x5
 4380 05b8 02        		.byte	0x2
 4381 05b9 0000 0000 		.long	.LM158
 4382 05bd 15        		.byte	0x15
GAS LISTING C:\Users\ADMINI~1\AppData\Local\Temp/cc7IMSsM.s 			page 79


 4383 05be 00        		.byte	0x0
 4384 05bf 05        		.uleb128 0x5
 4385 05c0 02        		.byte	0x2
 4386 05c1 0000 0000 		.long	.LM159
 4387 05c5 1B        		.byte	0x1b
 4388 05c6 00        		.byte	0x0
 4389 05c7 05        		.uleb128 0x5
 4390 05c8 02        		.byte	0x2
 4391 05c9 0000 0000 		.long	.LM160
 4392 05cd 1F        		.byte	0x1f
 4393 05ce 00        		.byte	0x0
 4394 05cf 05        		.uleb128 0x5
 4395 05d0 02        		.byte	0x2
 4396 05d1 0000 0000 		.long	.LM161
 4397 05d5 18        		.byte	0x18
 4398 05d6 00        		.byte	0x0
 4399 05d7 05        		.uleb128 0x5
 4400 05d8 02        		.byte	0x2
 4401 05d9 0000 0000 		.long	.LM162
 4402 05dd 16        		.byte	0x16
 4403 05de 00        		.byte	0x0
 4404 05df 05        		.uleb128 0x5
 4405 05e0 02        		.byte	0x2
 4406 05e1 0000 0000 		.long	.LM163
 4407 05e5 15        		.byte	0x15
 4408 05e6 00        		.byte	0x0
 4409 05e7 05        		.uleb128 0x5
 4410 05e8 02        		.byte	0x2
 4411 05e9 0000 0000 		.long	.LM164
 4412 05ed 16        		.byte	0x16
 4413 05ee 00        		.byte	0x0
 4414 05ef 05        		.uleb128 0x5
 4415 05f0 02        		.byte	0x2
 4416 05f1 0000 0000 		.long	.LM165
 4417 05f5 16        		.byte	0x16
 4418 05f6 00        		.byte	0x0
 4419 05f7 05        		.uleb128 0x5
 4420 05f8 02        		.byte	0x2
 4421 05f9 0000 0000 		.long	.Letext0
 4422 05fd 00        		.byte	0x0
 4423 05fe 01        		.uleb128 0x1
 4424 05ff 01        		.byte	0x1
 4425               	.LELT0:
 4426 0600 1600 0000 		.section	.debug_str,"MS",@progbits,1
 4426      0200 1000 
 4426      0000 0101 
 4426      FB0E 0A00 
 4426      0101 0101 
 4427               	.LASF134:
 4428 0000 4B45 595F 		.string	"KEY_LSHIFT"
 4428      4C53 4849 
 4428      4654 00
 4429               	.LASF233:
 4430 000b 7072 6576 		.string	"prev"
 4430      00
 4431               	.LASF263:
 4432 0010 7265 706F 		.string	"reportIndex"
GAS LISTING C:\Users\ADMINI~1\AppData\Local\Temp/cc7IMSsM.s 			page 80


 4432      7274 496E 
 4432      6465 7800 
 4433               	.LASF212:
 4434 001c 7573 6252 		.string	"usbRequest"
 4434      6571 7565 
 4434      7374 00
 4435               	.LASF86:
 4436 0027 4B45 595F 		.string	"KEY_SLASH"
 4436      534C 4153 
 4436      4800 
 4437               	.LASF24:
 4438 0031 4B45 595F 		.string	"KEY_LALT_HANJA"
 4438      4C41 4C54 
 4438      5F48 414E 
 4438      4A41 00
 4439               	.LASF157:
 4440 0040 4B45 595F 		.string	"KEY_PLAY"
 4440      504C 4159 
 4440      00
 4441               	.LASF243:
 4442 0049 7573 6246 		.string	"usbFunctionWrite"
 4442      756E 6374 
 4442      696F 6E57 
 4442      7269 7465 
 4442      00
 4443               	.LASF165:
 4444 005a 4B45 595F 		.string	"KEY_REC"
 4444      5245 4300 
 4445               	.LASF113:
 4446 0062 4B45 595F 		.string	"KEY_NUMLOCK"
 4446      4E55 4D4C 
 4446      4F43 4B00 
 4447               	.LASF22:
 4448 006e 4B45 595F 		.string	"KEY_RALT_HANJA"
 4448      5241 4C54 
 4448      5F48 414E 
 4448      4A41 00
 4449               	.LASF19:
 4450 007d 4B45 595F 		.string	"KEY_LSHIFT_HANGLE"
 4450      4C53 4849 
 4450      4654 5F48 
 4450      414E 474C 
 4450      4500 
 4451               	.LASF133:
 4452 008f 4B45 595F 		.string	"KEY_LCTRL"
 4452      4C43 5452 
 4452      4C00 
 4453               	.LASF97:
 4454 0099 4B45 595F 		.string	"KEY_F10"
 4454      4631 3000 
 4455               	.LASF98:
 4456 00a1 4B45 595F 		.string	"KEY_F11"
 4456      4631 3100 
 4457               	.LASF99:
 4458 00a9 4B45 595F 		.string	"KEY_F12"
 4458      4631 3200 
 4459               	.LASF175:
GAS LISTING C:\Users\ADMINI~1\AppData\Local\Temp/cc7IMSsM.s 			page 81


 4460 00b1 4B45 595F 		.string	"KEY_F13"
 4460      4631 3300 
 4461               	.LASF176:
 4462 00b9 4B45 595F 		.string	"KEY_F14"
 4462      4631 3400 
 4463               	.LASF177:
 4464 00c1 4B45 595F 		.string	"KEY_F15"
 4464      4631 3500 
 4465               	.LASF178:
 4466 00c9 4B45 595F 		.string	"KEY_F16"
 4466      4631 3600 
 4467               	.LASF179:
 4468 00d1 4B45 595F 		.string	"KEY_F17"
 4468      4631 3700 
 4469               	.LASF180:
 4470 00d9 4B45 595F 		.string	"KEY_F18"
 4470      4631 3800 
 4471               	.LASF129:
 4472 00e1 4B45 595F 		.string	"KEY_KP_DOT"
 4472      4B50 5F44 
 4472      4F54 00
 4473               	.LASF260:
 4474 00ec 6D6F 646D 		.string	"modmask"
 4474      6173 6B00 
 4475               	.LASF156:
 4476 00f4 4B45 595F 		.string	"KEY_STOP"
 4476      5354 4F50 
 4476      00
 4477               	.LASF223:
 4478 00fd 7265 7476 		.string	"retval"
 4478      616C 00
 4479               	.LASF107:
 4480 0104 4B45 595F 		.string	"KEY_END"
 4480      454E 4400 
 4481               	.LASF6:
 4482 010c 6C6F 6E67 		.string	"long long unsigned int"
 4482      206C 6F6E 
 4482      6720 756E 
 4482      7369 676E 
 4482      6564 2069 
 4483               	.LASF152:
 4484 0123 4B45 595F 		.string	"KEY_WWW_REFRESH"
 4484      5757 575F 
 4484      5245 4652 
 4484      4553 4800 
 4485               	.LASF72:
 4486 0133 4B45 595F 		.string	"KEY_BKSP"
 4486      424B 5350 
 4486      00
 4487               	.LASF106:
 4488 013c 4B45 595F 		.string	"KEY_DEL"
 4488      4445 4C00 
 4489               	.LASF249:
 4490 0144 5F70 7265 		.string	"_prevPressedBuffer"
 4490      7650 7265 
 4490      7373 6564 
 4490      4275 6666 
GAS LISTING C:\Users\ADMINI~1\AppData\Local\Temp/cc7IMSsM.s 			page 82


 4490      6572 00
 4491               	.LASF219:
 4492 0157 636C 6561 		.string	"clearReportBuffer"
 4492      7252 6570 
 4492      6F72 7442 
 4492      7566 6665 
 4492      7200 
 4493               	.LASF238:
 4494 0169 7570 6461 		.string	"updateNeeded"
 4494      7465 4E65 
 4494      6564 6564 
 4494      00
 4495               	.LASF218:
 4496 0176 7573 6252 		.string	"usbRequest_t"
 4496      6571 7565 
 4496      7374 5F74 
 4496      00
 4497               	.LASF155:
 4498 0183 4B45 595F 		.string	"KEY_PREV_TRK"
 4498      5052 4556 
 4498      5F54 524B 
 4498      00
 4499               	.LASF81:
 4500 0190 4B45 595F 		.string	"KEY_COLON"
 4500      434F 4C4F 
 4500      4E00 
 4501               	.LASF17:
 4502 019a 4B45 595F 		.string	"KEY_RSHIFT_HANGLE"
 4502      5253 4849 
 4502      4654 5F48 
 4502      414E 474C 
 4502      4500 
 4503               	.LASF143:
 4504 01ac 4B45 595F 		.string	"KEY_POWER"
 4504      504F 5745 
 4504      5200 
 4505               	.LASF13:
 4506 01b6 4B45 595F 		.string	"KEY_FN_HANGLE"
 4506      464E 5F48 
 4506      414E 474C 
 4506      4500 
 4507               	.LASF161:
 4508 01c4 4B45 595F 		.string	"KEY_MEDIA"
 4508      4D45 4449 
 4508      4100 
 4509               	.LASF7:
 4510 01ce 6C6F 6E67 		.string	"long long int"
 4510      206C 6F6E 
 4510      6720 696E 
 4510      7400 
 4511               	.LASF1:
 4512 01dc 7369 676E 		.string	"signed char"
 4512      6564 2063 
 4512      6861 7200 
 4513               	.LASF116:
 4514 01e8 4B45 595F 		.string	"KEY_KP_MINUS"
 4514      4B50 5F4D 
GAS LISTING C:\Users\ADMINI~1\AppData\Local\Temp/cc7IMSsM.s 			page 83


 4514      494E 5553 
 4514      00
 4515               	.LASF222:
 4516 01f5 7849 7344 		.string	"xIsDown"
 4516      6F77 6E00 
 4517               	.LASF224:
 4518 01fd 674B 6579 		.string	"gKeyidxMulti"
 4518      6964 784D 
 4518      756C 7469 
 4518      00
 4519               	.LASF159:
 4520 020a 4B45 595F 		.string	"KEY_VOL_UP"
 4520      564F 4C5F 
 4520      5550 00
 4521               	.LASF254:
 4522 0215 6B65 7963 		.string	"keycode_USB_multimedia"
 4522      6F64 655F 
 4522      5553 425F 
 4522      6D75 6C74 
 4522      696D 6564 
 4523               	.LASF210:
 4524 022c 7573 6257 		.string	"usbWord_t"
 4524      6F72 645F 
 4524      7400 
 4525               	.LASF182:
 4526 0236 4B45 595F 		.string	"KEY_F20"
 4526      4632 3000 
 4527               	.LASF183:
 4528 023e 4B45 595F 		.string	"KEY_F21"
 4528      4632 3100 
 4529               	.LASF78:
 4530 0246 4B45 595F 		.string	"KEY_RBR"
 4530      5242 5200 
 4531               	.LASF185:
 4532 024e 4B45 595F 		.string	"KEY_F23"
 4532      4632 3300 
 4533               	.LASF153:
 4534 0256 4B45 595F 		.string	"KEY_WWW_FAVORITE"
 4534      5757 575F 
 4534      4641 564F 
 4534      5249 5445 
 4534      00
 4535               	.LASF5:
 4536 0267 6C6F 6E67 		.string	"long int"
 4536      2069 6E74 
 4536      00
 4537               	.LASF149:
 4538 0270 4B45 595F 		.string	"KEY_WWW_BACK"
 4538      5757 575F 
 4538      4241 434B 
 4538      00
 4539               	.LASF80:
 4540 027d 4B45 595F 		.string	"KEY_Europe1"
 4540      4575 726F 
 4540      7065 3100 
 4541               	.LASF130:
 4542 0289 4B45 595F 		.string	"KEY_Europe2"
GAS LISTING C:\Users\ADMINI~1\AppData\Local\Temp/cc7IMSsM.s 			page 84


 4542      4575 726F 
 4542      7065 3200 
 4543               	.LASF114:
 4544 0295 4B45 595F 		.string	"KEY_KP_SLASH"
 4544      4B50 5F53 
 4544      4C41 5348 
 4544      00
 4545               	.LASF109:
 4546 02a2 4B45 595F 		.string	"KEY_RIGHT"
 4546      5249 4748 
 4546      5400 
 4547               	.LASF198:
 4548 02ac 4B45 595F 		.string	"KEY_LANG3"
 4548      4C41 4E47 
 4548      3300 
 4549               	.LASF199:
 4550 02b6 4B45 595F 		.string	"KEY_LANG4"
 4550      4C41 4E47 
 4550      3400 
 4551               	.LASF253:
 4552 02c0 494E 5445 		.string	"INTERFACE"
 4552      5246 4143 
 4552      4500 
 4553               	.LASF200:
 4554 02ca 4B45 595F 		.string	"KEY_LANG5"
 4554      4C41 4E47 
 4554      3500 
 4555               	.LASF247:
 4556 02d4 6578 7065 		.string	"expectReport"
 4556      6374 5265 
 4556      706F 7274 
 4556      00
 4557               	.LASF201:
 4558 02e1 4B45 595F 		.string	"KEY_LANG6"
 4558      4C41 4E47 
 4558      3600 
 4559               	.LASF202:
 4560 02eb 4B45 595F 		.string	"KEY_LANG7"
 4560      4C41 4E47 
 4560      3700 
 4561               	.LASF83:
 4562 02f5 4B45 595F 		.string	"KEY_HASH"
 4562      4841 5348 
 4562      00
 4563               	.LASF139:
 4564 02fe 4B45 595F 		.string	"KEY_RALT"
 4564      5241 4C54 
 4564      00
 4565               	.LASF11:
 4566 0307 7569 6E74 		.string	"uint16_t"
 4566      3136 5F74 
 4566      00
 4567               	.LASF204:
 4568 0310 4B45 595F 		.string	"KEY_LANG9"
 4568      4C41 4E47 
 4568      3900 
 4569               	.LASF25:
GAS LISTING C:\Users\ADMINI~1\AppData\Local\Temp/cc7IMSsM.s 			page 85


 4570 031a 4B45 595F 		.string	"KEY_RCTRL_HANGLE"
 4570      5243 5452 
 4570      4C5F 4841 
 4570      4E47 4C45 
 4570      00
 4571               	.LASF206:
 4572 032b 6275 6666 		.string	"buffer"
 4572      6572 00
 4573               	.LASF228:
 4574 0332 7363 616E 		.string	"scanMacroUsb"
 4574      4D61 6372 
 4574      6F55 7362 
 4574      00
 4575               	.LASF226:
 4576 033f 5F5F 7265 		.string	"__result"
 4576      7375 6C74 
 4576      00
 4577               	.LASF170:
 4578 0348 4B45 595F 		.string	"KEY_extend"
 4578      6578 7465 
 4578      6E64 00
 4579               	.LASF77:
 4580 0353 4B45 595F 		.string	"KEY_LBR"
 4580      4C42 5200 
 4581               	.LASF239:
 4582 035b 6964 6C65 		.string	"idleCounter"
 4582      436F 756E 
 4582      7465 7200 
 4583               	.LASF16:
 4584 0367 4B45 595F 		.string	"KEY_FN2_HANJA"
 4584      464E 325F 
 4584      4841 4E4A 
 4584      4100 
 4585               	.LASF211:
 4586 0375 7573 6254 		.string	"usbTxStatus"
 4586      7853 7461 
 4586      7475 7300 
 4587               	.LASF227:
 4588 0381 6D61 6B65 		.string	"makeReportBuffer"
 4588      5265 706F 
 4588      7274 4275 
 4588      6666 6572 
 4588      00
 4589               	.LASF213:
 4590 0392 626D 5265 		.string	"bmRequestType"
 4590      7175 6573 
 4590      7454 7970 
 4590      6500 
 4591               	.LASF265:
 4592 03a0 474E 5520 		.string	"GNU C 4.3.3"
 4592      4320 342E 
 4592      332E 3300 
 4593               	.LASF100:
 4594 03ac 4B45 595F 		.string	"KEY_PRNSCR"
 4594      5052 4E53 
 4594      4352 00
 4595               	.LASF108:
GAS LISTING C:\Users\ADMINI~1\AppData\Local\Temp/cc7IMSsM.s 			page 86


 4596 03b7 4B45 595F 		.string	"KEY_PGDN"
 4596      5047 444E 
 4596      00
 4597               	.LASF140:
 4598 03c0 4B45 595F 		.string	"KEY_RGUI"
 4598      5247 5549 
 4598      00
 4599               	.LASF148:
 4600 03c9 4B45 595F 		.string	"KEY_WWW_HOME"
 4600      5757 575F 
 4600      484F 4D45 
 4600      00
 4601               	.LASF20:
 4602 03d6 4B45 595F 		.string	"KEY_LSHIFT_HANJA"
 4602      4C53 4849 
 4602      4654 5F48 
 4602      414E 4A41 
 4602      00
 4603               	.LASF8:
 4604 03e7 756E 7369 		.string	"unsigned int"
 4604      676E 6564 
 4604      2069 6E74 
 4604      00
 4605               	.LASF246:
 4606 03f4 7072 6F74 		.string	"protocolVer"
 4606      6F63 6F6C 
 4606      5665 7200 
 4607               	.LASF229:
 4608 0400 6749 6478 		.string	"gIdx"
 4608      00
 4609               	.LASF215:
 4610 0405 7756 616C 		.string	"wValue"
 4610      7565 00
 4611               	.LASF138:
 4612 040c 4B45 595F 		.string	"KEY_RSHIFT"
 4612      5253 4849 
 4612      4654 00
 4613               	.LASF46:
 4614 0417 4B45 595F 		.string	"KEY_M"
 4614      4D00 
 4615               	.LASF235:
 4616 041d 6B65 796D 		.string	"keymap"
 4616      6170 00
 4617               	.LASF101:
 4618 0424 4B45 595F 		.string	"KEY_SCRLCK"
 4618      5343 524C 
 4618      434B 00
 4619               	.LASF4:
 4620 042f 6C6F 6E67 		.string	"long unsigned int"
 4620      2075 6E73 
 4620      6967 6E65 
 4620      6420 696E 
 4620      7400 
 4621               	.LASF172:
 4622 0441 4B45 595F 		.string	"KEY_HANGLE"
 4622      4841 4E47 
 4622      4C45 00
GAS LISTING C:\Users\ADMINI~1\AppData\Local\Temp/cc7IMSsM.s 			page 87


 4623               	.LASF82:
 4624 044c 4B45 595F 		.string	"KEY_QUOTE"
 4624      5155 4F54 
 4624      4500 
 4625               	.LASF245:
 4626 0456 6964 6C65 		.string	"idleRate"
 4626      5261 7465 
 4626      00
 4627               	.LASF30:
 4628 045f 4B45 595F 		.string	"KEY_NONE"
 4628      4E4F 4E45 
 4628      00
 4629               	.LASF118:
 4630 0468 4B45 595F 		.string	"KEY_KP_ENTER"
 4630      4B50 5F45 
 4630      4E54 4552 
 4630      00
 4631               	.LASF56:
 4632 0475 4B45 595F 		.string	"KEY_W"
 4632      5700 
 4633               	.LASF103:
 4634 047b 4B45 595F 		.string	"KEY_INSERT"
 4634      494E 5345 
 4634      5254 00
 4635               	.LASF242:
 4636 0486 6461 7461 		.string	"data"
 4636      00
 4637               	.LASF117:
 4638 048b 4B45 595F 		.string	"KEY_KP_PLUS"
 4638      4B50 5F50 
 4638      4C55 5300 
 4639               	.LASF2:
 4640 0497 7368 6F72 		.string	"short unsigned int"
 4640      7420 756E 
 4640      7369 676E 
 4640      6564 2069 
 4640      6E74 00
 4641               	.LASF266:
 4642 04aa 7573 626D 		.string	"usbmain.c"
 4642      6169 6E2E 
 4642      6300 
 4643               	.LASF268:
 4644 04b4 7573 6257 		.string	"usbWord"
 4644      6F72 6400 
 4645               	.LASF87:
 4646 04bc 4B45 595F 		.string	"KEY_CAPS"
 4646      4341 5053 
 4646      00
 4647               	.LASF264:
 4648 04c5 5F69 734D 		.string	"_isMultimediaPressed"
 4648      756C 7469 
 4648      6D65 6469 
 4648      6150 7265 
 4648      7373 6564 
 4649               	.LASF261:
 4650 04da 7072 6576 		.string	"prevMatrix"
 4650      4D61 7472 
GAS LISTING C:\Users\ADMINI~1\AppData\Local\Temp/cc7IMSsM.s 			page 88


 4650      6978 00
 4651               	.LASF85:
 4652 04e5 4B45 595F 		.string	"KEY_DOT"
 4652      444F 5400 
 4653               	.LASF255:
 4654 04ed 6B65 7963 		.string	"keycode_USB_extend"
 4654      6F64 655F 
 4654      5553 425F 
 4654      6578 7465 
 4654      6E64 00
 4655               	.LASF270:
 4656 0500 7573 625F 		.string	"usb_main"
 4656      6D61 696E 
 4656      00
 4657               	.LASF252:
 4658 0509 696E 7465 		.string	"interfaceReady"
 4658      7266 6163 
 4658      6552 6561 
 4658      6479 00
 4659               	.LASF167:
 4660 0518 4B45 595F 		.string	"KEY_MINIMIZE"
 4660      4D49 4E49 
 4660      4D49 5A45 
 4660      00
 4661               	.LASF259:
 4662 0525 6973 4265 		.string	"isBeyondFN"
 4662      796F 6E64 
 4662      464E 00
 4663               	.LASF74:
 4664 0530 4B45 595F 		.string	"KEY_SPACE"
 4664      5350 4143 
 4664      4500 
 4665               	.LASF144:
 4666 053a 4B45 595F 		.string	"KEY_SLEEP"
 4666      534C 4545 
 4666      5000 
 4667               	.LASF244:
 4668 0544 7265 706F 		.string	"reportBuffer"
 4668      7274 4275 
 4668      6666 6572 
 4668      00
 4669               	.LASF221:
 4670 0551 6B65 7969 		.string	"keyidx"
 4670      6478 00
 4671               	.LASF207:
 4672 0558 7573 6254 		.string	"usbTxStatus_t"
 4672      7853 7461 
 4672      7475 735F 
 4672      7400 
 4673               	.LASF169:
 4674 0566 4B45 595F 		.string	"KEY_Multimedia_end"
 4674      4D75 6C74 
 4674      696D 6564 
 4674      6961 5F65 
 4674      6E64 00
 4675               	.LASF33:
 4676 0579 4B45 595F 		.string	"KEY_ErrorUndefined"
GAS LISTING C:\Users\ADMINI~1\AppData\Local\Temp/cc7IMSsM.s 			page 89


 4676      4572 726F 
 4676      7255 6E64 
 4676      6566 696E 
 4676      6564 00
 4677               	.LASF151:
 4678 058c 4B45 595F 		.string	"KEY_WWW_STOP"
 4678      5757 575F 
 4678      5354 4F50 
 4678      00
 4679               	.LASF174:
 4680 0599 4B45 595F 		.string	"KEY_KP_EQUAL"
 4680      4B50 5F45 
 4680      5155 414C 
 4680      00
 4681               	.LASF69:
 4682 05a6 4B45 595F 		.string	"KEY_0"
 4682      3000 
 4683               	.LASF60:
 4684 05ac 4B45 595F 		.string	"KEY_1"
 4684      3100 
 4685               	.LASF61:
 4686 05b2 4B45 595F 		.string	"KEY_2"
 4686      3200 
 4687               	.LASF62:
 4688 05b8 4B45 595F 		.string	"KEY_3"
 4688      3300 
 4689               	.LASF63:
 4690 05be 4B45 595F 		.string	"KEY_4"
 4690      3400 
 4691               	.LASF64:
 4692 05c4 4B45 595F 		.string	"KEY_5"
 4692      3500 
 4693               	.LASF65:
 4694 05ca 4B45 595F 		.string	"KEY_6"
 4694      3600 
 4695               	.LASF66:
 4696 05d0 4B45 595F 		.string	"KEY_7"
 4696      3700 
 4697               	.LASF67:
 4698 05d6 4B45 595F 		.string	"KEY_8"
 4698      3800 
 4699               	.LASF68:
 4700 05dc 4B45 595F 		.string	"KEY_9"
 4700      3900 
 4701               	.LASF75:
 4702 05e2 4B45 595F 		.string	"KEY_MINUS"
 4702      4D49 4E55 
 4702      5300 
 4703               	.LASF158:
 4704 05ec 4B45 595F 		.string	"KEY_MUTE"
 4704      4D55 5445 
 4704      00
 4705               	.LASF145:
 4706 05f5 4B45 595F 		.string	"KEY_WAKE"
 4706      5741 4B45 
 4706      00
 4707               	.LASF34:
GAS LISTING C:\Users\ADMINI~1\AppData\Local\Temp/cc7IMSsM.s 			page 90


 4708 05fe 4B45 595F 		.string	"KEY_A"
 4708      4100 
 4709               	.LASF35:
 4710 0604 4B45 595F 		.string	"KEY_B"
 4710      4200 
 4711               	.LASF36:
 4712 060a 4B45 595F 		.string	"KEY_C"
 4712      4300 
 4713               	.LASF37:
 4714 0610 4B45 595F 		.string	"KEY_D"
 4714      4400 
 4715               	.LASF38:
 4716 0616 4B45 595F 		.string	"KEY_E"
 4716      4500 
 4717               	.LASF39:
 4718 061c 4B45 595F 		.string	"KEY_F"
 4718      4600 
 4719               	.LASF40:
 4720 0622 4B45 595F 		.string	"KEY_G"
 4720      4700 
 4721               	.LASF41:
 4722 0628 4B45 595F 		.string	"KEY_H"
 4722      4800 
 4723               	.LASF42:
 4724 062e 4B45 595F 		.string	"KEY_I"
 4724      4900 
 4725               	.LASF43:
 4726 0634 4B45 595F 		.string	"KEY_J"
 4726      4A00 
 4727               	.LASF44:
 4728 063a 4B45 595F 		.string	"KEY_K"
 4728      4B00 
 4729               	.LASF45:
 4730 0640 4B45 595F 		.string	"KEY_L"
 4730      4C00 
 4731               	.LASF12:
 4732 0646 4B45 595F 		.string	"KEY_dualAction"
 4732      6475 616C 
 4732      4163 7469 
 4732      6F6E 00
 4733               	.LASF47:
 4734 0655 4B45 595F 		.string	"KEY_N"
 4734      4E00 
 4735               	.LASF48:
 4736 065b 4B45 595F 		.string	"KEY_O"
 4736      4F00 
 4737               	.LASF49:
 4738 0661 4B45 595F 		.string	"KEY_P"
 4738      5000 
 4739               	.LASF50:
 4740 0667 4B45 595F 		.string	"KEY_Q"
 4740      5100 
 4741               	.LASF51:
 4742 066d 4B45 595F 		.string	"KEY_R"
 4742      5200 
 4743               	.LASF52:
 4744 0673 4B45 595F 		.string	"KEY_S"
GAS LISTING C:\Users\ADMINI~1\AppData\Local\Temp/cc7IMSsM.s 			page 91


 4744      5300 
 4745               	.LASF53:
 4746 0679 4B45 595F 		.string	"KEY_T"
 4746      5400 
 4747               	.LASF54:
 4748 067f 4B45 595F 		.string	"KEY_U"
 4748      5500 
 4749               	.LASF55:
 4750 0685 4B45 595F 		.string	"KEY_V"
 4750      5600 
 4751               	.LASF29:
 4752 068b 4B45 595F 		.string	"KEY_dualAction_end"
 4752      6475 616C 
 4752      4163 7469 
 4752      6F6E 5F65 
 4752      6E64 00
 4753               	.LASF57:
 4754 069e 4B45 595F 		.string	"KEY_X"
 4754      5800 
 4755               	.LASF58:
 4756 06a4 4B45 595F 		.string	"KEY_Y"
 4756      5900 
 4757               	.LASF59:
 4758 06aa 4B45 595F 		.string	"KEY_Z"
 4758      5A00 
 4759               	.LASF166:
 4760 06b0 4B45 595F 		.string	"KEY_REWIND"
 4760      5245 5749 
 4760      4E44 00
 4761               	.LASF241:
 4762 06bb 7573 6246 		.string	"usbFunctionSetup"
 4762      756E 6374 
 4762      696F 6E53 
 4762      6574 7570 
 4762      00
 4763               	.LASF184:
 4764 06cc 4B45 595F 		.string	"KEY_F22"
 4764      4632 3200 
 4765               	.LASF203:
 4766 06d4 4B45 595F 		.string	"KEY_LANG8"
 4766      4C41 4E47 
 4766      3800 
 4767               	.LASF251:
 4768 06de 696E 7465 		.string	"interfaceCount"
 4768      7266 6163 
 4768      6543 6F75 
 4768      6E74 00
 4769               	.LASF186:
 4770 06ed 4B45 595F 		.string	"KEY_F24"
 4770      4632 3400 
 4771               	.LASF154:
 4772 06f5 4B45 595F 		.string	"KEY_NEXT_TRK"
 4772      4E45 5854 
 4772      5F54 524B 
 4772      00
 4773               	.LASF26:
 4774 0702 4B45 595F 		.string	"KEY_RCTRL_HANJA"
GAS LISTING C:\Users\ADMINI~1\AppData\Local\Temp/cc7IMSsM.s 			page 92


 4774      5243 5452 
 4774      4C5F 4841 
 4774      4E4A 4100 
 4775               	.LASF231:
 4776 0712 674B 6579 		.string	"gKeyidx"
 4776      6964 7800 
 4777               	.LASF28:
 4778 071a 4B45 595F 		.string	"KEY_LCTRL_HANJA"
 4778      4C43 5452 
 4778      4C5F 4841 
 4778      4E4A 4100 
 4779               	.LASF115:
 4780 072a 4B45 595F 		.string	"KEY_KP_AST"
 4780      4B50 5F41 
 4780      5354 00
 4781               	.LASF160:
 4782 0735 4B45 595F 		.string	"KEY_VOL_DOWN"
 4782      564F 4C5F 
 4782      444F 574E 
 4782      00
 4783               	.LASF168:
 4784 0742 4B45 595F 		.string	"KEY_EJECT"
 4784      454A 4543 
 4784      5400 
 4785               	.LASF141:
 4786 074c 4B45 595F 		.string	"KEY_Modifiers_end"
 4786      4D6F 6469 
 4786      6669 6572 
 4786      735F 656E 
 4786      6400 
 4787               	.LASF232:
 4788 075e 7363 616E 		.string	"scanKeyUSB"
 4788      4B65 7955 
 4788      5342 00
 4789               	.LASF0:
 4790 0769 756E 7369 		.string	"unsigned char"
 4790      676E 6564 
 4790      2063 6861 
 4790      7200 
 4791               	.LASF164:
 4792 0777 4B45 595F 		.string	"KEY_SCREENSAVE"
 4792      5343 5245 
 4792      454E 5341 
 4792      5645 00
 4793               	.LASF205:
 4794 0786 4B45 595F 		.string	"KEY_extend_end"
 4794      6578 7465 
 4794      6E64 5F65 
 4794      6E64 00
 4795               	.LASF181:
 4796 0795 4B45 595F 		.string	"KEY_F19"
 4796      4631 3900 
 4797               	.LASF84:
 4798 079d 4B45 595F 		.string	"KEY_COMMA"
 4798      434F 4D4D 
 4798      4100 
 4799               	.LASF27:
GAS LISTING C:\Users\ADMINI~1\AppData\Local\Temp/cc7IMSsM.s 			page 93


 4800 07a7 4B45 595F 		.string	"KEY_LCTRL_HANGLE"
 4800      4C43 5452 
 4800      4C5F 4841 
 4800      4E47 4C45 
 4800      00
 4801               	.LASF216:
 4802 07b8 7749 6E64 		.string	"wIndex"
 4802      6578 00
 4803               	.LASF73:
 4804 07bf 4B45 595F 		.string	"KEY_TAB"
 4804      5441 4200 
 4805               	.LASF220:
 4806 07c7 7072 6570 		.string	"prepareKeyMappingUsb"
 4806      6172 654B 
 4806      6579 4D61 
 4806      7070 696E 
 4806      6755 7362 
 4807               	.LASF3:
 4808 07dc 7368 6F72 		.string	"short int"
 4808      7420 696E 
 4808      7400 
 4809               	.LASF269:
 4810 07e6 6861 734D 		.string	"hasMacroUsb"
 4810      6163 726F 
 4810      5573 6200 
 4811               	.LASF111:
 4812 07f2 4B45 595F 		.string	"KEY_DOWN"
 4812      444F 574E 
 4812      00
 4813               	.LASF23:
 4814 07fb 4B45 595F 		.string	"KEY_LALT_HANGLE"
 4814      4C41 4C54 
 4814      5F48 414E 
 4814      474C 4500 
 4815               	.LASF76:
 4816 080b 4B45 595F 		.string	"KEY_EQUAL"
 4816      4551 5541 
 4816      4C00 
 4817               	.LASF237:
 4818 0815 7072 6576 		.string	"prevModifier"
 4818      4D6F 6469 
 4818      6669 6572 
 4818      00
 4819               	.LASF214:
 4820 0822 6252 6571 		.string	"bRequest"
 4820      7565 7374 
 4820      00
 4821               	.LASF248:
 4822 082b 5F69 7349 		.string	"_isInit"
 4822      6E69 7400 
 4823               	.LASF234:
 4824 0833 674B 6579 		.string	"gKeymapping"
 4824      6D61 7070 
 4824      696E 6700 
 4825               	.LASF262:
 4826 083f 5F70 7265 		.string	"_pressedBuffer"
 4826      7373 6564 
GAS LISTING C:\Users\ADMINI~1\AppData\Local\Temp/cc7IMSsM.s 			page 94


 4826      4275 6666 
 4826      6572 00
 4827               	.LASF18:
 4828 084e 4B45 595F 		.string	"KEY_RSHIFT_HANJA"
 4828      5253 4849 
 4828      4654 5F48 
 4828      414E 4A41 
 4828      00
 4829               	.LASF102:
 4830 085f 4B45 595F 		.string	"KEY_PAUSE"
 4830      5041 5553 
 4830      4500 
 4831               	.LASF119:
 4832 0869 4B45 595F 		.string	"KEY_KP_1"
 4832      4B50 5F31 
 4832      00
 4833               	.LASF120:
 4834 0872 4B45 595F 		.string	"KEY_KP_2"
 4834      4B50 5F32 
 4834      00
 4835               	.LASF121:
 4836 087b 4B45 595F 		.string	"KEY_KP_3"
 4836      4B50 5F33 
 4836      00
 4837               	.LASF105:
 4838 0884 4B45 595F 		.string	"KEY_PGUP"
 4838      5047 5550 
 4838      00
 4839               	.LASF32:
 4840 088d 4B45 595F 		.string	"KEY_POSTFail"
 4840      504F 5354 
 4840      4661 696C 
 4840      00
 4841               	.LASF124:
 4842 089a 4B45 595F 		.string	"KEY_KP_6"
 4842      4B50 5F36 
 4842      00
 4843               	.LASF125:
 4844 08a3 4B45 595F 		.string	"KEY_KP_7"
 4844      4B50 5F37 
 4844      00
 4845               	.LASF126:
 4846 08ac 4B45 595F 		.string	"KEY_KP_8"
 4846      4B50 5F38 
 4846      00
 4847               	.LASF70:
 4848 08b5 4B45 595F 		.string	"KEY_ENTER"
 4848      454E 5445 
 4848      5200 
 4849               	.LASF71:
 4850 08bf 4B45 595F 		.string	"KEY_ESC"
 4850      4553 4300 
 4851               	.LASF15:
 4852 08c7 4B45 595F 		.string	"KEY_FN2_HANGLE"
 4852      464E 325F 
 4852      4841 4E47 
 4852      4C45 00
GAS LISTING C:\Users\ADMINI~1\AppData\Local\Temp/cc7IMSsM.s 			page 95


 4853               	.LASF9:
 4854 08d6 6368 6172 		.string	"char"
 4854      00
 4855               	.LASF171:
 4856 08db 4B45 595F 		.string	"KEY_HANJA"
 4856      4841 4E4A 
 4856      4100 
 4857               	.LASF123:
 4858 08e5 4B45 595F 		.string	"KEY_KP_5"
 4858      4B50 5F35 
 4858      00
 4859               	.LASF209:
 4860 08ee 6279 7465 		.string	"bytes"
 4860      7300 
 4861               	.LASF128:
 4862 08f4 4B45 595F 		.string	"KEY_KP_0"
 4862      4B50 5F30 
 4862      00
 4863               	.LASF127:
 4864 08fd 4B45 595F 		.string	"KEY_KP_9"
 4864      4B50 5F39 
 4864      00
 4865               	.LASF122:
 4866 0906 4B45 595F 		.string	"KEY_KP_4"
 4866      4B50 5F34 
 4866      00
 4867               	.LASF146:
 4868 090f 4B45 595F 		.string	"KEY_EMAIL"
 4868      454D 4149 
 4868      4C00 
 4869               	.LASF258:
 4870 0919 7573 6254 		.string	"usbTxStatus1"
 4870      7853 7461 
 4870      7475 7331 
 4870      00
 4871               	.LASF173:
 4872 0926 4B45 595F 		.string	"KEY_KBD_POWER"
 4872      4B42 445F 
 4872      504F 5745 
 4872      5200 
 4873               	.LASF208:
 4874 0934 776F 7264 		.string	"word"
 4874      00
 4875               	.LASF225:
 4876 0939 5F5F 6164 		.string	"__addr16"
 4876      6472 3136 
 4876      00
 4877               	.LASF137:
 4878 0942 4B45 595F 		.string	"KEY_RCTRL"
 4878      5243 5452 
 4878      4C00 
 4879               	.LASF79:
 4880 094c 4B45 595F 		.string	"KEY_BKSLASH"
 4880      424B 534C 
 4880      4153 4800 
 4881               	.LASF162:
 4882 0958 4B45 595F 		.string	"KEY_CALC"
GAS LISTING C:\Users\ADMINI~1\AppData\Local\Temp/cc7IMSsM.s 			page 96


 4882      4341 4C43 
 4882      00
 4883               	.LASF250:
 4884 0961 5F6E 6565 		.string	"_needRelease"
 4884      6452 656C 
 4884      6561 7365 
 4884      00
 4885               	.LASF189:
 4886 096e 4B45 595F 		.string	"KEY_INT1"
 4886      494E 5431 
 4886      00
 4887               	.LASF190:
 4888 0977 4B45 595F 		.string	"KEY_INT2"
 4888      494E 5432 
 4888      00
 4889               	.LASF191:
 4890 0980 4B45 595F 		.string	"KEY_INT3"
 4890      494E 5433 
 4890      00
 4891               	.LASF192:
 4892 0989 4B45 595F 		.string	"KEY_INT4"
 4892      494E 5434 
 4892      00
 4893               	.LASF193:
 4894 0992 4B45 595F 		.string	"KEY_INT5"
 4894      494E 5435 
 4894      00
 4895               	.LASF194:
 4896 099b 4B45 595F 		.string	"KEY_INT6"
 4896      494E 5436 
 4896      00
 4897               	.LASF195:
 4898 09a4 4B45 595F 		.string	"KEY_INT7"
 4898      494E 5437 
 4898      00
 4899               	.LASF196:
 4900 09ad 4B45 595F 		.string	"KEY_INT8"
 4900      494E 5438 
 4900      00
 4901               	.LASF197:
 4902 09b6 4B45 595F 		.string	"KEY_INT9"
 4902      494E 5439 
 4902      00
 4903               	.LASF230:
 4904 09bf 674C 656E 		.string	"gLen"
 4904      00
 4905               	.LASF135:
 4906 09c4 4B45 595F 		.string	"KEY_LALT"
 4906      4C41 4C54 
 4906      00
 4907               	.LASF14:
 4908 09cd 4B45 595F 		.string	"KEY_FN_HANJA"
 4908      464E 5F48 
 4908      414E 4A41 
 4908      00
 4909               	.LASF89:
 4910 09da 4B45 595F 		.string	"KEY_F2"
GAS LISTING C:\Users\ADMINI~1\AppData\Local\Temp/cc7IMSsM.s 			page 97


 4910      4632 00
 4911               	.LASF90:
 4912 09e1 4B45 595F 		.string	"KEY_F3"
 4912      4633 00
 4913               	.LASF91:
 4914 09e8 4B45 595F 		.string	"KEY_F4"
 4914      4634 00
 4915               	.LASF92:
 4916 09ef 4B45 595F 		.string	"KEY_F5"
 4916      4635 00
 4917               	.LASF93:
 4918 09f6 4B45 595F 		.string	"KEY_F6"
 4918      4636 00
 4919               	.LASF94:
 4920 09fd 4B45 595F 		.string	"KEY_F7"
 4920      4637 00
 4921               	.LASF95:
 4922 0a04 4B45 595F 		.string	"KEY_F8"
 4922      4638 00
 4923               	.LASF10:
 4924 0a0b 7569 6E74 		.string	"uint8_t"
 4924      385F 7400 
 4925               	.LASF104:
 4926 0a13 4B45 595F 		.string	"KEY_HOME"
 4926      484F 4D45 
 4926      00
 4927               	.LASF150:
 4928 0a1c 4B45 595F 		.string	"KEY_WWW_FORWARD"
 4928      5757 575F 
 4928      464F 5257 
 4928      4152 4400 
 4929               	.LASF267:
 4930 0a2c 443A 5C67 		.string	"D:\\git\\ps2avrU\\source"
 4930      6974 5C70 
 4930      7332 6176 
 4930      7255 5C73 
 4930      6F75 7263 
 4931               	.LASF131:
 4932 0a42 4B45 595F 		.string	"KEY_APPS"
 4932      4150 5053 
 4932      00
 4933               	.LASF147:
 4934 0a4b 4B45 595F 		.string	"KEY_WWW_SEARCH"
 4934      5757 575F 
 4934      5345 4152 
 4934      4348 00
 4935               	.LASF112:
 4936 0a5a 4B45 595F 		.string	"KEY_UP"
 4936      5550 00
 4937               	.LASF217:
 4938 0a61 774C 656E 		.string	"wLength"
 4938      6774 6800 
 4939               	.LASF88:
 4940 0a69 4B45 595F 		.string	"KEY_F1"
 4940      4631 00
 4941               	.LASF236:
 4942 0a70 674D 6174 		.string	"gMatrix"
GAS LISTING C:\Users\ADMINI~1\AppData\Local\Temp/cc7IMSsM.s 			page 98


 4942      7269 7800 
 4943               	.LASF163:
 4944 0a78 4B45 595F 		.string	"KEY_MYCOM"
 4944      4D59 434F 
 4944      4D00 
 4945               	.LASF188:
 4946 0a82 4B45 595F 		.string	"KEY_EQUAL_SIGN"
 4946      4551 5541 
 4946      4C5F 5349 
 4946      474E 00
 4947               	.LASF31:
 4948 0a91 4B45 595F 		.string	"KEY_ErrorRollOver"
 4948      4572 726F 
 4948      7252 6F6C 
 4948      6C4F 7665 
 4948      7200 
 4949               	.LASF96:
 4950 0aa3 4B45 595F 		.string	"KEY_F9"
 4950      4639 00
 4951               	.LASF257:
 4952 0aaa 7573 6244 		.string	"usbDescriptorHidReport"
 4952      6573 6372 
 4952      6970 746F 
 4952      7248 6964 
 4952      5265 706F 
 4953               	.LASF240:
 4954 0ac1 696E 6974 		.string	"initInterfaceUsb"
 4954      496E 7465 
 4954      7266 6163 
 4954      6555 7362 
 4954      00
 4955               	.LASF136:
 4956 0ad2 4B45 595F 		.string	"KEY_LGUI"
 4956      4C47 5549 
 4956      00
 4957               	.LASF21:
 4958 0adb 4B45 595F 		.string	"KEY_RALT_HANGLE"
 4958      5241 4C54 
 4958      5F48 414E 
 4958      474C 4500 
 4959               	.LASF256:
 4960 0aeb 7573 624D 		.string	"usbMsgPtr"
 4960      7367 5074 
 4960      7200 
 4961               	.LASF187:
 4962 0af5 4B45 595F 		.string	"KEY_KP_COMMA"
 4962      4B50 5F43 
 4962      4F4D 4D41 
 4962      00
 4963               	.LASF142:
 4964 0b02 4B45 595F 		.string	"KEY_Multimedia"
 4964      4D75 6C74 
 4964      696D 6564 
 4964      6961 00
 4965               	.LASF132:
 4966 0b11 4B45 595F 		.string	"KEY_Modifiers"
 4966      4D6F 6469 
GAS LISTING C:\Users\ADMINI~1\AppData\Local\Temp/cc7IMSsM.s 			page 99


 4966      6669 6572 
 4966      7300 
 4967               	.LASF110:
 4968 0b1f 4B45 595F 		.string	"KEY_LEFT"
 4968      4C45 4654 
 4968      00
 4969               	.global __do_copy_data
 4970               	.global __do_clear_bss
GAS LISTING C:\Users\ADMINI~1\AppData\Local\Temp/cc7IMSsM.s 			page 100


DEFINED SYMBOLS
                            *ABS*:00000000 usbmain.c
C:\Users\ADMINI~1\AppData\Local\Temp/cc7IMSsM.s:2      *ABS*:0000003f __SREG__
C:\Users\ADMINI~1\AppData\Local\Temp/cc7IMSsM.s:3      *ABS*:0000003e __SP_H__
C:\Users\ADMINI~1\AppData\Local\Temp/cc7IMSsM.s:4      *ABS*:0000003d __SP_L__
C:\Users\ADMINI~1\AppData\Local\Temp/cc7IMSsM.s:5      *ABS*:00000034 __CCP__
C:\Users\ADMINI~1\AppData\Local\Temp/cc7IMSsM.s:6      *ABS*:00000000 __tmp_reg__
C:\Users\ADMINI~1\AppData\Local\Temp/cc7IMSsM.s:7      *ABS*:00000001 __zero_reg__
C:\Users\ADMINI~1\AppData\Local\Temp/cc7IMSsM.s:18     .text:00000000 hasMacroUsb
C:\Users\ADMINI~1\AppData\Local\Temp/cc7IMSsM.s:1122   .bss:00000002 _needRelease
C:\Users\ADMINI~1\AppData\Local\Temp/cc7IMSsM.s:45     .text:0000001c clearReportBuffer
C:\Users\ADMINI~1\AppData\Local\Temp/cc7IMSsM.s:1125   .bss:00000005 reportBuffer
C:\Users\ADMINI~1\AppData\Local\Temp/cc7IMSsM.s:68     .text:00000032 prepareKeyMappingUsb
C:\Users\ADMINI~1\AppData\Local\Temp/cc7IMSsM.s:1132   .bss:0000000e _prevPressedBuffer
C:\Users\ADMINI~1\AppData\Local\Temp/cc7IMSsM.s:88     .text:00000042 makeReportBuffer
C:\Users\ADMINI~1\AppData\Local\Temp/cc7IMSsM.s:1120   .bss:00000000 _isMultimediaPressed
                            *COM*:00000001 reportIndex
C:\Users\ADMINI~1\AppData\Local\Temp/cc7IMSsM.s:223    .text:000000d6 scanMacroUsb
C:\Users\ADMINI~1\AppData\Local\Temp/cc7IMSsM.s:362    .text:000001a6 scanKeyUSB
C:\Users\ADMINI~1\AppData\Local\Temp/cc7IMSsM.s:1123   .bss:00000003 prevModifier.2387
C:\Users\ADMINI~1\AppData\Local\Temp/cc7IMSsM.s:693    .text:000003a2 usb_main
C:\Users\ADMINI~1\AppData\Local\Temp/cc7IMSsM.s:1131   .bss:0000000d idleRate
                             .bss:00000001 _isInit
C:\Users\ADMINI~1\AppData\Local\Temp/cc7IMSsM.s:877    .text:000004b0 initInterfaceUsb
C:\Users\ADMINI~1\AppData\Local\Temp/cc7IMSsM.s:896    .text:000004c0 usbFunctionSetup
C:\Users\ADMINI~1\AppData\Local\Temp/cc7IMSsM.s:1124   .bss:00000004 expectReport
C:\Users\ADMINI~1\AppData\Local\Temp/cc7IMSsM.s:1129   .data:00000000 protocolVer
C:\Users\ADMINI~1\AppData\Local\Temp/cc7IMSsM.s:992    .text:00000544 usbFunctionWrite
C:\Users\ADMINI~1\AppData\Local\Temp/cc7IMSsM.s:1029   .progmem.data:00000000 usbDescriptorHidReport

UNDEFINED SYMBOLS
isEmptyM
getDualActionDownKeyIdex
keycode_USB_multimedia
modmask
keycode_USB_extend
popMWithKey
_pressedBuffer
findIndex
memcpy
setCurrentMatrix
getLayer
getCurrentMatrix
prevMatrix
getCurrentKeycode
applyMacro
isBootMapper
trace
wakeUp
applyFN
applyDualActionDown
isKeyMapping
putKeyCode
applyKeyMapping
usbInit
INTERFACE
interfaceReady
GAS LISTING C:\Users\ADMINI~1\AppData\Local\Temp/cc7IMSsM.s 			page 101


interfaceCount
usbPoll
usbTxStatus1
usbSetInterrupt
startKeyMappingOnBoot
countSleep
isBeyondFN
renderLED
setMacroProcessEnd
initFullLEDState
usbMsgPtr
setLEDState
setLEDIndicate
__do_copy_data
__do_clear_bss
