GAS LISTING C:\Users\ADMINI~1\AppData\Local\Temp/ccXldOo9.s 			page 1


   1               		.file	"usbmain.c"
   2               	__SREG__ = 0x3f
   3               	__SP_H__ = 0x3e
   4               	__SP_L__ = 0x3d
   5               	__CCP__  = 0x34
   6               	__tmp_reg__ = 0
   7               	__zero_reg__ = 1
   8               		.section	.debug_abbrev,"",@progbits
   9               	.Ldebug_abbrev0:
  10               		.section	.debug_info,"",@progbits
  11               	.Ldebug_info0:
  12               		.section	.debug_line,"",@progbits
  13               	.Ldebug_line0:
  14               		.text
  15               	.Ltext0:
  16               	.global	hasMacroUsb
  17               		.type	hasMacroUsb, @function
  18               	hasMacroUsb:
  19               	.LFB16:
  20               	.LM1:
  21               	/* prologue: function */
  22               	/* frame size = 0 */
  23               	.LM2:
  24 0000 8091 0000 		lds r24,_needRelease
  25 0004 8823      		tst r24
  26 0006 01F4      		brne .L6
  27               	.L2:
  28 0008 0E94 0000 		call isEmptyM
  29 000c 20E0      		ldi r18,lo8(0)
  30 000e 30E0      		ldi r19,hi8(0)
  31 0010 8823      		tst r24
  32 0012 01F4      		brne .L3
  33               	.L6:
  34 0014 21E0      		ldi r18,lo8(1)
  35 0016 30E0      		ldi r19,hi8(1)
  36               	.L3:
  37               	.LM3:
  38 0018 822F      		mov r24,r18
  39               	/* epilogue start */
  40 001a 0895      		ret
  41               	.LFE16:
  42               		.size	hasMacroUsb, .-hasMacroUsb
  43               	.global	makeReportBuffer
  44               		.type	makeReportBuffer, @function
  45               	makeReportBuffer:
  46               	.LFB12:
  47               	.LM4:
  48               	.LVL0:
  49               	/* prologue: function */
  50               	/* frame size = 0 */
  51               	.LM5:
  52 001c 0E94 0000 		call getDualActionDownKeyIdex
  53               	.LVL1:
  54 0020 982F      		mov r25,r24
  55               	.LVL2:
  56               	.LM6:
  57 0022 853D      		cpi r24,lo8(-43)
GAS LISTING C:\Users\ADMINI~1\AppData\Local\Temp/ccXldOo9.s 			page 2


  58 0024 00F0      		brlo .+2
  59 0026 00C0      		rjmp .L8
  60               	.LVL3:
  61               	.LM7:
  62 0028 8157      		subi r24,lo8(-(-113))
  63               	.LVL4:
  64 002a 8A31      		cpi r24,lo8(26)
  65 002c 00F4      		brsh .L9
  66               	.LBB2:
  67               	.LM8:
  68 002e 81E0      		ldi r24,lo8(1)
  69 0030 8093 0000 		sts _isMultimediaPressed,r24
  70               	.LBB3:
  71               	.LM9:
  72 0034 E92F      		mov r30,r25
  73               	.LVL5:
  74 0036 F0E0      		ldi r31,lo8(0)
  75               	.LVL6:
  76 0038 EE0F      		lsl r30
  77 003a FF1F      		rol r31
  78               	.LVL7:
  79 003c E050      		subi r30,lo8(-(keycode_USB_multimedia-226))
  80 003e F040      		sbci r31,hi8(-(keycode_USB_multimedia-226))
  81               	/* #APP */
  82               	 ;  428 "usbmain.c" 1
  83 0040 2591      		lpm r18, Z+
  84 0042 3491      		lpm r19, Z
  85               		
  86               	 ;  0 "" 2
  87               	.LVL8:
  88               	/* #NOAPP */
  89               	.LBE3:
  90               	.LM10:
  91 0044 82E0      		ldi r24,lo8(2)
  92 0046 8093 0000 		sts reportBuffer,r24
  93               	.LM11:
  94 004a 2093 0000 		sts reportBuffer+1,r18
  95               	.LM12:
  96 004e 3093 0000 		sts reportBuffer+2,r19
  97               	.LVL9:
  98 0052 00C0      		rjmp .L8
  99               	.LVL10:
 100               	.L9:
 101               	.LBE2:
 102               	.LM13:
 103 0054 892F      		mov r24,r25
 104 0056 8756      		subi r24,lo8(-(-103))
 105 0058 8830      		cpi r24,lo8(8)
 106 005a 00F4      		brsh .L10
 107               	.LM14:
 108 005c E92F      		mov r30,r25
 109 005e F0E0      		ldi r31,lo8(0)
 110               	.LVL11:
 111 0060 EE0F      		lsl r30
 112 0062 FF1F      		rol r31
 113               	.LVL12:
 114 0064 E050      		subi r30,lo8(-(modmask-206))
GAS LISTING C:\Users\ADMINI~1\AppData\Local\Temp/ccXldOo9.s 			page 3


 115 0066 F040      		sbci r31,hi8(-(modmask-206))
 116               	.LVL13:
 117 0068 8081      		ld r24,Z
 118 006a 9091 0000 		lds r25,reportBuffer+1
 119 006e 892B      		or r24,r25
 120 0070 8093 0000 		sts reportBuffer+1,r24
 121 0074 00C0      		rjmp .L8
 122               	.LVL14:
 123               	.L10:
 124               	.LM15:
 125 0076 9923      		tst r25
 126 0078 01F0      		breq .L8
 127               	.LM16:
 128 007a 2091 0000 		lds r18,reportIndex
 129 007e 2830      		cpi r18,lo8(8)
 130 0080 00F4      		brsh .L8
 131               	.LM17:
 132 0082 892F      		mov r24,r25
 133 0084 8D58      		subi r24,lo8(-(115))
 134 0086 8230      		cpi r24,lo8(2)
 135 0088 00F4      		brsh .L11
 136               	.LBB4:
 137               	.LM18:
 138 008a E92F      		mov r30,r25
 139               	.LVL15:
 140 008c F0E0      		ldi r31,lo8(0)
 141               	.LVL16:
 142 008e EE0F      		lsl r30
 143 0090 FF1F      		rol r31
 144               	.LVL17:
 145 0092 E050      		subi r30,lo8(-(keycode_USB_extend-282))
 146 0094 F040      		sbci r31,hi8(-(keycode_USB_extend-282))
 147               	/* #APP */
 148               	 ;  451 "usbmain.c" 1
 149 0096 8591      		lpm r24, Z+
 150 0098 9491      		lpm r25, Z
 151               		
 152               	 ;  0 "" 2
 153               	.LVL18:
 154               	/* #NOAPP */
 155               	.LBE4:
 156 009a 982F      		mov r25,r24
 157               	.L11:
 158               	.LM19:
 159 009c E22F      		mov r30,r18
 160               	.LVL19:
 161 009e F0E0      		ldi r31,lo8(0)
 162               	.LVL20:
 163 00a0 E050      		subi r30,lo8(-(reportBuffer))
 164 00a2 F040      		sbci r31,hi8(-(reportBuffer))
 165 00a4 9083      		st Z,r25
 166               	.LM20:
 167 00a6 2F5F      		subi r18,lo8(-(1))
 168 00a8 2093 0000 		sts reportIndex,r18
 169               	.LVL21:
 170               	.L8:
 171               	.LM21:
GAS LISTING C:\Users\ADMINI~1\AppData\Local\Temp/ccXldOo9.s 			page 4


 172 00ac 80E0      		ldi r24,lo8(0)
 173               	.LVL22:
 174               	/* epilogue start */
 175 00ae 0895      		ret
 176               	.LFE12:
 177               		.size	makeReportBuffer, .-makeReportBuffer
 178               	.global	clearReportBuffer
 179               		.type	clearReportBuffer, @function
 180               	clearReportBuffer:
 181               	.LFB13:
 182               	.LM22:
 183               	/* prologue: function */
 184               	/* frame size = 0 */
 185               	.LM23:
 186 00b0 88E0      		ldi r24,lo8(8)
 187 00b2 E0E0      		ldi r30,lo8(reportBuffer)
 188 00b4 F0E0      		ldi r31,hi8(reportBuffer)
 189 00b6 DF01      		movw r26,r30
 190 00b8 1D92      		st X+,__zero_reg__
 191 00ba 8A95      	        dec r24
 192 00bc 01F4      		brne .-6
 193               	.LM24:
 194 00be 81E0      		ldi r24,lo8(1)
 195 00c0 8093 0000 		sts reportBuffer,r24
 196               	/* epilogue start */
 197               	.LM25:
 198 00c4 0895      		ret
 199               	.LFE13:
 200               		.size	clearReportBuffer, .-clearReportBuffer
 201               	.global	scanMacroUsb
 202               		.type	scanMacroUsb, @function
 203               	scanMacroUsb:
 204               	.LFB15:
 205               	.LM26:
 206 00c6 AF92      		push r10
 207 00c8 BF92      		push r11
 208 00ca CF92      		push r12
 209 00cc DF92      		push r13
 210 00ce EF92      		push r14
 211 00d0 FF92      		push r15
 212 00d2 1F93      		push r17
 213 00d4 CF93      		push r28
 214 00d6 DF93      		push r29
 215               	/* prologue: function */
 216               	/* frame size = 0 */
 217               	.LM27:
 218 00d8 0E94 0000 		call isEmptyM
 219 00dc 8823      		tst r24
 220 00de 01F0      		breq .+2
 221 00e0 00C0      		rjmp .L16
 222               	.LBB5:
 223               	.LM28:
 224 00e2 0E94 0000 		call clearReportBuffer
 225               	.LM29:
 226 00e6 0E94 0000 		call popMWithKey
 227               	.LM30:
 228 00ea E0E0      		ldi r30,lo8(_pressedBuffer)
GAS LISTING C:\Users\ADMINI~1\AppData\Local\Temp/ccXldOo9.s 			page 5


 229 00ec F0E0      		ldi r31,hi8(_pressedBuffer)
 230 00ee DF01      		movw r26,r30
 231 00f0 0D90      		ld __tmp_reg__,X+
 232 00f2 0020      		tst __tmp_reg__
 233 00f4 01F4      		brne .-6
 234 00f6 1197      		sbiw r26,1
 235 00f8 AE1B      		sub r26,r30
 236 00fa BF0B      		sbc r27,r31
 237               	.LM31:
 238 00fc 82E0      		ldi r24,lo8(2)
 239 00fe 8093 0000 		sts reportIndex,r24
 240 0102 EF01      		movw r28,r30
 241               	.LM32:
 242 0104 EA2E      		mov r14,r26
 243               	.LVL23:
 244 0106 FF24      		clr r15
 245               	.LVL24:
 246 0108 6F01      		movw r12,r30
 247 010a CE0C      		add r12,r14
 248 010c DF1C      		adc r13,r15
 249               	.LM33:
 250 010e 30E0      		ldi r19,lo8(_prevPressedBuffer)
 251 0110 A32E      		mov r10,r19
 252 0112 30E0      		ldi r19,hi8(_prevPressedBuffer)
 253 0114 B32E      		mov r11,r19
 254 0116 00C0      		rjmp .L17
 255               	.LVL25:
 256               	.L20:
 257               	.LM34:
 258 0118 1881      		ld r17,Y
 259               	.LM35:
 260 011a 812F      		mov r24,r17
 261 011c 8756      		subi r24,lo8(-(-103))
 262 011e 8830      		cpi r24,lo8(8)
 263 0120 00F0      		brlo .L24
 264               	.L18:
 265               	.LM36:
 266 0122 F501      		movw r30,r10
 267 0124 0190      		ld __tmp_reg__,Z+
 268 0126 0020      		tst __tmp_reg__
 269 0128 01F4      		brne .-6
 270 012a 3197      		sbiw r30,1
 271 012c E050      		subi r30,lo8(_prevPressedBuffer)
 272 012e F040      		sbci r31,hi8(_prevPressedBuffer)
 273 0130 80E0      		ldi r24,lo8(_prevPressedBuffer)
 274 0132 90E0      		ldi r25,hi8(_prevPressedBuffer)
 275 0134 6E2F      		mov r22,r30
 276 0136 412F      		mov r20,r17
 277 0138 0E94 0000 		call findIndex
 278               	.LM37:
 279 013c 8F5F      		subi r24,lo8(-1)
 280 013e 9F4F      		sbci r25,hi8(-1)
 281 0140 01F4      		brne .L19
 282               	.L24:
 283               	.LM38:
 284 0142 812F      		mov r24,r17
 285 0144 0E94 0000 		call makeReportBuffer
GAS LISTING C:\Users\ADMINI~1\AppData\Local\Temp/ccXldOo9.s 			page 6


 286               	.L19:
 287 0148 2196      		adiw r28,1
 288               	.L17:
 289               	.LM39:
 290 014a 40E0      		ldi r20,lo8(_pressedBuffer)
 291 014c 50E0      		ldi r21,hi8(_pressedBuffer)
 292 014e CC15      		cp r28,r12
 293 0150 DD05      		cpc r29,r13
 294 0152 01F4      		brne .L20
 295               	.LM40:
 296 0154 81E0      		ldi r24,lo8(1)
 297 0156 8093 0000 		sts _needRelease,r24
 298               	.LM41:
 299 015a 20E0      		ldi r18,lo8(_prevPressedBuffer)
 300 015c 30E0      		ldi r19,hi8(_prevPressedBuffer)
 301 015e F701      		movw r30,r14
 302 0160 3196      		adiw r30,1
 303 0162 C901      		movw r24,r18
 304 0164 BA01      		movw r22,r20
 305 0166 AF01      		movw r20,r30
 306 0168 0E94 0000 		call memcpy
 307 016c 00C0      		rjmp .L22
 308               	.LVL26:
 309               	.L16:
 310               	.LBE5:
 311               	.LM42:
 312 016e 8091 0000 		lds r24,_needRelease
 313 0172 8823      		tst r24
 314 0174 01F0      		breq .L22
 315               	.LM43:
 316 0176 0E94 0000 		call clearReportBuffer
 317               	.LM44:
 318 017a 1092 0000 		sts _needRelease,__zero_reg__
 319               	.LVL27:
 320               	.L22:
 321               	.LM45:
 322 017e 81E0      		ldi r24,lo8(1)
 323               	/* epilogue start */
 324 0180 DF91      		pop r29
 325 0182 CF91      		pop r28
 326 0184 1F91      		pop r17
 327               	.LVL28:
 328 0186 FF90      		pop r15
 329               	.LVL29:
 330 0188 EF90      		pop r14
 331               	.LVL30:
 332 018a DF90      		pop r13
 333 018c CF90      		pop r12
 334 018e BF90      		pop r11
 335 0190 AF90      		pop r10
 336 0192 0895      		ret
 337               	.LFE15:
 338               		.size	scanMacroUsb, .-scanMacroUsb
 339               	.global	scanKeyUSB
 340               		.type	scanKeyUSB, @function
 341               	scanKeyUSB:
 342               	.LFB14:
GAS LISTING C:\Users\ADMINI~1\AppData\Local\Temp/ccXldOo9.s 			page 7


 343               	.LM46:
 344 0194 2F92      		push r2
 345 0196 3F92      		push r3
 346 0198 5F92      		push r5
 347 019a 6F92      		push r6
 348 019c 7F92      		push r7
 349 019e 8F92      		push r8
 350 01a0 9F92      		push r9
 351 01a2 AF92      		push r10
 352 01a4 BF92      		push r11
 353 01a6 CF92      		push r12
 354 01a8 DF92      		push r13
 355 01aa EF92      		push r14
 356 01ac FF92      		push r15
 357 01ae 0F93      		push r16
 358 01b0 1F93      		push r17
 359 01b2 DF93      		push r29
 360 01b4 CF93      		push r28
 361 01b6 0F92      		push __tmp_reg__
 362 01b8 CDB7      		in r28,__SP_L__
 363 01ba DEB7      		in r29,__SP_H__
 364               	/* prologue: function */
 365               	/* frame size = 1 */
 366               	.LM47:
 367 01bc 0E94 0000 		call setCurrentMatrix
 368 01c0 8823      		tst r24
 369 01c2 01F4      		brne .+2
 370 01c4 00C0      		rjmp .L26
 371               	.LM48:
 372 01c6 0E94 0000 		call getLayer
 373 01ca 582E      		mov r5,r24
 374               	.LVL31:
 375               	.LM49:
 376 01cc 82E0      		ldi r24,lo8(2)
 377 01ce 8093 0000 		sts reportIndex,r24
 378               	.LM50:
 379 01d2 0E94 0000 		call clearReportBuffer
 380 01d6 AA24      		clr r10
 381               	.LVL32:
 382 01d8 1982      		std Y+1,__zero_reg__
 383               	.LVL33:
 384 01da CC24      		clr r12
 385 01dc DD24      		clr r13
 386               	.LM51:
 387 01de 41E0      		ldi r20,lo8(1)
 388 01e0 642E      		mov r6,r20
 389 01e2 712C      		mov r7,__zero_reg__
 390 01e4 00C0      		rjmp .L27
 391               	.LVL34:
 392               	.L36:
 393               	.LM52:
 394 01e6 922C      		mov r9,r2
 395               	.LM53:
 396 01e8 F101      		movw r30,r2
 397 01ea E050      		subi r30,lo8(-(prevMatrix))
 398 01ec F040      		sbci r31,hi8(-(prevMatrix))
 399 01ee F080      		ld r15,Z
GAS LISTING C:\Users\ADMINI~1\AppData\Local\Temp/ccXldOo9.s 			page 8


 400               	.LVL35:
 401               	.LM54:
 402 01f0 F101      		movw r30,r2
 403 01f2 E050      		subi r30,lo8(-(currentMatrix))
 404 01f4 F040      		sbci r31,hi8(-(currentMatrix))
 405 01f6 0081      		ld r16,Z
 406 01f8 0821      		and r16,r8
 407               	.LM55:
 408 01fa 852D      		mov r24,r5
 409 01fc 622D      		mov r22,r2
 410 01fe 4B2D      		mov r20,r11
 411 0200 0E94 0000 		call getCurrentKeycode
 412 0204 182F      		mov r17,r24
 413               	.LM56:
 414 0206 0023      		tst r16
 415 0208 01F0      		breq .L28
 416 020a 8823      		tst r24
 417 020c 01F0      		breq .L28
 418               	.LVL36:
 419 020e 0E94 0000 		call applyMacro
 420               	.LVL37:
 421 0212 8823      		tst r24
 422 0214 01F0      		breq .+2
 423 0216 00C0      		rjmp .L26
 424               	.LVL38:
 425               	.L28:
 426               	.LM57:
 427 0218 E82C      		mov r14,r8
 428 021a EF20      		and r14,r15
 429               	.LM58:
 430 021c E016      		cp r14,r16
 431 021e 01F0      		breq .L29
 432 0220 1123      		tst r17
 433 0222 01F4      		brne .+2
 434 0224 00C0      		rjmp .L30
 435               	.LM59:
 436 0226 0023      		tst r16
 437 0228 01F0      		breq .L31
 438               	.LM60:
 439 022a 812F      		mov r24,r17
 440 022c 61E0      		ldi r22,lo8(1)
 441 022e 0E94 0000 		call applyFN
 442 0232 F82E      		mov r15,r24
 443               	.LVL39:
 444               	.LM61:
 445 0234 0E94 0000 		call wakeUp
 446               	.LM62:
 447 0238 8091 0000 		lds r24,dualActionKeyIndex
 448 023c 8823      		tst r24
 449 023e 01F0      		breq .L32
 450 0240 0E94 0000 		call isCanceledDualAction
 451 0244 8823      		tst r24
 452 0246 01F0      		breq .L32
 453               	.LM63:
 454 0248 8091 0000 		lds r24,dualActionKeyIndex
 455 024c 0E94 0000 		call getDualActionDownKeyIdex
 456 0250 0E94 0000 		call makeReportBuffer
GAS LISTING C:\Users\ADMINI~1\AppData\Local\Temp/ccXldOo9.s 			page 9


 457               	.LM64:
 458 0254 1092 0000 		sts dualActionKeyIndex,__zero_reg__
 459 0258 00C0      		rjmp .L32
 460               	.LVL40:
 461               	.L31:
 462               	.LM65:
 463 025a 812F      		mov r24,r17
 464 025c 60E0      		ldi r22,lo8(0)
 465 025e 0E94 0000 		call applyFN
 466 0262 F82E      		mov r15,r24
 467               	.LVL41:
 468               	.LM66:
 469 0264 EE20      		tst r14
 470 0266 01F0      		breq .L33
 471               	.LVL42:
 472               	.L32:
 473 0268 0E94 0000 		call isKeyMapping
 474 026c 8823      		tst r24
 475 026e 01F0      		breq .L33
 476               	.LM67:
 477 0270 0023      		tst r16
 478 0272 01F0      		breq .L34
 479               	.LM68:
 480 0274 812F      		mov r24,r17
 481 0276 6B2D      		mov r22,r11
 482 0278 492D      		mov r20,r9
 483 027a 21E0      		ldi r18,lo8(1)
 484 027c 0E94 0000 		call putKeyCode
 485 0280 81E0      		ldi r24,lo8(1)
 486 0282 8983      		std Y+1,r24
 487               	.LVL43:
 488 0284 00C0      		rjmp .L35
 489               	.L34:
 490               	.LM69:
 491 0286 812F      		mov r24,r17
 492 0288 6B2D      		mov r22,r11
 493 028a 492D      		mov r20,r9
 494 028c 20E0      		ldi r18,lo8(0)
 495 028e 0E94 0000 		call putKeyCode
 496 0292 E1E0      		ldi r30,lo8(1)
 497 0294 E983      		std Y+1,r30
 498               	.LVL44:
 499 0296 00C0      		rjmp .L35
 500               	.L33:
 501               	.LM70:
 502 0298 FF20      		tst r15
 503 029a 01F0      		breq .L35
 504               	.LVL45:
 505               	.L29:
 506               	.LM71:
 507 029c 0023      		tst r16
 508 029e 01F0      		breq .L35
 509               	.LM72:
 510 02a0 812F      		mov r24,r17
 511 02a2 0E94 0000 		call makeReportBuffer
 512 02a6 A82A      		or r10,r24
 513               	.LVL46:
GAS LISTING C:\Users\ADMINI~1\AppData\Local\Temp/ccXldOo9.s 			page 10


 514               	.L35:
 515 02a8 0894      		sec
 516 02aa 211C      		adc r2,__zero_reg__
 517 02ac 311C      		adc r3,__zero_reg__
 518               	.LM73:
 519 02ae F1E1      		ldi r31,lo8(17)
 520 02b0 2F16      		cp r2,r31
 521 02b2 3104      		cpc r3,__zero_reg__
 522 02b4 01F0      		breq .+2
 523 02b6 00C0      		rjmp .L36
 524 02b8 0894      		sec
 525 02ba C11C      		adc r12,__zero_reg__
 526 02bc D11C      		adc r13,__zero_reg__
 527               	.LM74:
 528 02be 88E0      		ldi r24,lo8(8)
 529 02c0 C816      		cp r12,r24
 530 02c2 D104      		cpc r13,__zero_reg__
 531 02c4 01F0      		breq .L37
 532               	.L27:
 533 02c6 BC2C      		mov r11,r12
 534               	.LM75:
 535 02c8 C301      		movw r24,r6
 536 02ca 0C2C      		mov r0,r12
 537 02cc 00C0      		rjmp 2f
 538 02ce 880F      	1:	lsl r24
 539 02d0 991F      		rol r25
 540 02d2 0A94      	2:	dec r0
 541 02d4 02F4      		brpl 1b
 542 02d6 882E      		mov r8,r24
 543 02d8 2224      		clr r2
 544 02da 3324      		clr r3
 545 02dc 00C0      		rjmp .L36
 546               	.L37:
 547               	.LM76:
 548 02de 8091 0000 		lds r24,reportBuffer
 549 02e2 8130      		cpi r24,lo8(1)
 550 02e4 01F4      		brne .L38
 551 02e6 9091 0000 		lds r25,reportBuffer+1
 552 02ea 8091 0000 		lds r24,prevModifier.2327
 553 02ee 9817      		cp r25,r24
 554 02f0 01F0      		breq .L38
 555               	.LM77:
 556 02f2 892F      		mov r24,r25
 557 02f4 0E94 0000 		call applyKeyMapping
 558               	.LM78:
 559 02f8 8091 0000 		lds r24,reportBuffer+1
 560 02fc 8093 0000 		sts prevModifier.2327,r24
 561               	.L38:
 562               	.LM79:
 563 0300 8091 0000 		lds r24,_isMultimediaPressed
 564 0304 8823      		tst r24
 565 0306 01F0      		breq .L39
 566 0308 8091 0000 		lds r24,reportBuffer
 567 030c 8230      		cpi r24,lo8(2)
 568 030e 01F0      		breq .L39
 569               	.LM80:
 570 0310 82E0      		ldi r24,lo8(2)
GAS LISTING C:\Users\ADMINI~1\AppData\Local\Temp/ccXldOo9.s 			page 11


 571 0312 8093 0000 		sts reportBuffer,r24
 572               	.LM81:
 573 0316 1092 0000 		sts reportBuffer+1,__zero_reg__
 574               	.LM82:
 575 031a 1092 0000 		sts reportBuffer+2,__zero_reg__
 576               	.LM83:
 577 031e 1092 0000 		sts _isMultimediaPressed,__zero_reg__
 578               	.L39:
 579 0322 20E0      		ldi r18,lo8(0)
 580 0324 30E0      		ldi r19,hi8(0)
 581               	.L40:
 582               	.LM84:
 583 0326 F901      		movw r30,r18
 584 0328 E050      		subi r30,lo8(-(prevMatrix))
 585 032a F040      		sbci r31,hi8(-(prevMatrix))
 586 032c D901      		movw r26,r18
 587 032e A050      		subi r26,lo8(-(currentMatrix))
 588 0330 B040      		sbci r27,hi8(-(currentMatrix))
 589 0332 8C91      		ld r24,X
 590 0334 8083      		st Z,r24
 591 0336 2F5F      		subi r18,lo8(-(1))
 592 0338 3F4F      		sbci r19,hi8(-(1))
 593               	.LM85:
 594 033a 2131      		cpi r18,17
 595 033c 3105      		cpc r19,__zero_reg__
 596 033e 01F4      		brne .L40
 597               	.LM86:
 598 0340 0E94 0000 		call applyDualAction
 599               	.LM87:
 600 0344 E981      		ldd r30,Y+1
 601 0346 E130      		cpi r30,lo8(1)
 602 0348 01F0      		breq .L26
 603               	.LM88:
 604 034a 8A2D      		mov r24,r10
 605 034c 8160      		ori r24,lo8(1)
 606               	.LVL47:
 607 034e 00C0      		rjmp .L41
 608               	.LVL48:
 609               	.L26:
 610               	.LM89:
 611 0350 80E0      		ldi r24,lo8(0)
 612               	.LVL49:
 613               	.L41:
 614               	.LVL50:
 615               	/* epilogue start */
 616               	.LM90:
 617 0352 0F90      		pop __tmp_reg__
 618 0354 CF91      		pop r28
 619 0356 DF91      		pop r29
 620 0358 1F91      		pop r17
 621               	.LVL51:
 622 035a 0F91      		pop r16
 623               	.LVL52:
 624 035c FF90      		pop r15
 625               	.LVL53:
 626 035e EF90      		pop r14
 627               	.LVL54:
GAS LISTING C:\Users\ADMINI~1\AppData\Local\Temp/ccXldOo9.s 			page 12


 628 0360 DF90      		pop r13
 629 0362 CF90      		pop r12
 630 0364 BF90      		pop r11
 631               	.LVL55:
 632 0366 AF90      		pop r10
 633 0368 9F90      		pop r9
 634               	.LVL56:
 635 036a 8F90      		pop r8
 636 036c 7F90      		pop r7
 637 036e 6F90      		pop r6
 638 0370 5F90      		pop r5
 639               	.LVL57:
 640 0372 3F90      		pop r3
 641 0374 2F90      		pop r2
 642 0376 0895      		ret
 643               	.LVL58:
 644               	.L30:
 645               	.LM91:
 646 0378 FF24      		clr r15
 647 037a F394      		inc r15
 648               	.LVL59:
 649 037c 00C0      		rjmp .L32
 650               	.LFE14:
 651               		.size	scanKeyUSB, .-scanKeyUSB
 652               	.global	usb_main
 653               		.type	usb_main, @function
 654               	usb_main:
 655               	.LFB17:
 656               	.LM92:
 657 037e EF92      		push r14
 658 0380 FF92      		push r15
 659 0382 0F93      		push r16
 660 0384 1F93      		push r17
 661               	/* prologue: function */
 662               	/* frame size = 0 */
 663               	.LM93:
 664 0386 0E94 0000 		call usbInit
 665               	.LM94:
 666               	/* #APP */
 667               	 ;  627 "usbmain.c" 1
 668 038a 7894      		sei
 669               	 ;  0 "" 2
 670               	/* #NOAPP */
 671 038c 00E0      		ldi r16,lo8(0)
 672               	.LVL60:
 673 038e 10E0      		ldi r17,lo8(0)
 674               	.LVL61:
 675               	.LM95:
 676 0390 EE24      		clr r14
 677 0392 E394      		inc r14
 678               	.LVL62:
 679               	.L46:
 680               	.LM96:
 681 0394 8091 0000 		lds r24,INTERFACE
 682 0398 8130      		cpi r24,lo8(1)
 683 039a 01F4      		brne .L47
 684 039c 8091 0000 		lds r24,interfaceReady
GAS LISTING C:\Users\ADMINI~1\AppData\Local\Temp/ccXldOo9.s 			page 13


 685 03a0 8823      		tst r24
 686 03a2 01F4      		brne .L47
 687 03a4 8091 0000 		lds r24,interfaceCount
 688 03a8 9091 0000 		lds r25,(interfaceCount)+1
 689 03ac 0196      		adiw r24,1
 690 03ae 9093 0000 		sts (interfaceCount)+1,r25
 691 03b2 8093 0000 		sts interfaceCount,r24
 692 03b6 0197      		sbiw r24,1
 693 03b8 815D      		subi r24,lo8(2001)
 694 03ba 9740      		sbci r25,hi8(2001)
 695 03bc 04F0      		brlt .L47
 696               	.LM97:
 697 03be 1092 0000 		sts INTERFACE,__zero_reg__
 698               	.LM98:
 699 03c2 8BB7      		in r24,91-32
 700 03c4 8F7B      		andi r24,lo8(-65)
 701 03c6 8BBF      		out 91-32,r24
 702               	/* epilogue start */
 703               	.LM99:
 704 03c8 1F91      		pop r17
 705               	.LVL63:
 706 03ca 0F91      		pop r16
 707               	.LVL64:
 708 03cc FF90      		pop r15
 709               	.LVL65:
 710 03ce EF90      		pop r14
 711 03d0 0895      		ret
 712               	.LVL66:
 713               	.L47:
 714               	.LM100:
 715 03d2 0E94 0000 		call usbPoll
 716               	.LM101:
 717 03d6 0023      		tst r16
 718 03d8 01F4      		brne .L48
 719               	.LM102:
 720 03da 0E94 0000 		call scanKeyUSB
 721 03de 082F      		mov r16,r24
 722               	.LM103:
 723 03e0 08B6      		in __tmp_reg__,88-32
 724 03e2 00FE      		sbrs __tmp_reg__,0
 725 03e4 00C0      		rjmp .L49
 726               	.LM104:
 727 03e6 E8BE      		out 88-32,r14
 728               	.LM105:
 729 03e8 F090 0000 		lds r15,idleRate
 730               	.LVL67:
 731 03ec FF20      		tst r15
 732 03ee 01F0      		breq .L49
 733               	.LM106:
 734 03f0 1530      		cpi r17,lo8(5)
 735 03f2 00F4      		brsh .L50
 736               	.LVL68:
 737 03f4 01E0      		ldi r16,lo8(1)
 738 03f6 00C0      		rjmp .L51
 739               	.L50:
 740               	.LM107:
 741 03f8 5BEF      		ldi r21,lo8(-5)
GAS LISTING C:\Users\ADMINI~1\AppData\Local\Temp/ccXldOo9.s 			page 14


 742 03fa F52E      		mov r15,r21
 743               	.LVL69:
 744 03fc F10E      		add r15,r17
 745 03fe 00C0      		rjmp .L51
 746               	.LVL70:
 747               	.L48:
 748               	.LM108:
 749 0400 0E94 0000 		call scanKeyUSB
 750               	.LVL71:
 751               	.L49:
 752 0404 F12E      		mov r15,r17
 753               	.L51:
 754               	.LM109:
 755 0406 8091 0000 		lds r24,usbTxStatus1
 756 040a 84FF      		sbrs r24,4
 757 040c 00C0      		rjmp .L52
 758               	.LM110:
 759 040e 8091 0000 		lds r24,_isInit
 760 0412 8823      		tst r24
 761 0414 01F0      		breq .L53
 762               	.LM111:
 763 0416 1092 0000 		sts _isInit,__zero_reg__
 764               	.LM112:
 765 041a 0E94 0000 		call clearReportBuffer
 766               	.LM113:
 767 041e 80E0      		ldi r24,lo8(reportBuffer)
 768 0420 90E0      		ldi r25,hi8(reportBuffer)
 769 0422 68E0      		ldi r22,lo8(8)
 770 0424 0E94 0000 		call usbSetInterrupt
 771               	.LM114:
 772 0428 0E94 0000 		call startKeyMappingOnBoot
 773 042c 00C0      		rjmp .L52
 774               	.L53:
 775               	.LM115:
 776 042e 0E94 0000 		call hasMacroUsb
 777 0432 8823      		tst r24
 778 0434 01F0      		breq .L54
 779               	.LM116:
 780 0436 0E94 0000 		call scanMacroUsb
 781               	.LM117:
 782 043a 80E0      		ldi r24,lo8(reportBuffer)
 783 043c 90E0      		ldi r25,hi8(reportBuffer)
 784 043e 68E0      		ldi r22,lo8(8)
 785 0440 0E94 0000 		call usbSetInterrupt
 786 0444 00C0      		rjmp .L52
 787               	.L54:
 788               	.LM118:
 789 0446 0023      		tst r16
 790 0448 01F0      		breq .L52
 791               	.LM119:
 792 044a 8091 0000 		lds r24,reportBuffer
 793 044e 8230      		cpi r24,lo8(2)
 794 0450 01F4      		brne .L55
 795               	.LM120:
 796 0452 80E0      		ldi r24,lo8(reportBuffer)
 797 0454 90E0      		ldi r25,hi8(reportBuffer)
 798 0456 63E0      		ldi r22,lo8(3)
GAS LISTING C:\Users\ADMINI~1\AppData\Local\Temp/ccXldOo9.s 			page 15


 799 0458 00C0      		rjmp .L61
 800               	.L55:
 801               	.LM121:
 802 045a 8130      		cpi r24,lo8(1)
 803 045c 01F4      		brne .L62
 804               	.L56:
 805               	.LM122:
 806 045e 80E0      		ldi r24,lo8(reportBuffer)
 807 0460 90E0      		ldi r25,hi8(reportBuffer)
 808 0462 68E0      		ldi r22,lo8(8)
 809               	.L61:
 810 0464 0E94 0000 		call usbSetInterrupt
 811               	.L62:
 812 0468 00E0      		ldi r16,lo8(0)
 813               	.L52:
 814               	.LM123:
 815 046a 0E94 0000 		call countSleep
 816               	.LM124:
 817 046e 8091 0000 		lds r24,isBeyondFN
 818 0472 0E94 0000 		call renderLED
 819               	.LM125:
 820 0476 0E94 0000 		call hasMacroUsb
 821 047a 8823      		tst r24
 822 047c 01F0      		breq .L57
 823               	.LM126:
 824 047e 80E0      		ldi r24,lo8(0)
 825 0480 00C0      		rjmp .L60
 826               	.L57:
 827               	.LM127:
 828 0482 81E0      		ldi r24,lo8(1)
 829               	.L60:
 830 0484 0E94 0000 		call setMacroProcessEnd
 831               	.LM128:
 832 0488 1F2D      		mov r17,r15
 833 048a 00C0      		rjmp .L46
 834               	.LFE17:
 835               		.size	usb_main, .-usb_main
 836               	.global	prepareKeyMappingUsb
 837               		.type	prepareKeyMappingUsb, @function
 838               	prepareKeyMappingUsb:
 839               	.LFB11:
 840               	.LM129:
 841               	/* prologue: function */
 842               	/* frame size = 0 */
 843               	.LM130:
 844 048c 80E3      		ldi r24,lo8(48)
 845 048e E0E0      		ldi r30,lo8(_prevPressedBuffer)
 846 0490 F0E0      		ldi r31,hi8(_prevPressedBuffer)
 847 0492 DF01      		movw r26,r30
 848 0494 1D92      		st X+,__zero_reg__
 849 0496 8A95      	        dec r24
 850 0498 01F4      		brne .-6
 851               	/* epilogue start */
 852               	.LM131:
 853 049a 0895      		ret
 854               	.LFE11:
 855               		.size	prepareKeyMappingUsb, .-prepareKeyMappingUsb
GAS LISTING C:\Users\ADMINI~1\AppData\Local\Temp/ccXldOo9.s 			page 16


 856               	.global	initInterfaceUsb
 857               		.type	initInterfaceUsb, @function
 858               	initInterfaceUsb:
 859               	.LFB10:
 860               	.LM132:
 861               	/* prologue: function */
 862               	/* frame size = 0 */
 863               	.LM133:
 864 049c 81E0      		ldi r24,lo8(1)
 865 049e 8093 0000 		sts _isInit,r24
 866               	.LM134:
 867 04a2 0E94 0000 		call initFullLEDState
 868               	.LM135:
 869 04a6 0E94 0000 		call wakeUp
 870               	/* epilogue start */
 871               	.LM136:
 872 04aa 0895      		ret
 873               	.LFE10:
 874               		.size	initInterfaceUsb, .-initInterfaceUsb
 875               	.global	usbFunctionSetup
 876               		.type	usbFunctionSetup, @function
 877               	usbFunctionSetup:
 878               	.LFB8:
 879               	.LM137:
 880               	.LVL72:
 881 04ac CF93      		push r28
 882 04ae DF93      		push r29
 883               	/* prologue: function */
 884               	/* frame size = 0 */
 885               	.LM138:
 886 04b0 21E0      		ldi r18,lo8(1)
 887 04b2 2093 0000 		sts interfaceReady,r18
 888               	.LM139:
 889 04b6 EC01      		movw r28,r24
 890               	.LVL73:
 891               	.LM140:
 892 04b8 8091 0000 		lds r24,reportBuffer
 893 04bc 8093 0000 		sts usbMsgPtr,r24
 894 04c0 1092 0000 		sts usbMsgPtr+1,__zero_reg__
 895               	.LM141:
 896 04c4 8881      		ld r24,Y
 897               	.LVL74:
 898 04c6 8076      		andi r24,lo8(96)
 899 04c8 8032      		cpi r24,lo8(32)
 900 04ca 01F4      		brne .L68
 901               	.LM142:
 902 04cc 8981      		ldd r24,Y+1
 903 04ce 8130      		cpi r24,lo8(1)
 904 04d0 01F4      		brne .L69
 905 04d2 88E0      		ldi r24,lo8(8)
 906 04d4 00C0      		rjmp .L70
 907               	.L69:
 908               	.LM143:
 909 04d6 8930      		cpi r24,lo8(9)
 910 04d8 01F4      		brne .L71
 911               	.LM144:
 912 04da 8E81      		ldd r24,Y+6
GAS LISTING C:\Users\ADMINI~1\AppData\Local\Temp/ccXldOo9.s 			page 17


 913 04dc 9F81      		ldd r25,Y+7
 914 04de 0297      		sbiw r24,2
 915 04e0 01F4      		brne .L68
 916               	.LM145:
 917 04e2 2093 0000 		sts expectReport,r18
 918 04e6 8FEF      		ldi r24,lo8(-1)
 919 04e8 00C0      		rjmp .L70
 920               	.L71:
 921               	.LM146:
 922 04ea 8230      		cpi r24,lo8(2)
 923 04ec 01F4      		brne .L72
 924               	.LM147:
 925 04ee 8091 0000 		lds r24,idleRate
 926 04f2 00C0      		rjmp .L76
 927               	.L72:
 928               	.LM148:
 929 04f4 8A30      		cpi r24,lo8(10)
 930 04f6 01F4      		brne .L73
 931               	.LM149:
 932 04f8 0E94 0000 		call initInterfaceUsb
 933               	.LM150:
 934 04fc 8B81      		ldd r24,Y+3
 935 04fe 8093 0000 		sts idleRate,r24
 936 0502 00C0      		rjmp .L68
 937               	.L73:
 938               	.LM151:
 939 0504 8330      		cpi r24,lo8(3)
 940 0506 01F4      		brne .L74
 941               	.LM152:
 942 0508 8B81      		ldd r24,Y+3
 943 050a 8823      		tst r24
 944 050c 01F4      		brne .L68
 945               	.LM153:
 946 050e 1092 0000 		sts protocolVer,__zero_reg__
 947 0512 00C0      		rjmp .L70
 948               	.L74:
 949               	.LM154:
 950 0514 8B30      		cpi r24,lo8(11)
 951 0516 01F4      		brne .L68
 952               	.LM155:
 953 0518 8091 0000 		lds r24,protocolVer
 954               	.L76:
 955 051c 8093 0000 		sts usbMsgPtr,r24
 956 0520 1092 0000 		sts usbMsgPtr+1,__zero_reg__
 957 0524 81E0      		ldi r24,lo8(1)
 958 0526 00C0      		rjmp .L70
 959               	.L68:
 960               	.LM156:
 961 0528 80E0      		ldi r24,lo8(0)
 962               	.L70:
 963               	/* epilogue start */
 964               	.LM157:
 965 052a DF91      		pop r29
 966 052c CF91      		pop r28
 967               	.LVL75:
 968 052e 0895      		ret
 969               	.LFE8:
GAS LISTING C:\Users\ADMINI~1\AppData\Local\Temp/ccXldOo9.s 			page 18


 970               		.size	usbFunctionSetup, .-usbFunctionSetup
 971               	.global	usbFunctionWrite
 972               		.type	usbFunctionWrite, @function
 973               	usbFunctionWrite:
 974               	.LFB9:
 975               	.LM158:
 976               	.LVL76:
 977               	/* prologue: function */
 978               	/* frame size = 0 */
 979 0530 FC01      		movw r30,r24
 980               	.LM159:
 981 0532 8091 0000 		lds r24,expectReport
 982               	.LVL77:
 983 0536 8823      		tst r24
 984 0538 01F0      		breq .L78
 985 053a 6230      		cpi r22,lo8(2)
 986 053c 01F4      		brne .L78
 987 053e 8081      		ld r24,Z
 988 0540 8130      		cpi r24,lo8(1)
 989 0542 01F4      		brne .L78
 990               	.LM160:
 991 0544 8181      		ldd r24,Z+1
 992 0546 0E94 0000 		call setLEDState
 993               	.LVL78:
 994               	.LM161:
 995 054a 0E94 0000 		call setLEDIndicate
 996               	.LVL79:
 997               	.L78:
 998               	.LM162:
 999 054e 1092 0000 		sts expectReport,__zero_reg__
 1000               	.LM163:
 1001 0552 81E0      		ldi r24,lo8(1)
 1002               	/* epilogue start */
 1003 0554 0895      		ret
 1004               	.LFE9:
 1005               		.size	usbFunctionWrite, .-usbFunctionWrite
 1006               	.global	usbDescriptorHidReport
 1007               		.section	.progmem.data,"a",@progbits
 1008               		.type	usbDescriptorHidReport, @object
 1009               		.size	usbDescriptorHidReport, 85
 1010               	usbDescriptorHidReport:
 1011 0000 05        		.byte	5
 1012 0001 01        		.byte	1
 1013 0002 09        		.byte	9
 1014 0003 06        		.byte	6
 1015 0004 A1        		.byte	-95
 1016 0005 01        		.byte	1
 1017 0006 85        		.byte	-123
 1018 0007 01        		.byte	1
 1019 0008 05        		.byte	5
 1020 0009 07        		.byte	7
 1021 000a 19        		.byte	25
 1022 000b E0        		.byte	-32
 1023 000c 29        		.byte	41
 1024 000d E7        		.byte	-25
 1025 000e 15        		.byte	21
 1026 000f 00        		.byte	0
GAS LISTING C:\Users\ADMINI~1\AppData\Local\Temp/ccXldOo9.s 			page 19


 1027 0010 25        		.byte	37
 1028 0011 01        		.byte	1
 1029 0012 75        		.byte	117
 1030 0013 01        		.byte	1
 1031 0014 95        		.byte	-107
 1032 0015 08        		.byte	8
 1033 0016 81        		.byte	-127
 1034 0017 02        		.byte	2
 1035 0018 95        		.byte	-107
 1036 0019 05        		.byte	5
 1037 001a 75        		.byte	117
 1038 001b 01        		.byte	1
 1039 001c 05        		.byte	5
 1040 001d 08        		.byte	8
 1041 001e 19        		.byte	25
 1042 001f 01        		.byte	1
 1043 0020 29        		.byte	41
 1044 0021 05        		.byte	5
 1045 0022 91        		.byte	-111
 1046 0023 02        		.byte	2
 1047 0024 95        		.byte	-107
 1048 0025 01        		.byte	1
 1049 0026 75        		.byte	117
 1050 0027 03        		.byte	3
 1051 0028 91        		.byte	-111
 1052 0029 03        		.byte	3
 1053 002a 95        		.byte	-107
 1054 002b 06        		.byte	6
 1055 002c 75        		.byte	117
 1056 002d 08        		.byte	8
 1057 002e 15        		.byte	21
 1058 002f 00        		.byte	0
 1059 0030 26        		.byte	38
 1060 0031 91        		.byte	-111
 1061 0032 00        		.byte	0
 1062 0033 05        		.byte	5
 1063 0034 07        		.byte	7
 1064 0035 19        		.byte	25
 1065 0036 00        		.byte	0
 1066 0037 29        		.byte	41
 1067 0038 A4        		.byte	-92
 1068 0039 81        		.byte	-127
 1069 003a 00        		.byte	0
 1070 003b C0        		.byte	-64
 1071 003c 05        		.byte	5
 1072 003d 0C        		.byte	12
 1073 003e 09        		.byte	9
 1074 003f 01        		.byte	1
 1075 0040 A1        		.byte	-95
 1076 0041 01        		.byte	1
 1077 0042 85        		.byte	-123
 1078 0043 02        		.byte	2
 1079 0044 19        		.byte	25
 1080 0045 00        		.byte	0
 1081 0046 2A        		.byte	42
 1082 0047 3C        		.byte	60
 1083 0048 02        		.byte	2
GAS LISTING C:\Users\ADMINI~1\AppData\Local\Temp/ccXldOo9.s 			page 20


 1084 0049 15        		.byte	21
 1085 004a 00        		.byte	0
 1086 004b 26        		.byte	38
 1087 004c 3C        		.byte	60
 1088 004d 02        		.byte	2
 1089 004e 95        		.byte	-107
 1090 004f 01        		.byte	1
 1091 0050 75        		.byte	117
 1092 0051 10        		.byte	16
 1093 0052 81        		.byte	-127
 1094 0053 00        		.byte	0
 1095 0054 C0        		.byte	-64
 1096               	.global	_isMultimediaPressed
 1097               	.global	_isMultimediaPressed
 1098               		.section .bss
 1099               		.type	_isMultimediaPressed, @object
 1100               		.size	_isMultimediaPressed, 1
 1101               	_isMultimediaPressed:
 1102 0000 00        		.skip 1,0
 1103               		.lcomm _isInit,1
 1104               		.lcomm _needRelease,1
 1105               		.lcomm prevModifier.2327,1
 1106               		.lcomm expectReport,1
 1107               		.data
 1108               		.type	protocolVer, @object
 1109               		.size	protocolVer, 1
 1110               	protocolVer:
 1111 0000 01        		.byte	1
 1112               		.lcomm reportBuffer,8
 1113               		.lcomm idleRate,1
 1114               		.lcomm _prevPressedBuffer,48
 1115               		.comm reportIndex,1,1
 1116               		.section	.debug_frame,"",@progbits
 1117               	.Lframe0:
 1118 0000 0C00 0000 		.long	.LECIE0-.LSCIE0
 1119               	.LSCIE0:
 1120 0004 FFFF FFFF 		.long	0xffffffff
 1121 0008 01        		.byte	0x1
 1122 0009 00        		.string	""
 1123 000a 01        		.uleb128 0x1
 1124 000b 7F        		.sleb128 -1
 1125 000c 24        		.byte	0x24
 1126 000d 0C        		.byte	0xc
 1127 000e 20        		.uleb128 0x20
 1128 000f 00        		.uleb128 0x0
 1129               		.p2align	2
 1130               	.LECIE0:
 1131               	.LSFDE0:
 1132 0010 0C00 0000 		.long	.LEFDE0-.LASFDE0
 1133               	.LASFDE0:
 1134 0014 0000 0000 		.long	.Lframe0
 1135 0018 0000 0000 		.long	.LFB16
 1136 001c 1C00 0000 		.long	.LFE16-.LFB16
 1137               		.p2align	2
 1138               	.LEFDE0:
 1139               	.LSFDE2:
 1140 0020 0C00 0000 		.long	.LEFDE2-.LASFDE2
GAS LISTING C:\Users\ADMINI~1\AppData\Local\Temp/ccXldOo9.s 			page 21


 1141               	.LASFDE2:
 1142 0024 0000 0000 		.long	.Lframe0
 1143 0028 0000 0000 		.long	.LFB12
 1144 002c 9400 0000 		.long	.LFE12-.LFB12
 1145               		.p2align	2
 1146               	.LEFDE2:
 1147               	.LSFDE4:
 1148 0030 0C00 0000 		.long	.LEFDE4-.LASFDE4
 1149               	.LASFDE4:
 1150 0034 0000 0000 		.long	.Lframe0
 1151 0038 0000 0000 		.long	.LFB13
 1152 003c 1600 0000 		.long	.LFE13-.LFB13
 1153               		.p2align	2
 1154               	.LEFDE4:
 1155               	.LSFDE6:
 1156 0040 0C00 0000 		.long	.LEFDE6-.LASFDE6
 1157               	.LASFDE6:
 1158 0044 0000 0000 		.long	.Lframe0
 1159 0048 0000 0000 		.long	.LFB15
 1160 004c CE00 0000 		.long	.LFE15-.LFB15
 1161               		.p2align	2
 1162               	.LEFDE6:
 1163               	.LSFDE8:
 1164 0050 0C00 0000 		.long	.LEFDE8-.LASFDE8
 1165               	.LASFDE8:
 1166 0054 0000 0000 		.long	.Lframe0
 1167 0058 0000 0000 		.long	.LFB14
 1168 005c EA01 0000 		.long	.LFE14-.LFB14
 1169               		.p2align	2
 1170               	.LEFDE8:
 1171               	.LSFDE10:
 1172 0060 0C00 0000 		.long	.LEFDE10-.LASFDE10
 1173               	.LASFDE10:
 1174 0064 0000 0000 		.long	.Lframe0
 1175 0068 0000 0000 		.long	.LFB17
 1176 006c 0E01 0000 		.long	.LFE17-.LFB17
 1177               		.p2align	2
 1178               	.LEFDE10:
 1179               	.LSFDE12:
 1180 0070 0C00 0000 		.long	.LEFDE12-.LASFDE12
 1181               	.LASFDE12:
 1182 0074 0000 0000 		.long	.Lframe0
 1183 0078 0000 0000 		.long	.LFB11
 1184 007c 1000 0000 		.long	.LFE11-.LFB11
 1185               		.p2align	2
 1186               	.LEFDE12:
 1187               	.LSFDE14:
 1188 0080 0C00 0000 		.long	.LEFDE14-.LASFDE14
 1189               	.LASFDE14:
 1190 0084 0000 0000 		.long	.Lframe0
 1191 0088 0000 0000 		.long	.LFB10
 1192 008c 1000 0000 		.long	.LFE10-.LFB10
 1193               		.p2align	2
 1194               	.LEFDE14:
 1195               	.LSFDE16:
 1196 0090 0C00 0000 		.long	.LEFDE16-.LASFDE16
 1197               	.LASFDE16:
GAS LISTING C:\Users\ADMINI~1\AppData\Local\Temp/ccXldOo9.s 			page 22


 1198 0094 0000 0000 		.long	.Lframe0
 1199 0098 0000 0000 		.long	.LFB8
 1200 009c 8400 0000 		.long	.LFE8-.LFB8
 1201               		.p2align	2
 1202               	.LEFDE16:
 1203               	.LSFDE18:
 1204 00a0 0C00 0000 		.long	.LEFDE18-.LASFDE18
 1205               	.LASFDE18:
 1206 00a4 0000 0000 		.long	.Lframe0
 1207 00a8 0000 0000 		.long	.LFB9
 1208 00ac 2600 0000 		.long	.LFE9-.LFB9
 1209               		.p2align	2
 1210               	.LEFDE18:
 1211               		.text
 1212               	.Letext0:
 1213               		.section	.debug_loc,"",@progbits
 1214               	.Ldebug_loc0:
 1215               	.LLST2:
 1216 0000 1C00 0000 		.long	.LVL0-.Ltext0
 1217 0004 2000 0000 		.long	.LVL1-.Ltext0
 1218 0008 0100      		.word	0x1
 1219 000a 68        		.byte	0x68
 1220 000b 2200 0000 		.long	.LVL2-.Ltext0
 1221 000f 2800 0000 		.long	.LVL3-.Ltext0
 1222 0013 0100      		.word	0x1
 1223 0015 69        		.byte	0x69
 1224 0016 2800 0000 		.long	.LVL3-.Ltext0
 1225 001a 2A00 0000 		.long	.LVL4-.Ltext0
 1226 001e 0100      		.word	0x1
 1227 0020 68        		.byte	0x68
 1228 0021 2A00 0000 		.long	.LVL4-.Ltext0
 1229 0025 6000 0000 		.long	.LVL11-.Ltext0
 1230 0029 0100      		.word	0x1
 1231 002b 69        		.byte	0x69
 1232 002c 6000 0000 		.long	.LVL11-.Ltext0
 1233 0030 7600 0000 		.long	.LVL14-.Ltext0
 1234 0034 0600      		.word	0x6
 1235 0036 6E        		.byte	0x6e
 1236 0037 93        		.byte	0x93
 1237 0038 01        		.uleb128 0x1
 1238 0039 6F        		.byte	0x6f
 1239 003a 93        		.byte	0x93
 1240 003b 01        		.uleb128 0x1
 1241 003c 7600 0000 		.long	.LVL14-.Ltext0
 1242 0040 AC00 0000 		.long	.LVL21-.Ltext0
 1243 0044 0100      		.word	0x1
 1244 0046 69        		.byte	0x69
 1245 0047 AC00 0000 		.long	.LVL21-.Ltext0
 1246 004b B000 0000 		.long	.LFE12-.Ltext0
 1247 004f 0600      		.word	0x6
 1248 0051 69        		.byte	0x69
 1249 0052 93        		.byte	0x93
 1250 0053 01        		.uleb128 0x1
 1251 0054 6F        		.byte	0x6f
 1252 0055 93        		.byte	0x93
 1253 0056 01        		.uleb128 0x1
 1254 0057 0000 0000 		.long	0x0
GAS LISTING C:\Users\ADMINI~1\AppData\Local\Temp/ccXldOo9.s 			page 23


 1255 005b 0000 0000 		.long	0x0
 1256               	.LLST3:
 1257 005f 3800 0000 		.long	.LVL6-.Ltext0
 1258 0063 5400 0000 		.long	.LVL10-.Ltext0
 1259 0067 0600      		.word	0x6
 1260 0069 6E        		.byte	0x6e
 1261 006a 93        		.byte	0x93
 1262 006b 01        		.uleb128 0x1
 1263 006c 6F        		.byte	0x6f
 1264 006d 93        		.byte	0x93
 1265 006e 01        		.uleb128 0x1
 1266 006f AC00 0000 		.long	.LVL21-.Ltext0
 1267 0073 B000 0000 		.long	.LFE12-.Ltext0
 1268 0077 0600      		.word	0x6
 1269 0079 6E        		.byte	0x6e
 1270 007a 93        		.byte	0x93
 1271 007b 01        		.uleb128 0x1
 1272 007c 6F        		.byte	0x6f
 1273 007d 93        		.byte	0x93
 1274 007e 01        		.uleb128 0x1
 1275 007f 0000 0000 		.long	0x0
 1276 0083 0000 0000 		.long	0x0
 1277               	.LLST4:
 1278 0087 4400 0000 		.long	.LVL8-.Ltext0
 1279 008b 5400 0000 		.long	.LVL10-.Ltext0
 1280 008f 0600      		.word	0x6
 1281 0091 62        		.byte	0x62
 1282 0092 93        		.byte	0x93
 1283 0093 01        		.uleb128 0x1
 1284 0094 63        		.byte	0x63
 1285 0095 93        		.byte	0x93
 1286 0096 01        		.uleb128 0x1
 1287 0097 AC00 0000 		.long	.LVL21-.Ltext0
 1288 009b B000 0000 		.long	.LFE12-.Ltext0
 1289 009f 0600      		.word	0x6
 1290 00a1 62        		.byte	0x62
 1291 00a2 93        		.byte	0x93
 1292 00a3 01        		.uleb128 0x1
 1293 00a4 63        		.byte	0x63
 1294 00a5 93        		.byte	0x93
 1295 00a6 01        		.uleb128 0x1
 1296 00a7 0000 0000 		.long	0x0
 1297 00ab 0000 0000 		.long	0x0
 1298               	.LLST5:
 1299 00af 8E00 0000 		.long	.LVL16-.Ltext0
 1300 00b3 9E00 0000 		.long	.LVL19-.Ltext0
 1301 00b7 0600      		.word	0x6
 1302 00b9 6E        		.byte	0x6e
 1303 00ba 93        		.byte	0x93
 1304 00bb 01        		.uleb128 0x1
 1305 00bc 6F        		.byte	0x6f
 1306 00bd 93        		.byte	0x93
 1307 00be 01        		.uleb128 0x1
 1308 00bf 0000 0000 		.long	0x0
 1309 00c3 0000 0000 		.long	0x0
 1310               	.LLST6:
 1311 00c7 9A00 0000 		.long	.LVL18-.Ltext0
GAS LISTING C:\Users\ADMINI~1\AppData\Local\Temp/ccXldOo9.s 			page 24


 1312 00cb AE00 0000 		.long	.LVL22-.Ltext0
 1313 00cf 0600      		.word	0x6
 1314 00d1 68        		.byte	0x68
 1315 00d2 93        		.byte	0x93
 1316 00d3 01        		.uleb128 0x1
 1317 00d4 69        		.byte	0x69
 1318 00d5 93        		.byte	0x93
 1319 00d6 01        		.uleb128 0x1
 1320 00d7 0000 0000 		.long	0x0
 1321 00db 0000 0000 		.long	0x0
 1322               	.LLST9:
 1323 00df 0601 0000 		.long	.LVL23-.Ltext0
 1324 00e3 0801 0000 		.long	.LVL24-.Ltext0
 1325 00e7 0100      		.word	0x1
 1326 00e9 5E        		.byte	0x5e
 1327 00ea 0801 0000 		.long	.LVL24-.Ltext0
 1328 00ee 6E01 0000 		.long	.LVL26-.Ltext0
 1329 00f2 0600      		.word	0x6
 1330 00f4 5E        		.byte	0x5e
 1331 00f5 93        		.byte	0x93
 1332 00f6 01        		.uleb128 0x1
 1333 00f7 5F        		.byte	0x5f
 1334 00f8 93        		.byte	0x93
 1335 00f9 01        		.uleb128 0x1
 1336 00fa 7E01 0000 		.long	.LVL27-.Ltext0
 1337 00fe 8801 0000 		.long	.LVL29-.Ltext0
 1338 0102 0600      		.word	0x6
 1339 0104 5E        		.byte	0x5e
 1340 0105 93        		.byte	0x93
 1341 0106 01        		.uleb128 0x1
 1342 0107 5F        		.byte	0x5f
 1343 0108 93        		.byte	0x93
 1344 0109 01        		.uleb128 0x1
 1345 010a 8801 0000 		.long	.LVL29-.Ltext0
 1346 010e 8A01 0000 		.long	.LVL30-.Ltext0
 1347 0112 0100      		.word	0x1
 1348 0114 5E        		.byte	0x5e
 1349 0115 0000 0000 		.long	0x0
 1350 0119 0000 0000 		.long	0x0
 1351               	.LLST10:
 1352 011d 1801 0000 		.long	.LVL25-.Ltext0
 1353 0121 6E01 0000 		.long	.LVL26-.Ltext0
 1354 0125 0100      		.word	0x1
 1355 0127 61        		.byte	0x61
 1356 0128 7E01 0000 		.long	.LVL27-.Ltext0
 1357 012c 8601 0000 		.long	.LVL28-.Ltext0
 1358 0130 0100      		.word	0x1
 1359 0132 61        		.byte	0x61
 1360 0133 0000 0000 		.long	0x0
 1361 0137 0000 0000 		.long	0x0
 1362               	.LLST12:
 1363 013b D801 0000 		.long	.LVL32-.Ltext0
 1364 013f 4E03 0000 		.long	.LVL47-.Ltext0
 1365 0143 0100      		.word	0x1
 1366 0145 5A        		.byte	0x5a
 1367 0146 4E03 0000 		.long	.LVL47-.Ltext0
 1368 014a 5003 0000 		.long	.LVL48-.Ltext0
GAS LISTING C:\Users\ADMINI~1\AppData\Local\Temp/ccXldOo9.s 			page 25


 1369 014e 0100      		.word	0x1
 1370 0150 68        		.byte	0x68
 1371 0151 5003 0000 		.long	.LVL48-.Ltext0
 1372 0155 5203 0000 		.long	.LVL49-.Ltext0
 1373 0159 0100      		.word	0x1
 1374 015b 5A        		.byte	0x5a
 1375 015c 5203 0000 		.long	.LVL49-.Ltext0
 1376 0160 5203 0000 		.long	.LVL50-.Ltext0
 1377 0164 0100      		.word	0x1
 1378 0166 68        		.byte	0x68
 1379 0167 7803 0000 		.long	.LVL58-.Ltext0
 1380 016b 7E03 0000 		.long	.LFE14-.Ltext0
 1381 016f 0100      		.word	0x1
 1382 0171 5A        		.byte	0x5a
 1383 0172 0000 0000 		.long	0x0
 1384 0176 0000 0000 		.long	0x0
 1385               	.LLST13:
 1386 017a E601 0000 		.long	.LVL34-.Ltext0
 1387 017e 6A03 0000 		.long	.LVL56-.Ltext0
 1388 0182 0100      		.word	0x1
 1389 0184 59        		.byte	0x59
 1390 0185 7803 0000 		.long	.LVL58-.Ltext0
 1391 0189 7E03 0000 		.long	.LFE14-.Ltext0
 1392 018d 0100      		.word	0x1
 1393 018f 59        		.byte	0x59
 1394 0190 0000 0000 		.long	0x0
 1395 0194 0000 0000 		.long	0x0
 1396               	.LLST14:
 1397 0198 E601 0000 		.long	.LVL34-.Ltext0
 1398 019c 6603 0000 		.long	.LVL55-.Ltext0
 1399 01a0 0100      		.word	0x1
 1400 01a2 5B        		.byte	0x5b
 1401 01a3 7803 0000 		.long	.LVL58-.Ltext0
 1402 01a7 7E03 0000 		.long	.LFE14-.Ltext0
 1403 01ab 0100      		.word	0x1
 1404 01ad 5B        		.byte	0x5b
 1405 01ae 0000 0000 		.long	0x0
 1406 01b2 0000 0000 		.long	0x0
 1407               	.LLST15:
 1408 01b6 E601 0000 		.long	.LVL34-.Ltext0
 1409 01ba 6003 0000 		.long	.LVL54-.Ltext0
 1410 01be 0100      		.word	0x1
 1411 01c0 5E        		.byte	0x5e
 1412 01c1 7803 0000 		.long	.LVL58-.Ltext0
 1413 01c5 7E03 0000 		.long	.LFE14-.Ltext0
 1414 01c9 0100      		.word	0x1
 1415 01cb 5E        		.byte	0x5e
 1416 01cc 0000 0000 		.long	0x0
 1417 01d0 0000 0000 		.long	0x0
 1418               	.LLST16:
 1419 01d4 E601 0000 		.long	.LVL34-.Ltext0
 1420 01d8 5C03 0000 		.long	.LVL52-.Ltext0
 1421 01dc 0100      		.word	0x1
 1422 01de 60        		.byte	0x60
 1423 01df 7803 0000 		.long	.LVL58-.Ltext0
 1424 01e3 7E03 0000 		.long	.LFE14-.Ltext0
 1425 01e7 0100      		.word	0x1
GAS LISTING C:\Users\ADMINI~1\AppData\Local\Temp/ccXldOo9.s 			page 26


 1426 01e9 60        		.byte	0x60
 1427 01ea 0000 0000 		.long	0x0
 1428 01ee 0000 0000 		.long	0x0
 1429               	.LLST17:
 1430 01f2 E601 0000 		.long	.LVL34-.Ltext0
 1431 01f6 0E02 0000 		.long	.LVL36-.Ltext0
 1432 01fa 0100      		.word	0x1
 1433 01fc 61        		.byte	0x61
 1434 01fd 0E02 0000 		.long	.LVL36-.Ltext0
 1435 0201 1202 0000 		.long	.LVL37-.Ltext0
 1436 0205 0100      		.word	0x1
 1437 0207 68        		.byte	0x68
 1438 0208 1202 0000 		.long	.LVL37-.Ltext0
 1439 020c 5A03 0000 		.long	.LVL51-.Ltext0
 1440 0210 0100      		.word	0x1
 1441 0212 61        		.byte	0x61
 1442 0213 7803 0000 		.long	.LVL58-.Ltext0
 1443 0217 7E03 0000 		.long	.LFE14-.Ltext0
 1444 021b 0100      		.word	0x1
 1445 021d 61        		.byte	0x61
 1446 021e 0000 0000 		.long	0x0
 1447 0222 0000 0000 		.long	0x0
 1448               	.LLST18:
 1449 0226 E601 0000 		.long	.LVL34-.Ltext0
 1450 022a F001 0000 		.long	.LVL35-.Ltext0
 1451 022e 0100      		.word	0x1
 1452 0230 5F        		.byte	0x5f
 1453 0231 3402 0000 		.long	.LVL39-.Ltext0
 1454 0235 5A02 0000 		.long	.LVL40-.Ltext0
 1455 0239 0100      		.word	0x1
 1456 023b 5F        		.byte	0x5f
 1457 023c 6402 0000 		.long	.LVL41-.Ltext0
 1458 0240 5E03 0000 		.long	.LVL53-.Ltext0
 1459 0244 0100      		.word	0x1
 1460 0246 5F        		.byte	0x5f
 1461 0247 7C03 0000 		.long	.LVL59-.Ltext0
 1462 024b 7E03 0000 		.long	.LFE14-.Ltext0
 1463 024f 0100      		.word	0x1
 1464 0251 5F        		.byte	0x5f
 1465 0252 0000 0000 		.long	0x0
 1466 0256 0000 0000 		.long	0x0
 1467               	.LLST19:
 1468 025a CC01 0000 		.long	.LVL31-.Ltext0
 1469 025e 7203 0000 		.long	.LVL57-.Ltext0
 1470 0262 0100      		.word	0x1
 1471 0264 55        		.byte	0x55
 1472 0265 7803 0000 		.long	.LVL58-.Ltext0
 1473 0269 7E03 0000 		.long	.LFE14-.Ltext0
 1474 026d 0100      		.word	0x1
 1475 026f 55        		.byte	0x55
 1476 0270 0000 0000 		.long	0x0
 1477 0274 0000 0000 		.long	0x0
 1478               	.LLST21:
 1479 0278 8E03 0000 		.long	.LVL60-.Ltext0
 1480 027c CC03 0000 		.long	.LVL64-.Ltext0
 1481 0280 0100      		.word	0x1
 1482 0282 60        		.byte	0x60
GAS LISTING C:\Users\ADMINI~1\AppData\Local\Temp/ccXldOo9.s 			page 27


 1483 0283 D203 0000 		.long	.LVL66-.Ltext0
 1484 0287 8C04 0000 		.long	.LFE17-.Ltext0
 1485 028b 0100      		.word	0x1
 1486 028d 60        		.byte	0x60
 1487 028e 0000 0000 		.long	0x0
 1488 0292 0000 0000 		.long	0x0
 1489               	.LLST22:
 1490 0296 9003 0000 		.long	.LVL61-.Ltext0
 1491 029a CA03 0000 		.long	.LVL63-.Ltext0
 1492 029e 0100      		.word	0x1
 1493 02a0 61        		.byte	0x61
 1494 02a1 CA03 0000 		.long	.LVL63-.Ltext0
 1495 02a5 CE03 0000 		.long	.LVL65-.Ltext0
 1496 02a9 0100      		.word	0x1
 1497 02ab 5F        		.byte	0x5f
 1498 02ac D203 0000 		.long	.LVL66-.Ltext0
 1499 02b0 EC03 0000 		.long	.LVL67-.Ltext0
 1500 02b4 0100      		.word	0x1
 1501 02b6 61        		.byte	0x61
 1502 02b7 EC03 0000 		.long	.LVL67-.Ltext0
 1503 02bb F403 0000 		.long	.LVL68-.Ltext0
 1504 02bf 0100      		.word	0x1
 1505 02c1 5F        		.byte	0x5f
 1506 02c2 F403 0000 		.long	.LVL68-.Ltext0
 1507 02c6 FC03 0000 		.long	.LVL69-.Ltext0
 1508 02ca 0100      		.word	0x1
 1509 02cc 61        		.byte	0x61
 1510 02cd FC03 0000 		.long	.LVL69-.Ltext0
 1511 02d1 0004 0000 		.long	.LVL70-.Ltext0
 1512 02d5 0100      		.word	0x1
 1513 02d7 5F        		.byte	0x5f
 1514 02d8 0004 0000 		.long	.LVL70-.Ltext0
 1515 02dc 0404 0000 		.long	.LVL71-.Ltext0
 1516 02e0 0100      		.word	0x1
 1517 02e2 61        		.byte	0x61
 1518 02e3 0404 0000 		.long	.LVL71-.Ltext0
 1519 02e7 8C04 0000 		.long	.LFE17-.Ltext0
 1520 02eb 0100      		.word	0x1
 1521 02ed 5F        		.byte	0x5f
 1522 02ee 0000 0000 		.long	0x0
 1523 02f2 0000 0000 		.long	0x0
 1524               	.LLST26:
 1525 02f6 AC04 0000 		.long	.LVL72-.Ltext0
 1526 02fa B804 0000 		.long	.LVL73-.Ltext0
 1527 02fe 0600      		.word	0x6
 1528 0300 68        		.byte	0x68
 1529 0301 93        		.byte	0x93
 1530 0302 01        		.uleb128 0x1
 1531 0303 69        		.byte	0x69
 1532 0304 93        		.byte	0x93
 1533 0305 01        		.uleb128 0x1
 1534 0306 0000 0000 		.long	0x0
 1535 030a 0000 0000 		.long	0x0
 1536               	.LLST27:
 1537 030e C604 0000 		.long	.LVL74-.Ltext0
 1538 0312 2E05 0000 		.long	.LVL75-.Ltext0
 1539 0316 0600      		.word	0x6
GAS LISTING C:\Users\ADMINI~1\AppData\Local\Temp/ccXldOo9.s 			page 28


 1540 0318 6C        		.byte	0x6c
 1541 0319 93        		.byte	0x93
 1542 031a 01        		.uleb128 0x1
 1543 031b 6D        		.byte	0x6d
 1544 031c 93        		.byte	0x93
 1545 031d 01        		.uleb128 0x1
 1546 031e 0000 0000 		.long	0x0
 1547 0322 0000 0000 		.long	0x0
 1548               	.LLST29:
 1549 0326 3005 0000 		.long	.LVL76-.Ltext0
 1550 032a 3605 0000 		.long	.LVL77-.Ltext0
 1551 032e 0600      		.word	0x6
 1552 0330 68        		.byte	0x68
 1553 0331 93        		.byte	0x93
 1554 0332 01        		.uleb128 0x1
 1555 0333 69        		.byte	0x69
 1556 0334 93        		.byte	0x93
 1557 0335 01        		.uleb128 0x1
 1558 0336 3605 0000 		.long	.LVL77-.Ltext0
 1559 033a 4A05 0000 		.long	.LVL78-.Ltext0
 1560 033e 0600      		.word	0x6
 1561 0340 6E        		.byte	0x6e
 1562 0341 93        		.byte	0x93
 1563 0342 01        		.uleb128 0x1
 1564 0343 6F        		.byte	0x6f
 1565 0344 93        		.byte	0x93
 1566 0345 01        		.uleb128 0x1
 1567 0346 4E05 0000 		.long	.LVL79-.Ltext0
 1568 034a 5605 0000 		.long	.LFE9-.Ltext0
 1569 034e 0600      		.word	0x6
 1570 0350 6E        		.byte	0x6e
 1571 0351 93        		.byte	0x93
 1572 0352 01        		.uleb128 0x1
 1573 0353 6F        		.byte	0x6f
 1574 0354 93        		.byte	0x93
 1575 0355 01        		.uleb128 0x1
 1576 0356 0000 0000 		.long	0x0
 1577 035a 0000 0000 		.long	0x0
 1578               	.LLST30:
 1579 035e 3005 0000 		.long	.LVL76-.Ltext0
 1580 0362 4A05 0000 		.long	.LVL78-.Ltext0
 1581 0366 0100      		.word	0x1
 1582 0368 66        		.byte	0x66
 1583 0369 4E05 0000 		.long	.LVL79-.Ltext0
 1584 036d 5605 0000 		.long	.LFE9-.Ltext0
 1585 0371 0100      		.word	0x1
 1586 0373 66        		.byte	0x66
 1587 0374 0000 0000 		.long	0x0
 1588 0378 0000 0000 		.long	0x0
 1589               		.section	.debug_info
 1590 0000 6F0A 0000 		.long	0xa6f
 1591 0004 0200      		.word	0x2
 1592 0006 0000 0000 		.long	.Ldebug_abbrev0
 1593 000a 04        		.byte	0x4
 1594 000b 01        		.uleb128 0x1
 1595 000c 0000 0000 		.long	.LASF233
 1596 0010 01        		.byte	0x1
GAS LISTING C:\Users\ADMINI~1\AppData\Local\Temp/ccXldOo9.s 			page 29


 1597 0011 0000 0000 		.long	.LASF234
 1598 0015 0000 0000 		.long	.LASF235
 1599 0019 0000 0000 		.long	.Ltext0
 1600 001d 0000 0000 		.long	.Letext0
 1601 0021 0000 0000 		.long	.Ldebug_line0
 1602 0025 02        		.uleb128 0x2
 1603 0026 01        		.byte	0x1
 1604 0027 08        		.byte	0x8
 1605 0028 0000 0000 		.long	.LASF0
 1606 002c 02        		.uleb128 0x2
 1607 002d 01        		.byte	0x1
 1608 002e 06        		.byte	0x6
 1609 002f 0000 0000 		.long	.LASF1
 1610 0033 02        		.uleb128 0x2
 1611 0034 02        		.byte	0x2
 1612 0035 07        		.byte	0x7
 1613 0036 0000 0000 		.long	.LASF2
 1614 003a 02        		.uleb128 0x2
 1615 003b 02        		.byte	0x2
 1616 003c 05        		.byte	0x5
 1617 003d 0000 0000 		.long	.LASF3
 1618 0041 02        		.uleb128 0x2
 1619 0042 04        		.byte	0x4
 1620 0043 07        		.byte	0x7
 1621 0044 0000 0000 		.long	.LASF4
 1622 0048 02        		.uleb128 0x2
 1623 0049 04        		.byte	0x4
 1624 004a 05        		.byte	0x5
 1625 004b 0000 0000 		.long	.LASF5
 1626 004f 02        		.uleb128 0x2
 1627 0050 08        		.byte	0x8
 1628 0051 07        		.byte	0x7
 1629 0052 0000 0000 		.long	.LASF6
 1630 0056 02        		.uleb128 0x2
 1631 0057 08        		.byte	0x8
 1632 0058 05        		.byte	0x5
 1633 0059 0000 0000 		.long	.LASF7
 1634 005d 02        		.uleb128 0x2
 1635 005e 02        		.byte	0x2
 1636 005f 07        		.byte	0x7
 1637 0060 0000 0000 		.long	.LASF8
 1638 0064 02        		.uleb128 0x2
 1639 0065 01        		.byte	0x1
 1640 0066 06        		.byte	0x6
 1641 0067 0000 0000 		.long	.LASF9
 1642 006b 03        		.uleb128 0x3
 1643 006c 02        		.byte	0x2
 1644 006d 05        		.byte	0x5
 1645 006e 696E 7400 		.string	"int"
 1646 0072 04        		.uleb128 0x4
 1647 0073 0000 0000 		.long	.LASF10
 1648 0077 02        		.byte	0x2
 1649 0078 7A        		.byte	0x7a
 1650 0079 2500 0000 		.long	0x25
 1651 007d 04        		.uleb128 0x4
 1652 007e 0000 0000 		.long	.LASF11
 1653 0082 02        		.byte	0x2
GAS LISTING C:\Users\ADMINI~1\AppData\Local\Temp/ccXldOo9.s 			page 30


 1654 0083 7C        		.byte	0x7c
 1655 0084 5D00 0000 		.long	0x5d
 1656 0088 05        		.uleb128 0x5
 1657 0089 01        		.byte	0x1
 1658 008a 06        		.byte	0x6
 1659 008b 05        		.uleb128 0x5
 1660 008c 01        		.byte	0x1
 1661 008d 08        		.byte	0x8
 1662 008e 06        		.uleb128 0x6
 1663 008f 02        		.byte	0x2
 1664 0090 03        		.byte	0x3
 1665 0091 18        		.byte	0x18
 1666 0092 1501 0000 		.long	0x115
 1667 0096 07        		.uleb128 0x7
 1668 0097 0000 0000 		.long	.LASF12
 1669 009b D501      		.sleb128 213
 1670 009d 07        		.uleb128 0x7
 1671 009e 0000 0000 		.long	.LASF13
 1672 00a2 D601      		.sleb128 214
 1673 00a4 07        		.uleb128 0x7
 1674 00a5 0000 0000 		.long	.LASF14
 1675 00a9 D701      		.sleb128 215
 1676 00ab 07        		.uleb128 0x7
 1677 00ac 0000 0000 		.long	.LASF15
 1678 00b0 D801      		.sleb128 216
 1679 00b2 07        		.uleb128 0x7
 1680 00b3 0000 0000 		.long	.LASF16
 1681 00b7 D901      		.sleb128 217
 1682 00b9 07        		.uleb128 0x7
 1683 00ba 0000 0000 		.long	.LASF17
 1684 00be DA01      		.sleb128 218
 1685 00c0 07        		.uleb128 0x7
 1686 00c1 0000 0000 		.long	.LASF18
 1687 00c5 DB01      		.sleb128 219
 1688 00c7 07        		.uleb128 0x7
 1689 00c8 0000 0000 		.long	.LASF19
 1690 00cc DC01      		.sleb128 220
 1691 00ce 07        		.uleb128 0x7
 1692 00cf 0000 0000 		.long	.LASF20
 1693 00d3 DD01      		.sleb128 221
 1694 00d5 07        		.uleb128 0x7
 1695 00d6 0000 0000 		.long	.LASF21
 1696 00da DE01      		.sleb128 222
 1697 00dc 07        		.uleb128 0x7
 1698 00dd 0000 0000 		.long	.LASF22
 1699 00e1 DF01      		.sleb128 223
 1700 00e3 07        		.uleb128 0x7
 1701 00e4 0000 0000 		.long	.LASF23
 1702 00e8 E001      		.sleb128 224
 1703 00ea 07        		.uleb128 0x7
 1704 00eb 0000 0000 		.long	.LASF24
 1705 00ef E101      		.sleb128 225
 1706 00f1 07        		.uleb128 0x7
 1707 00f2 0000 0000 		.long	.LASF25
 1708 00f6 E201      		.sleb128 226
 1709 00f8 07        		.uleb128 0x7
 1710 00f9 0000 0000 		.long	.LASF26
GAS LISTING C:\Users\ADMINI~1\AppData\Local\Temp/ccXldOo9.s 			page 31


 1711 00fd E301      		.sleb128 227
 1712 00ff 07        		.uleb128 0x7
 1713 0100 0000 0000 		.long	.LASF27
 1714 0104 E401      		.sleb128 228
 1715 0106 07        		.uleb128 0x7
 1716 0107 0000 0000 		.long	.LASF28
 1717 010b E501      		.sleb128 229
 1718 010d 07        		.uleb128 0x7
 1719 010e 0000 0000 		.long	.LASF29
 1720 0112 E601      		.sleb128 230
 1721 0114 00        		.byte	0x0
 1722 0115 06        		.uleb128 0x6
 1723 0116 02        		.byte	0x2
 1724 0117 03        		.byte	0x3
 1725 0118 42        		.byte	0x42
 1726 0119 CE04 0000 		.long	0x4ce
 1727 011d 07        		.uleb128 0x7
 1728 011e 0000 0000 		.long	.LASF30
 1729 0122 00        		.sleb128 0
 1730 0123 07        		.uleb128 0x7
 1731 0124 0000 0000 		.long	.LASF31
 1732 0128 01        		.sleb128 1
 1733 0129 07        		.uleb128 0x7
 1734 012a 0000 0000 		.long	.LASF32
 1735 012e 02        		.sleb128 2
 1736 012f 07        		.uleb128 0x7
 1737 0130 0000 0000 		.long	.LASF33
 1738 0134 03        		.sleb128 3
 1739 0135 07        		.uleb128 0x7
 1740 0136 0000 0000 		.long	.LASF34
 1741 013a 04        		.sleb128 4
 1742 013b 07        		.uleb128 0x7
 1743 013c 0000 0000 		.long	.LASF35
 1744 0140 05        		.sleb128 5
 1745 0141 07        		.uleb128 0x7
 1746 0142 0000 0000 		.long	.LASF36
 1747 0146 06        		.sleb128 6
 1748 0147 07        		.uleb128 0x7
 1749 0148 0000 0000 		.long	.LASF37
 1750 014c 07        		.sleb128 7
 1751 014d 07        		.uleb128 0x7
 1752 014e 0000 0000 		.long	.LASF38
 1753 0152 08        		.sleb128 8
 1754 0153 07        		.uleb128 0x7
 1755 0154 0000 0000 		.long	.LASF39
 1756 0158 09        		.sleb128 9
 1757 0159 07        		.uleb128 0x7
 1758 015a 0000 0000 		.long	.LASF40
 1759 015e 0A        		.sleb128 10
 1760 015f 07        		.uleb128 0x7
 1761 0160 0000 0000 		.long	.LASF41
 1762 0164 0B        		.sleb128 11
 1763 0165 07        		.uleb128 0x7
 1764 0166 0000 0000 		.long	.LASF42
 1765 016a 0C        		.sleb128 12
 1766 016b 07        		.uleb128 0x7
 1767 016c 0000 0000 		.long	.LASF43
GAS LISTING C:\Users\ADMINI~1\AppData\Local\Temp/ccXldOo9.s 			page 32


 1768 0170 0D        		.sleb128 13
 1769 0171 07        		.uleb128 0x7
 1770 0172 0000 0000 		.long	.LASF44
 1771 0176 0E        		.sleb128 14
 1772 0177 07        		.uleb128 0x7
 1773 0178 0000 0000 		.long	.LASF45
 1774 017c 0F        		.sleb128 15
 1775 017d 07        		.uleb128 0x7
 1776 017e 0000 0000 		.long	.LASF46
 1777 0182 10        		.sleb128 16
 1778 0183 07        		.uleb128 0x7
 1779 0184 0000 0000 		.long	.LASF47
 1780 0188 11        		.sleb128 17
 1781 0189 07        		.uleb128 0x7
 1782 018a 0000 0000 		.long	.LASF48
 1783 018e 12        		.sleb128 18
 1784 018f 07        		.uleb128 0x7
 1785 0190 0000 0000 		.long	.LASF49
 1786 0194 13        		.sleb128 19
 1787 0195 07        		.uleb128 0x7
 1788 0196 0000 0000 		.long	.LASF50
 1789 019a 14        		.sleb128 20
 1790 019b 07        		.uleb128 0x7
 1791 019c 0000 0000 		.long	.LASF51
 1792 01a0 15        		.sleb128 21
 1793 01a1 07        		.uleb128 0x7
 1794 01a2 0000 0000 		.long	.LASF52
 1795 01a6 16        		.sleb128 22
 1796 01a7 07        		.uleb128 0x7
 1797 01a8 0000 0000 		.long	.LASF53
 1798 01ac 17        		.sleb128 23
 1799 01ad 07        		.uleb128 0x7
 1800 01ae 0000 0000 		.long	.LASF54
 1801 01b2 18        		.sleb128 24
 1802 01b3 07        		.uleb128 0x7
 1803 01b4 0000 0000 		.long	.LASF55
 1804 01b8 19        		.sleb128 25
 1805 01b9 07        		.uleb128 0x7
 1806 01ba 0000 0000 		.long	.LASF56
 1807 01be 1A        		.sleb128 26
 1808 01bf 07        		.uleb128 0x7
 1809 01c0 0000 0000 		.long	.LASF57
 1810 01c4 1B        		.sleb128 27
 1811 01c5 07        		.uleb128 0x7
 1812 01c6 0000 0000 		.long	.LASF58
 1813 01ca 1C        		.sleb128 28
 1814 01cb 07        		.uleb128 0x7
 1815 01cc 0000 0000 		.long	.LASF59
 1816 01d0 1D        		.sleb128 29
 1817 01d1 07        		.uleb128 0x7
 1818 01d2 0000 0000 		.long	.LASF60
 1819 01d6 1E        		.sleb128 30
 1820 01d7 07        		.uleb128 0x7
 1821 01d8 0000 0000 		.long	.LASF61
 1822 01dc 1F        		.sleb128 31
 1823 01dd 07        		.uleb128 0x7
 1824 01de 0000 0000 		.long	.LASF62
GAS LISTING C:\Users\ADMINI~1\AppData\Local\Temp/ccXldOo9.s 			page 33


 1825 01e2 20        		.sleb128 32
 1826 01e3 07        		.uleb128 0x7
 1827 01e4 0000 0000 		.long	.LASF63
 1828 01e8 21        		.sleb128 33
 1829 01e9 07        		.uleb128 0x7
 1830 01ea 0000 0000 		.long	.LASF64
 1831 01ee 22        		.sleb128 34
 1832 01ef 07        		.uleb128 0x7
 1833 01f0 0000 0000 		.long	.LASF65
 1834 01f4 23        		.sleb128 35
 1835 01f5 07        		.uleb128 0x7
 1836 01f6 0000 0000 		.long	.LASF66
 1837 01fa 24        		.sleb128 36
 1838 01fb 07        		.uleb128 0x7
 1839 01fc 0000 0000 		.long	.LASF67
 1840 0200 25        		.sleb128 37
 1841 0201 07        		.uleb128 0x7
 1842 0202 0000 0000 		.long	.LASF68
 1843 0206 26        		.sleb128 38
 1844 0207 07        		.uleb128 0x7
 1845 0208 0000 0000 		.long	.LASF69
 1846 020c 27        		.sleb128 39
 1847 020d 07        		.uleb128 0x7
 1848 020e 0000 0000 		.long	.LASF70
 1849 0212 28        		.sleb128 40
 1850 0213 07        		.uleb128 0x7
 1851 0214 0000 0000 		.long	.LASF71
 1852 0218 29        		.sleb128 41
 1853 0219 07        		.uleb128 0x7
 1854 021a 0000 0000 		.long	.LASF72
 1855 021e 2A        		.sleb128 42
 1856 021f 07        		.uleb128 0x7
 1857 0220 0000 0000 		.long	.LASF73
 1858 0224 2B        		.sleb128 43
 1859 0225 07        		.uleb128 0x7
 1860 0226 0000 0000 		.long	.LASF74
 1861 022a 2C        		.sleb128 44
 1862 022b 07        		.uleb128 0x7
 1863 022c 0000 0000 		.long	.LASF75
 1864 0230 2D        		.sleb128 45
 1865 0231 07        		.uleb128 0x7
 1866 0232 0000 0000 		.long	.LASF76
 1867 0236 2E        		.sleb128 46
 1868 0237 07        		.uleb128 0x7
 1869 0238 0000 0000 		.long	.LASF77
 1870 023c 2F        		.sleb128 47
 1871 023d 07        		.uleb128 0x7
 1872 023e 0000 0000 		.long	.LASF78
 1873 0242 30        		.sleb128 48
 1874 0243 07        		.uleb128 0x7
 1875 0244 0000 0000 		.long	.LASF79
 1876 0248 31        		.sleb128 49
 1877 0249 07        		.uleb128 0x7
 1878 024a 0000 0000 		.long	.LASF80
 1879 024e 32        		.sleb128 50
 1880 024f 07        		.uleb128 0x7
 1881 0250 0000 0000 		.long	.LASF81
GAS LISTING C:\Users\ADMINI~1\AppData\Local\Temp/ccXldOo9.s 			page 34


 1882 0254 33        		.sleb128 51
 1883 0255 07        		.uleb128 0x7
 1884 0256 0000 0000 		.long	.LASF82
 1885 025a 34        		.sleb128 52
 1886 025b 07        		.uleb128 0x7
 1887 025c 0000 0000 		.long	.LASF83
 1888 0260 35        		.sleb128 53
 1889 0261 07        		.uleb128 0x7
 1890 0262 0000 0000 		.long	.LASF84
 1891 0266 36        		.sleb128 54
 1892 0267 07        		.uleb128 0x7
 1893 0268 0000 0000 		.long	.LASF85
 1894 026c 37        		.sleb128 55
 1895 026d 07        		.uleb128 0x7
 1896 026e 0000 0000 		.long	.LASF86
 1897 0272 38        		.sleb128 56
 1898 0273 07        		.uleb128 0x7
 1899 0274 0000 0000 		.long	.LASF87
 1900 0278 39        		.sleb128 57
 1901 0279 07        		.uleb128 0x7
 1902 027a 0000 0000 		.long	.LASF88
 1903 027e 3A        		.sleb128 58
 1904 027f 07        		.uleb128 0x7
 1905 0280 0000 0000 		.long	.LASF89
 1906 0284 3B        		.sleb128 59
 1907 0285 07        		.uleb128 0x7
 1908 0286 0000 0000 		.long	.LASF90
 1909 028a 3C        		.sleb128 60
 1910 028b 07        		.uleb128 0x7
 1911 028c 0000 0000 		.long	.LASF91
 1912 0290 3D        		.sleb128 61
 1913 0291 07        		.uleb128 0x7
 1914 0292 0000 0000 		.long	.LASF92
 1915 0296 3E        		.sleb128 62
 1916 0297 07        		.uleb128 0x7
 1917 0298 0000 0000 		.long	.LASF93
 1918 029c 3F        		.sleb128 63
 1919 029d 07        		.uleb128 0x7
 1920 029e 0000 0000 		.long	.LASF94
 1921 02a2 C000      		.sleb128 64
 1922 02a4 07        		.uleb128 0x7
 1923 02a5 0000 0000 		.long	.LASF95
 1924 02a9 C100      		.sleb128 65
 1925 02ab 07        		.uleb128 0x7
 1926 02ac 0000 0000 		.long	.LASF96
 1927 02b0 C200      		.sleb128 66
 1928 02b2 07        		.uleb128 0x7
 1929 02b3 0000 0000 		.long	.LASF97
 1930 02b7 C300      		.sleb128 67
 1931 02b9 07        		.uleb128 0x7
 1932 02ba 0000 0000 		.long	.LASF98
 1933 02be C400      		.sleb128 68
 1934 02c0 07        		.uleb128 0x7
 1935 02c1 0000 0000 		.long	.LASF99
 1936 02c5 C500      		.sleb128 69
 1937 02c7 07        		.uleb128 0x7
 1938 02c8 0000 0000 		.long	.LASF100
GAS LISTING C:\Users\ADMINI~1\AppData\Local\Temp/ccXldOo9.s 			page 35


 1939 02cc C600      		.sleb128 70
 1940 02ce 07        		.uleb128 0x7
 1941 02cf 0000 0000 		.long	.LASF101
 1942 02d3 C700      		.sleb128 71
 1943 02d5 07        		.uleb128 0x7
 1944 02d6 0000 0000 		.long	.LASF102
 1945 02da C800      		.sleb128 72
 1946 02dc 07        		.uleb128 0x7
 1947 02dd 0000 0000 		.long	.LASF103
 1948 02e1 C900      		.sleb128 73
 1949 02e3 07        		.uleb128 0x7
 1950 02e4 0000 0000 		.long	.LASF104
 1951 02e8 CA00      		.sleb128 74
 1952 02ea 07        		.uleb128 0x7
 1953 02eb 0000 0000 		.long	.LASF105
 1954 02ef CB00      		.sleb128 75
 1955 02f1 07        		.uleb128 0x7
 1956 02f2 0000 0000 		.long	.LASF106
 1957 02f6 CC00      		.sleb128 76
 1958 02f8 07        		.uleb128 0x7
 1959 02f9 0000 0000 		.long	.LASF107
 1960 02fd CD00      		.sleb128 77
 1961 02ff 07        		.uleb128 0x7
 1962 0300 0000 0000 		.long	.LASF108
 1963 0304 CE00      		.sleb128 78
 1964 0306 07        		.uleb128 0x7
 1965 0307 0000 0000 		.long	.LASF109
 1966 030b CF00      		.sleb128 79
 1967 030d 07        		.uleb128 0x7
 1968 030e 0000 0000 		.long	.LASF110
 1969 0312 D000      		.sleb128 80
 1970 0314 07        		.uleb128 0x7
 1971 0315 0000 0000 		.long	.LASF111
 1972 0319 D100      		.sleb128 81
 1973 031b 07        		.uleb128 0x7
 1974 031c 0000 0000 		.long	.LASF112
 1975 0320 D200      		.sleb128 82
 1976 0322 07        		.uleb128 0x7
 1977 0323 0000 0000 		.long	.LASF113
 1978 0327 D300      		.sleb128 83
 1979 0329 07        		.uleb128 0x7
 1980 032a 0000 0000 		.long	.LASF114
 1981 032e D400      		.sleb128 84
 1982 0330 07        		.uleb128 0x7
 1983 0331 0000 0000 		.long	.LASF115
 1984 0335 D500      		.sleb128 85
 1985 0337 07        		.uleb128 0x7
 1986 0338 0000 0000 		.long	.LASF116
 1987 033c D600      		.sleb128 86
 1988 033e 07        		.uleb128 0x7
 1989 033f 0000 0000 		.long	.LASF117
 1990 0343 D700      		.sleb128 87
 1991 0345 07        		.uleb128 0x7
 1992 0346 0000 0000 		.long	.LASF118
 1993 034a D800      		.sleb128 88
 1994 034c 07        		.uleb128 0x7
 1995 034d 0000 0000 		.long	.LASF119
GAS LISTING C:\Users\ADMINI~1\AppData\Local\Temp/ccXldOo9.s 			page 36


 1996 0351 D900      		.sleb128 89
 1997 0353 07        		.uleb128 0x7
 1998 0354 0000 0000 		.long	.LASF120
 1999 0358 DA00      		.sleb128 90
 2000 035a 07        		.uleb128 0x7
 2001 035b 0000 0000 		.long	.LASF121
 2002 035f DB00      		.sleb128 91
 2003 0361 07        		.uleb128 0x7
 2004 0362 0000 0000 		.long	.LASF122
 2005 0366 DC00      		.sleb128 92
 2006 0368 07        		.uleb128 0x7
 2007 0369 0000 0000 		.long	.LASF123
 2008 036d DD00      		.sleb128 93
 2009 036f 07        		.uleb128 0x7
 2010 0370 0000 0000 		.long	.LASF124
 2011 0374 DE00      		.sleb128 94
 2012 0376 07        		.uleb128 0x7
 2013 0377 0000 0000 		.long	.LASF125
 2014 037b DF00      		.sleb128 95
 2015 037d 07        		.uleb128 0x7
 2016 037e 0000 0000 		.long	.LASF126
 2017 0382 E000      		.sleb128 96
 2018 0384 07        		.uleb128 0x7
 2019 0385 0000 0000 		.long	.LASF127
 2020 0389 E100      		.sleb128 97
 2021 038b 07        		.uleb128 0x7
 2022 038c 0000 0000 		.long	.LASF128
 2023 0390 E200      		.sleb128 98
 2024 0392 07        		.uleb128 0x7
 2025 0393 0000 0000 		.long	.LASF129
 2026 0397 E300      		.sleb128 99
 2027 0399 07        		.uleb128 0x7
 2028 039a 0000 0000 		.long	.LASF130
 2029 039e E400      		.sleb128 100
 2030 03a0 07        		.uleb128 0x7
 2031 03a1 0000 0000 		.long	.LASF131
 2032 03a5 E500      		.sleb128 101
 2033 03a7 07        		.uleb128 0x7
 2034 03a8 0000 0000 		.long	.LASF132
 2035 03ac E600      		.sleb128 102
 2036 03ae 07        		.uleb128 0x7
 2037 03af 0000 0000 		.long	.LASF133
 2038 03b3 E700      		.sleb128 103
 2039 03b5 07        		.uleb128 0x7
 2040 03b6 0000 0000 		.long	.LASF134
 2041 03ba E800      		.sleb128 104
 2042 03bc 07        		.uleb128 0x7
 2043 03bd 0000 0000 		.long	.LASF135
 2044 03c1 E900      		.sleb128 105
 2045 03c3 07        		.uleb128 0x7
 2046 03c4 0000 0000 		.long	.LASF136
 2047 03c8 EA00      		.sleb128 106
 2048 03ca 07        		.uleb128 0x7
 2049 03cb 0000 0000 		.long	.LASF137
 2050 03cf EB00      		.sleb128 107
 2051 03d1 07        		.uleb128 0x7
 2052 03d2 0000 0000 		.long	.LASF138
GAS LISTING C:\Users\ADMINI~1\AppData\Local\Temp/ccXldOo9.s 			page 37


 2053 03d6 EC00      		.sleb128 108
 2054 03d8 07        		.uleb128 0x7
 2055 03d9 0000 0000 		.long	.LASF139
 2056 03dd ED00      		.sleb128 109
 2057 03df 07        		.uleb128 0x7
 2058 03e0 0000 0000 		.long	.LASF140
 2059 03e4 EE00      		.sleb128 110
 2060 03e6 07        		.uleb128 0x7
 2061 03e7 0000 0000 		.long	.LASF141
 2062 03eb EF00      		.sleb128 111
 2063 03ed 07        		.uleb128 0x7
 2064 03ee 0000 0000 		.long	.LASF142
 2065 03f2 F000      		.sleb128 112
 2066 03f4 07        		.uleb128 0x7
 2067 03f5 0000 0000 		.long	.LASF143
 2068 03f9 F100      		.sleb128 113
 2069 03fb 07        		.uleb128 0x7
 2070 03fc 0000 0000 		.long	.LASF144
 2071 0400 F200      		.sleb128 114
 2072 0402 07        		.uleb128 0x7
 2073 0403 0000 0000 		.long	.LASF145
 2074 0407 F300      		.sleb128 115
 2075 0409 07        		.uleb128 0x7
 2076 040a 0000 0000 		.long	.LASF146
 2077 040e F400      		.sleb128 116
 2078 0410 07        		.uleb128 0x7
 2079 0411 0000 0000 		.long	.LASF147
 2080 0415 F500      		.sleb128 117
 2081 0417 07        		.uleb128 0x7
 2082 0418 0000 0000 		.long	.LASF148
 2083 041c F600      		.sleb128 118
 2084 041e 07        		.uleb128 0x7
 2085 041f 0000 0000 		.long	.LASF149
 2086 0423 F700      		.sleb128 119
 2087 0425 07        		.uleb128 0x7
 2088 0426 0000 0000 		.long	.LASF150
 2089 042a F800      		.sleb128 120
 2090 042c 07        		.uleb128 0x7
 2091 042d 0000 0000 		.long	.LASF151
 2092 0431 F900      		.sleb128 121
 2093 0433 07        		.uleb128 0x7
 2094 0434 0000 0000 		.long	.LASF152
 2095 0438 FA00      		.sleb128 122
 2096 043a 07        		.uleb128 0x7
 2097 043b 0000 0000 		.long	.LASF153
 2098 043f FB00      		.sleb128 123
 2099 0441 07        		.uleb128 0x7
 2100 0442 0000 0000 		.long	.LASF154
 2101 0446 FC00      		.sleb128 124
 2102 0448 07        		.uleb128 0x7
 2103 0449 0000 0000 		.long	.LASF155
 2104 044d FD00      		.sleb128 125
 2105 044f 07        		.uleb128 0x7
 2106 0450 0000 0000 		.long	.LASF156
 2107 0454 FE00      		.sleb128 126
 2108 0456 07        		.uleb128 0x7
 2109 0457 0000 0000 		.long	.LASF157
GAS LISTING C:\Users\ADMINI~1\AppData\Local\Temp/ccXldOo9.s 			page 38


 2110 045b FF00      		.sleb128 127
 2111 045d 07        		.uleb128 0x7
 2112 045e 0000 0000 		.long	.LASF158
 2113 0462 8001      		.sleb128 128
 2114 0464 07        		.uleb128 0x7
 2115 0465 0000 0000 		.long	.LASF159
 2116 0469 8101      		.sleb128 129
 2117 046b 07        		.uleb128 0x7
 2118 046c 0000 0000 		.long	.LASF160
 2119 0470 8201      		.sleb128 130
 2120 0472 07        		.uleb128 0x7
 2121 0473 0000 0000 		.long	.LASF161
 2122 0477 8301      		.sleb128 131
 2123 0479 07        		.uleb128 0x7
 2124 047a 0000 0000 		.long	.LASF162
 2125 047e 8401      		.sleb128 132
 2126 0480 07        		.uleb128 0x7
 2127 0481 0000 0000 		.long	.LASF163
 2128 0485 8501      		.sleb128 133
 2129 0487 07        		.uleb128 0x7
 2130 0488 0000 0000 		.long	.LASF164
 2131 048c 8601      		.sleb128 134
 2132 048e 07        		.uleb128 0x7
 2133 048f 0000 0000 		.long	.LASF165
 2134 0493 8701      		.sleb128 135
 2135 0495 07        		.uleb128 0x7
 2136 0496 0000 0000 		.long	.LASF166
 2137 049a 8801      		.sleb128 136
 2138 049c 07        		.uleb128 0x7
 2139 049d 0000 0000 		.long	.LASF167
 2140 04a1 8901      		.sleb128 137
 2141 04a3 07        		.uleb128 0x7
 2142 04a4 0000 0000 		.long	.LASF168
 2143 04a8 8A01      		.sleb128 138
 2144 04aa 07        		.uleb128 0x7
 2145 04ab 0000 0000 		.long	.LASF169
 2146 04af 8B01      		.sleb128 139
 2147 04b1 07        		.uleb128 0x7
 2148 04b2 0000 0000 		.long	.LASF170
 2149 04b6 8C01      		.sleb128 140
 2150 04b8 07        		.uleb128 0x7
 2151 04b9 0000 0000 		.long	.LASF171
 2152 04bd 8D01      		.sleb128 141
 2153 04bf 07        		.uleb128 0x7
 2154 04c0 0000 0000 		.long	.LASF172
 2155 04c4 8E01      		.sleb128 142
 2156 04c6 07        		.uleb128 0x7
 2157 04c7 0000 0000 		.long	.LASF173
 2158 04cb 8F01      		.sleb128 143
 2159 04cd 00        		.byte	0x0
 2160 04ce 08        		.uleb128 0x8
 2161 04cf 0000 0000 		.long	.LASF179
 2162 04d3 0C        		.byte	0xc
 2163 04d4 04        		.byte	0x4
 2164 04d5 9102      		.word	0x291
 2165 04d7 FA04 0000 		.long	0x4fa
 2166 04db 09        		.uleb128 0x9
GAS LISTING C:\Users\ADMINI~1\AppData\Local\Temp/ccXldOo9.s 			page 39


 2167 04dc 6C65 6E00 		.string	"len"
 2168 04e0 04        		.byte	0x4
 2169 04e1 9202      		.word	0x292
 2170 04e3 FA04 0000 		.long	0x4fa
 2171 04e7 02        		.byte	0x2
 2172 04e8 23        		.byte	0x23
 2173 04e9 00        		.uleb128 0x0
 2174 04ea 0A        		.uleb128 0xa
 2175 04eb 0000 0000 		.long	.LASF174
 2176 04ef 04        		.byte	0x4
 2177 04f0 9302      		.word	0x293
 2178 04f2 FF04 0000 		.long	0x4ff
 2179 04f6 02        		.byte	0x2
 2180 04f7 23        		.byte	0x23
 2181 04f8 01        		.uleb128 0x1
 2182 04f9 00        		.byte	0x0
 2183 04fa 0B        		.uleb128 0xb
 2184 04fb 2500 0000 		.long	0x25
 2185 04ff 0C        		.uleb128 0xc
 2186 0500 2500 0000 		.long	0x25
 2187 0504 0F05 0000 		.long	0x50f
 2188 0508 0D        		.uleb128 0xd
 2189 0509 0F05 0000 		.long	0x50f
 2190 050d 0A        		.byte	0xa
 2191 050e 00        		.byte	0x0
 2192 050f 05        		.uleb128 0x5
 2193 0510 02        		.byte	0x2
 2194 0511 07        		.byte	0x7
 2195 0512 0E        		.uleb128 0xe
 2196 0513 0000 0000 		.long	.LASF175
 2197 0517 04        		.byte	0x4
 2198 0518 9402      		.word	0x294
 2199 051a CE04 0000 		.long	0x4ce
 2200 051e 0F        		.uleb128 0xf
 2201 051f 0000 0000 		.long	.LASF236
 2202 0523 02        		.byte	0x2
 2203 0524 04        		.byte	0x4
 2204 0525 9D02      		.word	0x29d
 2205 0527 4405 0000 		.long	0x544
 2206 052b 10        		.uleb128 0x10
 2207 052c 0000 0000 		.long	.LASF176
 2208 0530 04        		.byte	0x4
 2209 0531 9E02      		.word	0x29e
 2210 0533 5D00 0000 		.long	0x5d
 2211 0537 10        		.uleb128 0x10
 2212 0538 0000 0000 		.long	.LASF177
 2213 053c 04        		.byte	0x4
 2214 053d 9F02      		.word	0x29f
 2215 053f 4405 0000 		.long	0x544
 2216 0543 00        		.byte	0x0
 2217 0544 0C        		.uleb128 0xc
 2218 0545 2500 0000 		.long	0x25
 2219 0549 5405 0000 		.long	0x554
 2220 054d 0D        		.uleb128 0xd
 2221 054e 0F05 0000 		.long	0x50f
 2222 0552 01        		.byte	0x1
 2223 0553 00        		.byte	0x0
GAS LISTING C:\Users\ADMINI~1\AppData\Local\Temp/ccXldOo9.s 			page 40


 2224 0554 0E        		.uleb128 0xe
 2225 0555 0000 0000 		.long	.LASF178
 2226 0559 04        		.byte	0x4
 2227 055a A002      		.word	0x2a0
 2228 055c 1E05 0000 		.long	0x51e
 2229 0560 11        		.uleb128 0x11
 2230 0561 0000 0000 		.long	.LASF180
 2231 0565 08        		.byte	0x8
 2232 0566 04        		.byte	0x4
 2233 0567 B0        		.byte	0xb0
 2234 0568 B805 0000 		.long	0x5b8
 2235 056c 0A        		.uleb128 0xa
 2236 056d 0000 0000 		.long	.LASF181
 2237 0571 04        		.byte	0x4
 2238 0572 A302      		.word	0x2a3
 2239 0574 2500 0000 		.long	0x25
 2240 0578 02        		.byte	0x2
 2241 0579 23        		.byte	0x23
 2242 057a 00        		.uleb128 0x0
 2243 057b 0A        		.uleb128 0xa
 2244 057c 0000 0000 		.long	.LASF182
 2245 0580 04        		.byte	0x4
 2246 0581 A402      		.word	0x2a4
 2247 0583 2500 0000 		.long	0x25
 2248 0587 02        		.byte	0x2
 2249 0588 23        		.byte	0x23
 2250 0589 01        		.uleb128 0x1
 2251 058a 0A        		.uleb128 0xa
 2252 058b 0000 0000 		.long	.LASF183
 2253 058f 04        		.byte	0x4
 2254 0590 A502      		.word	0x2a5
 2255 0592 5405 0000 		.long	0x554
 2256 0596 02        		.byte	0x2
 2257 0597 23        		.byte	0x23
 2258 0598 02        		.uleb128 0x2
 2259 0599 0A        		.uleb128 0xa
 2260 059a 0000 0000 		.long	.LASF184
 2261 059e 04        		.byte	0x4
 2262 059f A602      		.word	0x2a6
 2263 05a1 5405 0000 		.long	0x554
 2264 05a5 02        		.byte	0x2
 2265 05a6 23        		.byte	0x23
 2266 05a7 04        		.uleb128 0x4
 2267 05a8 0A        		.uleb128 0xa
 2268 05a9 0000 0000 		.long	.LASF185
 2269 05ad 04        		.byte	0x4
 2270 05ae A702      		.word	0x2a7
 2271 05b0 5405 0000 		.long	0x554
 2272 05b4 02        		.byte	0x2
 2273 05b5 23        		.byte	0x23
 2274 05b6 06        		.uleb128 0x6
 2275 05b7 00        		.byte	0x0
 2276 05b8 0E        		.uleb128 0xe
 2277 05b9 0000 0000 		.long	.LASF186
 2278 05bd 04        		.byte	0x4
 2279 05be A802      		.word	0x2a8
 2280 05c0 6005 0000 		.long	0x560
GAS LISTING C:\Users\ADMINI~1\AppData\Local\Temp/ccXldOo9.s 			page 41


 2281 05c4 12        		.uleb128 0x12
 2282 05c5 01        		.byte	0x1
 2283 05c6 0000 0000 		.long	.LASF237
 2284 05ca 01        		.byte	0x1
 2285 05cb 6102      		.word	0x261
 2286 05cd 01        		.byte	0x1
 2287 05ce 7200 0000 		.long	0x72
 2288 05d2 0000 0000 		.long	.LFB16
 2289 05d6 0000 0000 		.long	.LFE16
 2290 05da 02        		.byte	0x2
 2291 05db 90        		.byte	0x90
 2292 05dc 20        		.uleb128 0x20
 2293 05dd 13        		.uleb128 0x13
 2294 05de 01        		.byte	0x1
 2295 05df 0000 0000 		.long	.LASF191
 2296 05e3 01        		.byte	0x1
 2297 05e4 A001      		.word	0x1a0
 2298 05e6 01        		.byte	0x1
 2299 05e7 7200 0000 		.long	0x72
 2300 05eb 0000 0000 		.long	.LFB12
 2301 05ef 0000 0000 		.long	.LFE12
 2302 05f3 02        		.byte	0x2
 2303 05f4 90        		.byte	0x90
 2304 05f5 20        		.uleb128 0x20
 2305 05f6 8506 0000 		.long	0x685
 2306 05fa 14        		.uleb128 0x14
 2307 05fb 0000 0000 		.long	.LASF198
 2308 05ff 01        		.byte	0x1
 2309 0600 A001      		.word	0x1a0
 2310 0602 7200 0000 		.long	0x72
 2311 0606 0000 0000 		.long	.LLST2
 2312 060a 15        		.uleb128 0x15
 2313 060b 0000 0000 		.long	.LASF187
 2314 060f 01        		.byte	0x1
 2315 0610 A101      		.word	0x1a1
 2316 0612 7200 0000 		.long	0x72
 2317 0616 16        		.uleb128 0x16
 2318 0617 0000 0000 		.long	.LBB2
 2319 061b 0000 0000 		.long	.LBE2
 2320 061f 5A06 0000 		.long	0x65a
 2321 0623 15        		.uleb128 0x15
 2322 0624 0000 0000 		.long	.LASF188
 2323 0628 01        		.byte	0x1
 2324 0629 AC01      		.word	0x1ac
 2325 062b 7D00 0000 		.long	0x7d
 2326 062f 17        		.uleb128 0x17
 2327 0630 0000 0000 		.long	.LBB3
 2328 0634 0000 0000 		.long	.LBE3
 2329 0638 18        		.uleb128 0x18
 2330 0639 0000 0000 		.long	.LASF189
 2331 063d 01        		.byte	0x1
 2332 063e AC01      		.word	0x1ac
 2333 0640 7D00 0000 		.long	0x7d
 2334 0644 0000 0000 		.long	.LLST3
 2335 0648 18        		.uleb128 0x18
 2336 0649 0000 0000 		.long	.LASF190
 2337 064d 01        		.byte	0x1
GAS LISTING C:\Users\ADMINI~1\AppData\Local\Temp/ccXldOo9.s 			page 42


 2338 064e AC01      		.word	0x1ac
 2339 0650 7D00 0000 		.long	0x7d
 2340 0654 0000 0000 		.long	.LLST4
 2341 0658 00        		.byte	0x0
 2342 0659 00        		.byte	0x0
 2343 065a 17        		.uleb128 0x17
 2344 065b 0000 0000 		.long	.LBB4
 2345 065f 0000 0000 		.long	.LBE4
 2346 0663 18        		.uleb128 0x18
 2347 0664 0000 0000 		.long	.LASF189
 2348 0668 01        		.byte	0x1
 2349 0669 C301      		.word	0x1c3
 2350 066b 7D00 0000 		.long	0x7d
 2351 066f 0000 0000 		.long	.LLST5
 2352 0673 18        		.uleb128 0x18
 2353 0674 0000 0000 		.long	.LASF190
 2354 0678 01        		.byte	0x1
 2355 0679 C301      		.word	0x1c3
 2356 067b 7D00 0000 		.long	0x7d
 2357 067f 0000 0000 		.long	.LLST6
 2358 0683 00        		.byte	0x0
 2359 0684 00        		.byte	0x0
 2360 0685 19        		.uleb128 0x19
 2361 0686 01        		.byte	0x1
 2362 0687 0000 0000 		.long	.LASF204
 2363 068b 01        		.byte	0x1
 2364 068c CD01      		.word	0x1cd
 2365 068e 01        		.byte	0x1
 2366 068f 0000 0000 		.long	.LFB13
 2367 0693 0000 0000 		.long	.LFE13
 2368 0697 02        		.byte	0x2
 2369 0698 90        		.byte	0x90
 2370 0699 20        		.uleb128 0x20
 2371 069a 13        		.uleb128 0x13
 2372 069b 01        		.byte	0x1
 2373 069c 0000 0000 		.long	.LASF192
 2374 06a0 01        		.byte	0x1
 2375 06a1 3902      		.word	0x239
 2376 06a3 01        		.byte	0x1
 2377 06a4 7200 0000 		.long	0x72
 2378 06a8 0000 0000 		.long	.LFB15
 2379 06ac 0000 0000 		.long	.LFE15
 2380 06b0 02        		.byte	0x2
 2381 06b1 90        		.byte	0x90
 2382 06b2 20        		.uleb128 0x20
 2383 06b3 F806 0000 		.long	0x6f8
 2384 06b7 17        		.uleb128 0x17
 2385 06b8 0000 0000 		.long	.LBB5
 2386 06bc 0000 0000 		.long	.LBE5
 2387 06c0 15        		.uleb128 0x15
 2388 06c1 0000 0000 		.long	.LASF193
 2389 06c5 01        		.byte	0x1
 2390 06c6 3B02      		.word	0x23b
 2391 06c8 6B00 0000 		.long	0x6b
 2392 06cc 1A        		.uleb128 0x1a
 2393 06cd 6900      		.string	"i"
 2394 06cf 01        		.byte	0x1
GAS LISTING C:\Users\ADMINI~1\AppData\Local\Temp/ccXldOo9.s 			page 43


 2395 06d0 4102      		.word	0x241
 2396 06d2 7200 0000 		.long	0x72
 2397 06d6 18        		.uleb128 0x18
 2398 06d7 0000 0000 		.long	.LASF194
 2399 06db 01        		.byte	0x1
 2400 06dc 4202      		.word	0x242
 2401 06de 7200 0000 		.long	0x72
 2402 06e2 0000 0000 		.long	.LLST9
 2403 06e6 18        		.uleb128 0x18
 2404 06e7 0000 0000 		.long	.LASF195
 2405 06eb 01        		.byte	0x1
 2406 06ec 4302      		.word	0x243
 2407 06ee 7200 0000 		.long	0x72
 2408 06f2 0000 0000 		.long	.LLST10
 2409 06f6 00        		.byte	0x0
 2410 06f7 00        		.byte	0x0
 2411 06f8 13        		.uleb128 0x13
 2412 06f9 01        		.byte	0x1
 2413 06fa 0000 0000 		.long	.LASF196
 2414 06fe 01        		.byte	0x1
 2415 06ff D201      		.word	0x1d2
 2416 0701 01        		.byte	0x1
 2417 0702 7200 0000 		.long	0x72
 2418 0706 0000 0000 		.long	.LFB14
 2419 070a 0000 0000 		.long	.LFE14
 2420 070e 02        		.byte	0x2
 2421 070f 90        		.byte	0x90
 2422 0710 20        		.uleb128 0x20
 2423 0711 B707 0000 		.long	0x7b7
 2424 0715 18        		.uleb128 0x18
 2425 0716 0000 0000 		.long	.LASF187
 2426 071a 01        		.byte	0x1
 2427 071b D301      		.word	0x1d3
 2428 071d 7200 0000 		.long	0x72
 2429 0721 0000 0000 		.long	.LLST12
 2430 0725 1B        		.uleb128 0x1b
 2431 0726 726F 7700 		.string	"row"
 2432 072a 01        		.byte	0x1
 2433 072b D801      		.word	0x1d8
 2434 072d 7200 0000 		.long	0x72
 2435 0731 0000 0000 		.long	.LLST13
 2436 0735 1B        		.uleb128 0x1b
 2437 0736 636F 6C00 		.string	"col"
 2438 073a 01        		.byte	0x1
 2439 073b D801      		.word	0x1d8
 2440 073d 7200 0000 		.long	0x72
 2441 0741 0000 0000 		.long	.LLST14
 2442 0745 18        		.uleb128 0x18
 2443 0746 0000 0000 		.long	.LASF197
 2444 074a 01        		.byte	0x1
 2445 074b D801      		.word	0x1d8
 2446 074d 7200 0000 		.long	0x72
 2447 0751 0000 0000 		.long	.LLST15
 2448 0755 1B        		.uleb128 0x1b
 2449 0756 6375 7200 		.string	"cur"
 2450 075a 01        		.byte	0x1
 2451 075b D801      		.word	0x1d8
GAS LISTING C:\Users\ADMINI~1\AppData\Local\Temp/ccXldOo9.s 			page 44


 2452 075d 7200 0000 		.long	0x72
 2453 0761 0000 0000 		.long	.LLST16
 2454 0765 18        		.uleb128 0x18
 2455 0766 0000 0000 		.long	.LASF198
 2456 076a 01        		.byte	0x1
 2457 076b D801      		.word	0x1d8
 2458 076d 7200 0000 		.long	0x72
 2459 0771 0000 0000 		.long	.LLST17
 2460 0775 1C        		.uleb128 0x1c
 2461 0776 0000 0000 		.long	.LASF199
 2462 077a 01        		.byte	0x1
 2463 077b D801      		.word	0x1d8
 2464 077d 7200 0000 		.long	0x72
 2465 0781 02        		.byte	0x2
 2466 0782 8C        		.byte	0x8c
 2467 0783 01        		.sleb128 1
 2468 0784 1B        		.uleb128 0x1b
 2469 0785 6746 4E00 		.string	"gFN"
 2470 0789 01        		.byte	0x1
 2471 078a D801      		.word	0x1d8
 2472 078c 7200 0000 		.long	0x72
 2473 0790 0000 0000 		.long	.LLST18
 2474 0794 18        		.uleb128 0x18
 2475 0795 0000 0000 		.long	.LASF200
 2476 0799 01        		.byte	0x1
 2477 079a D901      		.word	0x1d9
 2478 079c 7200 0000 		.long	0x72
 2479 07a0 0000 0000 		.long	.LLST19
 2480 07a4 1C        		.uleb128 0x1c
 2481 07a5 0000 0000 		.long	.LASF201
 2482 07a9 01        		.byte	0x1
 2483 07aa DA01      		.word	0x1da
 2484 07ac 7200 0000 		.long	0x72
 2485 07b0 05        		.byte	0x5
 2486 07b1 03        		.byte	0x3
 2487 07b2 0000 0000 		.long	prevModifier.2327
 2488 07b6 00        		.byte	0x0
 2489 07b7 1D        		.uleb128 0x1d
 2490 07b8 01        		.byte	0x1
 2491 07b9 0000 0000 		.long	.LASF238
 2492 07bd 01        		.byte	0x1
 2493 07be 6A02      		.word	0x26a
 2494 07c0 01        		.byte	0x1
 2495 07c1 0000 0000 		.long	.LFB17
 2496 07c5 0000 0000 		.long	.LFE17
 2497 07c9 02        		.byte	0x2
 2498 07ca 90        		.byte	0x90
 2499 07cb 20        		.uleb128 0x20
 2500 07cc F107 0000 		.long	0x7f1
 2501 07d0 18        		.uleb128 0x18
 2502 07d1 0000 0000 		.long	.LASF202
 2503 07d5 01        		.byte	0x1
 2504 07d6 6E02      		.word	0x26e
 2505 07d8 7200 0000 		.long	0x72
 2506 07dc 0000 0000 		.long	.LLST21
 2507 07e0 18        		.uleb128 0x18
 2508 07e1 0000 0000 		.long	.LASF203
GAS LISTING C:\Users\ADMINI~1\AppData\Local\Temp/ccXldOo9.s 			page 45


 2509 07e5 01        		.byte	0x1
 2510 07e6 6F02      		.word	0x26f
 2511 07e8 7200 0000 		.long	0x72
 2512 07ec 0000 0000 		.long	.LLST22
 2513 07f0 00        		.byte	0x0
 2514 07f1 19        		.uleb128 0x19
 2515 07f2 01        		.byte	0x1
 2516 07f3 0000 0000 		.long	.LASF205
 2517 07f7 01        		.byte	0x1
 2518 07f8 8E01      		.word	0x18e
 2519 07fa 01        		.byte	0x1
 2520 07fb 0000 0000 		.long	.LFB11
 2521 07ff 0000 0000 		.long	.LFE11
 2522 0803 02        		.byte	0x2
 2523 0804 90        		.byte	0x90
 2524 0805 20        		.uleb128 0x20
 2525 0806 19        		.uleb128 0x19
 2526 0807 01        		.byte	0x1
 2527 0808 0000 0000 		.long	.LASF206
 2528 080c 01        		.byte	0x1
 2529 080d 8701      		.word	0x187
 2530 080f 01        		.byte	0x1
 2531 0810 0000 0000 		.long	.LFB10
 2532 0814 0000 0000 		.long	.LFE10
 2533 0818 02        		.byte	0x2
 2534 0819 90        		.byte	0x90
 2535 081a 20        		.uleb128 0x20
 2536 081b 13        		.uleb128 0x13
 2537 081c 01        		.byte	0x1
 2538 081d 0000 0000 		.long	.LASF207
 2539 0821 01        		.byte	0x1
 2540 0822 3C01      		.word	0x13c
 2541 0824 01        		.byte	0x1
 2542 0825 7200 0000 		.long	0x72
 2543 0829 0000 0000 		.long	.LFB8
 2544 082d 0000 0000 		.long	.LFE8
 2545 0831 02        		.byte	0x2
 2546 0832 90        		.byte	0x90
 2547 0833 20        		.uleb128 0x20
 2548 0834 5808 0000 		.long	0x858
 2549 0838 14        		.uleb128 0x14
 2550 0839 0000 0000 		.long	.LASF208
 2551 083d 01        		.byte	0x1
 2552 083e 3C01      		.word	0x13c
 2553 0840 5808 0000 		.long	0x858
 2554 0844 0000 0000 		.long	.LLST26
 2555 0848 1B        		.uleb128 0x1b
 2556 0849 7271 00   		.string	"rq"
 2557 084c 01        		.byte	0x1
 2558 084d 4001      		.word	0x140
 2559 084f 5E08 0000 		.long	0x85e
 2560 0853 0000 0000 		.long	.LLST27
 2561 0857 00        		.byte	0x0
 2562 0858 1E        		.uleb128 0x1e
 2563 0859 02        		.byte	0x2
 2564 085a 7200 0000 		.long	0x72
 2565 085e 1E        		.uleb128 0x1e
GAS LISTING C:\Users\ADMINI~1\AppData\Local\Temp/ccXldOo9.s 			page 46


 2566 085f 02        		.byte	0x2
 2567 0860 B805 0000 		.long	0x5b8
 2568 0864 13        		.uleb128 0x13
 2569 0865 01        		.byte	0x1
 2570 0866 0000 0000 		.long	.LASF209
 2571 086a 01        		.byte	0x1
 2572 086b 7901      		.word	0x179
 2573 086d 01        		.byte	0x1
 2574 086e 7200 0000 		.long	0x72
 2575 0872 0000 0000 		.long	.LFB9
 2576 0876 0000 0000 		.long	.LFE9
 2577 087a 02        		.byte	0x2
 2578 087b 90        		.byte	0x90
 2579 087c 20        		.uleb128 0x20
 2580 087d A208 0000 		.long	0x8a2
 2581 0881 14        		.uleb128 0x14
 2582 0882 0000 0000 		.long	.LASF208
 2583 0886 01        		.byte	0x1
 2584 0887 7901      		.word	0x179
 2585 0889 A208 0000 		.long	0x8a2
 2586 088d 0000 0000 		.long	.LLST29
 2587 0891 1F        		.uleb128 0x1f
 2588 0892 6C65 6E00 		.string	"len"
 2589 0896 01        		.byte	0x1
 2590 0897 7901      		.word	0x179
 2591 0899 2500 0000 		.long	0x25
 2592 089d 0000 0000 		.long	.LLST30
 2593 08a1 00        		.byte	0x0
 2594 08a2 1E        		.uleb128 0x1e
 2595 08a3 02        		.byte	0x2
 2596 08a4 2500 0000 		.long	0x25
 2597 08a8 0C        		.uleb128 0xc
 2598 08a9 7200 0000 		.long	0x72
 2599 08ad B808 0000 		.long	0x8b8
 2600 08b1 0D        		.uleb128 0xd
 2601 08b2 0F05 0000 		.long	0x50f
 2602 08b6 07        		.byte	0x7
 2603 08b7 00        		.byte	0x0
 2604 08b8 20        		.uleb128 0x20
 2605 08b9 0000 0000 		.long	.LASF210
 2606 08bd 01        		.byte	0x1
 2607 08be EF        		.byte	0xef
 2608 08bf A808 0000 		.long	0x8a8
 2609 08c3 05        		.byte	0x5
 2610 08c4 03        		.byte	0x3
 2611 08c5 0000 0000 		.long	reportBuffer
 2612 08c9 20        		.uleb128 0x20
 2613 08ca 0000 0000 		.long	.LASF211
 2614 08ce 01        		.byte	0x1
 2615 08cf F0        		.byte	0xf0
 2616 08d0 7200 0000 		.long	0x72
 2617 08d4 05        		.byte	0x5
 2618 08d5 03        		.byte	0x3
 2619 08d6 0000 0000 		.long	idleRate
 2620 08da 20        		.uleb128 0x20
 2621 08db 0000 0000 		.long	.LASF212
 2622 08df 01        		.byte	0x1
GAS LISTING C:\Users\ADMINI~1\AppData\Local\Temp/ccXldOo9.s 			page 47


 2623 08e0 F1        		.byte	0xf1
 2624 08e1 7200 0000 		.long	0x72
 2625 08e5 05        		.byte	0x5
 2626 08e6 03        		.byte	0x3
 2627 08e7 0000 0000 		.long	protocolVer
 2628 08eb 20        		.uleb128 0x20
 2629 08ec 0000 0000 		.long	.LASF213
 2630 08f0 01        		.byte	0x1
 2631 08f1 F2        		.byte	0xf2
 2632 08f2 7200 0000 		.long	0x72
 2633 08f6 05        		.byte	0x5
 2634 08f7 03        		.byte	0x3
 2635 08f8 0000 0000 		.long	expectReport
 2636 08fc 20        		.uleb128 0x20
 2637 08fd 0000 0000 		.long	.LASF214
 2638 0901 01        		.byte	0x1
 2639 0902 F3        		.byte	0xf3
 2640 0903 7200 0000 		.long	0x72
 2641 0907 05        		.byte	0x5
 2642 0908 03        		.byte	0x3
 2643 0909 0000 0000 		.long	_isInit
 2644 090d 0C        		.uleb128 0xc
 2645 090e 7200 0000 		.long	0x72
 2646 0912 1D09 0000 		.long	0x91d
 2647 0916 0D        		.uleb128 0xd
 2648 0917 0F05 0000 		.long	0x50f
 2649 091b 2F        		.byte	0x2f
 2650 091c 00        		.byte	0x0
 2651 091d 20        		.uleb128 0x20
 2652 091e 0000 0000 		.long	.LASF215
 2653 0922 01        		.byte	0x1
 2654 0923 F5        		.byte	0xf5
 2655 0924 0D09 0000 		.long	0x90d
 2656 0928 05        		.byte	0x5
 2657 0929 03        		.byte	0x3
 2658 092a 0000 0000 		.long	_prevPressedBuffer
 2659 092e 1C        		.uleb128 0x1c
 2660 092f 0000 0000 		.long	.LASF216
 2661 0933 01        		.byte	0x1
 2662 0934 3702      		.word	0x237
 2663 0936 7200 0000 		.long	0x72
 2664 093a 05        		.byte	0x5
 2665 093b 03        		.byte	0x3
 2666 093c 0000 0000 		.long	_needRelease
 2667 0940 21        		.uleb128 0x21
 2668 0941 0000 0000 		.long	.LASF217
 2669 0945 03        		.byte	0x3
 2670 0946 30        		.byte	0x30
 2671 0947 7200 0000 		.long	0x72
 2672 094b 01        		.byte	0x1
 2673 094c 01        		.byte	0x1
 2674 094d 0C        		.uleb128 0xc
 2675 094e 7D00 0000 		.long	0x7d
 2676 0952 5809 0000 		.long	0x958
 2677 0956 22        		.uleb128 0x22
 2678 0957 00        		.byte	0x0
 2679 0958 21        		.uleb128 0x21
GAS LISTING C:\Users\ADMINI~1\AppData\Local\Temp/ccXldOo9.s 			page 48


 2680 0959 0000 0000 		.long	.LASF218
 2681 095d 03        		.byte	0x3
 2682 095e D6        		.byte	0xd6
 2683 095f 6509 0000 		.long	0x965
 2684 0963 01        		.byte	0x1
 2685 0964 01        		.byte	0x1
 2686 0965 23        		.uleb128 0x23
 2687 0966 4D09 0000 		.long	0x94d
 2688 096a 21        		.uleb128 0x21
 2689 096b 0000 0000 		.long	.LASF219
 2690 096f 03        		.byte	0x3
 2691 0970 D9        		.byte	0xd9
 2692 0971 7709 0000 		.long	0x977
 2693 0975 01        		.byte	0x1
 2694 0976 01        		.byte	0x1
 2695 0977 23        		.uleb128 0x23
 2696 0978 4D09 0000 		.long	0x94d
 2697 097c 21        		.uleb128 0x21
 2698 097d 0000 0000 		.long	.LASF220
 2699 0981 04        		.byte	0x4
 2700 0982 BF        		.byte	0xbf
 2701 0983 3300 0000 		.long	0x33
 2702 0987 01        		.byte	0x1
 2703 0988 01        		.byte	0x1
 2704 0989 0C        		.uleb128 0xc
 2705 098a 6400 0000 		.long	0x64
 2706 098e 9909 0000 		.long	0x999
 2707 0992 0D        		.uleb128 0xd
 2708 0993 0F05 0000 		.long	0x50f
 2709 0997 54        		.byte	0x54
 2710 0998 00        		.byte	0x0
 2711 0999 24        		.uleb128 0x24
 2712 099a 0000 0000 		.long	.LASF221
 2713 099e 01        		.byte	0x1
 2714 099f 0101      		.word	0x101
 2715 09a1 AC09 0000 		.long	0x9ac
 2716 09a5 01        		.byte	0x1
 2717 09a6 05        		.byte	0x5
 2718 09a7 03        		.byte	0x3
 2719 09a8 0000 0000 		.long	usbDescriptorHidReport
 2720 09ac 23        		.uleb128 0x23
 2721 09ad 8909 0000 		.long	0x989
 2722 09b1 25        		.uleb128 0x25
 2723 09b2 0000 0000 		.long	.LASF222
 2724 09b6 04        		.byte	0x4
 2725 09b7 9602      		.word	0x296
 2726 09b9 1205 0000 		.long	0x512
 2727 09bd 01        		.byte	0x1
 2728 09be 01        		.byte	0x1
 2729 09bf 21        		.uleb128 0x21
 2730 09c0 0000 0000 		.long	.LASF223
 2731 09c4 05        		.byte	0x5
 2732 09c5 38        		.byte	0x38
 2733 09c6 6B00 0000 		.long	0x6b
 2734 09ca 01        		.byte	0x1
 2735 09cb 01        		.byte	0x1
 2736 09cc 21        		.uleb128 0x21
GAS LISTING C:\Users\ADMINI~1\AppData\Local\Temp/ccXldOo9.s 			page 49


 2737 09cd 0000 0000 		.long	.LASF224
 2738 09d1 05        		.byte	0x5
 2739 09d2 39        		.byte	0x39
 2740 09d3 7200 0000 		.long	0x72
 2741 09d7 01        		.byte	0x1
 2742 09d8 01        		.byte	0x1
 2743 09d9 21        		.uleb128 0x21
 2744 09da 0000 0000 		.long	.LASF225
 2745 09de 05        		.byte	0x5
 2746 09df 3B        		.byte	0x3b
 2747 09e0 7200 0000 		.long	0x72
 2748 09e4 01        		.byte	0x1
 2749 09e5 01        		.byte	0x1
 2750 09e6 21        		.uleb128 0x21
 2751 09e7 0000 0000 		.long	.LASF226
 2752 09eb 06        		.byte	0x6
 2753 09ec 0D        		.byte	0xd
 2754 09ed 7200 0000 		.long	0x72
 2755 09f1 01        		.byte	0x1
 2756 09f2 01        		.byte	0x1
 2757 09f3 0C        		.uleb128 0xc
 2758 09f4 3300 0000 		.long	0x33
 2759 09f8 030A 0000 		.long	0xa03
 2760 09fc 0D        		.uleb128 0xd
 2761 09fd 0F05 0000 		.long	0x50f
 2762 0a01 0F        		.byte	0xf
 2763 0a02 00        		.byte	0x0
 2764 0a03 21        		.uleb128 0x21
 2765 0a04 0000 0000 		.long	.LASF227
 2766 0a08 06        		.byte	0x6
 2767 0a09 0E        		.byte	0xe
 2768 0a0a 100A 0000 		.long	0xa10
 2769 0a0e 01        		.byte	0x1
 2770 0a0f 01        		.byte	0x1
 2771 0a10 23        		.uleb128 0x23
 2772 0a11 F309 0000 		.long	0x9f3
 2773 0a15 0C        		.uleb128 0xc
 2774 0a16 7200 0000 		.long	0x72
 2775 0a1a 250A 0000 		.long	0xa25
 2776 0a1e 0D        		.uleb128 0xd
 2777 0a1f 0F05 0000 		.long	0x50f
 2778 0a23 10        		.byte	0x10
 2779 0a24 00        		.byte	0x0
 2780 0a25 21        		.uleb128 0x21
 2781 0a26 0000 0000 		.long	.LASF228
 2782 0a2a 06        		.byte	0x6
 2783 0a2b 0F        		.byte	0xf
 2784 0a2c 150A 0000 		.long	0xa15
 2785 0a30 01        		.byte	0x1
 2786 0a31 01        		.byte	0x1
 2787 0a32 21        		.uleb128 0x21
 2788 0a33 0000 0000 		.long	.LASF229
 2789 0a37 06        		.byte	0x6
 2790 0a38 10        		.byte	0x10
 2791 0a39 150A 0000 		.long	0xa15
 2792 0a3d 01        		.byte	0x1
 2793 0a3e 01        		.byte	0x1
GAS LISTING C:\Users\ADMINI~1\AppData\Local\Temp/ccXldOo9.s 			page 50


 2794 0a3f 21        		.uleb128 0x21
 2795 0a40 0000 0000 		.long	.LASF230
 2796 0a44 07        		.byte	0x7
 2797 0a45 19        		.byte	0x19
 2798 0a46 0D09 0000 		.long	0x90d
 2799 0a4a 01        		.byte	0x1
 2800 0a4b 01        		.byte	0x1
 2801 0a4c 24        		.uleb128 0x24
 2802 0a4d 0000 0000 		.long	.LASF231
 2803 0a51 01        		.byte	0x1
 2804 0a52 9E01      		.word	0x19e
 2805 0a54 7200 0000 		.long	0x72
 2806 0a58 01        		.byte	0x1
 2807 0a59 05        		.byte	0x5
 2808 0a5a 03        		.byte	0x3
 2809 0a5b 0000 0000 		.long	reportIndex
 2810 0a5f 24        		.uleb128 0x24
 2811 0a60 0000 0000 		.long	.LASF232
 2812 0a64 01        		.byte	0x1
 2813 0a65 9F01      		.word	0x19f
 2814 0a67 7200 0000 		.long	0x72
 2815 0a6b 01        		.byte	0x1
 2816 0a6c 05        		.byte	0x5
 2817 0a6d 03        		.byte	0x3
 2818 0a6e 0000 0000 		.long	_isMultimediaPressed
 2819 0a72 00        		.byte	0x0
 2820               		.section	.debug_abbrev
 2821 0000 01        		.uleb128 0x1
 2822 0001 11        		.uleb128 0x11
 2823 0002 01        		.byte	0x1
 2824 0003 25        		.uleb128 0x25
 2825 0004 0E        		.uleb128 0xe
 2826 0005 13        		.uleb128 0x13
 2827 0006 0B        		.uleb128 0xb
 2828 0007 03        		.uleb128 0x3
 2829 0008 0E        		.uleb128 0xe
 2830 0009 1B        		.uleb128 0x1b
 2831 000a 0E        		.uleb128 0xe
 2832 000b 11        		.uleb128 0x11
 2833 000c 01        		.uleb128 0x1
 2834 000d 12        		.uleb128 0x12
 2835 000e 01        		.uleb128 0x1
 2836 000f 10        		.uleb128 0x10
 2837 0010 06        		.uleb128 0x6
 2838 0011 00        		.byte	0x0
 2839 0012 00        		.byte	0x0
 2840 0013 02        		.uleb128 0x2
 2841 0014 24        		.uleb128 0x24
 2842 0015 00        		.byte	0x0
 2843 0016 0B        		.uleb128 0xb
 2844 0017 0B        		.uleb128 0xb
 2845 0018 3E        		.uleb128 0x3e
 2846 0019 0B        		.uleb128 0xb
 2847 001a 03        		.uleb128 0x3
 2848 001b 0E        		.uleb128 0xe
 2849 001c 00        		.byte	0x0
 2850 001d 00        		.byte	0x0
GAS LISTING C:\Users\ADMINI~1\AppData\Local\Temp/ccXldOo9.s 			page 51


 2851 001e 03        		.uleb128 0x3
 2852 001f 24        		.uleb128 0x24
 2853 0020 00        		.byte	0x0
 2854 0021 0B        		.uleb128 0xb
 2855 0022 0B        		.uleb128 0xb
 2856 0023 3E        		.uleb128 0x3e
 2857 0024 0B        		.uleb128 0xb
 2858 0025 03        		.uleb128 0x3
 2859 0026 08        		.uleb128 0x8
 2860 0027 00        		.byte	0x0
 2861 0028 00        		.byte	0x0
 2862 0029 04        		.uleb128 0x4
 2863 002a 16        		.uleb128 0x16
 2864 002b 00        		.byte	0x0
 2865 002c 03        		.uleb128 0x3
 2866 002d 0E        		.uleb128 0xe
 2867 002e 3A        		.uleb128 0x3a
 2868 002f 0B        		.uleb128 0xb
 2869 0030 3B        		.uleb128 0x3b
 2870 0031 0B        		.uleb128 0xb
 2871 0032 49        		.uleb128 0x49
 2872 0033 13        		.uleb128 0x13
 2873 0034 00        		.byte	0x0
 2874 0035 00        		.byte	0x0
 2875 0036 05        		.uleb128 0x5
 2876 0037 24        		.uleb128 0x24
 2877 0038 00        		.byte	0x0
 2878 0039 0B        		.uleb128 0xb
 2879 003a 0B        		.uleb128 0xb
 2880 003b 3E        		.uleb128 0x3e
 2881 003c 0B        		.uleb128 0xb
 2882 003d 00        		.byte	0x0
 2883 003e 00        		.byte	0x0
 2884 003f 06        		.uleb128 0x6
 2885 0040 04        		.uleb128 0x4
 2886 0041 01        		.byte	0x1
 2887 0042 0B        		.uleb128 0xb
 2888 0043 0B        		.uleb128 0xb
 2889 0044 3A        		.uleb128 0x3a
 2890 0045 0B        		.uleb128 0xb
 2891 0046 3B        		.uleb128 0x3b
 2892 0047 0B        		.uleb128 0xb
 2893 0048 01        		.uleb128 0x1
 2894 0049 13        		.uleb128 0x13
 2895 004a 00        		.byte	0x0
 2896 004b 00        		.byte	0x0
 2897 004c 07        		.uleb128 0x7
 2898 004d 28        		.uleb128 0x28
 2899 004e 00        		.byte	0x0
 2900 004f 03        		.uleb128 0x3
 2901 0050 0E        		.uleb128 0xe
 2902 0051 1C        		.uleb128 0x1c
 2903 0052 0D        		.uleb128 0xd
 2904 0053 00        		.byte	0x0
 2905 0054 00        		.byte	0x0
 2906 0055 08        		.uleb128 0x8
 2907 0056 13        		.uleb128 0x13
GAS LISTING C:\Users\ADMINI~1\AppData\Local\Temp/ccXldOo9.s 			page 52


 2908 0057 01        		.byte	0x1
 2909 0058 03        		.uleb128 0x3
 2910 0059 0E        		.uleb128 0xe
 2911 005a 0B        		.uleb128 0xb
 2912 005b 0B        		.uleb128 0xb
 2913 005c 3A        		.uleb128 0x3a
 2914 005d 0B        		.uleb128 0xb
 2915 005e 3B        		.uleb128 0x3b
 2916 005f 05        		.uleb128 0x5
 2917 0060 01        		.uleb128 0x1
 2918 0061 13        		.uleb128 0x13
 2919 0062 00        		.byte	0x0
 2920 0063 00        		.byte	0x0
 2921 0064 09        		.uleb128 0x9
 2922 0065 0D        		.uleb128 0xd
 2923 0066 00        		.byte	0x0
 2924 0067 03        		.uleb128 0x3
 2925 0068 08        		.uleb128 0x8
 2926 0069 3A        		.uleb128 0x3a
 2927 006a 0B        		.uleb128 0xb
 2928 006b 3B        		.uleb128 0x3b
 2929 006c 05        		.uleb128 0x5
 2930 006d 49        		.uleb128 0x49
 2931 006e 13        		.uleb128 0x13
 2932 006f 38        		.uleb128 0x38
 2933 0070 0A        		.uleb128 0xa
 2934 0071 00        		.byte	0x0
 2935 0072 00        		.byte	0x0
 2936 0073 0A        		.uleb128 0xa
 2937 0074 0D        		.uleb128 0xd
 2938 0075 00        		.byte	0x0
 2939 0076 03        		.uleb128 0x3
 2940 0077 0E        		.uleb128 0xe
 2941 0078 3A        		.uleb128 0x3a
 2942 0079 0B        		.uleb128 0xb
 2943 007a 3B        		.uleb128 0x3b
 2944 007b 05        		.uleb128 0x5
 2945 007c 49        		.uleb128 0x49
 2946 007d 13        		.uleb128 0x13
 2947 007e 38        		.uleb128 0x38
 2948 007f 0A        		.uleb128 0xa
 2949 0080 00        		.byte	0x0
 2950 0081 00        		.byte	0x0
 2951 0082 0B        		.uleb128 0xb
 2952 0083 35        		.uleb128 0x35
 2953 0084 00        		.byte	0x0
 2954 0085 49        		.uleb128 0x49
 2955 0086 13        		.uleb128 0x13
 2956 0087 00        		.byte	0x0
 2957 0088 00        		.byte	0x0
 2958 0089 0C        		.uleb128 0xc
 2959 008a 01        		.uleb128 0x1
 2960 008b 01        		.byte	0x1
 2961 008c 49        		.uleb128 0x49
 2962 008d 13        		.uleb128 0x13
 2963 008e 01        		.uleb128 0x1
 2964 008f 13        		.uleb128 0x13
GAS LISTING C:\Users\ADMINI~1\AppData\Local\Temp/ccXldOo9.s 			page 53


 2965 0090 00        		.byte	0x0
 2966 0091 00        		.byte	0x0
 2967 0092 0D        		.uleb128 0xd
 2968 0093 21        		.uleb128 0x21
 2969 0094 00        		.byte	0x0
 2970 0095 49        		.uleb128 0x49
 2971 0096 13        		.uleb128 0x13
 2972 0097 2F        		.uleb128 0x2f
 2973 0098 0B        		.uleb128 0xb
 2974 0099 00        		.byte	0x0
 2975 009a 00        		.byte	0x0
 2976 009b 0E        		.uleb128 0xe
 2977 009c 16        		.uleb128 0x16
 2978 009d 00        		.byte	0x0
 2979 009e 03        		.uleb128 0x3
 2980 009f 0E        		.uleb128 0xe
 2981 00a0 3A        		.uleb128 0x3a
 2982 00a1 0B        		.uleb128 0xb
 2983 00a2 3B        		.uleb128 0x3b
 2984 00a3 05        		.uleb128 0x5
 2985 00a4 49        		.uleb128 0x49
 2986 00a5 13        		.uleb128 0x13
 2987 00a6 00        		.byte	0x0
 2988 00a7 00        		.byte	0x0
 2989 00a8 0F        		.uleb128 0xf
 2990 00a9 17        		.uleb128 0x17
 2991 00aa 01        		.byte	0x1
 2992 00ab 03        		.uleb128 0x3
 2993 00ac 0E        		.uleb128 0xe
 2994 00ad 0B        		.uleb128 0xb
 2995 00ae 0B        		.uleb128 0xb
 2996 00af 3A        		.uleb128 0x3a
 2997 00b0 0B        		.uleb128 0xb
 2998 00b1 3B        		.uleb128 0x3b
 2999 00b2 05        		.uleb128 0x5
 3000 00b3 01        		.uleb128 0x1
 3001 00b4 13        		.uleb128 0x13
 3002 00b5 00        		.byte	0x0
 3003 00b6 00        		.byte	0x0
 3004 00b7 10        		.uleb128 0x10
 3005 00b8 0D        		.uleb128 0xd
 3006 00b9 00        		.byte	0x0
 3007 00ba 03        		.uleb128 0x3
 3008 00bb 0E        		.uleb128 0xe
 3009 00bc 3A        		.uleb128 0x3a
 3010 00bd 0B        		.uleb128 0xb
 3011 00be 3B        		.uleb128 0x3b
 3012 00bf 05        		.uleb128 0x5
 3013 00c0 49        		.uleb128 0x49
 3014 00c1 13        		.uleb128 0x13
 3015 00c2 00        		.byte	0x0
 3016 00c3 00        		.byte	0x0
 3017 00c4 11        		.uleb128 0x11
 3018 00c5 13        		.uleb128 0x13
 3019 00c6 01        		.byte	0x1
 3020 00c7 03        		.uleb128 0x3
 3021 00c8 0E        		.uleb128 0xe
GAS LISTING C:\Users\ADMINI~1\AppData\Local\Temp/ccXldOo9.s 			page 54


 3022 00c9 0B        		.uleb128 0xb
 3023 00ca 0B        		.uleb128 0xb
 3024 00cb 3A        		.uleb128 0x3a
 3025 00cc 0B        		.uleb128 0xb
 3026 00cd 3B        		.uleb128 0x3b
 3027 00ce 0B        		.uleb128 0xb
 3028 00cf 01        		.uleb128 0x1
 3029 00d0 13        		.uleb128 0x13
 3030 00d1 00        		.byte	0x0
 3031 00d2 00        		.byte	0x0
 3032 00d3 12        		.uleb128 0x12
 3033 00d4 2E        		.uleb128 0x2e
 3034 00d5 00        		.byte	0x0
 3035 00d6 3F        		.uleb128 0x3f
 3036 00d7 0C        		.uleb128 0xc
 3037 00d8 03        		.uleb128 0x3
 3038 00d9 0E        		.uleb128 0xe
 3039 00da 3A        		.uleb128 0x3a
 3040 00db 0B        		.uleb128 0xb
 3041 00dc 3B        		.uleb128 0x3b
 3042 00dd 05        		.uleb128 0x5
 3043 00de 27        		.uleb128 0x27
 3044 00df 0C        		.uleb128 0xc
 3045 00e0 49        		.uleb128 0x49
 3046 00e1 13        		.uleb128 0x13
 3047 00e2 11        		.uleb128 0x11
 3048 00e3 01        		.uleb128 0x1
 3049 00e4 12        		.uleb128 0x12
 3050 00e5 01        		.uleb128 0x1
 3051 00e6 40        		.uleb128 0x40
 3052 00e7 0A        		.uleb128 0xa
 3053 00e8 00        		.byte	0x0
 3054 00e9 00        		.byte	0x0
 3055 00ea 13        		.uleb128 0x13
 3056 00eb 2E        		.uleb128 0x2e
 3057 00ec 01        		.byte	0x1
 3058 00ed 3F        		.uleb128 0x3f
 3059 00ee 0C        		.uleb128 0xc
 3060 00ef 03        		.uleb128 0x3
 3061 00f0 0E        		.uleb128 0xe
 3062 00f1 3A        		.uleb128 0x3a
 3063 00f2 0B        		.uleb128 0xb
 3064 00f3 3B        		.uleb128 0x3b
 3065 00f4 05        		.uleb128 0x5
 3066 00f5 27        		.uleb128 0x27
 3067 00f6 0C        		.uleb128 0xc
 3068 00f7 49        		.uleb128 0x49
 3069 00f8 13        		.uleb128 0x13
 3070 00f9 11        		.uleb128 0x11
 3071 00fa 01        		.uleb128 0x1
 3072 00fb 12        		.uleb128 0x12
 3073 00fc 01        		.uleb128 0x1
 3074 00fd 40        		.uleb128 0x40
 3075 00fe 0A        		.uleb128 0xa
 3076 00ff 01        		.uleb128 0x1
 3077 0100 13        		.uleb128 0x13
 3078 0101 00        		.byte	0x0
GAS LISTING C:\Users\ADMINI~1\AppData\Local\Temp/ccXldOo9.s 			page 55


 3079 0102 00        		.byte	0x0
 3080 0103 14        		.uleb128 0x14
 3081 0104 05        		.uleb128 0x5
 3082 0105 00        		.byte	0x0
 3083 0106 03        		.uleb128 0x3
 3084 0107 0E        		.uleb128 0xe
 3085 0108 3A        		.uleb128 0x3a
 3086 0109 0B        		.uleb128 0xb
 3087 010a 3B        		.uleb128 0x3b
 3088 010b 05        		.uleb128 0x5
 3089 010c 49        		.uleb128 0x49
 3090 010d 13        		.uleb128 0x13
 3091 010e 02        		.uleb128 0x2
 3092 010f 06        		.uleb128 0x6
 3093 0110 00        		.byte	0x0
 3094 0111 00        		.byte	0x0
 3095 0112 15        		.uleb128 0x15
 3096 0113 34        		.uleb128 0x34
 3097 0114 00        		.byte	0x0
 3098 0115 03        		.uleb128 0x3
 3099 0116 0E        		.uleb128 0xe
 3100 0117 3A        		.uleb128 0x3a
 3101 0118 0B        		.uleb128 0xb
 3102 0119 3B        		.uleb128 0x3b
 3103 011a 05        		.uleb128 0x5
 3104 011b 49        		.uleb128 0x49
 3105 011c 13        		.uleb128 0x13
 3106 011d 00        		.byte	0x0
 3107 011e 00        		.byte	0x0
 3108 011f 16        		.uleb128 0x16
 3109 0120 0B        		.uleb128 0xb
 3110 0121 01        		.byte	0x1
 3111 0122 11        		.uleb128 0x11
 3112 0123 01        		.uleb128 0x1
 3113 0124 12        		.uleb128 0x12
 3114 0125 01        		.uleb128 0x1
 3115 0126 01        		.uleb128 0x1
 3116 0127 13        		.uleb128 0x13
 3117 0128 00        		.byte	0x0
 3118 0129 00        		.byte	0x0
 3119 012a 17        		.uleb128 0x17
 3120 012b 0B        		.uleb128 0xb
 3121 012c 01        		.byte	0x1
 3122 012d 11        		.uleb128 0x11
 3123 012e 01        		.uleb128 0x1
 3124 012f 12        		.uleb128 0x12
 3125 0130 01        		.uleb128 0x1
 3126 0131 00        		.byte	0x0
 3127 0132 00        		.byte	0x0
 3128 0133 18        		.uleb128 0x18
 3129 0134 34        		.uleb128 0x34
 3130 0135 00        		.byte	0x0
 3131 0136 03        		.uleb128 0x3
 3132 0137 0E        		.uleb128 0xe
 3133 0138 3A        		.uleb128 0x3a
 3134 0139 0B        		.uleb128 0xb
 3135 013a 3B        		.uleb128 0x3b
GAS LISTING C:\Users\ADMINI~1\AppData\Local\Temp/ccXldOo9.s 			page 56


 3136 013b 05        		.uleb128 0x5
 3137 013c 49        		.uleb128 0x49
 3138 013d 13        		.uleb128 0x13
 3139 013e 02        		.uleb128 0x2
 3140 013f 06        		.uleb128 0x6
 3141 0140 00        		.byte	0x0
 3142 0141 00        		.byte	0x0
 3143 0142 19        		.uleb128 0x19
 3144 0143 2E        		.uleb128 0x2e
 3145 0144 00        		.byte	0x0
 3146 0145 3F        		.uleb128 0x3f
 3147 0146 0C        		.uleb128 0xc
 3148 0147 03        		.uleb128 0x3
 3149 0148 0E        		.uleb128 0xe
 3150 0149 3A        		.uleb128 0x3a
 3151 014a 0B        		.uleb128 0xb
 3152 014b 3B        		.uleb128 0x3b
 3153 014c 05        		.uleb128 0x5
 3154 014d 27        		.uleb128 0x27
 3155 014e 0C        		.uleb128 0xc
 3156 014f 11        		.uleb128 0x11
 3157 0150 01        		.uleb128 0x1
 3158 0151 12        		.uleb128 0x12
 3159 0152 01        		.uleb128 0x1
 3160 0153 40        		.uleb128 0x40
 3161 0154 0A        		.uleb128 0xa
 3162 0155 00        		.byte	0x0
 3163 0156 00        		.byte	0x0
 3164 0157 1A        		.uleb128 0x1a
 3165 0158 34        		.uleb128 0x34
 3166 0159 00        		.byte	0x0
 3167 015a 03        		.uleb128 0x3
 3168 015b 08        		.uleb128 0x8
 3169 015c 3A        		.uleb128 0x3a
 3170 015d 0B        		.uleb128 0xb
 3171 015e 3B        		.uleb128 0x3b
 3172 015f 05        		.uleb128 0x5
 3173 0160 49        		.uleb128 0x49
 3174 0161 13        		.uleb128 0x13
 3175 0162 00        		.byte	0x0
 3176 0163 00        		.byte	0x0
 3177 0164 1B        		.uleb128 0x1b
 3178 0165 34        		.uleb128 0x34
 3179 0166 00        		.byte	0x0
 3180 0167 03        		.uleb128 0x3
 3181 0168 08        		.uleb128 0x8
 3182 0169 3A        		.uleb128 0x3a
 3183 016a 0B        		.uleb128 0xb
 3184 016b 3B        		.uleb128 0x3b
 3185 016c 05        		.uleb128 0x5
 3186 016d 49        		.uleb128 0x49
 3187 016e 13        		.uleb128 0x13
 3188 016f 02        		.uleb128 0x2
 3189 0170 06        		.uleb128 0x6
 3190 0171 00        		.byte	0x0
 3191 0172 00        		.byte	0x0
 3192 0173 1C        		.uleb128 0x1c
GAS LISTING C:\Users\ADMINI~1\AppData\Local\Temp/ccXldOo9.s 			page 57


 3193 0174 34        		.uleb128 0x34
 3194 0175 00        		.byte	0x0
 3195 0176 03        		.uleb128 0x3
 3196 0177 0E        		.uleb128 0xe
 3197 0178 3A        		.uleb128 0x3a
 3198 0179 0B        		.uleb128 0xb
 3199 017a 3B        		.uleb128 0x3b
 3200 017b 05        		.uleb128 0x5
 3201 017c 49        		.uleb128 0x49
 3202 017d 13        		.uleb128 0x13
 3203 017e 02        		.uleb128 0x2
 3204 017f 0A        		.uleb128 0xa
 3205 0180 00        		.byte	0x0
 3206 0181 00        		.byte	0x0
 3207 0182 1D        		.uleb128 0x1d
 3208 0183 2E        		.uleb128 0x2e
 3209 0184 01        		.byte	0x1
 3210 0185 3F        		.uleb128 0x3f
 3211 0186 0C        		.uleb128 0xc
 3212 0187 03        		.uleb128 0x3
 3213 0188 0E        		.uleb128 0xe
 3214 0189 3A        		.uleb128 0x3a
 3215 018a 0B        		.uleb128 0xb
 3216 018b 3B        		.uleb128 0x3b
 3217 018c 05        		.uleb128 0x5
 3218 018d 27        		.uleb128 0x27
 3219 018e 0C        		.uleb128 0xc
 3220 018f 11        		.uleb128 0x11
 3221 0190 01        		.uleb128 0x1
 3222 0191 12        		.uleb128 0x12
 3223 0192 01        		.uleb128 0x1
 3224 0193 40        		.uleb128 0x40
 3225 0194 0A        		.uleb128 0xa
 3226 0195 01        		.uleb128 0x1
 3227 0196 13        		.uleb128 0x13
 3228 0197 00        		.byte	0x0
 3229 0198 00        		.byte	0x0
 3230 0199 1E        		.uleb128 0x1e
 3231 019a 0F        		.uleb128 0xf
 3232 019b 00        		.byte	0x0
 3233 019c 0B        		.uleb128 0xb
 3234 019d 0B        		.uleb128 0xb
 3235 019e 49        		.uleb128 0x49
 3236 019f 13        		.uleb128 0x13
 3237 01a0 00        		.byte	0x0
 3238 01a1 00        		.byte	0x0
 3239 01a2 1F        		.uleb128 0x1f
 3240 01a3 05        		.uleb128 0x5
 3241 01a4 00        		.byte	0x0
 3242 01a5 03        		.uleb128 0x3
 3243 01a6 08        		.uleb128 0x8
 3244 01a7 3A        		.uleb128 0x3a
 3245 01a8 0B        		.uleb128 0xb
 3246 01a9 3B        		.uleb128 0x3b
 3247 01aa 05        		.uleb128 0x5
 3248 01ab 49        		.uleb128 0x49
 3249 01ac 13        		.uleb128 0x13
GAS LISTING C:\Users\ADMINI~1\AppData\Local\Temp/ccXldOo9.s 			page 58


 3250 01ad 02        		.uleb128 0x2
 3251 01ae 06        		.uleb128 0x6
 3252 01af 00        		.byte	0x0
 3253 01b0 00        		.byte	0x0
 3254 01b1 20        		.uleb128 0x20
 3255 01b2 34        		.uleb128 0x34
 3256 01b3 00        		.byte	0x0
 3257 01b4 03        		.uleb128 0x3
 3258 01b5 0E        		.uleb128 0xe
 3259 01b6 3A        		.uleb128 0x3a
 3260 01b7 0B        		.uleb128 0xb
 3261 01b8 3B        		.uleb128 0x3b
 3262 01b9 0B        		.uleb128 0xb
 3263 01ba 49        		.uleb128 0x49
 3264 01bb 13        		.uleb128 0x13
 3265 01bc 02        		.uleb128 0x2
 3266 01bd 0A        		.uleb128 0xa
 3267 01be 00        		.byte	0x0
 3268 01bf 00        		.byte	0x0
 3269 01c0 21        		.uleb128 0x21
 3270 01c1 34        		.uleb128 0x34
 3271 01c2 00        		.byte	0x0
 3272 01c3 03        		.uleb128 0x3
 3273 01c4 0E        		.uleb128 0xe
 3274 01c5 3A        		.uleb128 0x3a
 3275 01c6 0B        		.uleb128 0xb
 3276 01c7 3B        		.uleb128 0x3b
 3277 01c8 0B        		.uleb128 0xb
 3278 01c9 49        		.uleb128 0x49
 3279 01ca 13        		.uleb128 0x13
 3280 01cb 3F        		.uleb128 0x3f
 3281 01cc 0C        		.uleb128 0xc
 3282 01cd 3C        		.uleb128 0x3c
 3283 01ce 0C        		.uleb128 0xc
 3284 01cf 00        		.byte	0x0
 3285 01d0 00        		.byte	0x0
 3286 01d1 22        		.uleb128 0x22
 3287 01d2 21        		.uleb128 0x21
 3288 01d3 00        		.byte	0x0
 3289 01d4 00        		.byte	0x0
 3290 01d5 00        		.byte	0x0
 3291 01d6 23        		.uleb128 0x23
 3292 01d7 26        		.uleb128 0x26
 3293 01d8 00        		.byte	0x0
 3294 01d9 49        		.uleb128 0x49
 3295 01da 13        		.uleb128 0x13
 3296 01db 00        		.byte	0x0
 3297 01dc 00        		.byte	0x0
 3298 01dd 24        		.uleb128 0x24
 3299 01de 34        		.uleb128 0x34
 3300 01df 00        		.byte	0x0
 3301 01e0 03        		.uleb128 0x3
 3302 01e1 0E        		.uleb128 0xe
 3303 01e2 3A        		.uleb128 0x3a
 3304 01e3 0B        		.uleb128 0xb
 3305 01e4 3B        		.uleb128 0x3b
 3306 01e5 05        		.uleb128 0x5
GAS LISTING C:\Users\ADMINI~1\AppData\Local\Temp/ccXldOo9.s 			page 59


 3307 01e6 49        		.uleb128 0x49
 3308 01e7 13        		.uleb128 0x13
 3309 01e8 3F        		.uleb128 0x3f
 3310 01e9 0C        		.uleb128 0xc
 3311 01ea 02        		.uleb128 0x2
 3312 01eb 0A        		.uleb128 0xa
 3313 01ec 00        		.byte	0x0
 3314 01ed 00        		.byte	0x0
 3315 01ee 25        		.uleb128 0x25
 3316 01ef 34        		.uleb128 0x34
 3317 01f0 00        		.byte	0x0
 3318 01f1 03        		.uleb128 0x3
 3319 01f2 0E        		.uleb128 0xe
 3320 01f3 3A        		.uleb128 0x3a
 3321 01f4 0B        		.uleb128 0xb
 3322 01f5 3B        		.uleb128 0x3b
 3323 01f6 05        		.uleb128 0x5
 3324 01f7 49        		.uleb128 0x49
 3325 01f8 13        		.uleb128 0x13
 3326 01f9 3F        		.uleb128 0x3f
 3327 01fa 0C        		.uleb128 0xc
 3328 01fb 3C        		.uleb128 0x3c
 3329 01fc 0C        		.uleb128 0xc
 3330 01fd 00        		.byte	0x0
 3331 01fe 00        		.byte	0x0
 3332 01ff 00        		.byte	0x0
 3333               		.section	.debug_pubnames,"",@progbits
 3334 0000 1201 0000 		.long	0x112
 3335 0004 0200      		.word	0x2
 3336 0006 0000 0000 		.long	.Ldebug_info0
 3337 000a 730A 0000 		.long	0xa73
 3338 000e C405 0000 		.long	0x5c4
 3339 0012 6861 734D 		.string	"hasMacroUsb"
 3339      6163 726F 
 3339      5573 6200 
 3340 001e DD05 0000 		.long	0x5dd
 3341 0022 6D61 6B65 		.string	"makeReportBuffer"
 3341      5265 706F 
 3341      7274 4275 
 3341      6666 6572 
 3341      00
 3342 0033 8506 0000 		.long	0x685
 3343 0037 636C 6561 		.string	"clearReportBuffer"
 3343      7252 6570 
 3343      6F72 7442 
 3343      7566 6665 
 3343      7200 
 3344 0049 9A06 0000 		.long	0x69a
 3345 004d 7363 616E 		.string	"scanMacroUsb"
 3345      4D61 6372 
 3345      6F55 7362 
 3345      00
 3346 005a F806 0000 		.long	0x6f8
 3347 005e 7363 616E 		.string	"scanKeyUSB"
 3347      4B65 7955 
 3347      5342 00
 3348 0069 B707 0000 		.long	0x7b7
GAS LISTING C:\Users\ADMINI~1\AppData\Local\Temp/ccXldOo9.s 			page 60


 3349 006d 7573 625F 		.string	"usb_main"
 3349      6D61 696E 
 3349      00
 3350 0076 F107 0000 		.long	0x7f1
 3351 007a 7072 6570 		.string	"prepareKeyMappingUsb"
 3351      6172 654B 
 3351      6579 4D61 
 3351      7070 696E 
 3351      6755 7362 
 3352 008f 0608 0000 		.long	0x806
 3353 0093 696E 6974 		.string	"initInterfaceUsb"
 3353      496E 7465 
 3353      7266 6163 
 3353      6555 7362 
 3353      00
 3354 00a4 1B08 0000 		.long	0x81b
 3355 00a8 7573 6246 		.string	"usbFunctionSetup"
 3355      756E 6374 
 3355      696F 6E53 
 3355      6574 7570 
 3355      00
 3356 00b9 6408 0000 		.long	0x864
 3357 00bd 7573 6246 		.string	"usbFunctionWrite"
 3357      756E 6374 
 3357      696F 6E57 
 3357      7269 7465 
 3357      00
 3358 00ce 9909 0000 		.long	0x999
 3359 00d2 7573 6244 		.string	"usbDescriptorHidReport"
 3359      6573 6372 
 3359      6970 746F 
 3359      7248 6964 
 3359      5265 706F 
 3360 00e9 4C0A 0000 		.long	0xa4c
 3361 00ed 7265 706F 		.string	"reportIndex"
 3361      7274 496E 
 3361      6465 7800 
 3362 00f9 5F0A 0000 		.long	0xa5f
 3363 00fd 5F69 734D 		.string	"_isMultimediaPressed"
 3363      756C 7469 
 3363      6D65 6469 
 3363      6150 7265 
 3363      7373 6564 
 3364 0112 0000 0000 		.long	0x0
 3365               		.section	.debug_aranges,"",@progbits
 3366 0000 1C00 0000 		.long	0x1c
 3367 0004 0200      		.word	0x2
 3368 0006 0000 0000 		.long	.Ldebug_info0
 3369 000a 04        		.byte	0x4
 3370 000b 00        		.byte	0x0
 3371 000c 0000      		.word	0x0
 3372 000e 0000      		.word	0x0
 3373 0010 0000 0000 		.long	.Ltext0
 3374 0014 5605 0000 		.long	.Letext0-.Ltext0
 3375 0018 0000 0000 		.long	0x0
 3376 001c 0000 0000 		.long	0x0
 3377               		.section	.debug_line
GAS LISTING C:\Users\ADMINI~1\AppData\Local\Temp/ccXldOo9.s 			page 61


 3378 0000 E805 0000 		.long	.LELT0-.LSLT0
 3379               	.LSLT0:
 3380 0004 0200      		.word	0x2
 3381 0006 A700 0000 		.long	.LELTP0-.LASLTP0
 3382               	.LASLTP0:
 3383 000a 01        		.byte	0x1
 3384 000b 01        		.byte	0x1
 3385 000c F6        		.byte	0xf6
 3386 000d F5        		.byte	0xf5
 3387 000e 0A        		.byte	0xa
 3388 000f 00        		.byte	0x0
 3389 0010 01        		.byte	0x1
 3390 0011 01        		.byte	0x1
 3391 0012 01        		.byte	0x1
 3392 0013 01        		.byte	0x1
 3393 0014 00        		.byte	0x0
 3394 0015 00        		.byte	0x0
 3395 0016 00        		.byte	0x0
 3396 0017 01        		.byte	0x1
 3397 0018 633A 2F77 		.ascii	"c:/winavr-20100110/lib/gcc/../../avr/include"
 3397      696E 6176 
 3397      722D 3230 
 3397      3130 3031 
 3397      3130 2F6C 
 3398 0044 00        		.byte	0
 3399 0045 7573 6264 		.ascii	"usbdrv"
 3399      7276 
 3400 004b 00        		.byte	0
 3401 004c 00        		.byte	0x0
 3402 004d 7573 626D 		.string	"usbmain.c"
 3402      6169 6E2E 
 3402      6300 
 3403 0057 00        		.uleb128 0x0
 3404 0058 00        		.uleb128 0x0
 3405 0059 00        		.uleb128 0x0
 3406 005a 7374 6469 		.string	"stdint.h"
 3406      6E74 2E68 
 3406      00
 3407 0063 01        		.uleb128 0x1
 3408 0064 00        		.uleb128 0x0
 3409 0065 00        		.uleb128 0x0
 3410 0066 6B65 796D 		.string	"keymap.h"
 3410      6170 2E68 
 3410      00
 3411 006f 00        		.uleb128 0x0
 3412 0070 00        		.uleb128 0x0
 3413 0071 00        		.uleb128 0x0
 3414 0072 7573 6264 		.string	"usbdrv.h"
 3414      7276 2E68 
 3414      00
 3415 007b 02        		.uleb128 0x2
 3416 007c 00        		.uleb128 0x0
 3417 007d 00        		.uleb128 0x0
 3418 007e 6861 7264 		.string	"hardwareinfo.h"
 3418      7761 7265 
 3418      696E 666F 
 3418      2E68 00
GAS LISTING C:\Users\ADMINI~1\AppData\Local\Temp/ccXldOo9.s 			page 62


 3419 008d 00        		.uleb128 0x0
 3420 008e 00        		.uleb128 0x0
 3421 008f 00        		.uleb128 0x0
 3422 0090 6B65 796D 		.string	"keymatrix.h"
 3422      6174 7269 
 3422      782E 6800 
 3423 009c 00        		.uleb128 0x0
 3424 009d 00        		.uleb128 0x0
 3425 009e 00        		.uleb128 0x0
 3426 009f 6D61 6372 		.string	"macrobuffer.h"
 3426      6F62 7566 
 3426      6665 722E 
 3426      6800 
 3427 00ad 00        		.uleb128 0x0
 3428 00ae 00        		.uleb128 0x0
 3429 00af 00        		.uleb128 0x0
 3430 00b0 00        		.byte	0x0
 3431               	.LELTP0:
 3432 00b1 00        		.byte	0x0
 3433 00b2 05        		.uleb128 0x5
 3434 00b3 02        		.byte	0x2
 3435 00b4 0000 0000 		.long	.LM1
 3436 00b8 03        		.byte	0x3
 3437 00b9 E004      		.sleb128 608
 3438 00bb 01        		.byte	0x1
 3439 00bc 00        		.byte	0x0
 3440 00bd 05        		.uleb128 0x5
 3441 00be 02        		.byte	0x2
 3442 00bf 0000 0000 		.long	.LM2
 3443 00c3 15        		.byte	0x15
 3444 00c4 00        		.byte	0x0
 3445 00c5 05        		.uleb128 0x5
 3446 00c6 02        		.byte	0x2
 3447 00c7 0000 0000 		.long	.LM3
 3448 00cb 15        		.byte	0x15
 3449 00cc 00        		.byte	0x0
 3450 00cd 05        		.uleb128 0x5
 3451 00ce 02        		.byte	0x2
 3452 00cf 0000 0000 		.long	.LM4
 3453 00d3 03        		.byte	0x3
 3454 00d4 BD7E      		.sleb128 -195
 3455 00d6 01        		.byte	0x1
 3456 00d7 00        		.byte	0x0
 3457 00d8 05        		.uleb128 0x5
 3458 00d9 02        		.byte	0x2
 3459 00da 0000 0000 		.long	.LM5
 3460 00de 19        		.byte	0x19
 3461 00df 00        		.byte	0x0
 3462 00e0 05        		.uleb128 0x5
 3463 00e1 02        		.byte	0x2
 3464 00e2 0000 0000 		.long	.LM6
 3465 00e6 16        		.byte	0x16
 3466 00e7 00        		.byte	0x0
 3467 00e8 05        		.uleb128 0x5
 3468 00e9 02        		.byte	0x2
 3469 00ea 0000 0000 		.long	.LM7
 3470 00ee 16        		.byte	0x16
GAS LISTING C:\Users\ADMINI~1\AppData\Local\Temp/ccXldOo9.s 			page 63


 3471 00ef 00        		.byte	0x0
 3472 00f0 05        		.uleb128 0x5
 3473 00f1 02        		.byte	0x2
 3474 00f2 0000 0000 		.long	.LM8
 3475 00f6 15        		.byte	0x15
 3476 00f7 00        		.byte	0x0
 3477 00f8 05        		.uleb128 0x5
 3478 00f9 02        		.byte	0x2
 3479 00fa 0000 0000 		.long	.LM9
 3480 00fe 16        		.byte	0x16
 3481 00ff 00        		.byte	0x0
 3482 0100 05        		.uleb128 0x5
 3483 0101 02        		.byte	0x2
 3484 0102 0000 0000 		.long	.LM10
 3485 0106 15        		.byte	0x15
 3486 0107 00        		.byte	0x0
 3487 0108 05        		.uleb128 0x5
 3488 0109 02        		.byte	0x2
 3489 010a 0000 0000 		.long	.LM11
 3490 010e 15        		.byte	0x15
 3491 010f 00        		.byte	0x0
 3492 0110 05        		.uleb128 0x5
 3493 0111 02        		.byte	0x2
 3494 0112 0000 0000 		.long	.LM12
 3495 0116 15        		.byte	0x15
 3496 0117 00        		.byte	0x0
 3497 0118 05        		.uleb128 0x5
 3498 0119 02        		.byte	0x2
 3499 011a 0000 0000 		.long	.LM13
 3500 011e 17        		.byte	0x17
 3501 011f 00        		.byte	0x0
 3502 0120 05        		.uleb128 0x5
 3503 0121 02        		.byte	0x2
 3504 0122 0000 0000 		.long	.LM14
 3505 0126 15        		.byte	0x15
 3506 0127 00        		.byte	0x0
 3507 0128 05        		.uleb128 0x5
 3508 0129 02        		.byte	0x2
 3509 012a 0000 0000 		.long	.LM15
 3510 012e 1A        		.byte	0x1a
 3511 012f 00        		.byte	0x0
 3512 0130 05        		.uleb128 0x5
 3513 0131 02        		.byte	0x2
 3514 0132 0000 0000 		.long	.LM16
 3515 0136 15        		.byte	0x15
 3516 0137 00        		.byte	0x0
 3517 0138 05        		.uleb128 0x5
 3518 0139 02        		.byte	0x2
 3519 013a 0000 0000 		.long	.LM17
 3520 013e 1C        		.byte	0x1c
 3521 013f 00        		.byte	0x0
 3522 0140 05        		.uleb128 0x5
 3523 0141 02        		.byte	0x2
 3524 0142 0000 0000 		.long	.LM18
 3525 0146 15        		.byte	0x15
 3526 0147 00        		.byte	0x0
 3527 0148 05        		.uleb128 0x5
GAS LISTING C:\Users\ADMINI~1\AppData\Local\Temp/ccXldOo9.s 			page 64


 3528 0149 02        		.byte	0x2
 3529 014a 0000 0000 		.long	.LM19
 3530 014e 16        		.byte	0x16
 3531 014f 00        		.byte	0x0
 3532 0150 05        		.uleb128 0x5
 3533 0151 02        		.byte	0x2
 3534 0152 0000 0000 		.long	.LM20
 3535 0156 15        		.byte	0x15
 3536 0157 00        		.byte	0x0
 3537 0158 05        		.uleb128 0x5
 3538 0159 02        		.byte	0x2
 3539 015a 0000 0000 		.long	.LM21
 3540 015e 19        		.byte	0x19
 3541 015f 00        		.byte	0x0
 3542 0160 05        		.uleb128 0x5
 3543 0161 02        		.byte	0x2
 3544 0162 0000 0000 		.long	.LM22
 3545 0166 16        		.byte	0x16
 3546 0167 00        		.byte	0x0
 3547 0168 05        		.uleb128 0x5
 3548 0169 02        		.byte	0x2
 3549 016a 0000 0000 		.long	.LM23
 3550 016e 15        		.byte	0x15
 3551 016f 00        		.byte	0x0
 3552 0170 05        		.uleb128 0x5
 3553 0171 02        		.byte	0x2
 3554 0172 0000 0000 		.long	.LM24
 3555 0176 15        		.byte	0x15
 3556 0177 00        		.byte	0x0
 3557 0178 05        		.uleb128 0x5
 3558 0179 02        		.byte	0x2
 3559 017a 0000 0000 		.long	.LM25
 3560 017e 15        		.byte	0x15
 3561 017f 00        		.byte	0x0
 3562 0180 05        		.uleb128 0x5
 3563 0181 02        		.byte	0x2
 3564 0182 0000 0000 		.long	.LM26
 3565 0186 7D        		.byte	0x7d
 3566 0187 00        		.byte	0x0
 3567 0188 05        		.uleb128 0x5
 3568 0189 02        		.byte	0x2
 3569 018a 0000 0000 		.long	.LM27
 3570 018e 15        		.byte	0x15
 3571 018f 00        		.byte	0x0
 3572 0190 05        		.uleb128 0x5
 3573 0191 02        		.byte	0x2
 3574 0192 0000 0000 		.long	.LM28
 3575 0196 17        		.byte	0x17
 3576 0197 00        		.byte	0x0
 3577 0198 05        		.uleb128 0x5
 3578 0199 02        		.byte	0x2
 3579 019a 0000 0000 		.long	.LM29
 3580 019e 16        		.byte	0x16
 3581 019f 00        		.byte	0x0
 3582 01a0 05        		.uleb128 0x5
 3583 01a1 02        		.byte	0x2
 3584 01a2 0000 0000 		.long	.LM30
GAS LISTING C:\Users\ADMINI~1\AppData\Local\Temp/ccXldOo9.s 			page 65


 3585 01a6 17        		.byte	0x17
 3586 01a7 00        		.byte	0x0
 3587 01a8 05        		.uleb128 0x5
 3588 01a9 02        		.byte	0x2
 3589 01aa 0000 0000 		.long	.LM31
 3590 01ae 16        		.byte	0x16
 3591 01af 00        		.byte	0x0
 3592 01b0 05        		.uleb128 0x5
 3593 01b1 02        		.byte	0x2
 3594 01b2 0000 0000 		.long	.LM32
 3595 01b6 15        		.byte	0x15
 3596 01b7 00        		.byte	0x0
 3597 01b8 05        		.uleb128 0x5
 3598 01b9 02        		.byte	0x2
 3599 01ba 0000 0000 		.long	.LM33
 3600 01be 1C        		.byte	0x1c
 3601 01bf 00        		.byte	0x0
 3602 01c0 05        		.uleb128 0x5
 3603 01c1 02        		.byte	0x2
 3604 01c2 0000 0000 		.long	.LM34
 3605 01c6 0E        		.byte	0xe
 3606 01c7 00        		.byte	0x0
 3607 01c8 05        		.uleb128 0x5
 3608 01c9 02        		.byte	0x2
 3609 01ca 0000 0000 		.long	.LM35
 3610 01ce 17        		.byte	0x17
 3611 01cf 00        		.byte	0x0
 3612 01d0 05        		.uleb128 0x5
 3613 01d1 02        		.byte	0x2
 3614 01d2 0000 0000 		.long	.LM36
 3615 01d6 17        		.byte	0x17
 3616 01d7 00        		.byte	0x0
 3617 01d8 05        		.uleb128 0x5
 3618 01d9 02        		.byte	0x2
 3619 01da 0000 0000 		.long	.LM37
 3620 01de 15        		.byte	0x15
 3621 01df 00        		.byte	0x0
 3622 01e0 05        		.uleb128 0x5
 3623 01e1 02        		.byte	0x2
 3624 01e2 0000 0000 		.long	.LM38
 3625 01e6 15        		.byte	0x15
 3626 01e7 00        		.byte	0x0
 3627 01e8 05        		.uleb128 0x5
 3628 01e9 02        		.byte	0x2
 3629 01ea 0000 0000 		.long	.LM39
 3630 01ee 0A        		.byte	0xa
 3631 01ef 00        		.byte	0x0
 3632 01f0 05        		.uleb128 0x5
 3633 01f1 02        		.byte	0x2
 3634 01f2 0000 0000 		.long	.LM40
 3635 01f6 22        		.byte	0x22
 3636 01f7 00        		.byte	0x0
 3637 01f8 05        		.uleb128 0x5
 3638 01f9 02        		.byte	0x2
 3639 01fa 0000 0000 		.long	.LM41
 3640 01fe 16        		.byte	0x16
 3641 01ff 00        		.byte	0x0
GAS LISTING C:\Users\ADMINI~1\AppData\Local\Temp/ccXldOo9.s 			page 66


 3642 0200 05        		.uleb128 0x5
 3643 0201 02        		.byte	0x2
 3644 0202 0000 0000 		.long	.LM42
 3645 0206 16        		.byte	0x16
 3646 0207 00        		.byte	0x0
 3647 0208 05        		.uleb128 0x5
 3648 0209 02        		.byte	0x2
 3649 020a 0000 0000 		.long	.LM43
 3650 020e 15        		.byte	0x15
 3651 020f 00        		.byte	0x0
 3652 0210 05        		.uleb128 0x5
 3653 0211 02        		.byte	0x2
 3654 0212 0000 0000 		.long	.LM44
 3655 0216 15        		.byte	0x15
 3656 0217 00        		.byte	0x0
 3657 0218 05        		.uleb128 0x5
 3658 0219 02        		.byte	0x2
 3659 021a 0000 0000 		.long	.LM45
 3660 021e 1A        		.byte	0x1a
 3661 021f 00        		.byte	0x0
 3662 0220 05        		.uleb128 0x5
 3663 0221 02        		.byte	0x2
 3664 0222 0000 0000 		.long	.LM46
 3665 0226 03        		.byte	0x3
 3666 0227 F37E      		.sleb128 -141
 3667 0229 01        		.byte	0x1
 3668 022a 00        		.byte	0x0
 3669 022b 05        		.uleb128 0x5
 3670 022c 02        		.byte	0x2
 3671 022d 0000 0000 		.long	.LM47
 3672 0231 18        		.byte	0x18
 3673 0232 00        		.byte	0x0
 3674 0233 05        		.uleb128 0x5
 3675 0234 02        		.byte	0x2
 3676 0235 0000 0000 		.long	.LM48
 3677 0239 17        		.byte	0x17
 3678 023a 00        		.byte	0x0
 3679 023b 05        		.uleb128 0x5
 3680 023c 02        		.byte	0x2
 3681 023d 0000 0000 		.long	.LM49
 3682 0241 18        		.byte	0x18
 3683 0242 00        		.byte	0x0
 3684 0243 05        		.uleb128 0x5
 3685 0244 02        		.byte	0x2
 3686 0245 0000 0000 		.long	.LM50
 3687 0249 15        		.byte	0x15
 3688 024a 00        		.byte	0x0
 3689 024b 05        		.uleb128 0x5
 3690 024c 02        		.byte	0x2
 3691 024d 0000 0000 		.long	.LM51
 3692 0251 1A        		.byte	0x1a
 3693 0252 00        		.byte	0x0
 3694 0253 05        		.uleb128 0x5
 3695 0254 02        		.byte	0x2
 3696 0255 0000 0000 		.long	.LM52
 3697 0259 0E        		.byte	0xe
 3698 025a 00        		.byte	0x0
GAS LISTING C:\Users\ADMINI~1\AppData\Local\Temp/ccXldOo9.s 			page 67


 3699 025b 05        		.uleb128 0x5
 3700 025c 02        		.byte	0x2
 3701 025d 0000 0000 		.long	.LM53
 3702 0261 1A        		.byte	0x1a
 3703 0262 00        		.byte	0x0
 3704 0263 05        		.uleb128 0x5
 3705 0264 02        		.byte	0x2
 3706 0265 0000 0000 		.long	.LM54
 3707 0269 15        		.byte	0x15
 3708 026a 00        		.byte	0x0
 3709 026b 05        		.uleb128 0x5
 3710 026c 02        		.byte	0x2
 3711 026d 0000 0000 		.long	.LM55
 3712 0271 16        		.byte	0x16
 3713 0272 00        		.byte	0x0
 3714 0273 05        		.uleb128 0x5
 3715 0274 02        		.byte	0x2
 3716 0275 0000 0000 		.long	.LM56
 3717 0279 17        		.byte	0x17
 3718 027a 00        		.byte	0x0
 3719 027b 05        		.uleb128 0x5
 3720 027c 02        		.byte	0x2
 3721 027d 0000 0000 		.long	.LM57
 3722 0281 0E        		.byte	0xe
 3723 0282 00        		.byte	0x0
 3724 0283 05        		.uleb128 0x5
 3725 0284 02        		.byte	0x2
 3726 0285 0000 0000 		.long	.LM58
 3727 0289 23        		.byte	0x23
 3728 028a 00        		.byte	0x0
 3729 028b 05        		.uleb128 0x5
 3730 028c 02        		.byte	0x2
 3731 028d 0000 0000 		.long	.LM59
 3732 0291 15        		.byte	0x15
 3733 0292 00        		.byte	0x0
 3734 0293 05        		.uleb128 0x5
 3735 0294 02        		.byte	0x2
 3736 0295 0000 0000 		.long	.LM60
 3737 0299 16        		.byte	0x16
 3738 029a 00        		.byte	0x0
 3739 029b 05        		.uleb128 0x5
 3740 029c 02        		.byte	0x2
 3741 029d 0000 0000 		.long	.LM61
 3742 02a1 15        		.byte	0x15
 3743 02a2 00        		.byte	0x0
 3744 02a3 05        		.uleb128 0x5
 3745 02a4 02        		.byte	0x2
 3746 02a5 0000 0000 		.long	.LM62
 3747 02a9 16        		.byte	0x16
 3748 02aa 00        		.byte	0x0
 3749 02ab 05        		.uleb128 0x5
 3750 02ac 02        		.byte	0x2
 3751 02ad 0000 0000 		.long	.LM63
 3752 02b1 16        		.byte	0x16
 3753 02b2 00        		.byte	0x0
 3754 02b3 05        		.uleb128 0x5
 3755 02b4 02        		.byte	0x2
GAS LISTING C:\Users\ADMINI~1\AppData\Local\Temp/ccXldOo9.s 			page 68


 3756 02b5 0000 0000 		.long	.LM64
 3757 02b9 15        		.byte	0x15
 3758 02ba 00        		.byte	0x0
 3759 02bb 05        		.uleb128 0x5
 3760 02bc 02        		.byte	0x2
 3761 02bd 0000 0000 		.long	.LM65
 3762 02c1 19        		.byte	0x19
 3763 02c2 00        		.byte	0x0
 3764 02c3 05        		.uleb128 0x5
 3765 02c4 02        		.byte	0x2
 3766 02c5 0000 0000 		.long	.LM66
 3767 02c9 19        		.byte	0x19
 3768 02ca 00        		.byte	0x0
 3769 02cb 05        		.uleb128 0x5
 3770 02cc 02        		.byte	0x2
 3771 02cd 0000 0000 		.long	.LM67
 3772 02d1 15        		.byte	0x15
 3773 02d2 00        		.byte	0x0
 3774 02d3 05        		.uleb128 0x5
 3775 02d4 02        		.byte	0x2
 3776 02d5 0000 0000 		.long	.LM68
 3777 02d9 15        		.byte	0x15
 3778 02da 00        		.byte	0x0
 3779 02db 05        		.uleb128 0x5
 3780 02dc 02        		.byte	0x2
 3781 02dd 0000 0000 		.long	.LM69
 3782 02e1 16        		.byte	0x16
 3783 02e2 00        		.byte	0x0
 3784 02e3 05        		.uleb128 0x5
 3785 02e4 02        		.byte	0x2
 3786 02e5 0000 0000 		.long	.LM70
 3787 02e9 1C        		.byte	0x1c
 3788 02ea 00        		.byte	0x0
 3789 02eb 05        		.uleb128 0x5
 3790 02ec 02        		.byte	0x2
 3791 02ed 0000 0000 		.long	.LM71
 3792 02f1 17        		.byte	0x17
 3793 02f2 00        		.byte	0x0
 3794 02f3 05        		.uleb128 0x5
 3795 02f4 02        		.byte	0x2
 3796 02f5 0000 0000 		.long	.LM72
 3797 02f9 16        		.byte	0x16
 3798 02fa 00        		.byte	0x0
 3799 02fb 05        		.uleb128 0x5
 3800 02fc 02        		.byte	0x2
 3801 02fd 0000 0000 		.long	.LM73
 3802 0301 03        		.byte	0x3
 3803 0302 4A        		.sleb128 -54
 3804 0303 01        		.byte	0x1
 3805 0304 00        		.byte	0x0
 3806 0305 05        		.uleb128 0x5
 3807 0306 02        		.byte	0x2
 3808 0307 0000 0000 		.long	.LM74
 3809 030b 13        		.byte	0x13
 3810 030c 00        		.byte	0x0
 3811 030d 05        		.uleb128 0x5
 3812 030e 02        		.byte	0x2
GAS LISTING C:\Users\ADMINI~1\AppData\Local\Temp/ccXldOo9.s 			page 69


 3813 030f 0000 0000 		.long	.LM75
 3814 0313 18        		.byte	0x18
 3815 0314 00        		.byte	0x0
 3816 0315 05        		.uleb128 0x5
 3817 0316 02        		.byte	0x2
 3818 0317 0000 0000 		.long	.LM76
 3819 031b 4D        		.byte	0x4d
 3820 031c 00        		.byte	0x0
 3821 031d 05        		.uleb128 0x5
 3822 031e 02        		.byte	0x2
 3823 031f 0000 0000 		.long	.LM77
 3824 0323 15        		.byte	0x15
 3825 0324 00        		.byte	0x0
 3826 0325 05        		.uleb128 0x5
 3827 0326 02        		.byte	0x2
 3828 0327 0000 0000 		.long	.LM78
 3829 032b 15        		.byte	0x15
 3830 032c 00        		.byte	0x0
 3831 032d 05        		.uleb128 0x5
 3832 032e 02        		.byte	0x2
 3833 032f 0000 0000 		.long	.LM79
 3834 0333 18        		.byte	0x18
 3835 0334 00        		.byte	0x0
 3836 0335 05        		.uleb128 0x5
 3837 0336 02        		.byte	0x2
 3838 0337 0000 0000 		.long	.LM80
 3839 033b 15        		.byte	0x15
 3840 033c 00        		.byte	0x0
 3841 033d 05        		.uleb128 0x5
 3842 033e 02        		.byte	0x2
 3843 033f 0000 0000 		.long	.LM81
 3844 0343 15        		.byte	0x15
 3845 0344 00        		.byte	0x0
 3846 0345 05        		.uleb128 0x5
 3847 0346 02        		.byte	0x2
 3848 0347 0000 0000 		.long	.LM82
 3849 034b 15        		.byte	0x15
 3850 034c 00        		.byte	0x0
 3851 034d 05        		.uleb128 0x5
 3852 034e 02        		.byte	0x2
 3853 034f 0000 0000 		.long	.LM83
 3854 0353 15        		.byte	0x15
 3855 0354 00        		.byte	0x0
 3856 0355 05        		.uleb128 0x5
 3857 0356 02        		.byte	0x2
 3858 0357 0000 0000 		.long	.LM84
 3859 035b 1A        		.byte	0x1a
 3860 035c 00        		.byte	0x0
 3861 035d 05        		.uleb128 0x5
 3862 035e 02        		.byte	0x2
 3863 035f 0000 0000 		.long	.LM85
 3864 0363 13        		.byte	0x13
 3865 0364 00        		.byte	0x0
 3866 0365 05        		.uleb128 0x5
 3867 0366 02        		.byte	0x2
 3868 0367 0000 0000 		.long	.LM86
 3869 036b 18        		.byte	0x18
GAS LISTING C:\Users\ADMINI~1\AppData\Local\Temp/ccXldOo9.s 			page 70


 3870 036c 00        		.byte	0x0
 3871 036d 05        		.uleb128 0x5
 3872 036e 02        		.byte	0x2
 3873 036f 0000 0000 		.long	.LM87
 3874 0373 16        		.byte	0x16
 3875 0374 00        		.byte	0x0
 3876 0375 05        		.uleb128 0x5
 3877 0376 02        		.byte	0x2
 3878 0377 0000 0000 		.long	.LM88
 3879 037b 0C        		.byte	0xc
 3880 037c 00        		.byte	0x0
 3881 037d 05        		.uleb128 0x5
 3882 037e 02        		.byte	0x2
 3883 037f 0000 0000 		.long	.LM89
 3884 0383 1E        		.byte	0x1e
 3885 0384 00        		.byte	0x0
 3886 0385 05        		.uleb128 0x5
 3887 0386 02        		.byte	0x2
 3888 0387 0000 0000 		.long	.LM90
 3889 038b 15        		.byte	0x15
 3890 038c 00        		.byte	0x0
 3891 038d 05        		.uleb128 0x5
 3892 038e 02        		.byte	0x2
 3893 038f 0000 0000 		.long	.LM91
 3894 0393 13        		.byte	0x13
 3895 0394 00        		.byte	0x0
 3896 0395 05        		.uleb128 0x5
 3897 0396 02        		.byte	0x2
 3898 0397 0000 0000 		.long	.LM92
 3899 039b 4A        		.byte	0x4a
 3900 039c 00        		.byte	0x0
 3901 039d 05        		.uleb128 0x5
 3902 039e 02        		.byte	0x2
 3903 039f 0000 0000 		.long	.LM93
 3904 03a3 16        		.byte	0x16
 3905 03a4 00        		.byte	0x0
 3906 03a5 05        		.uleb128 0x5
 3907 03a6 02        		.byte	0x2
 3908 03a7 0000 0000 		.long	.LM94
 3909 03ab 1B        		.byte	0x1b
 3910 03ac 00        		.byte	0x0
 3911 03ad 05        		.uleb128 0x5
 3912 03ae 02        		.byte	0x2
 3913 03af 0000 0000 		.long	.LM95
 3914 03b3 2B        		.byte	0x2b
 3915 03b4 00        		.byte	0x0
 3916 03b5 05        		.uleb128 0x5
 3917 03b6 02        		.byte	0x2
 3918 03b7 0000 0000 		.long	.LM96
 3919 03bb 03        		.byte	0x3
 3920 03bc 70        		.sleb128 -16
 3921 03bd 01        		.byte	0x1
 3922 03be 00        		.byte	0x0
 3923 03bf 05        		.uleb128 0x5
 3924 03c0 02        		.byte	0x2
 3925 03c1 0000 0000 		.long	.LM97
 3926 03c5 16        		.byte	0x16
GAS LISTING C:\Users\ADMINI~1\AppData\Local\Temp/ccXldOo9.s 			page 71


 3927 03c6 00        		.byte	0x0
 3928 03c7 05        		.uleb128 0x5
 3929 03c8 02        		.byte	0x2
 3930 03c9 0000 0000 		.long	.LM98
 3931 03cd 5B        		.byte	0x5b
 3932 03ce 00        		.byte	0x0
 3933 03cf 05        		.uleb128 0x5
 3934 03d0 02        		.byte	0x2
 3935 03d1 0000 0000 		.long	.LM99
 3936 03d5 17        		.byte	0x17
 3937 03d6 00        		.byte	0x0
 3938 03d7 05        		.uleb128 0x5
 3939 03d8 02        		.byte	0x2
 3940 03d9 0000 0000 		.long	.LM100
 3941 03dd 03        		.byte	0x3
 3942 03de BC7F      		.sleb128 -68
 3943 03e0 01        		.byte	0x1
 3944 03e1 00        		.byte	0x0
 3945 03e2 05        		.uleb128 0x5
 3946 03e3 02        		.byte	0x2
 3947 03e4 0000 0000 		.long	.LM101
 3948 03e8 16        		.byte	0x16
 3949 03e9 00        		.byte	0x0
 3950 03ea 05        		.uleb128 0x5
 3951 03eb 02        		.byte	0x2
 3952 03ec 0000 0000 		.long	.LM102
 3953 03f0 16        		.byte	0x16
 3954 03f1 00        		.byte	0x0
 3955 03f2 05        		.uleb128 0x5
 3956 03f3 02        		.byte	0x2
 3957 03f4 0000 0000 		.long	.LM103
 3958 03f8 17        		.byte	0x17
 3959 03f9 00        		.byte	0x0
 3960 03fa 05        		.uleb128 0x5
 3961 03fb 02        		.byte	0x2
 3962 03fc 0000 0000 		.long	.LM104
 3963 0400 15        		.byte	0x15
 3964 0401 00        		.byte	0x0
 3965 0402 05        		.uleb128 0x5
 3966 0403 02        		.byte	0x2
 3967 0404 0000 0000 		.long	.LM105
 3968 0408 15        		.byte	0x15
 3969 0409 00        		.byte	0x0
 3970 040a 05        		.uleb128 0x5
 3971 040b 02        		.byte	0x2
 3972 040c 0000 0000 		.long	.LM106
 3973 0410 15        		.byte	0x15
 3974 0411 00        		.byte	0x0
 3975 0412 05        		.uleb128 0x5
 3976 0413 02        		.byte	0x2
 3977 0414 0000 0000 		.long	.LM107
 3978 0418 15        		.byte	0x15
 3979 0419 00        		.byte	0x0
 3980 041a 05        		.uleb128 0x5
 3981 041b 02        		.byte	0x2
 3982 041c 0000 0000 		.long	.LM108
 3983 0420 1C        		.byte	0x1c
GAS LISTING C:\Users\ADMINI~1\AppData\Local\Temp/ccXldOo9.s 			page 72


 3984 0421 00        		.byte	0x0
 3985 0422 05        		.uleb128 0x5
 3986 0423 02        		.byte	0x2
 3987 0424 0000 0000 		.long	.LM109
 3988 0428 18        		.byte	0x18
 3989 0429 00        		.byte	0x0
 3990 042a 05        		.uleb128 0x5
 3991 042b 02        		.byte	0x2
 3992 042c 0000 0000 		.long	.LM110
 3993 0430 15        		.byte	0x15
 3994 0431 00        		.byte	0x0
 3995 0432 05        		.uleb128 0x5
 3996 0433 02        		.byte	0x2
 3997 0434 0000 0000 		.long	.LM111
 3998 0438 15        		.byte	0x15
 3999 0439 00        		.byte	0x0
 4000 043a 05        		.uleb128 0x5
 4001 043b 02        		.byte	0x2
 4002 043c 0000 0000 		.long	.LM112
 4003 0440 15        		.byte	0x15
 4004 0441 00        		.byte	0x0
 4005 0442 05        		.uleb128 0x5
 4006 0443 02        		.byte	0x2
 4007 0444 0000 0000 		.long	.LM113
 4008 0448 15        		.byte	0x15
 4009 0449 00        		.byte	0x0
 4010 044a 05        		.uleb128 0x5
 4011 044b 02        		.byte	0x2
 4012 044c 0000 0000 		.long	.LM114
 4013 0450 19        		.byte	0x19
 4014 0451 00        		.byte	0x0
 4015 0452 05        		.uleb128 0x5
 4016 0453 02        		.byte	0x2
 4017 0454 0000 0000 		.long	.LM115
 4018 0458 15        		.byte	0x15
 4019 0459 00        		.byte	0x0
 4020 045a 05        		.uleb128 0x5
 4021 045b 02        		.byte	0x2
 4022 045c 0000 0000 		.long	.LM116
 4023 0460 15        		.byte	0x15
 4024 0461 00        		.byte	0x0
 4025 0462 05        		.uleb128 0x5
 4026 0463 02        		.byte	0x2
 4027 0464 0000 0000 		.long	.LM117
 4028 0468 16        		.byte	0x16
 4029 0469 00        		.byte	0x0
 4030 046a 05        		.uleb128 0x5
 4031 046b 02        		.byte	0x2
 4032 046c 0000 0000 		.long	.LM118
 4033 0470 15        		.byte	0x15
 4034 0471 00        		.byte	0x0
 4035 0472 05        		.uleb128 0x5
 4036 0473 02        		.byte	0x2
 4037 0474 0000 0000 		.long	.LM119
 4038 0478 15        		.byte	0x15
 4039 0479 00        		.byte	0x0
 4040 047a 05        		.uleb128 0x5
GAS LISTING C:\Users\ADMINI~1\AppData\Local\Temp/ccXldOo9.s 			page 73


 4041 047b 02        		.byte	0x2
 4042 047c 0000 0000 		.long	.LM120
 4043 0480 16        		.byte	0x16
 4044 0481 00        		.byte	0x0
 4045 0482 05        		.uleb128 0x5
 4046 0483 02        		.byte	0x2
 4047 0484 0000 0000 		.long	.LM121
 4048 0488 15        		.byte	0x15
 4049 0489 00        		.byte	0x0
 4050 048a 05        		.uleb128 0x5
 4051 048b 02        		.byte	0x2
 4052 048c 0000 0000 		.long	.LM122
 4053 0490 16        		.byte	0x16
 4054 0491 00        		.byte	0x0
 4055 0492 05        		.uleb128 0x5
 4056 0493 02        		.byte	0x2
 4057 0494 0000 0000 		.long	.LM123
 4058 0498 1B        		.byte	0x1b
 4059 0499 00        		.byte	0x0
 4060 049a 05        		.uleb128 0x5
 4061 049b 02        		.byte	0x2
 4062 049c 0000 0000 		.long	.LM124
 4063 04a0 17        		.byte	0x17
 4064 04a1 00        		.byte	0x0
 4065 04a2 05        		.uleb128 0x5
 4066 04a3 02        		.byte	0x2
 4067 04a4 0000 0000 		.long	.LM125
 4068 04a8 16        		.byte	0x16
 4069 04a9 00        		.byte	0x0
 4070 04aa 05        		.uleb128 0x5
 4071 04ab 02        		.byte	0x2
 4072 04ac 0000 0000 		.long	.LM126
 4073 04b0 16        		.byte	0x16
 4074 04b1 00        		.byte	0x0
 4075 04b2 05        		.uleb128 0x5
 4076 04b3 02        		.byte	0x2
 4077 04b4 0000 0000 		.long	.LM127
 4078 04b8 16        		.byte	0x16
 4079 04b9 00        		.byte	0x0
 4080 04ba 05        		.uleb128 0x5
 4081 04bb 02        		.byte	0x2
 4082 04bc 0000 0000 		.long	.LM128
 4083 04c0 03        		.byte	0x3
 4084 04c1 B67F      		.sleb128 -74
 4085 04c3 01        		.byte	0x1
 4086 04c4 00        		.byte	0x0
 4087 04c5 05        		.uleb128 0x5
 4088 04c6 02        		.byte	0x2
 4089 04c7 0000 0000 		.long	.LM129
 4090 04cb 03        		.byte	0x3
 4091 04cc 9B7E      		.sleb128 -229
 4092 04ce 01        		.byte	0x1
 4093 04cf 00        		.byte	0x0
 4094 04d0 05        		.uleb128 0x5
 4095 04d1 02        		.byte	0x2
 4096 04d2 0000 0000 		.long	.LM130
 4097 04d6 15        		.byte	0x15
GAS LISTING C:\Users\ADMINI~1\AppData\Local\Temp/ccXldOo9.s 			page 74


 4098 04d7 00        		.byte	0x0
 4099 04d8 05        		.uleb128 0x5
 4100 04d9 02        		.byte	0x2
 4101 04da 0000 0000 		.long	.LM131
 4102 04de 15        		.byte	0x15
 4103 04df 00        		.byte	0x0
 4104 04e0 05        		.uleb128 0x5
 4105 04e1 02        		.byte	0x2
 4106 04e2 0000 0000 		.long	.LM132
 4107 04e6 0B        		.byte	0xb
 4108 04e7 00        		.byte	0x0
 4109 04e8 05        		.uleb128 0x5
 4110 04e9 02        		.byte	0x2
 4111 04ea 0000 0000 		.long	.LM133
 4112 04ee 15        		.byte	0x15
 4113 04ef 00        		.byte	0x0
 4114 04f0 05        		.uleb128 0x5
 4115 04f1 02        		.byte	0x2
 4116 04f2 0000 0000 		.long	.LM134
 4117 04f6 15        		.byte	0x15
 4118 04f7 00        		.byte	0x0
 4119 04f8 05        		.uleb128 0x5
 4120 04f9 02        		.byte	0x2
 4121 04fa 0000 0000 		.long	.LM135
 4122 04fe 15        		.byte	0x15
 4123 04ff 00        		.byte	0x0
 4124 0500 05        		.uleb128 0x5
 4125 0501 02        		.byte	0x2
 4126 0502 0000 0000 		.long	.LM136
 4127 0506 15        		.byte	0x15
 4128 0507 00        		.byte	0x0
 4129 0508 05        		.uleb128 0x5
 4130 0509 02        		.byte	0x2
 4131 050a 0000 0000 		.long	.LM137
 4132 050e 03        		.byte	0x3
 4133 050f B17F      		.sleb128 -79
 4134 0511 01        		.byte	0x1
 4135 0512 00        		.byte	0x0
 4136 0513 05        		.uleb128 0x5
 4137 0514 02        		.byte	0x2
 4138 0515 0000 0000 		.long	.LM138
 4139 0519 16        		.byte	0x16
 4140 051a 00        		.byte	0x0
 4141 051b 05        		.uleb128 0x5
 4142 051c 02        		.byte	0x2
 4143 051d 0000 0000 		.long	.LM139
 4144 0521 16        		.byte	0x16
 4145 0522 00        		.byte	0x0
 4146 0523 05        		.uleb128 0x5
 4147 0524 02        		.byte	0x2
 4148 0525 0000 0000 		.long	.LM140
 4149 0529 15        		.byte	0x15
 4150 052a 00        		.byte	0x0
 4151 052b 05        		.uleb128 0x5
 4152 052c 02        		.byte	0x2
 4153 052d 0000 0000 		.long	.LM141
 4154 0531 18        		.byte	0x18
GAS LISTING C:\Users\ADMINI~1\AppData\Local\Temp/ccXldOo9.s 			page 75


 4155 0532 00        		.byte	0x0
 4156 0533 05        		.uleb128 0x5
 4157 0534 02        		.byte	0x2
 4158 0535 0000 0000 		.long	.LM142
 4159 0539 19        		.byte	0x19
 4160 053a 00        		.byte	0x0
 4161 053b 05        		.uleb128 0x5
 4162 053c 02        		.byte	0x2
 4163 053d 0000 0000 		.long	.LM143
 4164 0541 19        		.byte	0x19
 4165 0542 00        		.byte	0x0
 4166 0543 05        		.uleb128 0x5
 4167 0544 02        		.byte	0x2
 4168 0545 0000 0000 		.long	.LM144
 4169 0549 18        		.byte	0x18
 4170 054a 00        		.byte	0x0
 4171 054b 05        		.uleb128 0x5
 4172 054c 02        		.byte	0x2
 4173 054d 0000 0000 		.long	.LM145
 4174 0551 16        		.byte	0x16
 4175 0552 00        		.byte	0x0
 4176 0553 05        		.uleb128 0x5
 4177 0554 02        		.byte	0x2
 4178 0555 0000 0000 		.long	.LM146
 4179 0559 17        		.byte	0x17
 4180 055a 00        		.byte	0x0
 4181 055b 05        		.uleb128 0x5
 4182 055c 02        		.byte	0x2
 4183 055d 0000 0000 		.long	.LM147
 4184 0561 15        		.byte	0x15
 4185 0562 00        		.byte	0x0
 4186 0563 05        		.uleb128 0x5
 4187 0564 02        		.byte	0x2
 4188 0565 0000 0000 		.long	.LM148
 4189 0569 16        		.byte	0x16
 4190 056a 00        		.byte	0x0
 4191 056b 05        		.uleb128 0x5
 4192 056c 02        		.byte	0x2
 4193 056d 0000 0000 		.long	.LM149
 4194 0571 17        		.byte	0x17
 4195 0572 00        		.byte	0x0
 4196 0573 05        		.uleb128 0x5
 4197 0574 02        		.byte	0x2
 4198 0575 0000 0000 		.long	.LM150
 4199 0579 16        		.byte	0x16
 4200 057a 00        		.byte	0x0
 4201 057b 05        		.uleb128 0x5
 4202 057c 02        		.byte	0x2
 4203 057d 0000 0000 		.long	.LM151
 4204 0581 15        		.byte	0x15
 4205 0582 00        		.byte	0x0
 4206 0583 05        		.uleb128 0x5
 4207 0584 02        		.byte	0x2
 4208 0585 0000 0000 		.long	.LM152
 4209 0589 15        		.byte	0x15
 4210 058a 00        		.byte	0x0
 4211 058b 05        		.uleb128 0x5
GAS LISTING C:\Users\ADMINI~1\AppData\Local\Temp/ccXldOo9.s 			page 76


 4212 058c 02        		.byte	0x2
 4213 058d 0000 0000 		.long	.LM153
 4214 0591 15        		.byte	0x15
 4215 0592 00        		.byte	0x0
 4216 0593 05        		.uleb128 0x5
 4217 0594 02        		.byte	0x2
 4218 0595 0000 0000 		.long	.LM154
 4219 0599 16        		.byte	0x16
 4220 059a 00        		.byte	0x0
 4221 059b 05        		.uleb128 0x5
 4222 059c 02        		.byte	0x2
 4223 059d 0000 0000 		.long	.LM155
 4224 05a1 15        		.byte	0x15
 4225 05a2 00        		.byte	0x0
 4226 05a3 05        		.uleb128 0x5
 4227 05a4 02        		.byte	0x2
 4228 05a5 0000 0000 		.long	.LM156
 4229 05a9 15        		.byte	0x15
 4230 05aa 00        		.byte	0x0
 4231 05ab 05        		.uleb128 0x5
 4232 05ac 02        		.byte	0x2
 4233 05ad 0000 0000 		.long	.LM157
 4234 05b1 1B        		.byte	0x1b
 4235 05b2 00        		.byte	0x0
 4236 05b3 05        		.uleb128 0x5
 4237 05b4 02        		.byte	0x2
 4238 05b5 0000 0000 		.long	.LM158
 4239 05b9 1F        		.byte	0x1f
 4240 05ba 00        		.byte	0x0
 4241 05bb 05        		.uleb128 0x5
 4242 05bc 02        		.byte	0x2
 4243 05bd 0000 0000 		.long	.LM159
 4244 05c1 18        		.byte	0x18
 4245 05c2 00        		.byte	0x0
 4246 05c3 05        		.uleb128 0x5
 4247 05c4 02        		.byte	0x2
 4248 05c5 0000 0000 		.long	.LM160
 4249 05c9 16        		.byte	0x16
 4250 05ca 00        		.byte	0x0
 4251 05cb 05        		.uleb128 0x5
 4252 05cc 02        		.byte	0x2
 4253 05cd 0000 0000 		.long	.LM161
 4254 05d1 15        		.byte	0x15
 4255 05d2 00        		.byte	0x0
 4256 05d3 05        		.uleb128 0x5
 4257 05d4 02        		.byte	0x2
 4258 05d5 0000 0000 		.long	.LM162
 4259 05d9 16        		.byte	0x16
 4260 05da 00        		.byte	0x0
 4261 05db 05        		.uleb128 0x5
 4262 05dc 02        		.byte	0x2
 4263 05dd 0000 0000 		.long	.LM163
 4264 05e1 16        		.byte	0x16
 4265 05e2 00        		.byte	0x0
 4266 05e3 05        		.uleb128 0x5
 4267 05e4 02        		.byte	0x2
 4268 05e5 0000 0000 		.long	.Letext0
GAS LISTING C:\Users\ADMINI~1\AppData\Local\Temp/ccXldOo9.s 			page 77


 4269 05e9 00        		.byte	0x0
 4270 05ea 01        		.uleb128 0x1
 4271 05eb 01        		.byte	0x1
 4272               	.LELT0:
 4273 05ec 1600 0000 		.section	.debug_str,"MS",@progbits,1
 4273      0200 1000 
 4273      0000 0101 
 4273      FB0E 0A00 
 4273      0101 0101 
 4274               	.LASF134:
 4275 0000 4B45 595F 		.string	"KEY_LSHIFT"
 4275      4C53 4849 
 4275      4654 00
 4276               	.LASF231:
 4277 000b 7265 706F 		.string	"reportIndex"
 4277      7274 496E 
 4277      6465 7800 
 4278               	.LASF180:
 4279 0017 7573 6252 		.string	"usbRequest"
 4279      6571 7565 
 4279      7374 00
 4280               	.LASF86:
 4281 0022 4B45 595F 		.string	"KEY_SLASH"
 4281      534C 4153 
 4281      4800 
 4282               	.LASF24:
 4283 002c 4B45 595F 		.string	"KEY_LALT_HANJA"
 4283      4C41 4C54 
 4283      5F48 414E 
 4283      4A41 00
 4284               	.LASF157:
 4285 003b 4B45 595F 		.string	"KEY_PLAY"
 4285      504C 4159 
 4285      00
 4286               	.LASF209:
 4287 0044 7573 6246 		.string	"usbFunctionWrite"
 4287      756E 6374 
 4287      696F 6E57 
 4287      7269 7465 
 4287      00
 4288               	.LASF165:
 4289 0055 4B45 595F 		.string	"KEY_REC"
 4289      5245 4300 
 4290               	.LASF113:
 4291 005d 4B45 595F 		.string	"KEY_NUMLOCK"
 4291      4E55 4D4C 
 4291      4F43 4B00 
 4292               	.LASF22:
 4293 0069 4B45 595F 		.string	"KEY_RALT_HANJA"
 4293      5241 4C54 
 4293      5F48 414E 
 4293      4A41 00
 4294               	.LASF19:
 4295 0078 4B45 595F 		.string	"KEY_LSHIFT_HANGLE"
 4295      4C53 4849 
 4295      4654 5F48 
 4295      414E 474C 
GAS LISTING C:\Users\ADMINI~1\AppData\Local\Temp/ccXldOo9.s 			page 78


 4295      4500 
 4296               	.LASF133:
 4297 008a 4B45 595F 		.string	"KEY_LCTRL"
 4297      4C43 5452 
 4297      4C00 
 4298               	.LASF97:
 4299 0094 4B45 595F 		.string	"KEY_F10"
 4299      4631 3000 
 4300               	.LASF98:
 4301 009c 4B45 595F 		.string	"KEY_F11"
 4301      4631 3100 
 4302               	.LASF99:
 4303 00a4 4B45 595F 		.string	"KEY_F12"
 4303      4631 3200 
 4304               	.LASF225:
 4305 00ac 494E 5445 		.string	"INTERFACE"
 4305      5246 4143 
 4305      4500 
 4306               	.LASF197:
 4307 00b6 7072 6576 		.string	"prev"
 4307      00
 4308               	.LASF213:
 4309 00bb 6578 7065 		.string	"expectReport"
 4309      6374 5265 
 4309      706F 7274 
 4309      00
 4310               	.LASF129:
 4311 00c8 4B45 595F 		.string	"KEY_KP_DOT"
 4311      4B50 5F44 
 4311      4F54 00
 4312               	.LASF156:
 4313 00d3 4B45 595F 		.string	"KEY_STOP"
 4313      5354 4F50 
 4313      00
 4314               	.LASF235:
 4315 00dc 443A 5C67 		.string	"D:\\git2\\ps2avrU\\.git\\source"
 4315      6974 325C 
 4315      7073 3261 
 4315      7672 555C 
 4315      2E67 6974 
 4316               	.LASF187:
 4317 00f8 7265 7476 		.string	"retval"
 4317      616C 00
 4318               	.LASF107:
 4319 00ff 4B45 595F 		.string	"KEY_END"
 4319      454E 4400 
 4320               	.LASF6:
 4321 0107 6C6F 6E67 		.string	"long long unsigned int"
 4321      206C 6F6E 
 4321      6720 756E 
 4321      7369 676E 
 4321      6564 2069 
 4322               	.LASF152:
 4323 011e 4B45 595F 		.string	"KEY_WWW_REFRESH"
 4323      5757 575F 
 4323      5245 4652 
 4323      4553 4800 
GAS LISTING C:\Users\ADMINI~1\AppData\Local\Temp/ccXldOo9.s 			page 79


 4324               	.LASF217:
 4325 012e 6475 616C 		.string	"dualActionKeyIndex"
 4325      4163 7469 
 4325      6F6E 4B65 
 4325      7949 6E64 
 4325      6578 00
 4326               	.LASF72:
 4327 0141 4B45 595F 		.string	"KEY_BKSP"
 4327      424B 5350 
 4327      00
 4328               	.LASF106:
 4329 014a 4B45 595F 		.string	"KEY_DEL"
 4329      4445 4C00 
 4330               	.LASF204:
 4331 0152 636C 6561 		.string	"clearReportBuffer"
 4331      7252 6570 
 4331      6F72 7442 
 4331      7566 6665 
 4331      7200 
 4332               	.LASF202:
 4333 0164 7570 6461 		.string	"updateNeeded"
 4333      7465 4E65 
 4333      6564 6564 
 4333      00
 4334               	.LASF186:
 4335 0171 7573 6252 		.string	"usbRequest_t"
 4335      6571 7565 
 4335      7374 5F74 
 4335      00
 4336               	.LASF155:
 4337 017e 4B45 595F 		.string	"KEY_PREV_TRK"
 4337      5052 4556 
 4337      5F54 524B 
 4337      00
 4338               	.LASF81:
 4339 018b 4B45 595F 		.string	"KEY_COLON"
 4339      434F 4C4F 
 4339      4E00 
 4340               	.LASF17:
 4341 0195 4B45 595F 		.string	"KEY_RSHIFT_HANGLE"
 4341      5253 4849 
 4341      4654 5F48 
 4341      414E 474C 
 4341      4500 
 4342               	.LASF143:
 4343 01a7 4B45 595F 		.string	"KEY_POWER"
 4343      504F 5745 
 4343      5200 
 4344               	.LASF13:
 4345 01b1 4B45 595F 		.string	"KEY_FN_HANGLE"
 4345      464E 5F48 
 4345      414E 474C 
 4345      4500 
 4346               	.LASF161:
 4347 01bf 4B45 595F 		.string	"KEY_MEDIA"
 4347      4D45 4449 
 4347      4100 
GAS LISTING C:\Users\ADMINI~1\AppData\Local\Temp/ccXldOo9.s 			page 80


 4348               	.LASF7:
 4349 01c9 6C6F 6E67 		.string	"long long int"
 4349      206C 6F6E 
 4349      6720 696E 
 4349      7400 
 4350               	.LASF1:
 4351 01d7 7369 676E 		.string	"signed char"
 4351      6564 2063 
 4351      6861 7200 
 4352               	.LASF116:
 4353 01e3 4B45 595F 		.string	"KEY_KP_MINUS"
 4353      4B50 5F4D 
 4353      494E 5553 
 4353      00
 4354               	.LASF199:
 4355 01f0 674B 6579 		.string	"gKeymapping"
 4355      6D61 7070 
 4355      696E 6700 
 4356               	.LASF188:
 4357 01fc 674B 6579 		.string	"gKeyidxMulti"
 4357      6964 784D 
 4357      756C 7469 
 4357      00
 4358               	.LASF159:
 4359 0209 4B45 595F 		.string	"KEY_VOL_UP"
 4359      564F 4C5F 
 4359      5550 00
 4360               	.LASF218:
 4361 0214 6B65 7963 		.string	"keycode_USB_multimedia"
 4361      6F64 655F 
 4361      5553 425F 
 4361      6D75 6C74 
 4361      696D 6564 
 4362               	.LASF178:
 4363 022b 7573 6257 		.string	"usbWord_t"
 4363      6F72 645F 
 4363      7400 
 4364               	.LASF232:
 4365 0235 5F69 734D 		.string	"_isMultimediaPressed"
 4365      756C 7469 
 4365      6D65 6469 
 4365      6150 7265 
 4365      7373 6564 
 4366               	.LASF78:
 4367 024a 4B45 595F 		.string	"KEY_RBR"
 4367      5242 5200 
 4368               	.LASF153:
 4369 0252 4B45 595F 		.string	"KEY_WWW_FAVORITE"
 4369      5757 575F 
 4369      4641 564F 
 4369      5249 5445 
 4369      00
 4370               	.LASF5:
 4371 0263 6C6F 6E67 		.string	"long int"
 4371      2069 6E74 
 4371      00
 4372               	.LASF149:
GAS LISTING C:\Users\ADMINI~1\AppData\Local\Temp/ccXldOo9.s 			page 81


 4373 026c 4B45 595F 		.string	"KEY_WWW_BACK"
 4373      5757 575F 
 4373      4241 434B 
 4373      00
 4374               	.LASF80:
 4375 0279 4B45 595F 		.string	"KEY_Europe1"
 4375      4575 726F 
 4375      7065 3100 
 4376               	.LASF130:
 4377 0285 4B45 595F 		.string	"KEY_Europe2"
 4377      4575 726F 
 4377      7065 3200 
 4378               	.LASF114:
 4379 0291 4B45 595F 		.string	"KEY_KP_SLASH"
 4379      4B50 5F53 
 4379      4C41 5348 
 4379      00
 4380               	.LASF109:
 4381 029e 4B45 595F 		.string	"KEY_RIGHT"
 4381      5249 4748 
 4381      5400 
 4382               	.LASF183:
 4383 02a8 7756 616C 		.string	"wValue"
 4383      7565 00
 4384               	.LASF83:
 4385 02af 4B45 595F 		.string	"KEY_HASH"
 4385      4841 5348 
 4385      00
 4386               	.LASF139:
 4387 02b8 4B45 595F 		.string	"KEY_RALT"
 4387      5241 4C54 
 4387      00
 4388               	.LASF11:
 4389 02c1 7569 6E74 		.string	"uint16_t"
 4389      3136 5F74 
 4389      00
 4390               	.LASF25:
 4391 02ca 4B45 595F 		.string	"KEY_RCTRL_HANGLE"
 4391      5243 5452 
 4391      4C5F 4841 
 4391      4E47 4C45 
 4391      00
 4392               	.LASF174:
 4393 02db 6275 6666 		.string	"buffer"
 4393      6572 00
 4394               	.LASF192:
 4395 02e2 7363 616E 		.string	"scanMacroUsb"
 4395      4D61 6372 
 4395      6F55 7362 
 4395      00
 4396               	.LASF190:
 4397 02ef 5F5F 7265 		.string	"__result"
 4397      7375 6C74 
 4397      00
 4398               	.LASF77:
 4399 02f8 4B45 595F 		.string	"KEY_LBR"
 4399      4C42 5200 
GAS LISTING C:\Users\ADMINI~1\AppData\Local\Temp/ccXldOo9.s 			page 82


 4400               	.LASF203:
 4401 0300 6964 6C65 		.string	"idleCounter"
 4401      436F 756E 
 4401      7465 7200 
 4402               	.LASF16:
 4403 030c 4B45 595F 		.string	"KEY_FN2_HANJA"
 4403      464E 325F 
 4403      4841 4E4A 
 4403      4100 
 4404               	.LASF179:
 4405 031a 7573 6254 		.string	"usbTxStatus"
 4405      7853 7461 
 4405      7475 7300 
 4406               	.LASF191:
 4407 0326 6D61 6B65 		.string	"makeReportBuffer"
 4407      5265 706F 
 4407      7274 4275 
 4407      6666 6572 
 4407      00
 4408               	.LASF181:
 4409 0337 626D 5265 		.string	"bmRequestType"
 4409      7175 6573 
 4409      7454 7970 
 4409      6500 
 4410               	.LASF233:
 4411 0345 474E 5520 		.string	"GNU C 4.3.3"
 4411      4320 342E 
 4411      332E 3300 
 4412               	.LASF100:
 4413 0351 4B45 595F 		.string	"KEY_PRNSCR"
 4413      5052 4E53 
 4413      4352 00
 4414               	.LASF108:
 4415 035c 4B45 595F 		.string	"KEY_PGDN"
 4415      5047 444E 
 4415      00
 4416               	.LASF140:
 4417 0365 4B45 595F 		.string	"KEY_RGUI"
 4417      5247 5549 
 4417      00
 4418               	.LASF148:
 4419 036e 4B45 595F 		.string	"KEY_WWW_HOME"
 4419      5757 575F 
 4419      484F 4D45 
 4419      00
 4420               	.LASF20:
 4421 037b 4B45 595F 		.string	"KEY_LSHIFT_HANJA"
 4421      4C53 4849 
 4421      4654 5F48 
 4421      414E 4A41 
 4421      00
 4422               	.LASF8:
 4423 038c 756E 7369 		.string	"unsigned int"
 4423      676E 6564 
 4423      2069 6E74 
 4423      00
 4424               	.LASF212:
GAS LISTING C:\Users\ADMINI~1\AppData\Local\Temp/ccXldOo9.s 			page 83


 4425 0399 7072 6F74 		.string	"protocolVer"
 4425      6F63 6F6C 
 4425      5665 7200 
 4426               	.LASF193:
 4427 03a5 6749 6478 		.string	"gIdx"
 4427      00
 4428               	.LASF138:
 4429 03aa 4B45 595F 		.string	"KEY_RSHIFT"
 4429      5253 4849 
 4429      4654 00
 4430               	.LASF46:
 4431 03b5 4B45 595F 		.string	"KEY_M"
 4431      4D00 
 4432               	.LASF101:
 4433 03bb 4B45 595F 		.string	"KEY_SCRLCK"
 4433      5343 524C 
 4433      434B 00
 4434               	.LASF4:
 4435 03c6 6C6F 6E67 		.string	"long unsigned int"
 4435      2075 6E73 
 4435      6967 6E65 
 4435      6420 696E 
 4435      7400 
 4436               	.LASF172:
 4437 03d8 4B45 595F 		.string	"KEY_HANGLE"
 4437      4841 4E47 
 4437      4C45 00
 4438               	.LASF82:
 4439 03e3 4B45 595F 		.string	"KEY_QUOTE"
 4439      5155 4F54 
 4439      4500 
 4440               	.LASF211:
 4441 03ed 6964 6C65 		.string	"idleRate"
 4441      5261 7465 
 4441      00
 4442               	.LASF30:
 4443 03f6 4B45 595F 		.string	"KEY_NONE"
 4443      4E4F 4E45 
 4443      00
 4444               	.LASF118:
 4445 03ff 4B45 595F 		.string	"KEY_KP_ENTER"
 4445      4B50 5F45 
 4445      4E54 4552 
 4445      00
 4446               	.LASF56:
 4447 040c 4B45 595F 		.string	"KEY_W"
 4447      5700 
 4448               	.LASF103:
 4449 0412 4B45 595F 		.string	"KEY_INSERT"
 4449      494E 5345 
 4449      5254 00
 4450               	.LASF208:
 4451 041d 6461 7461 		.string	"data"
 4451      00
 4452               	.LASF117:
 4453 0422 4B45 595F 		.string	"KEY_KP_PLUS"
 4453      4B50 5F50 
GAS LISTING C:\Users\ADMINI~1\AppData\Local\Temp/ccXldOo9.s 			page 84


 4453      4C55 5300 
 4454               	.LASF2:
 4455 042e 7368 6F72 		.string	"short unsigned int"
 4455      7420 756E 
 4455      7369 676E 
 4455      6564 2069 
 4455      6E74 00
 4456               	.LASF234:
 4457 0441 7573 626D 		.string	"usbmain.c"
 4457      6169 6E2E 
 4457      6300 
 4458               	.LASF236:
 4459 044b 7573 6257 		.string	"usbWord"
 4459      6F72 6400 
 4460               	.LASF87:
 4461 0453 4B45 595F 		.string	"KEY_CAPS"
 4461      4341 5053 
 4461      00
 4462               	.LASF228:
 4463 045c 7072 6576 		.string	"prevMatrix"
 4463      4D61 7472 
 4463      6978 00
 4464               	.LASF85:
 4465 0467 4B45 595F 		.string	"KEY_DOT"
 4465      444F 5400 
 4466               	.LASF219:
 4467 046f 6B65 7963 		.string	"keycode_USB_extend"
 4467      6F64 655F 
 4467      5553 425F 
 4467      6578 7465 
 4467      6E64 00
 4468               	.LASF238:
 4469 0482 7573 625F 		.string	"usb_main"
 4469      6D61 696E 
 4469      00
 4470               	.LASF224:
 4471 048b 696E 7465 		.string	"interfaceReady"
 4471      7266 6163 
 4471      6552 6561 
 4471      6479 00
 4472               	.LASF167:
 4473 049a 4B45 595F 		.string	"KEY_MINIMIZE"
 4473      4D49 4E49 
 4473      4D49 5A45 
 4473      00
 4474               	.LASF226:
 4475 04a7 6973 4265 		.string	"isBeyondFN"
 4475      796F 6E64 
 4475      464E 00
 4476               	.LASF229:
 4477 04b2 6375 7272 		.string	"currentMatrix"
 4477      656E 744D 
 4477      6174 7269 
 4477      7800 
 4478               	.LASF74:
 4479 04c0 4B45 595F 		.string	"KEY_SPACE"
 4479      5350 4143 
GAS LISTING C:\Users\ADMINI~1\AppData\Local\Temp/ccXldOo9.s 			page 85


 4479      4500 
 4480               	.LASF144:
 4481 04ca 4B45 595F 		.string	"KEY_SLEEP"
 4481      534C 4545 
 4481      5000 
 4482               	.LASF198:
 4483 04d4 6B65 7969 		.string	"keyidx"
 4483      6478 00
 4484               	.LASF175:
 4485 04db 7573 6254 		.string	"usbTxStatus_t"
 4485      7853 7461 
 4485      7475 735F 
 4485      7400 
 4486               	.LASF169:
 4487 04e9 4B45 595F 		.string	"KEY_Multimedia_end"
 4487      4D75 6C74 
 4487      696D 6564 
 4487      6961 5F65 
 4487      6E64 00
 4488               	.LASF33:
 4489 04fc 4B45 595F 		.string	"KEY_ErrorUndefined"
 4489      4572 726F 
 4489      7255 6E64 
 4489      6566 696E 
 4489      6564 00
 4490               	.LASF151:
 4491 050f 4B45 595F 		.string	"KEY_WWW_STOP"
 4491      5757 575F 
 4491      5354 4F50 
 4491      00
 4492               	.LASF69:
 4493 051c 4B45 595F 		.string	"KEY_0"
 4493      3000 
 4494               	.LASF60:
 4495 0522 4B45 595F 		.string	"KEY_1"
 4495      3100 
 4496               	.LASF61:
 4497 0528 4B45 595F 		.string	"KEY_2"
 4497      3200 
 4498               	.LASF62:
 4499 052e 4B45 595F 		.string	"KEY_3"
 4499      3300 
 4500               	.LASF63:
 4501 0534 4B45 595F 		.string	"KEY_4"
 4501      3400 
 4502               	.LASF64:
 4503 053a 4B45 595F 		.string	"KEY_5"
 4503      3500 
 4504               	.LASF65:
 4505 0540 4B45 595F 		.string	"KEY_6"
 4505      3600 
 4506               	.LASF66:
 4507 0546 4B45 595F 		.string	"KEY_7"
 4507      3700 
 4508               	.LASF67:
 4509 054c 4B45 595F 		.string	"KEY_8"
 4509      3800 
GAS LISTING C:\Users\ADMINI~1\AppData\Local\Temp/ccXldOo9.s 			page 86


 4510               	.LASF68:
 4511 0552 4B45 595F 		.string	"KEY_9"
 4511      3900 
 4512               	.LASF75:
 4513 0558 4B45 595F 		.string	"KEY_MINUS"
 4513      4D49 4E55 
 4513      5300 
 4514               	.LASF158:
 4515 0562 4B45 595F 		.string	"KEY_MUTE"
 4515      4D55 5445 
 4515      00
 4516               	.LASF145:
 4517 056b 4B45 595F 		.string	"KEY_WAKE"
 4517      5741 4B45 
 4517      00
 4518               	.LASF34:
 4519 0574 4B45 595F 		.string	"KEY_A"
 4519      4100 
 4520               	.LASF35:
 4521 057a 4B45 595F 		.string	"KEY_B"
 4521      4200 
 4522               	.LASF36:
 4523 0580 4B45 595F 		.string	"KEY_C"
 4523      4300 
 4524               	.LASF37:
 4525 0586 4B45 595F 		.string	"KEY_D"
 4525      4400 
 4526               	.LASF38:
 4527 058c 4B45 595F 		.string	"KEY_E"
 4527      4500 
 4528               	.LASF39:
 4529 0592 4B45 595F 		.string	"KEY_F"
 4529      4600 
 4530               	.LASF40:
 4531 0598 4B45 595F 		.string	"KEY_G"
 4531      4700 
 4532               	.LASF41:
 4533 059e 4B45 595F 		.string	"KEY_H"
 4533      4800 
 4534               	.LASF42:
 4535 05a4 4B45 595F 		.string	"KEY_I"
 4535      4900 
 4536               	.LASF43:
 4537 05aa 4B45 595F 		.string	"KEY_J"
 4537      4A00 
 4538               	.LASF44:
 4539 05b0 4B45 595F 		.string	"KEY_K"
 4539      4B00 
 4540               	.LASF45:
 4541 05b6 4B45 595F 		.string	"KEY_L"
 4541      4C00 
 4542               	.LASF12:
 4543 05bc 4B45 595F 		.string	"KEY_dualAction"
 4543      6475 616C 
 4543      4163 7469 
 4543      6F6E 00
 4544               	.LASF47:
GAS LISTING C:\Users\ADMINI~1\AppData\Local\Temp/ccXldOo9.s 			page 87


 4545 05cb 4B45 595F 		.string	"KEY_N"
 4545      4E00 
 4546               	.LASF48:
 4547 05d1 4B45 595F 		.string	"KEY_O"
 4547      4F00 
 4548               	.LASF49:
 4549 05d7 4B45 595F 		.string	"KEY_P"
 4549      5000 
 4550               	.LASF50:
 4551 05dd 4B45 595F 		.string	"KEY_Q"
 4551      5100 
 4552               	.LASF51:
 4553 05e3 4B45 595F 		.string	"KEY_R"
 4553      5200 
 4554               	.LASF52:
 4555 05e9 4B45 595F 		.string	"KEY_S"
 4555      5300 
 4556               	.LASF53:
 4557 05ef 4B45 595F 		.string	"KEY_T"
 4557      5400 
 4558               	.LASF54:
 4559 05f5 4B45 595F 		.string	"KEY_U"
 4559      5500 
 4560               	.LASF55:
 4561 05fb 4B45 595F 		.string	"KEY_V"
 4561      5600 
 4562               	.LASF29:
 4563 0601 4B45 595F 		.string	"KEY_dualAction_end"
 4563      6475 616C 
 4563      4163 7469 
 4563      6F6E 5F65 
 4563      6E64 00
 4564               	.LASF57:
 4565 0614 4B45 595F 		.string	"KEY_X"
 4565      5800 
 4566               	.LASF58:
 4567 061a 4B45 595F 		.string	"KEY_Y"
 4567      5900 
 4568               	.LASF59:
 4569 0620 4B45 595F 		.string	"KEY_Z"
 4569      5A00 
 4570               	.LASF166:
 4571 0626 4B45 595F 		.string	"KEY_REWIND"
 4571      5245 5749 
 4571      4E44 00
 4572               	.LASF207:
 4573 0631 7573 6246 		.string	"usbFunctionSetup"
 4573      756E 6374 
 4573      696F 6E53 
 4573      6574 7570 
 4573      00
 4574               	.LASF210:
 4575 0642 7265 706F 		.string	"reportBuffer"
 4575      7274 4275 
 4575      6666 6572 
 4575      00
 4576               	.LASF223:
GAS LISTING C:\Users\ADMINI~1\AppData\Local\Temp/ccXldOo9.s 			page 88


 4577 064f 696E 7465 		.string	"interfaceCount"
 4577      7266 6163 
 4577      6543 6F75 
 4577      6E74 00
 4578               	.LASF154:
 4579 065e 4B45 595F 		.string	"KEY_NEXT_TRK"
 4579      4E45 5854 
 4579      5F54 524B 
 4579      00
 4580               	.LASF26:
 4581 066b 4B45 595F 		.string	"KEY_RCTRL_HANJA"
 4581      5243 5452 
 4581      4C5F 4841 
 4581      4E4A 4100 
 4582               	.LASF195:
 4583 067b 674B 6579 		.string	"gKeyidx"
 4583      6964 7800 
 4584               	.LASF28:
 4585 0683 4B45 595F 		.string	"KEY_LCTRL_HANJA"
 4585      4C43 5452 
 4585      4C5F 4841 
 4585      4E4A 4100 
 4586               	.LASF115:
 4587 0693 4B45 595F 		.string	"KEY_KP_AST"
 4587      4B50 5F41 
 4587      5354 00
 4588               	.LASF160:
 4589 069e 4B45 595F 		.string	"KEY_VOL_DOWN"
 4589      564F 4C5F 
 4589      444F 574E 
 4589      00
 4590               	.LASF168:
 4591 06ab 4B45 595F 		.string	"KEY_EJECT"
 4591      454A 4543 
 4591      5400 
 4592               	.LASF141:
 4593 06b5 4B45 595F 		.string	"KEY_Modifiers_end"
 4593      4D6F 6469 
 4593      6669 6572 
 4593      735F 656E 
 4593      6400 
 4594               	.LASF196:
 4595 06c7 7363 616E 		.string	"scanKeyUSB"
 4595      4B65 7955 
 4595      5342 00
 4596               	.LASF0:
 4597 06d2 756E 7369 		.string	"unsigned char"
 4597      676E 6564 
 4597      2063 6861 
 4597      7200 
 4598               	.LASF164:
 4599 06e0 4B45 595F 		.string	"KEY_SCREENSAVE"
 4599      5343 5245 
 4599      454E 5341 
 4599      5645 00
 4600               	.LASF173:
 4601 06ef 4B45 595F 		.string	"KEY_extend_end"
GAS LISTING C:\Users\ADMINI~1\AppData\Local\Temp/ccXldOo9.s 			page 89


 4601      6578 7465 
 4601      6E64 5F65 
 4601      6E64 00
 4602               	.LASF84:
 4603 06fe 4B45 595F 		.string	"KEY_COMMA"
 4603      434F 4D4D 
 4603      4100 
 4604               	.LASF27:
 4605 0708 4B45 595F 		.string	"KEY_LCTRL_HANGLE"
 4605      4C43 5452 
 4605      4C5F 4841 
 4605      4E47 4C45 
 4605      00
 4606               	.LASF184:
 4607 0719 7749 6E64 		.string	"wIndex"
 4607      6578 00
 4608               	.LASF73:
 4609 0720 4B45 595F 		.string	"KEY_TAB"
 4609      5441 4200 
 4610               	.LASF205:
 4611 0728 7072 6570 		.string	"prepareKeyMappingUsb"
 4611      6172 654B 
 4611      6579 4D61 
 4611      7070 696E 
 4611      6755 7362 
 4612               	.LASF3:
 4613 073d 7368 6F72 		.string	"short int"
 4613      7420 696E 
 4613      7400 
 4614               	.LASF237:
 4615 0747 6861 734D 		.string	"hasMacroUsb"
 4615      6163 726F 
 4615      5573 6200 
 4616               	.LASF111:
 4617 0753 4B45 595F 		.string	"KEY_DOWN"
 4617      444F 574E 
 4617      00
 4618               	.LASF23:
 4619 075c 4B45 595F 		.string	"KEY_LALT_HANGLE"
 4619      4C41 4C54 
 4619      5F48 414E 
 4619      474C 4500 
 4620               	.LASF76:
 4621 076c 4B45 595F 		.string	"KEY_EQUAL"
 4621      4551 5541 
 4621      4C00 
 4622               	.LASF201:
 4623 0776 7072 6576 		.string	"prevModifier"
 4623      4D6F 6469 
 4623      6669 6572 
 4623      00
 4624               	.LASF182:
 4625 0783 6252 6571 		.string	"bRequest"
 4625      7565 7374 
 4625      00
 4626               	.LASF214:
 4627 078c 5F69 7349 		.string	"_isInit"
GAS LISTING C:\Users\ADMINI~1\AppData\Local\Temp/ccXldOo9.s 			page 90


 4627      6E69 7400 
 4628               	.LASF230:
 4629 0794 5F70 7265 		.string	"_pressedBuffer"
 4629      7373 6564 
 4629      4275 6666 
 4629      6572 00
 4630               	.LASF18:
 4631 07a3 4B45 595F 		.string	"KEY_RSHIFT_HANJA"
 4631      5253 4849 
 4631      4654 5F48 
 4631      414E 4A41 
 4631      00
 4632               	.LASF102:
 4633 07b4 4B45 595F 		.string	"KEY_PAUSE"
 4633      5041 5553 
 4633      4500 
 4634               	.LASF119:
 4635 07be 4B45 595F 		.string	"KEY_KP_1"
 4635      4B50 5F31 
 4635      00
 4636               	.LASF120:
 4637 07c7 4B45 595F 		.string	"KEY_KP_2"
 4637      4B50 5F32 
 4637      00
 4638               	.LASF121:
 4639 07d0 4B45 595F 		.string	"KEY_KP_3"
 4639      4B50 5F33 
 4639      00
 4640               	.LASF105:
 4641 07d9 4B45 595F 		.string	"KEY_PGUP"
 4641      5047 5550 
 4641      00
 4642               	.LASF32:
 4643 07e2 4B45 595F 		.string	"KEY_POSTFail"
 4643      504F 5354 
 4643      4661 696C 
 4643      00
 4644               	.LASF124:
 4645 07ef 4B45 595F 		.string	"KEY_KP_6"
 4645      4B50 5F36 
 4645      00
 4646               	.LASF125:
 4647 07f8 4B45 595F 		.string	"KEY_KP_7"
 4647      4B50 5F37 
 4647      00
 4648               	.LASF126:
 4649 0801 4B45 595F 		.string	"KEY_KP_8"
 4649      4B50 5F38 
 4649      00
 4650               	.LASF70:
 4651 080a 4B45 595F 		.string	"KEY_ENTER"
 4651      454E 5445 
 4651      5200 
 4652               	.LASF71:
 4653 0814 4B45 595F 		.string	"KEY_ESC"
 4653      4553 4300 
 4654               	.LASF15:
GAS LISTING C:\Users\ADMINI~1\AppData\Local\Temp/ccXldOo9.s 			page 91


 4655 081c 4B45 595F 		.string	"KEY_FN2_HANGLE"
 4655      464E 325F 
 4655      4841 4E47 
 4655      4C45 00
 4656               	.LASF9:
 4657 082b 6368 6172 		.string	"char"
 4657      00
 4658               	.LASF171:
 4659 0830 4B45 595F 		.string	"KEY_HANJA"
 4659      4841 4E4A 
 4659      4100 
 4660               	.LASF123:
 4661 083a 4B45 595F 		.string	"KEY_KP_5"
 4661      4B50 5F35 
 4661      00
 4662               	.LASF177:
 4663 0843 6279 7465 		.string	"bytes"
 4663      7300 
 4664               	.LASF128:
 4665 0849 4B45 595F 		.string	"KEY_KP_0"
 4665      4B50 5F30 
 4665      00
 4666               	.LASF127:
 4667 0852 4B45 595F 		.string	"KEY_KP_9"
 4667      4B50 5F39 
 4667      00
 4668               	.LASF122:
 4669 085b 4B45 595F 		.string	"KEY_KP_4"
 4669      4B50 5F34 
 4669      00
 4670               	.LASF146:
 4671 0864 4B45 595F 		.string	"KEY_EMAIL"
 4671      454D 4149 
 4671      4C00 
 4672               	.LASF222:
 4673 086e 7573 6254 		.string	"usbTxStatus1"
 4673      7853 7461 
 4673      7475 7331 
 4673      00
 4674               	.LASF227:
 4675 087b 6D6F 646D 		.string	"modmask"
 4675      6173 6B00 
 4676               	.LASF176:
 4677 0883 776F 7264 		.string	"word"
 4677      00
 4678               	.LASF189:
 4679 0888 5F5F 6164 		.string	"__addr16"
 4679      6472 3136 
 4679      00
 4680               	.LASF137:
 4681 0891 4B45 595F 		.string	"KEY_RCTRL"
 4681      5243 5452 
 4681      4C00 
 4682               	.LASF79:
 4683 089b 4B45 595F 		.string	"KEY_BKSLASH"
 4683      424B 534C 
 4683      4153 4800 
GAS LISTING C:\Users\ADMINI~1\AppData\Local\Temp/ccXldOo9.s 			page 92


 4684               	.LASF162:
 4685 08a7 4B45 595F 		.string	"KEY_CALC"
 4685      4341 4C43 
 4685      00
 4686               	.LASF216:
 4687 08b0 5F6E 6565 		.string	"_needRelease"
 4687      6452 656C 
 4687      6561 7365 
 4687      00
 4688               	.LASF200:
 4689 08bd 6B65 796D 		.string	"keymap"
 4689      6170 00
 4690               	.LASF215:
 4691 08c4 5F70 7265 		.string	"_prevPressedBuffer"
 4691      7650 7265 
 4691      7373 6564 
 4691      4275 6666 
 4691      6572 00
 4692               	.LASF194:
 4693 08d7 674C 656E 		.string	"gLen"
 4693      00
 4694               	.LASF135:
 4695 08dc 4B45 595F 		.string	"KEY_LALT"
 4695      4C41 4C54 
 4695      00
 4696               	.LASF14:
 4697 08e5 4B45 595F 		.string	"KEY_FN_HANJA"
 4697      464E 5F48 
 4697      414E 4A41 
 4697      00
 4698               	.LASF89:
 4699 08f2 4B45 595F 		.string	"KEY_F2"
 4699      4632 00
 4700               	.LASF90:
 4701 08f9 4B45 595F 		.string	"KEY_F3"
 4701      4633 00
 4702               	.LASF91:
 4703 0900 4B45 595F 		.string	"KEY_F4"
 4703      4634 00
 4704               	.LASF92:
 4705 0907 4B45 595F 		.string	"KEY_F5"
 4705      4635 00
 4706               	.LASF93:
 4707 090e 4B45 595F 		.string	"KEY_F6"
 4707      4636 00
 4708               	.LASF94:
 4709 0915 4B45 595F 		.string	"KEY_F7"
 4709      4637 00
 4710               	.LASF95:
 4711 091c 4B45 595F 		.string	"KEY_F8"
 4711      4638 00
 4712               	.LASF10:
 4713 0923 7569 6E74 		.string	"uint8_t"
 4713      385F 7400 
 4714               	.LASF104:
 4715 092b 4B45 595F 		.string	"KEY_HOME"
 4715      484F 4D45 
GAS LISTING C:\Users\ADMINI~1\AppData\Local\Temp/ccXldOo9.s 			page 93


 4715      00
 4716               	.LASF150:
 4717 0934 4B45 595F 		.string	"KEY_WWW_FORWARD"
 4717      5757 575F 
 4717      464F 5257 
 4717      4152 4400 
 4718               	.LASF170:
 4719 0944 4B45 595F 		.string	"KEY_extend"
 4719      6578 7465 
 4719      6E64 00
 4720               	.LASF131:
 4721 094f 4B45 595F 		.string	"KEY_APPS"
 4721      4150 5053 
 4721      00
 4722               	.LASF147:
 4723 0958 4B45 595F 		.string	"KEY_WWW_SEARCH"
 4723      5757 575F 
 4723      5345 4152 
 4723      4348 00
 4724               	.LASF112:
 4725 0967 4B45 595F 		.string	"KEY_UP"
 4725      5550 00
 4726               	.LASF185:
 4727 096e 774C 656E 		.string	"wLength"
 4727      6774 6800 
 4728               	.LASF88:
 4729 0976 4B45 595F 		.string	"KEY_F1"
 4729      4631 00
 4730               	.LASF163:
 4731 097d 4B45 595F 		.string	"KEY_MYCOM"
 4731      4D59 434F 
 4731      4D00 
 4732               	.LASF31:
 4733 0987 4B45 595F 		.string	"KEY_ErrorRollOver"
 4733      4572 726F 
 4733      7252 6F6C 
 4733      6C4F 7665 
 4733      7200 
 4734               	.LASF96:
 4735 0999 4B45 595F 		.string	"KEY_F9"
 4735      4639 00
 4736               	.LASF221:
 4737 09a0 7573 6244 		.string	"usbDescriptorHidReport"
 4737      6573 6372 
 4737      6970 746F 
 4737      7248 6964 
 4737      5265 706F 
 4738               	.LASF206:
 4739 09b7 696E 6974 		.string	"initInterfaceUsb"
 4739      496E 7465 
 4739      7266 6163 
 4739      6555 7362 
 4739      00
 4740               	.LASF136:
 4741 09c8 4B45 595F 		.string	"KEY_LGUI"
 4741      4C47 5549 
 4741      00
GAS LISTING C:\Users\ADMINI~1\AppData\Local\Temp/ccXldOo9.s 			page 94


 4742               	.LASF21:
 4743 09d1 4B45 595F 		.string	"KEY_RALT_HANGLE"
 4743      5241 4C54 
 4743      5F48 414E 
 4743      474C 4500 
 4744               	.LASF220:
 4745 09e1 7573 624D 		.string	"usbMsgPtr"
 4745      7367 5074 
 4745      7200 
 4746               	.LASF142:
 4747 09eb 4B45 595F 		.string	"KEY_Multimedia"
 4747      4D75 6C74 
 4747      696D 6564 
 4747      6961 00
 4748               	.LASF132:
 4749 09fa 4B45 595F 		.string	"KEY_Modifiers"
 4749      4D6F 6469 
 4749      6669 6572 
 4749      7300 
 4750               	.LASF110:
 4751 0a08 4B45 595F 		.string	"KEY_LEFT"
 4751      4C45 4654 
 4751      00
 4752               	.global __do_copy_data
 4753               	.global __do_clear_bss
GAS LISTING C:\Users\ADMINI~1\AppData\Local\Temp/ccXldOo9.s 			page 95


DEFINED SYMBOLS
                            *ABS*:00000000 usbmain.c
C:\Users\ADMINI~1\AppData\Local\Temp/ccXldOo9.s:2      *ABS*:0000003f __SREG__
C:\Users\ADMINI~1\AppData\Local\Temp/ccXldOo9.s:3      *ABS*:0000003e __SP_H__
C:\Users\ADMINI~1\AppData\Local\Temp/ccXldOo9.s:4      *ABS*:0000003d __SP_L__
C:\Users\ADMINI~1\AppData\Local\Temp/ccXldOo9.s:5      *ABS*:00000034 __CCP__
C:\Users\ADMINI~1\AppData\Local\Temp/ccXldOo9.s:6      *ABS*:00000000 __tmp_reg__
C:\Users\ADMINI~1\AppData\Local\Temp/ccXldOo9.s:7      *ABS*:00000001 __zero_reg__
C:\Users\ADMINI~1\AppData\Local\Temp/ccXldOo9.s:18     .text:00000000 hasMacroUsb
C:\Users\ADMINI~1\AppData\Local\Temp/ccXldOo9.s:1103   .bss:00000002 _needRelease
C:\Users\ADMINI~1\AppData\Local\Temp/ccXldOo9.s:45     .text:0000001c makeReportBuffer
C:\Users\ADMINI~1\AppData\Local\Temp/ccXldOo9.s:1101   .bss:00000000 _isMultimediaPressed
C:\Users\ADMINI~1\AppData\Local\Temp/ccXldOo9.s:1106   .bss:00000005 reportBuffer
                            *COM*:00000001 reportIndex
C:\Users\ADMINI~1\AppData\Local\Temp/ccXldOo9.s:180    .text:000000b0 clearReportBuffer
C:\Users\ADMINI~1\AppData\Local\Temp/ccXldOo9.s:203    .text:000000c6 scanMacroUsb
C:\Users\ADMINI~1\AppData\Local\Temp/ccXldOo9.s:1113   .bss:0000000e _prevPressedBuffer
C:\Users\ADMINI~1\AppData\Local\Temp/ccXldOo9.s:341    .text:00000194 scanKeyUSB
C:\Users\ADMINI~1\AppData\Local\Temp/ccXldOo9.s:1104   .bss:00000003 prevModifier.2327
C:\Users\ADMINI~1\AppData\Local\Temp/ccXldOo9.s:654    .text:0000037e usb_main
C:\Users\ADMINI~1\AppData\Local\Temp/ccXldOo9.s:1112   .bss:0000000d idleRate
                             .bss:00000001 _isInit
C:\Users\ADMINI~1\AppData\Local\Temp/ccXldOo9.s:838    .text:0000048c prepareKeyMappingUsb
C:\Users\ADMINI~1\AppData\Local\Temp/ccXldOo9.s:858    .text:0000049c initInterfaceUsb
C:\Users\ADMINI~1\AppData\Local\Temp/ccXldOo9.s:877    .text:000004ac usbFunctionSetup
C:\Users\ADMINI~1\AppData\Local\Temp/ccXldOo9.s:1105   .bss:00000004 expectReport
C:\Users\ADMINI~1\AppData\Local\Temp/ccXldOo9.s:1110   .data:00000000 protocolVer
C:\Users\ADMINI~1\AppData\Local\Temp/ccXldOo9.s:973    .text:00000530 usbFunctionWrite
C:\Users\ADMINI~1\AppData\Local\Temp/ccXldOo9.s:1010   .progmem.data:00000000 usbDescriptorHidReport

UNDEFINED SYMBOLS
isEmptyM
getDualActionDownKeyIdex
keycode_USB_multimedia
modmask
keycode_USB_extend
popMWithKey
_pressedBuffer
findIndex
memcpy
setCurrentMatrix
getLayer
prevMatrix
currentMatrix
getCurrentKeycode
applyMacro
applyFN
wakeUp
dualActionKeyIndex
isCanceledDualAction
isKeyMapping
putKeyCode
applyKeyMapping
applyDualAction
usbInit
INTERFACE
interfaceReady
GAS LISTING C:\Users\ADMINI~1\AppData\Local\Temp/ccXldOo9.s 			page 96


interfaceCount
usbPoll
usbTxStatus1
usbSetInterrupt
startKeyMappingOnBoot
countSleep
isBeyondFN
renderLED
setMacroProcessEnd
initFullLEDState
usbMsgPtr
setLEDState
setLEDIndicate
__do_copy_data
__do_clear_bss
