GAS LISTING C:\Users\ADMINI~1\AppData\Local\Temp/ccQkgpbR.s 			page 1


   1               		.file	"usbmain.c"
   2               	__SREG__ = 0x3f
   3               	__SP_H__ = 0x3e
   4               	__SP_L__ = 0x3d
   5               	__CCP__  = 0x34
   6               	__tmp_reg__ = 0
   7               	__zero_reg__ = 1
   8               		.section	.debug_abbrev,"",@progbits
   9               	.Ldebug_abbrev0:
  10               		.section	.debug_info,"",@progbits
  11               	.Ldebug_info0:
  12               		.section	.debug_line,"",@progbits
  13               	.Ldebug_line0:
  14               		.text
  15               	.Ltext0:
  16               	.global	hasMacroUsb
  17               		.type	hasMacroUsb, @function
  18               	hasMacroUsb:
  19               	.LFB16:
  20               	.LM1:
  21               	/* prologue: function */
  22               	/* frame size = 0 */
  23               	.LM2:
  24 0000 8091 0000 		lds r24,_needRelease
  25 0004 8823      		tst r24
  26 0006 01F4      		brne .L6
  27               	.L2:
  28 0008 0E94 0000 		call isEmptyM
  29 000c 20E0      		ldi r18,lo8(0)
  30 000e 30E0      		ldi r19,hi8(0)
  31 0010 8823      		tst r24
  32 0012 01F4      		brne .L3
  33               	.L6:
  34 0014 21E0      		ldi r18,lo8(1)
  35 0016 30E0      		ldi r19,hi8(1)
  36               	.L3:
  37               	.LM3:
  38 0018 822F      		mov r24,r18
  39               	/* epilogue start */
  40 001a 0895      		ret
  41               	.LFE16:
  42               		.size	hasMacroUsb, .-hasMacroUsb
  43               	.global	clearReportBuffer
  44               		.type	clearReportBuffer, @function
  45               	clearReportBuffer:
  46               	.LFB13:
  47               	.LM4:
  48               	/* prologue: function */
  49               	/* frame size = 0 */
  50               	.LM5:
  51 001c 88E0      		ldi r24,lo8(8)
  52 001e E0E0      		ldi r30,lo8(reportBuffer)
  53 0020 F0E0      		ldi r31,hi8(reportBuffer)
  54 0022 DF01      		movw r26,r30
  55 0024 1D92      		st X+,__zero_reg__
  56 0026 8A95      	        dec r24
  57 0028 01F4      		brne .-6
GAS LISTING C:\Users\ADMINI~1\AppData\Local\Temp/ccQkgpbR.s 			page 2


  58               	.LM6:
  59 002a 81E0      		ldi r24,lo8(1)
  60 002c 8093 0000 		sts reportBuffer,r24
  61               	/* epilogue start */
  62               	.LM7:
  63 0030 0895      		ret
  64               	.LFE13:
  65               		.size	clearReportBuffer, .-clearReportBuffer
  66               	.global	prepareKeyMappingUsb
  67               		.type	prepareKeyMappingUsb, @function
  68               	prepareKeyMappingUsb:
  69               	.LFB11:
  70               	.LM8:
  71               	/* prologue: function */
  72               	/* frame size = 0 */
  73               	.LM9:
  74 0032 80E2      		ldi r24,lo8(32)
  75 0034 E0E0      		ldi r30,lo8(_prevPressedBuffer)
  76 0036 F0E0      		ldi r31,hi8(_prevPressedBuffer)
  77 0038 DF01      		movw r26,r30
  78 003a 1D92      		st X+,__zero_reg__
  79 003c 8A95      	        dec r24
  80 003e 01F4      		brne .-6
  81               	/* epilogue start */
  82               	.LM10:
  83 0040 0895      		ret
  84               	.LFE11:
  85               		.size	prepareKeyMappingUsb, .-prepareKeyMappingUsb
  86               	.global	makeReportBuffer
  87               		.type	makeReportBuffer, @function
  88               	makeReportBuffer:
  89               	.LFB12:
  90               	.LM11:
  91               	.LVL0:
  92               	/* prologue: function */
  93               	/* frame size = 0 */
  94 0042 982F      		mov r25,r24
  95               	.LM12:
  96 0044 893F      		cpi r24,lo8(-7)
  97 0046 00F0      		brlo .+2
  98 0048 00C0      		rjmp .L12
  99               	.LM13:
 100 004a 8157      		subi r24,lo8(-(-113))
 101               	.LVL1:
 102 004c 8A31      		cpi r24,lo8(26)
 103 004e 00F4      		brsh .L13
 104               	.LBB2:
 105               	.LM14:
 106 0050 81E0      		ldi r24,lo8(1)
 107 0052 8093 0000 		sts _isMultimediaPressed,r24
 108               	.LBB3:
 109               	.LM15:
 110 0056 E92F      		mov r30,r25
 111               	.LVL2:
 112 0058 F0E0      		ldi r31,lo8(0)
 113               	.LVL3:
 114 005a EE0F      		lsl r30
GAS LISTING C:\Users\ADMINI~1\AppData\Local\Temp/ccQkgpbR.s 			page 3


 115 005c FF1F      		rol r31
 116               	.LVL4:
 117 005e E050      		subi r30,lo8(-(keycode_USB_multimedia-226))
 118 0060 F040      		sbci r31,hi8(-(keycode_USB_multimedia-226))
 119               	/* #APP */
 120               	 ;  423 "usbmain.c" 1
 121 0062 2591      		lpm r18, Z+
 122 0064 3491      		lpm r19, Z
 123               		
 124               	 ;  0 "" 2
 125               	.LVL5:
 126               	/* #NOAPP */
 127               	.LBE3:
 128               	.LM16:
 129 0066 82E0      		ldi r24,lo8(2)
 130 0068 8093 0000 		sts reportBuffer,r24
 131               	.LM17:
 132 006c 2093 0000 		sts reportBuffer+1,r18
 133               	.LM18:
 134 0070 3093 0000 		sts reportBuffer+2,r19
 135               	.LVL6:
 136 0074 00C0      		rjmp .L12
 137               	.LVL7:
 138               	.L13:
 139               	.LBE2:
 140               	.LM19:
 141 0076 892F      		mov r24,r25
 142 0078 8756      		subi r24,lo8(-(-103))
 143 007a 8830      		cpi r24,lo8(8)
 144 007c 00F4      		brsh .L14
 145               	.LM20:
 146 007e E92F      		mov r30,r25
 147 0080 F0E0      		ldi r31,lo8(0)
 148               	.LVL8:
 149 0082 EE0F      		lsl r30
 150 0084 FF1F      		rol r31
 151               	.LVL9:
 152 0086 E050      		subi r30,lo8(-(modmask-206))
 153 0088 F040      		sbci r31,hi8(-(modmask-206))
 154               	.LVL10:
 155 008a 8081      		ld r24,Z
 156 008c 9091 0000 		lds r25,reportBuffer+1
 157 0090 892B      		or r24,r25
 158 0092 8093 0000 		sts reportBuffer+1,r24
 159               	.LM21:
 160 0096 0E94 0000 		call applyKeyMapping
 161               	.LVL11:
 162 009a 00C0      		rjmp .L12
 163               	.LVL12:
 164               	.L14:
 165               	.LM22:
 166 009c 9923      		tst r25
 167 009e 01F0      		breq .L12
 168               	.LM23:
 169 00a0 2091 0000 		lds r18,reportIndex
 170 00a4 2830      		cpi r18,lo8(8)
 171 00a6 00F4      		brsh .L12
GAS LISTING C:\Users\ADMINI~1\AppData\Local\Temp/ccQkgpbR.s 			page 4


 172               	.LM24:
 173 00a8 892F      		mov r24,r25
 174 00aa 8D58      		subi r24,lo8(-(115))
 175 00ac 8230      		cpi r24,lo8(2)
 176 00ae 00F4      		brsh .L15
 177               	.LBB4:
 178               	.LM25:
 179 00b0 E92F      		mov r30,r25
 180               	.LVL13:
 181 00b2 F0E0      		ldi r31,lo8(0)
 182               	.LVL14:
 183 00b4 EE0F      		lsl r30
 184 00b6 FF1F      		rol r31
 185               	.LVL15:
 186 00b8 E050      		subi r30,lo8(-(keycode_USB_extend-282))
 187 00ba F040      		sbci r31,hi8(-(keycode_USB_extend-282))
 188               	/* #APP */
 189               	 ;  447 "usbmain.c" 1
 190 00bc 8591      		lpm r24, Z+
 191 00be 9491      		lpm r25, Z
 192               		
 193               	 ;  0 "" 2
 194               	.LVL16:
 195               	/* #NOAPP */
 196               	.LBE4:
 197 00c0 982F      		mov r25,r24
 198               	.L15:
 199               	.LM26:
 200 00c2 E22F      		mov r30,r18
 201               	.LVL17:
 202 00c4 F0E0      		ldi r31,lo8(0)
 203               	.LVL18:
 204 00c6 E050      		subi r30,lo8(-(reportBuffer))
 205 00c8 F040      		sbci r31,hi8(-(reportBuffer))
 206 00ca 9083      		st Z,r25
 207               	.LM27:
 208 00cc 2F5F      		subi r18,lo8(-(1))
 209 00ce 2093 0000 		sts reportIndex,r18
 210               	.LVL19:
 211               	.L12:
 212               	.LM28:
 213 00d2 80E0      		ldi r24,lo8(0)
 214               	.LVL20:
 215               	/* epilogue start */
 216 00d4 0895      		ret
 217               	.LFE12:
 218               		.size	makeReportBuffer, .-makeReportBuffer
 219               	.global	scanMacroUsb
 220               		.type	scanMacroUsb, @function
 221               	scanMacroUsb:
 222               	.LFB15:
 223               	.LM29:
 224 00d6 AF92      		push r10
 225 00d8 BF92      		push r11
 226 00da CF92      		push r12
 227 00dc DF92      		push r13
 228 00de EF92      		push r14
GAS LISTING C:\Users\ADMINI~1\AppData\Local\Temp/ccQkgpbR.s 			page 5


 229 00e0 FF92      		push r15
 230 00e2 1F93      		push r17
 231 00e4 CF93      		push r28
 232 00e6 DF93      		push r29
 233               	/* prologue: function */
 234               	/* frame size = 0 */
 235               	.LM30:
 236 00e8 0E94 0000 		call isEmptyM
 237 00ec 8823      		tst r24
 238 00ee 01F0      		breq .+2
 239 00f0 00C0      		rjmp .L18
 240               	.LBB5:
 241               	.LM31:
 242 00f2 0E94 0000 		call clearReportBuffer
 243               	.LM32:
 244 00f6 0E94 0000 		call popMWithKey
 245               	.LM33:
 246 00fa E0E0      		ldi r30,lo8(_pressedBuffer)
 247 00fc F0E0      		ldi r31,hi8(_pressedBuffer)
 248 00fe DF01      		movw r26,r30
 249 0100 0D90      		ld __tmp_reg__,X+
 250 0102 0020      		tst __tmp_reg__
 251 0104 01F4      		brne .-6
 252 0106 1197      		sbiw r26,1
 253 0108 AE1B      		sub r26,r30
 254 010a BF0B      		sbc r27,r31
 255               	.LM34:
 256 010c 82E0      		ldi r24,lo8(2)
 257 010e 8093 0000 		sts reportIndex,r24
 258 0112 EF01      		movw r28,r30
 259               	.LM35:
 260 0114 EA2E      		mov r14,r26
 261               	.LVL21:
 262 0116 FF24      		clr r15
 263               	.LVL22:
 264 0118 6F01      		movw r12,r30
 265 011a CE0C      		add r12,r14
 266 011c DF1C      		adc r13,r15
 267               	.LM36:
 268 011e 30E0      		ldi r19,lo8(_prevPressedBuffer)
 269 0120 A32E      		mov r10,r19
 270 0122 30E0      		ldi r19,hi8(_prevPressedBuffer)
 271 0124 B32E      		mov r11,r19
 272 0126 00C0      		rjmp .L19
 273               	.LVL23:
 274               	.L22:
 275               	.LM37:
 276 0128 1881      		ld r17,Y
 277               	.LM38:
 278 012a 812F      		mov r24,r17
 279 012c 8756      		subi r24,lo8(-(-103))
 280 012e 8830      		cpi r24,lo8(8)
 281 0130 00F0      		brlo .L26
 282               	.L20:
 283               	.LM39:
 284 0132 F501      		movw r30,r10
 285 0134 0190      		ld __tmp_reg__,Z+
GAS LISTING C:\Users\ADMINI~1\AppData\Local\Temp/ccQkgpbR.s 			page 6


 286 0136 0020      		tst __tmp_reg__
 287 0138 01F4      		brne .-6
 288 013a 3197      		sbiw r30,1
 289 013c E050      		subi r30,lo8(_prevPressedBuffer)
 290 013e F040      		sbci r31,hi8(_prevPressedBuffer)
 291 0140 80E0      		ldi r24,lo8(_prevPressedBuffer)
 292 0142 90E0      		ldi r25,hi8(_prevPressedBuffer)
 293 0144 6E2F      		mov r22,r30
 294 0146 412F      		mov r20,r17
 295 0148 0E94 0000 		call findIndex
 296               	.LM40:
 297 014c 8F5F      		subi r24,lo8(-1)
 298 014e 9F4F      		sbci r25,hi8(-1)
 299 0150 01F4      		brne .L21
 300               	.L26:
 301               	.LM41:
 302 0152 812F      		mov r24,r17
 303 0154 0E94 0000 		call makeReportBuffer
 304               	.L21:
 305 0158 2196      		adiw r28,1
 306               	.L19:
 307               	.LM42:
 308 015a 40E0      		ldi r20,lo8(_pressedBuffer)
 309 015c 50E0      		ldi r21,hi8(_pressedBuffer)
 310 015e CC15      		cp r28,r12
 311 0160 DD05      		cpc r29,r13
 312 0162 01F4      		brne .L22
 313               	.LM43:
 314 0164 81E0      		ldi r24,lo8(1)
 315 0166 8093 0000 		sts _needRelease,r24
 316               	.LM44:
 317 016a 20E0      		ldi r18,lo8(_prevPressedBuffer)
 318 016c 30E0      		ldi r19,hi8(_prevPressedBuffer)
 319 016e F701      		movw r30,r14
 320 0170 3196      		adiw r30,1
 321 0172 C901      		movw r24,r18
 322 0174 BA01      		movw r22,r20
 323 0176 AF01      		movw r20,r30
 324 0178 0E94 0000 		call memcpy
 325 017c 00C0      		rjmp .L24
 326               	.LVL24:
 327               	.L18:
 328               	.LBE5:
 329               	.LM45:
 330 017e 8091 0000 		lds r24,_needRelease
 331 0182 8823      		tst r24
 332 0184 01F0      		breq .L24
 333               	.LM46:
 334 0186 0E94 0000 		call clearReportBuffer
 335               	.LM47:
 336 018a 1092 0000 		sts _needRelease,__zero_reg__
 337               	.LVL25:
 338               	.L24:
 339               	.LM48:
 340 018e 81E0      		ldi r24,lo8(1)
 341               	/* epilogue start */
 342 0190 DF91      		pop r29
GAS LISTING C:\Users\ADMINI~1\AppData\Local\Temp/ccQkgpbR.s 			page 7


 343 0192 CF91      		pop r28
 344 0194 1F91      		pop r17
 345               	.LVL26:
 346 0196 FF90      		pop r15
 347               	.LVL27:
 348 0198 EF90      		pop r14
 349               	.LVL28:
 350 019a DF90      		pop r13
 351 019c CF90      		pop r12
 352 019e BF90      		pop r11
 353 01a0 AF90      		pop r10
 354 01a2 0895      		ret
 355               	.LFE15:
 356               		.size	scanMacroUsb, .-scanMacroUsb
 357               	.global	scanKeyUSB
 358               		.type	scanKeyUSB, @function
 359               	scanKeyUSB:
 360               	.LFB14:
 361               	.LM49:
 362 01a4 2F92      		push r2
 363 01a6 3F92      		push r3
 364 01a8 5F92      		push r5
 365 01aa 6F92      		push r6
 366 01ac 7F92      		push r7
 367 01ae 8F92      		push r8
 368 01b0 9F92      		push r9
 369 01b2 AF92      		push r10
 370 01b4 BF92      		push r11
 371 01b6 CF92      		push r12
 372 01b8 DF92      		push r13
 373 01ba EF92      		push r14
 374 01bc FF92      		push r15
 375 01be 0F93      		push r16
 376 01c0 1F93      		push r17
 377 01c2 DF93      		push r29
 378 01c4 CF93      		push r28
 379 01c6 0F92      		push __tmp_reg__
 380 01c8 CDB7      		in r28,__SP_L__
 381 01ca DEB7      		in r29,__SP_H__
 382               	/* prologue: function */
 383               	/* frame size = 1 */
 384               	.LM50:
 385 01cc 0E94 0000 		call setCurrentMatrix
 386 01d0 8823      		tst r24
 387 01d2 01F4      		brne .+2
 388 01d4 00C0      		rjmp .L28
 389               	.LM51:
 390 01d6 0E94 0000 		call getLayer
 391 01da 582E      		mov r5,r24
 392               	.LVL29:
 393               	.LM52:
 394 01dc 82E0      		ldi r24,lo8(2)
 395 01de 8093 0000 		sts reportIndex,r24
 396               	.LM53:
 397 01e2 0E94 0000 		call clearReportBuffer
 398 01e6 8824      		clr r8
 399               	.LVL30:
GAS LISTING C:\Users\ADMINI~1\AppData\Local\Temp/ccQkgpbR.s 			page 8


 400 01e8 1982      		std Y+1,__zero_reg__
 401               	.LVL31:
 402 01ea CC24      		clr r12
 403 01ec DD24      		clr r13
 404               	.LM54:
 405 01ee 41E0      		ldi r20,lo8(1)
 406 01f0 642E      		mov r6,r20
 407 01f2 712C      		mov r7,__zero_reg__
 408 01f4 00C0      		rjmp .L29
 409               	.LVL32:
 410               	.L38:
 411               	.LM55:
 412 01f6 A22C      		mov r10,r2
 413               	.LM56:
 414 01f8 F101      		movw r30,r2
 415 01fa E050      		subi r30,lo8(-(prevMatrix))
 416 01fc F040      		sbci r31,hi8(-(prevMatrix))
 417 01fe 1081      		ld r17,Z
 418               	.LVL33:
 419               	.LM57:
 420 0200 F101      		movw r30,r2
 421 0202 E050      		subi r30,lo8(-(currentMatrix))
 422 0204 F040      		sbci r31,hi8(-(currentMatrix))
 423 0206 F080      		ld r15,Z
 424 0208 F920      		and r15,r9
 425               	.LM58:
 426 020a 852D      		mov r24,r5
 427 020c 622D      		mov r22,r2
 428 020e 4B2D      		mov r20,r11
 429 0210 0E94 0000 		call getCurrentKeycode
 430 0214 082F      		mov r16,r24
 431               	.LM59:
 432 0216 FF20      		tst r15
 433 0218 01F0      		breq .L30
 434 021a 8823      		tst r24
 435 021c 01F0      		breq .L30
 436               	.LVL34:
 437 021e 0E94 0000 		call applyMacro
 438               	.LVL35:
 439 0222 8823      		tst r24
 440 0224 01F0      		breq .+2
 441 0226 00C0      		rjmp .L28
 442               	.LVL36:
 443               	.L30:
 444               	.LM60:
 445 0228 E92C      		mov r14,r9
 446 022a E122      		and r14,r17
 447               	.LM61:
 448 022c EF14      		cp r14,r15
 449 022e 01F0      		breq .L31
 450 0230 0023      		tst r16
 451 0232 01F4      		brne .+2
 452 0234 00C0      		rjmp .L32
 453               	.LM62:
 454 0236 FF20      		tst r15
 455 0238 01F0      		breq .L33
 456               	.LM63:
GAS LISTING C:\Users\ADMINI~1\AppData\Local\Temp/ccQkgpbR.s 			page 9


 457 023a 802F      		mov r24,r16
 458 023c 61E0      		ldi r22,lo8(1)
 459 023e 0E94 0000 		call applyFN
 460 0242 182F      		mov r17,r24
 461               	.LVL37:
 462               	.LM64:
 463 0244 0E94 0000 		call wakeUp
 464 0248 00C0      		rjmp .L34
 465               	.LVL38:
 466               	.L33:
 467               	.LM65:
 468 024a 802F      		mov r24,r16
 469 024c 60E0      		ldi r22,lo8(0)
 470 024e 0E94 0000 		call applyFN
 471 0252 182F      		mov r17,r24
 472               	.LVL39:
 473               	.LM66:
 474 0254 EE20      		tst r14
 475 0256 01F0      		breq .L35
 476               	.LVL40:
 477               	.L34:
 478 0258 0E94 0000 		call isKeyMapping
 479 025c 8823      		tst r24
 480 025e 01F0      		breq .L35
 481               	.LM67:
 482 0260 FF20      		tst r15
 483 0262 01F0      		breq .L36
 484               	.LM68:
 485 0264 802F      		mov r24,r16
 486 0266 6B2D      		mov r22,r11
 487 0268 4A2D      		mov r20,r10
 488 026a 21E0      		ldi r18,lo8(1)
 489 026c 0E94 0000 		call putKeyCode
 490 0270 81E0      		ldi r24,lo8(1)
 491 0272 8983      		std Y+1,r24
 492               	.LVL41:
 493 0274 00C0      		rjmp .L37
 494               	.L36:
 495               	.LM69:
 496 0276 802F      		mov r24,r16
 497 0278 6B2D      		mov r22,r11
 498 027a 4A2D      		mov r20,r10
 499 027c 20E0      		ldi r18,lo8(0)
 500 027e 0E94 0000 		call putKeyCode
 501 0282 E1E0      		ldi r30,lo8(1)
 502 0284 E983      		std Y+1,r30
 503               	.LVL42:
 504 0286 00C0      		rjmp .L37
 505               	.L35:
 506               	.LM70:
 507 0288 1123      		tst r17
 508 028a 01F0      		breq .L37
 509               	.LVL43:
 510               	.L31:
 511               	.LM71:
 512 028c FF20      		tst r15
 513 028e 01F0      		breq .L37
GAS LISTING C:\Users\ADMINI~1\AppData\Local\Temp/ccQkgpbR.s 			page 10


 514               	.LM72:
 515 0290 802F      		mov r24,r16
 516 0292 0E94 0000 		call makeReportBuffer
 517 0296 882E      		mov r8,r24
 518               	.LVL44:
 519               	.L37:
 520 0298 0894      		sec
 521 029a 211C      		adc r2,__zero_reg__
 522 029c 311C      		adc r3,__zero_reg__
 523               	.LM73:
 524 029e F1E1      		ldi r31,lo8(17)
 525 02a0 2F16      		cp r2,r31
 526 02a2 3104      		cpc r3,__zero_reg__
 527 02a4 01F0      		breq .+2
 528 02a6 00C0      		rjmp .L38
 529 02a8 0894      		sec
 530 02aa C11C      		adc r12,__zero_reg__
 531 02ac D11C      		adc r13,__zero_reg__
 532               	.LM74:
 533 02ae 88E0      		ldi r24,lo8(8)
 534 02b0 C816      		cp r12,r24
 535 02b2 D104      		cpc r13,__zero_reg__
 536 02b4 01F0      		breq .L39
 537               	.L29:
 538 02b6 BC2C      		mov r11,r12
 539               	.LM75:
 540 02b8 C301      		movw r24,r6
 541 02ba 0C2C      		mov r0,r12
 542 02bc 00C0      		rjmp 2f
 543 02be 880F      	1:	lsl r24
 544 02c0 991F      		rol r25
 545 02c2 0A94      	2:	dec r0
 546 02c4 02F4      		brpl 1b
 547 02c6 982E      		mov r9,r24
 548 02c8 2224      		clr r2
 549 02ca 3324      		clr r3
 550 02cc 00C0      		rjmp .L38
 551               	.L39:
 552               	.LM76:
 553 02ce 8091 0000 		lds r24,_isMultimediaPressed
 554 02d2 8823      		tst r24
 555 02d4 01F0      		breq .L40
 556 02d6 8091 0000 		lds r24,reportBuffer
 557 02da 8230      		cpi r24,lo8(2)
 558 02dc 01F0      		breq .L40
 559               	.LM77:
 560 02de 82E0      		ldi r24,lo8(2)
 561 02e0 8093 0000 		sts reportBuffer,r24
 562               	.LM78:
 563 02e4 1092 0000 		sts reportBuffer+1,__zero_reg__
 564               	.LM79:
 565 02e8 1092 0000 		sts reportBuffer+2,__zero_reg__
 566               	.LM80:
 567 02ec 1092 0000 		sts _isMultimediaPressed,__zero_reg__
 568               	.L40:
 569 02f0 20E0      		ldi r18,lo8(0)
 570 02f2 30E0      		ldi r19,hi8(0)
GAS LISTING C:\Users\ADMINI~1\AppData\Local\Temp/ccQkgpbR.s 			page 11


 571               	.L44:
 572               	.LM81:
 573 02f4 F901      		movw r30,r18
 574 02f6 E050      		subi r30,lo8(-(prevMatrix))
 575 02f8 F040      		sbci r31,hi8(-(prevMatrix))
 576 02fa D901      		movw r26,r18
 577 02fc A050      		subi r26,lo8(-(currentMatrix))
 578 02fe B040      		sbci r27,hi8(-(currentMatrix))
 579 0300 8C91      		ld r24,X
 580 0302 8083      		st Z,r24
 581 0304 2F5F      		subi r18,lo8(-(1))
 582 0306 3F4F      		sbci r19,hi8(-(1))
 583               	.LM82:
 584 0308 2131      		cpi r18,17
 585 030a 3105      		cpc r19,__zero_reg__
 586 030c 01F4      		brne .L44
 587               	.LM83:
 588 030e E981      		ldd r30,Y+1
 589 0310 E130      		cpi r30,lo8(1)
 590 0312 01F0      		breq .L28
 591               	.LM84:
 592 0314 882D      		mov r24,r8
 593 0316 8160      		ori r24,lo8(1)
 594               	.LVL45:
 595 0318 00C0      		rjmp .L42
 596               	.LVL46:
 597               	.L28:
 598               	.LM85:
 599 031a 80E0      		ldi r24,lo8(0)
 600               	.LVL47:
 601               	.L42:
 602               	.LVL48:
 603               	/* epilogue start */
 604               	.LM86:
 605 031c 0F90      		pop __tmp_reg__
 606 031e CF91      		pop r28
 607 0320 DF91      		pop r29
 608 0322 1F91      		pop r17
 609               	.LVL49:
 610 0324 0F91      		pop r16
 611               	.LVL50:
 612 0326 FF90      		pop r15
 613               	.LVL51:
 614 0328 EF90      		pop r14
 615               	.LVL52:
 616 032a DF90      		pop r13
 617 032c CF90      		pop r12
 618 032e BF90      		pop r11
 619               	.LVL53:
 620 0330 AF90      		pop r10
 621               	.LVL54:
 622 0332 9F90      		pop r9
 623 0334 8F90      		pop r8
 624 0336 7F90      		pop r7
 625 0338 6F90      		pop r6
 626 033a 5F90      		pop r5
 627               	.LVL55:
GAS LISTING C:\Users\ADMINI~1\AppData\Local\Temp/ccQkgpbR.s 			page 12


 628 033c 3F90      		pop r3
 629 033e 2F90      		pop r2
 630 0340 0895      		ret
 631               	.LVL56:
 632               	.L32:
 633               	.LM87:
 634 0342 11E0      		ldi r17,lo8(1)
 635               	.LVL57:
 636 0344 00C0      		rjmp .L34
 637               	.LFE14:
 638               		.size	scanKeyUSB, .-scanKeyUSB
 639               	.global	usb_main
 640               		.type	usb_main, @function
 641               	usb_main:
 642               	.LFB17:
 643               	.LM88:
 644 0346 EF92      		push r14
 645 0348 FF92      		push r15
 646 034a 0F93      		push r16
 647 034c 1F93      		push r17
 648               	/* prologue: function */
 649               	/* frame size = 0 */
 650               	.LM89:
 651 034e 0E94 0000 		call usbInit
 652               	.LM90:
 653               	/* #APP */
 654               	 ;  609 "usbmain.c" 1
 655 0352 7894      		sei
 656               	 ;  0 "" 2
 657               	/* #NOAPP */
 658 0354 00E0      		ldi r16,lo8(0)
 659               	.LVL58:
 660 0356 10E0      		ldi r17,lo8(0)
 661               	.LVL59:
 662               	.LM91:
 663 0358 EE24      		clr r14
 664 035a E394      		inc r14
 665               	.LVL60:
 666               	.L48:
 667               	.LM92:
 668 035c 8091 0000 		lds r24,INTERFACE
 669 0360 8130      		cpi r24,lo8(1)
 670 0362 01F4      		brne .L49
 671 0364 8091 0000 		lds r24,interfaceReady
 672 0368 8823      		tst r24
 673 036a 01F4      		brne .L49
 674 036c 8091 0000 		lds r24,interfaceCount
 675 0370 9091 0000 		lds r25,(interfaceCount)+1
 676 0374 0196      		adiw r24,1
 677 0376 9093 0000 		sts (interfaceCount)+1,r25
 678 037a 8093 0000 		sts interfaceCount,r24
 679 037e 0197      		sbiw r24,1
 680 0380 815D      		subi r24,lo8(2001)
 681 0382 9740      		sbci r25,hi8(2001)
 682 0384 04F0      		brlt .L49
 683               	.LM93:
 684 0386 1092 0000 		sts INTERFACE,__zero_reg__
GAS LISTING C:\Users\ADMINI~1\AppData\Local\Temp/ccQkgpbR.s 			page 13


 685               	.LM94:
 686 038a 8BB7      		in r24,91-32
 687 038c 8F7B      		andi r24,lo8(-65)
 688 038e 8BBF      		out 91-32,r24
 689               	/* epilogue start */
 690               	.LM95:
 691 0390 1F91      		pop r17
 692               	.LVL61:
 693 0392 0F91      		pop r16
 694               	.LVL62:
 695 0394 FF90      		pop r15
 696               	.LVL63:
 697 0396 EF90      		pop r14
 698 0398 0895      		ret
 699               	.LVL64:
 700               	.L49:
 701               	.LM96:
 702 039a 0E94 0000 		call usbPoll
 703               	.LM97:
 704 039e 0023      		tst r16
 705 03a0 01F4      		brne .L50
 706               	.LM98:
 707 03a2 0E94 0000 		call scanKeyUSB
 708 03a6 082F      		mov r16,r24
 709               	.LM99:
 710 03a8 08B6      		in __tmp_reg__,88-32
 711 03aa 00FE      		sbrs __tmp_reg__,0
 712 03ac 00C0      		rjmp .L51
 713               	.LM100:
 714 03ae E8BE      		out 88-32,r14
 715               	.LM101:
 716 03b0 F090 0000 		lds r15,idleRate
 717               	.LVL65:
 718 03b4 FF20      		tst r15
 719 03b6 01F0      		breq .L51
 720               	.LM102:
 721 03b8 1530      		cpi r17,lo8(5)
 722 03ba 00F4      		brsh .L52
 723               	.LVL66:
 724 03bc 01E0      		ldi r16,lo8(1)
 725 03be 00C0      		rjmp .L53
 726               	.L52:
 727               	.LM103:
 728 03c0 5BEF      		ldi r21,lo8(-5)
 729 03c2 F52E      		mov r15,r21
 730               	.LVL67:
 731 03c4 F10E      		add r15,r17
 732 03c6 00C0      		rjmp .L53
 733               	.LVL68:
 734               	.L50:
 735               	.LM104:
 736 03c8 0E94 0000 		call scanKeyUSB
 737               	.LVL69:
 738               	.L51:
 739 03cc F12E      		mov r15,r17
 740               	.L53:
 741               	.LM105:
GAS LISTING C:\Users\ADMINI~1\AppData\Local\Temp/ccQkgpbR.s 			page 14


 742 03ce 8091 0000 		lds r24,usbTxStatus1
 743 03d2 84FF      		sbrs r24,4
 744 03d4 00C0      		rjmp .L54
 745               	.LM106:
 746 03d6 8091 0000 		lds r24,_isInit
 747 03da 8823      		tst r24
 748 03dc 01F0      		breq .L55
 749               	.LM107:
 750 03de 1092 0000 		sts _isInit,__zero_reg__
 751               	.LM108:
 752 03e2 0E94 0000 		call clearReportBuffer
 753               	.LM109:
 754 03e6 80E0      		ldi r24,lo8(reportBuffer)
 755 03e8 90E0      		ldi r25,hi8(reportBuffer)
 756 03ea 68E0      		ldi r22,lo8(8)
 757 03ec 0E94 0000 		call usbSetInterrupt
 758               	.LM110:
 759 03f0 0E94 0000 		call startKeyMappingOnBoot
 760 03f4 00C0      		rjmp .L54
 761               	.L55:
 762               	.LM111:
 763 03f6 0E94 0000 		call hasMacroUsb
 764 03fa 8823      		tst r24
 765 03fc 01F0      		breq .L56
 766               	.LM112:
 767 03fe 0E94 0000 		call scanMacroUsb
 768               	.LM113:
 769 0402 80E0      		ldi r24,lo8(reportBuffer)
 770 0404 90E0      		ldi r25,hi8(reportBuffer)
 771 0406 68E0      		ldi r22,lo8(8)
 772 0408 0E94 0000 		call usbSetInterrupt
 773 040c 00C0      		rjmp .L54
 774               	.L56:
 775               	.LM114:
 776 040e 0023      		tst r16
 777 0410 01F0      		breq .L54
 778               	.LM115:
 779 0412 8091 0000 		lds r24,reportBuffer
 780 0416 8230      		cpi r24,lo8(2)
 781 0418 01F4      		brne .L57
 782               	.LM116:
 783 041a 80E0      		ldi r24,lo8(reportBuffer)
 784 041c 90E0      		ldi r25,hi8(reportBuffer)
 785 041e 63E0      		ldi r22,lo8(3)
 786 0420 00C0      		rjmp .L63
 787               	.L57:
 788               	.LM117:
 789 0422 8130      		cpi r24,lo8(1)
 790 0424 01F4      		brne .L64
 791               	.L58:
 792               	.LM118:
 793 0426 80E0      		ldi r24,lo8(reportBuffer)
 794 0428 90E0      		ldi r25,hi8(reportBuffer)
 795 042a 68E0      		ldi r22,lo8(8)
 796               	.L63:
 797 042c 0E94 0000 		call usbSetInterrupt
 798               	.L64:
GAS LISTING C:\Users\ADMINI~1\AppData\Local\Temp/ccQkgpbR.s 			page 15


 799 0430 00E0      		ldi r16,lo8(0)
 800               	.L54:
 801               	.LM119:
 802 0432 0E94 0000 		call countSleep
 803               	.LM120:
 804 0436 8091 0000 		lds r24,isBeyondFN
 805 043a 0E94 0000 		call renderLED
 806               	.LM121:
 807 043e 0E94 0000 		call hasMacroUsb
 808 0442 8823      		tst r24
 809 0444 01F0      		breq .L59
 810               	.LM122:
 811 0446 80E0      		ldi r24,lo8(0)
 812 0448 00C0      		rjmp .L62
 813               	.L59:
 814               	.LM123:
 815 044a 81E0      		ldi r24,lo8(1)
 816               	.L62:
 817 044c 0E94 0000 		call setMacroProcessEnd
 818               	.LM124:
 819 0450 1F2D      		mov r17,r15
 820 0452 00C0      		rjmp .L48
 821               	.LFE17:
 822               		.size	usb_main, .-usb_main
 823               	.global	initInterfaceUsb
 824               		.type	initInterfaceUsb, @function
 825               	initInterfaceUsb:
 826               	.LFB10:
 827               	.LM125:
 828               	/* prologue: function */
 829               	/* frame size = 0 */
 830               	.LM126:
 831 0454 81E0      		ldi r24,lo8(1)
 832 0456 8093 0000 		sts _isInit,r24
 833               	.LM127:
 834 045a 0E94 0000 		call initFullLEDState
 835               	.LM128:
 836 045e 0E94 0000 		call wakeUp
 837               	/* epilogue start */
 838               	.LM129:
 839 0462 0895      		ret
 840               	.LFE10:
 841               		.size	initInterfaceUsb, .-initInterfaceUsb
 842               	.global	usbFunctionSetup
 843               		.type	usbFunctionSetup, @function
 844               	usbFunctionSetup:
 845               	.LFB8:
 846               	.LM130:
 847               	.LVL70:
 848 0464 CF93      		push r28
 849 0466 DF93      		push r29
 850               	/* prologue: function */
 851               	/* frame size = 0 */
 852               	.LM131:
 853 0468 21E0      		ldi r18,lo8(1)
 854 046a 2093 0000 		sts interfaceReady,r18
 855               	.LM132:
GAS LISTING C:\Users\ADMINI~1\AppData\Local\Temp/ccQkgpbR.s 			page 16


 856 046e EC01      		movw r28,r24
 857               	.LVL71:
 858               	.LM133:
 859 0470 8091 0000 		lds r24,reportBuffer
 860 0474 8093 0000 		sts usbMsgPtr,r24
 861 0478 1092 0000 		sts usbMsgPtr+1,__zero_reg__
 862               	.LM134:
 863 047c 8881      		ld r24,Y
 864               	.LVL72:
 865 047e 8076      		andi r24,lo8(96)
 866 0480 8032      		cpi r24,lo8(32)
 867 0482 01F4      		brne .L68
 868               	.LM135:
 869 0484 8981      		ldd r24,Y+1
 870 0486 8130      		cpi r24,lo8(1)
 871 0488 01F4      		brne .L69
 872 048a 88E0      		ldi r24,lo8(8)
 873 048c 00C0      		rjmp .L70
 874               	.L69:
 875               	.LM136:
 876 048e 8930      		cpi r24,lo8(9)
 877 0490 01F4      		brne .L71
 878               	.LM137:
 879 0492 8E81      		ldd r24,Y+6
 880 0494 9F81      		ldd r25,Y+7
 881 0496 0297      		sbiw r24,2
 882 0498 01F4      		brne .L68
 883               	.LM138:
 884 049a 2093 0000 		sts expectReport,r18
 885 049e 8FEF      		ldi r24,lo8(-1)
 886 04a0 00C0      		rjmp .L70
 887               	.L71:
 888               	.LM139:
 889 04a2 8230      		cpi r24,lo8(2)
 890 04a4 01F4      		brne .L72
 891               	.LM140:
 892 04a6 8091 0000 		lds r24,idleRate
 893 04aa 00C0      		rjmp .L76
 894               	.L72:
 895               	.LM141:
 896 04ac 8A30      		cpi r24,lo8(10)
 897 04ae 01F4      		brne .L73
 898               	.LM142:
 899 04b0 0E94 0000 		call initInterfaceUsb
 900               	.LM143:
 901 04b4 8B81      		ldd r24,Y+3
 902 04b6 8093 0000 		sts idleRate,r24
 903 04ba 00C0      		rjmp .L68
 904               	.L73:
 905               	.LM144:
 906 04bc 8330      		cpi r24,lo8(3)
 907 04be 01F4      		brne .L74
 908               	.LM145:
 909 04c0 8B81      		ldd r24,Y+3
 910 04c2 8823      		tst r24
 911 04c4 01F4      		brne .L68
 912               	.LM146:
GAS LISTING C:\Users\ADMINI~1\AppData\Local\Temp/ccQkgpbR.s 			page 17


 913 04c6 1092 0000 		sts protocolVer,__zero_reg__
 914 04ca 00C0      		rjmp .L70
 915               	.L74:
 916               	.LM147:
 917 04cc 8B30      		cpi r24,lo8(11)
 918 04ce 01F4      		brne .L68
 919               	.LM148:
 920 04d0 8091 0000 		lds r24,protocolVer
 921               	.L76:
 922 04d4 8093 0000 		sts usbMsgPtr,r24
 923 04d8 1092 0000 		sts usbMsgPtr+1,__zero_reg__
 924 04dc 81E0      		ldi r24,lo8(1)
 925 04de 00C0      		rjmp .L70
 926               	.L68:
 927               	.LM149:
 928 04e0 80E0      		ldi r24,lo8(0)
 929               	.L70:
 930               	/* epilogue start */
 931               	.LM150:
 932 04e2 DF91      		pop r29
 933 04e4 CF91      		pop r28
 934               	.LVL73:
 935 04e6 0895      		ret
 936               	.LFE8:
 937               		.size	usbFunctionSetup, .-usbFunctionSetup
 938               	.global	usbFunctionWrite
 939               		.type	usbFunctionWrite, @function
 940               	usbFunctionWrite:
 941               	.LFB9:
 942               	.LM151:
 943               	.LVL74:
 944               	/* prologue: function */
 945               	/* frame size = 0 */
 946 04e8 FC01      		movw r30,r24
 947               	.LM152:
 948 04ea 8091 0000 		lds r24,expectReport
 949               	.LVL75:
 950 04ee 8823      		tst r24
 951 04f0 01F0      		breq .L78
 952 04f2 6230      		cpi r22,lo8(2)
 953 04f4 01F4      		brne .L78
 954 04f6 8081      		ld r24,Z
 955 04f8 8130      		cpi r24,lo8(1)
 956 04fa 01F4      		brne .L78
 957               	.LM153:
 958 04fc 8181      		ldd r24,Z+1
 959 04fe 0E94 0000 		call setLEDState
 960               	.LVL76:
 961               	.LM154:
 962 0502 0E94 0000 		call setLEDIndicate
 963               	.LVL77:
 964               	.L78:
 965               	.LM155:
 966 0506 1092 0000 		sts expectReport,__zero_reg__
 967               	.LM156:
 968 050a 81E0      		ldi r24,lo8(1)
 969               	/* epilogue start */
GAS LISTING C:\Users\ADMINI~1\AppData\Local\Temp/ccQkgpbR.s 			page 18


 970 050c 0895      		ret
 971               	.LFE9:
 972               		.size	usbFunctionWrite, .-usbFunctionWrite
 973               	.global	usbDescriptorHidReport
 974               		.section	.progmem.data,"a",@progbits
 975               		.type	usbDescriptorHidReport, @object
 976               		.size	usbDescriptorHidReport, 85
 977               	usbDescriptorHidReport:
 978 0000 05        		.byte	5
 979 0001 01        		.byte	1
 980 0002 09        		.byte	9
 981 0003 06        		.byte	6
 982 0004 A1        		.byte	-95
 983 0005 01        		.byte	1
 984 0006 85        		.byte	-123
 985 0007 01        		.byte	1
 986 0008 05        		.byte	5
 987 0009 07        		.byte	7
 988 000a 19        		.byte	25
 989 000b E0        		.byte	-32
 990 000c 29        		.byte	41
 991 000d E7        		.byte	-25
 992 000e 15        		.byte	21
 993 000f 00        		.byte	0
 994 0010 25        		.byte	37
 995 0011 01        		.byte	1
 996 0012 75        		.byte	117
 997 0013 01        		.byte	1
 998 0014 95        		.byte	-107
 999 0015 08        		.byte	8
 1000 0016 81        		.byte	-127
 1001 0017 02        		.byte	2
 1002 0018 95        		.byte	-107
 1003 0019 05        		.byte	5
 1004 001a 75        		.byte	117
 1005 001b 01        		.byte	1
 1006 001c 05        		.byte	5
 1007 001d 08        		.byte	8
 1008 001e 19        		.byte	25
 1009 001f 01        		.byte	1
 1010 0020 29        		.byte	41
 1011 0021 05        		.byte	5
 1012 0022 91        		.byte	-111
 1013 0023 02        		.byte	2
 1014 0024 95        		.byte	-107
 1015 0025 01        		.byte	1
 1016 0026 75        		.byte	117
 1017 0027 03        		.byte	3
 1018 0028 91        		.byte	-111
 1019 0029 03        		.byte	3
 1020 002a 95        		.byte	-107
 1021 002b 06        		.byte	6
 1022 002c 75        		.byte	117
 1023 002d 08        		.byte	8
 1024 002e 15        		.byte	21
 1025 002f 00        		.byte	0
 1026 0030 26        		.byte	38
GAS LISTING C:\Users\ADMINI~1\AppData\Local\Temp/ccQkgpbR.s 			page 19


 1027 0031 91        		.byte	-111
 1028 0032 00        		.byte	0
 1029 0033 05        		.byte	5
 1030 0034 07        		.byte	7
 1031 0035 19        		.byte	25
 1032 0036 00        		.byte	0
 1033 0037 29        		.byte	41
 1034 0038 A4        		.byte	-92
 1035 0039 81        		.byte	-127
 1036 003a 00        		.byte	0
 1037 003b C0        		.byte	-64
 1038 003c 05        		.byte	5
 1039 003d 0C        		.byte	12
 1040 003e 09        		.byte	9
 1041 003f 01        		.byte	1
 1042 0040 A1        		.byte	-95
 1043 0041 01        		.byte	1
 1044 0042 85        		.byte	-123
 1045 0043 02        		.byte	2
 1046 0044 19        		.byte	25
 1047 0045 00        		.byte	0
 1048 0046 2A        		.byte	42
 1049 0047 3C        		.byte	60
 1050 0048 02        		.byte	2
 1051 0049 15        		.byte	21
 1052 004a 00        		.byte	0
 1053 004b 26        		.byte	38
 1054 004c 3C        		.byte	60
 1055 004d 02        		.byte	2
 1056 004e 95        		.byte	-107
 1057 004f 01        		.byte	1
 1058 0050 75        		.byte	117
 1059 0051 10        		.byte	16
 1060 0052 81        		.byte	-127
 1061 0053 00        		.byte	0
 1062 0054 C0        		.byte	-64
 1063               	.global	_isMultimediaPressed
 1064               	.global	_isMultimediaPressed
 1065               		.section .bss
 1066               		.type	_isMultimediaPressed, @object
 1067               		.size	_isMultimediaPressed, 1
 1068               	_isMultimediaPressed:
 1069 0000 00        		.skip 1,0
 1070               		.lcomm _isInit,1
 1071               		.lcomm _needRelease,1
 1072               		.lcomm expectReport,1
 1073               		.data
 1074               		.type	protocolVer, @object
 1075               		.size	protocolVer, 1
 1076               	protocolVer:
 1077 0000 01        		.byte	1
 1078               		.lcomm reportBuffer,8
 1079               		.lcomm idleRate,1
 1080               		.lcomm _prevPressedBuffer,32
 1081               		.comm reportIndex,1,1
 1082               		.section	.debug_frame,"",@progbits
 1083               	.Lframe0:
GAS LISTING C:\Users\ADMINI~1\AppData\Local\Temp/ccQkgpbR.s 			page 20


 1084 0000 0C00 0000 		.long	.LECIE0-.LSCIE0
 1085               	.LSCIE0:
 1086 0004 FFFF FFFF 		.long	0xffffffff
 1087 0008 01        		.byte	0x1
 1088 0009 00        		.string	""
 1089 000a 01        		.uleb128 0x1
 1090 000b 7F        		.sleb128 -1
 1091 000c 24        		.byte	0x24
 1092 000d 0C        		.byte	0xc
 1093 000e 20        		.uleb128 0x20
 1094 000f 00        		.uleb128 0x0
 1095               		.p2align	2
 1096               	.LECIE0:
 1097               	.LSFDE0:
 1098 0010 0C00 0000 		.long	.LEFDE0-.LASFDE0
 1099               	.LASFDE0:
 1100 0014 0000 0000 		.long	.Lframe0
 1101 0018 0000 0000 		.long	.LFB16
 1102 001c 1C00 0000 		.long	.LFE16-.LFB16
 1103               		.p2align	2
 1104               	.LEFDE0:
 1105               	.LSFDE2:
 1106 0020 0C00 0000 		.long	.LEFDE2-.LASFDE2
 1107               	.LASFDE2:
 1108 0024 0000 0000 		.long	.Lframe0
 1109 0028 0000 0000 		.long	.LFB13
 1110 002c 1600 0000 		.long	.LFE13-.LFB13
 1111               		.p2align	2
 1112               	.LEFDE2:
 1113               	.LSFDE4:
 1114 0030 0C00 0000 		.long	.LEFDE4-.LASFDE4
 1115               	.LASFDE4:
 1116 0034 0000 0000 		.long	.Lframe0
 1117 0038 0000 0000 		.long	.LFB11
 1118 003c 1000 0000 		.long	.LFE11-.LFB11
 1119               		.p2align	2
 1120               	.LEFDE4:
 1121               	.LSFDE6:
 1122 0040 0C00 0000 		.long	.LEFDE6-.LASFDE6
 1123               	.LASFDE6:
 1124 0044 0000 0000 		.long	.Lframe0
 1125 0048 0000 0000 		.long	.LFB12
 1126 004c 9400 0000 		.long	.LFE12-.LFB12
 1127               		.p2align	2
 1128               	.LEFDE6:
 1129               	.LSFDE8:
 1130 0050 0C00 0000 		.long	.LEFDE8-.LASFDE8
 1131               	.LASFDE8:
 1132 0054 0000 0000 		.long	.Lframe0
 1133 0058 0000 0000 		.long	.LFB15
 1134 005c CE00 0000 		.long	.LFE15-.LFB15
 1135               		.p2align	2
 1136               	.LEFDE8:
 1137               	.LSFDE10:
 1138 0060 0C00 0000 		.long	.LEFDE10-.LASFDE10
 1139               	.LASFDE10:
 1140 0064 0000 0000 		.long	.Lframe0
GAS LISTING C:\Users\ADMINI~1\AppData\Local\Temp/ccQkgpbR.s 			page 21


 1141 0068 0000 0000 		.long	.LFB14
 1142 006c A201 0000 		.long	.LFE14-.LFB14
 1143               		.p2align	2
 1144               	.LEFDE10:
 1145               	.LSFDE12:
 1146 0070 0C00 0000 		.long	.LEFDE12-.LASFDE12
 1147               	.LASFDE12:
 1148 0074 0000 0000 		.long	.Lframe0
 1149 0078 0000 0000 		.long	.LFB17
 1150 007c 0E01 0000 		.long	.LFE17-.LFB17
 1151               		.p2align	2
 1152               	.LEFDE12:
 1153               	.LSFDE14:
 1154 0080 0C00 0000 		.long	.LEFDE14-.LASFDE14
 1155               	.LASFDE14:
 1156 0084 0000 0000 		.long	.Lframe0
 1157 0088 0000 0000 		.long	.LFB10
 1158 008c 1000 0000 		.long	.LFE10-.LFB10
 1159               		.p2align	2
 1160               	.LEFDE14:
 1161               	.LSFDE16:
 1162 0090 0C00 0000 		.long	.LEFDE16-.LASFDE16
 1163               	.LASFDE16:
 1164 0094 0000 0000 		.long	.Lframe0
 1165 0098 0000 0000 		.long	.LFB8
 1166 009c 8400 0000 		.long	.LFE8-.LFB8
 1167               		.p2align	2
 1168               	.LEFDE16:
 1169               	.LSFDE18:
 1170 00a0 0C00 0000 		.long	.LEFDE18-.LASFDE18
 1171               	.LASFDE18:
 1172 00a4 0000 0000 		.long	.Lframe0
 1173 00a8 0000 0000 		.long	.LFB9
 1174 00ac 2600 0000 		.long	.LFE9-.LFB9
 1175               		.p2align	2
 1176               	.LEFDE18:
 1177               		.text
 1178               	.Letext0:
 1179               		.section	.debug_loc,"",@progbits
 1180               	.Ldebug_loc0:
 1181               	.LLST4:
 1182 0000 4200 0000 		.long	.LVL0-.Ltext0
 1183 0004 4C00 0000 		.long	.LVL1-.Ltext0
 1184 0008 0100      		.word	0x1
 1185 000a 68        		.byte	0x68
 1186 000b 4C00 0000 		.long	.LVL1-.Ltext0
 1187 000f 8200 0000 		.long	.LVL8-.Ltext0
 1188 0013 0100      		.word	0x1
 1189 0015 69        		.byte	0x69
 1190 0016 8200 0000 		.long	.LVL8-.Ltext0
 1191 001a 9A00 0000 		.long	.LVL11-.Ltext0
 1192 001e 0600      		.word	0x6
 1193 0020 6E        		.byte	0x6e
 1194 0021 93        		.byte	0x93
 1195 0022 01        		.uleb128 0x1
 1196 0023 6F        		.byte	0x6f
 1197 0024 93        		.byte	0x93
GAS LISTING C:\Users\ADMINI~1\AppData\Local\Temp/ccQkgpbR.s 			page 22


 1198 0025 01        		.uleb128 0x1
 1199 0026 9C00 0000 		.long	.LVL12-.Ltext0
 1200 002a D600 0000 		.long	.LFE12-.Ltext0
 1201 002e 0100      		.word	0x1
 1202 0030 69        		.byte	0x69
 1203 0031 0000 0000 		.long	0x0
 1204 0035 0000 0000 		.long	0x0
 1205               	.LLST5:
 1206 0039 5A00 0000 		.long	.LVL3-.Ltext0
 1207 003d 7600 0000 		.long	.LVL7-.Ltext0
 1208 0041 0600      		.word	0x6
 1209 0043 6E        		.byte	0x6e
 1210 0044 93        		.byte	0x93
 1211 0045 01        		.uleb128 0x1
 1212 0046 6F        		.byte	0x6f
 1213 0047 93        		.byte	0x93
 1214 0048 01        		.uleb128 0x1
 1215 0049 D200 0000 		.long	.LVL19-.Ltext0
 1216 004d D600 0000 		.long	.LFE12-.Ltext0
 1217 0051 0600      		.word	0x6
 1218 0053 6E        		.byte	0x6e
 1219 0054 93        		.byte	0x93
 1220 0055 01        		.uleb128 0x1
 1221 0056 6F        		.byte	0x6f
 1222 0057 93        		.byte	0x93
 1223 0058 01        		.uleb128 0x1
 1224 0059 0000 0000 		.long	0x0
 1225 005d 0000 0000 		.long	0x0
 1226               	.LLST6:
 1227 0061 6600 0000 		.long	.LVL5-.Ltext0
 1228 0065 7600 0000 		.long	.LVL7-.Ltext0
 1229 0069 0600      		.word	0x6
 1230 006b 62        		.byte	0x62
 1231 006c 93        		.byte	0x93
 1232 006d 01        		.uleb128 0x1
 1233 006e 63        		.byte	0x63
 1234 006f 93        		.byte	0x93
 1235 0070 01        		.uleb128 0x1
 1236 0071 D200 0000 		.long	.LVL19-.Ltext0
 1237 0075 D600 0000 		.long	.LFE12-.Ltext0
 1238 0079 0600      		.word	0x6
 1239 007b 62        		.byte	0x62
 1240 007c 93        		.byte	0x93
 1241 007d 01        		.uleb128 0x1
 1242 007e 63        		.byte	0x63
 1243 007f 93        		.byte	0x93
 1244 0080 01        		.uleb128 0x1
 1245 0081 0000 0000 		.long	0x0
 1246 0085 0000 0000 		.long	0x0
 1247               	.LLST7:
 1248 0089 B400 0000 		.long	.LVL14-.Ltext0
 1249 008d C400 0000 		.long	.LVL17-.Ltext0
 1250 0091 0600      		.word	0x6
 1251 0093 6E        		.byte	0x6e
 1252 0094 93        		.byte	0x93
 1253 0095 01        		.uleb128 0x1
 1254 0096 6F        		.byte	0x6f
GAS LISTING C:\Users\ADMINI~1\AppData\Local\Temp/ccQkgpbR.s 			page 23


 1255 0097 93        		.byte	0x93
 1256 0098 01        		.uleb128 0x1
 1257 0099 0000 0000 		.long	0x0
 1258 009d 0000 0000 		.long	0x0
 1259               	.LLST8:
 1260 00a1 C000 0000 		.long	.LVL16-.Ltext0
 1261 00a5 D400 0000 		.long	.LVL20-.Ltext0
 1262 00a9 0600      		.word	0x6
 1263 00ab 68        		.byte	0x68
 1264 00ac 93        		.byte	0x93
 1265 00ad 01        		.uleb128 0x1
 1266 00ae 69        		.byte	0x69
 1267 00af 93        		.byte	0x93
 1268 00b0 01        		.uleb128 0x1
 1269 00b1 0000 0000 		.long	0x0
 1270 00b5 0000 0000 		.long	0x0
 1271               	.LLST10:
 1272 00b9 1601 0000 		.long	.LVL21-.Ltext0
 1273 00bd 1801 0000 		.long	.LVL22-.Ltext0
 1274 00c1 0100      		.word	0x1
 1275 00c3 5E        		.byte	0x5e
 1276 00c4 1801 0000 		.long	.LVL22-.Ltext0
 1277 00c8 7E01 0000 		.long	.LVL24-.Ltext0
 1278 00cc 0600      		.word	0x6
 1279 00ce 5E        		.byte	0x5e
 1280 00cf 93        		.byte	0x93
 1281 00d0 01        		.uleb128 0x1
 1282 00d1 5F        		.byte	0x5f
 1283 00d2 93        		.byte	0x93
 1284 00d3 01        		.uleb128 0x1
 1285 00d4 8E01 0000 		.long	.LVL25-.Ltext0
 1286 00d8 9801 0000 		.long	.LVL27-.Ltext0
 1287 00dc 0600      		.word	0x6
 1288 00de 5E        		.byte	0x5e
 1289 00df 93        		.byte	0x93
 1290 00e0 01        		.uleb128 0x1
 1291 00e1 5F        		.byte	0x5f
 1292 00e2 93        		.byte	0x93
 1293 00e3 01        		.uleb128 0x1
 1294 00e4 9801 0000 		.long	.LVL27-.Ltext0
 1295 00e8 9A01 0000 		.long	.LVL28-.Ltext0
 1296 00ec 0100      		.word	0x1
 1297 00ee 5E        		.byte	0x5e
 1298 00ef 0000 0000 		.long	0x0
 1299 00f3 0000 0000 		.long	0x0
 1300               	.LLST11:
 1301 00f7 2801 0000 		.long	.LVL23-.Ltext0
 1302 00fb 7E01 0000 		.long	.LVL24-.Ltext0
 1303 00ff 0100      		.word	0x1
 1304 0101 61        		.byte	0x61
 1305 0102 8E01 0000 		.long	.LVL25-.Ltext0
 1306 0106 9601 0000 		.long	.LVL26-.Ltext0
 1307 010a 0100      		.word	0x1
 1308 010c 61        		.byte	0x61
 1309 010d 0000 0000 		.long	0x0
 1310 0111 0000 0000 		.long	0x0
 1311               	.LLST13:
GAS LISTING C:\Users\ADMINI~1\AppData\Local\Temp/ccQkgpbR.s 			page 24


 1312 0115 E801 0000 		.long	.LVL30-.Ltext0
 1313 0119 1803 0000 		.long	.LVL45-.Ltext0
 1314 011d 0100      		.word	0x1
 1315 011f 58        		.byte	0x58
 1316 0120 1803 0000 		.long	.LVL45-.Ltext0
 1317 0124 1A03 0000 		.long	.LVL46-.Ltext0
 1318 0128 0100      		.word	0x1
 1319 012a 68        		.byte	0x68
 1320 012b 1A03 0000 		.long	.LVL46-.Ltext0
 1321 012f 1C03 0000 		.long	.LVL47-.Ltext0
 1322 0133 0100      		.word	0x1
 1323 0135 58        		.byte	0x58
 1324 0136 1C03 0000 		.long	.LVL47-.Ltext0
 1325 013a 1C03 0000 		.long	.LVL48-.Ltext0
 1326 013e 0100      		.word	0x1
 1327 0140 68        		.byte	0x68
 1328 0141 4203 0000 		.long	.LVL56-.Ltext0
 1329 0145 4603 0000 		.long	.LFE14-.Ltext0
 1330 0149 0100      		.word	0x1
 1331 014b 58        		.byte	0x58
 1332 014c 0000 0000 		.long	0x0
 1333 0150 0000 0000 		.long	0x0
 1334               	.LLST14:
 1335 0154 F601 0000 		.long	.LVL32-.Ltext0
 1336 0158 3203 0000 		.long	.LVL54-.Ltext0
 1337 015c 0100      		.word	0x1
 1338 015e 5A        		.byte	0x5a
 1339 015f 4203 0000 		.long	.LVL56-.Ltext0
 1340 0163 4603 0000 		.long	.LFE14-.Ltext0
 1341 0167 0100      		.word	0x1
 1342 0169 5A        		.byte	0x5a
 1343 016a 0000 0000 		.long	0x0
 1344 016e 0000 0000 		.long	0x0
 1345               	.LLST15:
 1346 0172 F601 0000 		.long	.LVL32-.Ltext0
 1347 0176 3003 0000 		.long	.LVL53-.Ltext0
 1348 017a 0100      		.word	0x1
 1349 017c 5B        		.byte	0x5b
 1350 017d 4203 0000 		.long	.LVL56-.Ltext0
 1351 0181 4603 0000 		.long	.LFE14-.Ltext0
 1352 0185 0100      		.word	0x1
 1353 0187 5B        		.byte	0x5b
 1354 0188 0000 0000 		.long	0x0
 1355 018c 0000 0000 		.long	0x0
 1356               	.LLST16:
 1357 0190 F601 0000 		.long	.LVL32-.Ltext0
 1358 0194 2A03 0000 		.long	.LVL52-.Ltext0
 1359 0198 0100      		.word	0x1
 1360 019a 5E        		.byte	0x5e
 1361 019b 4203 0000 		.long	.LVL56-.Ltext0
 1362 019f 4603 0000 		.long	.LFE14-.Ltext0
 1363 01a3 0100      		.word	0x1
 1364 01a5 5E        		.byte	0x5e
 1365 01a6 0000 0000 		.long	0x0
 1366 01aa 0000 0000 		.long	0x0
 1367               	.LLST17:
 1368 01ae F601 0000 		.long	.LVL32-.Ltext0
GAS LISTING C:\Users\ADMINI~1\AppData\Local\Temp/ccQkgpbR.s 			page 25


 1369 01b2 2803 0000 		.long	.LVL51-.Ltext0
 1370 01b6 0100      		.word	0x1
 1371 01b8 5F        		.byte	0x5f
 1372 01b9 4203 0000 		.long	.LVL56-.Ltext0
 1373 01bd 4603 0000 		.long	.LFE14-.Ltext0
 1374 01c1 0100      		.word	0x1
 1375 01c3 5F        		.byte	0x5f
 1376 01c4 0000 0000 		.long	0x0
 1377 01c8 0000 0000 		.long	0x0
 1378               	.LLST18:
 1379 01cc F601 0000 		.long	.LVL32-.Ltext0
 1380 01d0 1E02 0000 		.long	.LVL34-.Ltext0
 1381 01d4 0100      		.word	0x1
 1382 01d6 60        		.byte	0x60
 1383 01d7 1E02 0000 		.long	.LVL34-.Ltext0
 1384 01db 2202 0000 		.long	.LVL35-.Ltext0
 1385 01df 0100      		.word	0x1
 1386 01e1 68        		.byte	0x68
 1387 01e2 2202 0000 		.long	.LVL35-.Ltext0
 1388 01e6 2603 0000 		.long	.LVL50-.Ltext0
 1389 01ea 0100      		.word	0x1
 1390 01ec 60        		.byte	0x60
 1391 01ed 4203 0000 		.long	.LVL56-.Ltext0
 1392 01f1 4603 0000 		.long	.LFE14-.Ltext0
 1393 01f5 0100      		.word	0x1
 1394 01f7 60        		.byte	0x60
 1395 01f8 0000 0000 		.long	0x0
 1396 01fc 0000 0000 		.long	0x0
 1397               	.LLST19:
 1398 0200 F601 0000 		.long	.LVL32-.Ltext0
 1399 0204 0002 0000 		.long	.LVL33-.Ltext0
 1400 0208 0100      		.word	0x1
 1401 020a 61        		.byte	0x61
 1402 020b 4402 0000 		.long	.LVL37-.Ltext0
 1403 020f 4A02 0000 		.long	.LVL38-.Ltext0
 1404 0213 0100      		.word	0x1
 1405 0215 61        		.byte	0x61
 1406 0216 5402 0000 		.long	.LVL39-.Ltext0
 1407 021a 2403 0000 		.long	.LVL49-.Ltext0
 1408 021e 0100      		.word	0x1
 1409 0220 61        		.byte	0x61
 1410 0221 4403 0000 		.long	.LVL57-.Ltext0
 1411 0225 4603 0000 		.long	.LFE14-.Ltext0
 1412 0229 0100      		.word	0x1
 1413 022b 61        		.byte	0x61
 1414 022c 0000 0000 		.long	0x0
 1415 0230 0000 0000 		.long	0x0
 1416               	.LLST20:
 1417 0234 DC01 0000 		.long	.LVL29-.Ltext0
 1418 0238 3C03 0000 		.long	.LVL55-.Ltext0
 1419 023c 0100      		.word	0x1
 1420 023e 55        		.byte	0x55
 1421 023f 4203 0000 		.long	.LVL56-.Ltext0
 1422 0243 4603 0000 		.long	.LFE14-.Ltext0
 1423 0247 0100      		.word	0x1
 1424 0249 55        		.byte	0x55
 1425 024a 0000 0000 		.long	0x0
GAS LISTING C:\Users\ADMINI~1\AppData\Local\Temp/ccQkgpbR.s 			page 26


 1426 024e 0000 0000 		.long	0x0
 1427               	.LLST22:
 1428 0252 5603 0000 		.long	.LVL58-.Ltext0
 1429 0256 9403 0000 		.long	.LVL62-.Ltext0
 1430 025a 0100      		.word	0x1
 1431 025c 60        		.byte	0x60
 1432 025d 9A03 0000 		.long	.LVL64-.Ltext0
 1433 0261 5404 0000 		.long	.LFE17-.Ltext0
 1434 0265 0100      		.word	0x1
 1435 0267 60        		.byte	0x60
 1436 0268 0000 0000 		.long	0x0
 1437 026c 0000 0000 		.long	0x0
 1438               	.LLST23:
 1439 0270 5803 0000 		.long	.LVL59-.Ltext0
 1440 0274 9203 0000 		.long	.LVL61-.Ltext0
 1441 0278 0100      		.word	0x1
 1442 027a 61        		.byte	0x61
 1443 027b 9203 0000 		.long	.LVL61-.Ltext0
 1444 027f 9603 0000 		.long	.LVL63-.Ltext0
 1445 0283 0100      		.word	0x1
 1446 0285 5F        		.byte	0x5f
 1447 0286 9A03 0000 		.long	.LVL64-.Ltext0
 1448 028a B403 0000 		.long	.LVL65-.Ltext0
 1449 028e 0100      		.word	0x1
 1450 0290 61        		.byte	0x61
 1451 0291 B403 0000 		.long	.LVL65-.Ltext0
 1452 0295 BC03 0000 		.long	.LVL66-.Ltext0
 1453 0299 0100      		.word	0x1
 1454 029b 5F        		.byte	0x5f
 1455 029c BC03 0000 		.long	.LVL66-.Ltext0
 1456 02a0 C403 0000 		.long	.LVL67-.Ltext0
 1457 02a4 0100      		.word	0x1
 1458 02a6 61        		.byte	0x61
 1459 02a7 C403 0000 		.long	.LVL67-.Ltext0
 1460 02ab C803 0000 		.long	.LVL68-.Ltext0
 1461 02af 0100      		.word	0x1
 1462 02b1 5F        		.byte	0x5f
 1463 02b2 C803 0000 		.long	.LVL68-.Ltext0
 1464 02b6 CC03 0000 		.long	.LVL69-.Ltext0
 1465 02ba 0100      		.word	0x1
 1466 02bc 61        		.byte	0x61
 1467 02bd CC03 0000 		.long	.LVL69-.Ltext0
 1468 02c1 5404 0000 		.long	.LFE17-.Ltext0
 1469 02c5 0100      		.word	0x1
 1470 02c7 5F        		.byte	0x5f
 1471 02c8 0000 0000 		.long	0x0
 1472 02cc 0000 0000 		.long	0x0
 1473               	.LLST26:
 1474 02d0 6404 0000 		.long	.LVL70-.Ltext0
 1475 02d4 7004 0000 		.long	.LVL71-.Ltext0
 1476 02d8 0600      		.word	0x6
 1477 02da 68        		.byte	0x68
 1478 02db 93        		.byte	0x93
 1479 02dc 01        		.uleb128 0x1
 1480 02dd 69        		.byte	0x69
 1481 02de 93        		.byte	0x93
 1482 02df 01        		.uleb128 0x1
GAS LISTING C:\Users\ADMINI~1\AppData\Local\Temp/ccQkgpbR.s 			page 27


 1483 02e0 0000 0000 		.long	0x0
 1484 02e4 0000 0000 		.long	0x0
 1485               	.LLST27:
 1486 02e8 7E04 0000 		.long	.LVL72-.Ltext0
 1487 02ec E604 0000 		.long	.LVL73-.Ltext0
 1488 02f0 0600      		.word	0x6
 1489 02f2 6C        		.byte	0x6c
 1490 02f3 93        		.byte	0x93
 1491 02f4 01        		.uleb128 0x1
 1492 02f5 6D        		.byte	0x6d
 1493 02f6 93        		.byte	0x93
 1494 02f7 01        		.uleb128 0x1
 1495 02f8 0000 0000 		.long	0x0
 1496 02fc 0000 0000 		.long	0x0
 1497               	.LLST29:
 1498 0300 E804 0000 		.long	.LVL74-.Ltext0
 1499 0304 EE04 0000 		.long	.LVL75-.Ltext0
 1500 0308 0600      		.word	0x6
 1501 030a 68        		.byte	0x68
 1502 030b 93        		.byte	0x93
 1503 030c 01        		.uleb128 0x1
 1504 030d 69        		.byte	0x69
 1505 030e 93        		.byte	0x93
 1506 030f 01        		.uleb128 0x1
 1507 0310 EE04 0000 		.long	.LVL75-.Ltext0
 1508 0314 0205 0000 		.long	.LVL76-.Ltext0
 1509 0318 0600      		.word	0x6
 1510 031a 6E        		.byte	0x6e
 1511 031b 93        		.byte	0x93
 1512 031c 01        		.uleb128 0x1
 1513 031d 6F        		.byte	0x6f
 1514 031e 93        		.byte	0x93
 1515 031f 01        		.uleb128 0x1
 1516 0320 0605 0000 		.long	.LVL77-.Ltext0
 1517 0324 0E05 0000 		.long	.LFE9-.Ltext0
 1518 0328 0600      		.word	0x6
 1519 032a 6E        		.byte	0x6e
 1520 032b 93        		.byte	0x93
 1521 032c 01        		.uleb128 0x1
 1522 032d 6F        		.byte	0x6f
 1523 032e 93        		.byte	0x93
 1524 032f 01        		.uleb128 0x1
 1525 0330 0000 0000 		.long	0x0
 1526 0334 0000 0000 		.long	0x0
 1527               	.LLST30:
 1528 0338 E804 0000 		.long	.LVL74-.Ltext0
 1529 033c 0205 0000 		.long	.LVL76-.Ltext0
 1530 0340 0100      		.word	0x1
 1531 0342 66        		.byte	0x66
 1532 0343 0605 0000 		.long	.LVL77-.Ltext0
 1533 0347 0E05 0000 		.long	.LFE9-.Ltext0
 1534 034b 0100      		.word	0x1
 1535 034d 66        		.byte	0x66
 1536 034e 0000 0000 		.long	0x0
 1537 0352 0000 0000 		.long	0x0
 1538               		.section	.debug_info
 1539 0000 C909 0000 		.long	0x9c9
GAS LISTING C:\Users\ADMINI~1\AppData\Local\Temp/ccQkgpbR.s 			page 28


 1540 0004 0200      		.word	0x2
 1541 0006 0000 0000 		.long	.Ldebug_abbrev0
 1542 000a 04        		.byte	0x4
 1543 000b 01        		.uleb128 0x1
 1544 000c 0000 0000 		.long	.LASF213
 1545 0010 01        		.byte	0x1
 1546 0011 0000 0000 		.long	.LASF214
 1547 0015 0000 0000 		.long	.LASF215
 1548 0019 0000 0000 		.long	.Ltext0
 1549 001d 0000 0000 		.long	.Letext0
 1550 0021 0000 0000 		.long	.Ldebug_line0
 1551 0025 02        		.uleb128 0x2
 1552 0026 01        		.byte	0x1
 1553 0027 08        		.byte	0x8
 1554 0028 0000 0000 		.long	.LASF0
 1555 002c 02        		.uleb128 0x2
 1556 002d 01        		.byte	0x1
 1557 002e 06        		.byte	0x6
 1558 002f 0000 0000 		.long	.LASF1
 1559 0033 02        		.uleb128 0x2
 1560 0034 02        		.byte	0x2
 1561 0035 07        		.byte	0x7
 1562 0036 0000 0000 		.long	.LASF2
 1563 003a 02        		.uleb128 0x2
 1564 003b 02        		.byte	0x2
 1565 003c 05        		.byte	0x5
 1566 003d 0000 0000 		.long	.LASF3
 1567 0041 02        		.uleb128 0x2
 1568 0042 04        		.byte	0x4
 1569 0043 07        		.byte	0x7
 1570 0044 0000 0000 		.long	.LASF4
 1571 0048 02        		.uleb128 0x2
 1572 0049 04        		.byte	0x4
 1573 004a 05        		.byte	0x5
 1574 004b 0000 0000 		.long	.LASF5
 1575 004f 02        		.uleb128 0x2
 1576 0050 08        		.byte	0x8
 1577 0051 07        		.byte	0x7
 1578 0052 0000 0000 		.long	.LASF6
 1579 0056 02        		.uleb128 0x2
 1580 0057 08        		.byte	0x8
 1581 0058 05        		.byte	0x5
 1582 0059 0000 0000 		.long	.LASF7
 1583 005d 02        		.uleb128 0x2
 1584 005e 02        		.byte	0x2
 1585 005f 07        		.byte	0x7
 1586 0060 0000 0000 		.long	.LASF8
 1587 0064 02        		.uleb128 0x2
 1588 0065 01        		.byte	0x1
 1589 0066 06        		.byte	0x6
 1590 0067 0000 0000 		.long	.LASF9
 1591 006b 03        		.uleb128 0x3
 1592 006c 02        		.byte	0x2
 1593 006d 05        		.byte	0x5
 1594 006e 696E 7400 		.string	"int"
 1595 0072 04        		.uleb128 0x4
 1596 0073 0000 0000 		.long	.LASF10
GAS LISTING C:\Users\ADMINI~1\AppData\Local\Temp/ccQkgpbR.s 			page 29


 1597 0077 02        		.byte	0x2
 1598 0078 7A        		.byte	0x7a
 1599 0079 2500 0000 		.long	0x25
 1600 007d 04        		.uleb128 0x4
 1601 007e 0000 0000 		.long	.LASF11
 1602 0082 02        		.byte	0x2
 1603 0083 7C        		.byte	0x7c
 1604 0084 5D00 0000 		.long	0x5d
 1605 0088 05        		.uleb128 0x5
 1606 0089 01        		.byte	0x1
 1607 008a 06        		.byte	0x6
 1608 008b 05        		.uleb128 0x5
 1609 008c 01        		.byte	0x1
 1610 008d 08        		.byte	0x8
 1611 008e 06        		.uleb128 0x6
 1612 008f 02        		.byte	0x2
 1613 0090 04        		.byte	0x4
 1614 0091 26        		.byte	0x26
 1615 0092 4704 0000 		.long	0x447
 1616 0096 07        		.uleb128 0x7
 1617 0097 0000 0000 		.long	.LASF12
 1618 009b 00        		.sleb128 0
 1619 009c 07        		.uleb128 0x7
 1620 009d 0000 0000 		.long	.LASF13
 1621 00a1 01        		.sleb128 1
 1622 00a2 07        		.uleb128 0x7
 1623 00a3 0000 0000 		.long	.LASF14
 1624 00a7 02        		.sleb128 2
 1625 00a8 07        		.uleb128 0x7
 1626 00a9 0000 0000 		.long	.LASF15
 1627 00ad 03        		.sleb128 3
 1628 00ae 07        		.uleb128 0x7
 1629 00af 0000 0000 		.long	.LASF16
 1630 00b3 04        		.sleb128 4
 1631 00b4 07        		.uleb128 0x7
 1632 00b5 0000 0000 		.long	.LASF17
 1633 00b9 05        		.sleb128 5
 1634 00ba 07        		.uleb128 0x7
 1635 00bb 0000 0000 		.long	.LASF18
 1636 00bf 06        		.sleb128 6
 1637 00c0 07        		.uleb128 0x7
 1638 00c1 0000 0000 		.long	.LASF19
 1639 00c5 07        		.sleb128 7
 1640 00c6 07        		.uleb128 0x7
 1641 00c7 0000 0000 		.long	.LASF20
 1642 00cb 08        		.sleb128 8
 1643 00cc 07        		.uleb128 0x7
 1644 00cd 0000 0000 		.long	.LASF21
 1645 00d1 09        		.sleb128 9
 1646 00d2 07        		.uleb128 0x7
 1647 00d3 0000 0000 		.long	.LASF22
 1648 00d7 0A        		.sleb128 10
 1649 00d8 07        		.uleb128 0x7
 1650 00d9 0000 0000 		.long	.LASF23
 1651 00dd 0B        		.sleb128 11
 1652 00de 07        		.uleb128 0x7
 1653 00df 0000 0000 		.long	.LASF24
GAS LISTING C:\Users\ADMINI~1\AppData\Local\Temp/ccQkgpbR.s 			page 30


 1654 00e3 0C        		.sleb128 12
 1655 00e4 07        		.uleb128 0x7
 1656 00e5 0000 0000 		.long	.LASF25
 1657 00e9 0D        		.sleb128 13
 1658 00ea 07        		.uleb128 0x7
 1659 00eb 0000 0000 		.long	.LASF26
 1660 00ef 0E        		.sleb128 14
 1661 00f0 07        		.uleb128 0x7
 1662 00f1 0000 0000 		.long	.LASF27
 1663 00f5 0F        		.sleb128 15
 1664 00f6 07        		.uleb128 0x7
 1665 00f7 0000 0000 		.long	.LASF28
 1666 00fb 10        		.sleb128 16
 1667 00fc 07        		.uleb128 0x7
 1668 00fd 0000 0000 		.long	.LASF29
 1669 0101 11        		.sleb128 17
 1670 0102 07        		.uleb128 0x7
 1671 0103 0000 0000 		.long	.LASF30
 1672 0107 12        		.sleb128 18
 1673 0108 07        		.uleb128 0x7
 1674 0109 0000 0000 		.long	.LASF31
 1675 010d 13        		.sleb128 19
 1676 010e 07        		.uleb128 0x7
 1677 010f 0000 0000 		.long	.LASF32
 1678 0113 14        		.sleb128 20
 1679 0114 07        		.uleb128 0x7
 1680 0115 0000 0000 		.long	.LASF33
 1681 0119 15        		.sleb128 21
 1682 011a 07        		.uleb128 0x7
 1683 011b 0000 0000 		.long	.LASF34
 1684 011f 16        		.sleb128 22
 1685 0120 07        		.uleb128 0x7
 1686 0121 0000 0000 		.long	.LASF35
 1687 0125 17        		.sleb128 23
 1688 0126 07        		.uleb128 0x7
 1689 0127 0000 0000 		.long	.LASF36
 1690 012b 18        		.sleb128 24
 1691 012c 07        		.uleb128 0x7
 1692 012d 0000 0000 		.long	.LASF37
 1693 0131 19        		.sleb128 25
 1694 0132 07        		.uleb128 0x7
 1695 0133 0000 0000 		.long	.LASF38
 1696 0137 1A        		.sleb128 26
 1697 0138 07        		.uleb128 0x7
 1698 0139 0000 0000 		.long	.LASF39
 1699 013d 1B        		.sleb128 27
 1700 013e 07        		.uleb128 0x7
 1701 013f 0000 0000 		.long	.LASF40
 1702 0143 1C        		.sleb128 28
 1703 0144 07        		.uleb128 0x7
 1704 0145 0000 0000 		.long	.LASF41
 1705 0149 1D        		.sleb128 29
 1706 014a 07        		.uleb128 0x7
 1707 014b 0000 0000 		.long	.LASF42
 1708 014f 1E        		.sleb128 30
 1709 0150 07        		.uleb128 0x7
 1710 0151 0000 0000 		.long	.LASF43
GAS LISTING C:\Users\ADMINI~1\AppData\Local\Temp/ccQkgpbR.s 			page 31


 1711 0155 1F        		.sleb128 31
 1712 0156 07        		.uleb128 0x7
 1713 0157 0000 0000 		.long	.LASF44
 1714 015b 20        		.sleb128 32
 1715 015c 07        		.uleb128 0x7
 1716 015d 0000 0000 		.long	.LASF45
 1717 0161 21        		.sleb128 33
 1718 0162 07        		.uleb128 0x7
 1719 0163 0000 0000 		.long	.LASF46
 1720 0167 22        		.sleb128 34
 1721 0168 07        		.uleb128 0x7
 1722 0169 0000 0000 		.long	.LASF47
 1723 016d 23        		.sleb128 35
 1724 016e 07        		.uleb128 0x7
 1725 016f 0000 0000 		.long	.LASF48
 1726 0173 24        		.sleb128 36
 1727 0174 07        		.uleb128 0x7
 1728 0175 0000 0000 		.long	.LASF49
 1729 0179 25        		.sleb128 37
 1730 017a 07        		.uleb128 0x7
 1731 017b 0000 0000 		.long	.LASF50
 1732 017f 26        		.sleb128 38
 1733 0180 07        		.uleb128 0x7
 1734 0181 0000 0000 		.long	.LASF51
 1735 0185 27        		.sleb128 39
 1736 0186 07        		.uleb128 0x7
 1737 0187 0000 0000 		.long	.LASF52
 1738 018b 28        		.sleb128 40
 1739 018c 07        		.uleb128 0x7
 1740 018d 0000 0000 		.long	.LASF53
 1741 0191 29        		.sleb128 41
 1742 0192 07        		.uleb128 0x7
 1743 0193 0000 0000 		.long	.LASF54
 1744 0197 2A        		.sleb128 42
 1745 0198 07        		.uleb128 0x7
 1746 0199 0000 0000 		.long	.LASF55
 1747 019d 2B        		.sleb128 43
 1748 019e 07        		.uleb128 0x7
 1749 019f 0000 0000 		.long	.LASF56
 1750 01a3 2C        		.sleb128 44
 1751 01a4 07        		.uleb128 0x7
 1752 01a5 0000 0000 		.long	.LASF57
 1753 01a9 2D        		.sleb128 45
 1754 01aa 07        		.uleb128 0x7
 1755 01ab 0000 0000 		.long	.LASF58
 1756 01af 2E        		.sleb128 46
 1757 01b0 07        		.uleb128 0x7
 1758 01b1 0000 0000 		.long	.LASF59
 1759 01b5 2F        		.sleb128 47
 1760 01b6 07        		.uleb128 0x7
 1761 01b7 0000 0000 		.long	.LASF60
 1762 01bb 30        		.sleb128 48
 1763 01bc 07        		.uleb128 0x7
 1764 01bd 0000 0000 		.long	.LASF61
 1765 01c1 31        		.sleb128 49
 1766 01c2 07        		.uleb128 0x7
 1767 01c3 0000 0000 		.long	.LASF62
GAS LISTING C:\Users\ADMINI~1\AppData\Local\Temp/ccQkgpbR.s 			page 32


 1768 01c7 32        		.sleb128 50
 1769 01c8 07        		.uleb128 0x7
 1770 01c9 0000 0000 		.long	.LASF63
 1771 01cd 33        		.sleb128 51
 1772 01ce 07        		.uleb128 0x7
 1773 01cf 0000 0000 		.long	.LASF64
 1774 01d3 34        		.sleb128 52
 1775 01d4 07        		.uleb128 0x7
 1776 01d5 0000 0000 		.long	.LASF65
 1777 01d9 35        		.sleb128 53
 1778 01da 07        		.uleb128 0x7
 1779 01db 0000 0000 		.long	.LASF66
 1780 01df 36        		.sleb128 54
 1781 01e0 07        		.uleb128 0x7
 1782 01e1 0000 0000 		.long	.LASF67
 1783 01e5 37        		.sleb128 55
 1784 01e6 07        		.uleb128 0x7
 1785 01e7 0000 0000 		.long	.LASF68
 1786 01eb 38        		.sleb128 56
 1787 01ec 07        		.uleb128 0x7
 1788 01ed 0000 0000 		.long	.LASF69
 1789 01f1 39        		.sleb128 57
 1790 01f2 07        		.uleb128 0x7
 1791 01f3 0000 0000 		.long	.LASF70
 1792 01f7 3A        		.sleb128 58
 1793 01f8 07        		.uleb128 0x7
 1794 01f9 0000 0000 		.long	.LASF71
 1795 01fd 3B        		.sleb128 59
 1796 01fe 07        		.uleb128 0x7
 1797 01ff 0000 0000 		.long	.LASF72
 1798 0203 3C        		.sleb128 60
 1799 0204 07        		.uleb128 0x7
 1800 0205 0000 0000 		.long	.LASF73
 1801 0209 3D        		.sleb128 61
 1802 020a 07        		.uleb128 0x7
 1803 020b 0000 0000 		.long	.LASF74
 1804 020f 3E        		.sleb128 62
 1805 0210 07        		.uleb128 0x7
 1806 0211 0000 0000 		.long	.LASF75
 1807 0215 3F        		.sleb128 63
 1808 0216 07        		.uleb128 0x7
 1809 0217 0000 0000 		.long	.LASF76
 1810 021b C000      		.sleb128 64
 1811 021d 07        		.uleb128 0x7
 1812 021e 0000 0000 		.long	.LASF77
 1813 0222 C100      		.sleb128 65
 1814 0224 07        		.uleb128 0x7
 1815 0225 0000 0000 		.long	.LASF78
 1816 0229 C200      		.sleb128 66
 1817 022b 07        		.uleb128 0x7
 1818 022c 0000 0000 		.long	.LASF79
 1819 0230 C300      		.sleb128 67
 1820 0232 07        		.uleb128 0x7
 1821 0233 0000 0000 		.long	.LASF80
 1822 0237 C400      		.sleb128 68
 1823 0239 07        		.uleb128 0x7
 1824 023a 0000 0000 		.long	.LASF81
GAS LISTING C:\Users\ADMINI~1\AppData\Local\Temp/ccQkgpbR.s 			page 33


 1825 023e C500      		.sleb128 69
 1826 0240 07        		.uleb128 0x7
 1827 0241 0000 0000 		.long	.LASF82
 1828 0245 C600      		.sleb128 70
 1829 0247 07        		.uleb128 0x7
 1830 0248 0000 0000 		.long	.LASF83
 1831 024c C700      		.sleb128 71
 1832 024e 07        		.uleb128 0x7
 1833 024f 0000 0000 		.long	.LASF84
 1834 0253 C800      		.sleb128 72
 1835 0255 07        		.uleb128 0x7
 1836 0256 0000 0000 		.long	.LASF85
 1837 025a C900      		.sleb128 73
 1838 025c 07        		.uleb128 0x7
 1839 025d 0000 0000 		.long	.LASF86
 1840 0261 CA00      		.sleb128 74
 1841 0263 07        		.uleb128 0x7
 1842 0264 0000 0000 		.long	.LASF87
 1843 0268 CB00      		.sleb128 75
 1844 026a 07        		.uleb128 0x7
 1845 026b 0000 0000 		.long	.LASF88
 1846 026f CC00      		.sleb128 76
 1847 0271 07        		.uleb128 0x7
 1848 0272 0000 0000 		.long	.LASF89
 1849 0276 CD00      		.sleb128 77
 1850 0278 07        		.uleb128 0x7
 1851 0279 0000 0000 		.long	.LASF90
 1852 027d CE00      		.sleb128 78
 1853 027f 07        		.uleb128 0x7
 1854 0280 0000 0000 		.long	.LASF91
 1855 0284 CF00      		.sleb128 79
 1856 0286 07        		.uleb128 0x7
 1857 0287 0000 0000 		.long	.LASF92
 1858 028b D000      		.sleb128 80
 1859 028d 07        		.uleb128 0x7
 1860 028e 0000 0000 		.long	.LASF93
 1861 0292 D100      		.sleb128 81
 1862 0294 07        		.uleb128 0x7
 1863 0295 0000 0000 		.long	.LASF94
 1864 0299 D200      		.sleb128 82
 1865 029b 07        		.uleb128 0x7
 1866 029c 0000 0000 		.long	.LASF95
 1867 02a0 D300      		.sleb128 83
 1868 02a2 07        		.uleb128 0x7
 1869 02a3 0000 0000 		.long	.LASF96
 1870 02a7 D400      		.sleb128 84
 1871 02a9 07        		.uleb128 0x7
 1872 02aa 0000 0000 		.long	.LASF97
 1873 02ae D500      		.sleb128 85
 1874 02b0 07        		.uleb128 0x7
 1875 02b1 0000 0000 		.long	.LASF98
 1876 02b5 D600      		.sleb128 86
 1877 02b7 07        		.uleb128 0x7
 1878 02b8 0000 0000 		.long	.LASF99
 1879 02bc D700      		.sleb128 87
 1880 02be 07        		.uleb128 0x7
 1881 02bf 0000 0000 		.long	.LASF100
GAS LISTING C:\Users\ADMINI~1\AppData\Local\Temp/ccQkgpbR.s 			page 34


 1882 02c3 D800      		.sleb128 88
 1883 02c5 07        		.uleb128 0x7
 1884 02c6 0000 0000 		.long	.LASF101
 1885 02ca D900      		.sleb128 89
 1886 02cc 07        		.uleb128 0x7
 1887 02cd 0000 0000 		.long	.LASF102
 1888 02d1 DA00      		.sleb128 90
 1889 02d3 07        		.uleb128 0x7
 1890 02d4 0000 0000 		.long	.LASF103
 1891 02d8 DB00      		.sleb128 91
 1892 02da 07        		.uleb128 0x7
 1893 02db 0000 0000 		.long	.LASF104
 1894 02df DC00      		.sleb128 92
 1895 02e1 07        		.uleb128 0x7
 1896 02e2 0000 0000 		.long	.LASF105
 1897 02e6 DD00      		.sleb128 93
 1898 02e8 07        		.uleb128 0x7
 1899 02e9 0000 0000 		.long	.LASF106
 1900 02ed DE00      		.sleb128 94
 1901 02ef 07        		.uleb128 0x7
 1902 02f0 0000 0000 		.long	.LASF107
 1903 02f4 DF00      		.sleb128 95
 1904 02f6 07        		.uleb128 0x7
 1905 02f7 0000 0000 		.long	.LASF108
 1906 02fb E000      		.sleb128 96
 1907 02fd 07        		.uleb128 0x7
 1908 02fe 0000 0000 		.long	.LASF109
 1909 0302 E100      		.sleb128 97
 1910 0304 07        		.uleb128 0x7
 1911 0305 0000 0000 		.long	.LASF110
 1912 0309 E200      		.sleb128 98
 1913 030b 07        		.uleb128 0x7
 1914 030c 0000 0000 		.long	.LASF111
 1915 0310 E300      		.sleb128 99
 1916 0312 07        		.uleb128 0x7
 1917 0313 0000 0000 		.long	.LASF112
 1918 0317 E400      		.sleb128 100
 1919 0319 07        		.uleb128 0x7
 1920 031a 0000 0000 		.long	.LASF113
 1921 031e E500      		.sleb128 101
 1922 0320 07        		.uleb128 0x7
 1923 0321 0000 0000 		.long	.LASF114
 1924 0325 E600      		.sleb128 102
 1925 0327 07        		.uleb128 0x7
 1926 0328 0000 0000 		.long	.LASF115
 1927 032c E700      		.sleb128 103
 1928 032e 07        		.uleb128 0x7
 1929 032f 0000 0000 		.long	.LASF116
 1930 0333 E800      		.sleb128 104
 1931 0335 07        		.uleb128 0x7
 1932 0336 0000 0000 		.long	.LASF117
 1933 033a E900      		.sleb128 105
 1934 033c 07        		.uleb128 0x7
 1935 033d 0000 0000 		.long	.LASF118
 1936 0341 EA00      		.sleb128 106
 1937 0343 07        		.uleb128 0x7
 1938 0344 0000 0000 		.long	.LASF119
GAS LISTING C:\Users\ADMINI~1\AppData\Local\Temp/ccQkgpbR.s 			page 35


 1939 0348 EB00      		.sleb128 107
 1940 034a 07        		.uleb128 0x7
 1941 034b 0000 0000 		.long	.LASF120
 1942 034f EC00      		.sleb128 108
 1943 0351 07        		.uleb128 0x7
 1944 0352 0000 0000 		.long	.LASF121
 1945 0356 ED00      		.sleb128 109
 1946 0358 07        		.uleb128 0x7
 1947 0359 0000 0000 		.long	.LASF122
 1948 035d EE00      		.sleb128 110
 1949 035f 07        		.uleb128 0x7
 1950 0360 0000 0000 		.long	.LASF123
 1951 0364 EF00      		.sleb128 111
 1952 0366 07        		.uleb128 0x7
 1953 0367 0000 0000 		.long	.LASF124
 1954 036b F000      		.sleb128 112
 1955 036d 07        		.uleb128 0x7
 1956 036e 0000 0000 		.long	.LASF125
 1957 0372 F100      		.sleb128 113
 1958 0374 07        		.uleb128 0x7
 1959 0375 0000 0000 		.long	.LASF126
 1960 0379 F200      		.sleb128 114
 1961 037b 07        		.uleb128 0x7
 1962 037c 0000 0000 		.long	.LASF127
 1963 0380 F300      		.sleb128 115
 1964 0382 07        		.uleb128 0x7
 1965 0383 0000 0000 		.long	.LASF128
 1966 0387 F400      		.sleb128 116
 1967 0389 07        		.uleb128 0x7
 1968 038a 0000 0000 		.long	.LASF129
 1969 038e F500      		.sleb128 117
 1970 0390 07        		.uleb128 0x7
 1971 0391 0000 0000 		.long	.LASF130
 1972 0395 F600      		.sleb128 118
 1973 0397 07        		.uleb128 0x7
 1974 0398 0000 0000 		.long	.LASF131
 1975 039c F700      		.sleb128 119
 1976 039e 07        		.uleb128 0x7
 1977 039f 0000 0000 		.long	.LASF132
 1978 03a3 F800      		.sleb128 120
 1979 03a5 07        		.uleb128 0x7
 1980 03a6 0000 0000 		.long	.LASF133
 1981 03aa F900      		.sleb128 121
 1982 03ac 07        		.uleb128 0x7
 1983 03ad 0000 0000 		.long	.LASF134
 1984 03b1 FA00      		.sleb128 122
 1985 03b3 07        		.uleb128 0x7
 1986 03b4 0000 0000 		.long	.LASF135
 1987 03b8 FB00      		.sleb128 123
 1988 03ba 07        		.uleb128 0x7
 1989 03bb 0000 0000 		.long	.LASF136
 1990 03bf FC00      		.sleb128 124
 1991 03c1 07        		.uleb128 0x7
 1992 03c2 0000 0000 		.long	.LASF137
 1993 03c6 FD00      		.sleb128 125
 1994 03c8 07        		.uleb128 0x7
 1995 03c9 0000 0000 		.long	.LASF138
GAS LISTING C:\Users\ADMINI~1\AppData\Local\Temp/ccQkgpbR.s 			page 36


 1996 03cd FE00      		.sleb128 126
 1997 03cf 07        		.uleb128 0x7
 1998 03d0 0000 0000 		.long	.LASF139
 1999 03d4 FF00      		.sleb128 127
 2000 03d6 07        		.uleb128 0x7
 2001 03d7 0000 0000 		.long	.LASF140
 2002 03db 8001      		.sleb128 128
 2003 03dd 07        		.uleb128 0x7
 2004 03de 0000 0000 		.long	.LASF141
 2005 03e2 8101      		.sleb128 129
 2006 03e4 07        		.uleb128 0x7
 2007 03e5 0000 0000 		.long	.LASF142
 2008 03e9 8201      		.sleb128 130
 2009 03eb 07        		.uleb128 0x7
 2010 03ec 0000 0000 		.long	.LASF143
 2011 03f0 8301      		.sleb128 131
 2012 03f2 07        		.uleb128 0x7
 2013 03f3 0000 0000 		.long	.LASF144
 2014 03f7 8401      		.sleb128 132
 2015 03f9 07        		.uleb128 0x7
 2016 03fa 0000 0000 		.long	.LASF145
 2017 03fe 8501      		.sleb128 133
 2018 0400 07        		.uleb128 0x7
 2019 0401 0000 0000 		.long	.LASF146
 2020 0405 8601      		.sleb128 134
 2021 0407 07        		.uleb128 0x7
 2022 0408 0000 0000 		.long	.LASF147
 2023 040c 8701      		.sleb128 135
 2024 040e 07        		.uleb128 0x7
 2025 040f 0000 0000 		.long	.LASF148
 2026 0413 8801      		.sleb128 136
 2027 0415 07        		.uleb128 0x7
 2028 0416 0000 0000 		.long	.LASF149
 2029 041a 8901      		.sleb128 137
 2030 041c 07        		.uleb128 0x7
 2031 041d 0000 0000 		.long	.LASF150
 2032 0421 8A01      		.sleb128 138
 2033 0423 07        		.uleb128 0x7
 2034 0424 0000 0000 		.long	.LASF151
 2035 0428 8B01      		.sleb128 139
 2036 042a 07        		.uleb128 0x7
 2037 042b 0000 0000 		.long	.LASF152
 2038 042f 8C01      		.sleb128 140
 2039 0431 07        		.uleb128 0x7
 2040 0432 0000 0000 		.long	.LASF153
 2041 0436 8D01      		.sleb128 141
 2042 0438 07        		.uleb128 0x7
 2043 0439 0000 0000 		.long	.LASF154
 2044 043d 8E01      		.sleb128 142
 2045 043f 07        		.uleb128 0x7
 2046 0440 0000 0000 		.long	.LASF155
 2047 0444 8F01      		.sleb128 143
 2048 0446 00        		.byte	0x0
 2049 0447 08        		.uleb128 0x8
 2050 0448 0000 0000 		.long	.LASF161
 2051 044c 0C        		.byte	0xc
 2052 044d 03        		.byte	0x3
GAS LISTING C:\Users\ADMINI~1\AppData\Local\Temp/ccQkgpbR.s 			page 37


 2053 044e 9102      		.word	0x291
 2054 0450 7304 0000 		.long	0x473
 2055 0454 09        		.uleb128 0x9
 2056 0455 6C65 6E00 		.string	"len"
 2057 0459 03        		.byte	0x3
 2058 045a 9202      		.word	0x292
 2059 045c 7304 0000 		.long	0x473
 2060 0460 02        		.byte	0x2
 2061 0461 23        		.byte	0x23
 2062 0462 00        		.uleb128 0x0
 2063 0463 0A        		.uleb128 0xa
 2064 0464 0000 0000 		.long	.LASF156
 2065 0468 03        		.byte	0x3
 2066 0469 9302      		.word	0x293
 2067 046b 7804 0000 		.long	0x478
 2068 046f 02        		.byte	0x2
 2069 0470 23        		.byte	0x23
 2070 0471 01        		.uleb128 0x1
 2071 0472 00        		.byte	0x0
 2072 0473 0B        		.uleb128 0xb
 2073 0474 2500 0000 		.long	0x25
 2074 0478 0C        		.uleb128 0xc
 2075 0479 2500 0000 		.long	0x25
 2076 047d 8804 0000 		.long	0x488
 2077 0481 0D        		.uleb128 0xd
 2078 0482 8804 0000 		.long	0x488
 2079 0486 0A        		.byte	0xa
 2080 0487 00        		.byte	0x0
 2081 0488 05        		.uleb128 0x5
 2082 0489 02        		.byte	0x2
 2083 048a 07        		.byte	0x7
 2084 048b 0E        		.uleb128 0xe
 2085 048c 0000 0000 		.long	.LASF157
 2086 0490 03        		.byte	0x3
 2087 0491 9402      		.word	0x294
 2088 0493 4704 0000 		.long	0x447
 2089 0497 0F        		.uleb128 0xf
 2090 0498 0000 0000 		.long	.LASF216
 2091 049c 02        		.byte	0x2
 2092 049d 03        		.byte	0x3
 2093 049e 9D02      		.word	0x29d
 2094 04a0 BD04 0000 		.long	0x4bd
 2095 04a4 10        		.uleb128 0x10
 2096 04a5 0000 0000 		.long	.LASF158
 2097 04a9 03        		.byte	0x3
 2098 04aa 9E02      		.word	0x29e
 2099 04ac 5D00 0000 		.long	0x5d
 2100 04b0 10        		.uleb128 0x10
 2101 04b1 0000 0000 		.long	.LASF159
 2102 04b5 03        		.byte	0x3
 2103 04b6 9F02      		.word	0x29f
 2104 04b8 BD04 0000 		.long	0x4bd
 2105 04bc 00        		.byte	0x0
 2106 04bd 0C        		.uleb128 0xc
 2107 04be 2500 0000 		.long	0x25
 2108 04c2 CD04 0000 		.long	0x4cd
 2109 04c6 0D        		.uleb128 0xd
GAS LISTING C:\Users\ADMINI~1\AppData\Local\Temp/ccQkgpbR.s 			page 38


 2110 04c7 8804 0000 		.long	0x488
 2111 04cb 01        		.byte	0x1
 2112 04cc 00        		.byte	0x0
 2113 04cd 0E        		.uleb128 0xe
 2114 04ce 0000 0000 		.long	.LASF160
 2115 04d2 03        		.byte	0x3
 2116 04d3 A002      		.word	0x2a0
 2117 04d5 9704 0000 		.long	0x497
 2118 04d9 11        		.uleb128 0x11
 2119 04da 0000 0000 		.long	.LASF162
 2120 04de 08        		.byte	0x8
 2121 04df 03        		.byte	0x3
 2122 04e0 B0        		.byte	0xb0
 2123 04e1 3105 0000 		.long	0x531
 2124 04e5 0A        		.uleb128 0xa
 2125 04e6 0000 0000 		.long	.LASF163
 2126 04ea 03        		.byte	0x3
 2127 04eb A302      		.word	0x2a3
 2128 04ed 2500 0000 		.long	0x25
 2129 04f1 02        		.byte	0x2
 2130 04f2 23        		.byte	0x23
 2131 04f3 00        		.uleb128 0x0
 2132 04f4 0A        		.uleb128 0xa
 2133 04f5 0000 0000 		.long	.LASF164
 2134 04f9 03        		.byte	0x3
 2135 04fa A402      		.word	0x2a4
 2136 04fc 2500 0000 		.long	0x25
 2137 0500 02        		.byte	0x2
 2138 0501 23        		.byte	0x23
 2139 0502 01        		.uleb128 0x1
 2140 0503 0A        		.uleb128 0xa
 2141 0504 0000 0000 		.long	.LASF165
 2142 0508 03        		.byte	0x3
 2143 0509 A502      		.word	0x2a5
 2144 050b CD04 0000 		.long	0x4cd
 2145 050f 02        		.byte	0x2
 2146 0510 23        		.byte	0x23
 2147 0511 02        		.uleb128 0x2
 2148 0512 0A        		.uleb128 0xa
 2149 0513 0000 0000 		.long	.LASF166
 2150 0517 03        		.byte	0x3
 2151 0518 A602      		.word	0x2a6
 2152 051a CD04 0000 		.long	0x4cd
 2153 051e 02        		.byte	0x2
 2154 051f 23        		.byte	0x23
 2155 0520 04        		.uleb128 0x4
 2156 0521 0A        		.uleb128 0xa
 2157 0522 0000 0000 		.long	.LASF167
 2158 0526 03        		.byte	0x3
 2159 0527 A702      		.word	0x2a7
 2160 0529 CD04 0000 		.long	0x4cd
 2161 052d 02        		.byte	0x2
 2162 052e 23        		.byte	0x23
 2163 052f 06        		.uleb128 0x6
 2164 0530 00        		.byte	0x0
 2165 0531 0E        		.uleb128 0xe
 2166 0532 0000 0000 		.long	.LASF168
GAS LISTING C:\Users\ADMINI~1\AppData\Local\Temp/ccQkgpbR.s 			page 39


 2167 0536 03        		.byte	0x3
 2168 0537 A802      		.word	0x2a8
 2169 0539 D904 0000 		.long	0x4d9
 2170 053d 12        		.uleb128 0x12
 2171 053e 01        		.byte	0x1
 2172 053f 0000 0000 		.long	.LASF217
 2173 0543 01        		.byte	0x1
 2174 0544 4F02      		.word	0x24f
 2175 0546 01        		.byte	0x1
 2176 0547 7200 0000 		.long	0x72
 2177 054b 0000 0000 		.long	.LFB16
 2178 054f 0000 0000 		.long	.LFE16
 2179 0553 02        		.byte	0x2
 2180 0554 90        		.byte	0x90
 2181 0555 20        		.uleb128 0x20
 2182 0556 13        		.uleb128 0x13
 2183 0557 01        		.byte	0x1
 2184 0558 0000 0000 		.long	.LASF169
 2185 055c 01        		.byte	0x1
 2186 055d C901      		.word	0x1c9
 2187 055f 01        		.byte	0x1
 2188 0560 0000 0000 		.long	.LFB13
 2189 0564 0000 0000 		.long	.LFE13
 2190 0568 02        		.byte	0x2
 2191 0569 90        		.byte	0x90
 2192 056a 20        		.uleb128 0x20
 2193 056b 13        		.uleb128 0x13
 2194 056c 01        		.byte	0x1
 2195 056d 0000 0000 		.long	.LASF170
 2196 0571 01        		.byte	0x1
 2197 0572 8E01      		.word	0x18e
 2198 0574 01        		.byte	0x1
 2199 0575 0000 0000 		.long	.LFB11
 2200 0579 0000 0000 		.long	.LFE11
 2201 057d 02        		.byte	0x2
 2202 057e 90        		.byte	0x90
 2203 057f 20        		.uleb128 0x20
 2204 0580 14        		.uleb128 0x14
 2205 0581 01        		.byte	0x1
 2206 0582 0000 0000 		.long	.LASF175
 2207 0586 01        		.byte	0x1
 2208 0587 A001      		.word	0x1a0
 2209 0589 01        		.byte	0x1
 2210 058a 7200 0000 		.long	0x72
 2211 058e 0000 0000 		.long	.LFB12
 2212 0592 0000 0000 		.long	.LFE12
 2213 0596 02        		.byte	0x2
 2214 0597 90        		.byte	0x90
 2215 0598 20        		.uleb128 0x20
 2216 0599 2806 0000 		.long	0x628
 2217 059d 15        		.uleb128 0x15
 2218 059e 0000 0000 		.long	.LASF182
 2219 05a2 01        		.byte	0x1
 2220 05a3 A001      		.word	0x1a0
 2221 05a5 7200 0000 		.long	0x72
 2222 05a9 0000 0000 		.long	.LLST4
 2223 05ad 16        		.uleb128 0x16
GAS LISTING C:\Users\ADMINI~1\AppData\Local\Temp/ccQkgpbR.s 			page 40


 2224 05ae 0000 0000 		.long	.LASF171
 2225 05b2 01        		.byte	0x1
 2226 05b3 A101      		.word	0x1a1
 2227 05b5 7200 0000 		.long	0x72
 2228 05b9 17        		.uleb128 0x17
 2229 05ba 0000 0000 		.long	.LBB2
 2230 05be 0000 0000 		.long	.LBE2
 2231 05c2 FD05 0000 		.long	0x5fd
 2232 05c6 16        		.uleb128 0x16
 2233 05c7 0000 0000 		.long	.LASF172
 2234 05cb 01        		.byte	0x1
 2235 05cc A701      		.word	0x1a7
 2236 05ce 7D00 0000 		.long	0x7d
 2237 05d2 18        		.uleb128 0x18
 2238 05d3 0000 0000 		.long	.LBB3
 2239 05d7 0000 0000 		.long	.LBE3
 2240 05db 19        		.uleb128 0x19
 2241 05dc 0000 0000 		.long	.LASF173
 2242 05e0 01        		.byte	0x1
 2243 05e1 A701      		.word	0x1a7
 2244 05e3 7D00 0000 		.long	0x7d
 2245 05e7 0000 0000 		.long	.LLST5
 2246 05eb 19        		.uleb128 0x19
 2247 05ec 0000 0000 		.long	.LASF174
 2248 05f0 01        		.byte	0x1
 2249 05f1 A701      		.word	0x1a7
 2250 05f3 7D00 0000 		.long	0x7d
 2251 05f7 0000 0000 		.long	.LLST6
 2252 05fb 00        		.byte	0x0
 2253 05fc 00        		.byte	0x0
 2254 05fd 18        		.uleb128 0x18
 2255 05fe 0000 0000 		.long	.LBB4
 2256 0602 0000 0000 		.long	.LBE4
 2257 0606 19        		.uleb128 0x19
 2258 0607 0000 0000 		.long	.LASF173
 2259 060b 01        		.byte	0x1
 2260 060c BF01      		.word	0x1bf
 2261 060e 7D00 0000 		.long	0x7d
 2262 0612 0000 0000 		.long	.LLST7
 2263 0616 19        		.uleb128 0x19
 2264 0617 0000 0000 		.long	.LASF174
 2265 061b 01        		.byte	0x1
 2266 061c BF01      		.word	0x1bf
 2267 061e 7D00 0000 		.long	0x7d
 2268 0622 0000 0000 		.long	.LLST8
 2269 0626 00        		.byte	0x0
 2270 0627 00        		.byte	0x0
 2271 0628 14        		.uleb128 0x14
 2272 0629 01        		.byte	0x1
 2273 062a 0000 0000 		.long	.LASF176
 2274 062e 01        		.byte	0x1
 2275 062f 2702      		.word	0x227
 2276 0631 01        		.byte	0x1
 2277 0632 7200 0000 		.long	0x72
 2278 0636 0000 0000 		.long	.LFB15
 2279 063a 0000 0000 		.long	.LFE15
 2280 063e 02        		.byte	0x2
GAS LISTING C:\Users\ADMINI~1\AppData\Local\Temp/ccQkgpbR.s 			page 41


 2281 063f 90        		.byte	0x90
 2282 0640 20        		.uleb128 0x20
 2283 0641 8606 0000 		.long	0x686
 2284 0645 18        		.uleb128 0x18
 2285 0646 0000 0000 		.long	.LBB5
 2286 064a 0000 0000 		.long	.LBE5
 2287 064e 16        		.uleb128 0x16
 2288 064f 0000 0000 		.long	.LASF177
 2289 0653 01        		.byte	0x1
 2290 0654 2902      		.word	0x229
 2291 0656 6B00 0000 		.long	0x6b
 2292 065a 1A        		.uleb128 0x1a
 2293 065b 6900      		.string	"i"
 2294 065d 01        		.byte	0x1
 2295 065e 2F02      		.word	0x22f
 2296 0660 7200 0000 		.long	0x72
 2297 0664 19        		.uleb128 0x19
 2298 0665 0000 0000 		.long	.LASF178
 2299 0669 01        		.byte	0x1
 2300 066a 3002      		.word	0x230
 2301 066c 7200 0000 		.long	0x72
 2302 0670 0000 0000 		.long	.LLST10
 2303 0674 19        		.uleb128 0x19
 2304 0675 0000 0000 		.long	.LASF179
 2305 0679 01        		.byte	0x1
 2306 067a 3102      		.word	0x231
 2307 067c 7200 0000 		.long	0x72
 2308 0680 0000 0000 		.long	.LLST11
 2309 0684 00        		.byte	0x0
 2310 0685 00        		.byte	0x0
 2311 0686 14        		.uleb128 0x14
 2312 0687 01        		.byte	0x1
 2313 0688 0000 0000 		.long	.LASF180
 2314 068c 01        		.byte	0x1
 2315 068d CE01      		.word	0x1ce
 2316 068f 01        		.byte	0x1
 2317 0690 7200 0000 		.long	0x72
 2318 0694 0000 0000 		.long	.LFB14
 2319 0698 0000 0000 		.long	.LFE14
 2320 069c 02        		.byte	0x2
 2321 069d 90        		.byte	0x90
 2322 069e 20        		.uleb128 0x20
 2323 069f 3307 0000 		.long	0x733
 2324 06a3 19        		.uleb128 0x19
 2325 06a4 0000 0000 		.long	.LASF171
 2326 06a8 01        		.byte	0x1
 2327 06a9 CF01      		.word	0x1cf
 2328 06ab 7200 0000 		.long	0x72
 2329 06af 0000 0000 		.long	.LLST13
 2330 06b3 1B        		.uleb128 0x1b
 2331 06b4 726F 7700 		.string	"row"
 2332 06b8 01        		.byte	0x1
 2333 06b9 D401      		.word	0x1d4
 2334 06bb 7200 0000 		.long	0x72
 2335 06bf 0000 0000 		.long	.LLST14
 2336 06c3 1B        		.uleb128 0x1b
 2337 06c4 636F 6C00 		.string	"col"
GAS LISTING C:\Users\ADMINI~1\AppData\Local\Temp/ccQkgpbR.s 			page 42


 2338 06c8 01        		.byte	0x1
 2339 06c9 D401      		.word	0x1d4
 2340 06cb 7200 0000 		.long	0x72
 2341 06cf 0000 0000 		.long	.LLST15
 2342 06d3 19        		.uleb128 0x19
 2343 06d4 0000 0000 		.long	.LASF181
 2344 06d8 01        		.byte	0x1
 2345 06d9 D401      		.word	0x1d4
 2346 06db 7200 0000 		.long	0x72
 2347 06df 0000 0000 		.long	.LLST16
 2348 06e3 1B        		.uleb128 0x1b
 2349 06e4 6375 7200 		.string	"cur"
 2350 06e8 01        		.byte	0x1
 2351 06e9 D401      		.word	0x1d4
 2352 06eb 7200 0000 		.long	0x72
 2353 06ef 0000 0000 		.long	.LLST17
 2354 06f3 19        		.uleb128 0x19
 2355 06f4 0000 0000 		.long	.LASF182
 2356 06f8 01        		.byte	0x1
 2357 06f9 D401      		.word	0x1d4
 2358 06fb 7200 0000 		.long	0x72
 2359 06ff 0000 0000 		.long	.LLST18
 2360 0703 1C        		.uleb128 0x1c
 2361 0704 0000 0000 		.long	.LASF183
 2362 0708 01        		.byte	0x1
 2363 0709 D401      		.word	0x1d4
 2364 070b 7200 0000 		.long	0x72
 2365 070f 02        		.byte	0x2
 2366 0710 8C        		.byte	0x8c
 2367 0711 01        		.sleb128 1
 2368 0712 1B        		.uleb128 0x1b
 2369 0713 6746 4E00 		.string	"gFN"
 2370 0717 01        		.byte	0x1
 2371 0718 D401      		.word	0x1d4
 2372 071a 7200 0000 		.long	0x72
 2373 071e 0000 0000 		.long	.LLST19
 2374 0722 19        		.uleb128 0x19
 2375 0723 0000 0000 		.long	.LASF184
 2376 0727 01        		.byte	0x1
 2377 0728 D501      		.word	0x1d5
 2378 072a 7200 0000 		.long	0x72
 2379 072e 0000 0000 		.long	.LLST20
 2380 0732 00        		.byte	0x0
 2381 0733 1D        		.uleb128 0x1d
 2382 0734 01        		.byte	0x1
 2383 0735 0000 0000 		.long	.LASF218
 2384 0739 01        		.byte	0x1
 2385 073a 5802      		.word	0x258
 2386 073c 01        		.byte	0x1
 2387 073d 0000 0000 		.long	.LFB17
 2388 0741 0000 0000 		.long	.LFE17
 2389 0745 02        		.byte	0x2
 2390 0746 90        		.byte	0x90
 2391 0747 20        		.uleb128 0x20
 2392 0748 6D07 0000 		.long	0x76d
 2393 074c 19        		.uleb128 0x19
 2394 074d 0000 0000 		.long	.LASF185
GAS LISTING C:\Users\ADMINI~1\AppData\Local\Temp/ccQkgpbR.s 			page 43


 2395 0751 01        		.byte	0x1
 2396 0752 5C02      		.word	0x25c
 2397 0754 7200 0000 		.long	0x72
 2398 0758 0000 0000 		.long	.LLST22
 2399 075c 19        		.uleb128 0x19
 2400 075d 0000 0000 		.long	.LASF186
 2401 0761 01        		.byte	0x1
 2402 0762 5D02      		.word	0x25d
 2403 0764 7200 0000 		.long	0x72
 2404 0768 0000 0000 		.long	.LLST23
 2405 076c 00        		.byte	0x0
 2406 076d 13        		.uleb128 0x13
 2407 076e 01        		.byte	0x1
 2408 076f 0000 0000 		.long	.LASF187
 2409 0773 01        		.byte	0x1
 2410 0774 8701      		.word	0x187
 2411 0776 01        		.byte	0x1
 2412 0777 0000 0000 		.long	.LFB10
 2413 077b 0000 0000 		.long	.LFE10
 2414 077f 02        		.byte	0x2
 2415 0780 90        		.byte	0x90
 2416 0781 20        		.uleb128 0x20
 2417 0782 14        		.uleb128 0x14
 2418 0783 01        		.byte	0x1
 2419 0784 0000 0000 		.long	.LASF188
 2420 0788 01        		.byte	0x1
 2421 0789 3C01      		.word	0x13c
 2422 078b 01        		.byte	0x1
 2423 078c 7200 0000 		.long	0x72
 2424 0790 0000 0000 		.long	.LFB8
 2425 0794 0000 0000 		.long	.LFE8
 2426 0798 02        		.byte	0x2
 2427 0799 90        		.byte	0x90
 2428 079a 20        		.uleb128 0x20
 2429 079b BF07 0000 		.long	0x7bf
 2430 079f 15        		.uleb128 0x15
 2431 07a0 0000 0000 		.long	.LASF189
 2432 07a4 01        		.byte	0x1
 2433 07a5 3C01      		.word	0x13c
 2434 07a7 BF07 0000 		.long	0x7bf
 2435 07ab 0000 0000 		.long	.LLST26
 2436 07af 1B        		.uleb128 0x1b
 2437 07b0 7271 00   		.string	"rq"
 2438 07b3 01        		.byte	0x1
 2439 07b4 4001      		.word	0x140
 2440 07b6 C507 0000 		.long	0x7c5
 2441 07ba 0000 0000 		.long	.LLST27
 2442 07be 00        		.byte	0x0
 2443 07bf 1E        		.uleb128 0x1e
 2444 07c0 02        		.byte	0x2
 2445 07c1 7200 0000 		.long	0x72
 2446 07c5 1E        		.uleb128 0x1e
 2447 07c6 02        		.byte	0x2
 2448 07c7 3105 0000 		.long	0x531
 2449 07cb 14        		.uleb128 0x14
 2450 07cc 01        		.byte	0x1
 2451 07cd 0000 0000 		.long	.LASF190
GAS LISTING C:\Users\ADMINI~1\AppData\Local\Temp/ccQkgpbR.s 			page 44


 2452 07d1 01        		.byte	0x1
 2453 07d2 7901      		.word	0x179
 2454 07d4 01        		.byte	0x1
 2455 07d5 7200 0000 		.long	0x72
 2456 07d9 0000 0000 		.long	.LFB9
 2457 07dd 0000 0000 		.long	.LFE9
 2458 07e1 02        		.byte	0x2
 2459 07e2 90        		.byte	0x90
 2460 07e3 20        		.uleb128 0x20
 2461 07e4 0908 0000 		.long	0x809
 2462 07e8 15        		.uleb128 0x15
 2463 07e9 0000 0000 		.long	.LASF189
 2464 07ed 01        		.byte	0x1
 2465 07ee 7901      		.word	0x179
 2466 07f0 0908 0000 		.long	0x809
 2467 07f4 0000 0000 		.long	.LLST29
 2468 07f8 1F        		.uleb128 0x1f
 2469 07f9 6C65 6E00 		.string	"len"
 2470 07fd 01        		.byte	0x1
 2471 07fe 7901      		.word	0x179
 2472 0800 2500 0000 		.long	0x25
 2473 0804 0000 0000 		.long	.LLST30
 2474 0808 00        		.byte	0x0
 2475 0809 1E        		.uleb128 0x1e
 2476 080a 02        		.byte	0x2
 2477 080b 2500 0000 		.long	0x25
 2478 080f 0C        		.uleb128 0xc
 2479 0810 7200 0000 		.long	0x72
 2480 0814 1F08 0000 		.long	0x81f
 2481 0818 0D        		.uleb128 0xd
 2482 0819 8804 0000 		.long	0x488
 2483 081d 07        		.byte	0x7
 2484 081e 00        		.byte	0x0
 2485 081f 20        		.uleb128 0x20
 2486 0820 0000 0000 		.long	.LASF191
 2487 0824 01        		.byte	0x1
 2488 0825 EF        		.byte	0xef
 2489 0826 0F08 0000 		.long	0x80f
 2490 082a 05        		.byte	0x5
 2491 082b 03        		.byte	0x3
 2492 082c 0000 0000 		.long	reportBuffer
 2493 0830 20        		.uleb128 0x20
 2494 0831 0000 0000 		.long	.LASF192
 2495 0835 01        		.byte	0x1
 2496 0836 F0        		.byte	0xf0
 2497 0837 7200 0000 		.long	0x72
 2498 083b 05        		.byte	0x5
 2499 083c 03        		.byte	0x3
 2500 083d 0000 0000 		.long	idleRate
 2501 0841 20        		.uleb128 0x20
 2502 0842 0000 0000 		.long	.LASF193
 2503 0846 01        		.byte	0x1
 2504 0847 F1        		.byte	0xf1
 2505 0848 7200 0000 		.long	0x72
 2506 084c 05        		.byte	0x5
 2507 084d 03        		.byte	0x3
 2508 084e 0000 0000 		.long	protocolVer
GAS LISTING C:\Users\ADMINI~1\AppData\Local\Temp/ccQkgpbR.s 			page 45


 2509 0852 20        		.uleb128 0x20
 2510 0853 0000 0000 		.long	.LASF194
 2511 0857 01        		.byte	0x1
 2512 0858 F2        		.byte	0xf2
 2513 0859 7200 0000 		.long	0x72
 2514 085d 05        		.byte	0x5
 2515 085e 03        		.byte	0x3
 2516 085f 0000 0000 		.long	expectReport
 2517 0863 20        		.uleb128 0x20
 2518 0864 0000 0000 		.long	.LASF195
 2519 0868 01        		.byte	0x1
 2520 0869 F3        		.byte	0xf3
 2521 086a 7200 0000 		.long	0x72
 2522 086e 05        		.byte	0x5
 2523 086f 03        		.byte	0x3
 2524 0870 0000 0000 		.long	_isInit
 2525 0874 0C        		.uleb128 0xc
 2526 0875 7200 0000 		.long	0x72
 2527 0879 8408 0000 		.long	0x884
 2528 087d 0D        		.uleb128 0xd
 2529 087e 8804 0000 		.long	0x488
 2530 0882 1F        		.byte	0x1f
 2531 0883 00        		.byte	0x0
 2532 0884 20        		.uleb128 0x20
 2533 0885 0000 0000 		.long	.LASF196
 2534 0889 01        		.byte	0x1
 2535 088a F5        		.byte	0xf5
 2536 088b 7408 0000 		.long	0x874
 2537 088f 05        		.byte	0x5
 2538 0890 03        		.byte	0x3
 2539 0891 0000 0000 		.long	_prevPressedBuffer
 2540 0895 1C        		.uleb128 0x1c
 2541 0896 0000 0000 		.long	.LASF197
 2542 089a 01        		.byte	0x1
 2543 089b 2502      		.word	0x225
 2544 089d 7200 0000 		.long	0x72
 2545 08a1 05        		.byte	0x5
 2546 08a2 03        		.byte	0x3
 2547 08a3 0000 0000 		.long	_needRelease
 2548 08a7 0C        		.uleb128 0xc
 2549 08a8 7D00 0000 		.long	0x7d
 2550 08ac B208 0000 		.long	0x8b2
 2551 08b0 21        		.uleb128 0x21
 2552 08b1 00        		.byte	0x0
 2553 08b2 22        		.uleb128 0x22
 2554 08b3 0000 0000 		.long	.LASF198
 2555 08b7 04        		.byte	0x4
 2556 08b8 BC        		.byte	0xbc
 2557 08b9 BF08 0000 		.long	0x8bf
 2558 08bd 01        		.byte	0x1
 2559 08be 01        		.byte	0x1
 2560 08bf 23        		.uleb128 0x23
 2561 08c0 A708 0000 		.long	0x8a7
 2562 08c4 22        		.uleb128 0x22
 2563 08c5 0000 0000 		.long	.LASF199
 2564 08c9 04        		.byte	0x4
 2565 08ca BF        		.byte	0xbf
GAS LISTING C:\Users\ADMINI~1\AppData\Local\Temp/ccQkgpbR.s 			page 46


 2566 08cb D108 0000 		.long	0x8d1
 2567 08cf 01        		.byte	0x1
 2568 08d0 01        		.byte	0x1
 2569 08d1 23        		.uleb128 0x23
 2570 08d2 A708 0000 		.long	0x8a7
 2571 08d6 22        		.uleb128 0x22
 2572 08d7 0000 0000 		.long	.LASF200
 2573 08db 03        		.byte	0x3
 2574 08dc BF        		.byte	0xbf
 2575 08dd 3300 0000 		.long	0x33
 2576 08e1 01        		.byte	0x1
 2577 08e2 01        		.byte	0x1
 2578 08e3 0C        		.uleb128 0xc
 2579 08e4 6400 0000 		.long	0x64
 2580 08e8 F308 0000 		.long	0x8f3
 2581 08ec 0D        		.uleb128 0xd
 2582 08ed 8804 0000 		.long	0x488
 2583 08f1 54        		.byte	0x54
 2584 08f2 00        		.byte	0x0
 2585 08f3 24        		.uleb128 0x24
 2586 08f4 0000 0000 		.long	.LASF201
 2587 08f8 01        		.byte	0x1
 2588 08f9 0101      		.word	0x101
 2589 08fb 0609 0000 		.long	0x906
 2590 08ff 01        		.byte	0x1
 2591 0900 05        		.byte	0x5
 2592 0901 03        		.byte	0x3
 2593 0902 0000 0000 		.long	usbDescriptorHidReport
 2594 0906 23        		.uleb128 0x23
 2595 0907 E308 0000 		.long	0x8e3
 2596 090b 25        		.uleb128 0x25
 2597 090c 0000 0000 		.long	.LASF202
 2598 0910 03        		.byte	0x3
 2599 0911 9602      		.word	0x296
 2600 0913 8B04 0000 		.long	0x48b
 2601 0917 01        		.byte	0x1
 2602 0918 01        		.byte	0x1
 2603 0919 22        		.uleb128 0x22
 2604 091a 0000 0000 		.long	.LASF203
 2605 091e 05        		.byte	0x5
 2606 091f 38        		.byte	0x38
 2607 0920 6B00 0000 		.long	0x6b
 2608 0924 01        		.byte	0x1
 2609 0925 01        		.byte	0x1
 2610 0926 22        		.uleb128 0x22
 2611 0927 0000 0000 		.long	.LASF204
 2612 092b 05        		.byte	0x5
 2613 092c 39        		.byte	0x39
 2614 092d 7200 0000 		.long	0x72
 2615 0931 01        		.byte	0x1
 2616 0932 01        		.byte	0x1
 2617 0933 22        		.uleb128 0x22
 2618 0934 0000 0000 		.long	.LASF205
 2619 0938 05        		.byte	0x5
 2620 0939 3B        		.byte	0x3b
 2621 093a 7200 0000 		.long	0x72
 2622 093e 01        		.byte	0x1
GAS LISTING C:\Users\ADMINI~1\AppData\Local\Temp/ccQkgpbR.s 			page 47


 2623 093f 01        		.byte	0x1
 2624 0940 22        		.uleb128 0x22
 2625 0941 0000 0000 		.long	.LASF206
 2626 0945 06        		.byte	0x6
 2627 0946 0D        		.byte	0xd
 2628 0947 7200 0000 		.long	0x72
 2629 094b 01        		.byte	0x1
 2630 094c 01        		.byte	0x1
 2631 094d 0C        		.uleb128 0xc
 2632 094e 3300 0000 		.long	0x33
 2633 0952 5D09 0000 		.long	0x95d
 2634 0956 0D        		.uleb128 0xd
 2635 0957 8804 0000 		.long	0x488
 2636 095b 0F        		.byte	0xf
 2637 095c 00        		.byte	0x0
 2638 095d 22        		.uleb128 0x22
 2639 095e 0000 0000 		.long	.LASF207
 2640 0962 06        		.byte	0x6
 2641 0963 0E        		.byte	0xe
 2642 0964 6A09 0000 		.long	0x96a
 2643 0968 01        		.byte	0x1
 2644 0969 01        		.byte	0x1
 2645 096a 23        		.uleb128 0x23
 2646 096b 4D09 0000 		.long	0x94d
 2647 096f 0C        		.uleb128 0xc
 2648 0970 7200 0000 		.long	0x72
 2649 0974 7F09 0000 		.long	0x97f
 2650 0978 0D        		.uleb128 0xd
 2651 0979 8804 0000 		.long	0x488
 2652 097d 10        		.byte	0x10
 2653 097e 00        		.byte	0x0
 2654 097f 22        		.uleb128 0x22
 2655 0980 0000 0000 		.long	.LASF208
 2656 0984 06        		.byte	0x6
 2657 0985 0F        		.byte	0xf
 2658 0986 6F09 0000 		.long	0x96f
 2659 098a 01        		.byte	0x1
 2660 098b 01        		.byte	0x1
 2661 098c 22        		.uleb128 0x22
 2662 098d 0000 0000 		.long	.LASF209
 2663 0991 06        		.byte	0x6
 2664 0992 10        		.byte	0x10
 2665 0993 6F09 0000 		.long	0x96f
 2666 0997 01        		.byte	0x1
 2667 0998 01        		.byte	0x1
 2668 0999 22        		.uleb128 0x22
 2669 099a 0000 0000 		.long	.LASF210
 2670 099e 07        		.byte	0x7
 2671 099f 19        		.byte	0x19
 2672 09a0 7408 0000 		.long	0x874
 2673 09a4 01        		.byte	0x1
 2674 09a5 01        		.byte	0x1
 2675 09a6 24        		.uleb128 0x24
 2676 09a7 0000 0000 		.long	.LASF211
 2677 09ab 01        		.byte	0x1
 2678 09ac 9E01      		.word	0x19e
 2679 09ae 7200 0000 		.long	0x72
GAS LISTING C:\Users\ADMINI~1\AppData\Local\Temp/ccQkgpbR.s 			page 48


 2680 09b2 01        		.byte	0x1
 2681 09b3 05        		.byte	0x5
 2682 09b4 03        		.byte	0x3
 2683 09b5 0000 0000 		.long	reportIndex
 2684 09b9 24        		.uleb128 0x24
 2685 09ba 0000 0000 		.long	.LASF212
 2686 09be 01        		.byte	0x1
 2687 09bf 9F01      		.word	0x19f
 2688 09c1 7200 0000 		.long	0x72
 2689 09c5 01        		.byte	0x1
 2690 09c6 05        		.byte	0x5
 2691 09c7 03        		.byte	0x3
 2692 09c8 0000 0000 		.long	_isMultimediaPressed
 2693 09cc 00        		.byte	0x0
 2694               		.section	.debug_abbrev
 2695 0000 01        		.uleb128 0x1
 2696 0001 11        		.uleb128 0x11
 2697 0002 01        		.byte	0x1
 2698 0003 25        		.uleb128 0x25
 2699 0004 0E        		.uleb128 0xe
 2700 0005 13        		.uleb128 0x13
 2701 0006 0B        		.uleb128 0xb
 2702 0007 03        		.uleb128 0x3
 2703 0008 0E        		.uleb128 0xe
 2704 0009 1B        		.uleb128 0x1b
 2705 000a 0E        		.uleb128 0xe
 2706 000b 11        		.uleb128 0x11
 2707 000c 01        		.uleb128 0x1
 2708 000d 12        		.uleb128 0x12
 2709 000e 01        		.uleb128 0x1
 2710 000f 10        		.uleb128 0x10
 2711 0010 06        		.uleb128 0x6
 2712 0011 00        		.byte	0x0
 2713 0012 00        		.byte	0x0
 2714 0013 02        		.uleb128 0x2
 2715 0014 24        		.uleb128 0x24
 2716 0015 00        		.byte	0x0
 2717 0016 0B        		.uleb128 0xb
 2718 0017 0B        		.uleb128 0xb
 2719 0018 3E        		.uleb128 0x3e
 2720 0019 0B        		.uleb128 0xb
 2721 001a 03        		.uleb128 0x3
 2722 001b 0E        		.uleb128 0xe
 2723 001c 00        		.byte	0x0
 2724 001d 00        		.byte	0x0
 2725 001e 03        		.uleb128 0x3
 2726 001f 24        		.uleb128 0x24
 2727 0020 00        		.byte	0x0
 2728 0021 0B        		.uleb128 0xb
 2729 0022 0B        		.uleb128 0xb
 2730 0023 3E        		.uleb128 0x3e
 2731 0024 0B        		.uleb128 0xb
 2732 0025 03        		.uleb128 0x3
 2733 0026 08        		.uleb128 0x8
 2734 0027 00        		.byte	0x0
 2735 0028 00        		.byte	0x0
 2736 0029 04        		.uleb128 0x4
GAS LISTING C:\Users\ADMINI~1\AppData\Local\Temp/ccQkgpbR.s 			page 49


 2737 002a 16        		.uleb128 0x16
 2738 002b 00        		.byte	0x0
 2739 002c 03        		.uleb128 0x3
 2740 002d 0E        		.uleb128 0xe
 2741 002e 3A        		.uleb128 0x3a
 2742 002f 0B        		.uleb128 0xb
 2743 0030 3B        		.uleb128 0x3b
 2744 0031 0B        		.uleb128 0xb
 2745 0032 49        		.uleb128 0x49
 2746 0033 13        		.uleb128 0x13
 2747 0034 00        		.byte	0x0
 2748 0035 00        		.byte	0x0
 2749 0036 05        		.uleb128 0x5
 2750 0037 24        		.uleb128 0x24
 2751 0038 00        		.byte	0x0
 2752 0039 0B        		.uleb128 0xb
 2753 003a 0B        		.uleb128 0xb
 2754 003b 3E        		.uleb128 0x3e
 2755 003c 0B        		.uleb128 0xb
 2756 003d 00        		.byte	0x0
 2757 003e 00        		.byte	0x0
 2758 003f 06        		.uleb128 0x6
 2759 0040 04        		.uleb128 0x4
 2760 0041 01        		.byte	0x1
 2761 0042 0B        		.uleb128 0xb
 2762 0043 0B        		.uleb128 0xb
 2763 0044 3A        		.uleb128 0x3a
 2764 0045 0B        		.uleb128 0xb
 2765 0046 3B        		.uleb128 0x3b
 2766 0047 0B        		.uleb128 0xb
 2767 0048 01        		.uleb128 0x1
 2768 0049 13        		.uleb128 0x13
 2769 004a 00        		.byte	0x0
 2770 004b 00        		.byte	0x0
 2771 004c 07        		.uleb128 0x7
 2772 004d 28        		.uleb128 0x28
 2773 004e 00        		.byte	0x0
 2774 004f 03        		.uleb128 0x3
 2775 0050 0E        		.uleb128 0xe
 2776 0051 1C        		.uleb128 0x1c
 2777 0052 0D        		.uleb128 0xd
 2778 0053 00        		.byte	0x0
 2779 0054 00        		.byte	0x0
 2780 0055 08        		.uleb128 0x8
 2781 0056 13        		.uleb128 0x13
 2782 0057 01        		.byte	0x1
 2783 0058 03        		.uleb128 0x3
 2784 0059 0E        		.uleb128 0xe
 2785 005a 0B        		.uleb128 0xb
 2786 005b 0B        		.uleb128 0xb
 2787 005c 3A        		.uleb128 0x3a
 2788 005d 0B        		.uleb128 0xb
 2789 005e 3B        		.uleb128 0x3b
 2790 005f 05        		.uleb128 0x5
 2791 0060 01        		.uleb128 0x1
 2792 0061 13        		.uleb128 0x13
 2793 0062 00        		.byte	0x0
GAS LISTING C:\Users\ADMINI~1\AppData\Local\Temp/ccQkgpbR.s 			page 50


 2794 0063 00        		.byte	0x0
 2795 0064 09        		.uleb128 0x9
 2796 0065 0D        		.uleb128 0xd
 2797 0066 00        		.byte	0x0
 2798 0067 03        		.uleb128 0x3
 2799 0068 08        		.uleb128 0x8
 2800 0069 3A        		.uleb128 0x3a
 2801 006a 0B        		.uleb128 0xb
 2802 006b 3B        		.uleb128 0x3b
 2803 006c 05        		.uleb128 0x5
 2804 006d 49        		.uleb128 0x49
 2805 006e 13        		.uleb128 0x13
 2806 006f 38        		.uleb128 0x38
 2807 0070 0A        		.uleb128 0xa
 2808 0071 00        		.byte	0x0
 2809 0072 00        		.byte	0x0
 2810 0073 0A        		.uleb128 0xa
 2811 0074 0D        		.uleb128 0xd
 2812 0075 00        		.byte	0x0
 2813 0076 03        		.uleb128 0x3
 2814 0077 0E        		.uleb128 0xe
 2815 0078 3A        		.uleb128 0x3a
 2816 0079 0B        		.uleb128 0xb
 2817 007a 3B        		.uleb128 0x3b
 2818 007b 05        		.uleb128 0x5
 2819 007c 49        		.uleb128 0x49
 2820 007d 13        		.uleb128 0x13
 2821 007e 38        		.uleb128 0x38
 2822 007f 0A        		.uleb128 0xa
 2823 0080 00        		.byte	0x0
 2824 0081 00        		.byte	0x0
 2825 0082 0B        		.uleb128 0xb
 2826 0083 35        		.uleb128 0x35
 2827 0084 00        		.byte	0x0
 2828 0085 49        		.uleb128 0x49
 2829 0086 13        		.uleb128 0x13
 2830 0087 00        		.byte	0x0
 2831 0088 00        		.byte	0x0
 2832 0089 0C        		.uleb128 0xc
 2833 008a 01        		.uleb128 0x1
 2834 008b 01        		.byte	0x1
 2835 008c 49        		.uleb128 0x49
 2836 008d 13        		.uleb128 0x13
 2837 008e 01        		.uleb128 0x1
 2838 008f 13        		.uleb128 0x13
 2839 0090 00        		.byte	0x0
 2840 0091 00        		.byte	0x0
 2841 0092 0D        		.uleb128 0xd
 2842 0093 21        		.uleb128 0x21
 2843 0094 00        		.byte	0x0
 2844 0095 49        		.uleb128 0x49
 2845 0096 13        		.uleb128 0x13
 2846 0097 2F        		.uleb128 0x2f
 2847 0098 0B        		.uleb128 0xb
 2848 0099 00        		.byte	0x0
 2849 009a 00        		.byte	0x0
 2850 009b 0E        		.uleb128 0xe
GAS LISTING C:\Users\ADMINI~1\AppData\Local\Temp/ccQkgpbR.s 			page 51


 2851 009c 16        		.uleb128 0x16
 2852 009d 00        		.byte	0x0
 2853 009e 03        		.uleb128 0x3
 2854 009f 0E        		.uleb128 0xe
 2855 00a0 3A        		.uleb128 0x3a
 2856 00a1 0B        		.uleb128 0xb
 2857 00a2 3B        		.uleb128 0x3b
 2858 00a3 05        		.uleb128 0x5
 2859 00a4 49        		.uleb128 0x49
 2860 00a5 13        		.uleb128 0x13
 2861 00a6 00        		.byte	0x0
 2862 00a7 00        		.byte	0x0
 2863 00a8 0F        		.uleb128 0xf
 2864 00a9 17        		.uleb128 0x17
 2865 00aa 01        		.byte	0x1
 2866 00ab 03        		.uleb128 0x3
 2867 00ac 0E        		.uleb128 0xe
 2868 00ad 0B        		.uleb128 0xb
 2869 00ae 0B        		.uleb128 0xb
 2870 00af 3A        		.uleb128 0x3a
 2871 00b0 0B        		.uleb128 0xb
 2872 00b1 3B        		.uleb128 0x3b
 2873 00b2 05        		.uleb128 0x5
 2874 00b3 01        		.uleb128 0x1
 2875 00b4 13        		.uleb128 0x13
 2876 00b5 00        		.byte	0x0
 2877 00b6 00        		.byte	0x0
 2878 00b7 10        		.uleb128 0x10
 2879 00b8 0D        		.uleb128 0xd
 2880 00b9 00        		.byte	0x0
 2881 00ba 03        		.uleb128 0x3
 2882 00bb 0E        		.uleb128 0xe
 2883 00bc 3A        		.uleb128 0x3a
 2884 00bd 0B        		.uleb128 0xb
 2885 00be 3B        		.uleb128 0x3b
 2886 00bf 05        		.uleb128 0x5
 2887 00c0 49        		.uleb128 0x49
 2888 00c1 13        		.uleb128 0x13
 2889 00c2 00        		.byte	0x0
 2890 00c3 00        		.byte	0x0
 2891 00c4 11        		.uleb128 0x11
 2892 00c5 13        		.uleb128 0x13
 2893 00c6 01        		.byte	0x1
 2894 00c7 03        		.uleb128 0x3
 2895 00c8 0E        		.uleb128 0xe
 2896 00c9 0B        		.uleb128 0xb
 2897 00ca 0B        		.uleb128 0xb
 2898 00cb 3A        		.uleb128 0x3a
 2899 00cc 0B        		.uleb128 0xb
 2900 00cd 3B        		.uleb128 0x3b
 2901 00ce 0B        		.uleb128 0xb
 2902 00cf 01        		.uleb128 0x1
 2903 00d0 13        		.uleb128 0x13
 2904 00d1 00        		.byte	0x0
 2905 00d2 00        		.byte	0x0
 2906 00d3 12        		.uleb128 0x12
 2907 00d4 2E        		.uleb128 0x2e
GAS LISTING C:\Users\ADMINI~1\AppData\Local\Temp/ccQkgpbR.s 			page 52


 2908 00d5 00        		.byte	0x0
 2909 00d6 3F        		.uleb128 0x3f
 2910 00d7 0C        		.uleb128 0xc
 2911 00d8 03        		.uleb128 0x3
 2912 00d9 0E        		.uleb128 0xe
 2913 00da 3A        		.uleb128 0x3a
 2914 00db 0B        		.uleb128 0xb
 2915 00dc 3B        		.uleb128 0x3b
 2916 00dd 05        		.uleb128 0x5
 2917 00de 27        		.uleb128 0x27
 2918 00df 0C        		.uleb128 0xc
 2919 00e0 49        		.uleb128 0x49
 2920 00e1 13        		.uleb128 0x13
 2921 00e2 11        		.uleb128 0x11
 2922 00e3 01        		.uleb128 0x1
 2923 00e4 12        		.uleb128 0x12
 2924 00e5 01        		.uleb128 0x1
 2925 00e6 40        		.uleb128 0x40
 2926 00e7 0A        		.uleb128 0xa
 2927 00e8 00        		.byte	0x0
 2928 00e9 00        		.byte	0x0
 2929 00ea 13        		.uleb128 0x13
 2930 00eb 2E        		.uleb128 0x2e
 2931 00ec 00        		.byte	0x0
 2932 00ed 3F        		.uleb128 0x3f
 2933 00ee 0C        		.uleb128 0xc
 2934 00ef 03        		.uleb128 0x3
 2935 00f0 0E        		.uleb128 0xe
 2936 00f1 3A        		.uleb128 0x3a
 2937 00f2 0B        		.uleb128 0xb
 2938 00f3 3B        		.uleb128 0x3b
 2939 00f4 05        		.uleb128 0x5
 2940 00f5 27        		.uleb128 0x27
 2941 00f6 0C        		.uleb128 0xc
 2942 00f7 11        		.uleb128 0x11
 2943 00f8 01        		.uleb128 0x1
 2944 00f9 12        		.uleb128 0x12
 2945 00fa 01        		.uleb128 0x1
 2946 00fb 40        		.uleb128 0x40
 2947 00fc 0A        		.uleb128 0xa
 2948 00fd 00        		.byte	0x0
 2949 00fe 00        		.byte	0x0
 2950 00ff 14        		.uleb128 0x14
 2951 0100 2E        		.uleb128 0x2e
 2952 0101 01        		.byte	0x1
 2953 0102 3F        		.uleb128 0x3f
 2954 0103 0C        		.uleb128 0xc
 2955 0104 03        		.uleb128 0x3
 2956 0105 0E        		.uleb128 0xe
 2957 0106 3A        		.uleb128 0x3a
 2958 0107 0B        		.uleb128 0xb
 2959 0108 3B        		.uleb128 0x3b
 2960 0109 05        		.uleb128 0x5
 2961 010a 27        		.uleb128 0x27
 2962 010b 0C        		.uleb128 0xc
 2963 010c 49        		.uleb128 0x49
 2964 010d 13        		.uleb128 0x13
GAS LISTING C:\Users\ADMINI~1\AppData\Local\Temp/ccQkgpbR.s 			page 53


 2965 010e 11        		.uleb128 0x11
 2966 010f 01        		.uleb128 0x1
 2967 0110 12        		.uleb128 0x12
 2968 0111 01        		.uleb128 0x1
 2969 0112 40        		.uleb128 0x40
 2970 0113 0A        		.uleb128 0xa
 2971 0114 01        		.uleb128 0x1
 2972 0115 13        		.uleb128 0x13
 2973 0116 00        		.byte	0x0
 2974 0117 00        		.byte	0x0
 2975 0118 15        		.uleb128 0x15
 2976 0119 05        		.uleb128 0x5
 2977 011a 00        		.byte	0x0
 2978 011b 03        		.uleb128 0x3
 2979 011c 0E        		.uleb128 0xe
 2980 011d 3A        		.uleb128 0x3a
 2981 011e 0B        		.uleb128 0xb
 2982 011f 3B        		.uleb128 0x3b
 2983 0120 05        		.uleb128 0x5
 2984 0121 49        		.uleb128 0x49
 2985 0122 13        		.uleb128 0x13
 2986 0123 02        		.uleb128 0x2
 2987 0124 06        		.uleb128 0x6
 2988 0125 00        		.byte	0x0
 2989 0126 00        		.byte	0x0
 2990 0127 16        		.uleb128 0x16
 2991 0128 34        		.uleb128 0x34
 2992 0129 00        		.byte	0x0
 2993 012a 03        		.uleb128 0x3
 2994 012b 0E        		.uleb128 0xe
 2995 012c 3A        		.uleb128 0x3a
 2996 012d 0B        		.uleb128 0xb
 2997 012e 3B        		.uleb128 0x3b
 2998 012f 05        		.uleb128 0x5
 2999 0130 49        		.uleb128 0x49
 3000 0131 13        		.uleb128 0x13
 3001 0132 00        		.byte	0x0
 3002 0133 00        		.byte	0x0
 3003 0134 17        		.uleb128 0x17
 3004 0135 0B        		.uleb128 0xb
 3005 0136 01        		.byte	0x1
 3006 0137 11        		.uleb128 0x11
 3007 0138 01        		.uleb128 0x1
 3008 0139 12        		.uleb128 0x12
 3009 013a 01        		.uleb128 0x1
 3010 013b 01        		.uleb128 0x1
 3011 013c 13        		.uleb128 0x13
 3012 013d 00        		.byte	0x0
 3013 013e 00        		.byte	0x0
 3014 013f 18        		.uleb128 0x18
 3015 0140 0B        		.uleb128 0xb
 3016 0141 01        		.byte	0x1
 3017 0142 11        		.uleb128 0x11
 3018 0143 01        		.uleb128 0x1
 3019 0144 12        		.uleb128 0x12
 3020 0145 01        		.uleb128 0x1
 3021 0146 00        		.byte	0x0
GAS LISTING C:\Users\ADMINI~1\AppData\Local\Temp/ccQkgpbR.s 			page 54


 3022 0147 00        		.byte	0x0
 3023 0148 19        		.uleb128 0x19
 3024 0149 34        		.uleb128 0x34
 3025 014a 00        		.byte	0x0
 3026 014b 03        		.uleb128 0x3
 3027 014c 0E        		.uleb128 0xe
 3028 014d 3A        		.uleb128 0x3a
 3029 014e 0B        		.uleb128 0xb
 3030 014f 3B        		.uleb128 0x3b
 3031 0150 05        		.uleb128 0x5
 3032 0151 49        		.uleb128 0x49
 3033 0152 13        		.uleb128 0x13
 3034 0153 02        		.uleb128 0x2
 3035 0154 06        		.uleb128 0x6
 3036 0155 00        		.byte	0x0
 3037 0156 00        		.byte	0x0
 3038 0157 1A        		.uleb128 0x1a
 3039 0158 34        		.uleb128 0x34
 3040 0159 00        		.byte	0x0
 3041 015a 03        		.uleb128 0x3
 3042 015b 08        		.uleb128 0x8
 3043 015c 3A        		.uleb128 0x3a
 3044 015d 0B        		.uleb128 0xb
 3045 015e 3B        		.uleb128 0x3b
 3046 015f 05        		.uleb128 0x5
 3047 0160 49        		.uleb128 0x49
 3048 0161 13        		.uleb128 0x13
 3049 0162 00        		.byte	0x0
 3050 0163 00        		.byte	0x0
 3051 0164 1B        		.uleb128 0x1b
 3052 0165 34        		.uleb128 0x34
 3053 0166 00        		.byte	0x0
 3054 0167 03        		.uleb128 0x3
 3055 0168 08        		.uleb128 0x8
 3056 0169 3A        		.uleb128 0x3a
 3057 016a 0B        		.uleb128 0xb
 3058 016b 3B        		.uleb128 0x3b
 3059 016c 05        		.uleb128 0x5
 3060 016d 49        		.uleb128 0x49
 3061 016e 13        		.uleb128 0x13
 3062 016f 02        		.uleb128 0x2
 3063 0170 06        		.uleb128 0x6
 3064 0171 00        		.byte	0x0
 3065 0172 00        		.byte	0x0
 3066 0173 1C        		.uleb128 0x1c
 3067 0174 34        		.uleb128 0x34
 3068 0175 00        		.byte	0x0
 3069 0176 03        		.uleb128 0x3
 3070 0177 0E        		.uleb128 0xe
 3071 0178 3A        		.uleb128 0x3a
 3072 0179 0B        		.uleb128 0xb
 3073 017a 3B        		.uleb128 0x3b
 3074 017b 05        		.uleb128 0x5
 3075 017c 49        		.uleb128 0x49
 3076 017d 13        		.uleb128 0x13
 3077 017e 02        		.uleb128 0x2
 3078 017f 0A        		.uleb128 0xa
GAS LISTING C:\Users\ADMINI~1\AppData\Local\Temp/ccQkgpbR.s 			page 55


 3079 0180 00        		.byte	0x0
 3080 0181 00        		.byte	0x0
 3081 0182 1D        		.uleb128 0x1d
 3082 0183 2E        		.uleb128 0x2e
 3083 0184 01        		.byte	0x1
 3084 0185 3F        		.uleb128 0x3f
 3085 0186 0C        		.uleb128 0xc
 3086 0187 03        		.uleb128 0x3
 3087 0188 0E        		.uleb128 0xe
 3088 0189 3A        		.uleb128 0x3a
 3089 018a 0B        		.uleb128 0xb
 3090 018b 3B        		.uleb128 0x3b
 3091 018c 05        		.uleb128 0x5
 3092 018d 27        		.uleb128 0x27
 3093 018e 0C        		.uleb128 0xc
 3094 018f 11        		.uleb128 0x11
 3095 0190 01        		.uleb128 0x1
 3096 0191 12        		.uleb128 0x12
 3097 0192 01        		.uleb128 0x1
 3098 0193 40        		.uleb128 0x40
 3099 0194 0A        		.uleb128 0xa
 3100 0195 01        		.uleb128 0x1
 3101 0196 13        		.uleb128 0x13
 3102 0197 00        		.byte	0x0
 3103 0198 00        		.byte	0x0
 3104 0199 1E        		.uleb128 0x1e
 3105 019a 0F        		.uleb128 0xf
 3106 019b 00        		.byte	0x0
 3107 019c 0B        		.uleb128 0xb
 3108 019d 0B        		.uleb128 0xb
 3109 019e 49        		.uleb128 0x49
 3110 019f 13        		.uleb128 0x13
 3111 01a0 00        		.byte	0x0
 3112 01a1 00        		.byte	0x0
 3113 01a2 1F        		.uleb128 0x1f
 3114 01a3 05        		.uleb128 0x5
 3115 01a4 00        		.byte	0x0
 3116 01a5 03        		.uleb128 0x3
 3117 01a6 08        		.uleb128 0x8
 3118 01a7 3A        		.uleb128 0x3a
 3119 01a8 0B        		.uleb128 0xb
 3120 01a9 3B        		.uleb128 0x3b
 3121 01aa 05        		.uleb128 0x5
 3122 01ab 49        		.uleb128 0x49
 3123 01ac 13        		.uleb128 0x13
 3124 01ad 02        		.uleb128 0x2
 3125 01ae 06        		.uleb128 0x6
 3126 01af 00        		.byte	0x0
 3127 01b0 00        		.byte	0x0
 3128 01b1 20        		.uleb128 0x20
 3129 01b2 34        		.uleb128 0x34
 3130 01b3 00        		.byte	0x0
 3131 01b4 03        		.uleb128 0x3
 3132 01b5 0E        		.uleb128 0xe
 3133 01b6 3A        		.uleb128 0x3a
 3134 01b7 0B        		.uleb128 0xb
 3135 01b8 3B        		.uleb128 0x3b
GAS LISTING C:\Users\ADMINI~1\AppData\Local\Temp/ccQkgpbR.s 			page 56


 3136 01b9 0B        		.uleb128 0xb
 3137 01ba 49        		.uleb128 0x49
 3138 01bb 13        		.uleb128 0x13
 3139 01bc 02        		.uleb128 0x2
 3140 01bd 0A        		.uleb128 0xa
 3141 01be 00        		.byte	0x0
 3142 01bf 00        		.byte	0x0
 3143 01c0 21        		.uleb128 0x21
 3144 01c1 21        		.uleb128 0x21
 3145 01c2 00        		.byte	0x0
 3146 01c3 00        		.byte	0x0
 3147 01c4 00        		.byte	0x0
 3148 01c5 22        		.uleb128 0x22
 3149 01c6 34        		.uleb128 0x34
 3150 01c7 00        		.byte	0x0
 3151 01c8 03        		.uleb128 0x3
 3152 01c9 0E        		.uleb128 0xe
 3153 01ca 3A        		.uleb128 0x3a
 3154 01cb 0B        		.uleb128 0xb
 3155 01cc 3B        		.uleb128 0x3b
 3156 01cd 0B        		.uleb128 0xb
 3157 01ce 49        		.uleb128 0x49
 3158 01cf 13        		.uleb128 0x13
 3159 01d0 3F        		.uleb128 0x3f
 3160 01d1 0C        		.uleb128 0xc
 3161 01d2 3C        		.uleb128 0x3c
 3162 01d3 0C        		.uleb128 0xc
 3163 01d4 00        		.byte	0x0
 3164 01d5 00        		.byte	0x0
 3165 01d6 23        		.uleb128 0x23
 3166 01d7 26        		.uleb128 0x26
 3167 01d8 00        		.byte	0x0
 3168 01d9 49        		.uleb128 0x49
 3169 01da 13        		.uleb128 0x13
 3170 01db 00        		.byte	0x0
 3171 01dc 00        		.byte	0x0
 3172 01dd 24        		.uleb128 0x24
 3173 01de 34        		.uleb128 0x34
 3174 01df 00        		.byte	0x0
 3175 01e0 03        		.uleb128 0x3
 3176 01e1 0E        		.uleb128 0xe
 3177 01e2 3A        		.uleb128 0x3a
 3178 01e3 0B        		.uleb128 0xb
 3179 01e4 3B        		.uleb128 0x3b
 3180 01e5 05        		.uleb128 0x5
 3181 01e6 49        		.uleb128 0x49
 3182 01e7 13        		.uleb128 0x13
 3183 01e8 3F        		.uleb128 0x3f
 3184 01e9 0C        		.uleb128 0xc
 3185 01ea 02        		.uleb128 0x2
 3186 01eb 0A        		.uleb128 0xa
 3187 01ec 00        		.byte	0x0
 3188 01ed 00        		.byte	0x0
 3189 01ee 25        		.uleb128 0x25
 3190 01ef 34        		.uleb128 0x34
 3191 01f0 00        		.byte	0x0
 3192 01f1 03        		.uleb128 0x3
GAS LISTING C:\Users\ADMINI~1\AppData\Local\Temp/ccQkgpbR.s 			page 57


 3193 01f2 0E        		.uleb128 0xe
 3194 01f3 3A        		.uleb128 0x3a
 3195 01f4 0B        		.uleb128 0xb
 3196 01f5 3B        		.uleb128 0x3b
 3197 01f6 05        		.uleb128 0x5
 3198 01f7 49        		.uleb128 0x49
 3199 01f8 13        		.uleb128 0x13
 3200 01f9 3F        		.uleb128 0x3f
 3201 01fa 0C        		.uleb128 0xc
 3202 01fb 3C        		.uleb128 0x3c
 3203 01fc 0C        		.uleb128 0xc
 3204 01fd 00        		.byte	0x0
 3205 01fe 00        		.byte	0x0
 3206 01ff 00        		.byte	0x0
 3207               		.section	.debug_pubnames,"",@progbits
 3208 0000 1201 0000 		.long	0x112
 3209 0004 0200      		.word	0x2
 3210 0006 0000 0000 		.long	.Ldebug_info0
 3211 000a CD09 0000 		.long	0x9cd
 3212 000e 3D05 0000 		.long	0x53d
 3213 0012 6861 734D 		.string	"hasMacroUsb"
 3213      6163 726F 
 3213      5573 6200 
 3214 001e 5605 0000 		.long	0x556
 3215 0022 636C 6561 		.string	"clearReportBuffer"
 3215      7252 6570 
 3215      6F72 7442 
 3215      7566 6665 
 3215      7200 
 3216 0034 6B05 0000 		.long	0x56b
 3217 0038 7072 6570 		.string	"prepareKeyMappingUsb"
 3217      6172 654B 
 3217      6579 4D61 
 3217      7070 696E 
 3217      6755 7362 
 3218 004d 8005 0000 		.long	0x580
 3219 0051 6D61 6B65 		.string	"makeReportBuffer"
 3219      5265 706F 
 3219      7274 4275 
 3219      6666 6572 
 3219      00
 3220 0062 2806 0000 		.long	0x628
 3221 0066 7363 616E 		.string	"scanMacroUsb"
 3221      4D61 6372 
 3221      6F55 7362 
 3221      00
 3222 0073 8606 0000 		.long	0x686
 3223 0077 7363 616E 		.string	"scanKeyUSB"
 3223      4B65 7955 
 3223      5342 00
 3224 0082 3307 0000 		.long	0x733
 3225 0086 7573 625F 		.string	"usb_main"
 3225      6D61 696E 
 3225      00
 3226 008f 6D07 0000 		.long	0x76d
 3227 0093 696E 6974 		.string	"initInterfaceUsb"
 3227      496E 7465 
GAS LISTING C:\Users\ADMINI~1\AppData\Local\Temp/ccQkgpbR.s 			page 58


 3227      7266 6163 
 3227      6555 7362 
 3227      00
 3228 00a4 8207 0000 		.long	0x782
 3229 00a8 7573 6246 		.string	"usbFunctionSetup"
 3229      756E 6374 
 3229      696F 6E53 
 3229      6574 7570 
 3229      00
 3230 00b9 CB07 0000 		.long	0x7cb
 3231 00bd 7573 6246 		.string	"usbFunctionWrite"
 3231      756E 6374 
 3231      696F 6E57 
 3231      7269 7465 
 3231      00
 3232 00ce F308 0000 		.long	0x8f3
 3233 00d2 7573 6244 		.string	"usbDescriptorHidReport"
 3233      6573 6372 
 3233      6970 746F 
 3233      7248 6964 
 3233      5265 706F 
 3234 00e9 A609 0000 		.long	0x9a6
 3235 00ed 7265 706F 		.string	"reportIndex"
 3235      7274 496E 
 3235      6465 7800 
 3236 00f9 B909 0000 		.long	0x9b9
 3237 00fd 5F69 734D 		.string	"_isMultimediaPressed"
 3237      756C 7469 
 3237      6D65 6469 
 3237      6150 7265 
 3237      7373 6564 
 3238 0112 0000 0000 		.long	0x0
 3239               		.section	.debug_aranges,"",@progbits
 3240 0000 1C00 0000 		.long	0x1c
 3241 0004 0200      		.word	0x2
 3242 0006 0000 0000 		.long	.Ldebug_info0
 3243 000a 04        		.byte	0x4
 3244 000b 00        		.byte	0x0
 3245 000c 0000      		.word	0x0
 3246 000e 0000      		.word	0x0
 3247 0010 0000 0000 		.long	.Ltext0
 3248 0014 0E05 0000 		.long	.Letext0-.Ltext0
 3249 0018 0000 0000 		.long	0x0
 3250 001c 0000 0000 		.long	0x0
 3251               		.section	.debug_line
 3252 0000 B205 0000 		.long	.LELT0-.LSLT0
 3253               	.LSLT0:
 3254 0004 0200      		.word	0x2
 3255 0006 A700 0000 		.long	.LELTP0-.LASLTP0
 3256               	.LASLTP0:
 3257 000a 01        		.byte	0x1
 3258 000b 01        		.byte	0x1
 3259 000c F6        		.byte	0xf6
 3260 000d F5        		.byte	0xf5
 3261 000e 0A        		.byte	0xa
 3262 000f 00        		.byte	0x0
 3263 0010 01        		.byte	0x1
GAS LISTING C:\Users\ADMINI~1\AppData\Local\Temp/ccQkgpbR.s 			page 59


 3264 0011 01        		.byte	0x1
 3265 0012 01        		.byte	0x1
 3266 0013 01        		.byte	0x1
 3267 0014 00        		.byte	0x0
 3268 0015 00        		.byte	0x0
 3269 0016 00        		.byte	0x0
 3270 0017 01        		.byte	0x1
 3271 0018 633A 2F77 		.ascii	"c:/winavr-20100110/lib/gcc/../../avr/include"
 3271      696E 6176 
 3271      722D 3230 
 3271      3130 3031 
 3271      3130 2F6C 
 3272 0044 00        		.byte	0
 3273 0045 7573 6264 		.ascii	"usbdrv"
 3273      7276 
 3274 004b 00        		.byte	0
 3275 004c 00        		.byte	0x0
 3276 004d 7573 626D 		.string	"usbmain.c"
 3276      6169 6E2E 
 3276      6300 
 3277 0057 00        		.uleb128 0x0
 3278 0058 00        		.uleb128 0x0
 3279 0059 00        		.uleb128 0x0
 3280 005a 7374 6469 		.string	"stdint.h"
 3280      6E74 2E68 
 3280      00
 3281 0063 01        		.uleb128 0x1
 3282 0064 00        		.uleb128 0x0
 3283 0065 00        		.uleb128 0x0
 3284 0066 7573 6264 		.string	"usbdrv.h"
 3284      7276 2E68 
 3284      00
 3285 006f 02        		.uleb128 0x2
 3286 0070 00        		.uleb128 0x0
 3287 0071 00        		.uleb128 0x0
 3288 0072 6B65 796D 		.string	"keymap.h"
 3288      6170 2E68 
 3288      00
 3289 007b 00        		.uleb128 0x0
 3290 007c 00        		.uleb128 0x0
 3291 007d 00        		.uleb128 0x0
 3292 007e 6861 7264 		.string	"hardwareinfo.h"
 3292      7761 7265 
 3292      696E 666F 
 3292      2E68 00
 3293 008d 00        		.uleb128 0x0
 3294 008e 00        		.uleb128 0x0
 3295 008f 00        		.uleb128 0x0
 3296 0090 6B65 796D 		.string	"keymatrix.h"
 3296      6174 7269 
 3296      782E 6800 
 3297 009c 00        		.uleb128 0x0
 3298 009d 00        		.uleb128 0x0
 3299 009e 00        		.uleb128 0x0
 3300 009f 6D61 6372 		.string	"macrobuffer.h"
 3300      6F62 7566 
 3300      6665 722E 
GAS LISTING C:\Users\ADMINI~1\AppData\Local\Temp/ccQkgpbR.s 			page 60


 3300      6800 
 3301 00ad 00        		.uleb128 0x0
 3302 00ae 00        		.uleb128 0x0
 3303 00af 00        		.uleb128 0x0
 3304 00b0 00        		.byte	0x0
 3305               	.LELTP0:
 3306 00b1 00        		.byte	0x0
 3307 00b2 05        		.uleb128 0x5
 3308 00b3 02        		.byte	0x2
 3309 00b4 0000 0000 		.long	.LM1
 3310 00b8 03        		.byte	0x3
 3311 00b9 CE04      		.sleb128 590
 3312 00bb 01        		.byte	0x1
 3313 00bc 00        		.byte	0x0
 3314 00bd 05        		.uleb128 0x5
 3315 00be 02        		.byte	0x2
 3316 00bf 0000 0000 		.long	.LM2
 3317 00c3 15        		.byte	0x15
 3318 00c4 00        		.byte	0x0
 3319 00c5 05        		.uleb128 0x5
 3320 00c6 02        		.byte	0x2
 3321 00c7 0000 0000 		.long	.LM3
 3322 00cb 15        		.byte	0x15
 3323 00cc 00        		.byte	0x0
 3324 00cd 05        		.uleb128 0x5
 3325 00ce 02        		.byte	0x2
 3326 00cf 0000 0000 		.long	.LM4
 3327 00d3 03        		.byte	0x3
 3328 00d4 F87E      		.sleb128 -136
 3329 00d6 01        		.byte	0x1
 3330 00d7 00        		.byte	0x0
 3331 00d8 05        		.uleb128 0x5
 3332 00d9 02        		.byte	0x2
 3333 00da 0000 0000 		.long	.LM5
 3334 00de 15        		.byte	0x15
 3335 00df 00        		.byte	0x0
 3336 00e0 05        		.uleb128 0x5
 3337 00e1 02        		.byte	0x2
 3338 00e2 0000 0000 		.long	.LM6
 3339 00e6 15        		.byte	0x15
 3340 00e7 00        		.byte	0x0
 3341 00e8 05        		.uleb128 0x5
 3342 00e9 02        		.byte	0x2
 3343 00ea 0000 0000 		.long	.LM7
 3344 00ee 15        		.byte	0x15
 3345 00ef 00        		.byte	0x0
 3346 00f0 05        		.uleb128 0x5
 3347 00f1 02        		.byte	0x2
 3348 00f2 0000 0000 		.long	.LM8
 3349 00f6 03        		.byte	0x3
 3350 00f7 42        		.sleb128 -62
 3351 00f8 01        		.byte	0x1
 3352 00f9 00        		.byte	0x0
 3353 00fa 05        		.uleb128 0x5
 3354 00fb 02        		.byte	0x2
 3355 00fc 0000 0000 		.long	.LM9
 3356 0100 15        		.byte	0x15
GAS LISTING C:\Users\ADMINI~1\AppData\Local\Temp/ccQkgpbR.s 			page 61


 3357 0101 00        		.byte	0x0
 3358 0102 05        		.uleb128 0x5
 3359 0103 02        		.byte	0x2
 3360 0104 0000 0000 		.long	.LM10
 3361 0108 15        		.byte	0x15
 3362 0109 00        		.byte	0x0
 3363 010a 05        		.uleb128 0x5
 3364 010b 02        		.byte	0x2
 3365 010c 0000 0000 		.long	.LM11
 3366 0110 24        		.byte	0x24
 3367 0111 00        		.byte	0x0
 3368 0112 05        		.uleb128 0x5
 3369 0113 02        		.byte	0x2
 3370 0114 0000 0000 		.long	.LM12
 3371 0118 16        		.byte	0x16
 3372 0119 00        		.byte	0x0
 3373 011a 05        		.uleb128 0x5
 3374 011b 02        		.byte	0x2
 3375 011c 0000 0000 		.long	.LM13
 3376 0120 16        		.byte	0x16
 3377 0121 00        		.byte	0x0
 3378 0122 05        		.uleb128 0x5
 3379 0123 02        		.byte	0x2
 3380 0124 0000 0000 		.long	.LM14
 3381 0128 15        		.byte	0x15
 3382 0129 00        		.byte	0x0
 3383 012a 05        		.uleb128 0x5
 3384 012b 02        		.byte	0x2
 3385 012c 0000 0000 		.long	.LM15
 3386 0130 16        		.byte	0x16
 3387 0131 00        		.byte	0x0
 3388 0132 05        		.uleb128 0x5
 3389 0133 02        		.byte	0x2
 3390 0134 0000 0000 		.long	.LM16
 3391 0138 15        		.byte	0x15
 3392 0139 00        		.byte	0x0
 3393 013a 05        		.uleb128 0x5
 3394 013b 02        		.byte	0x2
 3395 013c 0000 0000 		.long	.LM17
 3396 0140 15        		.byte	0x15
 3397 0141 00        		.byte	0x0
 3398 0142 05        		.uleb128 0x5
 3399 0143 02        		.byte	0x2
 3400 0144 0000 0000 		.long	.LM18
 3401 0148 15        		.byte	0x15
 3402 0149 00        		.byte	0x0
 3403 014a 05        		.uleb128 0x5
 3404 014b 02        		.byte	0x2
 3405 014c 0000 0000 		.long	.LM19
 3406 0150 18        		.byte	0x18
 3407 0151 00        		.byte	0x0
 3408 0152 05        		.uleb128 0x5
 3409 0153 02        		.byte	0x2
 3410 0154 0000 0000 		.long	.LM20
 3411 0158 15        		.byte	0x15
 3412 0159 00        		.byte	0x0
 3413 015a 05        		.uleb128 0x5
GAS LISTING C:\Users\ADMINI~1\AppData\Local\Temp/ccQkgpbR.s 			page 62


 3414 015b 02        		.byte	0x2
 3415 015c 0000 0000 		.long	.LM21
 3416 0160 16        		.byte	0x16
 3417 0161 00        		.byte	0x0
 3418 0162 05        		.uleb128 0x5
 3419 0163 02        		.byte	0x2
 3420 0164 0000 0000 		.long	.LM22
 3421 0168 18        		.byte	0x18
 3422 0169 00        		.byte	0x0
 3423 016a 05        		.uleb128 0x5
 3424 016b 02        		.byte	0x2
 3425 016c 0000 0000 		.long	.LM23
 3426 0170 15        		.byte	0x15
 3427 0171 00        		.byte	0x0
 3428 0172 05        		.uleb128 0x5
 3429 0173 02        		.byte	0x2
 3430 0174 0000 0000 		.long	.LM24
 3431 0178 1C        		.byte	0x1c
 3432 0179 00        		.byte	0x0
 3433 017a 05        		.uleb128 0x5
 3434 017b 02        		.byte	0x2
 3435 017c 0000 0000 		.long	.LM25
 3436 0180 15        		.byte	0x15
 3437 0181 00        		.byte	0x0
 3438 0182 05        		.uleb128 0x5
 3439 0183 02        		.byte	0x2
 3440 0184 0000 0000 		.long	.LM26
 3441 0188 16        		.byte	0x16
 3442 0189 00        		.byte	0x0
 3443 018a 05        		.uleb128 0x5
 3444 018b 02        		.byte	0x2
 3445 018c 0000 0000 		.long	.LM27
 3446 0190 15        		.byte	0x15
 3447 0191 00        		.byte	0x0
 3448 0192 05        		.uleb128 0x5
 3449 0193 02        		.byte	0x2
 3450 0194 0000 0000 		.long	.LM28
 3451 0198 19        		.byte	0x19
 3452 0199 00        		.byte	0x0
 3453 019a 05        		.uleb128 0x5
 3454 019b 02        		.byte	0x2
 3455 019c 0000 0000 		.long	.LM29
 3456 01a0 74        		.byte	0x74
 3457 01a1 00        		.byte	0x0
 3458 01a2 05        		.uleb128 0x5
 3459 01a3 02        		.byte	0x2
 3460 01a4 0000 0000 		.long	.LM30
 3461 01a8 15        		.byte	0x15
 3462 01a9 00        		.byte	0x0
 3463 01aa 05        		.uleb128 0x5
 3464 01ab 02        		.byte	0x2
 3465 01ac 0000 0000 		.long	.LM31
 3466 01b0 17        		.byte	0x17
 3467 01b1 00        		.byte	0x0
 3468 01b2 05        		.uleb128 0x5
 3469 01b3 02        		.byte	0x2
 3470 01b4 0000 0000 		.long	.LM32
GAS LISTING C:\Users\ADMINI~1\AppData\Local\Temp/ccQkgpbR.s 			page 63


 3471 01b8 16        		.byte	0x16
 3472 01b9 00        		.byte	0x0
 3473 01ba 05        		.uleb128 0x5
 3474 01bb 02        		.byte	0x2
 3475 01bc 0000 0000 		.long	.LM33
 3476 01c0 17        		.byte	0x17
 3477 01c1 00        		.byte	0x0
 3478 01c2 05        		.uleb128 0x5
 3479 01c3 02        		.byte	0x2
 3480 01c4 0000 0000 		.long	.LM34
 3481 01c8 16        		.byte	0x16
 3482 01c9 00        		.byte	0x0
 3483 01ca 05        		.uleb128 0x5
 3484 01cb 02        		.byte	0x2
 3485 01cc 0000 0000 		.long	.LM35
 3486 01d0 15        		.byte	0x15
 3487 01d1 00        		.byte	0x0
 3488 01d2 05        		.uleb128 0x5
 3489 01d3 02        		.byte	0x2
 3490 01d4 0000 0000 		.long	.LM36
 3491 01d8 1C        		.byte	0x1c
 3492 01d9 00        		.byte	0x0
 3493 01da 05        		.uleb128 0x5
 3494 01db 02        		.byte	0x2
 3495 01dc 0000 0000 		.long	.LM37
 3496 01e0 0E        		.byte	0xe
 3497 01e1 00        		.byte	0x0
 3498 01e2 05        		.uleb128 0x5
 3499 01e3 02        		.byte	0x2
 3500 01e4 0000 0000 		.long	.LM38
 3501 01e8 17        		.byte	0x17
 3502 01e9 00        		.byte	0x0
 3503 01ea 05        		.uleb128 0x5
 3504 01eb 02        		.byte	0x2
 3505 01ec 0000 0000 		.long	.LM39
 3506 01f0 17        		.byte	0x17
 3507 01f1 00        		.byte	0x0
 3508 01f2 05        		.uleb128 0x5
 3509 01f3 02        		.byte	0x2
 3510 01f4 0000 0000 		.long	.LM40
 3511 01f8 15        		.byte	0x15
 3512 01f9 00        		.byte	0x0
 3513 01fa 05        		.uleb128 0x5
 3514 01fb 02        		.byte	0x2
 3515 01fc 0000 0000 		.long	.LM41
 3516 0200 15        		.byte	0x15
 3517 0201 00        		.byte	0x0
 3518 0202 05        		.uleb128 0x5
 3519 0203 02        		.byte	0x2
 3520 0204 0000 0000 		.long	.LM42
 3521 0208 0A        		.byte	0xa
 3522 0209 00        		.byte	0x0
 3523 020a 05        		.uleb128 0x5
 3524 020b 02        		.byte	0x2
 3525 020c 0000 0000 		.long	.LM43
 3526 0210 22        		.byte	0x22
 3527 0211 00        		.byte	0x0
GAS LISTING C:\Users\ADMINI~1\AppData\Local\Temp/ccQkgpbR.s 			page 64


 3528 0212 05        		.uleb128 0x5
 3529 0213 02        		.byte	0x2
 3530 0214 0000 0000 		.long	.LM44
 3531 0218 16        		.byte	0x16
 3532 0219 00        		.byte	0x0
 3533 021a 05        		.uleb128 0x5
 3534 021b 02        		.byte	0x2
 3535 021c 0000 0000 		.long	.LM45
 3536 0220 16        		.byte	0x16
 3537 0221 00        		.byte	0x0
 3538 0222 05        		.uleb128 0x5
 3539 0223 02        		.byte	0x2
 3540 0224 0000 0000 		.long	.LM46
 3541 0228 15        		.byte	0x15
 3542 0229 00        		.byte	0x0
 3543 022a 05        		.uleb128 0x5
 3544 022b 02        		.byte	0x2
 3545 022c 0000 0000 		.long	.LM47
 3546 0230 15        		.byte	0x15
 3547 0231 00        		.byte	0x0
 3548 0232 05        		.uleb128 0x5
 3549 0233 02        		.byte	0x2
 3550 0234 0000 0000 		.long	.LM48
 3551 0238 1A        		.byte	0x1a
 3552 0239 00        		.byte	0x0
 3553 023a 05        		.uleb128 0x5
 3554 023b 02        		.byte	0x2
 3555 023c 0000 0000 		.long	.LM49
 3556 0240 03        		.byte	0x3
 3557 0241 817F      		.sleb128 -127
 3558 0243 01        		.byte	0x1
 3559 0244 00        		.byte	0x0
 3560 0245 05        		.uleb128 0x5
 3561 0246 02        		.byte	0x2
 3562 0247 0000 0000 		.long	.LM50
 3563 024b 18        		.byte	0x18
 3564 024c 00        		.byte	0x0
 3565 024d 05        		.uleb128 0x5
 3566 024e 02        		.byte	0x2
 3567 024f 0000 0000 		.long	.LM51
 3568 0253 17        		.byte	0x17
 3569 0254 00        		.byte	0x0
 3570 0255 05        		.uleb128 0x5
 3571 0256 02        		.byte	0x2
 3572 0257 0000 0000 		.long	.LM52
 3573 025b 17        		.byte	0x17
 3574 025c 00        		.byte	0x0
 3575 025d 05        		.uleb128 0x5
 3576 025e 02        		.byte	0x2
 3577 025f 0000 0000 		.long	.LM53
 3578 0263 15        		.byte	0x15
 3579 0264 00        		.byte	0x0
 3580 0265 05        		.uleb128 0x5
 3581 0266 02        		.byte	0x2
 3582 0267 0000 0000 		.long	.LM54
 3583 026b 1A        		.byte	0x1a
 3584 026c 00        		.byte	0x0
GAS LISTING C:\Users\ADMINI~1\AppData\Local\Temp/ccQkgpbR.s 			page 65


 3585 026d 05        		.uleb128 0x5
 3586 026e 02        		.byte	0x2
 3587 026f 0000 0000 		.long	.LM55
 3588 0273 0E        		.byte	0xe
 3589 0274 00        		.byte	0x0
 3590 0275 05        		.uleb128 0x5
 3591 0276 02        		.byte	0x2
 3592 0277 0000 0000 		.long	.LM56
 3593 027b 1A        		.byte	0x1a
 3594 027c 00        		.byte	0x0
 3595 027d 05        		.uleb128 0x5
 3596 027e 02        		.byte	0x2
 3597 027f 0000 0000 		.long	.LM57
 3598 0283 15        		.byte	0x15
 3599 0284 00        		.byte	0x0
 3600 0285 05        		.uleb128 0x5
 3601 0286 02        		.byte	0x2
 3602 0287 0000 0000 		.long	.LM58
 3603 028b 16        		.byte	0x16
 3604 028c 00        		.byte	0x0
 3605 028d 05        		.uleb128 0x5
 3606 028e 02        		.byte	0x2
 3607 028f 0000 0000 		.long	.LM59
 3608 0293 17        		.byte	0x17
 3609 0294 00        		.byte	0x0
 3610 0295 05        		.uleb128 0x5
 3611 0296 02        		.byte	0x2
 3612 0297 0000 0000 		.long	.LM60
 3613 029b 0E        		.byte	0xe
 3614 029c 00        		.byte	0x0
 3615 029d 05        		.uleb128 0x5
 3616 029e 02        		.byte	0x2
 3617 029f 0000 0000 		.long	.LM61
 3618 02a3 23        		.byte	0x23
 3619 02a4 00        		.byte	0x0
 3620 02a5 05        		.uleb128 0x5
 3621 02a6 02        		.byte	0x2
 3622 02a7 0000 0000 		.long	.LM62
 3623 02ab 15        		.byte	0x15
 3624 02ac 00        		.byte	0x0
 3625 02ad 05        		.uleb128 0x5
 3626 02ae 02        		.byte	0x2
 3627 02af 0000 0000 		.long	.LM63
 3628 02b3 16        		.byte	0x16
 3629 02b4 00        		.byte	0x0
 3630 02b5 05        		.uleb128 0x5
 3631 02b6 02        		.byte	0x2
 3632 02b7 0000 0000 		.long	.LM64
 3633 02bb 15        		.byte	0x15
 3634 02bc 00        		.byte	0x0
 3635 02bd 05        		.uleb128 0x5
 3636 02be 02        		.byte	0x2
 3637 02bf 0000 0000 		.long	.LM65
 3638 02c3 18        		.byte	0x18
 3639 02c4 00        		.byte	0x0
 3640 02c5 05        		.uleb128 0x5
 3641 02c6 02        		.byte	0x2
GAS LISTING C:\Users\ADMINI~1\AppData\Local\Temp/ccQkgpbR.s 			page 66


 3642 02c7 0000 0000 		.long	.LM66
 3643 02cb 19        		.byte	0x19
 3644 02cc 00        		.byte	0x0
 3645 02cd 05        		.uleb128 0x5
 3646 02ce 02        		.byte	0x2
 3647 02cf 0000 0000 		.long	.LM67
 3648 02d3 15        		.byte	0x15
 3649 02d4 00        		.byte	0x0
 3650 02d5 05        		.uleb128 0x5
 3651 02d6 02        		.byte	0x2
 3652 02d7 0000 0000 		.long	.LM68
 3653 02db 15        		.byte	0x15
 3654 02dc 00        		.byte	0x0
 3655 02dd 05        		.uleb128 0x5
 3656 02de 02        		.byte	0x2
 3657 02df 0000 0000 		.long	.LM69
 3658 02e3 16        		.byte	0x16
 3659 02e4 00        		.byte	0x0
 3660 02e5 05        		.uleb128 0x5
 3661 02e6 02        		.byte	0x2
 3662 02e7 0000 0000 		.long	.LM70
 3663 02eb 1C        		.byte	0x1c
 3664 02ec 00        		.byte	0x0
 3665 02ed 05        		.uleb128 0x5
 3666 02ee 02        		.byte	0x2
 3667 02ef 0000 0000 		.long	.LM71
 3668 02f3 18        		.byte	0x18
 3669 02f4 00        		.byte	0x0
 3670 02f5 05        		.uleb128 0x5
 3671 02f6 02        		.byte	0x2
 3672 02f7 0000 0000 		.long	.LM72
 3673 02fb 16        		.byte	0x16
 3674 02fc 00        		.byte	0x0
 3675 02fd 05        		.uleb128 0x5
 3676 02fe 02        		.byte	0x2
 3677 02ff 0000 0000 		.long	.LM73
 3678 0303 03        		.byte	0x3
 3679 0304 4F        		.sleb128 -49
 3680 0305 01        		.byte	0x1
 3681 0306 00        		.byte	0x0
 3682 0307 05        		.uleb128 0x5
 3683 0308 02        		.byte	0x2
 3684 0309 0000 0000 		.long	.LM74
 3685 030d 13        		.byte	0x13
 3686 030e 00        		.byte	0x0
 3687 030f 05        		.uleb128 0x5
 3688 0310 02        		.byte	0x2
 3689 0311 0000 0000 		.long	.LM75
 3690 0315 18        		.byte	0x18
 3691 0316 00        		.byte	0x0
 3692 0317 05        		.uleb128 0x5
 3693 0318 02        		.byte	0x2
 3694 0319 0000 0000 		.long	.LM76
 3695 031d 49        		.byte	0x49
 3696 031e 00        		.byte	0x0
 3697 031f 05        		.uleb128 0x5
 3698 0320 02        		.byte	0x2
GAS LISTING C:\Users\ADMINI~1\AppData\Local\Temp/ccQkgpbR.s 			page 67


 3699 0321 0000 0000 		.long	.LM77
 3700 0325 15        		.byte	0x15
 3701 0326 00        		.byte	0x0
 3702 0327 05        		.uleb128 0x5
 3703 0328 02        		.byte	0x2
 3704 0329 0000 0000 		.long	.LM78
 3705 032d 15        		.byte	0x15
 3706 032e 00        		.byte	0x0
 3707 032f 05        		.uleb128 0x5
 3708 0330 02        		.byte	0x2
 3709 0331 0000 0000 		.long	.LM79
 3710 0335 15        		.byte	0x15
 3711 0336 00        		.byte	0x0
 3712 0337 05        		.uleb128 0x5
 3713 0338 02        		.byte	0x2
 3714 0339 0000 0000 		.long	.LM80
 3715 033d 15        		.byte	0x15
 3716 033e 00        		.byte	0x0
 3717 033f 05        		.uleb128 0x5
 3718 0340 02        		.byte	0x2
 3719 0341 0000 0000 		.long	.LM81
 3720 0345 1A        		.byte	0x1a
 3721 0346 00        		.byte	0x0
 3722 0347 05        		.uleb128 0x5
 3723 0348 02        		.byte	0x2
 3724 0349 0000 0000 		.long	.LM82
 3725 034d 13        		.byte	0x13
 3726 034e 00        		.byte	0x0
 3727 034f 05        		.uleb128 0x5
 3728 0350 02        		.byte	0x2
 3729 0351 0000 0000 		.long	.LM83
 3730 0355 17        		.byte	0x17
 3731 0356 00        		.byte	0x0
 3732 0357 05        		.uleb128 0x5
 3733 0358 02        		.byte	0x2
 3734 0359 0000 0000 		.long	.LM84
 3735 035d 0F        		.byte	0xf
 3736 035e 00        		.byte	0x0
 3737 035f 05        		.uleb128 0x5
 3738 0360 02        		.byte	0x2
 3739 0361 0000 0000 		.long	.LM85
 3740 0365 1B        		.byte	0x1b
 3741 0366 00        		.byte	0x0
 3742 0367 05        		.uleb128 0x5
 3743 0368 02        		.byte	0x2
 3744 0369 0000 0000 		.long	.LM86
 3745 036d 15        		.byte	0x15
 3746 036e 00        		.byte	0x0
 3747 036f 05        		.uleb128 0x5
 3748 0370 02        		.byte	0x2
 3749 0371 0000 0000 		.long	.LM87
 3750 0375 13        		.byte	0x13
 3751 0376 00        		.byte	0x0
 3752 0377 05        		.uleb128 0x5
 3753 0378 02        		.byte	0x2
 3754 0379 0000 0000 		.long	.LM88
 3755 037d 4A        		.byte	0x4a
GAS LISTING C:\Users\ADMINI~1\AppData\Local\Temp/ccQkgpbR.s 			page 68


 3756 037e 00        		.byte	0x0
 3757 037f 05        		.uleb128 0x5
 3758 0380 02        		.byte	0x2
 3759 0381 0000 0000 		.long	.LM89
 3760 0385 16        		.byte	0x16
 3761 0386 00        		.byte	0x0
 3762 0387 05        		.uleb128 0x5
 3763 0388 02        		.byte	0x2
 3764 0389 0000 0000 		.long	.LM90
 3765 038d 1B        		.byte	0x1b
 3766 038e 00        		.byte	0x0
 3767 038f 05        		.uleb128 0x5
 3768 0390 02        		.byte	0x2
 3769 0391 0000 0000 		.long	.LM91
 3770 0395 2B        		.byte	0x2b
 3771 0396 00        		.byte	0x0
 3772 0397 05        		.uleb128 0x5
 3773 0398 02        		.byte	0x2
 3774 0399 0000 0000 		.long	.LM92
 3775 039d 03        		.byte	0x3
 3776 039e 70        		.sleb128 -16
 3777 039f 01        		.byte	0x1
 3778 03a0 00        		.byte	0x0
 3779 03a1 05        		.uleb128 0x5
 3780 03a2 02        		.byte	0x2
 3781 03a3 0000 0000 		.long	.LM93
 3782 03a7 16        		.byte	0x16
 3783 03a8 00        		.byte	0x0
 3784 03a9 05        		.uleb128 0x5
 3785 03aa 02        		.byte	0x2
 3786 03ab 0000 0000 		.long	.LM94
 3787 03af 5B        		.byte	0x5b
 3788 03b0 00        		.byte	0x0
 3789 03b1 05        		.uleb128 0x5
 3790 03b2 02        		.byte	0x2
 3791 03b3 0000 0000 		.long	.LM95
 3792 03b7 17        		.byte	0x17
 3793 03b8 00        		.byte	0x0
 3794 03b9 05        		.uleb128 0x5
 3795 03ba 02        		.byte	0x2
 3796 03bb 0000 0000 		.long	.LM96
 3797 03bf 03        		.byte	0x3
 3798 03c0 BC7F      		.sleb128 -68
 3799 03c2 01        		.byte	0x1
 3800 03c3 00        		.byte	0x0
 3801 03c4 05        		.uleb128 0x5
 3802 03c5 02        		.byte	0x2
 3803 03c6 0000 0000 		.long	.LM97
 3804 03ca 16        		.byte	0x16
 3805 03cb 00        		.byte	0x0
 3806 03cc 05        		.uleb128 0x5
 3807 03cd 02        		.byte	0x2
 3808 03ce 0000 0000 		.long	.LM98
 3809 03d2 16        		.byte	0x16
 3810 03d3 00        		.byte	0x0
 3811 03d4 05        		.uleb128 0x5
 3812 03d5 02        		.byte	0x2
GAS LISTING C:\Users\ADMINI~1\AppData\Local\Temp/ccQkgpbR.s 			page 69


 3813 03d6 0000 0000 		.long	.LM99
 3814 03da 17        		.byte	0x17
 3815 03db 00        		.byte	0x0
 3816 03dc 05        		.uleb128 0x5
 3817 03dd 02        		.byte	0x2
 3818 03de 0000 0000 		.long	.LM100
 3819 03e2 15        		.byte	0x15
 3820 03e3 00        		.byte	0x0
 3821 03e4 05        		.uleb128 0x5
 3822 03e5 02        		.byte	0x2
 3823 03e6 0000 0000 		.long	.LM101
 3824 03ea 15        		.byte	0x15
 3825 03eb 00        		.byte	0x0
 3826 03ec 05        		.uleb128 0x5
 3827 03ed 02        		.byte	0x2
 3828 03ee 0000 0000 		.long	.LM102
 3829 03f2 15        		.byte	0x15
 3830 03f3 00        		.byte	0x0
 3831 03f4 05        		.uleb128 0x5
 3832 03f5 02        		.byte	0x2
 3833 03f6 0000 0000 		.long	.LM103
 3834 03fa 15        		.byte	0x15
 3835 03fb 00        		.byte	0x0
 3836 03fc 05        		.uleb128 0x5
 3837 03fd 02        		.byte	0x2
 3838 03fe 0000 0000 		.long	.LM104
 3839 0402 1C        		.byte	0x1c
 3840 0403 00        		.byte	0x0
 3841 0404 05        		.uleb128 0x5
 3842 0405 02        		.byte	0x2
 3843 0406 0000 0000 		.long	.LM105
 3844 040a 18        		.byte	0x18
 3845 040b 00        		.byte	0x0
 3846 040c 05        		.uleb128 0x5
 3847 040d 02        		.byte	0x2
 3848 040e 0000 0000 		.long	.LM106
 3849 0412 15        		.byte	0x15
 3850 0413 00        		.byte	0x0
 3851 0414 05        		.uleb128 0x5
 3852 0415 02        		.byte	0x2
 3853 0416 0000 0000 		.long	.LM107
 3854 041a 15        		.byte	0x15
 3855 041b 00        		.byte	0x0
 3856 041c 05        		.uleb128 0x5
 3857 041d 02        		.byte	0x2
 3858 041e 0000 0000 		.long	.LM108
 3859 0422 15        		.byte	0x15
 3860 0423 00        		.byte	0x0
 3861 0424 05        		.uleb128 0x5
 3862 0425 02        		.byte	0x2
 3863 0426 0000 0000 		.long	.LM109
 3864 042a 15        		.byte	0x15
 3865 042b 00        		.byte	0x0
 3866 042c 05        		.uleb128 0x5
 3867 042d 02        		.byte	0x2
 3868 042e 0000 0000 		.long	.LM110
 3869 0432 19        		.byte	0x19
GAS LISTING C:\Users\ADMINI~1\AppData\Local\Temp/ccQkgpbR.s 			page 70


 3870 0433 00        		.byte	0x0
 3871 0434 05        		.uleb128 0x5
 3872 0435 02        		.byte	0x2
 3873 0436 0000 0000 		.long	.LM111
 3874 043a 15        		.byte	0x15
 3875 043b 00        		.byte	0x0
 3876 043c 05        		.uleb128 0x5
 3877 043d 02        		.byte	0x2
 3878 043e 0000 0000 		.long	.LM112
 3879 0442 15        		.byte	0x15
 3880 0443 00        		.byte	0x0
 3881 0444 05        		.uleb128 0x5
 3882 0445 02        		.byte	0x2
 3883 0446 0000 0000 		.long	.LM113
 3884 044a 16        		.byte	0x16
 3885 044b 00        		.byte	0x0
 3886 044c 05        		.uleb128 0x5
 3887 044d 02        		.byte	0x2
 3888 044e 0000 0000 		.long	.LM114
 3889 0452 15        		.byte	0x15
 3890 0453 00        		.byte	0x0
 3891 0454 05        		.uleb128 0x5
 3892 0455 02        		.byte	0x2
 3893 0456 0000 0000 		.long	.LM115
 3894 045a 15        		.byte	0x15
 3895 045b 00        		.byte	0x0
 3896 045c 05        		.uleb128 0x5
 3897 045d 02        		.byte	0x2
 3898 045e 0000 0000 		.long	.LM116
 3899 0462 16        		.byte	0x16
 3900 0463 00        		.byte	0x0
 3901 0464 05        		.uleb128 0x5
 3902 0465 02        		.byte	0x2
 3903 0466 0000 0000 		.long	.LM117
 3904 046a 15        		.byte	0x15
 3905 046b 00        		.byte	0x0
 3906 046c 05        		.uleb128 0x5
 3907 046d 02        		.byte	0x2
 3908 046e 0000 0000 		.long	.LM118
 3909 0472 16        		.byte	0x16
 3910 0473 00        		.byte	0x0
 3911 0474 05        		.uleb128 0x5
 3912 0475 02        		.byte	0x2
 3913 0476 0000 0000 		.long	.LM119
 3914 047a 1B        		.byte	0x1b
 3915 047b 00        		.byte	0x0
 3916 047c 05        		.uleb128 0x5
 3917 047d 02        		.byte	0x2
 3918 047e 0000 0000 		.long	.LM120
 3919 0482 17        		.byte	0x17
 3920 0483 00        		.byte	0x0
 3921 0484 05        		.uleb128 0x5
 3922 0485 02        		.byte	0x2
 3923 0486 0000 0000 		.long	.LM121
 3924 048a 16        		.byte	0x16
 3925 048b 00        		.byte	0x0
 3926 048c 05        		.uleb128 0x5
GAS LISTING C:\Users\ADMINI~1\AppData\Local\Temp/ccQkgpbR.s 			page 71


 3927 048d 02        		.byte	0x2
 3928 048e 0000 0000 		.long	.LM122
 3929 0492 16        		.byte	0x16
 3930 0493 00        		.byte	0x0
 3931 0494 05        		.uleb128 0x5
 3932 0495 02        		.byte	0x2
 3933 0496 0000 0000 		.long	.LM123
 3934 049a 16        		.byte	0x16
 3935 049b 00        		.byte	0x0
 3936 049c 05        		.uleb128 0x5
 3937 049d 02        		.byte	0x2
 3938 049e 0000 0000 		.long	.LM124
 3939 04a2 03        		.byte	0x3
 3940 04a3 B67F      		.sleb128 -74
 3941 04a5 01        		.byte	0x1
 3942 04a6 00        		.byte	0x0
 3943 04a7 05        		.uleb128 0x5
 3944 04a8 02        		.byte	0x2
 3945 04a9 0000 0000 		.long	.LM125
 3946 04ad 03        		.byte	0x3
 3947 04ae A67E      		.sleb128 -218
 3948 04b0 01        		.byte	0x1
 3949 04b1 00        		.byte	0x0
 3950 04b2 05        		.uleb128 0x5
 3951 04b3 02        		.byte	0x2
 3952 04b4 0000 0000 		.long	.LM126
 3953 04b8 15        		.byte	0x15
 3954 04b9 00        		.byte	0x0
 3955 04ba 05        		.uleb128 0x5
 3956 04bb 02        		.byte	0x2
 3957 04bc 0000 0000 		.long	.LM127
 3958 04c0 15        		.byte	0x15
 3959 04c1 00        		.byte	0x0
 3960 04c2 05        		.uleb128 0x5
 3961 04c3 02        		.byte	0x2
 3962 04c4 0000 0000 		.long	.LM128
 3963 04c8 15        		.byte	0x15
 3964 04c9 00        		.byte	0x0
 3965 04ca 05        		.uleb128 0x5
 3966 04cb 02        		.byte	0x2
 3967 04cc 0000 0000 		.long	.LM129
 3968 04d0 15        		.byte	0x15
 3969 04d1 00        		.byte	0x0
 3970 04d2 05        		.uleb128 0x5
 3971 04d3 02        		.byte	0x2
 3972 04d4 0000 0000 		.long	.LM130
 3973 04d8 03        		.byte	0x3
 3974 04d9 B17F      		.sleb128 -79
 3975 04db 01        		.byte	0x1
 3976 04dc 00        		.byte	0x0
 3977 04dd 05        		.uleb128 0x5
 3978 04de 02        		.byte	0x2
 3979 04df 0000 0000 		.long	.LM131
 3980 04e3 16        		.byte	0x16
 3981 04e4 00        		.byte	0x0
 3982 04e5 05        		.uleb128 0x5
 3983 04e6 02        		.byte	0x2
GAS LISTING C:\Users\ADMINI~1\AppData\Local\Temp/ccQkgpbR.s 			page 72


 3984 04e7 0000 0000 		.long	.LM132
 3985 04eb 16        		.byte	0x16
 3986 04ec 00        		.byte	0x0
 3987 04ed 05        		.uleb128 0x5
 3988 04ee 02        		.byte	0x2
 3989 04ef 0000 0000 		.long	.LM133
 3990 04f3 15        		.byte	0x15
 3991 04f4 00        		.byte	0x0
 3992 04f5 05        		.uleb128 0x5
 3993 04f6 02        		.byte	0x2
 3994 04f7 0000 0000 		.long	.LM134
 3995 04fb 18        		.byte	0x18
 3996 04fc 00        		.byte	0x0
 3997 04fd 05        		.uleb128 0x5
 3998 04fe 02        		.byte	0x2
 3999 04ff 0000 0000 		.long	.LM135
 4000 0503 19        		.byte	0x19
 4001 0504 00        		.byte	0x0
 4002 0505 05        		.uleb128 0x5
 4003 0506 02        		.byte	0x2
 4004 0507 0000 0000 		.long	.LM136
 4005 050b 19        		.byte	0x19
 4006 050c 00        		.byte	0x0
 4007 050d 05        		.uleb128 0x5
 4008 050e 02        		.byte	0x2
 4009 050f 0000 0000 		.long	.LM137
 4010 0513 18        		.byte	0x18
 4011 0514 00        		.byte	0x0
 4012 0515 05        		.uleb128 0x5
 4013 0516 02        		.byte	0x2
 4014 0517 0000 0000 		.long	.LM138
 4015 051b 16        		.byte	0x16
 4016 051c 00        		.byte	0x0
 4017 051d 05        		.uleb128 0x5
 4018 051e 02        		.byte	0x2
 4019 051f 0000 0000 		.long	.LM139
 4020 0523 17        		.byte	0x17
 4021 0524 00        		.byte	0x0
 4022 0525 05        		.uleb128 0x5
 4023 0526 02        		.byte	0x2
 4024 0527 0000 0000 		.long	.LM140
 4025 052b 15        		.byte	0x15
 4026 052c 00        		.byte	0x0
 4027 052d 05        		.uleb128 0x5
 4028 052e 02        		.byte	0x2
 4029 052f 0000 0000 		.long	.LM141
 4030 0533 16        		.byte	0x16
 4031 0534 00        		.byte	0x0
 4032 0535 05        		.uleb128 0x5
 4033 0536 02        		.byte	0x2
 4034 0537 0000 0000 		.long	.LM142
 4035 053b 17        		.byte	0x17
 4036 053c 00        		.byte	0x0
 4037 053d 05        		.uleb128 0x5
 4038 053e 02        		.byte	0x2
 4039 053f 0000 0000 		.long	.LM143
 4040 0543 16        		.byte	0x16
GAS LISTING C:\Users\ADMINI~1\AppData\Local\Temp/ccQkgpbR.s 			page 73


 4041 0544 00        		.byte	0x0
 4042 0545 05        		.uleb128 0x5
 4043 0546 02        		.byte	0x2
 4044 0547 0000 0000 		.long	.LM144
 4045 054b 15        		.byte	0x15
 4046 054c 00        		.byte	0x0
 4047 054d 05        		.uleb128 0x5
 4048 054e 02        		.byte	0x2
 4049 054f 0000 0000 		.long	.LM145
 4050 0553 15        		.byte	0x15
 4051 0554 00        		.byte	0x0
 4052 0555 05        		.uleb128 0x5
 4053 0556 02        		.byte	0x2
 4054 0557 0000 0000 		.long	.LM146
 4055 055b 15        		.byte	0x15
 4056 055c 00        		.byte	0x0
 4057 055d 05        		.uleb128 0x5
 4058 055e 02        		.byte	0x2
 4059 055f 0000 0000 		.long	.LM147
 4060 0563 16        		.byte	0x16
 4061 0564 00        		.byte	0x0
 4062 0565 05        		.uleb128 0x5
 4063 0566 02        		.byte	0x2
 4064 0567 0000 0000 		.long	.LM148
 4065 056b 15        		.byte	0x15
 4066 056c 00        		.byte	0x0
 4067 056d 05        		.uleb128 0x5
 4068 056e 02        		.byte	0x2
 4069 056f 0000 0000 		.long	.LM149
 4070 0573 15        		.byte	0x15
 4071 0574 00        		.byte	0x0
 4072 0575 05        		.uleb128 0x5
 4073 0576 02        		.byte	0x2
 4074 0577 0000 0000 		.long	.LM150
 4075 057b 1B        		.byte	0x1b
 4076 057c 00        		.byte	0x0
 4077 057d 05        		.uleb128 0x5
 4078 057e 02        		.byte	0x2
 4079 057f 0000 0000 		.long	.LM151
 4080 0583 1F        		.byte	0x1f
 4081 0584 00        		.byte	0x0
 4082 0585 05        		.uleb128 0x5
 4083 0586 02        		.byte	0x2
 4084 0587 0000 0000 		.long	.LM152
 4085 058b 18        		.byte	0x18
 4086 058c 00        		.byte	0x0
 4087 058d 05        		.uleb128 0x5
 4088 058e 02        		.byte	0x2
 4089 058f 0000 0000 		.long	.LM153
 4090 0593 16        		.byte	0x16
 4091 0594 00        		.byte	0x0
 4092 0595 05        		.uleb128 0x5
 4093 0596 02        		.byte	0x2
 4094 0597 0000 0000 		.long	.LM154
 4095 059b 15        		.byte	0x15
 4096 059c 00        		.byte	0x0
 4097 059d 05        		.uleb128 0x5
GAS LISTING C:\Users\ADMINI~1\AppData\Local\Temp/ccQkgpbR.s 			page 74


 4098 059e 02        		.byte	0x2
 4099 059f 0000 0000 		.long	.LM155
 4100 05a3 16        		.byte	0x16
 4101 05a4 00        		.byte	0x0
 4102 05a5 05        		.uleb128 0x5
 4103 05a6 02        		.byte	0x2
 4104 05a7 0000 0000 		.long	.LM156
 4105 05ab 16        		.byte	0x16
 4106 05ac 00        		.byte	0x0
 4107 05ad 05        		.uleb128 0x5
 4108 05ae 02        		.byte	0x2
 4109 05af 0000 0000 		.long	.Letext0
 4110 05b3 00        		.byte	0x0
 4111 05b4 01        		.uleb128 0x1
 4112 05b5 01        		.byte	0x1
 4113               	.LELT0:
 4114 05b6 1600 0000 		.section	.debug_str,"MS",@progbits,1
 4114      0200 1000 
 4114      0000 0101 
 4114      FB0E 0A00 
 4114      0101 0101 
 4115               	.LASF116:
 4116 0000 4B45 595F 		.string	"KEY_LSHIFT"
 4116      4C53 4849 
 4116      4654 00
 4117               	.LASF211:
 4118 000b 7265 706F 		.string	"reportIndex"
 4118      7274 496E 
 4118      6465 7800 
 4119               	.LASF162:
 4120 0017 7573 6252 		.string	"usbRequest"
 4120      6571 7565 
 4120      7374 00
 4121               	.LASF68:
 4122 0022 4B45 595F 		.string	"KEY_SLASH"
 4122      534C 4153 
 4122      4800 
 4123               	.LASF139:
 4124 002c 4B45 595F 		.string	"KEY_PLAY"
 4124      504C 4159 
 4124      00
 4125               	.LASF190:
 4126 0035 7573 6246 		.string	"usbFunctionWrite"
 4126      756E 6374 
 4126      696F 6E57 
 4126      7269 7465 
 4126      00
 4127               	.LASF95:
 4128 0046 4B45 595F 		.string	"KEY_NUMLOCK"
 4128      4E55 4D4C 
 4128      4F43 4B00 
 4129               	.LASF147:
 4130 0052 4B45 595F 		.string	"KEY_REC"
 4130      5245 4300 
 4131               	.LASF115:
 4132 005a 4B45 595F 		.string	"KEY_LCTRL"
 4132      4C43 5452 
GAS LISTING C:\Users\ADMINI~1\AppData\Local\Temp/ccQkgpbR.s 			page 75


 4132      4C00 
 4133               	.LASF79:
 4134 0064 4B45 595F 		.string	"KEY_F10"
 4134      4631 3000 
 4135               	.LASF80:
 4136 006c 4B45 595F 		.string	"KEY_F11"
 4136      4631 3100 
 4137               	.LASF81:
 4138 0074 4B45 595F 		.string	"KEY_F12"
 4138      4631 3200 
 4139               	.LASF205:
 4140 007c 494E 5445 		.string	"INTERFACE"
 4140      5246 4143 
 4140      4500 
 4141               	.LASF181:
 4142 0086 7072 6576 		.string	"prev"
 4142      00
 4143               	.LASF194:
 4144 008b 6578 7065 		.string	"expectReport"
 4144      6374 5265 
 4144      706F 7274 
 4144      00
 4145               	.LASF111:
 4146 0098 4B45 595F 		.string	"KEY_KP_DOT"
 4146      4B50 5F44 
 4146      4F54 00
 4147               	.LASF138:
 4148 00a3 4B45 595F 		.string	"KEY_STOP"
 4148      5354 4F50 
 4148      00
 4149               	.LASF215:
 4150 00ac 443A 5C67 		.string	"D:\\git2\\ps2avrU\\.git\\source"
 4150      6974 325C 
 4150      7073 3261 
 4150      7672 555C 
 4150      2E67 6974 
 4151               	.LASF171:
 4152 00c8 7265 7476 		.string	"retval"
 4152      616C 00
 4153               	.LASF89:
 4154 00cf 4B45 595F 		.string	"KEY_END"
 4154      454E 4400 
 4155               	.LASF6:
 4156 00d7 6C6F 6E67 		.string	"long long unsigned int"
 4156      206C 6F6E 
 4156      6720 756E 
 4156      7369 676E 
 4156      6564 2069 
 4157               	.LASF54:
 4158 00ee 4B45 595F 		.string	"KEY_BKSP"
 4158      424B 5350 
 4158      00
 4159               	.LASF88:
 4160 00f7 4B45 595F 		.string	"KEY_DEL"
 4160      4445 4C00 
 4161               	.LASF169:
 4162 00ff 636C 6561 		.string	"clearReportBuffer"
GAS LISTING C:\Users\ADMINI~1\AppData\Local\Temp/ccQkgpbR.s 			page 76


 4162      7252 6570 
 4162      6F72 7442 
 4162      7566 6665 
 4162      7200 
 4163               	.LASF185:
 4164 0111 7570 6461 		.string	"updateNeeded"
 4164      7465 4E65 
 4164      6564 6564 
 4164      00
 4165               	.LASF168:
 4166 011e 7573 6252 		.string	"usbRequest_t"
 4166      6571 7565 
 4166      7374 5F74 
 4166      00
 4167               	.LASF137:
 4168 012b 4B45 595F 		.string	"KEY_PREV_TRK"
 4168      5052 4556 
 4168      5F54 524B 
 4168      00
 4169               	.LASF63:
 4170 0138 4B45 595F 		.string	"KEY_COLON"
 4170      434F 4C4F 
 4170      4E00 
 4171               	.LASF125:
 4172 0142 4B45 595F 		.string	"KEY_POWER"
 4172      504F 5745 
 4172      5200 
 4173               	.LASF13:
 4174 014c 4B45 595F 		.string	"KEY_ErrorRollOver"
 4174      4572 726F 
 4174      7252 6F6C 
 4174      6C4F 7665 
 4174      7200 
 4175               	.LASF143:
 4176 015e 4B45 595F 		.string	"KEY_MEDIA"
 4176      4D45 4449 
 4176      4100 
 4177               	.LASF7:
 4178 0168 6C6F 6E67 		.string	"long long int"
 4178      206C 6F6E 
 4178      6720 696E 
 4178      7400 
 4179               	.LASF1:
 4180 0176 7369 676E 		.string	"signed char"
 4180      6564 2063 
 4180      6861 7200 
 4181               	.LASF98:
 4182 0182 4B45 595F 		.string	"KEY_KP_MINUS"
 4182      4B50 5F4D 
 4182      494E 5553 
 4182      00
 4183               	.LASF183:
 4184 018f 674B 6579 		.string	"gKeymapping"
 4184      6D61 7070 
 4184      696E 6700 
 4185               	.LASF172:
 4186 019b 674B 6579 		.string	"gKeyidxMulti"
GAS LISTING C:\Users\ADMINI~1\AppData\Local\Temp/ccQkgpbR.s 			page 77


 4186      6964 784D 
 4186      756C 7469 
 4186      00
 4187               	.LASF141:
 4188 01a8 4B45 595F 		.string	"KEY_VOL_UP"
 4188      564F 4C5F 
 4188      5550 00
 4189               	.LASF198:
 4190 01b3 6B65 7963 		.string	"keycode_USB_multimedia"
 4190      6F64 655F 
 4190      5553 425F 
 4190      6D75 6C74 
 4190      696D 6564 
 4191               	.LASF160:
 4192 01ca 7573 6257 		.string	"usbWord_t"
 4192      6F72 645F 
 4192      7400 
 4193               	.LASF212:
 4194 01d4 5F69 734D 		.string	"_isMultimediaPressed"
 4194      756C 7469 
 4194      6D65 6469 
 4194      6150 7265 
 4194      7373 6564 
 4195               	.LASF60:
 4196 01e9 4B45 595F 		.string	"KEY_RBR"
 4196      5242 5200 
 4197               	.LASF135:
 4198 01f1 4B45 595F 		.string	"KEY_WWW_FAVORITE"
 4198      5757 575F 
 4198      4641 564F 
 4198      5249 5445 
 4198      00
 4199               	.LASF5:
 4200 0202 6C6F 6E67 		.string	"long int"
 4200      2069 6E74 
 4200      00
 4201               	.LASF131:
 4202 020b 4B45 595F 		.string	"KEY_WWW_BACK"
 4202      5757 575F 
 4202      4241 434B 
 4202      00
 4203               	.LASF62:
 4204 0218 4B45 595F 		.string	"KEY_Europe1"
 4204      4575 726F 
 4204      7065 3100 
 4205               	.LASF112:
 4206 0224 4B45 595F 		.string	"KEY_Europe2"
 4206      4575 726F 
 4206      7065 3200 
 4207               	.LASF96:
 4208 0230 4B45 595F 		.string	"KEY_KP_SLASH"
 4208      4B50 5F53 
 4208      4C41 5348 
 4208      00
 4209               	.LASF91:
 4210 023d 4B45 595F 		.string	"KEY_RIGHT"
 4210      5249 4748 
GAS LISTING C:\Users\ADMINI~1\AppData\Local\Temp/ccQkgpbR.s 			page 78


 4210      5400 
 4211               	.LASF165:
 4212 0247 7756 616C 		.string	"wValue"
 4212      7565 00
 4213               	.LASF65:
 4214 024e 4B45 595F 		.string	"KEY_HASH"
 4214      4841 5348 
 4214      00
 4215               	.LASF121:
 4216 0257 4B45 595F 		.string	"KEY_RALT"
 4216      5241 4C54 
 4216      00
 4217               	.LASF11:
 4218 0260 7569 6E74 		.string	"uint16_t"
 4218      3136 5F74 
 4218      00
 4219               	.LASF134:
 4220 0269 4B45 595F 		.string	"KEY_WWW_REFRESH"
 4220      5757 575F 
 4220      5245 4652 
 4220      4553 4800 
 4221               	.LASF156:
 4222 0279 6275 6666 		.string	"buffer"
 4222      6572 00
 4223               	.LASF176:
 4224 0280 7363 616E 		.string	"scanMacroUsb"
 4224      4D61 6372 
 4224      6F55 7362 
 4224      00
 4225               	.LASF174:
 4226 028d 5F5F 7265 		.string	"__result"
 4226      7375 6C74 
 4226      00
 4227               	.LASF59:
 4228 0296 4B45 595F 		.string	"KEY_LBR"
 4228      4C42 5200 
 4229               	.LASF186:
 4230 029e 6964 6C65 		.string	"idleCounter"
 4230      436F 756E 
 4230      7465 7200 
 4231               	.LASF85:
 4232 02aa 4B45 595F 		.string	"KEY_INSERT"
 4232      494E 5345 
 4232      5254 00
 4233               	.LASF161:
 4234 02b5 7573 6254 		.string	"usbTxStatus"
 4234      7853 7461 
 4234      7475 7300 
 4235               	.LASF175:
 4236 02c1 6D61 6B65 		.string	"makeReportBuffer"
 4236      5265 706F 
 4236      7274 4275 
 4236      6666 6572 
 4236      00
 4237               	.LASF163:
 4238 02d2 626D 5265 		.string	"bmRequestType"
 4238      7175 6573 
GAS LISTING C:\Users\ADMINI~1\AppData\Local\Temp/ccQkgpbR.s 			page 79


 4238      7454 7970 
 4238      6500 
 4239               	.LASF213:
 4240 02e0 474E 5520 		.string	"GNU C 4.3.3"
 4240      4320 342E 
 4240      332E 3300 
 4241               	.LASF82:
 4242 02ec 4B45 595F 		.string	"KEY_PRNSCR"
 4242      5052 4E53 
 4242      4352 00
 4243               	.LASF90:
 4244 02f7 4B45 595F 		.string	"KEY_PGDN"
 4244      5047 444E 
 4244      00
 4245               	.LASF122:
 4246 0300 4B45 595F 		.string	"KEY_RGUI"
 4246      5247 5549 
 4246      00
 4247               	.LASF130:
 4248 0309 4B45 595F 		.string	"KEY_WWW_HOME"
 4248      5757 575F 
 4248      484F 4D45 
 4248      00
 4249               	.LASF8:
 4250 0316 756E 7369 		.string	"unsigned int"
 4250      676E 6564 
 4250      2069 6E74 
 4250      00
 4251               	.LASF193:
 4252 0323 7072 6F74 		.string	"protocolVer"
 4252      6F63 6F6C 
 4252      5665 7200 
 4253               	.LASF177:
 4254 032f 6749 6478 		.string	"gIdx"
 4254      00
 4255               	.LASF120:
 4256 0334 4B45 595F 		.string	"KEY_RSHIFT"
 4256      5253 4849 
 4256      4654 00
 4257               	.LASF83:
 4258 033f 4B45 595F 		.string	"KEY_SCRLCK"
 4258      5343 524C 
 4258      434B 00
 4259               	.LASF4:
 4260 034a 6C6F 6E67 		.string	"long unsigned int"
 4260      2075 6E73 
 4260      6967 6E65 
 4260      6420 696E 
 4260      7400 
 4261               	.LASF154:
 4262 035c 4B45 595F 		.string	"KEY_HANGLE"
 4262      4841 4E47 
 4262      4C45 00
 4263               	.LASF64:
 4264 0367 4B45 595F 		.string	"KEY_QUOTE"
 4264      5155 4F54 
 4264      4500 
GAS LISTING C:\Users\ADMINI~1\AppData\Local\Temp/ccQkgpbR.s 			page 80


 4265               	.LASF12:
 4266 0371 4B45 595F 		.string	"KEY_NONE"
 4266      4E4F 4E45 
 4266      00
 4267               	.LASF100:
 4268 037a 4B45 595F 		.string	"KEY_KP_ENTER"
 4268      4B50 5F45 
 4268      4E54 4552 
 4268      00
 4269               	.LASF92:
 4270 0387 4B45 595F 		.string	"KEY_LEFT"
 4270      4C45 4654 
 4270      00
 4271               	.LASF189:
 4272 0390 6461 7461 		.string	"data"
 4272      00
 4273               	.LASF99:
 4274 0395 4B45 595F 		.string	"KEY_KP_PLUS"
 4274      4B50 5F50 
 4274      4C55 5300 
 4275               	.LASF2:
 4276 03a1 7368 6F72 		.string	"short unsigned int"
 4276      7420 756E 
 4276      7369 676E 
 4276      6564 2069 
 4276      6E74 00
 4277               	.LASF214:
 4278 03b4 7573 626D 		.string	"usbmain.c"
 4278      6169 6E2E 
 4278      6300 
 4279               	.LASF216:
 4280 03be 7573 6257 		.string	"usbWord"
 4280      6F72 6400 
 4281               	.LASF69:
 4282 03c6 4B45 595F 		.string	"KEY_CAPS"
 4282      4341 5053 
 4282      00
 4283               	.LASF208:
 4284 03cf 7072 6576 		.string	"prevMatrix"
 4284      4D61 7472 
 4284      6978 00
 4285               	.LASF67:
 4286 03da 4B45 595F 		.string	"KEY_DOT"
 4286      444F 5400 
 4287               	.LASF199:
 4288 03e2 6B65 7963 		.string	"keycode_USB_extend"
 4288      6F64 655F 
 4288      5553 425F 
 4288      6578 7465 
 4288      6E64 00
 4289               	.LASF218:
 4290 03f5 7573 625F 		.string	"usb_main"
 4290      6D61 696E 
 4290      00
 4291               	.LASF204:
 4292 03fe 696E 7465 		.string	"interfaceReady"
 4292      7266 6163 
GAS LISTING C:\Users\ADMINI~1\AppData\Local\Temp/ccQkgpbR.s 			page 81


 4292      6552 6561 
 4292      6479 00
 4293               	.LASF149:
 4294 040d 4B45 595F 		.string	"KEY_MINIMIZE"
 4294      4D49 4E49 
 4294      4D49 5A45 
 4294      00
 4295               	.LASF206:
 4296 041a 6973 4265 		.string	"isBeyondFN"
 4296      796F 6E64 
 4296      464E 00
 4297               	.LASF209:
 4298 0425 6375 7272 		.string	"currentMatrix"
 4298      656E 744D 
 4298      6174 7269 
 4298      7800 
 4299               	.LASF56:
 4300 0433 4B45 595F 		.string	"KEY_SPACE"
 4300      5350 4143 
 4300      4500 
 4301               	.LASF126:
 4302 043d 4B45 595F 		.string	"KEY_SLEEP"
 4302      534C 4545 
 4302      5000 
 4303               	.LASF182:
 4304 0447 6B65 7969 		.string	"keyidx"
 4304      6478 00
 4305               	.LASF157:
 4306 044e 7573 6254 		.string	"usbTxStatus_t"
 4306      7853 7461 
 4306      7475 735F 
 4306      7400 
 4307               	.LASF151:
 4308 045c 4B45 595F 		.string	"KEY_Multimedia_end"
 4308      4D75 6C74 
 4308      696D 6564 
 4308      6961 5F65 
 4308      6E64 00
 4309               	.LASF15:
 4310 046f 4B45 595F 		.string	"KEY_ErrorUndefined"
 4310      4572 726F 
 4310      7255 6E64 
 4310      6566 696E 
 4310      6564 00
 4311               	.LASF133:
 4312 0482 4B45 595F 		.string	"KEY_WWW_STOP"
 4312      5757 575F 
 4312      5354 4F50 
 4312      00
 4313               	.LASF51:
 4314 048f 4B45 595F 		.string	"KEY_0"
 4314      3000 
 4315               	.LASF42:
 4316 0495 4B45 595F 		.string	"KEY_1"
 4316      3100 
 4317               	.LASF43:
 4318 049b 4B45 595F 		.string	"KEY_2"
GAS LISTING C:\Users\ADMINI~1\AppData\Local\Temp/ccQkgpbR.s 			page 82


 4318      3200 
 4319               	.LASF44:
 4320 04a1 4B45 595F 		.string	"KEY_3"
 4320      3300 
 4321               	.LASF45:
 4322 04a7 4B45 595F 		.string	"KEY_4"
 4322      3400 
 4323               	.LASF46:
 4324 04ad 4B45 595F 		.string	"KEY_5"
 4324      3500 
 4325               	.LASF47:
 4326 04b3 4B45 595F 		.string	"KEY_6"
 4326      3600 
 4327               	.LASF48:
 4328 04b9 4B45 595F 		.string	"KEY_7"
 4328      3700 
 4329               	.LASF49:
 4330 04bf 4B45 595F 		.string	"KEY_8"
 4330      3800 
 4331               	.LASF50:
 4332 04c5 4B45 595F 		.string	"KEY_9"
 4332      3900 
 4333               	.LASF57:
 4334 04cb 4B45 595F 		.string	"KEY_MINUS"
 4334      4D49 4E55 
 4334      5300 
 4335               	.LASF140:
 4336 04d5 4B45 595F 		.string	"KEY_MUTE"
 4336      4D55 5445 
 4336      00
 4337               	.LASF127:
 4338 04de 4B45 595F 		.string	"KEY_WAKE"
 4338      5741 4B45 
 4338      00
 4339               	.LASF16:
 4340 04e7 4B45 595F 		.string	"KEY_A"
 4340      4100 
 4341               	.LASF17:
 4342 04ed 4B45 595F 		.string	"KEY_B"
 4342      4200 
 4343               	.LASF18:
 4344 04f3 4B45 595F 		.string	"KEY_C"
 4344      4300 
 4345               	.LASF19:
 4346 04f9 4B45 595F 		.string	"KEY_D"
 4346      4400 
 4347               	.LASF20:
 4348 04ff 4B45 595F 		.string	"KEY_E"
 4348      4500 
 4349               	.LASF21:
 4350 0505 4B45 595F 		.string	"KEY_F"
 4350      4600 
 4351               	.LASF22:
 4352 050b 4B45 595F 		.string	"KEY_G"
 4352      4700 
 4353               	.LASF23:
 4354 0511 4B45 595F 		.string	"KEY_H"
GAS LISTING C:\Users\ADMINI~1\AppData\Local\Temp/ccQkgpbR.s 			page 83


 4354      4800 
 4355               	.LASF24:
 4356 0517 4B45 595F 		.string	"KEY_I"
 4356      4900 
 4357               	.LASF25:
 4358 051d 4B45 595F 		.string	"KEY_J"
 4358      4A00 
 4359               	.LASF26:
 4360 0523 4B45 595F 		.string	"KEY_K"
 4360      4B00 
 4361               	.LASF27:
 4362 0529 4B45 595F 		.string	"KEY_L"
 4362      4C00 
 4363               	.LASF28:
 4364 052f 4B45 595F 		.string	"KEY_M"
 4364      4D00 
 4365               	.LASF29:
 4366 0535 4B45 595F 		.string	"KEY_N"
 4366      4E00 
 4367               	.LASF30:
 4368 053b 4B45 595F 		.string	"KEY_O"
 4368      4F00 
 4369               	.LASF31:
 4370 0541 4B45 595F 		.string	"KEY_P"
 4370      5000 
 4371               	.LASF32:
 4372 0547 4B45 595F 		.string	"KEY_Q"
 4372      5100 
 4373               	.LASF33:
 4374 054d 4B45 595F 		.string	"KEY_R"
 4374      5200 
 4375               	.LASF34:
 4376 0553 4B45 595F 		.string	"KEY_S"
 4376      5300 
 4377               	.LASF35:
 4378 0559 4B45 595F 		.string	"KEY_T"
 4378      5400 
 4379               	.LASF36:
 4380 055f 4B45 595F 		.string	"KEY_U"
 4380      5500 
 4381               	.LASF37:
 4382 0565 4B45 595F 		.string	"KEY_V"
 4382      5600 
 4383               	.LASF38:
 4384 056b 4B45 595F 		.string	"KEY_W"
 4384      5700 
 4385               	.LASF39:
 4386 0571 4B45 595F 		.string	"KEY_X"
 4386      5800 
 4387               	.LASF40:
 4388 0577 4B45 595F 		.string	"KEY_Y"
 4388      5900 
 4389               	.LASF41:
 4390 057d 4B45 595F 		.string	"KEY_Z"
 4390      5A00 
 4391               	.LASF188:
 4392 0583 7573 6246 		.string	"usbFunctionSetup"
GAS LISTING C:\Users\ADMINI~1\AppData\Local\Temp/ccQkgpbR.s 			page 84


 4392      756E 6374 
 4392      696F 6E53 
 4392      6574 7570 
 4392      00
 4393               	.LASF191:
 4394 0594 7265 706F 		.string	"reportBuffer"
 4394      7274 4275 
 4394      6666 6572 
 4394      00
 4395               	.LASF203:
 4396 05a1 696E 7465 		.string	"interfaceCount"
 4396      7266 6163 
 4396      6543 6F75 
 4396      6E74 00
 4397               	.LASF136:
 4398 05b0 4B45 595F 		.string	"KEY_NEXT_TRK"
 4398      4E45 5854 
 4398      5F54 524B 
 4398      00
 4399               	.LASF179:
 4400 05bd 674B 6579 		.string	"gKeyidx"
 4400      6964 7800 
 4401               	.LASF97:
 4402 05c5 4B45 595F 		.string	"KEY_KP_AST"
 4402      4B50 5F41 
 4402      5354 00
 4403               	.LASF142:
 4404 05d0 4B45 595F 		.string	"KEY_VOL_DOWN"
 4404      564F 4C5F 
 4404      444F 574E 
 4404      00
 4405               	.LASF150:
 4406 05dd 4B45 595F 		.string	"KEY_EJECT"
 4406      454A 4543 
 4406      5400 
 4407               	.LASF123:
 4408 05e7 4B45 595F 		.string	"KEY_Modifiers_end"
 4408      4D6F 6469 
 4408      6669 6572 
 4408      735F 656E 
 4408      6400 
 4409               	.LASF180:
 4410 05f9 7363 616E 		.string	"scanKeyUSB"
 4410      4B65 7955 
 4410      5342 00
 4411               	.LASF0:
 4412 0604 756E 7369 		.string	"unsigned char"
 4412      676E 6564 
 4412      2063 6861 
 4412      7200 
 4413               	.LASF146:
 4414 0612 4B45 595F 		.string	"KEY_SCREENSAVE"
 4414      5343 5245 
 4414      454E 5341 
 4414      5645 00
 4415               	.LASF155:
 4416 0621 4B45 595F 		.string	"KEY_extend_end"
GAS LISTING C:\Users\ADMINI~1\AppData\Local\Temp/ccQkgpbR.s 			page 85


 4416      6578 7465 
 4416      6E64 5F65 
 4416      6E64 00
 4417               	.LASF66:
 4418 0630 4B45 595F 		.string	"KEY_COMMA"
 4418      434F 4D4D 
 4418      4100 
 4419               	.LASF166:
 4420 063a 7749 6E64 		.string	"wIndex"
 4420      6578 00
 4421               	.LASF55:
 4422 0641 4B45 595F 		.string	"KEY_TAB"
 4422      5441 4200 
 4423               	.LASF170:
 4424 0649 7072 6570 		.string	"prepareKeyMappingUsb"
 4424      6172 654B 
 4424      6579 4D61 
 4424      7070 696E 
 4424      6755 7362 
 4425               	.LASF3:
 4426 065e 7368 6F72 		.string	"short int"
 4426      7420 696E 
 4426      7400 
 4427               	.LASF217:
 4428 0668 6861 734D 		.string	"hasMacroUsb"
 4428      6163 726F 
 4428      5573 6200 
 4429               	.LASF93:
 4430 0674 4B45 595F 		.string	"KEY_DOWN"
 4430      444F 574E 
 4430      00
 4431               	.LASF58:
 4432 067d 4B45 595F 		.string	"KEY_EQUAL"
 4432      4551 5541 
 4432      4C00 
 4433               	.LASF164:
 4434 0687 6252 6571 		.string	"bRequest"
 4434      7565 7374 
 4434      00
 4435               	.LASF195:
 4436 0690 5F69 7349 		.string	"_isInit"
 4436      6E69 7400 
 4437               	.LASF210:
 4438 0698 5F70 7265 		.string	"_pressedBuffer"
 4438      7373 6564 
 4438      4275 6666 
 4438      6572 00
 4439               	.LASF84:
 4440 06a7 4B45 595F 		.string	"KEY_PAUSE"
 4440      5041 5553 
 4440      4500 
 4441               	.LASF101:
 4442 06b1 4B45 595F 		.string	"KEY_KP_1"
 4442      4B50 5F31 
 4442      00
 4443               	.LASF102:
 4444 06ba 4B45 595F 		.string	"KEY_KP_2"
GAS LISTING C:\Users\ADMINI~1\AppData\Local\Temp/ccQkgpbR.s 			page 86


 4444      4B50 5F32 
 4444      00
 4445               	.LASF103:
 4446 06c3 4B45 595F 		.string	"KEY_KP_3"
 4446      4B50 5F33 
 4446      00
 4447               	.LASF87:
 4448 06cc 4B45 595F 		.string	"KEY_PGUP"
 4448      5047 5550 
 4448      00
 4449               	.LASF14:
 4450 06d5 4B45 595F 		.string	"KEY_POSTFail"
 4450      504F 5354 
 4450      4661 696C 
 4450      00
 4451               	.LASF106:
 4452 06e2 4B45 595F 		.string	"KEY_KP_6"
 4452      4B50 5F36 
 4452      00
 4453               	.LASF107:
 4454 06eb 4B45 595F 		.string	"KEY_KP_7"
 4454      4B50 5F37 
 4454      00
 4455               	.LASF108:
 4456 06f4 4B45 595F 		.string	"KEY_KP_8"
 4456      4B50 5F38 
 4456      00
 4457               	.LASF52:
 4458 06fd 4B45 595F 		.string	"KEY_ENTER"
 4458      454E 5445 
 4458      5200 
 4459               	.LASF53:
 4460 0707 4B45 595F 		.string	"KEY_ESC"
 4460      4553 4300 
 4461               	.LASF110:
 4462 070f 4B45 595F 		.string	"KEY_KP_0"
 4462      4B50 5F30 
 4462      00
 4463               	.LASF9:
 4464 0718 6368 6172 		.string	"char"
 4464      00
 4465               	.LASF153:
 4466 071d 4B45 595F 		.string	"KEY_HANJA"
 4466      4841 4E4A 
 4466      4100 
 4467               	.LASF105:
 4468 0727 4B45 595F 		.string	"KEY_KP_5"
 4468      4B50 5F35 
 4468      00
 4469               	.LASF159:
 4470 0730 6279 7465 		.string	"bytes"
 4470      7300 
 4471               	.LASF132:
 4472 0736 4B45 595F 		.string	"KEY_WWW_FORWARD"
 4472      5757 575F 
 4472      464F 5257 
 4472      4152 4400 
GAS LISTING C:\Users\ADMINI~1\AppData\Local\Temp/ccQkgpbR.s 			page 87


 4473               	.LASF109:
 4474 0746 4B45 595F 		.string	"KEY_KP_9"
 4474      4B50 5F39 
 4474      00
 4475               	.LASF104:
 4476 074f 4B45 595F 		.string	"KEY_KP_4"
 4476      4B50 5F34 
 4476      00
 4477               	.LASF128:
 4478 0758 4B45 595F 		.string	"KEY_EMAIL"
 4478      454D 4149 
 4478      4C00 
 4479               	.LASF202:
 4480 0762 7573 6254 		.string	"usbTxStatus1"
 4480      7853 7461 
 4480      7475 7331 
 4480      00
 4481               	.LASF207:
 4482 076f 6D6F 646D 		.string	"modmask"
 4482      6173 6B00 
 4483               	.LASF158:
 4484 0777 776F 7264 		.string	"word"
 4484      00
 4485               	.LASF173:
 4486 077c 5F5F 6164 		.string	"__addr16"
 4486      6472 3136 
 4486      00
 4487               	.LASF119:
 4488 0785 4B45 595F 		.string	"KEY_RCTRL"
 4488      5243 5452 
 4488      4C00 
 4489               	.LASF61:
 4490 078f 4B45 595F 		.string	"KEY_BKSLASH"
 4490      424B 534C 
 4490      4153 4800 
 4491               	.LASF144:
 4492 079b 4B45 595F 		.string	"KEY_CALC"
 4492      4341 4C43 
 4492      00
 4493               	.LASF197:
 4494 07a4 5F6E 6565 		.string	"_needRelease"
 4494      6452 656C 
 4494      6561 7365 
 4494      00
 4495               	.LASF184:
 4496 07b1 6B65 796D 		.string	"keymap"
 4496      6170 00
 4497               	.LASF196:
 4498 07b8 5F70 7265 		.string	"_prevPressedBuffer"
 4498      7650 7265 
 4498      7373 6564 
 4498      4275 6666 
 4498      6572 00
 4499               	.LASF178:
 4500 07cb 674C 656E 		.string	"gLen"
 4500      00
 4501               	.LASF117:
GAS LISTING C:\Users\ADMINI~1\AppData\Local\Temp/ccQkgpbR.s 			page 88


 4502 07d0 4B45 595F 		.string	"KEY_LALT"
 4502      4C41 4C54 
 4502      00
 4503               	.LASF70:
 4504 07d9 4B45 595F 		.string	"KEY_F1"
 4504      4631 00
 4505               	.LASF71:
 4506 07e0 4B45 595F 		.string	"KEY_F2"
 4506      4632 00
 4507               	.LASF72:
 4508 07e7 4B45 595F 		.string	"KEY_F3"
 4508      4633 00
 4509               	.LASF73:
 4510 07ee 4B45 595F 		.string	"KEY_F4"
 4510      4634 00
 4511               	.LASF74:
 4512 07f5 4B45 595F 		.string	"KEY_F5"
 4512      4635 00
 4513               	.LASF75:
 4514 07fc 4B45 595F 		.string	"KEY_F6"
 4514      4636 00
 4515               	.LASF76:
 4516 0803 4B45 595F 		.string	"KEY_F7"
 4516      4637 00
 4517               	.LASF77:
 4518 080a 4B45 595F 		.string	"KEY_F8"
 4518      4638 00
 4519               	.LASF10:
 4520 0811 7569 6E74 		.string	"uint8_t"
 4520      385F 7400 
 4521               	.LASF86:
 4522 0819 4B45 595F 		.string	"KEY_HOME"
 4522      484F 4D45 
 4522      00
 4523               	.LASF148:
 4524 0822 4B45 595F 		.string	"KEY_REWIND"
 4524      5245 5749 
 4524      4E44 00
 4525               	.LASF152:
 4526 082d 4B45 595F 		.string	"KEY_extend"
 4526      6578 7465 
 4526      6E64 00
 4527               	.LASF113:
 4528 0838 4B45 595F 		.string	"KEY_APPS"
 4528      4150 5053 
 4528      00
 4529               	.LASF129:
 4530 0841 4B45 595F 		.string	"KEY_WWW_SEARCH"
 4530      5757 575F 
 4530      5345 4152 
 4530      4348 00
 4531               	.LASF94:
 4532 0850 4B45 595F 		.string	"KEY_UP"
 4532      5550 00
 4533               	.LASF167:
 4534 0857 774C 656E 		.string	"wLength"
 4534      6774 6800 
GAS LISTING C:\Users\ADMINI~1\AppData\Local\Temp/ccQkgpbR.s 			page 89


 4535               	.LASF192:
 4536 085f 6964 6C65 		.string	"idleRate"
 4536      5261 7465 
 4536      00
 4537               	.LASF145:
 4538 0868 4B45 595F 		.string	"KEY_MYCOM"
 4538      4D59 434F 
 4538      4D00 
 4539               	.LASF78:
 4540 0872 4B45 595F 		.string	"KEY_F9"
 4540      4639 00
 4541               	.LASF201:
 4542 0879 7573 6244 		.string	"usbDescriptorHidReport"
 4542      6573 6372 
 4542      6970 746F 
 4542      7248 6964 
 4542      5265 706F 
 4543               	.LASF187:
 4544 0890 696E 6974 		.string	"initInterfaceUsb"
 4544      496E 7465 
 4544      7266 6163 
 4544      6555 7362 
 4544      00
 4545               	.LASF118:
 4546 08a1 4B45 595F 		.string	"KEY_LGUI"
 4546      4C47 5549 
 4546      00
 4547               	.LASF200:
 4548 08aa 7573 624D 		.string	"usbMsgPtr"
 4548      7367 5074 
 4548      7200 
 4549               	.LASF124:
 4550 08b4 4B45 595F 		.string	"KEY_Multimedia"
 4550      4D75 6C74 
 4550      696D 6564 
 4550      6961 00
 4551               	.LASF114:
 4552 08c3 4B45 595F 		.string	"KEY_Modifiers"
 4552      4D6F 6469 
 4552      6669 6572 
 4552      7300 
 4553               	.global __do_copy_data
 4554               	.global __do_clear_bss
GAS LISTING C:\Users\ADMINI~1\AppData\Local\Temp/ccQkgpbR.s 			page 90


DEFINED SYMBOLS
                            *ABS*:00000000 usbmain.c
C:\Users\ADMINI~1\AppData\Local\Temp/ccQkgpbR.s:2      *ABS*:0000003f __SREG__
C:\Users\ADMINI~1\AppData\Local\Temp/ccQkgpbR.s:3      *ABS*:0000003e __SP_H__
C:\Users\ADMINI~1\AppData\Local\Temp/ccQkgpbR.s:4      *ABS*:0000003d __SP_L__
C:\Users\ADMINI~1\AppData\Local\Temp/ccQkgpbR.s:5      *ABS*:00000034 __CCP__
C:\Users\ADMINI~1\AppData\Local\Temp/ccQkgpbR.s:6      *ABS*:00000000 __tmp_reg__
C:\Users\ADMINI~1\AppData\Local\Temp/ccQkgpbR.s:7      *ABS*:00000001 __zero_reg__
C:\Users\ADMINI~1\AppData\Local\Temp/ccQkgpbR.s:18     .text:00000000 hasMacroUsb
C:\Users\ADMINI~1\AppData\Local\Temp/ccQkgpbR.s:1070   .bss:00000002 _needRelease
C:\Users\ADMINI~1\AppData\Local\Temp/ccQkgpbR.s:45     .text:0000001c clearReportBuffer
C:\Users\ADMINI~1\AppData\Local\Temp/ccQkgpbR.s:1072   .bss:00000004 reportBuffer
C:\Users\ADMINI~1\AppData\Local\Temp/ccQkgpbR.s:68     .text:00000032 prepareKeyMappingUsb
C:\Users\ADMINI~1\AppData\Local\Temp/ccQkgpbR.s:1079   .bss:0000000d _prevPressedBuffer
C:\Users\ADMINI~1\AppData\Local\Temp/ccQkgpbR.s:88     .text:00000042 makeReportBuffer
C:\Users\ADMINI~1\AppData\Local\Temp/ccQkgpbR.s:1068   .bss:00000000 _isMultimediaPressed
                            *COM*:00000001 reportIndex
C:\Users\ADMINI~1\AppData\Local\Temp/ccQkgpbR.s:221    .text:000000d6 scanMacroUsb
C:\Users\ADMINI~1\AppData\Local\Temp/ccQkgpbR.s:359    .text:000001a4 scanKeyUSB
C:\Users\ADMINI~1\AppData\Local\Temp/ccQkgpbR.s:641    .text:00000346 usb_main
C:\Users\ADMINI~1\AppData\Local\Temp/ccQkgpbR.s:1078   .bss:0000000c idleRate
                             .bss:00000001 _isInit
C:\Users\ADMINI~1\AppData\Local\Temp/ccQkgpbR.s:825    .text:00000454 initInterfaceUsb
C:\Users\ADMINI~1\AppData\Local\Temp/ccQkgpbR.s:844    .text:00000464 usbFunctionSetup
C:\Users\ADMINI~1\AppData\Local\Temp/ccQkgpbR.s:1071   .bss:00000003 expectReport
C:\Users\ADMINI~1\AppData\Local\Temp/ccQkgpbR.s:1076   .data:00000000 protocolVer
C:\Users\ADMINI~1\AppData\Local\Temp/ccQkgpbR.s:940    .text:000004e8 usbFunctionWrite
C:\Users\ADMINI~1\AppData\Local\Temp/ccQkgpbR.s:977    .progmem.data:00000000 usbDescriptorHidReport

UNDEFINED SYMBOLS
isEmptyM
keycode_USB_multimedia
modmask
applyKeyMapping
keycode_USB_extend
popMWithKey
_pressedBuffer
findIndex
memcpy
setCurrentMatrix
getLayer
prevMatrix
currentMatrix
getCurrentKeycode
applyMacro
applyFN
wakeUp
isKeyMapping
putKeyCode
usbInit
INTERFACE
interfaceReady
interfaceCount
usbPoll
usbTxStatus1
usbSetInterrupt
startKeyMappingOnBoot
GAS LISTING C:\Users\ADMINI~1\AppData\Local\Temp/ccQkgpbR.s 			page 91


countSleep
isBeyondFN
renderLED
setMacroProcessEnd
initFullLEDState
usbMsgPtr
setLEDState
setLEDIndicate
__do_copy_data
__do_clear_bss
