GAS LISTING C:\Users\ADMINI~1\AppData\Local\Temp/cc9J5r6C.s 			page 1


   1               		.file	"usbmain.c"
   2               	__SREG__ = 0x3f
   3               	__SP_H__ = 0x3e
   4               	__SP_L__ = 0x3d
   5               	__CCP__  = 0x34
   6               	__tmp_reg__ = 0
   7               	__zero_reg__ = 1
   8               		.section	.debug_abbrev,"",@progbits
   9               	.Ldebug_abbrev0:
  10               		.section	.debug_info,"",@progbits
  11               	.Ldebug_info0:
  12               		.section	.debug_line,"",@progbits
  13               	.Ldebug_line0:
  14               		.text
  15               	.Ltext0:
  16               	.global	makeReportBuffer
  17               		.type	makeReportBuffer, @function
  18               	makeReportBuffer:
  19               	.LFB12:
  20               	.LM1:
  21               	.LVL0:
  22               	/* prologue: function */
  23               	/* frame size = 0 */
  24 0000 982F      		mov r25,r24
  25               	.LM2:
  26 0002 893F      		cpi r24,lo8(-7)
  27 0004 00F0      		brlo .+2
  28 0006 00C0      		rjmp .L2
  29               	.LM3:
  30 0008 8157      		subi r24,lo8(-(-113))
  31               	.LVL1:
  32 000a 8A31      		cpi r24,lo8(26)
  33 000c 00F4      		brsh .L3
  34               	.LBB2:
  35               	.LM4:
  36 000e 81E0      		ldi r24,lo8(1)
  37 0010 8093 0000 		sts _isMultimediaPressed,r24
  38               	.LBB3:
  39               	.LM5:
  40 0014 E92F      		mov r30,r25
  41               	.LVL2:
  42 0016 F0E0      		ldi r31,lo8(0)
  43               	.LVL3:
  44 0018 EE0F      		lsl r30
  45 001a FF1F      		rol r31
  46               	.LVL4:
  47 001c E050      		subi r30,lo8(-(keycode_USB_multimedia-226))
  48 001e F040      		sbci r31,hi8(-(keycode_USB_multimedia-226))
  49               	/* #APP */
  50               	 ;  423 "usbmain.c" 1
  51 0020 2591      		lpm r18, Z+
  52 0022 3491      		lpm r19, Z
  53               		
  54               	 ;  0 "" 2
  55               	.LVL5:
  56               	/* #NOAPP */
  57               	.LBE3:
GAS LISTING C:\Users\ADMINI~1\AppData\Local\Temp/cc9J5r6C.s 			page 2


  58               	.LM6:
  59 0024 82E0      		ldi r24,lo8(2)
  60 0026 8093 0000 		sts reportBuffer,r24
  61               	.LM7:
  62 002a 2093 0000 		sts reportBuffer+1,r18
  63               	.LM8:
  64 002e 3093 0000 		sts reportBuffer+2,r19
  65               	.LVL6:
  66 0032 00C0      		rjmp .L2
  67               	.LVL7:
  68               	.L3:
  69               	.LBE2:
  70               	.LM9:
  71 0034 892F      		mov r24,r25
  72 0036 8756      		subi r24,lo8(-(-103))
  73 0038 8830      		cpi r24,lo8(8)
  74 003a 00F4      		brsh .L4
  75               	.LM10:
  76 003c E92F      		mov r30,r25
  77 003e F0E0      		ldi r31,lo8(0)
  78               	.LVL8:
  79 0040 EE0F      		lsl r30
  80 0042 FF1F      		rol r31
  81               	.LVL9:
  82 0044 E050      		subi r30,lo8(-(modmask-206))
  83 0046 F040      		sbci r31,hi8(-(modmask-206))
  84               	.LVL10:
  85 0048 8081      		ld r24,Z
  86 004a 9091 0000 		lds r25,reportBuffer+1
  87 004e 892B      		or r24,r25
  88 0050 8093 0000 		sts reportBuffer+1,r24
  89 0054 00C0      		rjmp .L2
  90               	.LVL11:
  91               	.L4:
  92               	.LM11:
  93 0056 9923      		tst r25
  94 0058 01F0      		breq .L2
  95               	.LM12:
  96 005a 2091 0000 		lds r18,reportIndex
  97 005e 2830      		cpi r18,lo8(8)
  98 0060 00F4      		brsh .L2
  99               	.LM13:
 100 0062 892F      		mov r24,r25
 101 0064 8D58      		subi r24,lo8(-(115))
 102 0066 8230      		cpi r24,lo8(2)
 103 0068 00F4      		brsh .L5
 104               	.LBB4:
 105               	.LM14:
 106 006a E92F      		mov r30,r25
 107               	.LVL12:
 108 006c F0E0      		ldi r31,lo8(0)
 109               	.LVL13:
 110 006e EE0F      		lsl r30
 111 0070 FF1F      		rol r31
 112               	.LVL14:
 113 0072 E050      		subi r30,lo8(-(keycode_USB_extend-282))
 114 0074 F040      		sbci r31,hi8(-(keycode_USB_extend-282))
GAS LISTING C:\Users\ADMINI~1\AppData\Local\Temp/cc9J5r6C.s 			page 3


 115               	/* #APP */
 116               	 ;  447 "usbmain.c" 1
 117 0076 8591      		lpm r24, Z+
 118 0078 9491      		lpm r25, Z
 119               		
 120               	 ;  0 "" 2
 121               	.LVL15:
 122               	/* #NOAPP */
 123               	.LBE4:
 124 007a 982F      		mov r25,r24
 125               	.L5:
 126               	.LM15:
 127 007c E22F      		mov r30,r18
 128               	.LVL16:
 129 007e F0E0      		ldi r31,lo8(0)
 130               	.LVL17:
 131 0080 E050      		subi r30,lo8(-(reportBuffer))
 132 0082 F040      		sbci r31,hi8(-(reportBuffer))
 133 0084 9083      		st Z,r25
 134               	.LM16:
 135 0086 2F5F      		subi r18,lo8(-(1))
 136 0088 2093 0000 		sts reportIndex,r18
 137               	.LVL18:
 138               	.L2:
 139               	.LM17:
 140 008c 80E0      		ldi r24,lo8(0)
 141               	.LVL19:
 142               	/* epilogue start */
 143 008e 0895      		ret
 144               	.LFE12:
 145               		.size	makeReportBuffer, .-makeReportBuffer
 146               	.global	hasMacroUsb
 147               		.type	hasMacroUsb, @function
 148               	hasMacroUsb:
 149               	.LFB16:
 150               	.LM18:
 151               	/* prologue: function */
 152               	/* frame size = 0 */
 153               	.LM19:
 154 0090 8091 0000 		lds r24,_needRelease
 155 0094 8823      		tst r24
 156 0096 01F4      		brne .L12
 157               	.L8:
 158 0098 0E94 0000 		call isEmptyM
 159 009c 20E0      		ldi r18,lo8(0)
 160 009e 30E0      		ldi r19,hi8(0)
 161 00a0 8823      		tst r24
 162 00a2 01F4      		brne .L9
 163               	.L12:
 164 00a4 21E0      		ldi r18,lo8(1)
 165 00a6 30E0      		ldi r19,hi8(1)
 166               	.L9:
 167               	.LM20:
 168 00a8 822F      		mov r24,r18
 169               	/* epilogue start */
 170 00aa 0895      		ret
 171               	.LFE16:
GAS LISTING C:\Users\ADMINI~1\AppData\Local\Temp/cc9J5r6C.s 			page 4


 172               		.size	hasMacroUsb, .-hasMacroUsb
 173               	.global	clearReportBuffer
 174               		.type	clearReportBuffer, @function
 175               	clearReportBuffer:
 176               	.LFB13:
 177               	.LM21:
 178               	/* prologue: function */
 179               	/* frame size = 0 */
 180               	.LM22:
 181 00ac 88E0      		ldi r24,lo8(8)
 182 00ae E0E0      		ldi r30,lo8(reportBuffer)
 183 00b0 F0E0      		ldi r31,hi8(reportBuffer)
 184 00b2 DF01      		movw r26,r30
 185 00b4 1D92      		st X+,__zero_reg__
 186 00b6 8A95      	        dec r24
 187 00b8 01F4      		brne .-6
 188               	.LM23:
 189 00ba 81E0      		ldi r24,lo8(1)
 190 00bc 8093 0000 		sts reportBuffer,r24
 191               	/* epilogue start */
 192               	.LM24:
 193 00c0 0895      		ret
 194               	.LFE13:
 195               		.size	clearReportBuffer, .-clearReportBuffer
 196               	.global	scanMacroUsb
 197               		.type	scanMacroUsb, @function
 198               	scanMacroUsb:
 199               	.LFB15:
 200               	.LM25:
 201 00c2 AF92      		push r10
 202 00c4 BF92      		push r11
 203 00c6 CF92      		push r12
 204 00c8 DF92      		push r13
 205 00ca EF92      		push r14
 206 00cc FF92      		push r15
 207 00ce 1F93      		push r17
 208 00d0 CF93      		push r28
 209 00d2 DF93      		push r29
 210               	/* prologue: function */
 211               	/* frame size = 0 */
 212               	.LM26:
 213 00d4 0E94 0000 		call isEmptyM
 214 00d8 8823      		tst r24
 215 00da 01F0      		breq .+2
 216 00dc 00C0      		rjmp .L16
 217               	.LBB5:
 218               	.LM27:
 219 00de 0E94 0000 		call clearReportBuffer
 220               	.LM28:
 221 00e2 0E94 0000 		call popMWithKey
 222               	.LM29:
 223 00e6 E0E0      		ldi r30,lo8(_pressedBuffer)
 224 00e8 F0E0      		ldi r31,hi8(_pressedBuffer)
 225 00ea DF01      		movw r26,r30
 226 00ec 0D90      		ld __tmp_reg__,X+
 227 00ee 0020      		tst __tmp_reg__
 228 00f0 01F4      		brne .-6
GAS LISTING C:\Users\ADMINI~1\AppData\Local\Temp/cc9J5r6C.s 			page 5


 229 00f2 1197      		sbiw r26,1
 230 00f4 AE1B      		sub r26,r30
 231 00f6 BF0B      		sbc r27,r31
 232               	.LM30:
 233 00f8 82E0      		ldi r24,lo8(2)
 234 00fa 8093 0000 		sts reportIndex,r24
 235 00fe EF01      		movw r28,r30
 236               	.LM31:
 237 0100 EA2E      		mov r14,r26
 238               	.LVL20:
 239 0102 FF24      		clr r15
 240               	.LVL21:
 241 0104 6F01      		movw r12,r30
 242 0106 CE0C      		add r12,r14
 243 0108 DF1C      		adc r13,r15
 244               	.LM32:
 245 010a 30E0      		ldi r19,lo8(_prevPressedBuffer)
 246 010c A32E      		mov r10,r19
 247 010e 30E0      		ldi r19,hi8(_prevPressedBuffer)
 248 0110 B32E      		mov r11,r19
 249 0112 00C0      		rjmp .L17
 250               	.LVL22:
 251               	.L20:
 252               	.LM33:
 253 0114 1881      		ld r17,Y
 254               	.LM34:
 255 0116 812F      		mov r24,r17
 256 0118 8756      		subi r24,lo8(-(-103))
 257 011a 8830      		cpi r24,lo8(8)
 258 011c 00F0      		brlo .L24
 259               	.L18:
 260               	.LM35:
 261 011e F501      		movw r30,r10
 262 0120 0190      		ld __tmp_reg__,Z+
 263 0122 0020      		tst __tmp_reg__
 264 0124 01F4      		brne .-6
 265 0126 3197      		sbiw r30,1
 266 0128 E050      		subi r30,lo8(_prevPressedBuffer)
 267 012a F040      		sbci r31,hi8(_prevPressedBuffer)
 268 012c 80E0      		ldi r24,lo8(_prevPressedBuffer)
 269 012e 90E0      		ldi r25,hi8(_prevPressedBuffer)
 270 0130 6E2F      		mov r22,r30
 271 0132 412F      		mov r20,r17
 272 0134 0E94 0000 		call findIndex
 273               	.LM36:
 274 0138 8F5F      		subi r24,lo8(-1)
 275 013a 9F4F      		sbci r25,hi8(-1)
 276 013c 01F4      		brne .L19
 277               	.L24:
 278               	.LM37:
 279 013e 812F      		mov r24,r17
 280 0140 0E94 0000 		call makeReportBuffer
 281               	.L19:
 282 0144 2196      		adiw r28,1
 283               	.L17:
 284               	.LM38:
 285 0146 40E0      		ldi r20,lo8(_pressedBuffer)
GAS LISTING C:\Users\ADMINI~1\AppData\Local\Temp/cc9J5r6C.s 			page 6


 286 0148 50E0      		ldi r21,hi8(_pressedBuffer)
 287 014a CC15      		cp r28,r12
 288 014c DD05      		cpc r29,r13
 289 014e 01F4      		brne .L20
 290               	.LM39:
 291 0150 81E0      		ldi r24,lo8(1)
 292 0152 8093 0000 		sts _needRelease,r24
 293               	.LM40:
 294 0156 20E0      		ldi r18,lo8(_prevPressedBuffer)
 295 0158 30E0      		ldi r19,hi8(_prevPressedBuffer)
 296 015a F701      		movw r30,r14
 297 015c 3196      		adiw r30,1
 298 015e C901      		movw r24,r18
 299 0160 BA01      		movw r22,r20
 300 0162 AF01      		movw r20,r30
 301 0164 0E94 0000 		call memcpy
 302 0168 00C0      		rjmp .L22
 303               	.LVL23:
 304               	.L16:
 305               	.LBE5:
 306               	.LM41:
 307 016a 8091 0000 		lds r24,_needRelease
 308 016e 8823      		tst r24
 309 0170 01F0      		breq .L22
 310               	.LM42:
 311 0172 0E94 0000 		call clearReportBuffer
 312               	.LM43:
 313 0176 1092 0000 		sts _needRelease,__zero_reg__
 314               	.LVL24:
 315               	.L22:
 316               	.LM44:
 317 017a 81E0      		ldi r24,lo8(1)
 318               	/* epilogue start */
 319 017c DF91      		pop r29
 320 017e CF91      		pop r28
 321 0180 1F91      		pop r17
 322               	.LVL25:
 323 0182 FF90      		pop r15
 324               	.LVL26:
 325 0184 EF90      		pop r14
 326               	.LVL27:
 327 0186 DF90      		pop r13
 328 0188 CF90      		pop r12
 329 018a BF90      		pop r11
 330 018c AF90      		pop r10
 331 018e 0895      		ret
 332               	.LFE15:
 333               		.size	scanMacroUsb, .-scanMacroUsb
 334               	.global	scanKeyUSB
 335               		.type	scanKeyUSB, @function
 336               	scanKeyUSB:
 337               	.LFB14:
 338               	.LM45:
 339 0190 2F92      		push r2
 340 0192 3F92      		push r3
 341 0194 5F92      		push r5
 342 0196 6F92      		push r6
GAS LISTING C:\Users\ADMINI~1\AppData\Local\Temp/cc9J5r6C.s 			page 7


 343 0198 7F92      		push r7
 344 019a 8F92      		push r8
 345 019c 9F92      		push r9
 346 019e AF92      		push r10
 347 01a0 BF92      		push r11
 348 01a2 CF92      		push r12
 349 01a4 DF92      		push r13
 350 01a6 EF92      		push r14
 351 01a8 FF92      		push r15
 352 01aa 0F93      		push r16
 353 01ac 1F93      		push r17
 354 01ae DF93      		push r29
 355 01b0 CF93      		push r28
 356 01b2 0F92      		push __tmp_reg__
 357 01b4 CDB7      		in r28,__SP_L__
 358 01b6 DEB7      		in r29,__SP_H__
 359               	/* prologue: function */
 360               	/* frame size = 1 */
 361               	.LM46:
 362 01b8 0E94 0000 		call setCurrentMatrix
 363 01bc 8823      		tst r24
 364 01be 01F4      		brne .+2
 365 01c0 00C0      		rjmp .L26
 366               	.LM47:
 367 01c2 0E94 0000 		call getLayer
 368 01c6 582E      		mov r5,r24
 369               	.LVL28:
 370               	.LM48:
 371 01c8 82E0      		ldi r24,lo8(2)
 372 01ca 8093 0000 		sts reportIndex,r24
 373               	.LM49:
 374 01ce 0E94 0000 		call clearReportBuffer
 375 01d2 8824      		clr r8
 376               	.LVL29:
 377 01d4 1982      		std Y+1,__zero_reg__
 378               	.LVL30:
 379 01d6 CC24      		clr r12
 380 01d8 DD24      		clr r13
 381               	.LM50:
 382 01da 41E0      		ldi r20,lo8(1)
 383 01dc 642E      		mov r6,r20
 384 01de 712C      		mov r7,__zero_reg__
 385 01e0 00C0      		rjmp .L27
 386               	.LVL31:
 387               	.L36:
 388               	.LM51:
 389 01e2 A22C      		mov r10,r2
 390               	.LM52:
 391 01e4 F101      		movw r30,r2
 392 01e6 E050      		subi r30,lo8(-(prevMatrix))
 393 01e8 F040      		sbci r31,hi8(-(prevMatrix))
 394 01ea 1081      		ld r17,Z
 395               	.LVL32:
 396               	.LM53:
 397 01ec F101      		movw r30,r2
 398 01ee E050      		subi r30,lo8(-(currentMatrix))
 399 01f0 F040      		sbci r31,hi8(-(currentMatrix))
GAS LISTING C:\Users\ADMINI~1\AppData\Local\Temp/cc9J5r6C.s 			page 8


 400 01f2 F080      		ld r15,Z
 401 01f4 F920      		and r15,r9
 402               	.LM54:
 403 01f6 852D      		mov r24,r5
 404 01f8 622D      		mov r22,r2
 405 01fa 4B2D      		mov r20,r11
 406 01fc 0E94 0000 		call getCurrentKeycode
 407 0200 082F      		mov r16,r24
 408               	.LM55:
 409 0202 FF20      		tst r15
 410 0204 01F0      		breq .L28
 411 0206 8823      		tst r24
 412 0208 01F0      		breq .L28
 413               	.LVL33:
 414 020a 0E94 0000 		call applyMacro
 415               	.LVL34:
 416 020e 8823      		tst r24
 417 0210 01F0      		breq .+2
 418 0212 00C0      		rjmp .L26
 419               	.LVL35:
 420               	.L28:
 421               	.LM56:
 422 0214 E92C      		mov r14,r9
 423 0216 E122      		and r14,r17
 424               	.LM57:
 425 0218 EF14      		cp r14,r15
 426 021a 01F0      		breq .L29
 427 021c 0023      		tst r16
 428 021e 01F4      		brne .+2
 429 0220 00C0      		rjmp .L30
 430               	.LM58:
 431 0222 FF20      		tst r15
 432 0224 01F0      		breq .L31
 433               	.LM59:
 434 0226 802F      		mov r24,r16
 435 0228 61E0      		ldi r22,lo8(1)
 436 022a 0E94 0000 		call applyFN
 437 022e 182F      		mov r17,r24
 438               	.LVL36:
 439               	.LM60:
 440 0230 0E94 0000 		call wakeUp
 441 0234 00C0      		rjmp .L32
 442               	.LVL37:
 443               	.L31:
 444               	.LM61:
 445 0236 802F      		mov r24,r16
 446 0238 60E0      		ldi r22,lo8(0)
 447 023a 0E94 0000 		call applyFN
 448 023e 182F      		mov r17,r24
 449               	.LVL38:
 450               	.LM62:
 451 0240 EE20      		tst r14
 452 0242 01F0      		breq .L33
 453               	.LVL39:
 454               	.L32:
 455 0244 0E94 0000 		call isKeyMapping
 456 0248 8823      		tst r24
GAS LISTING C:\Users\ADMINI~1\AppData\Local\Temp/cc9J5r6C.s 			page 9


 457 024a 01F0      		breq .L33
 458               	.LM63:
 459 024c FF20      		tst r15
 460 024e 01F0      		breq .L34
 461               	.LM64:
 462 0250 802F      		mov r24,r16
 463 0252 6B2D      		mov r22,r11
 464 0254 4A2D      		mov r20,r10
 465 0256 21E0      		ldi r18,lo8(1)
 466 0258 0E94 0000 		call putKeyCode
 467 025c 81E0      		ldi r24,lo8(1)
 468 025e 8983      		std Y+1,r24
 469               	.LVL40:
 470 0260 00C0      		rjmp .L35
 471               	.L34:
 472               	.LM65:
 473 0262 802F      		mov r24,r16
 474 0264 6B2D      		mov r22,r11
 475 0266 4A2D      		mov r20,r10
 476 0268 20E0      		ldi r18,lo8(0)
 477 026a 0E94 0000 		call putKeyCode
 478 026e E1E0      		ldi r30,lo8(1)
 479 0270 E983      		std Y+1,r30
 480               	.LVL41:
 481 0272 00C0      		rjmp .L35
 482               	.L33:
 483               	.LM66:
 484 0274 1123      		tst r17
 485 0276 01F0      		breq .L35
 486               	.LVL42:
 487               	.L29:
 488               	.LM67:
 489 0278 FF20      		tst r15
 490 027a 01F0      		breq .L35
 491               	.LM68:
 492 027c 802F      		mov r24,r16
 493 027e 0E94 0000 		call makeReportBuffer
 494 0282 882E      		mov r8,r24
 495               	.LVL43:
 496               	.L35:
 497 0284 0894      		sec
 498 0286 211C      		adc r2,__zero_reg__
 499 0288 311C      		adc r3,__zero_reg__
 500               	.LM69:
 501 028a F1E1      		ldi r31,lo8(17)
 502 028c 2F16      		cp r2,r31
 503 028e 3104      		cpc r3,__zero_reg__
 504 0290 01F0      		breq .+2
 505 0292 00C0      		rjmp .L36
 506 0294 0894      		sec
 507 0296 C11C      		adc r12,__zero_reg__
 508 0298 D11C      		adc r13,__zero_reg__
 509               	.LM70:
 510 029a 88E0      		ldi r24,lo8(8)
 511 029c C816      		cp r12,r24
 512 029e D104      		cpc r13,__zero_reg__
 513 02a0 01F0      		breq .L37
GAS LISTING C:\Users\ADMINI~1\AppData\Local\Temp/cc9J5r6C.s 			page 10


 514               	.L27:
 515 02a2 BC2C      		mov r11,r12
 516               	.LM71:
 517 02a4 C301      		movw r24,r6
 518 02a6 0C2C      		mov r0,r12
 519 02a8 00C0      		rjmp 2f
 520 02aa 880F      	1:	lsl r24
 521 02ac 991F      		rol r25
 522 02ae 0A94      	2:	dec r0
 523 02b0 02F4      		brpl 1b
 524 02b2 982E      		mov r9,r24
 525 02b4 2224      		clr r2
 526 02b6 3324      		clr r3
 527 02b8 00C0      		rjmp .L36
 528               	.L37:
 529               	.LM72:
 530 02ba 8091 0000 		lds r24,reportBuffer
 531 02be 8130      		cpi r24,lo8(1)
 532 02c0 01F4      		brne .L38
 533 02c2 9091 0000 		lds r25,reportBuffer+1
 534 02c6 8091 0000 		lds r24,prevModifier.2297
 535 02ca 9817      		cp r25,r24
 536 02cc 01F0      		breq .L38
 537               	.LM73:
 538 02ce 892F      		mov r24,r25
 539 02d0 0E94 0000 		call applyKeyMapping
 540               	.LM74:
 541 02d4 8091 0000 		lds r24,reportBuffer+1
 542 02d8 8093 0000 		sts prevModifier.2297,r24
 543               	.L38:
 544               	.LM75:
 545 02dc 8091 0000 		lds r24,_isMultimediaPressed
 546 02e0 8823      		tst r24
 547 02e2 01F0      		breq .L39
 548 02e4 8091 0000 		lds r24,reportBuffer
 549 02e8 8230      		cpi r24,lo8(2)
 550 02ea 01F0      		breq .L39
 551               	.LM76:
 552 02ec 82E0      		ldi r24,lo8(2)
 553 02ee 8093 0000 		sts reportBuffer,r24
 554               	.LM77:
 555 02f2 1092 0000 		sts reportBuffer+1,__zero_reg__
 556               	.LM78:
 557 02f6 1092 0000 		sts reportBuffer+2,__zero_reg__
 558               	.LM79:
 559 02fa 1092 0000 		sts _isMultimediaPressed,__zero_reg__
 560               	.L39:
 561 02fe 20E0      		ldi r18,lo8(0)
 562 0300 30E0      		ldi r19,hi8(0)
 563               	.L43:
 564               	.LM80:
 565 0302 F901      		movw r30,r18
 566 0304 E050      		subi r30,lo8(-(prevMatrix))
 567 0306 F040      		sbci r31,hi8(-(prevMatrix))
 568 0308 D901      		movw r26,r18
 569 030a A050      		subi r26,lo8(-(currentMatrix))
 570 030c B040      		sbci r27,hi8(-(currentMatrix))
GAS LISTING C:\Users\ADMINI~1\AppData\Local\Temp/cc9J5r6C.s 			page 11


 571 030e 8C91      		ld r24,X
 572 0310 8083      		st Z,r24
 573 0312 2F5F      		subi r18,lo8(-(1))
 574 0314 3F4F      		sbci r19,hi8(-(1))
 575               	.LM81:
 576 0316 2131      		cpi r18,17
 577 0318 3105      		cpc r19,__zero_reg__
 578 031a 01F4      		brne .L43
 579               	.LM82:
 580 031c E981      		ldd r30,Y+1
 581 031e E130      		cpi r30,lo8(1)
 582 0320 01F0      		breq .L26
 583               	.LM83:
 584 0322 882D      		mov r24,r8
 585 0324 8160      		ori r24,lo8(1)
 586               	.LVL44:
 587 0326 00C0      		rjmp .L41
 588               	.LVL45:
 589               	.L26:
 590               	.LM84:
 591 0328 80E0      		ldi r24,lo8(0)
 592               	.LVL46:
 593               	.L41:
 594               	.LVL47:
 595               	/* epilogue start */
 596               	.LM85:
 597 032a 0F90      		pop __tmp_reg__
 598 032c CF91      		pop r28
 599 032e DF91      		pop r29
 600 0330 1F91      		pop r17
 601               	.LVL48:
 602 0332 0F91      		pop r16
 603               	.LVL49:
 604 0334 FF90      		pop r15
 605               	.LVL50:
 606 0336 EF90      		pop r14
 607               	.LVL51:
 608 0338 DF90      		pop r13
 609 033a CF90      		pop r12
 610 033c BF90      		pop r11
 611               	.LVL52:
 612 033e AF90      		pop r10
 613               	.LVL53:
 614 0340 9F90      		pop r9
 615 0342 8F90      		pop r8
 616 0344 7F90      		pop r7
 617 0346 6F90      		pop r6
 618 0348 5F90      		pop r5
 619               	.LVL54:
 620 034a 3F90      		pop r3
 621 034c 2F90      		pop r2
 622 034e 0895      		ret
 623               	.LVL55:
 624               	.L30:
 625               	.LM86:
 626 0350 11E0      		ldi r17,lo8(1)
 627               	.LVL56:
GAS LISTING C:\Users\ADMINI~1\AppData\Local\Temp/cc9J5r6C.s 			page 12


 628 0352 00C0      		rjmp .L32
 629               	.LFE14:
 630               		.size	scanKeyUSB, .-scanKeyUSB
 631               	.global	usb_main
 632               		.type	usb_main, @function
 633               	usb_main:
 634               	.LFB17:
 635               	.LM87:
 636 0354 EF92      		push r14
 637 0356 FF92      		push r15
 638 0358 0F93      		push r16
 639 035a 1F93      		push r17
 640               	/* prologue: function */
 641               	/* frame size = 0 */
 642               	.LM88:
 643 035c 0E94 0000 		call usbInit
 644               	.LM89:
 645               	/* #APP */
 646               	 ;  615 "usbmain.c" 1
 647 0360 7894      		sei
 648               	 ;  0 "" 2
 649               	/* #NOAPP */
 650 0362 00E0      		ldi r16,lo8(0)
 651               	.LVL57:
 652 0364 10E0      		ldi r17,lo8(0)
 653               	.LVL58:
 654               	.LM90:
 655 0366 EE24      		clr r14
 656 0368 E394      		inc r14
 657               	.LVL59:
 658               	.L47:
 659               	.LM91:
 660 036a 8091 0000 		lds r24,INTERFACE
 661 036e 8130      		cpi r24,lo8(1)
 662 0370 01F4      		brne .L48
 663 0372 8091 0000 		lds r24,interfaceReady
 664 0376 8823      		tst r24
 665 0378 01F4      		brne .L48
 666 037a 8091 0000 		lds r24,interfaceCount
 667 037e 9091 0000 		lds r25,(interfaceCount)+1
 668 0382 0196      		adiw r24,1
 669 0384 9093 0000 		sts (interfaceCount)+1,r25
 670 0388 8093 0000 		sts interfaceCount,r24
 671 038c 0197      		sbiw r24,1
 672 038e 815D      		subi r24,lo8(2001)
 673 0390 9740      		sbci r25,hi8(2001)
 674 0392 04F0      		brlt .L48
 675               	.LM92:
 676 0394 1092 0000 		sts INTERFACE,__zero_reg__
 677               	.LM93:
 678 0398 8BB7      		in r24,91-32
 679 039a 8F7B      		andi r24,lo8(-65)
 680 039c 8BBF      		out 91-32,r24
 681               	/* epilogue start */
 682               	.LM94:
 683 039e 1F91      		pop r17
 684               	.LVL60:
GAS LISTING C:\Users\ADMINI~1\AppData\Local\Temp/cc9J5r6C.s 			page 13


 685 03a0 0F91      		pop r16
 686               	.LVL61:
 687 03a2 FF90      		pop r15
 688               	.LVL62:
 689 03a4 EF90      		pop r14
 690 03a6 0895      		ret
 691               	.LVL63:
 692               	.L48:
 693               	.LM95:
 694 03a8 0E94 0000 		call usbPoll
 695               	.LM96:
 696 03ac 0023      		tst r16
 697 03ae 01F4      		brne .L49
 698               	.LM97:
 699 03b0 0E94 0000 		call scanKeyUSB
 700 03b4 082F      		mov r16,r24
 701               	.LM98:
 702 03b6 08B6      		in __tmp_reg__,88-32
 703 03b8 00FE      		sbrs __tmp_reg__,0
 704 03ba 00C0      		rjmp .L50
 705               	.LM99:
 706 03bc E8BE      		out 88-32,r14
 707               	.LM100:
 708 03be F090 0000 		lds r15,idleRate
 709               	.LVL64:
 710 03c2 FF20      		tst r15
 711 03c4 01F0      		breq .L50
 712               	.LM101:
 713 03c6 1530      		cpi r17,lo8(5)
 714 03c8 00F4      		brsh .L51
 715               	.LVL65:
 716 03ca 01E0      		ldi r16,lo8(1)
 717 03cc 00C0      		rjmp .L52
 718               	.L51:
 719               	.LM102:
 720 03ce 5BEF      		ldi r21,lo8(-5)
 721 03d0 F52E      		mov r15,r21
 722               	.LVL66:
 723 03d2 F10E      		add r15,r17
 724 03d4 00C0      		rjmp .L52
 725               	.LVL67:
 726               	.L49:
 727               	.LM103:
 728 03d6 0E94 0000 		call scanKeyUSB
 729               	.LVL68:
 730               	.L50:
 731 03da F12E      		mov r15,r17
 732               	.L52:
 733               	.LM104:
 734 03dc 8091 0000 		lds r24,usbTxStatus1
 735 03e0 84FF      		sbrs r24,4
 736 03e2 00C0      		rjmp .L53
 737               	.LM105:
 738 03e4 8091 0000 		lds r24,_isInit
 739 03e8 8823      		tst r24
 740 03ea 01F0      		breq .L54
 741               	.LM106:
GAS LISTING C:\Users\ADMINI~1\AppData\Local\Temp/cc9J5r6C.s 			page 14


 742 03ec 1092 0000 		sts _isInit,__zero_reg__
 743               	.LM107:
 744 03f0 0E94 0000 		call clearReportBuffer
 745               	.LM108:
 746 03f4 80E0      		ldi r24,lo8(reportBuffer)
 747 03f6 90E0      		ldi r25,hi8(reportBuffer)
 748 03f8 68E0      		ldi r22,lo8(8)
 749 03fa 0E94 0000 		call usbSetInterrupt
 750               	.LM109:
 751 03fe 0E94 0000 		call startKeyMappingOnBoot
 752 0402 00C0      		rjmp .L53
 753               	.L54:
 754               	.LM110:
 755 0404 0E94 0000 		call hasMacroUsb
 756 0408 8823      		tst r24
 757 040a 01F0      		breq .L55
 758               	.LM111:
 759 040c 0E94 0000 		call scanMacroUsb
 760               	.LM112:
 761 0410 80E0      		ldi r24,lo8(reportBuffer)
 762 0412 90E0      		ldi r25,hi8(reportBuffer)
 763 0414 68E0      		ldi r22,lo8(8)
 764 0416 0E94 0000 		call usbSetInterrupt
 765 041a 00C0      		rjmp .L53
 766               	.L55:
 767               	.LM113:
 768 041c 0023      		tst r16
 769 041e 01F0      		breq .L53
 770               	.LM114:
 771 0420 8091 0000 		lds r24,reportBuffer
 772 0424 8230      		cpi r24,lo8(2)
 773 0426 01F4      		brne .L56
 774               	.LM115:
 775 0428 80E0      		ldi r24,lo8(reportBuffer)
 776 042a 90E0      		ldi r25,hi8(reportBuffer)
 777 042c 63E0      		ldi r22,lo8(3)
 778 042e 00C0      		rjmp .L62
 779               	.L56:
 780               	.LM116:
 781 0430 8130      		cpi r24,lo8(1)
 782 0432 01F4      		brne .L63
 783               	.L57:
 784               	.LM117:
 785 0434 80E0      		ldi r24,lo8(reportBuffer)
 786 0436 90E0      		ldi r25,hi8(reportBuffer)
 787 0438 68E0      		ldi r22,lo8(8)
 788               	.L62:
 789 043a 0E94 0000 		call usbSetInterrupt
 790               	.L63:
 791 043e 00E0      		ldi r16,lo8(0)
 792               	.L53:
 793               	.LM118:
 794 0440 0E94 0000 		call countSleep
 795               	.LM119:
 796 0444 8091 0000 		lds r24,isBeyondFN
 797 0448 0E94 0000 		call renderLED
 798               	.LM120:
GAS LISTING C:\Users\ADMINI~1\AppData\Local\Temp/cc9J5r6C.s 			page 15


 799 044c 0E94 0000 		call hasMacroUsb
 800 0450 8823      		tst r24
 801 0452 01F0      		breq .L58
 802               	.LM121:
 803 0454 80E0      		ldi r24,lo8(0)
 804 0456 00C0      		rjmp .L61
 805               	.L58:
 806               	.LM122:
 807 0458 81E0      		ldi r24,lo8(1)
 808               	.L61:
 809 045a 0E94 0000 		call setMacroProcessEnd
 810               	.LM123:
 811 045e 1F2D      		mov r17,r15
 812 0460 00C0      		rjmp .L47
 813               	.LFE17:
 814               		.size	usb_main, .-usb_main
 815               	.global	prepareKeyMappingUsb
 816               		.type	prepareKeyMappingUsb, @function
 817               	prepareKeyMappingUsb:
 818               	.LFB11:
 819               	.LM124:
 820               	/* prologue: function */
 821               	/* frame size = 0 */
 822               	.LM125:
 823 0462 80E3      		ldi r24,lo8(48)
 824 0464 E0E0      		ldi r30,lo8(_prevPressedBuffer)
 825 0466 F0E0      		ldi r31,hi8(_prevPressedBuffer)
 826 0468 DF01      		movw r26,r30
 827 046a 1D92      		st X+,__zero_reg__
 828 046c 8A95      	        dec r24
 829 046e 01F4      		brne .-6
 830               	/* epilogue start */
 831               	.LM126:
 832 0470 0895      		ret
 833               	.LFE11:
 834               		.size	prepareKeyMappingUsb, .-prepareKeyMappingUsb
 835               	.global	initInterfaceUsb
 836               		.type	initInterfaceUsb, @function
 837               	initInterfaceUsb:
 838               	.LFB10:
 839               	.LM127:
 840               	/* prologue: function */
 841               	/* frame size = 0 */
 842               	.LM128:
 843 0472 81E0      		ldi r24,lo8(1)
 844 0474 8093 0000 		sts _isInit,r24
 845               	.LM129:
 846 0478 0E94 0000 		call initFullLEDState
 847               	.LM130:
 848 047c 0E94 0000 		call wakeUp
 849               	/* epilogue start */
 850               	.LM131:
 851 0480 0895      		ret
 852               	.LFE10:
 853               		.size	initInterfaceUsb, .-initInterfaceUsb
 854               	.global	usbFunctionSetup
 855               		.type	usbFunctionSetup, @function
GAS LISTING C:\Users\ADMINI~1\AppData\Local\Temp/cc9J5r6C.s 			page 16


 856               	usbFunctionSetup:
 857               	.LFB8:
 858               	.LM132:
 859               	.LVL69:
 860 0482 CF93      		push r28
 861 0484 DF93      		push r29
 862               	/* prologue: function */
 863               	/* frame size = 0 */
 864               	.LM133:
 865 0486 21E0      		ldi r18,lo8(1)
 866 0488 2093 0000 		sts interfaceReady,r18
 867               	.LM134:
 868 048c EC01      		movw r28,r24
 869               	.LVL70:
 870               	.LM135:
 871 048e 8091 0000 		lds r24,reportBuffer
 872 0492 8093 0000 		sts usbMsgPtr,r24
 873 0496 1092 0000 		sts usbMsgPtr+1,__zero_reg__
 874               	.LM136:
 875 049a 8881      		ld r24,Y
 876               	.LVL71:
 877 049c 8076      		andi r24,lo8(96)
 878 049e 8032      		cpi r24,lo8(32)
 879 04a0 01F4      		brne .L69
 880               	.LM137:
 881 04a2 8981      		ldd r24,Y+1
 882 04a4 8130      		cpi r24,lo8(1)
 883 04a6 01F4      		brne .L70
 884 04a8 88E0      		ldi r24,lo8(8)
 885 04aa 00C0      		rjmp .L71
 886               	.L70:
 887               	.LM138:
 888 04ac 8930      		cpi r24,lo8(9)
 889 04ae 01F4      		brne .L72
 890               	.LM139:
 891 04b0 8E81      		ldd r24,Y+6
 892 04b2 9F81      		ldd r25,Y+7
 893 04b4 0297      		sbiw r24,2
 894 04b6 01F4      		brne .L69
 895               	.LM140:
 896 04b8 2093 0000 		sts expectReport,r18
 897 04bc 8FEF      		ldi r24,lo8(-1)
 898 04be 00C0      		rjmp .L71
 899               	.L72:
 900               	.LM141:
 901 04c0 8230      		cpi r24,lo8(2)
 902 04c2 01F4      		brne .L73
 903               	.LM142:
 904 04c4 8091 0000 		lds r24,idleRate
 905 04c8 00C0      		rjmp .L77
 906               	.L73:
 907               	.LM143:
 908 04ca 8A30      		cpi r24,lo8(10)
 909 04cc 01F4      		brne .L74
 910               	.LM144:
 911 04ce 0E94 0000 		call initInterfaceUsb
 912               	.LM145:
GAS LISTING C:\Users\ADMINI~1\AppData\Local\Temp/cc9J5r6C.s 			page 17


 913 04d2 8B81      		ldd r24,Y+3
 914 04d4 8093 0000 		sts idleRate,r24
 915 04d8 00C0      		rjmp .L69
 916               	.L74:
 917               	.LM146:
 918 04da 8330      		cpi r24,lo8(3)
 919 04dc 01F4      		brne .L75
 920               	.LM147:
 921 04de 8B81      		ldd r24,Y+3
 922 04e0 8823      		tst r24
 923 04e2 01F4      		brne .L69
 924               	.LM148:
 925 04e4 1092 0000 		sts protocolVer,__zero_reg__
 926 04e8 00C0      		rjmp .L71
 927               	.L75:
 928               	.LM149:
 929 04ea 8B30      		cpi r24,lo8(11)
 930 04ec 01F4      		brne .L69
 931               	.LM150:
 932 04ee 8091 0000 		lds r24,protocolVer
 933               	.L77:
 934 04f2 8093 0000 		sts usbMsgPtr,r24
 935 04f6 1092 0000 		sts usbMsgPtr+1,__zero_reg__
 936 04fa 81E0      		ldi r24,lo8(1)
 937 04fc 00C0      		rjmp .L71
 938               	.L69:
 939               	.LM151:
 940 04fe 80E0      		ldi r24,lo8(0)
 941               	.L71:
 942               	/* epilogue start */
 943               	.LM152:
 944 0500 DF91      		pop r29
 945 0502 CF91      		pop r28
 946               	.LVL72:
 947 0504 0895      		ret
 948               	.LFE8:
 949               		.size	usbFunctionSetup, .-usbFunctionSetup
 950               	.global	usbFunctionWrite
 951               		.type	usbFunctionWrite, @function
 952               	usbFunctionWrite:
 953               	.LFB9:
 954               	.LM153:
 955               	.LVL73:
 956               	/* prologue: function */
 957               	/* frame size = 0 */
 958 0506 FC01      		movw r30,r24
 959               	.LM154:
 960 0508 8091 0000 		lds r24,expectReport
 961               	.LVL74:
 962 050c 8823      		tst r24
 963 050e 01F0      		breq .L79
 964 0510 6230      		cpi r22,lo8(2)
 965 0512 01F4      		brne .L79
 966 0514 8081      		ld r24,Z
 967 0516 8130      		cpi r24,lo8(1)
 968 0518 01F4      		brne .L79
 969               	.LM155:
GAS LISTING C:\Users\ADMINI~1\AppData\Local\Temp/cc9J5r6C.s 			page 18


 970 051a 8181      		ldd r24,Z+1
 971 051c 0E94 0000 		call setLEDState
 972               	.LVL75:
 973               	.LM156:
 974 0520 0E94 0000 		call setLEDIndicate
 975               	.LVL76:
 976               	.L79:
 977               	.LM157:
 978 0524 1092 0000 		sts expectReport,__zero_reg__
 979               	.LM158:
 980 0528 81E0      		ldi r24,lo8(1)
 981               	/* epilogue start */
 982 052a 0895      		ret
 983               	.LFE9:
 984               		.size	usbFunctionWrite, .-usbFunctionWrite
 985               	.global	usbDescriptorHidReport
 986               		.section	.progmem.data,"a",@progbits
 987               		.type	usbDescriptorHidReport, @object
 988               		.size	usbDescriptorHidReport, 85
 989               	usbDescriptorHidReport:
 990 0000 05        		.byte	5
 991 0001 01        		.byte	1
 992 0002 09        		.byte	9
 993 0003 06        		.byte	6
 994 0004 A1        		.byte	-95
 995 0005 01        		.byte	1
 996 0006 85        		.byte	-123
 997 0007 01        		.byte	1
 998 0008 05        		.byte	5
 999 0009 07        		.byte	7
 1000 000a 19        		.byte	25
 1001 000b E0        		.byte	-32
 1002 000c 29        		.byte	41
 1003 000d E7        		.byte	-25
 1004 000e 15        		.byte	21
 1005 000f 00        		.byte	0
 1006 0010 25        		.byte	37
 1007 0011 01        		.byte	1
 1008 0012 75        		.byte	117
 1009 0013 01        		.byte	1
 1010 0014 95        		.byte	-107
 1011 0015 08        		.byte	8
 1012 0016 81        		.byte	-127
 1013 0017 02        		.byte	2
 1014 0018 95        		.byte	-107
 1015 0019 05        		.byte	5
 1016 001a 75        		.byte	117
 1017 001b 01        		.byte	1
 1018 001c 05        		.byte	5
 1019 001d 08        		.byte	8
 1020 001e 19        		.byte	25
 1021 001f 01        		.byte	1
 1022 0020 29        		.byte	41
 1023 0021 05        		.byte	5
 1024 0022 91        		.byte	-111
 1025 0023 02        		.byte	2
 1026 0024 95        		.byte	-107
GAS LISTING C:\Users\ADMINI~1\AppData\Local\Temp/cc9J5r6C.s 			page 19


 1027 0025 01        		.byte	1
 1028 0026 75        		.byte	117
 1029 0027 03        		.byte	3
 1030 0028 91        		.byte	-111
 1031 0029 03        		.byte	3
 1032 002a 95        		.byte	-107
 1033 002b 06        		.byte	6
 1034 002c 75        		.byte	117
 1035 002d 08        		.byte	8
 1036 002e 15        		.byte	21
 1037 002f 00        		.byte	0
 1038 0030 26        		.byte	38
 1039 0031 91        		.byte	-111
 1040 0032 00        		.byte	0
 1041 0033 05        		.byte	5
 1042 0034 07        		.byte	7
 1043 0035 19        		.byte	25
 1044 0036 00        		.byte	0
 1045 0037 29        		.byte	41
 1046 0038 A4        		.byte	-92
 1047 0039 81        		.byte	-127
 1048 003a 00        		.byte	0
 1049 003b C0        		.byte	-64
 1050 003c 05        		.byte	5
 1051 003d 0C        		.byte	12
 1052 003e 09        		.byte	9
 1053 003f 01        		.byte	1
 1054 0040 A1        		.byte	-95
 1055 0041 01        		.byte	1
 1056 0042 85        		.byte	-123
 1057 0043 02        		.byte	2
 1058 0044 19        		.byte	25
 1059 0045 00        		.byte	0
 1060 0046 2A        		.byte	42
 1061 0047 3C        		.byte	60
 1062 0048 02        		.byte	2
 1063 0049 15        		.byte	21
 1064 004a 00        		.byte	0
 1065 004b 26        		.byte	38
 1066 004c 3C        		.byte	60
 1067 004d 02        		.byte	2
 1068 004e 95        		.byte	-107
 1069 004f 01        		.byte	1
 1070 0050 75        		.byte	117
 1071 0051 10        		.byte	16
 1072 0052 81        		.byte	-127
 1073 0053 00        		.byte	0
 1074 0054 C0        		.byte	-64
 1075               	.global	_isMultimediaPressed
 1076               	.global	_isMultimediaPressed
 1077               		.section .bss
 1078               		.type	_isMultimediaPressed, @object
 1079               		.size	_isMultimediaPressed, 1
 1080               	_isMultimediaPressed:
 1081 0000 00        		.skip 1,0
 1082               		.lcomm _isInit,1
 1083               		.lcomm _needRelease,1
GAS LISTING C:\Users\ADMINI~1\AppData\Local\Temp/cc9J5r6C.s 			page 20


 1084               		.lcomm prevModifier.2297,1
 1085               		.lcomm expectReport,1
 1086               		.data
 1087               		.type	protocolVer, @object
 1088               		.size	protocolVer, 1
 1089               	protocolVer:
 1090 0000 01        		.byte	1
 1091               		.lcomm reportBuffer,8
 1092               		.lcomm idleRate,1
 1093               		.lcomm _prevPressedBuffer,48
 1094               		.comm reportIndex,1,1
 1095               		.section	.debug_frame,"",@progbits
 1096               	.Lframe0:
 1097 0000 0C00 0000 		.long	.LECIE0-.LSCIE0
 1098               	.LSCIE0:
 1099 0004 FFFF FFFF 		.long	0xffffffff
 1100 0008 01        		.byte	0x1
 1101 0009 00        		.string	""
 1102 000a 01        		.uleb128 0x1
 1103 000b 7F        		.sleb128 -1
 1104 000c 24        		.byte	0x24
 1105 000d 0C        		.byte	0xc
 1106 000e 20        		.uleb128 0x20
 1107 000f 00        		.uleb128 0x0
 1108               		.p2align	2
 1109               	.LECIE0:
 1110               	.LSFDE0:
 1111 0010 0C00 0000 		.long	.LEFDE0-.LASFDE0
 1112               	.LASFDE0:
 1113 0014 0000 0000 		.long	.Lframe0
 1114 0018 0000 0000 		.long	.LFB12
 1115 001c 9000 0000 		.long	.LFE12-.LFB12
 1116               		.p2align	2
 1117               	.LEFDE0:
 1118               	.LSFDE2:
 1119 0020 0C00 0000 		.long	.LEFDE2-.LASFDE2
 1120               	.LASFDE2:
 1121 0024 0000 0000 		.long	.Lframe0
 1122 0028 0000 0000 		.long	.LFB16
 1123 002c 1C00 0000 		.long	.LFE16-.LFB16
 1124               		.p2align	2
 1125               	.LEFDE2:
 1126               	.LSFDE4:
 1127 0030 0C00 0000 		.long	.LEFDE4-.LASFDE4
 1128               	.LASFDE4:
 1129 0034 0000 0000 		.long	.Lframe0
 1130 0038 0000 0000 		.long	.LFB13
 1131 003c 1600 0000 		.long	.LFE13-.LFB13
 1132               		.p2align	2
 1133               	.LEFDE4:
 1134               	.LSFDE6:
 1135 0040 0C00 0000 		.long	.LEFDE6-.LASFDE6
 1136               	.LASFDE6:
 1137 0044 0000 0000 		.long	.Lframe0
 1138 0048 0000 0000 		.long	.LFB15
 1139 004c CE00 0000 		.long	.LFE15-.LFB15
 1140               		.p2align	2
GAS LISTING C:\Users\ADMINI~1\AppData\Local\Temp/cc9J5r6C.s 			page 21


 1141               	.LEFDE6:
 1142               	.LSFDE8:
 1143 0050 0C00 0000 		.long	.LEFDE8-.LASFDE8
 1144               	.LASFDE8:
 1145 0054 0000 0000 		.long	.Lframe0
 1146 0058 0000 0000 		.long	.LFB14
 1147 005c C401 0000 		.long	.LFE14-.LFB14
 1148               		.p2align	2
 1149               	.LEFDE8:
 1150               	.LSFDE10:
 1151 0060 0C00 0000 		.long	.LEFDE10-.LASFDE10
 1152               	.LASFDE10:
 1153 0064 0000 0000 		.long	.Lframe0
 1154 0068 0000 0000 		.long	.LFB17
 1155 006c 0E01 0000 		.long	.LFE17-.LFB17
 1156               		.p2align	2
 1157               	.LEFDE10:
 1158               	.LSFDE12:
 1159 0070 0C00 0000 		.long	.LEFDE12-.LASFDE12
 1160               	.LASFDE12:
 1161 0074 0000 0000 		.long	.Lframe0
 1162 0078 0000 0000 		.long	.LFB11
 1163 007c 1000 0000 		.long	.LFE11-.LFB11
 1164               		.p2align	2
 1165               	.LEFDE12:
 1166               	.LSFDE14:
 1167 0080 0C00 0000 		.long	.LEFDE14-.LASFDE14
 1168               	.LASFDE14:
 1169 0084 0000 0000 		.long	.Lframe0
 1170 0088 0000 0000 		.long	.LFB10
 1171 008c 1000 0000 		.long	.LFE10-.LFB10
 1172               		.p2align	2
 1173               	.LEFDE14:
 1174               	.LSFDE16:
 1175 0090 0C00 0000 		.long	.LEFDE16-.LASFDE16
 1176               	.LASFDE16:
 1177 0094 0000 0000 		.long	.Lframe0
 1178 0098 0000 0000 		.long	.LFB8
 1179 009c 8400 0000 		.long	.LFE8-.LFB8
 1180               		.p2align	2
 1181               	.LEFDE16:
 1182               	.LSFDE18:
 1183 00a0 0C00 0000 		.long	.LEFDE18-.LASFDE18
 1184               	.LASFDE18:
 1185 00a4 0000 0000 		.long	.Lframe0
 1186 00a8 0000 0000 		.long	.LFB9
 1187 00ac 2600 0000 		.long	.LFE9-.LFB9
 1188               		.p2align	2
 1189               	.LEFDE18:
 1190               		.text
 1191               	.Letext0:
 1192               		.section	.debug_loc,"",@progbits
 1193               	.Ldebug_loc0:
 1194               	.LLST1:
 1195 0000 0000 0000 		.long	.LVL0-.Ltext0
 1196 0004 0A00 0000 		.long	.LVL1-.Ltext0
 1197 0008 0100      		.word	0x1
GAS LISTING C:\Users\ADMINI~1\AppData\Local\Temp/cc9J5r6C.s 			page 22


 1198 000a 68        		.byte	0x68
 1199 000b 0A00 0000 		.long	.LVL1-.Ltext0
 1200 000f 4000 0000 		.long	.LVL8-.Ltext0
 1201 0013 0100      		.word	0x1
 1202 0015 69        		.byte	0x69
 1203 0016 4000 0000 		.long	.LVL8-.Ltext0
 1204 001a 5600 0000 		.long	.LVL11-.Ltext0
 1205 001e 0600      		.word	0x6
 1206 0020 6E        		.byte	0x6e
 1207 0021 93        		.byte	0x93
 1208 0022 01        		.uleb128 0x1
 1209 0023 6F        		.byte	0x6f
 1210 0024 93        		.byte	0x93
 1211 0025 01        		.uleb128 0x1
 1212 0026 5600 0000 		.long	.LVL11-.Ltext0
 1213 002a 8C00 0000 		.long	.LVL18-.Ltext0
 1214 002e 0100      		.word	0x1
 1215 0030 69        		.byte	0x69
 1216 0031 8C00 0000 		.long	.LVL18-.Ltext0
 1217 0035 9000 0000 		.long	.LFE12-.Ltext0
 1218 0039 0600      		.word	0x6
 1219 003b 69        		.byte	0x69
 1220 003c 93        		.byte	0x93
 1221 003d 01        		.uleb128 0x1
 1222 003e 6F        		.byte	0x6f
 1223 003f 93        		.byte	0x93
 1224 0040 01        		.uleb128 0x1
 1225 0041 0000 0000 		.long	0x0
 1226 0045 0000 0000 		.long	0x0
 1227               	.LLST2:
 1228 0049 1800 0000 		.long	.LVL3-.Ltext0
 1229 004d 3400 0000 		.long	.LVL7-.Ltext0
 1230 0051 0600      		.word	0x6
 1231 0053 6E        		.byte	0x6e
 1232 0054 93        		.byte	0x93
 1233 0055 01        		.uleb128 0x1
 1234 0056 6F        		.byte	0x6f
 1235 0057 93        		.byte	0x93
 1236 0058 01        		.uleb128 0x1
 1237 0059 8C00 0000 		.long	.LVL18-.Ltext0
 1238 005d 9000 0000 		.long	.LFE12-.Ltext0
 1239 0061 0600      		.word	0x6
 1240 0063 6E        		.byte	0x6e
 1241 0064 93        		.byte	0x93
 1242 0065 01        		.uleb128 0x1
 1243 0066 6F        		.byte	0x6f
 1244 0067 93        		.byte	0x93
 1245 0068 01        		.uleb128 0x1
 1246 0069 0000 0000 		.long	0x0
 1247 006d 0000 0000 		.long	0x0
 1248               	.LLST3:
 1249 0071 2400 0000 		.long	.LVL5-.Ltext0
 1250 0075 3400 0000 		.long	.LVL7-.Ltext0
 1251 0079 0600      		.word	0x6
 1252 007b 62        		.byte	0x62
 1253 007c 93        		.byte	0x93
 1254 007d 01        		.uleb128 0x1
GAS LISTING C:\Users\ADMINI~1\AppData\Local\Temp/cc9J5r6C.s 			page 23


 1255 007e 63        		.byte	0x63
 1256 007f 93        		.byte	0x93
 1257 0080 01        		.uleb128 0x1
 1258 0081 8C00 0000 		.long	.LVL18-.Ltext0
 1259 0085 9000 0000 		.long	.LFE12-.Ltext0
 1260 0089 0600      		.word	0x6
 1261 008b 62        		.byte	0x62
 1262 008c 93        		.byte	0x93
 1263 008d 01        		.uleb128 0x1
 1264 008e 63        		.byte	0x63
 1265 008f 93        		.byte	0x93
 1266 0090 01        		.uleb128 0x1
 1267 0091 0000 0000 		.long	0x0
 1268 0095 0000 0000 		.long	0x0
 1269               	.LLST4:
 1270 0099 6E00 0000 		.long	.LVL13-.Ltext0
 1271 009d 7E00 0000 		.long	.LVL16-.Ltext0
 1272 00a1 0600      		.word	0x6
 1273 00a3 6E        		.byte	0x6e
 1274 00a4 93        		.byte	0x93
 1275 00a5 01        		.uleb128 0x1
 1276 00a6 6F        		.byte	0x6f
 1277 00a7 93        		.byte	0x93
 1278 00a8 01        		.uleb128 0x1
 1279 00a9 0000 0000 		.long	0x0
 1280 00ad 0000 0000 		.long	0x0
 1281               	.LLST5:
 1282 00b1 7A00 0000 		.long	.LVL15-.Ltext0
 1283 00b5 8E00 0000 		.long	.LVL19-.Ltext0
 1284 00b9 0600      		.word	0x6
 1285 00bb 68        		.byte	0x68
 1286 00bc 93        		.byte	0x93
 1287 00bd 01        		.uleb128 0x1
 1288 00be 69        		.byte	0x69
 1289 00bf 93        		.byte	0x93
 1290 00c0 01        		.uleb128 0x1
 1291 00c1 0000 0000 		.long	0x0
 1292 00c5 0000 0000 		.long	0x0
 1293               	.LLST9:
 1294 00c9 0201 0000 		.long	.LVL20-.Ltext0
 1295 00cd 0401 0000 		.long	.LVL21-.Ltext0
 1296 00d1 0100      		.word	0x1
 1297 00d3 5E        		.byte	0x5e
 1298 00d4 0401 0000 		.long	.LVL21-.Ltext0
 1299 00d8 6A01 0000 		.long	.LVL23-.Ltext0
 1300 00dc 0600      		.word	0x6
 1301 00de 5E        		.byte	0x5e
 1302 00df 93        		.byte	0x93
 1303 00e0 01        		.uleb128 0x1
 1304 00e1 5F        		.byte	0x5f
 1305 00e2 93        		.byte	0x93
 1306 00e3 01        		.uleb128 0x1
 1307 00e4 7A01 0000 		.long	.LVL24-.Ltext0
 1308 00e8 8401 0000 		.long	.LVL26-.Ltext0
 1309 00ec 0600      		.word	0x6
 1310 00ee 5E        		.byte	0x5e
 1311 00ef 93        		.byte	0x93
GAS LISTING C:\Users\ADMINI~1\AppData\Local\Temp/cc9J5r6C.s 			page 24


 1312 00f0 01        		.uleb128 0x1
 1313 00f1 5F        		.byte	0x5f
 1314 00f2 93        		.byte	0x93
 1315 00f3 01        		.uleb128 0x1
 1316 00f4 8401 0000 		.long	.LVL26-.Ltext0
 1317 00f8 8601 0000 		.long	.LVL27-.Ltext0
 1318 00fc 0100      		.word	0x1
 1319 00fe 5E        		.byte	0x5e
 1320 00ff 0000 0000 		.long	0x0
 1321 0103 0000 0000 		.long	0x0
 1322               	.LLST10:
 1323 0107 1401 0000 		.long	.LVL22-.Ltext0
 1324 010b 6A01 0000 		.long	.LVL23-.Ltext0
 1325 010f 0100      		.word	0x1
 1326 0111 61        		.byte	0x61
 1327 0112 7A01 0000 		.long	.LVL24-.Ltext0
 1328 0116 8201 0000 		.long	.LVL25-.Ltext0
 1329 011a 0100      		.word	0x1
 1330 011c 61        		.byte	0x61
 1331 011d 0000 0000 		.long	0x0
 1332 0121 0000 0000 		.long	0x0
 1333               	.LLST12:
 1334 0125 D401 0000 		.long	.LVL29-.Ltext0
 1335 0129 2603 0000 		.long	.LVL44-.Ltext0
 1336 012d 0100      		.word	0x1
 1337 012f 58        		.byte	0x58
 1338 0130 2603 0000 		.long	.LVL44-.Ltext0
 1339 0134 2803 0000 		.long	.LVL45-.Ltext0
 1340 0138 0100      		.word	0x1
 1341 013a 68        		.byte	0x68
 1342 013b 2803 0000 		.long	.LVL45-.Ltext0
 1343 013f 2A03 0000 		.long	.LVL46-.Ltext0
 1344 0143 0100      		.word	0x1
 1345 0145 58        		.byte	0x58
 1346 0146 2A03 0000 		.long	.LVL46-.Ltext0
 1347 014a 2A03 0000 		.long	.LVL47-.Ltext0
 1348 014e 0100      		.word	0x1
 1349 0150 68        		.byte	0x68
 1350 0151 5003 0000 		.long	.LVL55-.Ltext0
 1351 0155 5403 0000 		.long	.LFE14-.Ltext0
 1352 0159 0100      		.word	0x1
 1353 015b 58        		.byte	0x58
 1354 015c 0000 0000 		.long	0x0
 1355 0160 0000 0000 		.long	0x0
 1356               	.LLST13:
 1357 0164 E201 0000 		.long	.LVL31-.Ltext0
 1358 0168 4003 0000 		.long	.LVL53-.Ltext0
 1359 016c 0100      		.word	0x1
 1360 016e 5A        		.byte	0x5a
 1361 016f 5003 0000 		.long	.LVL55-.Ltext0
 1362 0173 5403 0000 		.long	.LFE14-.Ltext0
 1363 0177 0100      		.word	0x1
 1364 0179 5A        		.byte	0x5a
 1365 017a 0000 0000 		.long	0x0
 1366 017e 0000 0000 		.long	0x0
 1367               	.LLST14:
 1368 0182 E201 0000 		.long	.LVL31-.Ltext0
GAS LISTING C:\Users\ADMINI~1\AppData\Local\Temp/cc9J5r6C.s 			page 25


 1369 0186 3E03 0000 		.long	.LVL52-.Ltext0
 1370 018a 0100      		.word	0x1
 1371 018c 5B        		.byte	0x5b
 1372 018d 5003 0000 		.long	.LVL55-.Ltext0
 1373 0191 5403 0000 		.long	.LFE14-.Ltext0
 1374 0195 0100      		.word	0x1
 1375 0197 5B        		.byte	0x5b
 1376 0198 0000 0000 		.long	0x0
 1377 019c 0000 0000 		.long	0x0
 1378               	.LLST15:
 1379 01a0 E201 0000 		.long	.LVL31-.Ltext0
 1380 01a4 3803 0000 		.long	.LVL51-.Ltext0
 1381 01a8 0100      		.word	0x1
 1382 01aa 5E        		.byte	0x5e
 1383 01ab 5003 0000 		.long	.LVL55-.Ltext0
 1384 01af 5403 0000 		.long	.LFE14-.Ltext0
 1385 01b3 0100      		.word	0x1
 1386 01b5 5E        		.byte	0x5e
 1387 01b6 0000 0000 		.long	0x0
 1388 01ba 0000 0000 		.long	0x0
 1389               	.LLST16:
 1390 01be E201 0000 		.long	.LVL31-.Ltext0
 1391 01c2 3603 0000 		.long	.LVL50-.Ltext0
 1392 01c6 0100      		.word	0x1
 1393 01c8 5F        		.byte	0x5f
 1394 01c9 5003 0000 		.long	.LVL55-.Ltext0
 1395 01cd 5403 0000 		.long	.LFE14-.Ltext0
 1396 01d1 0100      		.word	0x1
 1397 01d3 5F        		.byte	0x5f
 1398 01d4 0000 0000 		.long	0x0
 1399 01d8 0000 0000 		.long	0x0
 1400               	.LLST17:
 1401 01dc E201 0000 		.long	.LVL31-.Ltext0
 1402 01e0 0A02 0000 		.long	.LVL33-.Ltext0
 1403 01e4 0100      		.word	0x1
 1404 01e6 60        		.byte	0x60
 1405 01e7 0A02 0000 		.long	.LVL33-.Ltext0
 1406 01eb 0E02 0000 		.long	.LVL34-.Ltext0
 1407 01ef 0100      		.word	0x1
 1408 01f1 68        		.byte	0x68
 1409 01f2 0E02 0000 		.long	.LVL34-.Ltext0
 1410 01f6 3403 0000 		.long	.LVL49-.Ltext0
 1411 01fa 0100      		.word	0x1
 1412 01fc 60        		.byte	0x60
 1413 01fd 5003 0000 		.long	.LVL55-.Ltext0
 1414 0201 5403 0000 		.long	.LFE14-.Ltext0
 1415 0205 0100      		.word	0x1
 1416 0207 60        		.byte	0x60
 1417 0208 0000 0000 		.long	0x0
 1418 020c 0000 0000 		.long	0x0
 1419               	.LLST18:
 1420 0210 E201 0000 		.long	.LVL31-.Ltext0
 1421 0214 EC01 0000 		.long	.LVL32-.Ltext0
 1422 0218 0100      		.word	0x1
 1423 021a 61        		.byte	0x61
 1424 021b 3002 0000 		.long	.LVL36-.Ltext0
 1425 021f 3602 0000 		.long	.LVL37-.Ltext0
GAS LISTING C:\Users\ADMINI~1\AppData\Local\Temp/cc9J5r6C.s 			page 26


 1426 0223 0100      		.word	0x1
 1427 0225 61        		.byte	0x61
 1428 0226 4002 0000 		.long	.LVL38-.Ltext0
 1429 022a 3203 0000 		.long	.LVL48-.Ltext0
 1430 022e 0100      		.word	0x1
 1431 0230 61        		.byte	0x61
 1432 0231 5203 0000 		.long	.LVL56-.Ltext0
 1433 0235 5403 0000 		.long	.LFE14-.Ltext0
 1434 0239 0100      		.word	0x1
 1435 023b 61        		.byte	0x61
 1436 023c 0000 0000 		.long	0x0
 1437 0240 0000 0000 		.long	0x0
 1438               	.LLST19:
 1439 0244 C801 0000 		.long	.LVL28-.Ltext0
 1440 0248 4A03 0000 		.long	.LVL54-.Ltext0
 1441 024c 0100      		.word	0x1
 1442 024e 55        		.byte	0x55
 1443 024f 5003 0000 		.long	.LVL55-.Ltext0
 1444 0253 5403 0000 		.long	.LFE14-.Ltext0
 1445 0257 0100      		.word	0x1
 1446 0259 55        		.byte	0x55
 1447 025a 0000 0000 		.long	0x0
 1448 025e 0000 0000 		.long	0x0
 1449               	.LLST21:
 1450 0262 6403 0000 		.long	.LVL57-.Ltext0
 1451 0266 A203 0000 		.long	.LVL61-.Ltext0
 1452 026a 0100      		.word	0x1
 1453 026c 60        		.byte	0x60
 1454 026d A803 0000 		.long	.LVL63-.Ltext0
 1455 0271 6204 0000 		.long	.LFE17-.Ltext0
 1456 0275 0100      		.word	0x1
 1457 0277 60        		.byte	0x60
 1458 0278 0000 0000 		.long	0x0
 1459 027c 0000 0000 		.long	0x0
 1460               	.LLST22:
 1461 0280 6603 0000 		.long	.LVL58-.Ltext0
 1462 0284 A003 0000 		.long	.LVL60-.Ltext0
 1463 0288 0100      		.word	0x1
 1464 028a 61        		.byte	0x61
 1465 028b A003 0000 		.long	.LVL60-.Ltext0
 1466 028f A403 0000 		.long	.LVL62-.Ltext0
 1467 0293 0100      		.word	0x1
 1468 0295 5F        		.byte	0x5f
 1469 0296 A803 0000 		.long	.LVL63-.Ltext0
 1470 029a C203 0000 		.long	.LVL64-.Ltext0
 1471 029e 0100      		.word	0x1
 1472 02a0 61        		.byte	0x61
 1473 02a1 C203 0000 		.long	.LVL64-.Ltext0
 1474 02a5 CA03 0000 		.long	.LVL65-.Ltext0
 1475 02a9 0100      		.word	0x1
 1476 02ab 5F        		.byte	0x5f
 1477 02ac CA03 0000 		.long	.LVL65-.Ltext0
 1478 02b0 D203 0000 		.long	.LVL66-.Ltext0
 1479 02b4 0100      		.word	0x1
 1480 02b6 61        		.byte	0x61
 1481 02b7 D203 0000 		.long	.LVL66-.Ltext0
 1482 02bb D603 0000 		.long	.LVL67-.Ltext0
GAS LISTING C:\Users\ADMINI~1\AppData\Local\Temp/cc9J5r6C.s 			page 27


 1483 02bf 0100      		.word	0x1
 1484 02c1 5F        		.byte	0x5f
 1485 02c2 D603 0000 		.long	.LVL67-.Ltext0
 1486 02c6 DA03 0000 		.long	.LVL68-.Ltext0
 1487 02ca 0100      		.word	0x1
 1488 02cc 61        		.byte	0x61
 1489 02cd DA03 0000 		.long	.LVL68-.Ltext0
 1490 02d1 6204 0000 		.long	.LFE17-.Ltext0
 1491 02d5 0100      		.word	0x1
 1492 02d7 5F        		.byte	0x5f
 1493 02d8 0000 0000 		.long	0x0
 1494 02dc 0000 0000 		.long	0x0
 1495               	.LLST26:
 1496 02e0 8204 0000 		.long	.LVL69-.Ltext0
 1497 02e4 8E04 0000 		.long	.LVL70-.Ltext0
 1498 02e8 0600      		.word	0x6
 1499 02ea 68        		.byte	0x68
 1500 02eb 93        		.byte	0x93
 1501 02ec 01        		.uleb128 0x1
 1502 02ed 69        		.byte	0x69
 1503 02ee 93        		.byte	0x93
 1504 02ef 01        		.uleb128 0x1
 1505 02f0 0000 0000 		.long	0x0
 1506 02f4 0000 0000 		.long	0x0
 1507               	.LLST27:
 1508 02f8 9C04 0000 		.long	.LVL71-.Ltext0
 1509 02fc 0405 0000 		.long	.LVL72-.Ltext0
 1510 0300 0600      		.word	0x6
 1511 0302 6C        		.byte	0x6c
 1512 0303 93        		.byte	0x93
 1513 0304 01        		.uleb128 0x1
 1514 0305 6D        		.byte	0x6d
 1515 0306 93        		.byte	0x93
 1516 0307 01        		.uleb128 0x1
 1517 0308 0000 0000 		.long	0x0
 1518 030c 0000 0000 		.long	0x0
 1519               	.LLST29:
 1520 0310 0605 0000 		.long	.LVL73-.Ltext0
 1521 0314 0C05 0000 		.long	.LVL74-.Ltext0
 1522 0318 0600      		.word	0x6
 1523 031a 68        		.byte	0x68
 1524 031b 93        		.byte	0x93
 1525 031c 01        		.uleb128 0x1
 1526 031d 69        		.byte	0x69
 1527 031e 93        		.byte	0x93
 1528 031f 01        		.uleb128 0x1
 1529 0320 0C05 0000 		.long	.LVL74-.Ltext0
 1530 0324 2005 0000 		.long	.LVL75-.Ltext0
 1531 0328 0600      		.word	0x6
 1532 032a 6E        		.byte	0x6e
 1533 032b 93        		.byte	0x93
 1534 032c 01        		.uleb128 0x1
 1535 032d 6F        		.byte	0x6f
 1536 032e 93        		.byte	0x93
 1537 032f 01        		.uleb128 0x1
 1538 0330 2405 0000 		.long	.LVL76-.Ltext0
 1539 0334 2C05 0000 		.long	.LFE9-.Ltext0
GAS LISTING C:\Users\ADMINI~1\AppData\Local\Temp/cc9J5r6C.s 			page 28


 1540 0338 0600      		.word	0x6
 1541 033a 6E        		.byte	0x6e
 1542 033b 93        		.byte	0x93
 1543 033c 01        		.uleb128 0x1
 1544 033d 6F        		.byte	0x6f
 1545 033e 93        		.byte	0x93
 1546 033f 01        		.uleb128 0x1
 1547 0340 0000 0000 		.long	0x0
 1548 0344 0000 0000 		.long	0x0
 1549               	.LLST30:
 1550 0348 0605 0000 		.long	.LVL73-.Ltext0
 1551 034c 2005 0000 		.long	.LVL75-.Ltext0
 1552 0350 0100      		.word	0x1
 1553 0352 66        		.byte	0x66
 1554 0353 2405 0000 		.long	.LVL76-.Ltext0
 1555 0357 2C05 0000 		.long	.LFE9-.Ltext0
 1556 035b 0100      		.word	0x1
 1557 035d 66        		.byte	0x66
 1558 035e 0000 0000 		.long	0x0
 1559 0362 0000 0000 		.long	0x0
 1560               		.section	.debug_info
 1561 0000 DB09 0000 		.long	0x9db
 1562 0004 0200      		.word	0x2
 1563 0006 0000 0000 		.long	.Ldebug_abbrev0
 1564 000a 04        		.byte	0x4
 1565 000b 01        		.uleb128 0x1
 1566 000c 0000 0000 		.long	.LASF214
 1567 0010 01        		.byte	0x1
 1568 0011 0000 0000 		.long	.LASF215
 1569 0015 0000 0000 		.long	.LASF216
 1570 0019 0000 0000 		.long	.Ltext0
 1571 001d 0000 0000 		.long	.Letext0
 1572 0021 0000 0000 		.long	.Ldebug_line0
 1573 0025 02        		.uleb128 0x2
 1574 0026 01        		.byte	0x1
 1575 0027 08        		.byte	0x8
 1576 0028 0000 0000 		.long	.LASF0
 1577 002c 02        		.uleb128 0x2
 1578 002d 01        		.byte	0x1
 1579 002e 06        		.byte	0x6
 1580 002f 0000 0000 		.long	.LASF1
 1581 0033 02        		.uleb128 0x2
 1582 0034 02        		.byte	0x2
 1583 0035 07        		.byte	0x7
 1584 0036 0000 0000 		.long	.LASF2
 1585 003a 02        		.uleb128 0x2
 1586 003b 02        		.byte	0x2
 1587 003c 05        		.byte	0x5
 1588 003d 0000 0000 		.long	.LASF3
 1589 0041 02        		.uleb128 0x2
 1590 0042 04        		.byte	0x4
 1591 0043 07        		.byte	0x7
 1592 0044 0000 0000 		.long	.LASF4
 1593 0048 02        		.uleb128 0x2
 1594 0049 04        		.byte	0x4
 1595 004a 05        		.byte	0x5
 1596 004b 0000 0000 		.long	.LASF5
GAS LISTING C:\Users\ADMINI~1\AppData\Local\Temp/cc9J5r6C.s 			page 29


 1597 004f 02        		.uleb128 0x2
 1598 0050 08        		.byte	0x8
 1599 0051 07        		.byte	0x7
 1600 0052 0000 0000 		.long	.LASF6
 1601 0056 02        		.uleb128 0x2
 1602 0057 08        		.byte	0x8
 1603 0058 05        		.byte	0x5
 1604 0059 0000 0000 		.long	.LASF7
 1605 005d 02        		.uleb128 0x2
 1606 005e 02        		.byte	0x2
 1607 005f 07        		.byte	0x7
 1608 0060 0000 0000 		.long	.LASF8
 1609 0064 02        		.uleb128 0x2
 1610 0065 01        		.byte	0x1
 1611 0066 06        		.byte	0x6
 1612 0067 0000 0000 		.long	.LASF9
 1613 006b 03        		.uleb128 0x3
 1614 006c 02        		.byte	0x2
 1615 006d 05        		.byte	0x5
 1616 006e 696E 7400 		.string	"int"
 1617 0072 04        		.uleb128 0x4
 1618 0073 0000 0000 		.long	.LASF10
 1619 0077 02        		.byte	0x2
 1620 0078 7A        		.byte	0x7a
 1621 0079 2500 0000 		.long	0x25
 1622 007d 04        		.uleb128 0x4
 1623 007e 0000 0000 		.long	.LASF11
 1624 0082 02        		.byte	0x2
 1625 0083 7C        		.byte	0x7c
 1626 0084 5D00 0000 		.long	0x5d
 1627 0088 05        		.uleb128 0x5
 1628 0089 01        		.byte	0x1
 1629 008a 06        		.byte	0x6
 1630 008b 05        		.uleb128 0x5
 1631 008c 01        		.byte	0x1
 1632 008d 08        		.byte	0x8
 1633 008e 06        		.uleb128 0x6
 1634 008f 02        		.byte	0x2
 1635 0090 04        		.byte	0x4
 1636 0091 26        		.byte	0x26
 1637 0092 4704 0000 		.long	0x447
 1638 0096 07        		.uleb128 0x7
 1639 0097 0000 0000 		.long	.LASF12
 1640 009b 00        		.sleb128 0
 1641 009c 07        		.uleb128 0x7
 1642 009d 0000 0000 		.long	.LASF13
 1643 00a1 01        		.sleb128 1
 1644 00a2 07        		.uleb128 0x7
 1645 00a3 0000 0000 		.long	.LASF14
 1646 00a7 02        		.sleb128 2
 1647 00a8 07        		.uleb128 0x7
 1648 00a9 0000 0000 		.long	.LASF15
 1649 00ad 03        		.sleb128 3
 1650 00ae 07        		.uleb128 0x7
 1651 00af 0000 0000 		.long	.LASF16
 1652 00b3 04        		.sleb128 4
 1653 00b4 07        		.uleb128 0x7
GAS LISTING C:\Users\ADMINI~1\AppData\Local\Temp/cc9J5r6C.s 			page 30


 1654 00b5 0000 0000 		.long	.LASF17
 1655 00b9 05        		.sleb128 5
 1656 00ba 07        		.uleb128 0x7
 1657 00bb 0000 0000 		.long	.LASF18
 1658 00bf 06        		.sleb128 6
 1659 00c0 07        		.uleb128 0x7
 1660 00c1 0000 0000 		.long	.LASF19
 1661 00c5 07        		.sleb128 7
 1662 00c6 07        		.uleb128 0x7
 1663 00c7 0000 0000 		.long	.LASF20
 1664 00cb 08        		.sleb128 8
 1665 00cc 07        		.uleb128 0x7
 1666 00cd 0000 0000 		.long	.LASF21
 1667 00d1 09        		.sleb128 9
 1668 00d2 07        		.uleb128 0x7
 1669 00d3 0000 0000 		.long	.LASF22
 1670 00d7 0A        		.sleb128 10
 1671 00d8 07        		.uleb128 0x7
 1672 00d9 0000 0000 		.long	.LASF23
 1673 00dd 0B        		.sleb128 11
 1674 00de 07        		.uleb128 0x7
 1675 00df 0000 0000 		.long	.LASF24
 1676 00e3 0C        		.sleb128 12
 1677 00e4 07        		.uleb128 0x7
 1678 00e5 0000 0000 		.long	.LASF25
 1679 00e9 0D        		.sleb128 13
 1680 00ea 07        		.uleb128 0x7
 1681 00eb 0000 0000 		.long	.LASF26
 1682 00ef 0E        		.sleb128 14
 1683 00f0 07        		.uleb128 0x7
 1684 00f1 0000 0000 		.long	.LASF27
 1685 00f5 0F        		.sleb128 15
 1686 00f6 07        		.uleb128 0x7
 1687 00f7 0000 0000 		.long	.LASF28
 1688 00fb 10        		.sleb128 16
 1689 00fc 07        		.uleb128 0x7
 1690 00fd 0000 0000 		.long	.LASF29
 1691 0101 11        		.sleb128 17
 1692 0102 07        		.uleb128 0x7
 1693 0103 0000 0000 		.long	.LASF30
 1694 0107 12        		.sleb128 18
 1695 0108 07        		.uleb128 0x7
 1696 0109 0000 0000 		.long	.LASF31
 1697 010d 13        		.sleb128 19
 1698 010e 07        		.uleb128 0x7
 1699 010f 0000 0000 		.long	.LASF32
 1700 0113 14        		.sleb128 20
 1701 0114 07        		.uleb128 0x7
 1702 0115 0000 0000 		.long	.LASF33
 1703 0119 15        		.sleb128 21
 1704 011a 07        		.uleb128 0x7
 1705 011b 0000 0000 		.long	.LASF34
 1706 011f 16        		.sleb128 22
 1707 0120 07        		.uleb128 0x7
 1708 0121 0000 0000 		.long	.LASF35
 1709 0125 17        		.sleb128 23
 1710 0126 07        		.uleb128 0x7
GAS LISTING C:\Users\ADMINI~1\AppData\Local\Temp/cc9J5r6C.s 			page 31


 1711 0127 0000 0000 		.long	.LASF36
 1712 012b 18        		.sleb128 24
 1713 012c 07        		.uleb128 0x7
 1714 012d 0000 0000 		.long	.LASF37
 1715 0131 19        		.sleb128 25
 1716 0132 07        		.uleb128 0x7
 1717 0133 0000 0000 		.long	.LASF38
 1718 0137 1A        		.sleb128 26
 1719 0138 07        		.uleb128 0x7
 1720 0139 0000 0000 		.long	.LASF39
 1721 013d 1B        		.sleb128 27
 1722 013e 07        		.uleb128 0x7
 1723 013f 0000 0000 		.long	.LASF40
 1724 0143 1C        		.sleb128 28
 1725 0144 07        		.uleb128 0x7
 1726 0145 0000 0000 		.long	.LASF41
 1727 0149 1D        		.sleb128 29
 1728 014a 07        		.uleb128 0x7
 1729 014b 0000 0000 		.long	.LASF42
 1730 014f 1E        		.sleb128 30
 1731 0150 07        		.uleb128 0x7
 1732 0151 0000 0000 		.long	.LASF43
 1733 0155 1F        		.sleb128 31
 1734 0156 07        		.uleb128 0x7
 1735 0157 0000 0000 		.long	.LASF44
 1736 015b 20        		.sleb128 32
 1737 015c 07        		.uleb128 0x7
 1738 015d 0000 0000 		.long	.LASF45
 1739 0161 21        		.sleb128 33
 1740 0162 07        		.uleb128 0x7
 1741 0163 0000 0000 		.long	.LASF46
 1742 0167 22        		.sleb128 34
 1743 0168 07        		.uleb128 0x7
 1744 0169 0000 0000 		.long	.LASF47
 1745 016d 23        		.sleb128 35
 1746 016e 07        		.uleb128 0x7
 1747 016f 0000 0000 		.long	.LASF48
 1748 0173 24        		.sleb128 36
 1749 0174 07        		.uleb128 0x7
 1750 0175 0000 0000 		.long	.LASF49
 1751 0179 25        		.sleb128 37
 1752 017a 07        		.uleb128 0x7
 1753 017b 0000 0000 		.long	.LASF50
 1754 017f 26        		.sleb128 38
 1755 0180 07        		.uleb128 0x7
 1756 0181 0000 0000 		.long	.LASF51
 1757 0185 27        		.sleb128 39
 1758 0186 07        		.uleb128 0x7
 1759 0187 0000 0000 		.long	.LASF52
 1760 018b 28        		.sleb128 40
 1761 018c 07        		.uleb128 0x7
 1762 018d 0000 0000 		.long	.LASF53
 1763 0191 29        		.sleb128 41
 1764 0192 07        		.uleb128 0x7
 1765 0193 0000 0000 		.long	.LASF54
 1766 0197 2A        		.sleb128 42
 1767 0198 07        		.uleb128 0x7
GAS LISTING C:\Users\ADMINI~1\AppData\Local\Temp/cc9J5r6C.s 			page 32


 1768 0199 0000 0000 		.long	.LASF55
 1769 019d 2B        		.sleb128 43
 1770 019e 07        		.uleb128 0x7
 1771 019f 0000 0000 		.long	.LASF56
 1772 01a3 2C        		.sleb128 44
 1773 01a4 07        		.uleb128 0x7
 1774 01a5 0000 0000 		.long	.LASF57
 1775 01a9 2D        		.sleb128 45
 1776 01aa 07        		.uleb128 0x7
 1777 01ab 0000 0000 		.long	.LASF58
 1778 01af 2E        		.sleb128 46
 1779 01b0 07        		.uleb128 0x7
 1780 01b1 0000 0000 		.long	.LASF59
 1781 01b5 2F        		.sleb128 47
 1782 01b6 07        		.uleb128 0x7
 1783 01b7 0000 0000 		.long	.LASF60
 1784 01bb 30        		.sleb128 48
 1785 01bc 07        		.uleb128 0x7
 1786 01bd 0000 0000 		.long	.LASF61
 1787 01c1 31        		.sleb128 49
 1788 01c2 07        		.uleb128 0x7
 1789 01c3 0000 0000 		.long	.LASF62
 1790 01c7 32        		.sleb128 50
 1791 01c8 07        		.uleb128 0x7
 1792 01c9 0000 0000 		.long	.LASF63
 1793 01cd 33        		.sleb128 51
 1794 01ce 07        		.uleb128 0x7
 1795 01cf 0000 0000 		.long	.LASF64
 1796 01d3 34        		.sleb128 52
 1797 01d4 07        		.uleb128 0x7
 1798 01d5 0000 0000 		.long	.LASF65
 1799 01d9 35        		.sleb128 53
 1800 01da 07        		.uleb128 0x7
 1801 01db 0000 0000 		.long	.LASF66
 1802 01df 36        		.sleb128 54
 1803 01e0 07        		.uleb128 0x7
 1804 01e1 0000 0000 		.long	.LASF67
 1805 01e5 37        		.sleb128 55
 1806 01e6 07        		.uleb128 0x7
 1807 01e7 0000 0000 		.long	.LASF68
 1808 01eb 38        		.sleb128 56
 1809 01ec 07        		.uleb128 0x7
 1810 01ed 0000 0000 		.long	.LASF69
 1811 01f1 39        		.sleb128 57
 1812 01f2 07        		.uleb128 0x7
 1813 01f3 0000 0000 		.long	.LASF70
 1814 01f7 3A        		.sleb128 58
 1815 01f8 07        		.uleb128 0x7
 1816 01f9 0000 0000 		.long	.LASF71
 1817 01fd 3B        		.sleb128 59
 1818 01fe 07        		.uleb128 0x7
 1819 01ff 0000 0000 		.long	.LASF72
 1820 0203 3C        		.sleb128 60
 1821 0204 07        		.uleb128 0x7
 1822 0205 0000 0000 		.long	.LASF73
 1823 0209 3D        		.sleb128 61
 1824 020a 07        		.uleb128 0x7
GAS LISTING C:\Users\ADMINI~1\AppData\Local\Temp/cc9J5r6C.s 			page 33


 1825 020b 0000 0000 		.long	.LASF74
 1826 020f 3E        		.sleb128 62
 1827 0210 07        		.uleb128 0x7
 1828 0211 0000 0000 		.long	.LASF75
 1829 0215 3F        		.sleb128 63
 1830 0216 07        		.uleb128 0x7
 1831 0217 0000 0000 		.long	.LASF76
 1832 021b C000      		.sleb128 64
 1833 021d 07        		.uleb128 0x7
 1834 021e 0000 0000 		.long	.LASF77
 1835 0222 C100      		.sleb128 65
 1836 0224 07        		.uleb128 0x7
 1837 0225 0000 0000 		.long	.LASF78
 1838 0229 C200      		.sleb128 66
 1839 022b 07        		.uleb128 0x7
 1840 022c 0000 0000 		.long	.LASF79
 1841 0230 C300      		.sleb128 67
 1842 0232 07        		.uleb128 0x7
 1843 0233 0000 0000 		.long	.LASF80
 1844 0237 C400      		.sleb128 68
 1845 0239 07        		.uleb128 0x7
 1846 023a 0000 0000 		.long	.LASF81
 1847 023e C500      		.sleb128 69
 1848 0240 07        		.uleb128 0x7
 1849 0241 0000 0000 		.long	.LASF82
 1850 0245 C600      		.sleb128 70
 1851 0247 07        		.uleb128 0x7
 1852 0248 0000 0000 		.long	.LASF83
 1853 024c C700      		.sleb128 71
 1854 024e 07        		.uleb128 0x7
 1855 024f 0000 0000 		.long	.LASF84
 1856 0253 C800      		.sleb128 72
 1857 0255 07        		.uleb128 0x7
 1858 0256 0000 0000 		.long	.LASF85
 1859 025a C900      		.sleb128 73
 1860 025c 07        		.uleb128 0x7
 1861 025d 0000 0000 		.long	.LASF86
 1862 0261 CA00      		.sleb128 74
 1863 0263 07        		.uleb128 0x7
 1864 0264 0000 0000 		.long	.LASF87
 1865 0268 CB00      		.sleb128 75
 1866 026a 07        		.uleb128 0x7
 1867 026b 0000 0000 		.long	.LASF88
 1868 026f CC00      		.sleb128 76
 1869 0271 07        		.uleb128 0x7
 1870 0272 0000 0000 		.long	.LASF89
 1871 0276 CD00      		.sleb128 77
 1872 0278 07        		.uleb128 0x7
 1873 0279 0000 0000 		.long	.LASF90
 1874 027d CE00      		.sleb128 78
 1875 027f 07        		.uleb128 0x7
 1876 0280 0000 0000 		.long	.LASF91
 1877 0284 CF00      		.sleb128 79
 1878 0286 07        		.uleb128 0x7
 1879 0287 0000 0000 		.long	.LASF92
 1880 028b D000      		.sleb128 80
 1881 028d 07        		.uleb128 0x7
GAS LISTING C:\Users\ADMINI~1\AppData\Local\Temp/cc9J5r6C.s 			page 34


 1882 028e 0000 0000 		.long	.LASF93
 1883 0292 D100      		.sleb128 81
 1884 0294 07        		.uleb128 0x7
 1885 0295 0000 0000 		.long	.LASF94
 1886 0299 D200      		.sleb128 82
 1887 029b 07        		.uleb128 0x7
 1888 029c 0000 0000 		.long	.LASF95
 1889 02a0 D300      		.sleb128 83
 1890 02a2 07        		.uleb128 0x7
 1891 02a3 0000 0000 		.long	.LASF96
 1892 02a7 D400      		.sleb128 84
 1893 02a9 07        		.uleb128 0x7
 1894 02aa 0000 0000 		.long	.LASF97
 1895 02ae D500      		.sleb128 85
 1896 02b0 07        		.uleb128 0x7
 1897 02b1 0000 0000 		.long	.LASF98
 1898 02b5 D600      		.sleb128 86
 1899 02b7 07        		.uleb128 0x7
 1900 02b8 0000 0000 		.long	.LASF99
 1901 02bc D700      		.sleb128 87
 1902 02be 07        		.uleb128 0x7
 1903 02bf 0000 0000 		.long	.LASF100
 1904 02c3 D800      		.sleb128 88
 1905 02c5 07        		.uleb128 0x7
 1906 02c6 0000 0000 		.long	.LASF101
 1907 02ca D900      		.sleb128 89
 1908 02cc 07        		.uleb128 0x7
 1909 02cd 0000 0000 		.long	.LASF102
 1910 02d1 DA00      		.sleb128 90
 1911 02d3 07        		.uleb128 0x7
 1912 02d4 0000 0000 		.long	.LASF103
 1913 02d8 DB00      		.sleb128 91
 1914 02da 07        		.uleb128 0x7
 1915 02db 0000 0000 		.long	.LASF104
 1916 02df DC00      		.sleb128 92
 1917 02e1 07        		.uleb128 0x7
 1918 02e2 0000 0000 		.long	.LASF105
 1919 02e6 DD00      		.sleb128 93
 1920 02e8 07        		.uleb128 0x7
 1921 02e9 0000 0000 		.long	.LASF106
 1922 02ed DE00      		.sleb128 94
 1923 02ef 07        		.uleb128 0x7
 1924 02f0 0000 0000 		.long	.LASF107
 1925 02f4 DF00      		.sleb128 95
 1926 02f6 07        		.uleb128 0x7
 1927 02f7 0000 0000 		.long	.LASF108
 1928 02fb E000      		.sleb128 96
 1929 02fd 07        		.uleb128 0x7
 1930 02fe 0000 0000 		.long	.LASF109
 1931 0302 E100      		.sleb128 97
 1932 0304 07        		.uleb128 0x7
 1933 0305 0000 0000 		.long	.LASF110
 1934 0309 E200      		.sleb128 98
 1935 030b 07        		.uleb128 0x7
 1936 030c 0000 0000 		.long	.LASF111
 1937 0310 E300      		.sleb128 99
 1938 0312 07        		.uleb128 0x7
GAS LISTING C:\Users\ADMINI~1\AppData\Local\Temp/cc9J5r6C.s 			page 35


 1939 0313 0000 0000 		.long	.LASF112
 1940 0317 E400      		.sleb128 100
 1941 0319 07        		.uleb128 0x7
 1942 031a 0000 0000 		.long	.LASF113
 1943 031e E500      		.sleb128 101
 1944 0320 07        		.uleb128 0x7
 1945 0321 0000 0000 		.long	.LASF114
 1946 0325 E600      		.sleb128 102
 1947 0327 07        		.uleb128 0x7
 1948 0328 0000 0000 		.long	.LASF115
 1949 032c E700      		.sleb128 103
 1950 032e 07        		.uleb128 0x7
 1951 032f 0000 0000 		.long	.LASF116
 1952 0333 E800      		.sleb128 104
 1953 0335 07        		.uleb128 0x7
 1954 0336 0000 0000 		.long	.LASF117
 1955 033a E900      		.sleb128 105
 1956 033c 07        		.uleb128 0x7
 1957 033d 0000 0000 		.long	.LASF118
 1958 0341 EA00      		.sleb128 106
 1959 0343 07        		.uleb128 0x7
 1960 0344 0000 0000 		.long	.LASF119
 1961 0348 EB00      		.sleb128 107
 1962 034a 07        		.uleb128 0x7
 1963 034b 0000 0000 		.long	.LASF120
 1964 034f EC00      		.sleb128 108
 1965 0351 07        		.uleb128 0x7
 1966 0352 0000 0000 		.long	.LASF121
 1967 0356 ED00      		.sleb128 109
 1968 0358 07        		.uleb128 0x7
 1969 0359 0000 0000 		.long	.LASF122
 1970 035d EE00      		.sleb128 110
 1971 035f 07        		.uleb128 0x7
 1972 0360 0000 0000 		.long	.LASF123
 1973 0364 EF00      		.sleb128 111
 1974 0366 07        		.uleb128 0x7
 1975 0367 0000 0000 		.long	.LASF124
 1976 036b F000      		.sleb128 112
 1977 036d 07        		.uleb128 0x7
 1978 036e 0000 0000 		.long	.LASF125
 1979 0372 F100      		.sleb128 113
 1980 0374 07        		.uleb128 0x7
 1981 0375 0000 0000 		.long	.LASF126
 1982 0379 F200      		.sleb128 114
 1983 037b 07        		.uleb128 0x7
 1984 037c 0000 0000 		.long	.LASF127
 1985 0380 F300      		.sleb128 115
 1986 0382 07        		.uleb128 0x7
 1987 0383 0000 0000 		.long	.LASF128
 1988 0387 F400      		.sleb128 116
 1989 0389 07        		.uleb128 0x7
 1990 038a 0000 0000 		.long	.LASF129
 1991 038e F500      		.sleb128 117
 1992 0390 07        		.uleb128 0x7
 1993 0391 0000 0000 		.long	.LASF130
 1994 0395 F600      		.sleb128 118
 1995 0397 07        		.uleb128 0x7
GAS LISTING C:\Users\ADMINI~1\AppData\Local\Temp/cc9J5r6C.s 			page 36


 1996 0398 0000 0000 		.long	.LASF131
 1997 039c F700      		.sleb128 119
 1998 039e 07        		.uleb128 0x7
 1999 039f 0000 0000 		.long	.LASF132
 2000 03a3 F800      		.sleb128 120
 2001 03a5 07        		.uleb128 0x7
 2002 03a6 0000 0000 		.long	.LASF133
 2003 03aa F900      		.sleb128 121
 2004 03ac 07        		.uleb128 0x7
 2005 03ad 0000 0000 		.long	.LASF134
 2006 03b1 FA00      		.sleb128 122
 2007 03b3 07        		.uleb128 0x7
 2008 03b4 0000 0000 		.long	.LASF135
 2009 03b8 FB00      		.sleb128 123
 2010 03ba 07        		.uleb128 0x7
 2011 03bb 0000 0000 		.long	.LASF136
 2012 03bf FC00      		.sleb128 124
 2013 03c1 07        		.uleb128 0x7
 2014 03c2 0000 0000 		.long	.LASF137
 2015 03c6 FD00      		.sleb128 125
 2016 03c8 07        		.uleb128 0x7
 2017 03c9 0000 0000 		.long	.LASF138
 2018 03cd FE00      		.sleb128 126
 2019 03cf 07        		.uleb128 0x7
 2020 03d0 0000 0000 		.long	.LASF139
 2021 03d4 FF00      		.sleb128 127
 2022 03d6 07        		.uleb128 0x7
 2023 03d7 0000 0000 		.long	.LASF140
 2024 03db 8001      		.sleb128 128
 2025 03dd 07        		.uleb128 0x7
 2026 03de 0000 0000 		.long	.LASF141
 2027 03e2 8101      		.sleb128 129
 2028 03e4 07        		.uleb128 0x7
 2029 03e5 0000 0000 		.long	.LASF142
 2030 03e9 8201      		.sleb128 130
 2031 03eb 07        		.uleb128 0x7
 2032 03ec 0000 0000 		.long	.LASF143
 2033 03f0 8301      		.sleb128 131
 2034 03f2 07        		.uleb128 0x7
 2035 03f3 0000 0000 		.long	.LASF144
 2036 03f7 8401      		.sleb128 132
 2037 03f9 07        		.uleb128 0x7
 2038 03fa 0000 0000 		.long	.LASF145
 2039 03fe 8501      		.sleb128 133
 2040 0400 07        		.uleb128 0x7
 2041 0401 0000 0000 		.long	.LASF146
 2042 0405 8601      		.sleb128 134
 2043 0407 07        		.uleb128 0x7
 2044 0408 0000 0000 		.long	.LASF147
 2045 040c 8701      		.sleb128 135
 2046 040e 07        		.uleb128 0x7
 2047 040f 0000 0000 		.long	.LASF148
 2048 0413 8801      		.sleb128 136
 2049 0415 07        		.uleb128 0x7
 2050 0416 0000 0000 		.long	.LASF149
 2051 041a 8901      		.sleb128 137
 2052 041c 07        		.uleb128 0x7
GAS LISTING C:\Users\ADMINI~1\AppData\Local\Temp/cc9J5r6C.s 			page 37


 2053 041d 0000 0000 		.long	.LASF150
 2054 0421 8A01      		.sleb128 138
 2055 0423 07        		.uleb128 0x7
 2056 0424 0000 0000 		.long	.LASF151
 2057 0428 8B01      		.sleb128 139
 2058 042a 07        		.uleb128 0x7
 2059 042b 0000 0000 		.long	.LASF152
 2060 042f 8C01      		.sleb128 140
 2061 0431 07        		.uleb128 0x7
 2062 0432 0000 0000 		.long	.LASF153
 2063 0436 8D01      		.sleb128 141
 2064 0438 07        		.uleb128 0x7
 2065 0439 0000 0000 		.long	.LASF154
 2066 043d 8E01      		.sleb128 142
 2067 043f 07        		.uleb128 0x7
 2068 0440 0000 0000 		.long	.LASF155
 2069 0444 8F01      		.sleb128 143
 2070 0446 00        		.byte	0x0
 2071 0447 08        		.uleb128 0x8
 2072 0448 0000 0000 		.long	.LASF161
 2073 044c 0C        		.byte	0xc
 2074 044d 03        		.byte	0x3
 2075 044e 9102      		.word	0x291
 2076 0450 7304 0000 		.long	0x473
 2077 0454 09        		.uleb128 0x9
 2078 0455 6C65 6E00 		.string	"len"
 2079 0459 03        		.byte	0x3
 2080 045a 9202      		.word	0x292
 2081 045c 7304 0000 		.long	0x473
 2082 0460 02        		.byte	0x2
 2083 0461 23        		.byte	0x23
 2084 0462 00        		.uleb128 0x0
 2085 0463 0A        		.uleb128 0xa
 2086 0464 0000 0000 		.long	.LASF156
 2087 0468 03        		.byte	0x3
 2088 0469 9302      		.word	0x293
 2089 046b 7804 0000 		.long	0x478
 2090 046f 02        		.byte	0x2
 2091 0470 23        		.byte	0x23
 2092 0471 01        		.uleb128 0x1
 2093 0472 00        		.byte	0x0
 2094 0473 0B        		.uleb128 0xb
 2095 0474 2500 0000 		.long	0x25
 2096 0478 0C        		.uleb128 0xc
 2097 0479 2500 0000 		.long	0x25
 2098 047d 8804 0000 		.long	0x488
 2099 0481 0D        		.uleb128 0xd
 2100 0482 8804 0000 		.long	0x488
 2101 0486 0A        		.byte	0xa
 2102 0487 00        		.byte	0x0
 2103 0488 05        		.uleb128 0x5
 2104 0489 02        		.byte	0x2
 2105 048a 07        		.byte	0x7
 2106 048b 0E        		.uleb128 0xe
 2107 048c 0000 0000 		.long	.LASF157
 2108 0490 03        		.byte	0x3
 2109 0491 9402      		.word	0x294
GAS LISTING C:\Users\ADMINI~1\AppData\Local\Temp/cc9J5r6C.s 			page 38


 2110 0493 4704 0000 		.long	0x447
 2111 0497 0F        		.uleb128 0xf
 2112 0498 0000 0000 		.long	.LASF217
 2113 049c 02        		.byte	0x2
 2114 049d 03        		.byte	0x3
 2115 049e 9D02      		.word	0x29d
 2116 04a0 BD04 0000 		.long	0x4bd
 2117 04a4 10        		.uleb128 0x10
 2118 04a5 0000 0000 		.long	.LASF158
 2119 04a9 03        		.byte	0x3
 2120 04aa 9E02      		.word	0x29e
 2121 04ac 5D00 0000 		.long	0x5d
 2122 04b0 10        		.uleb128 0x10
 2123 04b1 0000 0000 		.long	.LASF159
 2124 04b5 03        		.byte	0x3
 2125 04b6 9F02      		.word	0x29f
 2126 04b8 BD04 0000 		.long	0x4bd
 2127 04bc 00        		.byte	0x0
 2128 04bd 0C        		.uleb128 0xc
 2129 04be 2500 0000 		.long	0x25
 2130 04c2 CD04 0000 		.long	0x4cd
 2131 04c6 0D        		.uleb128 0xd
 2132 04c7 8804 0000 		.long	0x488
 2133 04cb 01        		.byte	0x1
 2134 04cc 00        		.byte	0x0
 2135 04cd 0E        		.uleb128 0xe
 2136 04ce 0000 0000 		.long	.LASF160
 2137 04d2 03        		.byte	0x3
 2138 04d3 A002      		.word	0x2a0
 2139 04d5 9704 0000 		.long	0x497
 2140 04d9 11        		.uleb128 0x11
 2141 04da 0000 0000 		.long	.LASF162
 2142 04de 08        		.byte	0x8
 2143 04df 03        		.byte	0x3
 2144 04e0 B0        		.byte	0xb0
 2145 04e1 3105 0000 		.long	0x531
 2146 04e5 0A        		.uleb128 0xa
 2147 04e6 0000 0000 		.long	.LASF163
 2148 04ea 03        		.byte	0x3
 2149 04eb A302      		.word	0x2a3
 2150 04ed 2500 0000 		.long	0x25
 2151 04f1 02        		.byte	0x2
 2152 04f2 23        		.byte	0x23
 2153 04f3 00        		.uleb128 0x0
 2154 04f4 0A        		.uleb128 0xa
 2155 04f5 0000 0000 		.long	.LASF164
 2156 04f9 03        		.byte	0x3
 2157 04fa A402      		.word	0x2a4
 2158 04fc 2500 0000 		.long	0x25
 2159 0500 02        		.byte	0x2
 2160 0501 23        		.byte	0x23
 2161 0502 01        		.uleb128 0x1
 2162 0503 0A        		.uleb128 0xa
 2163 0504 0000 0000 		.long	.LASF165
 2164 0508 03        		.byte	0x3
 2165 0509 A502      		.word	0x2a5
 2166 050b CD04 0000 		.long	0x4cd
GAS LISTING C:\Users\ADMINI~1\AppData\Local\Temp/cc9J5r6C.s 			page 39


 2167 050f 02        		.byte	0x2
 2168 0510 23        		.byte	0x23
 2169 0511 02        		.uleb128 0x2
 2170 0512 0A        		.uleb128 0xa
 2171 0513 0000 0000 		.long	.LASF166
 2172 0517 03        		.byte	0x3
 2173 0518 A602      		.word	0x2a6
 2174 051a CD04 0000 		.long	0x4cd
 2175 051e 02        		.byte	0x2
 2176 051f 23        		.byte	0x23
 2177 0520 04        		.uleb128 0x4
 2178 0521 0A        		.uleb128 0xa
 2179 0522 0000 0000 		.long	.LASF167
 2180 0526 03        		.byte	0x3
 2181 0527 A702      		.word	0x2a7
 2182 0529 CD04 0000 		.long	0x4cd
 2183 052d 02        		.byte	0x2
 2184 052e 23        		.byte	0x23
 2185 052f 06        		.uleb128 0x6
 2186 0530 00        		.byte	0x0
 2187 0531 0E        		.uleb128 0xe
 2188 0532 0000 0000 		.long	.LASF168
 2189 0536 03        		.byte	0x3
 2190 0537 A802      		.word	0x2a8
 2191 0539 D904 0000 		.long	0x4d9
 2192 053d 12        		.uleb128 0x12
 2193 053e 01        		.byte	0x1
 2194 053f 0000 0000 		.long	.LASF173
 2195 0543 01        		.byte	0x1
 2196 0544 A001      		.word	0x1a0
 2197 0546 01        		.byte	0x1
 2198 0547 7200 0000 		.long	0x72
 2199 054b 0000 0000 		.long	.LFB12
 2200 054f 0000 0000 		.long	.LFE12
 2201 0553 02        		.byte	0x2
 2202 0554 90        		.byte	0x90
 2203 0555 20        		.uleb128 0x20
 2204 0556 E505 0000 		.long	0x5e5
 2205 055a 13        		.uleb128 0x13
 2206 055b 0000 0000 		.long	.LASF180
 2207 055f 01        		.byte	0x1
 2208 0560 A001      		.word	0x1a0
 2209 0562 7200 0000 		.long	0x72
 2210 0566 0000 0000 		.long	.LLST1
 2211 056a 14        		.uleb128 0x14
 2212 056b 0000 0000 		.long	.LASF169
 2213 056f 01        		.byte	0x1
 2214 0570 A101      		.word	0x1a1
 2215 0572 7200 0000 		.long	0x72
 2216 0576 15        		.uleb128 0x15
 2217 0577 0000 0000 		.long	.LBB2
 2218 057b 0000 0000 		.long	.LBE2
 2219 057f BA05 0000 		.long	0x5ba
 2220 0583 14        		.uleb128 0x14
 2221 0584 0000 0000 		.long	.LASF170
 2222 0588 01        		.byte	0x1
 2223 0589 A701      		.word	0x1a7
GAS LISTING C:\Users\ADMINI~1\AppData\Local\Temp/cc9J5r6C.s 			page 40


 2224 058b 7D00 0000 		.long	0x7d
 2225 058f 16        		.uleb128 0x16
 2226 0590 0000 0000 		.long	.LBB3
 2227 0594 0000 0000 		.long	.LBE3
 2228 0598 17        		.uleb128 0x17
 2229 0599 0000 0000 		.long	.LASF171
 2230 059d 01        		.byte	0x1
 2231 059e A701      		.word	0x1a7
 2232 05a0 7D00 0000 		.long	0x7d
 2233 05a4 0000 0000 		.long	.LLST2
 2234 05a8 17        		.uleb128 0x17
 2235 05a9 0000 0000 		.long	.LASF172
 2236 05ad 01        		.byte	0x1
 2237 05ae A701      		.word	0x1a7
 2238 05b0 7D00 0000 		.long	0x7d
 2239 05b4 0000 0000 		.long	.LLST3
 2240 05b8 00        		.byte	0x0
 2241 05b9 00        		.byte	0x0
 2242 05ba 16        		.uleb128 0x16
 2243 05bb 0000 0000 		.long	.LBB4
 2244 05bf 0000 0000 		.long	.LBE4
 2245 05c3 17        		.uleb128 0x17
 2246 05c4 0000 0000 		.long	.LASF171
 2247 05c8 01        		.byte	0x1
 2248 05c9 BF01      		.word	0x1bf
 2249 05cb 7D00 0000 		.long	0x7d
 2250 05cf 0000 0000 		.long	.LLST4
 2251 05d3 17        		.uleb128 0x17
 2252 05d4 0000 0000 		.long	.LASF172
 2253 05d8 01        		.byte	0x1
 2254 05d9 BF01      		.word	0x1bf
 2255 05db 7D00 0000 		.long	0x7d
 2256 05df 0000 0000 		.long	.LLST5
 2257 05e3 00        		.byte	0x0
 2258 05e4 00        		.byte	0x0
 2259 05e5 18        		.uleb128 0x18
 2260 05e6 01        		.byte	0x1
 2261 05e7 0000 0000 		.long	.LASF218
 2262 05eb 01        		.byte	0x1
 2263 05ec 5502      		.word	0x255
 2264 05ee 01        		.byte	0x1
 2265 05ef 7200 0000 		.long	0x72
 2266 05f3 0000 0000 		.long	.LFB16
 2267 05f7 0000 0000 		.long	.LFE16
 2268 05fb 02        		.byte	0x2
 2269 05fc 90        		.byte	0x90
 2270 05fd 20        		.uleb128 0x20
 2271 05fe 19        		.uleb128 0x19
 2272 05ff 01        		.byte	0x1
 2273 0600 0000 0000 		.long	.LASF186
 2274 0604 01        		.byte	0x1
 2275 0605 C901      		.word	0x1c9
 2276 0607 01        		.byte	0x1
 2277 0608 0000 0000 		.long	.LFB13
 2278 060c 0000 0000 		.long	.LFE13
 2279 0610 02        		.byte	0x2
 2280 0611 90        		.byte	0x90
GAS LISTING C:\Users\ADMINI~1\AppData\Local\Temp/cc9J5r6C.s 			page 41


 2281 0612 20        		.uleb128 0x20
 2282 0613 12        		.uleb128 0x12
 2283 0614 01        		.byte	0x1
 2284 0615 0000 0000 		.long	.LASF174
 2285 0619 01        		.byte	0x1
 2286 061a 2D02      		.word	0x22d
 2287 061c 01        		.byte	0x1
 2288 061d 7200 0000 		.long	0x72
 2289 0621 0000 0000 		.long	.LFB15
 2290 0625 0000 0000 		.long	.LFE15
 2291 0629 02        		.byte	0x2
 2292 062a 90        		.byte	0x90
 2293 062b 20        		.uleb128 0x20
 2294 062c 7106 0000 		.long	0x671
 2295 0630 16        		.uleb128 0x16
 2296 0631 0000 0000 		.long	.LBB5
 2297 0635 0000 0000 		.long	.LBE5
 2298 0639 14        		.uleb128 0x14
 2299 063a 0000 0000 		.long	.LASF175
 2300 063e 01        		.byte	0x1
 2301 063f 2F02      		.word	0x22f
 2302 0641 6B00 0000 		.long	0x6b
 2303 0645 1A        		.uleb128 0x1a
 2304 0646 6900      		.string	"i"
 2305 0648 01        		.byte	0x1
 2306 0649 3502      		.word	0x235
 2307 064b 7200 0000 		.long	0x72
 2308 064f 17        		.uleb128 0x17
 2309 0650 0000 0000 		.long	.LASF176
 2310 0654 01        		.byte	0x1
 2311 0655 3602      		.word	0x236
 2312 0657 7200 0000 		.long	0x72
 2313 065b 0000 0000 		.long	.LLST9
 2314 065f 17        		.uleb128 0x17
 2315 0660 0000 0000 		.long	.LASF177
 2316 0664 01        		.byte	0x1
 2317 0665 3702      		.word	0x237
 2318 0667 7200 0000 		.long	0x72
 2319 066b 0000 0000 		.long	.LLST10
 2320 066f 00        		.byte	0x0
 2321 0670 00        		.byte	0x0
 2322 0671 12        		.uleb128 0x12
 2323 0672 01        		.byte	0x1
 2324 0673 0000 0000 		.long	.LASF178
 2325 0677 01        		.byte	0x1
 2326 0678 CE01      		.word	0x1ce
 2327 067a 01        		.byte	0x1
 2328 067b 7200 0000 		.long	0x72
 2329 067f 0000 0000 		.long	.LFB14
 2330 0683 0000 0000 		.long	.LFE14
 2331 0687 02        		.byte	0x2
 2332 0688 90        		.byte	0x90
 2333 0689 20        		.uleb128 0x20
 2334 068a 3007 0000 		.long	0x730
 2335 068e 17        		.uleb128 0x17
 2336 068f 0000 0000 		.long	.LASF169
 2337 0693 01        		.byte	0x1
GAS LISTING C:\Users\ADMINI~1\AppData\Local\Temp/cc9J5r6C.s 			page 42


 2338 0694 CF01      		.word	0x1cf
 2339 0696 7200 0000 		.long	0x72
 2340 069a 0000 0000 		.long	.LLST12
 2341 069e 1B        		.uleb128 0x1b
 2342 069f 726F 7700 		.string	"row"
 2343 06a3 01        		.byte	0x1
 2344 06a4 D401      		.word	0x1d4
 2345 06a6 7200 0000 		.long	0x72
 2346 06aa 0000 0000 		.long	.LLST13
 2347 06ae 1B        		.uleb128 0x1b
 2348 06af 636F 6C00 		.string	"col"
 2349 06b3 01        		.byte	0x1
 2350 06b4 D401      		.word	0x1d4
 2351 06b6 7200 0000 		.long	0x72
 2352 06ba 0000 0000 		.long	.LLST14
 2353 06be 17        		.uleb128 0x17
 2354 06bf 0000 0000 		.long	.LASF179
 2355 06c3 01        		.byte	0x1
 2356 06c4 D401      		.word	0x1d4
 2357 06c6 7200 0000 		.long	0x72
 2358 06ca 0000 0000 		.long	.LLST15
 2359 06ce 1B        		.uleb128 0x1b
 2360 06cf 6375 7200 		.string	"cur"
 2361 06d3 01        		.byte	0x1
 2362 06d4 D401      		.word	0x1d4
 2363 06d6 7200 0000 		.long	0x72
 2364 06da 0000 0000 		.long	.LLST16
 2365 06de 17        		.uleb128 0x17
 2366 06df 0000 0000 		.long	.LASF180
 2367 06e3 01        		.byte	0x1
 2368 06e4 D401      		.word	0x1d4
 2369 06e6 7200 0000 		.long	0x72
 2370 06ea 0000 0000 		.long	.LLST17
 2371 06ee 1C        		.uleb128 0x1c
 2372 06ef 0000 0000 		.long	.LASF181
 2373 06f3 01        		.byte	0x1
 2374 06f4 D401      		.word	0x1d4
 2375 06f6 7200 0000 		.long	0x72
 2376 06fa 02        		.byte	0x2
 2377 06fb 8C        		.byte	0x8c
 2378 06fc 01        		.sleb128 1
 2379 06fd 1B        		.uleb128 0x1b
 2380 06fe 6746 4E00 		.string	"gFN"
 2381 0702 01        		.byte	0x1
 2382 0703 D401      		.word	0x1d4
 2383 0705 7200 0000 		.long	0x72
 2384 0709 0000 0000 		.long	.LLST18
 2385 070d 17        		.uleb128 0x17
 2386 070e 0000 0000 		.long	.LASF182
 2387 0712 01        		.byte	0x1
 2388 0713 D501      		.word	0x1d5
 2389 0715 7200 0000 		.long	0x72
 2390 0719 0000 0000 		.long	.LLST19
 2391 071d 1C        		.uleb128 0x1c
 2392 071e 0000 0000 		.long	.LASF183
 2393 0722 01        		.byte	0x1
 2394 0723 D601      		.word	0x1d6
GAS LISTING C:\Users\ADMINI~1\AppData\Local\Temp/cc9J5r6C.s 			page 43


 2395 0725 7200 0000 		.long	0x72
 2396 0729 05        		.byte	0x5
 2397 072a 03        		.byte	0x3
 2398 072b 0000 0000 		.long	prevModifier.2297
 2399 072f 00        		.byte	0x0
 2400 0730 1D        		.uleb128 0x1d
 2401 0731 01        		.byte	0x1
 2402 0732 0000 0000 		.long	.LASF219
 2403 0736 01        		.byte	0x1
 2404 0737 5E02      		.word	0x25e
 2405 0739 01        		.byte	0x1
 2406 073a 0000 0000 		.long	.LFB17
 2407 073e 0000 0000 		.long	.LFE17
 2408 0742 02        		.byte	0x2
 2409 0743 90        		.byte	0x90
 2410 0744 20        		.uleb128 0x20
 2411 0745 6A07 0000 		.long	0x76a
 2412 0749 17        		.uleb128 0x17
 2413 074a 0000 0000 		.long	.LASF184
 2414 074e 01        		.byte	0x1
 2415 074f 6202      		.word	0x262
 2416 0751 7200 0000 		.long	0x72
 2417 0755 0000 0000 		.long	.LLST21
 2418 0759 17        		.uleb128 0x17
 2419 075a 0000 0000 		.long	.LASF185
 2420 075e 01        		.byte	0x1
 2421 075f 6302      		.word	0x263
 2422 0761 7200 0000 		.long	0x72
 2423 0765 0000 0000 		.long	.LLST22
 2424 0769 00        		.byte	0x0
 2425 076a 19        		.uleb128 0x19
 2426 076b 01        		.byte	0x1
 2427 076c 0000 0000 		.long	.LASF187
 2428 0770 01        		.byte	0x1
 2429 0771 8E01      		.word	0x18e
 2430 0773 01        		.byte	0x1
 2431 0774 0000 0000 		.long	.LFB11
 2432 0778 0000 0000 		.long	.LFE11
 2433 077c 02        		.byte	0x2
 2434 077d 90        		.byte	0x90
 2435 077e 20        		.uleb128 0x20
 2436 077f 19        		.uleb128 0x19
 2437 0780 01        		.byte	0x1
 2438 0781 0000 0000 		.long	.LASF188
 2439 0785 01        		.byte	0x1
 2440 0786 8701      		.word	0x187
 2441 0788 01        		.byte	0x1
 2442 0789 0000 0000 		.long	.LFB10
 2443 078d 0000 0000 		.long	.LFE10
 2444 0791 02        		.byte	0x2
 2445 0792 90        		.byte	0x90
 2446 0793 20        		.uleb128 0x20
 2447 0794 12        		.uleb128 0x12
 2448 0795 01        		.byte	0x1
 2449 0796 0000 0000 		.long	.LASF189
 2450 079a 01        		.byte	0x1
 2451 079b 3C01      		.word	0x13c
GAS LISTING C:\Users\ADMINI~1\AppData\Local\Temp/cc9J5r6C.s 			page 44


 2452 079d 01        		.byte	0x1
 2453 079e 7200 0000 		.long	0x72
 2454 07a2 0000 0000 		.long	.LFB8
 2455 07a6 0000 0000 		.long	.LFE8
 2456 07aa 02        		.byte	0x2
 2457 07ab 90        		.byte	0x90
 2458 07ac 20        		.uleb128 0x20
 2459 07ad D107 0000 		.long	0x7d1
 2460 07b1 13        		.uleb128 0x13
 2461 07b2 0000 0000 		.long	.LASF190
 2462 07b6 01        		.byte	0x1
 2463 07b7 3C01      		.word	0x13c
 2464 07b9 D107 0000 		.long	0x7d1
 2465 07bd 0000 0000 		.long	.LLST26
 2466 07c1 1B        		.uleb128 0x1b
 2467 07c2 7271 00   		.string	"rq"
 2468 07c5 01        		.byte	0x1
 2469 07c6 4001      		.word	0x140
 2470 07c8 D707 0000 		.long	0x7d7
 2471 07cc 0000 0000 		.long	.LLST27
 2472 07d0 00        		.byte	0x0
 2473 07d1 1E        		.uleb128 0x1e
 2474 07d2 02        		.byte	0x2
 2475 07d3 7200 0000 		.long	0x72
 2476 07d7 1E        		.uleb128 0x1e
 2477 07d8 02        		.byte	0x2
 2478 07d9 3105 0000 		.long	0x531
 2479 07dd 12        		.uleb128 0x12
 2480 07de 01        		.byte	0x1
 2481 07df 0000 0000 		.long	.LASF191
 2482 07e3 01        		.byte	0x1
 2483 07e4 7901      		.word	0x179
 2484 07e6 01        		.byte	0x1
 2485 07e7 7200 0000 		.long	0x72
 2486 07eb 0000 0000 		.long	.LFB9
 2487 07ef 0000 0000 		.long	.LFE9
 2488 07f3 02        		.byte	0x2
 2489 07f4 90        		.byte	0x90
 2490 07f5 20        		.uleb128 0x20
 2491 07f6 1B08 0000 		.long	0x81b
 2492 07fa 13        		.uleb128 0x13
 2493 07fb 0000 0000 		.long	.LASF190
 2494 07ff 01        		.byte	0x1
 2495 0800 7901      		.word	0x179
 2496 0802 1B08 0000 		.long	0x81b
 2497 0806 0000 0000 		.long	.LLST29
 2498 080a 1F        		.uleb128 0x1f
 2499 080b 6C65 6E00 		.string	"len"
 2500 080f 01        		.byte	0x1
 2501 0810 7901      		.word	0x179
 2502 0812 2500 0000 		.long	0x25
 2503 0816 0000 0000 		.long	.LLST30
 2504 081a 00        		.byte	0x0
 2505 081b 1E        		.uleb128 0x1e
 2506 081c 02        		.byte	0x2
 2507 081d 2500 0000 		.long	0x25
 2508 0821 0C        		.uleb128 0xc
GAS LISTING C:\Users\ADMINI~1\AppData\Local\Temp/cc9J5r6C.s 			page 45


 2509 0822 7200 0000 		.long	0x72
 2510 0826 3108 0000 		.long	0x831
 2511 082a 0D        		.uleb128 0xd
 2512 082b 8804 0000 		.long	0x488
 2513 082f 07        		.byte	0x7
 2514 0830 00        		.byte	0x0
 2515 0831 20        		.uleb128 0x20
 2516 0832 0000 0000 		.long	.LASF192
 2517 0836 01        		.byte	0x1
 2518 0837 EF        		.byte	0xef
 2519 0838 2108 0000 		.long	0x821
 2520 083c 05        		.byte	0x5
 2521 083d 03        		.byte	0x3
 2522 083e 0000 0000 		.long	reportBuffer
 2523 0842 20        		.uleb128 0x20
 2524 0843 0000 0000 		.long	.LASF193
 2525 0847 01        		.byte	0x1
 2526 0848 F0        		.byte	0xf0
 2527 0849 7200 0000 		.long	0x72
 2528 084d 05        		.byte	0x5
 2529 084e 03        		.byte	0x3
 2530 084f 0000 0000 		.long	idleRate
 2531 0853 20        		.uleb128 0x20
 2532 0854 0000 0000 		.long	.LASF194
 2533 0858 01        		.byte	0x1
 2534 0859 F1        		.byte	0xf1
 2535 085a 7200 0000 		.long	0x72
 2536 085e 05        		.byte	0x5
 2537 085f 03        		.byte	0x3
 2538 0860 0000 0000 		.long	protocolVer
 2539 0864 20        		.uleb128 0x20
 2540 0865 0000 0000 		.long	.LASF195
 2541 0869 01        		.byte	0x1
 2542 086a F2        		.byte	0xf2
 2543 086b 7200 0000 		.long	0x72
 2544 086f 05        		.byte	0x5
 2545 0870 03        		.byte	0x3
 2546 0871 0000 0000 		.long	expectReport
 2547 0875 20        		.uleb128 0x20
 2548 0876 0000 0000 		.long	.LASF196
 2549 087a 01        		.byte	0x1
 2550 087b F3        		.byte	0xf3
 2551 087c 7200 0000 		.long	0x72
 2552 0880 05        		.byte	0x5
 2553 0881 03        		.byte	0x3
 2554 0882 0000 0000 		.long	_isInit
 2555 0886 0C        		.uleb128 0xc
 2556 0887 7200 0000 		.long	0x72
 2557 088b 9608 0000 		.long	0x896
 2558 088f 0D        		.uleb128 0xd
 2559 0890 8804 0000 		.long	0x488
 2560 0894 2F        		.byte	0x2f
 2561 0895 00        		.byte	0x0
 2562 0896 20        		.uleb128 0x20
 2563 0897 0000 0000 		.long	.LASF197
 2564 089b 01        		.byte	0x1
 2565 089c F5        		.byte	0xf5
GAS LISTING C:\Users\ADMINI~1\AppData\Local\Temp/cc9J5r6C.s 			page 46


 2566 089d 8608 0000 		.long	0x886
 2567 08a1 05        		.byte	0x5
 2568 08a2 03        		.byte	0x3
 2569 08a3 0000 0000 		.long	_prevPressedBuffer
 2570 08a7 1C        		.uleb128 0x1c
 2571 08a8 0000 0000 		.long	.LASF198
 2572 08ac 01        		.byte	0x1
 2573 08ad 2B02      		.word	0x22b
 2574 08af 7200 0000 		.long	0x72
 2575 08b3 05        		.byte	0x5
 2576 08b4 03        		.byte	0x3
 2577 08b5 0000 0000 		.long	_needRelease
 2578 08b9 0C        		.uleb128 0xc
 2579 08ba 7D00 0000 		.long	0x7d
 2580 08be C408 0000 		.long	0x8c4
 2581 08c2 21        		.uleb128 0x21
 2582 08c3 00        		.byte	0x0
 2583 08c4 22        		.uleb128 0x22
 2584 08c5 0000 0000 		.long	.LASF199
 2585 08c9 04        		.byte	0x4
 2586 08ca BC        		.byte	0xbc
 2587 08cb D108 0000 		.long	0x8d1
 2588 08cf 01        		.byte	0x1
 2589 08d0 01        		.byte	0x1
 2590 08d1 23        		.uleb128 0x23
 2591 08d2 B908 0000 		.long	0x8b9
 2592 08d6 22        		.uleb128 0x22
 2593 08d7 0000 0000 		.long	.LASF200
 2594 08db 04        		.byte	0x4
 2595 08dc BF        		.byte	0xbf
 2596 08dd E308 0000 		.long	0x8e3
 2597 08e1 01        		.byte	0x1
 2598 08e2 01        		.byte	0x1
 2599 08e3 23        		.uleb128 0x23
 2600 08e4 B908 0000 		.long	0x8b9
 2601 08e8 22        		.uleb128 0x22
 2602 08e9 0000 0000 		.long	.LASF201
 2603 08ed 03        		.byte	0x3
 2604 08ee BF        		.byte	0xbf
 2605 08ef 3300 0000 		.long	0x33
 2606 08f3 01        		.byte	0x1
 2607 08f4 01        		.byte	0x1
 2608 08f5 0C        		.uleb128 0xc
 2609 08f6 6400 0000 		.long	0x64
 2610 08fa 0509 0000 		.long	0x905
 2611 08fe 0D        		.uleb128 0xd
 2612 08ff 8804 0000 		.long	0x488
 2613 0903 54        		.byte	0x54
 2614 0904 00        		.byte	0x0
 2615 0905 24        		.uleb128 0x24
 2616 0906 0000 0000 		.long	.LASF202
 2617 090a 01        		.byte	0x1
 2618 090b 0101      		.word	0x101
 2619 090d 1809 0000 		.long	0x918
 2620 0911 01        		.byte	0x1
 2621 0912 05        		.byte	0x5
 2622 0913 03        		.byte	0x3
GAS LISTING C:\Users\ADMINI~1\AppData\Local\Temp/cc9J5r6C.s 			page 47


 2623 0914 0000 0000 		.long	usbDescriptorHidReport
 2624 0918 23        		.uleb128 0x23
 2625 0919 F508 0000 		.long	0x8f5
 2626 091d 25        		.uleb128 0x25
 2627 091e 0000 0000 		.long	.LASF203
 2628 0922 03        		.byte	0x3
 2629 0923 9602      		.word	0x296
 2630 0925 8B04 0000 		.long	0x48b
 2631 0929 01        		.byte	0x1
 2632 092a 01        		.byte	0x1
 2633 092b 22        		.uleb128 0x22
 2634 092c 0000 0000 		.long	.LASF204
 2635 0930 05        		.byte	0x5
 2636 0931 38        		.byte	0x38
 2637 0932 6B00 0000 		.long	0x6b
 2638 0936 01        		.byte	0x1
 2639 0937 01        		.byte	0x1
 2640 0938 22        		.uleb128 0x22
 2641 0939 0000 0000 		.long	.LASF205
 2642 093d 05        		.byte	0x5
 2643 093e 39        		.byte	0x39
 2644 093f 7200 0000 		.long	0x72
 2645 0943 01        		.byte	0x1
 2646 0944 01        		.byte	0x1
 2647 0945 22        		.uleb128 0x22
 2648 0946 0000 0000 		.long	.LASF206
 2649 094a 05        		.byte	0x5
 2650 094b 3B        		.byte	0x3b
 2651 094c 7200 0000 		.long	0x72
 2652 0950 01        		.byte	0x1
 2653 0951 01        		.byte	0x1
 2654 0952 22        		.uleb128 0x22
 2655 0953 0000 0000 		.long	.LASF207
 2656 0957 06        		.byte	0x6
 2657 0958 0D        		.byte	0xd
 2658 0959 7200 0000 		.long	0x72
 2659 095d 01        		.byte	0x1
 2660 095e 01        		.byte	0x1
 2661 095f 0C        		.uleb128 0xc
 2662 0960 3300 0000 		.long	0x33
 2663 0964 6F09 0000 		.long	0x96f
 2664 0968 0D        		.uleb128 0xd
 2665 0969 8804 0000 		.long	0x488
 2666 096d 0F        		.byte	0xf
 2667 096e 00        		.byte	0x0
 2668 096f 22        		.uleb128 0x22
 2669 0970 0000 0000 		.long	.LASF208
 2670 0974 06        		.byte	0x6
 2671 0975 0E        		.byte	0xe
 2672 0976 7C09 0000 		.long	0x97c
 2673 097a 01        		.byte	0x1
 2674 097b 01        		.byte	0x1
 2675 097c 23        		.uleb128 0x23
 2676 097d 5F09 0000 		.long	0x95f
 2677 0981 0C        		.uleb128 0xc
 2678 0982 7200 0000 		.long	0x72
 2679 0986 9109 0000 		.long	0x991
GAS LISTING C:\Users\ADMINI~1\AppData\Local\Temp/cc9J5r6C.s 			page 48


 2680 098a 0D        		.uleb128 0xd
 2681 098b 8804 0000 		.long	0x488
 2682 098f 10        		.byte	0x10
 2683 0990 00        		.byte	0x0
 2684 0991 22        		.uleb128 0x22
 2685 0992 0000 0000 		.long	.LASF209
 2686 0996 06        		.byte	0x6
 2687 0997 0F        		.byte	0xf
 2688 0998 8109 0000 		.long	0x981
 2689 099c 01        		.byte	0x1
 2690 099d 01        		.byte	0x1
 2691 099e 22        		.uleb128 0x22
 2692 099f 0000 0000 		.long	.LASF210
 2693 09a3 06        		.byte	0x6
 2694 09a4 10        		.byte	0x10
 2695 09a5 8109 0000 		.long	0x981
 2696 09a9 01        		.byte	0x1
 2697 09aa 01        		.byte	0x1
 2698 09ab 22        		.uleb128 0x22
 2699 09ac 0000 0000 		.long	.LASF211
 2700 09b0 07        		.byte	0x7
 2701 09b1 19        		.byte	0x19
 2702 09b2 8608 0000 		.long	0x886
 2703 09b6 01        		.byte	0x1
 2704 09b7 01        		.byte	0x1
 2705 09b8 24        		.uleb128 0x24
 2706 09b9 0000 0000 		.long	.LASF212
 2707 09bd 01        		.byte	0x1
 2708 09be 9E01      		.word	0x19e
 2709 09c0 7200 0000 		.long	0x72
 2710 09c4 01        		.byte	0x1
 2711 09c5 05        		.byte	0x5
 2712 09c6 03        		.byte	0x3
 2713 09c7 0000 0000 		.long	reportIndex
 2714 09cb 24        		.uleb128 0x24
 2715 09cc 0000 0000 		.long	.LASF213
 2716 09d0 01        		.byte	0x1
 2717 09d1 9F01      		.word	0x19f
 2718 09d3 7200 0000 		.long	0x72
 2719 09d7 01        		.byte	0x1
 2720 09d8 05        		.byte	0x5
 2721 09d9 03        		.byte	0x3
 2722 09da 0000 0000 		.long	_isMultimediaPressed
 2723 09de 00        		.byte	0x0
 2724               		.section	.debug_abbrev
 2725 0000 01        		.uleb128 0x1
 2726 0001 11        		.uleb128 0x11
 2727 0002 01        		.byte	0x1
 2728 0003 25        		.uleb128 0x25
 2729 0004 0E        		.uleb128 0xe
 2730 0005 13        		.uleb128 0x13
 2731 0006 0B        		.uleb128 0xb
 2732 0007 03        		.uleb128 0x3
 2733 0008 0E        		.uleb128 0xe
 2734 0009 1B        		.uleb128 0x1b
 2735 000a 0E        		.uleb128 0xe
 2736 000b 11        		.uleb128 0x11
GAS LISTING C:\Users\ADMINI~1\AppData\Local\Temp/cc9J5r6C.s 			page 49


 2737 000c 01        		.uleb128 0x1
 2738 000d 12        		.uleb128 0x12
 2739 000e 01        		.uleb128 0x1
 2740 000f 10        		.uleb128 0x10
 2741 0010 06        		.uleb128 0x6
 2742 0011 00        		.byte	0x0
 2743 0012 00        		.byte	0x0
 2744 0013 02        		.uleb128 0x2
 2745 0014 24        		.uleb128 0x24
 2746 0015 00        		.byte	0x0
 2747 0016 0B        		.uleb128 0xb
 2748 0017 0B        		.uleb128 0xb
 2749 0018 3E        		.uleb128 0x3e
 2750 0019 0B        		.uleb128 0xb
 2751 001a 03        		.uleb128 0x3
 2752 001b 0E        		.uleb128 0xe
 2753 001c 00        		.byte	0x0
 2754 001d 00        		.byte	0x0
 2755 001e 03        		.uleb128 0x3
 2756 001f 24        		.uleb128 0x24
 2757 0020 00        		.byte	0x0
 2758 0021 0B        		.uleb128 0xb
 2759 0022 0B        		.uleb128 0xb
 2760 0023 3E        		.uleb128 0x3e
 2761 0024 0B        		.uleb128 0xb
 2762 0025 03        		.uleb128 0x3
 2763 0026 08        		.uleb128 0x8
 2764 0027 00        		.byte	0x0
 2765 0028 00        		.byte	0x0
 2766 0029 04        		.uleb128 0x4
 2767 002a 16        		.uleb128 0x16
 2768 002b 00        		.byte	0x0
 2769 002c 03        		.uleb128 0x3
 2770 002d 0E        		.uleb128 0xe
 2771 002e 3A        		.uleb128 0x3a
 2772 002f 0B        		.uleb128 0xb
 2773 0030 3B        		.uleb128 0x3b
 2774 0031 0B        		.uleb128 0xb
 2775 0032 49        		.uleb128 0x49
 2776 0033 13        		.uleb128 0x13
 2777 0034 00        		.byte	0x0
 2778 0035 00        		.byte	0x0
 2779 0036 05        		.uleb128 0x5
 2780 0037 24        		.uleb128 0x24
 2781 0038 00        		.byte	0x0
 2782 0039 0B        		.uleb128 0xb
 2783 003a 0B        		.uleb128 0xb
 2784 003b 3E        		.uleb128 0x3e
 2785 003c 0B        		.uleb128 0xb
 2786 003d 00        		.byte	0x0
 2787 003e 00        		.byte	0x0
 2788 003f 06        		.uleb128 0x6
 2789 0040 04        		.uleb128 0x4
 2790 0041 01        		.byte	0x1
 2791 0042 0B        		.uleb128 0xb
 2792 0043 0B        		.uleb128 0xb
 2793 0044 3A        		.uleb128 0x3a
GAS LISTING C:\Users\ADMINI~1\AppData\Local\Temp/cc9J5r6C.s 			page 50


 2794 0045 0B        		.uleb128 0xb
 2795 0046 3B        		.uleb128 0x3b
 2796 0047 0B        		.uleb128 0xb
 2797 0048 01        		.uleb128 0x1
 2798 0049 13        		.uleb128 0x13
 2799 004a 00        		.byte	0x0
 2800 004b 00        		.byte	0x0
 2801 004c 07        		.uleb128 0x7
 2802 004d 28        		.uleb128 0x28
 2803 004e 00        		.byte	0x0
 2804 004f 03        		.uleb128 0x3
 2805 0050 0E        		.uleb128 0xe
 2806 0051 1C        		.uleb128 0x1c
 2807 0052 0D        		.uleb128 0xd
 2808 0053 00        		.byte	0x0
 2809 0054 00        		.byte	0x0
 2810 0055 08        		.uleb128 0x8
 2811 0056 13        		.uleb128 0x13
 2812 0057 01        		.byte	0x1
 2813 0058 03        		.uleb128 0x3
 2814 0059 0E        		.uleb128 0xe
 2815 005a 0B        		.uleb128 0xb
 2816 005b 0B        		.uleb128 0xb
 2817 005c 3A        		.uleb128 0x3a
 2818 005d 0B        		.uleb128 0xb
 2819 005e 3B        		.uleb128 0x3b
 2820 005f 05        		.uleb128 0x5
 2821 0060 01        		.uleb128 0x1
 2822 0061 13        		.uleb128 0x13
 2823 0062 00        		.byte	0x0
 2824 0063 00        		.byte	0x0
 2825 0064 09        		.uleb128 0x9
 2826 0065 0D        		.uleb128 0xd
 2827 0066 00        		.byte	0x0
 2828 0067 03        		.uleb128 0x3
 2829 0068 08        		.uleb128 0x8
 2830 0069 3A        		.uleb128 0x3a
 2831 006a 0B        		.uleb128 0xb
 2832 006b 3B        		.uleb128 0x3b
 2833 006c 05        		.uleb128 0x5
 2834 006d 49        		.uleb128 0x49
 2835 006e 13        		.uleb128 0x13
 2836 006f 38        		.uleb128 0x38
 2837 0070 0A        		.uleb128 0xa
 2838 0071 00        		.byte	0x0
 2839 0072 00        		.byte	0x0
 2840 0073 0A        		.uleb128 0xa
 2841 0074 0D        		.uleb128 0xd
 2842 0075 00        		.byte	0x0
 2843 0076 03        		.uleb128 0x3
 2844 0077 0E        		.uleb128 0xe
 2845 0078 3A        		.uleb128 0x3a
 2846 0079 0B        		.uleb128 0xb
 2847 007a 3B        		.uleb128 0x3b
 2848 007b 05        		.uleb128 0x5
 2849 007c 49        		.uleb128 0x49
 2850 007d 13        		.uleb128 0x13
GAS LISTING C:\Users\ADMINI~1\AppData\Local\Temp/cc9J5r6C.s 			page 51


 2851 007e 38        		.uleb128 0x38
 2852 007f 0A        		.uleb128 0xa
 2853 0080 00        		.byte	0x0
 2854 0081 00        		.byte	0x0
 2855 0082 0B        		.uleb128 0xb
 2856 0083 35        		.uleb128 0x35
 2857 0084 00        		.byte	0x0
 2858 0085 49        		.uleb128 0x49
 2859 0086 13        		.uleb128 0x13
 2860 0087 00        		.byte	0x0
 2861 0088 00        		.byte	0x0
 2862 0089 0C        		.uleb128 0xc
 2863 008a 01        		.uleb128 0x1
 2864 008b 01        		.byte	0x1
 2865 008c 49        		.uleb128 0x49
 2866 008d 13        		.uleb128 0x13
 2867 008e 01        		.uleb128 0x1
 2868 008f 13        		.uleb128 0x13
 2869 0090 00        		.byte	0x0
 2870 0091 00        		.byte	0x0
 2871 0092 0D        		.uleb128 0xd
 2872 0093 21        		.uleb128 0x21
 2873 0094 00        		.byte	0x0
 2874 0095 49        		.uleb128 0x49
 2875 0096 13        		.uleb128 0x13
 2876 0097 2F        		.uleb128 0x2f
 2877 0098 0B        		.uleb128 0xb
 2878 0099 00        		.byte	0x0
 2879 009a 00        		.byte	0x0
 2880 009b 0E        		.uleb128 0xe
 2881 009c 16        		.uleb128 0x16
 2882 009d 00        		.byte	0x0
 2883 009e 03        		.uleb128 0x3
 2884 009f 0E        		.uleb128 0xe
 2885 00a0 3A        		.uleb128 0x3a
 2886 00a1 0B        		.uleb128 0xb
 2887 00a2 3B        		.uleb128 0x3b
 2888 00a3 05        		.uleb128 0x5
 2889 00a4 49        		.uleb128 0x49
 2890 00a5 13        		.uleb128 0x13
 2891 00a6 00        		.byte	0x0
 2892 00a7 00        		.byte	0x0
 2893 00a8 0F        		.uleb128 0xf
 2894 00a9 17        		.uleb128 0x17
 2895 00aa 01        		.byte	0x1
 2896 00ab 03        		.uleb128 0x3
 2897 00ac 0E        		.uleb128 0xe
 2898 00ad 0B        		.uleb128 0xb
 2899 00ae 0B        		.uleb128 0xb
 2900 00af 3A        		.uleb128 0x3a
 2901 00b0 0B        		.uleb128 0xb
 2902 00b1 3B        		.uleb128 0x3b
 2903 00b2 05        		.uleb128 0x5
 2904 00b3 01        		.uleb128 0x1
 2905 00b4 13        		.uleb128 0x13
 2906 00b5 00        		.byte	0x0
 2907 00b6 00        		.byte	0x0
GAS LISTING C:\Users\ADMINI~1\AppData\Local\Temp/cc9J5r6C.s 			page 52


 2908 00b7 10        		.uleb128 0x10
 2909 00b8 0D        		.uleb128 0xd
 2910 00b9 00        		.byte	0x0
 2911 00ba 03        		.uleb128 0x3
 2912 00bb 0E        		.uleb128 0xe
 2913 00bc 3A        		.uleb128 0x3a
 2914 00bd 0B        		.uleb128 0xb
 2915 00be 3B        		.uleb128 0x3b
 2916 00bf 05        		.uleb128 0x5
 2917 00c0 49        		.uleb128 0x49
 2918 00c1 13        		.uleb128 0x13
 2919 00c2 00        		.byte	0x0
 2920 00c3 00        		.byte	0x0
 2921 00c4 11        		.uleb128 0x11
 2922 00c5 13        		.uleb128 0x13
 2923 00c6 01        		.byte	0x1
 2924 00c7 03        		.uleb128 0x3
 2925 00c8 0E        		.uleb128 0xe
 2926 00c9 0B        		.uleb128 0xb
 2927 00ca 0B        		.uleb128 0xb
 2928 00cb 3A        		.uleb128 0x3a
 2929 00cc 0B        		.uleb128 0xb
 2930 00cd 3B        		.uleb128 0x3b
 2931 00ce 0B        		.uleb128 0xb
 2932 00cf 01        		.uleb128 0x1
 2933 00d0 13        		.uleb128 0x13
 2934 00d1 00        		.byte	0x0
 2935 00d2 00        		.byte	0x0
 2936 00d3 12        		.uleb128 0x12
 2937 00d4 2E        		.uleb128 0x2e
 2938 00d5 01        		.byte	0x1
 2939 00d6 3F        		.uleb128 0x3f
 2940 00d7 0C        		.uleb128 0xc
 2941 00d8 03        		.uleb128 0x3
 2942 00d9 0E        		.uleb128 0xe
 2943 00da 3A        		.uleb128 0x3a
 2944 00db 0B        		.uleb128 0xb
 2945 00dc 3B        		.uleb128 0x3b
 2946 00dd 05        		.uleb128 0x5
 2947 00de 27        		.uleb128 0x27
 2948 00df 0C        		.uleb128 0xc
 2949 00e0 49        		.uleb128 0x49
 2950 00e1 13        		.uleb128 0x13
 2951 00e2 11        		.uleb128 0x11
 2952 00e3 01        		.uleb128 0x1
 2953 00e4 12        		.uleb128 0x12
 2954 00e5 01        		.uleb128 0x1
 2955 00e6 40        		.uleb128 0x40
 2956 00e7 0A        		.uleb128 0xa
 2957 00e8 01        		.uleb128 0x1
 2958 00e9 13        		.uleb128 0x13
 2959 00ea 00        		.byte	0x0
 2960 00eb 00        		.byte	0x0
 2961 00ec 13        		.uleb128 0x13
 2962 00ed 05        		.uleb128 0x5
 2963 00ee 00        		.byte	0x0
 2964 00ef 03        		.uleb128 0x3
GAS LISTING C:\Users\ADMINI~1\AppData\Local\Temp/cc9J5r6C.s 			page 53


 2965 00f0 0E        		.uleb128 0xe
 2966 00f1 3A        		.uleb128 0x3a
 2967 00f2 0B        		.uleb128 0xb
 2968 00f3 3B        		.uleb128 0x3b
 2969 00f4 05        		.uleb128 0x5
 2970 00f5 49        		.uleb128 0x49
 2971 00f6 13        		.uleb128 0x13
 2972 00f7 02        		.uleb128 0x2
 2973 00f8 06        		.uleb128 0x6
 2974 00f9 00        		.byte	0x0
 2975 00fa 00        		.byte	0x0
 2976 00fb 14        		.uleb128 0x14
 2977 00fc 34        		.uleb128 0x34
 2978 00fd 00        		.byte	0x0
 2979 00fe 03        		.uleb128 0x3
 2980 00ff 0E        		.uleb128 0xe
 2981 0100 3A        		.uleb128 0x3a
 2982 0101 0B        		.uleb128 0xb
 2983 0102 3B        		.uleb128 0x3b
 2984 0103 05        		.uleb128 0x5
 2985 0104 49        		.uleb128 0x49
 2986 0105 13        		.uleb128 0x13
 2987 0106 00        		.byte	0x0
 2988 0107 00        		.byte	0x0
 2989 0108 15        		.uleb128 0x15
 2990 0109 0B        		.uleb128 0xb
 2991 010a 01        		.byte	0x1
 2992 010b 11        		.uleb128 0x11
 2993 010c 01        		.uleb128 0x1
 2994 010d 12        		.uleb128 0x12
 2995 010e 01        		.uleb128 0x1
 2996 010f 01        		.uleb128 0x1
 2997 0110 13        		.uleb128 0x13
 2998 0111 00        		.byte	0x0
 2999 0112 00        		.byte	0x0
 3000 0113 16        		.uleb128 0x16
 3001 0114 0B        		.uleb128 0xb
 3002 0115 01        		.byte	0x1
 3003 0116 11        		.uleb128 0x11
 3004 0117 01        		.uleb128 0x1
 3005 0118 12        		.uleb128 0x12
 3006 0119 01        		.uleb128 0x1
 3007 011a 00        		.byte	0x0
 3008 011b 00        		.byte	0x0
 3009 011c 17        		.uleb128 0x17
 3010 011d 34        		.uleb128 0x34
 3011 011e 00        		.byte	0x0
 3012 011f 03        		.uleb128 0x3
 3013 0120 0E        		.uleb128 0xe
 3014 0121 3A        		.uleb128 0x3a
 3015 0122 0B        		.uleb128 0xb
 3016 0123 3B        		.uleb128 0x3b
 3017 0124 05        		.uleb128 0x5
 3018 0125 49        		.uleb128 0x49
 3019 0126 13        		.uleb128 0x13
 3020 0127 02        		.uleb128 0x2
 3021 0128 06        		.uleb128 0x6
GAS LISTING C:\Users\ADMINI~1\AppData\Local\Temp/cc9J5r6C.s 			page 54


 3022 0129 00        		.byte	0x0
 3023 012a 00        		.byte	0x0
 3024 012b 18        		.uleb128 0x18
 3025 012c 2E        		.uleb128 0x2e
 3026 012d 00        		.byte	0x0
 3027 012e 3F        		.uleb128 0x3f
 3028 012f 0C        		.uleb128 0xc
 3029 0130 03        		.uleb128 0x3
 3030 0131 0E        		.uleb128 0xe
 3031 0132 3A        		.uleb128 0x3a
 3032 0133 0B        		.uleb128 0xb
 3033 0134 3B        		.uleb128 0x3b
 3034 0135 05        		.uleb128 0x5
 3035 0136 27        		.uleb128 0x27
 3036 0137 0C        		.uleb128 0xc
 3037 0138 49        		.uleb128 0x49
 3038 0139 13        		.uleb128 0x13
 3039 013a 11        		.uleb128 0x11
 3040 013b 01        		.uleb128 0x1
 3041 013c 12        		.uleb128 0x12
 3042 013d 01        		.uleb128 0x1
 3043 013e 40        		.uleb128 0x40
 3044 013f 0A        		.uleb128 0xa
 3045 0140 00        		.byte	0x0
 3046 0141 00        		.byte	0x0
 3047 0142 19        		.uleb128 0x19
 3048 0143 2E        		.uleb128 0x2e
 3049 0144 00        		.byte	0x0
 3050 0145 3F        		.uleb128 0x3f
 3051 0146 0C        		.uleb128 0xc
 3052 0147 03        		.uleb128 0x3
 3053 0148 0E        		.uleb128 0xe
 3054 0149 3A        		.uleb128 0x3a
 3055 014a 0B        		.uleb128 0xb
 3056 014b 3B        		.uleb128 0x3b
 3057 014c 05        		.uleb128 0x5
 3058 014d 27        		.uleb128 0x27
 3059 014e 0C        		.uleb128 0xc
 3060 014f 11        		.uleb128 0x11
 3061 0150 01        		.uleb128 0x1
 3062 0151 12        		.uleb128 0x12
 3063 0152 01        		.uleb128 0x1
 3064 0153 40        		.uleb128 0x40
 3065 0154 0A        		.uleb128 0xa
 3066 0155 00        		.byte	0x0
 3067 0156 00        		.byte	0x0
 3068 0157 1A        		.uleb128 0x1a
 3069 0158 34        		.uleb128 0x34
 3070 0159 00        		.byte	0x0
 3071 015a 03        		.uleb128 0x3
 3072 015b 08        		.uleb128 0x8
 3073 015c 3A        		.uleb128 0x3a
 3074 015d 0B        		.uleb128 0xb
 3075 015e 3B        		.uleb128 0x3b
 3076 015f 05        		.uleb128 0x5
 3077 0160 49        		.uleb128 0x49
 3078 0161 13        		.uleb128 0x13
GAS LISTING C:\Users\ADMINI~1\AppData\Local\Temp/cc9J5r6C.s 			page 55


 3079 0162 00        		.byte	0x0
 3080 0163 00        		.byte	0x0
 3081 0164 1B        		.uleb128 0x1b
 3082 0165 34        		.uleb128 0x34
 3083 0166 00        		.byte	0x0
 3084 0167 03        		.uleb128 0x3
 3085 0168 08        		.uleb128 0x8
 3086 0169 3A        		.uleb128 0x3a
 3087 016a 0B        		.uleb128 0xb
 3088 016b 3B        		.uleb128 0x3b
 3089 016c 05        		.uleb128 0x5
 3090 016d 49        		.uleb128 0x49
 3091 016e 13        		.uleb128 0x13
 3092 016f 02        		.uleb128 0x2
 3093 0170 06        		.uleb128 0x6
 3094 0171 00        		.byte	0x0
 3095 0172 00        		.byte	0x0
 3096 0173 1C        		.uleb128 0x1c
 3097 0174 34        		.uleb128 0x34
 3098 0175 00        		.byte	0x0
 3099 0176 03        		.uleb128 0x3
 3100 0177 0E        		.uleb128 0xe
 3101 0178 3A        		.uleb128 0x3a
 3102 0179 0B        		.uleb128 0xb
 3103 017a 3B        		.uleb128 0x3b
 3104 017b 05        		.uleb128 0x5
 3105 017c 49        		.uleb128 0x49
 3106 017d 13        		.uleb128 0x13
 3107 017e 02        		.uleb128 0x2
 3108 017f 0A        		.uleb128 0xa
 3109 0180 00        		.byte	0x0
 3110 0181 00        		.byte	0x0
 3111 0182 1D        		.uleb128 0x1d
 3112 0183 2E        		.uleb128 0x2e
 3113 0184 01        		.byte	0x1
 3114 0185 3F        		.uleb128 0x3f
 3115 0186 0C        		.uleb128 0xc
 3116 0187 03        		.uleb128 0x3
 3117 0188 0E        		.uleb128 0xe
 3118 0189 3A        		.uleb128 0x3a
 3119 018a 0B        		.uleb128 0xb
 3120 018b 3B        		.uleb128 0x3b
 3121 018c 05        		.uleb128 0x5
 3122 018d 27        		.uleb128 0x27
 3123 018e 0C        		.uleb128 0xc
 3124 018f 11        		.uleb128 0x11
 3125 0190 01        		.uleb128 0x1
 3126 0191 12        		.uleb128 0x12
 3127 0192 01        		.uleb128 0x1
 3128 0193 40        		.uleb128 0x40
 3129 0194 0A        		.uleb128 0xa
 3130 0195 01        		.uleb128 0x1
 3131 0196 13        		.uleb128 0x13
 3132 0197 00        		.byte	0x0
 3133 0198 00        		.byte	0x0
 3134 0199 1E        		.uleb128 0x1e
 3135 019a 0F        		.uleb128 0xf
GAS LISTING C:\Users\ADMINI~1\AppData\Local\Temp/cc9J5r6C.s 			page 56


 3136 019b 00        		.byte	0x0
 3137 019c 0B        		.uleb128 0xb
 3138 019d 0B        		.uleb128 0xb
 3139 019e 49        		.uleb128 0x49
 3140 019f 13        		.uleb128 0x13
 3141 01a0 00        		.byte	0x0
 3142 01a1 00        		.byte	0x0
 3143 01a2 1F        		.uleb128 0x1f
 3144 01a3 05        		.uleb128 0x5
 3145 01a4 00        		.byte	0x0
 3146 01a5 03        		.uleb128 0x3
 3147 01a6 08        		.uleb128 0x8
 3148 01a7 3A        		.uleb128 0x3a
 3149 01a8 0B        		.uleb128 0xb
 3150 01a9 3B        		.uleb128 0x3b
 3151 01aa 05        		.uleb128 0x5
 3152 01ab 49        		.uleb128 0x49
 3153 01ac 13        		.uleb128 0x13
 3154 01ad 02        		.uleb128 0x2
 3155 01ae 06        		.uleb128 0x6
 3156 01af 00        		.byte	0x0
 3157 01b0 00        		.byte	0x0
 3158 01b1 20        		.uleb128 0x20
 3159 01b2 34        		.uleb128 0x34
 3160 01b3 00        		.byte	0x0
 3161 01b4 03        		.uleb128 0x3
 3162 01b5 0E        		.uleb128 0xe
 3163 01b6 3A        		.uleb128 0x3a
 3164 01b7 0B        		.uleb128 0xb
 3165 01b8 3B        		.uleb128 0x3b
 3166 01b9 0B        		.uleb128 0xb
 3167 01ba 49        		.uleb128 0x49
 3168 01bb 13        		.uleb128 0x13
 3169 01bc 02        		.uleb128 0x2
 3170 01bd 0A        		.uleb128 0xa
 3171 01be 00        		.byte	0x0
 3172 01bf 00        		.byte	0x0
 3173 01c0 21        		.uleb128 0x21
 3174 01c1 21        		.uleb128 0x21
 3175 01c2 00        		.byte	0x0
 3176 01c3 00        		.byte	0x0
 3177 01c4 00        		.byte	0x0
 3178 01c5 22        		.uleb128 0x22
 3179 01c6 34        		.uleb128 0x34
 3180 01c7 00        		.byte	0x0
 3181 01c8 03        		.uleb128 0x3
 3182 01c9 0E        		.uleb128 0xe
 3183 01ca 3A        		.uleb128 0x3a
 3184 01cb 0B        		.uleb128 0xb
 3185 01cc 3B        		.uleb128 0x3b
 3186 01cd 0B        		.uleb128 0xb
 3187 01ce 49        		.uleb128 0x49
 3188 01cf 13        		.uleb128 0x13
 3189 01d0 3F        		.uleb128 0x3f
 3190 01d1 0C        		.uleb128 0xc
 3191 01d2 3C        		.uleb128 0x3c
 3192 01d3 0C        		.uleb128 0xc
GAS LISTING C:\Users\ADMINI~1\AppData\Local\Temp/cc9J5r6C.s 			page 57


 3193 01d4 00        		.byte	0x0
 3194 01d5 00        		.byte	0x0
 3195 01d6 23        		.uleb128 0x23
 3196 01d7 26        		.uleb128 0x26
 3197 01d8 00        		.byte	0x0
 3198 01d9 49        		.uleb128 0x49
 3199 01da 13        		.uleb128 0x13
 3200 01db 00        		.byte	0x0
 3201 01dc 00        		.byte	0x0
 3202 01dd 24        		.uleb128 0x24
 3203 01de 34        		.uleb128 0x34
 3204 01df 00        		.byte	0x0
 3205 01e0 03        		.uleb128 0x3
 3206 01e1 0E        		.uleb128 0xe
 3207 01e2 3A        		.uleb128 0x3a
 3208 01e3 0B        		.uleb128 0xb
 3209 01e4 3B        		.uleb128 0x3b
 3210 01e5 05        		.uleb128 0x5
 3211 01e6 49        		.uleb128 0x49
 3212 01e7 13        		.uleb128 0x13
 3213 01e8 3F        		.uleb128 0x3f
 3214 01e9 0C        		.uleb128 0xc
 3215 01ea 02        		.uleb128 0x2
 3216 01eb 0A        		.uleb128 0xa
 3217 01ec 00        		.byte	0x0
 3218 01ed 00        		.byte	0x0
 3219 01ee 25        		.uleb128 0x25
 3220 01ef 34        		.uleb128 0x34
 3221 01f0 00        		.byte	0x0
 3222 01f1 03        		.uleb128 0x3
 3223 01f2 0E        		.uleb128 0xe
 3224 01f3 3A        		.uleb128 0x3a
 3225 01f4 0B        		.uleb128 0xb
 3226 01f5 3B        		.uleb128 0x3b
 3227 01f6 05        		.uleb128 0x5
 3228 01f7 49        		.uleb128 0x49
 3229 01f8 13        		.uleb128 0x13
 3230 01f9 3F        		.uleb128 0x3f
 3231 01fa 0C        		.uleb128 0xc
 3232 01fb 3C        		.uleb128 0x3c
 3233 01fc 0C        		.uleb128 0xc
 3234 01fd 00        		.byte	0x0
 3235 01fe 00        		.byte	0x0
 3236 01ff 00        		.byte	0x0
 3237               		.section	.debug_pubnames,"",@progbits
 3238 0000 1201 0000 		.long	0x112
 3239 0004 0200      		.word	0x2
 3240 0006 0000 0000 		.long	.Ldebug_info0
 3241 000a DF09 0000 		.long	0x9df
 3242 000e 3D05 0000 		.long	0x53d
 3243 0012 6D61 6B65 		.string	"makeReportBuffer"
 3243      5265 706F 
 3243      7274 4275 
 3243      6666 6572 
 3243      00
 3244 0023 E505 0000 		.long	0x5e5
 3245 0027 6861 734D 		.string	"hasMacroUsb"
GAS LISTING C:\Users\ADMINI~1\AppData\Local\Temp/cc9J5r6C.s 			page 58


 3245      6163 726F 
 3245      5573 6200 
 3246 0033 FE05 0000 		.long	0x5fe
 3247 0037 636C 6561 		.string	"clearReportBuffer"
 3247      7252 6570 
 3247      6F72 7442 
 3247      7566 6665 
 3247      7200 
 3248 0049 1306 0000 		.long	0x613
 3249 004d 7363 616E 		.string	"scanMacroUsb"
 3249      4D61 6372 
 3249      6F55 7362 
 3249      00
 3250 005a 7106 0000 		.long	0x671
 3251 005e 7363 616E 		.string	"scanKeyUSB"
 3251      4B65 7955 
 3251      5342 00
 3252 0069 3007 0000 		.long	0x730
 3253 006d 7573 625F 		.string	"usb_main"
 3253      6D61 696E 
 3253      00
 3254 0076 6A07 0000 		.long	0x76a
 3255 007a 7072 6570 		.string	"prepareKeyMappingUsb"
 3255      6172 654B 
 3255      6579 4D61 
 3255      7070 696E 
 3255      6755 7362 
 3256 008f 7F07 0000 		.long	0x77f
 3257 0093 696E 6974 		.string	"initInterfaceUsb"
 3257      496E 7465 
 3257      7266 6163 
 3257      6555 7362 
 3257      00
 3258 00a4 9407 0000 		.long	0x794
 3259 00a8 7573 6246 		.string	"usbFunctionSetup"
 3259      756E 6374 
 3259      696F 6E53 
 3259      6574 7570 
 3259      00
 3260 00b9 DD07 0000 		.long	0x7dd
 3261 00bd 7573 6246 		.string	"usbFunctionWrite"
 3261      756E 6374 
 3261      696F 6E57 
 3261      7269 7465 
 3261      00
 3262 00ce 0509 0000 		.long	0x905
 3263 00d2 7573 6244 		.string	"usbDescriptorHidReport"
 3263      6573 6372 
 3263      6970 746F 
 3263      7248 6964 
 3263      5265 706F 
 3264 00e9 B809 0000 		.long	0x9b8
 3265 00ed 7265 706F 		.string	"reportIndex"
 3265      7274 496E 
 3265      6465 7800 
 3266 00f9 CB09 0000 		.long	0x9cb
 3267 00fd 5F69 734D 		.string	"_isMultimediaPressed"
GAS LISTING C:\Users\ADMINI~1\AppData\Local\Temp/cc9J5r6C.s 			page 59


 3267      756C 7469 
 3267      6D65 6469 
 3267      6150 7265 
 3267      7373 6564 
 3268 0112 0000 0000 		.long	0x0
 3269               		.section	.debug_aranges,"",@progbits
 3270 0000 1C00 0000 		.long	0x1c
 3271 0004 0200      		.word	0x2
 3272 0006 0000 0000 		.long	.Ldebug_info0
 3273 000a 04        		.byte	0x4
 3274 000b 00        		.byte	0x0
 3275 000c 0000      		.word	0x0
 3276 000e 0000      		.word	0x0
 3277 0010 0000 0000 		.long	.Ltext0
 3278 0014 2C05 0000 		.long	.Letext0-.Ltext0
 3279 0018 0000 0000 		.long	0x0
 3280 001c 0000 0000 		.long	0x0
 3281               		.section	.debug_line
 3282 0000 C005 0000 		.long	.LELT0-.LSLT0
 3283               	.LSLT0:
 3284 0004 0200      		.word	0x2
 3285 0006 A700 0000 		.long	.LELTP0-.LASLTP0
 3286               	.LASLTP0:
 3287 000a 01        		.byte	0x1
 3288 000b 01        		.byte	0x1
 3289 000c F6        		.byte	0xf6
 3290 000d F5        		.byte	0xf5
 3291 000e 0A        		.byte	0xa
 3292 000f 00        		.byte	0x0
 3293 0010 01        		.byte	0x1
 3294 0011 01        		.byte	0x1
 3295 0012 01        		.byte	0x1
 3296 0013 01        		.byte	0x1
 3297 0014 00        		.byte	0x0
 3298 0015 00        		.byte	0x0
 3299 0016 00        		.byte	0x0
 3300 0017 01        		.byte	0x1
 3301 0018 633A 2F77 		.ascii	"c:/winavr-20100110/lib/gcc/../../avr/include"
 3301      696E 6176 
 3301      722D 3230 
 3301      3130 3031 
 3301      3130 2F6C 
 3302 0044 00        		.byte	0
 3303 0045 7573 6264 		.ascii	"usbdrv"
 3303      7276 
 3304 004b 00        		.byte	0
 3305 004c 00        		.byte	0x0
 3306 004d 7573 626D 		.string	"usbmain.c"
 3306      6169 6E2E 
 3306      6300 
 3307 0057 00        		.uleb128 0x0
 3308 0058 00        		.uleb128 0x0
 3309 0059 00        		.uleb128 0x0
 3310 005a 7374 6469 		.string	"stdint.h"
 3310      6E74 2E68 
 3310      00
 3311 0063 01        		.uleb128 0x1
GAS LISTING C:\Users\ADMINI~1\AppData\Local\Temp/cc9J5r6C.s 			page 60


 3312 0064 00        		.uleb128 0x0
 3313 0065 00        		.uleb128 0x0
 3314 0066 7573 6264 		.string	"usbdrv.h"
 3314      7276 2E68 
 3314      00
 3315 006f 02        		.uleb128 0x2
 3316 0070 00        		.uleb128 0x0
 3317 0071 00        		.uleb128 0x0
 3318 0072 6B65 796D 		.string	"keymap.h"
 3318      6170 2E68 
 3318      00
 3319 007b 00        		.uleb128 0x0
 3320 007c 00        		.uleb128 0x0
 3321 007d 00        		.uleb128 0x0
 3322 007e 6861 7264 		.string	"hardwareinfo.h"
 3322      7761 7265 
 3322      696E 666F 
 3322      2E68 00
 3323 008d 00        		.uleb128 0x0
 3324 008e 00        		.uleb128 0x0
 3325 008f 00        		.uleb128 0x0
 3326 0090 6B65 796D 		.string	"keymatrix.h"
 3326      6174 7269 
 3326      782E 6800 
 3327 009c 00        		.uleb128 0x0
 3328 009d 00        		.uleb128 0x0
 3329 009e 00        		.uleb128 0x0
 3330 009f 6D61 6372 		.string	"macrobuffer.h"
 3330      6F62 7566 
 3330      6665 722E 
 3330      6800 
 3331 00ad 00        		.uleb128 0x0
 3332 00ae 00        		.uleb128 0x0
 3333 00af 00        		.uleb128 0x0
 3334 00b0 00        		.byte	0x0
 3335               	.LELTP0:
 3336 00b1 00        		.byte	0x0
 3337 00b2 05        		.uleb128 0x5
 3338 00b3 02        		.byte	0x2
 3339 00b4 0000 0000 		.long	.LM1
 3340 00b8 03        		.byte	0x3
 3341 00b9 9F03      		.sleb128 415
 3342 00bb 01        		.byte	0x1
 3343 00bc 00        		.byte	0x0
 3344 00bd 05        		.uleb128 0x5
 3345 00be 02        		.byte	0x2
 3346 00bf 0000 0000 		.long	.LM2
 3347 00c3 16        		.byte	0x16
 3348 00c4 00        		.byte	0x0
 3349 00c5 05        		.uleb128 0x5
 3350 00c6 02        		.byte	0x2
 3351 00c7 0000 0000 		.long	.LM3
 3352 00cb 16        		.byte	0x16
 3353 00cc 00        		.byte	0x0
 3354 00cd 05        		.uleb128 0x5
 3355 00ce 02        		.byte	0x2
 3356 00cf 0000 0000 		.long	.LM4
GAS LISTING C:\Users\ADMINI~1\AppData\Local\Temp/cc9J5r6C.s 			page 61


 3357 00d3 15        		.byte	0x15
 3358 00d4 00        		.byte	0x0
 3359 00d5 05        		.uleb128 0x5
 3360 00d6 02        		.byte	0x2
 3361 00d7 0000 0000 		.long	.LM5
 3362 00db 16        		.byte	0x16
 3363 00dc 00        		.byte	0x0
 3364 00dd 05        		.uleb128 0x5
 3365 00de 02        		.byte	0x2
 3366 00df 0000 0000 		.long	.LM6
 3367 00e3 15        		.byte	0x15
 3368 00e4 00        		.byte	0x0
 3369 00e5 05        		.uleb128 0x5
 3370 00e6 02        		.byte	0x2
 3371 00e7 0000 0000 		.long	.LM7
 3372 00eb 15        		.byte	0x15
 3373 00ec 00        		.byte	0x0
 3374 00ed 05        		.uleb128 0x5
 3375 00ee 02        		.byte	0x2
 3376 00ef 0000 0000 		.long	.LM8
 3377 00f3 15        		.byte	0x15
 3378 00f4 00        		.byte	0x0
 3379 00f5 05        		.uleb128 0x5
 3380 00f6 02        		.byte	0x2
 3381 00f7 0000 0000 		.long	.LM9
 3382 00fb 18        		.byte	0x18
 3383 00fc 00        		.byte	0x0
 3384 00fd 05        		.uleb128 0x5
 3385 00fe 02        		.byte	0x2
 3386 00ff 0000 0000 		.long	.LM10
 3387 0103 15        		.byte	0x15
 3388 0104 00        		.byte	0x0
 3389 0105 05        		.uleb128 0x5
 3390 0106 02        		.byte	0x2
 3391 0107 0000 0000 		.long	.LM11
 3392 010b 1A        		.byte	0x1a
 3393 010c 00        		.byte	0x0
 3394 010d 05        		.uleb128 0x5
 3395 010e 02        		.byte	0x2
 3396 010f 0000 0000 		.long	.LM12
 3397 0113 15        		.byte	0x15
 3398 0114 00        		.byte	0x0
 3399 0115 05        		.uleb128 0x5
 3400 0116 02        		.byte	0x2
 3401 0117 0000 0000 		.long	.LM13
 3402 011b 1C        		.byte	0x1c
 3403 011c 00        		.byte	0x0
 3404 011d 05        		.uleb128 0x5
 3405 011e 02        		.byte	0x2
 3406 011f 0000 0000 		.long	.LM14
 3407 0123 15        		.byte	0x15
 3408 0124 00        		.byte	0x0
 3409 0125 05        		.uleb128 0x5
 3410 0126 02        		.byte	0x2
 3411 0127 0000 0000 		.long	.LM15
 3412 012b 16        		.byte	0x16
 3413 012c 00        		.byte	0x0
GAS LISTING C:\Users\ADMINI~1\AppData\Local\Temp/cc9J5r6C.s 			page 62


 3414 012d 05        		.uleb128 0x5
 3415 012e 02        		.byte	0x2
 3416 012f 0000 0000 		.long	.LM16
 3417 0133 15        		.byte	0x15
 3418 0134 00        		.byte	0x0
 3419 0135 05        		.uleb128 0x5
 3420 0136 02        		.byte	0x2
 3421 0137 0000 0000 		.long	.LM17
 3422 013b 19        		.byte	0x19
 3423 013c 00        		.byte	0x0
 3424 013d 05        		.uleb128 0x5
 3425 013e 02        		.byte	0x2
 3426 013f 0000 0000 		.long	.LM18
 3427 0143 A2        		.byte	0xa2
 3428 0144 00        		.byte	0x0
 3429 0145 05        		.uleb128 0x5
 3430 0146 02        		.byte	0x2
 3431 0147 0000 0000 		.long	.LM19
 3432 014b 15        		.byte	0x15
 3433 014c 00        		.byte	0x0
 3434 014d 05        		.uleb128 0x5
 3435 014e 02        		.byte	0x2
 3436 014f 0000 0000 		.long	.LM20
 3437 0153 15        		.byte	0x15
 3438 0154 00        		.byte	0x0
 3439 0155 05        		.uleb128 0x5
 3440 0156 02        		.byte	0x2
 3441 0157 0000 0000 		.long	.LM21
 3442 015b 03        		.byte	0x3
 3443 015c F27E      		.sleb128 -142
 3444 015e 01        		.byte	0x1
 3445 015f 00        		.byte	0x0
 3446 0160 05        		.uleb128 0x5
 3447 0161 02        		.byte	0x2
 3448 0162 0000 0000 		.long	.LM22
 3449 0166 15        		.byte	0x15
 3450 0167 00        		.byte	0x0
 3451 0168 05        		.uleb128 0x5
 3452 0169 02        		.byte	0x2
 3453 016a 0000 0000 		.long	.LM23
 3454 016e 15        		.byte	0x15
 3455 016f 00        		.byte	0x0
 3456 0170 05        		.uleb128 0x5
 3457 0171 02        		.byte	0x2
 3458 0172 0000 0000 		.long	.LM24
 3459 0176 15        		.byte	0x15
 3460 0177 00        		.byte	0x0
 3461 0178 05        		.uleb128 0x5
 3462 0179 02        		.byte	0x2
 3463 017a 0000 0000 		.long	.LM25
 3464 017e 75        		.byte	0x75
 3465 017f 00        		.byte	0x0
 3466 0180 05        		.uleb128 0x5
 3467 0181 02        		.byte	0x2
 3468 0182 0000 0000 		.long	.LM26
 3469 0186 15        		.byte	0x15
 3470 0187 00        		.byte	0x0
GAS LISTING C:\Users\ADMINI~1\AppData\Local\Temp/cc9J5r6C.s 			page 63


 3471 0188 05        		.uleb128 0x5
 3472 0189 02        		.byte	0x2
 3473 018a 0000 0000 		.long	.LM27
 3474 018e 17        		.byte	0x17
 3475 018f 00        		.byte	0x0
 3476 0190 05        		.uleb128 0x5
 3477 0191 02        		.byte	0x2
 3478 0192 0000 0000 		.long	.LM28
 3479 0196 16        		.byte	0x16
 3480 0197 00        		.byte	0x0
 3481 0198 05        		.uleb128 0x5
 3482 0199 02        		.byte	0x2
 3483 019a 0000 0000 		.long	.LM29
 3484 019e 17        		.byte	0x17
 3485 019f 00        		.byte	0x0
 3486 01a0 05        		.uleb128 0x5
 3487 01a1 02        		.byte	0x2
 3488 01a2 0000 0000 		.long	.LM30
 3489 01a6 16        		.byte	0x16
 3490 01a7 00        		.byte	0x0
 3491 01a8 05        		.uleb128 0x5
 3492 01a9 02        		.byte	0x2
 3493 01aa 0000 0000 		.long	.LM31
 3494 01ae 15        		.byte	0x15
 3495 01af 00        		.byte	0x0
 3496 01b0 05        		.uleb128 0x5
 3497 01b1 02        		.byte	0x2
 3498 01b2 0000 0000 		.long	.LM32
 3499 01b6 1C        		.byte	0x1c
 3500 01b7 00        		.byte	0x0
 3501 01b8 05        		.uleb128 0x5
 3502 01b9 02        		.byte	0x2
 3503 01ba 0000 0000 		.long	.LM33
 3504 01be 0E        		.byte	0xe
 3505 01bf 00        		.byte	0x0
 3506 01c0 05        		.uleb128 0x5
 3507 01c1 02        		.byte	0x2
 3508 01c2 0000 0000 		.long	.LM34
 3509 01c6 17        		.byte	0x17
 3510 01c7 00        		.byte	0x0
 3511 01c8 05        		.uleb128 0x5
 3512 01c9 02        		.byte	0x2
 3513 01ca 0000 0000 		.long	.LM35
 3514 01ce 17        		.byte	0x17
 3515 01cf 00        		.byte	0x0
 3516 01d0 05        		.uleb128 0x5
 3517 01d1 02        		.byte	0x2
 3518 01d2 0000 0000 		.long	.LM36
 3519 01d6 15        		.byte	0x15
 3520 01d7 00        		.byte	0x0
 3521 01d8 05        		.uleb128 0x5
 3522 01d9 02        		.byte	0x2
 3523 01da 0000 0000 		.long	.LM37
 3524 01de 15        		.byte	0x15
 3525 01df 00        		.byte	0x0
 3526 01e0 05        		.uleb128 0x5
 3527 01e1 02        		.byte	0x2
GAS LISTING C:\Users\ADMINI~1\AppData\Local\Temp/cc9J5r6C.s 			page 64


 3528 01e2 0000 0000 		.long	.LM38
 3529 01e6 0A        		.byte	0xa
 3530 01e7 00        		.byte	0x0
 3531 01e8 05        		.uleb128 0x5
 3532 01e9 02        		.byte	0x2
 3533 01ea 0000 0000 		.long	.LM39
 3534 01ee 22        		.byte	0x22
 3535 01ef 00        		.byte	0x0
 3536 01f0 05        		.uleb128 0x5
 3537 01f1 02        		.byte	0x2
 3538 01f2 0000 0000 		.long	.LM40
 3539 01f6 16        		.byte	0x16
 3540 01f7 00        		.byte	0x0
 3541 01f8 05        		.uleb128 0x5
 3542 01f9 02        		.byte	0x2
 3543 01fa 0000 0000 		.long	.LM41
 3544 01fe 16        		.byte	0x16
 3545 01ff 00        		.byte	0x0
 3546 0200 05        		.uleb128 0x5
 3547 0201 02        		.byte	0x2
 3548 0202 0000 0000 		.long	.LM42
 3549 0206 15        		.byte	0x15
 3550 0207 00        		.byte	0x0
 3551 0208 05        		.uleb128 0x5
 3552 0209 02        		.byte	0x2
 3553 020a 0000 0000 		.long	.LM43
 3554 020e 15        		.byte	0x15
 3555 020f 00        		.byte	0x0
 3556 0210 05        		.uleb128 0x5
 3557 0211 02        		.byte	0x2
 3558 0212 0000 0000 		.long	.LM44
 3559 0216 1A        		.byte	0x1a
 3560 0217 00        		.byte	0x0
 3561 0218 05        		.uleb128 0x5
 3562 0219 02        		.byte	0x2
 3563 021a 0000 0000 		.long	.LM45
 3564 021e 03        		.byte	0x3
 3565 021f FB7E      		.sleb128 -133
 3566 0221 01        		.byte	0x1
 3567 0222 00        		.byte	0x0
 3568 0223 05        		.uleb128 0x5
 3569 0224 02        		.byte	0x2
 3570 0225 0000 0000 		.long	.LM46
 3571 0229 18        		.byte	0x18
 3572 022a 00        		.byte	0x0
 3573 022b 05        		.uleb128 0x5
 3574 022c 02        		.byte	0x2
 3575 022d 0000 0000 		.long	.LM47
 3576 0231 17        		.byte	0x17
 3577 0232 00        		.byte	0x0
 3578 0233 05        		.uleb128 0x5
 3579 0234 02        		.byte	0x2
 3580 0235 0000 0000 		.long	.LM48
 3581 0239 18        		.byte	0x18
 3582 023a 00        		.byte	0x0
 3583 023b 05        		.uleb128 0x5
 3584 023c 02        		.byte	0x2
GAS LISTING C:\Users\ADMINI~1\AppData\Local\Temp/cc9J5r6C.s 			page 65


 3585 023d 0000 0000 		.long	.LM49
 3586 0241 15        		.byte	0x15
 3587 0242 00        		.byte	0x0
 3588 0243 05        		.uleb128 0x5
 3589 0244 02        		.byte	0x2
 3590 0245 0000 0000 		.long	.LM50
 3591 0249 1A        		.byte	0x1a
 3592 024a 00        		.byte	0x0
 3593 024b 05        		.uleb128 0x5
 3594 024c 02        		.byte	0x2
 3595 024d 0000 0000 		.long	.LM51
 3596 0251 0E        		.byte	0xe
 3597 0252 00        		.byte	0x0
 3598 0253 05        		.uleb128 0x5
 3599 0254 02        		.byte	0x2
 3600 0255 0000 0000 		.long	.LM52
 3601 0259 1A        		.byte	0x1a
 3602 025a 00        		.byte	0x0
 3603 025b 05        		.uleb128 0x5
 3604 025c 02        		.byte	0x2
 3605 025d 0000 0000 		.long	.LM53
 3606 0261 15        		.byte	0x15
 3607 0262 00        		.byte	0x0
 3608 0263 05        		.uleb128 0x5
 3609 0264 02        		.byte	0x2
 3610 0265 0000 0000 		.long	.LM54
 3611 0269 16        		.byte	0x16
 3612 026a 00        		.byte	0x0
 3613 026b 05        		.uleb128 0x5
 3614 026c 02        		.byte	0x2
 3615 026d 0000 0000 		.long	.LM55
 3616 0271 17        		.byte	0x17
 3617 0272 00        		.byte	0x0
 3618 0273 05        		.uleb128 0x5
 3619 0274 02        		.byte	0x2
 3620 0275 0000 0000 		.long	.LM56
 3621 0279 0E        		.byte	0xe
 3622 027a 00        		.byte	0x0
 3623 027b 05        		.uleb128 0x5
 3624 027c 02        		.byte	0x2
 3625 027d 0000 0000 		.long	.LM57
 3626 0281 23        		.byte	0x23
 3627 0282 00        		.byte	0x0
 3628 0283 05        		.uleb128 0x5
 3629 0284 02        		.byte	0x2
 3630 0285 0000 0000 		.long	.LM58
 3631 0289 15        		.byte	0x15
 3632 028a 00        		.byte	0x0
 3633 028b 05        		.uleb128 0x5
 3634 028c 02        		.byte	0x2
 3635 028d 0000 0000 		.long	.LM59
 3636 0291 16        		.byte	0x16
 3637 0292 00        		.byte	0x0
 3638 0293 05        		.uleb128 0x5
 3639 0294 02        		.byte	0x2
 3640 0295 0000 0000 		.long	.LM60
 3641 0299 15        		.byte	0x15
GAS LISTING C:\Users\ADMINI~1\AppData\Local\Temp/cc9J5r6C.s 			page 66


 3642 029a 00        		.byte	0x0
 3643 029b 05        		.uleb128 0x5
 3644 029c 02        		.byte	0x2
 3645 029d 0000 0000 		.long	.LM61
 3646 02a1 18        		.byte	0x18
 3647 02a2 00        		.byte	0x0
 3648 02a3 05        		.uleb128 0x5
 3649 02a4 02        		.byte	0x2
 3650 02a5 0000 0000 		.long	.LM62
 3651 02a9 19        		.byte	0x19
 3652 02aa 00        		.byte	0x0
 3653 02ab 05        		.uleb128 0x5
 3654 02ac 02        		.byte	0x2
 3655 02ad 0000 0000 		.long	.LM63
 3656 02b1 15        		.byte	0x15
 3657 02b2 00        		.byte	0x0
 3658 02b3 05        		.uleb128 0x5
 3659 02b4 02        		.byte	0x2
 3660 02b5 0000 0000 		.long	.LM64
 3661 02b9 15        		.byte	0x15
 3662 02ba 00        		.byte	0x0
 3663 02bb 05        		.uleb128 0x5
 3664 02bc 02        		.byte	0x2
 3665 02bd 0000 0000 		.long	.LM65
 3666 02c1 16        		.byte	0x16
 3667 02c2 00        		.byte	0x0
 3668 02c3 05        		.uleb128 0x5
 3669 02c4 02        		.byte	0x2
 3670 02c5 0000 0000 		.long	.LM66
 3671 02c9 1C        		.byte	0x1c
 3672 02ca 00        		.byte	0x0
 3673 02cb 05        		.uleb128 0x5
 3674 02cc 02        		.byte	0x2
 3675 02cd 0000 0000 		.long	.LM67
 3676 02d1 18        		.byte	0x18
 3677 02d2 00        		.byte	0x0
 3678 02d3 05        		.uleb128 0x5
 3679 02d4 02        		.byte	0x2
 3680 02d5 0000 0000 		.long	.LM68
 3681 02d9 16        		.byte	0x16
 3682 02da 00        		.byte	0x0
 3683 02db 05        		.uleb128 0x5
 3684 02dc 02        		.byte	0x2
 3685 02dd 0000 0000 		.long	.LM69
 3686 02e1 03        		.byte	0x3
 3687 02e2 4F        		.sleb128 -49
 3688 02e3 01        		.byte	0x1
 3689 02e4 00        		.byte	0x0
 3690 02e5 05        		.uleb128 0x5
 3691 02e6 02        		.byte	0x2
 3692 02e7 0000 0000 		.long	.LM70
 3693 02eb 13        		.byte	0x13
 3694 02ec 00        		.byte	0x0
 3695 02ed 05        		.uleb128 0x5
 3696 02ee 02        		.byte	0x2
 3697 02ef 0000 0000 		.long	.LM71
 3698 02f3 18        		.byte	0x18
GAS LISTING C:\Users\ADMINI~1\AppData\Local\Temp/cc9J5r6C.s 			page 67


 3699 02f4 00        		.byte	0x0
 3700 02f5 05        		.uleb128 0x5
 3701 02f6 02        		.byte	0x2
 3702 02f7 0000 0000 		.long	.LM72
 3703 02fb 48        		.byte	0x48
 3704 02fc 00        		.byte	0x0
 3705 02fd 05        		.uleb128 0x5
 3706 02fe 02        		.byte	0x2
 3707 02ff 0000 0000 		.long	.LM73
 3708 0303 15        		.byte	0x15
 3709 0304 00        		.byte	0x0
 3710 0305 05        		.uleb128 0x5
 3711 0306 02        		.byte	0x2
 3712 0307 0000 0000 		.long	.LM74
 3713 030b 15        		.byte	0x15
 3714 030c 00        		.byte	0x0
 3715 030d 05        		.uleb128 0x5
 3716 030e 02        		.byte	0x2
 3717 030f 0000 0000 		.long	.LM75
 3718 0313 18        		.byte	0x18
 3719 0314 00        		.byte	0x0
 3720 0315 05        		.uleb128 0x5
 3721 0316 02        		.byte	0x2
 3722 0317 0000 0000 		.long	.LM76
 3723 031b 15        		.byte	0x15
 3724 031c 00        		.byte	0x0
 3725 031d 05        		.uleb128 0x5
 3726 031e 02        		.byte	0x2
 3727 031f 0000 0000 		.long	.LM77
 3728 0323 15        		.byte	0x15
 3729 0324 00        		.byte	0x0
 3730 0325 05        		.uleb128 0x5
 3731 0326 02        		.byte	0x2
 3732 0327 0000 0000 		.long	.LM78
 3733 032b 15        		.byte	0x15
 3734 032c 00        		.byte	0x0
 3735 032d 05        		.uleb128 0x5
 3736 032e 02        		.byte	0x2
 3737 032f 0000 0000 		.long	.LM79
 3738 0333 15        		.byte	0x15
 3739 0334 00        		.byte	0x0
 3740 0335 05        		.uleb128 0x5
 3741 0336 02        		.byte	0x2
 3742 0337 0000 0000 		.long	.LM80
 3743 033b 1A        		.byte	0x1a
 3744 033c 00        		.byte	0x0
 3745 033d 05        		.uleb128 0x5
 3746 033e 02        		.byte	0x2
 3747 033f 0000 0000 		.long	.LM81
 3748 0343 13        		.byte	0x13
 3749 0344 00        		.byte	0x0
 3750 0345 05        		.uleb128 0x5
 3751 0346 02        		.byte	0x2
 3752 0347 0000 0000 		.long	.LM82
 3753 034b 17        		.byte	0x17
 3754 034c 00        		.byte	0x0
 3755 034d 05        		.uleb128 0x5
GAS LISTING C:\Users\ADMINI~1\AppData\Local\Temp/cc9J5r6C.s 			page 68


 3756 034e 02        		.byte	0x2
 3757 034f 0000 0000 		.long	.LM83
 3758 0353 0F        		.byte	0xf
 3759 0354 00        		.byte	0x0
 3760 0355 05        		.uleb128 0x5
 3761 0356 02        		.byte	0x2
 3762 0357 0000 0000 		.long	.LM84
 3763 035b 1B        		.byte	0x1b
 3764 035c 00        		.byte	0x0
 3765 035d 05        		.uleb128 0x5
 3766 035e 02        		.byte	0x2
 3767 035f 0000 0000 		.long	.LM85
 3768 0363 15        		.byte	0x15
 3769 0364 00        		.byte	0x0
 3770 0365 05        		.uleb128 0x5
 3771 0366 02        		.byte	0x2
 3772 0367 0000 0000 		.long	.LM86
 3773 036b 13        		.byte	0x13
 3774 036c 00        		.byte	0x0
 3775 036d 05        		.uleb128 0x5
 3776 036e 02        		.byte	0x2
 3777 036f 0000 0000 		.long	.LM87
 3778 0373 4A        		.byte	0x4a
 3779 0374 00        		.byte	0x0
 3780 0375 05        		.uleb128 0x5
 3781 0376 02        		.byte	0x2
 3782 0377 0000 0000 		.long	.LM88
 3783 037b 16        		.byte	0x16
 3784 037c 00        		.byte	0x0
 3785 037d 05        		.uleb128 0x5
 3786 037e 02        		.byte	0x2
 3787 037f 0000 0000 		.long	.LM89
 3788 0383 1B        		.byte	0x1b
 3789 0384 00        		.byte	0x0
 3790 0385 05        		.uleb128 0x5
 3791 0386 02        		.byte	0x2
 3792 0387 0000 0000 		.long	.LM90
 3793 038b 2B        		.byte	0x2b
 3794 038c 00        		.byte	0x0
 3795 038d 05        		.uleb128 0x5
 3796 038e 02        		.byte	0x2
 3797 038f 0000 0000 		.long	.LM91
 3798 0393 03        		.byte	0x3
 3799 0394 70        		.sleb128 -16
 3800 0395 01        		.byte	0x1
 3801 0396 00        		.byte	0x0
 3802 0397 05        		.uleb128 0x5
 3803 0398 02        		.byte	0x2
 3804 0399 0000 0000 		.long	.LM92
 3805 039d 16        		.byte	0x16
 3806 039e 00        		.byte	0x0
 3807 039f 05        		.uleb128 0x5
 3808 03a0 02        		.byte	0x2
 3809 03a1 0000 0000 		.long	.LM93
 3810 03a5 5B        		.byte	0x5b
 3811 03a6 00        		.byte	0x0
 3812 03a7 05        		.uleb128 0x5
GAS LISTING C:\Users\ADMINI~1\AppData\Local\Temp/cc9J5r6C.s 			page 69


 3813 03a8 02        		.byte	0x2
 3814 03a9 0000 0000 		.long	.LM94
 3815 03ad 17        		.byte	0x17
 3816 03ae 00        		.byte	0x0
 3817 03af 05        		.uleb128 0x5
 3818 03b0 02        		.byte	0x2
 3819 03b1 0000 0000 		.long	.LM95
 3820 03b5 03        		.byte	0x3
 3821 03b6 BC7F      		.sleb128 -68
 3822 03b8 01        		.byte	0x1
 3823 03b9 00        		.byte	0x0
 3824 03ba 05        		.uleb128 0x5
 3825 03bb 02        		.byte	0x2
 3826 03bc 0000 0000 		.long	.LM96
 3827 03c0 16        		.byte	0x16
 3828 03c1 00        		.byte	0x0
 3829 03c2 05        		.uleb128 0x5
 3830 03c3 02        		.byte	0x2
 3831 03c4 0000 0000 		.long	.LM97
 3832 03c8 16        		.byte	0x16
 3833 03c9 00        		.byte	0x0
 3834 03ca 05        		.uleb128 0x5
 3835 03cb 02        		.byte	0x2
 3836 03cc 0000 0000 		.long	.LM98
 3837 03d0 17        		.byte	0x17
 3838 03d1 00        		.byte	0x0
 3839 03d2 05        		.uleb128 0x5
 3840 03d3 02        		.byte	0x2
 3841 03d4 0000 0000 		.long	.LM99
 3842 03d8 15        		.byte	0x15
 3843 03d9 00        		.byte	0x0
 3844 03da 05        		.uleb128 0x5
 3845 03db 02        		.byte	0x2
 3846 03dc 0000 0000 		.long	.LM100
 3847 03e0 15        		.byte	0x15
 3848 03e1 00        		.byte	0x0
 3849 03e2 05        		.uleb128 0x5
 3850 03e3 02        		.byte	0x2
 3851 03e4 0000 0000 		.long	.LM101
 3852 03e8 15        		.byte	0x15
 3853 03e9 00        		.byte	0x0
 3854 03ea 05        		.uleb128 0x5
 3855 03eb 02        		.byte	0x2
 3856 03ec 0000 0000 		.long	.LM102
 3857 03f0 15        		.byte	0x15
 3858 03f1 00        		.byte	0x0
 3859 03f2 05        		.uleb128 0x5
 3860 03f3 02        		.byte	0x2
 3861 03f4 0000 0000 		.long	.LM103
 3862 03f8 1C        		.byte	0x1c
 3863 03f9 00        		.byte	0x0
 3864 03fa 05        		.uleb128 0x5
 3865 03fb 02        		.byte	0x2
 3866 03fc 0000 0000 		.long	.LM104
 3867 0400 18        		.byte	0x18
 3868 0401 00        		.byte	0x0
 3869 0402 05        		.uleb128 0x5
GAS LISTING C:\Users\ADMINI~1\AppData\Local\Temp/cc9J5r6C.s 			page 70


 3870 0403 02        		.byte	0x2
 3871 0404 0000 0000 		.long	.LM105
 3872 0408 15        		.byte	0x15
 3873 0409 00        		.byte	0x0
 3874 040a 05        		.uleb128 0x5
 3875 040b 02        		.byte	0x2
 3876 040c 0000 0000 		.long	.LM106
 3877 0410 15        		.byte	0x15
 3878 0411 00        		.byte	0x0
 3879 0412 05        		.uleb128 0x5
 3880 0413 02        		.byte	0x2
 3881 0414 0000 0000 		.long	.LM107
 3882 0418 15        		.byte	0x15
 3883 0419 00        		.byte	0x0
 3884 041a 05        		.uleb128 0x5
 3885 041b 02        		.byte	0x2
 3886 041c 0000 0000 		.long	.LM108
 3887 0420 15        		.byte	0x15
 3888 0421 00        		.byte	0x0
 3889 0422 05        		.uleb128 0x5
 3890 0423 02        		.byte	0x2
 3891 0424 0000 0000 		.long	.LM109
 3892 0428 19        		.byte	0x19
 3893 0429 00        		.byte	0x0
 3894 042a 05        		.uleb128 0x5
 3895 042b 02        		.byte	0x2
 3896 042c 0000 0000 		.long	.LM110
 3897 0430 15        		.byte	0x15
 3898 0431 00        		.byte	0x0
 3899 0432 05        		.uleb128 0x5
 3900 0433 02        		.byte	0x2
 3901 0434 0000 0000 		.long	.LM111
 3902 0438 15        		.byte	0x15
 3903 0439 00        		.byte	0x0
 3904 043a 05        		.uleb128 0x5
 3905 043b 02        		.byte	0x2
 3906 043c 0000 0000 		.long	.LM112
 3907 0440 16        		.byte	0x16
 3908 0441 00        		.byte	0x0
 3909 0442 05        		.uleb128 0x5
 3910 0443 02        		.byte	0x2
 3911 0444 0000 0000 		.long	.LM113
 3912 0448 15        		.byte	0x15
 3913 0449 00        		.byte	0x0
 3914 044a 05        		.uleb128 0x5
 3915 044b 02        		.byte	0x2
 3916 044c 0000 0000 		.long	.LM114
 3917 0450 15        		.byte	0x15
 3918 0451 00        		.byte	0x0
 3919 0452 05        		.uleb128 0x5
 3920 0453 02        		.byte	0x2
 3921 0454 0000 0000 		.long	.LM115
 3922 0458 16        		.byte	0x16
 3923 0459 00        		.byte	0x0
 3924 045a 05        		.uleb128 0x5
 3925 045b 02        		.byte	0x2
 3926 045c 0000 0000 		.long	.LM116
GAS LISTING C:\Users\ADMINI~1\AppData\Local\Temp/cc9J5r6C.s 			page 71


 3927 0460 15        		.byte	0x15
 3928 0461 00        		.byte	0x0
 3929 0462 05        		.uleb128 0x5
 3930 0463 02        		.byte	0x2
 3931 0464 0000 0000 		.long	.LM117
 3932 0468 16        		.byte	0x16
 3933 0469 00        		.byte	0x0
 3934 046a 05        		.uleb128 0x5
 3935 046b 02        		.byte	0x2
 3936 046c 0000 0000 		.long	.LM118
 3937 0470 1B        		.byte	0x1b
 3938 0471 00        		.byte	0x0
 3939 0472 05        		.uleb128 0x5
 3940 0473 02        		.byte	0x2
 3941 0474 0000 0000 		.long	.LM119
 3942 0478 17        		.byte	0x17
 3943 0479 00        		.byte	0x0
 3944 047a 05        		.uleb128 0x5
 3945 047b 02        		.byte	0x2
 3946 047c 0000 0000 		.long	.LM120
 3947 0480 16        		.byte	0x16
 3948 0481 00        		.byte	0x0
 3949 0482 05        		.uleb128 0x5
 3950 0483 02        		.byte	0x2
 3951 0484 0000 0000 		.long	.LM121
 3952 0488 16        		.byte	0x16
 3953 0489 00        		.byte	0x0
 3954 048a 05        		.uleb128 0x5
 3955 048b 02        		.byte	0x2
 3956 048c 0000 0000 		.long	.LM122
 3957 0490 16        		.byte	0x16
 3958 0491 00        		.byte	0x0
 3959 0492 05        		.uleb128 0x5
 3960 0493 02        		.byte	0x2
 3961 0494 0000 0000 		.long	.LM123
 3962 0498 03        		.byte	0x3
 3963 0499 B67F      		.sleb128 -74
 3964 049b 01        		.byte	0x1
 3965 049c 00        		.byte	0x0
 3966 049d 05        		.uleb128 0x5
 3967 049e 02        		.byte	0x2
 3968 049f 0000 0000 		.long	.LM124
 3969 04a3 03        		.byte	0x3
 3970 04a4 A77E      		.sleb128 -217
 3971 04a6 01        		.byte	0x1
 3972 04a7 00        		.byte	0x0
 3973 04a8 05        		.uleb128 0x5
 3974 04a9 02        		.byte	0x2
 3975 04aa 0000 0000 		.long	.LM125
 3976 04ae 15        		.byte	0x15
 3977 04af 00        		.byte	0x0
 3978 04b0 05        		.uleb128 0x5
 3979 04b1 02        		.byte	0x2
 3980 04b2 0000 0000 		.long	.LM126
 3981 04b6 15        		.byte	0x15
 3982 04b7 00        		.byte	0x0
 3983 04b8 05        		.uleb128 0x5
GAS LISTING C:\Users\ADMINI~1\AppData\Local\Temp/cc9J5r6C.s 			page 72


 3984 04b9 02        		.byte	0x2
 3985 04ba 0000 0000 		.long	.LM127
 3986 04be 0B        		.byte	0xb
 3987 04bf 00        		.byte	0x0
 3988 04c0 05        		.uleb128 0x5
 3989 04c1 02        		.byte	0x2
 3990 04c2 0000 0000 		.long	.LM128
 3991 04c6 15        		.byte	0x15
 3992 04c7 00        		.byte	0x0
 3993 04c8 05        		.uleb128 0x5
 3994 04c9 02        		.byte	0x2
 3995 04ca 0000 0000 		.long	.LM129
 3996 04ce 15        		.byte	0x15
 3997 04cf 00        		.byte	0x0
 3998 04d0 05        		.uleb128 0x5
 3999 04d1 02        		.byte	0x2
 4000 04d2 0000 0000 		.long	.LM130
 4001 04d6 15        		.byte	0x15
 4002 04d7 00        		.byte	0x0
 4003 04d8 05        		.uleb128 0x5
 4004 04d9 02        		.byte	0x2
 4005 04da 0000 0000 		.long	.LM131
 4006 04de 15        		.byte	0x15
 4007 04df 00        		.byte	0x0
 4008 04e0 05        		.uleb128 0x5
 4009 04e1 02        		.byte	0x2
 4010 04e2 0000 0000 		.long	.LM132
 4011 04e6 03        		.byte	0x3
 4012 04e7 B17F      		.sleb128 -79
 4013 04e9 01        		.byte	0x1
 4014 04ea 00        		.byte	0x0
 4015 04eb 05        		.uleb128 0x5
 4016 04ec 02        		.byte	0x2
 4017 04ed 0000 0000 		.long	.LM133
 4018 04f1 16        		.byte	0x16
 4019 04f2 00        		.byte	0x0
 4020 04f3 05        		.uleb128 0x5
 4021 04f4 02        		.byte	0x2
 4022 04f5 0000 0000 		.long	.LM134
 4023 04f9 16        		.byte	0x16
 4024 04fa 00        		.byte	0x0
 4025 04fb 05        		.uleb128 0x5
 4026 04fc 02        		.byte	0x2
 4027 04fd 0000 0000 		.long	.LM135
 4028 0501 15        		.byte	0x15
 4029 0502 00        		.byte	0x0
 4030 0503 05        		.uleb128 0x5
 4031 0504 02        		.byte	0x2
 4032 0505 0000 0000 		.long	.LM136
 4033 0509 18        		.byte	0x18
 4034 050a 00        		.byte	0x0
 4035 050b 05        		.uleb128 0x5
 4036 050c 02        		.byte	0x2
 4037 050d 0000 0000 		.long	.LM137
 4038 0511 19        		.byte	0x19
 4039 0512 00        		.byte	0x0
 4040 0513 05        		.uleb128 0x5
GAS LISTING C:\Users\ADMINI~1\AppData\Local\Temp/cc9J5r6C.s 			page 73


 4041 0514 02        		.byte	0x2
 4042 0515 0000 0000 		.long	.LM138
 4043 0519 19        		.byte	0x19
 4044 051a 00        		.byte	0x0
 4045 051b 05        		.uleb128 0x5
 4046 051c 02        		.byte	0x2
 4047 051d 0000 0000 		.long	.LM139
 4048 0521 18        		.byte	0x18
 4049 0522 00        		.byte	0x0
 4050 0523 05        		.uleb128 0x5
 4051 0524 02        		.byte	0x2
 4052 0525 0000 0000 		.long	.LM140
 4053 0529 16        		.byte	0x16
 4054 052a 00        		.byte	0x0
 4055 052b 05        		.uleb128 0x5
 4056 052c 02        		.byte	0x2
 4057 052d 0000 0000 		.long	.LM141
 4058 0531 17        		.byte	0x17
 4059 0532 00        		.byte	0x0
 4060 0533 05        		.uleb128 0x5
 4061 0534 02        		.byte	0x2
 4062 0535 0000 0000 		.long	.LM142
 4063 0539 15        		.byte	0x15
 4064 053a 00        		.byte	0x0
 4065 053b 05        		.uleb128 0x5
 4066 053c 02        		.byte	0x2
 4067 053d 0000 0000 		.long	.LM143
 4068 0541 16        		.byte	0x16
 4069 0542 00        		.byte	0x0
 4070 0543 05        		.uleb128 0x5
 4071 0544 02        		.byte	0x2
 4072 0545 0000 0000 		.long	.LM144
 4073 0549 17        		.byte	0x17
 4074 054a 00        		.byte	0x0
 4075 054b 05        		.uleb128 0x5
 4076 054c 02        		.byte	0x2
 4077 054d 0000 0000 		.long	.LM145
 4078 0551 16        		.byte	0x16
 4079 0552 00        		.byte	0x0
 4080 0553 05        		.uleb128 0x5
 4081 0554 02        		.byte	0x2
 4082 0555 0000 0000 		.long	.LM146
 4083 0559 15        		.byte	0x15
 4084 055a 00        		.byte	0x0
 4085 055b 05        		.uleb128 0x5
 4086 055c 02        		.byte	0x2
 4087 055d 0000 0000 		.long	.LM147
 4088 0561 15        		.byte	0x15
 4089 0562 00        		.byte	0x0
 4090 0563 05        		.uleb128 0x5
 4091 0564 02        		.byte	0x2
 4092 0565 0000 0000 		.long	.LM148
 4093 0569 15        		.byte	0x15
 4094 056a 00        		.byte	0x0
 4095 056b 05        		.uleb128 0x5
 4096 056c 02        		.byte	0x2
 4097 056d 0000 0000 		.long	.LM149
GAS LISTING C:\Users\ADMINI~1\AppData\Local\Temp/cc9J5r6C.s 			page 74


 4098 0571 16        		.byte	0x16
 4099 0572 00        		.byte	0x0
 4100 0573 05        		.uleb128 0x5
 4101 0574 02        		.byte	0x2
 4102 0575 0000 0000 		.long	.LM150
 4103 0579 15        		.byte	0x15
 4104 057a 00        		.byte	0x0
 4105 057b 05        		.uleb128 0x5
 4106 057c 02        		.byte	0x2
 4107 057d 0000 0000 		.long	.LM151
 4108 0581 15        		.byte	0x15
 4109 0582 00        		.byte	0x0
 4110 0583 05        		.uleb128 0x5
 4111 0584 02        		.byte	0x2
 4112 0585 0000 0000 		.long	.LM152
 4113 0589 1B        		.byte	0x1b
 4114 058a 00        		.byte	0x0
 4115 058b 05        		.uleb128 0x5
 4116 058c 02        		.byte	0x2
 4117 058d 0000 0000 		.long	.LM153
 4118 0591 1F        		.byte	0x1f
 4119 0592 00        		.byte	0x0
 4120 0593 05        		.uleb128 0x5
 4121 0594 02        		.byte	0x2
 4122 0595 0000 0000 		.long	.LM154
 4123 0599 18        		.byte	0x18
 4124 059a 00        		.byte	0x0
 4125 059b 05        		.uleb128 0x5
 4126 059c 02        		.byte	0x2
 4127 059d 0000 0000 		.long	.LM155
 4128 05a1 16        		.byte	0x16
 4129 05a2 00        		.byte	0x0
 4130 05a3 05        		.uleb128 0x5
 4131 05a4 02        		.byte	0x2
 4132 05a5 0000 0000 		.long	.LM156
 4133 05a9 15        		.byte	0x15
 4134 05aa 00        		.byte	0x0
 4135 05ab 05        		.uleb128 0x5
 4136 05ac 02        		.byte	0x2
 4137 05ad 0000 0000 		.long	.LM157
 4138 05b1 16        		.byte	0x16
 4139 05b2 00        		.byte	0x0
 4140 05b3 05        		.uleb128 0x5
 4141 05b4 02        		.byte	0x2
 4142 05b5 0000 0000 		.long	.LM158
 4143 05b9 16        		.byte	0x16
 4144 05ba 00        		.byte	0x0
 4145 05bb 05        		.uleb128 0x5
 4146 05bc 02        		.byte	0x2
 4147 05bd 0000 0000 		.long	.Letext0
 4148 05c1 00        		.byte	0x0
 4149 05c2 01        		.uleb128 0x1
 4150 05c3 01        		.byte	0x1
 4151               	.LELT0:
 4152 05c4 1600 0000 		.section	.debug_str,"MS",@progbits,1
 4152      0200 1000 
 4152      0000 0101 
GAS LISTING C:\Users\ADMINI~1\AppData\Local\Temp/cc9J5r6C.s 			page 75


 4152      FB0E 0A00 
 4152      0101 0101 
 4153               	.LASF116:
 4154 0000 4B45 595F 		.string	"KEY_LSHIFT"
 4154      4C53 4849 
 4154      4654 00
 4155               	.LASF212:
 4156 000b 7265 706F 		.string	"reportIndex"
 4156      7274 496E 
 4156      6465 7800 
 4157               	.LASF162:
 4158 0017 7573 6252 		.string	"usbRequest"
 4158      6571 7565 
 4158      7374 00
 4159               	.LASF68:
 4160 0022 4B45 595F 		.string	"KEY_SLASH"
 4160      534C 4153 
 4160      4800 
 4161               	.LASF139:
 4162 002c 4B45 595F 		.string	"KEY_PLAY"
 4162      504C 4159 
 4162      00
 4163               	.LASF191:
 4164 0035 7573 6246 		.string	"usbFunctionWrite"
 4164      756E 6374 
 4164      696F 6E57 
 4164      7269 7465 
 4164      00
 4165               	.LASF95:
 4166 0046 4B45 595F 		.string	"KEY_NUMLOCK"
 4166      4E55 4D4C 
 4166      4F43 4B00 
 4167               	.LASF147:
 4168 0052 4B45 595F 		.string	"KEY_REC"
 4168      5245 4300 
 4169               	.LASF115:
 4170 005a 4B45 595F 		.string	"KEY_LCTRL"
 4170      4C43 5452 
 4170      4C00 
 4171               	.LASF79:
 4172 0064 4B45 595F 		.string	"KEY_F10"
 4172      4631 3000 
 4173               	.LASF80:
 4174 006c 4B45 595F 		.string	"KEY_F11"
 4174      4631 3100 
 4175               	.LASF81:
 4176 0074 4B45 595F 		.string	"KEY_F12"
 4176      4631 3200 
 4177               	.LASF206:
 4178 007c 494E 5445 		.string	"INTERFACE"
 4178      5246 4143 
 4178      4500 
 4179               	.LASF179:
 4180 0086 7072 6576 		.string	"prev"
 4180      00
 4181               	.LASF195:
 4182 008b 6578 7065 		.string	"expectReport"
GAS LISTING C:\Users\ADMINI~1\AppData\Local\Temp/cc9J5r6C.s 			page 76


 4182      6374 5265 
 4182      706F 7274 
 4182      00
 4183               	.LASF111:
 4184 0098 4B45 595F 		.string	"KEY_KP_DOT"
 4184      4B50 5F44 
 4184      4F54 00
 4185               	.LASF138:
 4186 00a3 4B45 595F 		.string	"KEY_STOP"
 4186      5354 4F50 
 4186      00
 4187               	.LASF216:
 4188 00ac 443A 5C67 		.string	"D:\\git2\\ps2avrU\\.git\\source"
 4188      6974 325C 
 4188      7073 3261 
 4188      7672 555C 
 4188      2E67 6974 
 4189               	.LASF169:
 4190 00c8 7265 7476 		.string	"retval"
 4190      616C 00
 4191               	.LASF89:
 4192 00cf 4B45 595F 		.string	"KEY_END"
 4192      454E 4400 
 4193               	.LASF6:
 4194 00d7 6C6F 6E67 		.string	"long long unsigned int"
 4194      206C 6F6E 
 4194      6720 756E 
 4194      7369 676E 
 4194      6564 2069 
 4195               	.LASF54:
 4196 00ee 4B45 595F 		.string	"KEY_BKSP"
 4196      424B 5350 
 4196      00
 4197               	.LASF88:
 4198 00f7 4B45 595F 		.string	"KEY_DEL"
 4198      4445 4C00 
 4199               	.LASF186:
 4200 00ff 636C 6561 		.string	"clearReportBuffer"
 4200      7252 6570 
 4200      6F72 7442 
 4200      7566 6665 
 4200      7200 
 4201               	.LASF184:
 4202 0111 7570 6461 		.string	"updateNeeded"
 4202      7465 4E65 
 4202      6564 6564 
 4202      00
 4203               	.LASF168:
 4204 011e 7573 6252 		.string	"usbRequest_t"
 4204      6571 7565 
 4204      7374 5F74 
 4204      00
 4205               	.LASF137:
 4206 012b 4B45 595F 		.string	"KEY_PREV_TRK"
 4206      5052 4556 
 4206      5F54 524B 
 4206      00
GAS LISTING C:\Users\ADMINI~1\AppData\Local\Temp/cc9J5r6C.s 			page 77


 4207               	.LASF63:
 4208 0138 4B45 595F 		.string	"KEY_COLON"
 4208      434F 4C4F 
 4208      4E00 
 4209               	.LASF125:
 4210 0142 4B45 595F 		.string	"KEY_POWER"
 4210      504F 5745 
 4210      5200 
 4211               	.LASF13:
 4212 014c 4B45 595F 		.string	"KEY_ErrorRollOver"
 4212      4572 726F 
 4212      7252 6F6C 
 4212      6C4F 7665 
 4212      7200 
 4213               	.LASF143:
 4214 015e 4B45 595F 		.string	"KEY_MEDIA"
 4214      4D45 4449 
 4214      4100 
 4215               	.LASF7:
 4216 0168 6C6F 6E67 		.string	"long long int"
 4216      206C 6F6E 
 4216      6720 696E 
 4216      7400 
 4217               	.LASF1:
 4218 0176 7369 676E 		.string	"signed char"
 4218      6564 2063 
 4218      6861 7200 
 4219               	.LASF98:
 4220 0182 4B45 595F 		.string	"KEY_KP_MINUS"
 4220      4B50 5F4D 
 4220      494E 5553 
 4220      00
 4221               	.LASF181:
 4222 018f 674B 6579 		.string	"gKeymapping"
 4222      6D61 7070 
 4222      696E 6700 
 4223               	.LASF170:
 4224 019b 674B 6579 		.string	"gKeyidxMulti"
 4224      6964 784D 
 4224      756C 7469 
 4224      00
 4225               	.LASF141:
 4226 01a8 4B45 595F 		.string	"KEY_VOL_UP"
 4226      564F 4C5F 
 4226      5550 00
 4227               	.LASF199:
 4228 01b3 6B65 7963 		.string	"keycode_USB_multimedia"
 4228      6F64 655F 
 4228      5553 425F 
 4228      6D75 6C74 
 4228      696D 6564 
 4229               	.LASF160:
 4230 01ca 7573 6257 		.string	"usbWord_t"
 4230      6F72 645F 
 4230      7400 
 4231               	.LASF213:
 4232 01d4 5F69 734D 		.string	"_isMultimediaPressed"
GAS LISTING C:\Users\ADMINI~1\AppData\Local\Temp/cc9J5r6C.s 			page 78


 4232      756C 7469 
 4232      6D65 6469 
 4232      6150 7265 
 4232      7373 6564 
 4233               	.LASF60:
 4234 01e9 4B45 595F 		.string	"KEY_RBR"
 4234      5242 5200 
 4235               	.LASF135:
 4236 01f1 4B45 595F 		.string	"KEY_WWW_FAVORITE"
 4236      5757 575F 
 4236      4641 564F 
 4236      5249 5445 
 4236      00
 4237               	.LASF5:
 4238 0202 6C6F 6E67 		.string	"long int"
 4238      2069 6E74 
 4238      00
 4239               	.LASF131:
 4240 020b 4B45 595F 		.string	"KEY_WWW_BACK"
 4240      5757 575F 
 4240      4241 434B 
 4240      00
 4241               	.LASF62:
 4242 0218 4B45 595F 		.string	"KEY_Europe1"
 4242      4575 726F 
 4242      7065 3100 
 4243               	.LASF112:
 4244 0224 4B45 595F 		.string	"KEY_Europe2"
 4244      4575 726F 
 4244      7065 3200 
 4245               	.LASF96:
 4246 0230 4B45 595F 		.string	"KEY_KP_SLASH"
 4246      4B50 5F53 
 4246      4C41 5348 
 4246      00
 4247               	.LASF91:
 4248 023d 4B45 595F 		.string	"KEY_RIGHT"
 4248      5249 4748 
 4248      5400 
 4249               	.LASF165:
 4250 0247 7756 616C 		.string	"wValue"
 4250      7565 00
 4251               	.LASF65:
 4252 024e 4B45 595F 		.string	"KEY_HASH"
 4252      4841 5348 
 4252      00
 4253               	.LASF121:
 4254 0257 4B45 595F 		.string	"KEY_RALT"
 4254      5241 4C54 
 4254      00
 4255               	.LASF11:
 4256 0260 7569 6E74 		.string	"uint16_t"
 4256      3136 5F74 
 4256      00
 4257               	.LASF134:
 4258 0269 4B45 595F 		.string	"KEY_WWW_REFRESH"
 4258      5757 575F 
GAS LISTING C:\Users\ADMINI~1\AppData\Local\Temp/cc9J5r6C.s 			page 79


 4258      5245 4652 
 4258      4553 4800 
 4259               	.LASF156:
 4260 0279 6275 6666 		.string	"buffer"
 4260      6572 00
 4261               	.LASF174:
 4262 0280 7363 616E 		.string	"scanMacroUsb"
 4262      4D61 6372 
 4262      6F55 7362 
 4262      00
 4263               	.LASF172:
 4264 028d 5F5F 7265 		.string	"__result"
 4264      7375 6C74 
 4264      00
 4265               	.LASF59:
 4266 0296 4B45 595F 		.string	"KEY_LBR"
 4266      4C42 5200 
 4267               	.LASF185:
 4268 029e 6964 6C65 		.string	"idleCounter"
 4268      436F 756E 
 4268      7465 7200 
 4269               	.LASF85:
 4270 02aa 4B45 595F 		.string	"KEY_INSERT"
 4270      494E 5345 
 4270      5254 00
 4271               	.LASF161:
 4272 02b5 7573 6254 		.string	"usbTxStatus"
 4272      7853 7461 
 4272      7475 7300 
 4273               	.LASF173:
 4274 02c1 6D61 6B65 		.string	"makeReportBuffer"
 4274      5265 706F 
 4274      7274 4275 
 4274      6666 6572 
 4274      00
 4275               	.LASF163:
 4276 02d2 626D 5265 		.string	"bmRequestType"
 4276      7175 6573 
 4276      7454 7970 
 4276      6500 
 4277               	.LASF214:
 4278 02e0 474E 5520 		.string	"GNU C 4.3.3"
 4278      4320 342E 
 4278      332E 3300 
 4279               	.LASF82:
 4280 02ec 4B45 595F 		.string	"KEY_PRNSCR"
 4280      5052 4E53 
 4280      4352 00
 4281               	.LASF90:
 4282 02f7 4B45 595F 		.string	"KEY_PGDN"
 4282      5047 444E 
 4282      00
 4283               	.LASF122:
 4284 0300 4B45 595F 		.string	"KEY_RGUI"
 4284      5247 5549 
 4284      00
 4285               	.LASF130:
GAS LISTING C:\Users\ADMINI~1\AppData\Local\Temp/cc9J5r6C.s 			page 80


 4286 0309 4B45 595F 		.string	"KEY_WWW_HOME"
 4286      5757 575F 
 4286      484F 4D45 
 4286      00
 4287               	.LASF8:
 4288 0316 756E 7369 		.string	"unsigned int"
 4288      676E 6564 
 4288      2069 6E74 
 4288      00
 4289               	.LASF194:
 4290 0323 7072 6F74 		.string	"protocolVer"
 4290      6F63 6F6C 
 4290      5665 7200 
 4291               	.LASF175:
 4292 032f 6749 6478 		.string	"gIdx"
 4292      00
 4293               	.LASF120:
 4294 0334 4B45 595F 		.string	"KEY_RSHIFT"
 4294      5253 4849 
 4294      4654 00
 4295               	.LASF83:
 4296 033f 4B45 595F 		.string	"KEY_SCRLCK"
 4296      5343 524C 
 4296      434B 00
 4297               	.LASF4:
 4298 034a 6C6F 6E67 		.string	"long unsigned int"
 4298      2075 6E73 
 4298      6967 6E65 
 4298      6420 696E 
 4298      7400 
 4299               	.LASF154:
 4300 035c 4B45 595F 		.string	"KEY_HANGLE"
 4300      4841 4E47 
 4300      4C45 00
 4301               	.LASF64:
 4302 0367 4B45 595F 		.string	"KEY_QUOTE"
 4302      5155 4F54 
 4302      4500 
 4303               	.LASF12:
 4304 0371 4B45 595F 		.string	"KEY_NONE"
 4304      4E4F 4E45 
 4304      00
 4305               	.LASF100:
 4306 037a 4B45 595F 		.string	"KEY_KP_ENTER"
 4306      4B50 5F45 
 4306      4E54 4552 
 4306      00
 4307               	.LASF92:
 4308 0387 4B45 595F 		.string	"KEY_LEFT"
 4308      4C45 4654 
 4308      00
 4309               	.LASF190:
 4310 0390 6461 7461 		.string	"data"
 4310      00
 4311               	.LASF99:
 4312 0395 4B45 595F 		.string	"KEY_KP_PLUS"
 4312      4B50 5F50 
GAS LISTING C:\Users\ADMINI~1\AppData\Local\Temp/cc9J5r6C.s 			page 81


 4312      4C55 5300 
 4313               	.LASF2:
 4314 03a1 7368 6F72 		.string	"short unsigned int"
 4314      7420 756E 
 4314      7369 676E 
 4314      6564 2069 
 4314      6E74 00
 4315               	.LASF215:
 4316 03b4 7573 626D 		.string	"usbmain.c"
 4316      6169 6E2E 
 4316      6300 
 4317               	.LASF217:
 4318 03be 7573 6257 		.string	"usbWord"
 4318      6F72 6400 
 4319               	.LASF69:
 4320 03c6 4B45 595F 		.string	"KEY_CAPS"
 4320      4341 5053 
 4320      00
 4321               	.LASF209:
 4322 03cf 7072 6576 		.string	"prevMatrix"
 4322      4D61 7472 
 4322      6978 00
 4323               	.LASF67:
 4324 03da 4B45 595F 		.string	"KEY_DOT"
 4324      444F 5400 
 4325               	.LASF200:
 4326 03e2 6B65 7963 		.string	"keycode_USB_extend"
 4326      6F64 655F 
 4326      5553 425F 
 4326      6578 7465 
 4326      6E64 00
 4327               	.LASF219:
 4328 03f5 7573 625F 		.string	"usb_main"
 4328      6D61 696E 
 4328      00
 4329               	.LASF205:
 4330 03fe 696E 7465 		.string	"interfaceReady"
 4330      7266 6163 
 4330      6552 6561 
 4330      6479 00
 4331               	.LASF149:
 4332 040d 4B45 595F 		.string	"KEY_MINIMIZE"
 4332      4D49 4E49 
 4332      4D49 5A45 
 4332      00
 4333               	.LASF207:
 4334 041a 6973 4265 		.string	"isBeyondFN"
 4334      796F 6E64 
 4334      464E 00
 4335               	.LASF210:
 4336 0425 6375 7272 		.string	"currentMatrix"
 4336      656E 744D 
 4336      6174 7269 
 4336      7800 
 4337               	.LASF56:
 4338 0433 4B45 595F 		.string	"KEY_SPACE"
 4338      5350 4143 
GAS LISTING C:\Users\ADMINI~1\AppData\Local\Temp/cc9J5r6C.s 			page 82


 4338      4500 
 4339               	.LASF126:
 4340 043d 4B45 595F 		.string	"KEY_SLEEP"
 4340      534C 4545 
 4340      5000 
 4341               	.LASF180:
 4342 0447 6B65 7969 		.string	"keyidx"
 4342      6478 00
 4343               	.LASF157:
 4344 044e 7573 6254 		.string	"usbTxStatus_t"
 4344      7853 7461 
 4344      7475 735F 
 4344      7400 
 4345               	.LASF151:
 4346 045c 4B45 595F 		.string	"KEY_Multimedia_end"
 4346      4D75 6C74 
 4346      696D 6564 
 4346      6961 5F65 
 4346      6E64 00
 4347               	.LASF15:
 4348 046f 4B45 595F 		.string	"KEY_ErrorUndefined"
 4348      4572 726F 
 4348      7255 6E64 
 4348      6566 696E 
 4348      6564 00
 4349               	.LASF133:
 4350 0482 4B45 595F 		.string	"KEY_WWW_STOP"
 4350      5757 575F 
 4350      5354 4F50 
 4350      00
 4351               	.LASF51:
 4352 048f 4B45 595F 		.string	"KEY_0"
 4352      3000 
 4353               	.LASF42:
 4354 0495 4B45 595F 		.string	"KEY_1"
 4354      3100 
 4355               	.LASF43:
 4356 049b 4B45 595F 		.string	"KEY_2"
 4356      3200 
 4357               	.LASF44:
 4358 04a1 4B45 595F 		.string	"KEY_3"
 4358      3300 
 4359               	.LASF45:
 4360 04a7 4B45 595F 		.string	"KEY_4"
 4360      3400 
 4361               	.LASF46:
 4362 04ad 4B45 595F 		.string	"KEY_5"
 4362      3500 
 4363               	.LASF47:
 4364 04b3 4B45 595F 		.string	"KEY_6"
 4364      3600 
 4365               	.LASF48:
 4366 04b9 4B45 595F 		.string	"KEY_7"
 4366      3700 
 4367               	.LASF49:
 4368 04bf 4B45 595F 		.string	"KEY_8"
 4368      3800 
GAS LISTING C:\Users\ADMINI~1\AppData\Local\Temp/cc9J5r6C.s 			page 83


 4369               	.LASF50:
 4370 04c5 4B45 595F 		.string	"KEY_9"
 4370      3900 
 4371               	.LASF57:
 4372 04cb 4B45 595F 		.string	"KEY_MINUS"
 4372      4D49 4E55 
 4372      5300 
 4373               	.LASF140:
 4374 04d5 4B45 595F 		.string	"KEY_MUTE"
 4374      4D55 5445 
 4374      00
 4375               	.LASF127:
 4376 04de 4B45 595F 		.string	"KEY_WAKE"
 4376      5741 4B45 
 4376      00
 4377               	.LASF16:
 4378 04e7 4B45 595F 		.string	"KEY_A"
 4378      4100 
 4379               	.LASF17:
 4380 04ed 4B45 595F 		.string	"KEY_B"
 4380      4200 
 4381               	.LASF18:
 4382 04f3 4B45 595F 		.string	"KEY_C"
 4382      4300 
 4383               	.LASF19:
 4384 04f9 4B45 595F 		.string	"KEY_D"
 4384      4400 
 4385               	.LASF20:
 4386 04ff 4B45 595F 		.string	"KEY_E"
 4386      4500 
 4387               	.LASF21:
 4388 0505 4B45 595F 		.string	"KEY_F"
 4388      4600 
 4389               	.LASF22:
 4390 050b 4B45 595F 		.string	"KEY_G"
 4390      4700 
 4391               	.LASF23:
 4392 0511 4B45 595F 		.string	"KEY_H"
 4392      4800 
 4393               	.LASF24:
 4394 0517 4B45 595F 		.string	"KEY_I"
 4394      4900 
 4395               	.LASF25:
 4396 051d 4B45 595F 		.string	"KEY_J"
 4396      4A00 
 4397               	.LASF26:
 4398 0523 4B45 595F 		.string	"KEY_K"
 4398      4B00 
 4399               	.LASF27:
 4400 0529 4B45 595F 		.string	"KEY_L"
 4400      4C00 
 4401               	.LASF28:
 4402 052f 4B45 595F 		.string	"KEY_M"
 4402      4D00 
 4403               	.LASF29:
 4404 0535 4B45 595F 		.string	"KEY_N"
 4404      4E00 
GAS LISTING C:\Users\ADMINI~1\AppData\Local\Temp/cc9J5r6C.s 			page 84


 4405               	.LASF30:
 4406 053b 4B45 595F 		.string	"KEY_O"
 4406      4F00 
 4407               	.LASF31:
 4408 0541 4B45 595F 		.string	"KEY_P"
 4408      5000 
 4409               	.LASF32:
 4410 0547 4B45 595F 		.string	"KEY_Q"
 4410      5100 
 4411               	.LASF33:
 4412 054d 4B45 595F 		.string	"KEY_R"
 4412      5200 
 4413               	.LASF34:
 4414 0553 4B45 595F 		.string	"KEY_S"
 4414      5300 
 4415               	.LASF35:
 4416 0559 4B45 595F 		.string	"KEY_T"
 4416      5400 
 4417               	.LASF36:
 4418 055f 4B45 595F 		.string	"KEY_U"
 4418      5500 
 4419               	.LASF37:
 4420 0565 4B45 595F 		.string	"KEY_V"
 4420      5600 
 4421               	.LASF38:
 4422 056b 4B45 595F 		.string	"KEY_W"
 4422      5700 
 4423               	.LASF39:
 4424 0571 4B45 595F 		.string	"KEY_X"
 4424      5800 
 4425               	.LASF40:
 4426 0577 4B45 595F 		.string	"KEY_Y"
 4426      5900 
 4427               	.LASF41:
 4428 057d 4B45 595F 		.string	"KEY_Z"
 4428      5A00 
 4429               	.LASF189:
 4430 0583 7573 6246 		.string	"usbFunctionSetup"
 4430      756E 6374 
 4430      696F 6E53 
 4430      6574 7570 
 4430      00
 4431               	.LASF192:
 4432 0594 7265 706F 		.string	"reportBuffer"
 4432      7274 4275 
 4432      6666 6572 
 4432      00
 4433               	.LASF204:
 4434 05a1 696E 7465 		.string	"interfaceCount"
 4434      7266 6163 
 4434      6543 6F75 
 4434      6E74 00
 4435               	.LASF136:
 4436 05b0 4B45 595F 		.string	"KEY_NEXT_TRK"
 4436      4E45 5854 
 4436      5F54 524B 
 4436      00
GAS LISTING C:\Users\ADMINI~1\AppData\Local\Temp/cc9J5r6C.s 			page 85


 4437               	.LASF177:
 4438 05bd 674B 6579 		.string	"gKeyidx"
 4438      6964 7800 
 4439               	.LASF97:
 4440 05c5 4B45 595F 		.string	"KEY_KP_AST"
 4440      4B50 5F41 
 4440      5354 00
 4441               	.LASF142:
 4442 05d0 4B45 595F 		.string	"KEY_VOL_DOWN"
 4442      564F 4C5F 
 4442      444F 574E 
 4442      00
 4443               	.LASF150:
 4444 05dd 4B45 595F 		.string	"KEY_EJECT"
 4444      454A 4543 
 4444      5400 
 4445               	.LASF123:
 4446 05e7 4B45 595F 		.string	"KEY_Modifiers_end"
 4446      4D6F 6469 
 4446      6669 6572 
 4446      735F 656E 
 4446      6400 
 4447               	.LASF178:
 4448 05f9 7363 616E 		.string	"scanKeyUSB"
 4448      4B65 7955 
 4448      5342 00
 4449               	.LASF0:
 4450 0604 756E 7369 		.string	"unsigned char"
 4450      676E 6564 
 4450      2063 6861 
 4450      7200 
 4451               	.LASF146:
 4452 0612 4B45 595F 		.string	"KEY_SCREENSAVE"
 4452      5343 5245 
 4452      454E 5341 
 4452      5645 00
 4453               	.LASF155:
 4454 0621 4B45 595F 		.string	"KEY_extend_end"
 4454      6578 7465 
 4454      6E64 5F65 
 4454      6E64 00
 4455               	.LASF66:
 4456 0630 4B45 595F 		.string	"KEY_COMMA"
 4456      434F 4D4D 
 4456      4100 
 4457               	.LASF166:
 4458 063a 7749 6E64 		.string	"wIndex"
 4458      6578 00
 4459               	.LASF55:
 4460 0641 4B45 595F 		.string	"KEY_TAB"
 4460      5441 4200 
 4461               	.LASF187:
 4462 0649 7072 6570 		.string	"prepareKeyMappingUsb"
 4462      6172 654B 
 4462      6579 4D61 
 4462      7070 696E 
 4462      6755 7362 
GAS LISTING C:\Users\ADMINI~1\AppData\Local\Temp/cc9J5r6C.s 			page 86


 4463               	.LASF3:
 4464 065e 7368 6F72 		.string	"short int"
 4464      7420 696E 
 4464      7400 
 4465               	.LASF218:
 4466 0668 6861 734D 		.string	"hasMacroUsb"
 4466      6163 726F 
 4466      5573 6200 
 4467               	.LASF93:
 4468 0674 4B45 595F 		.string	"KEY_DOWN"
 4468      444F 574E 
 4468      00
 4469               	.LASF58:
 4470 067d 4B45 595F 		.string	"KEY_EQUAL"
 4470      4551 5541 
 4470      4C00 
 4471               	.LASF183:
 4472 0687 7072 6576 		.string	"prevModifier"
 4472      4D6F 6469 
 4472      6669 6572 
 4472      00
 4473               	.LASF164:
 4474 0694 6252 6571 		.string	"bRequest"
 4474      7565 7374 
 4474      00
 4475               	.LASF196:
 4476 069d 5F69 7349 		.string	"_isInit"
 4476      6E69 7400 
 4477               	.LASF211:
 4478 06a5 5F70 7265 		.string	"_pressedBuffer"
 4478      7373 6564 
 4478      4275 6666 
 4478      6572 00
 4479               	.LASF84:
 4480 06b4 4B45 595F 		.string	"KEY_PAUSE"
 4480      5041 5553 
 4480      4500 
 4481               	.LASF101:
 4482 06be 4B45 595F 		.string	"KEY_KP_1"
 4482      4B50 5F31 
 4482      00
 4483               	.LASF102:
 4484 06c7 4B45 595F 		.string	"KEY_KP_2"
 4484      4B50 5F32 
 4484      00
 4485               	.LASF103:
 4486 06d0 4B45 595F 		.string	"KEY_KP_3"
 4486      4B50 5F33 
 4486      00
 4487               	.LASF87:
 4488 06d9 4B45 595F 		.string	"KEY_PGUP"
 4488      5047 5550 
 4488      00
 4489               	.LASF14:
 4490 06e2 4B45 595F 		.string	"KEY_POSTFail"
 4490      504F 5354 
 4490      4661 696C 
GAS LISTING C:\Users\ADMINI~1\AppData\Local\Temp/cc9J5r6C.s 			page 87


 4490      00
 4491               	.LASF106:
 4492 06ef 4B45 595F 		.string	"KEY_KP_6"
 4492      4B50 5F36 
 4492      00
 4493               	.LASF107:
 4494 06f8 4B45 595F 		.string	"KEY_KP_7"
 4494      4B50 5F37 
 4494      00
 4495               	.LASF108:
 4496 0701 4B45 595F 		.string	"KEY_KP_8"
 4496      4B50 5F38 
 4496      00
 4497               	.LASF52:
 4498 070a 4B45 595F 		.string	"KEY_ENTER"
 4498      454E 5445 
 4498      5200 
 4499               	.LASF53:
 4500 0714 4B45 595F 		.string	"KEY_ESC"
 4500      4553 4300 
 4501               	.LASF110:
 4502 071c 4B45 595F 		.string	"KEY_KP_0"
 4502      4B50 5F30 
 4502      00
 4503               	.LASF9:
 4504 0725 6368 6172 		.string	"char"
 4504      00
 4505               	.LASF153:
 4506 072a 4B45 595F 		.string	"KEY_HANJA"
 4506      4841 4E4A 
 4506      4100 
 4507               	.LASF105:
 4508 0734 4B45 595F 		.string	"KEY_KP_5"
 4508      4B50 5F35 
 4508      00
 4509               	.LASF159:
 4510 073d 6279 7465 		.string	"bytes"
 4510      7300 
 4511               	.LASF132:
 4512 0743 4B45 595F 		.string	"KEY_WWW_FORWARD"
 4512      5757 575F 
 4512      464F 5257 
 4512      4152 4400 
 4513               	.LASF109:
 4514 0753 4B45 595F 		.string	"KEY_KP_9"
 4514      4B50 5F39 
 4514      00
 4515               	.LASF104:
 4516 075c 4B45 595F 		.string	"KEY_KP_4"
 4516      4B50 5F34 
 4516      00
 4517               	.LASF128:
 4518 0765 4B45 595F 		.string	"KEY_EMAIL"
 4518      454D 4149 
 4518      4C00 
 4519               	.LASF203:
 4520 076f 7573 6254 		.string	"usbTxStatus1"
GAS LISTING C:\Users\ADMINI~1\AppData\Local\Temp/cc9J5r6C.s 			page 88


 4520      7853 7461 
 4520      7475 7331 
 4520      00
 4521               	.LASF208:
 4522 077c 6D6F 646D 		.string	"modmask"
 4522      6173 6B00 
 4523               	.LASF158:
 4524 0784 776F 7264 		.string	"word"
 4524      00
 4525               	.LASF171:
 4526 0789 5F5F 6164 		.string	"__addr16"
 4526      6472 3136 
 4526      00
 4527               	.LASF119:
 4528 0792 4B45 595F 		.string	"KEY_RCTRL"
 4528      5243 5452 
 4528      4C00 
 4529               	.LASF61:
 4530 079c 4B45 595F 		.string	"KEY_BKSLASH"
 4530      424B 534C 
 4530      4153 4800 
 4531               	.LASF144:
 4532 07a8 4B45 595F 		.string	"KEY_CALC"
 4532      4341 4C43 
 4532      00
 4533               	.LASF198:
 4534 07b1 5F6E 6565 		.string	"_needRelease"
 4534      6452 656C 
 4534      6561 7365 
 4534      00
 4535               	.LASF182:
 4536 07be 6B65 796D 		.string	"keymap"
 4536      6170 00
 4537               	.LASF197:
 4538 07c5 5F70 7265 		.string	"_prevPressedBuffer"
 4538      7650 7265 
 4538      7373 6564 
 4538      4275 6666 
 4538      6572 00
 4539               	.LASF176:
 4540 07d8 674C 656E 		.string	"gLen"
 4540      00
 4541               	.LASF117:
 4542 07dd 4B45 595F 		.string	"KEY_LALT"
 4542      4C41 4C54 
 4542      00
 4543               	.LASF70:
 4544 07e6 4B45 595F 		.string	"KEY_F1"
 4544      4631 00
 4545               	.LASF71:
 4546 07ed 4B45 595F 		.string	"KEY_F2"
 4546      4632 00
 4547               	.LASF72:
 4548 07f4 4B45 595F 		.string	"KEY_F3"
 4548      4633 00
 4549               	.LASF73:
 4550 07fb 4B45 595F 		.string	"KEY_F4"
GAS LISTING C:\Users\ADMINI~1\AppData\Local\Temp/cc9J5r6C.s 			page 89


 4550      4634 00
 4551               	.LASF74:
 4552 0802 4B45 595F 		.string	"KEY_F5"
 4552      4635 00
 4553               	.LASF75:
 4554 0809 4B45 595F 		.string	"KEY_F6"
 4554      4636 00
 4555               	.LASF76:
 4556 0810 4B45 595F 		.string	"KEY_F7"
 4556      4637 00
 4557               	.LASF77:
 4558 0817 4B45 595F 		.string	"KEY_F8"
 4558      4638 00
 4559               	.LASF10:
 4560 081e 7569 6E74 		.string	"uint8_t"
 4560      385F 7400 
 4561               	.LASF86:
 4562 0826 4B45 595F 		.string	"KEY_HOME"
 4562      484F 4D45 
 4562      00
 4563               	.LASF148:
 4564 082f 4B45 595F 		.string	"KEY_REWIND"
 4564      5245 5749 
 4564      4E44 00
 4565               	.LASF152:
 4566 083a 4B45 595F 		.string	"KEY_extend"
 4566      6578 7465 
 4566      6E64 00
 4567               	.LASF113:
 4568 0845 4B45 595F 		.string	"KEY_APPS"
 4568      4150 5053 
 4568      00
 4569               	.LASF129:
 4570 084e 4B45 595F 		.string	"KEY_WWW_SEARCH"
 4570      5757 575F 
 4570      5345 4152 
 4570      4348 00
 4571               	.LASF94:
 4572 085d 4B45 595F 		.string	"KEY_UP"
 4572      5550 00
 4573               	.LASF167:
 4574 0864 774C 656E 		.string	"wLength"
 4574      6774 6800 
 4575               	.LASF193:
 4576 086c 6964 6C65 		.string	"idleRate"
 4576      5261 7465 
 4576      00
 4577               	.LASF145:
 4578 0875 4B45 595F 		.string	"KEY_MYCOM"
 4578      4D59 434F 
 4578      4D00 
 4579               	.LASF78:
 4580 087f 4B45 595F 		.string	"KEY_F9"
 4580      4639 00
 4581               	.LASF202:
 4582 0886 7573 6244 		.string	"usbDescriptorHidReport"
 4582      6573 6372 
GAS LISTING C:\Users\ADMINI~1\AppData\Local\Temp/cc9J5r6C.s 			page 90


 4582      6970 746F 
 4582      7248 6964 
 4582      5265 706F 
 4583               	.LASF188:
 4584 089d 696E 6974 		.string	"initInterfaceUsb"
 4584      496E 7465 
 4584      7266 6163 
 4584      6555 7362 
 4584      00
 4585               	.LASF118:
 4586 08ae 4B45 595F 		.string	"KEY_LGUI"
 4586      4C47 5549 
 4586      00
 4587               	.LASF201:
 4588 08b7 7573 624D 		.string	"usbMsgPtr"
 4588      7367 5074 
 4588      7200 
 4589               	.LASF124:
 4590 08c1 4B45 595F 		.string	"KEY_Multimedia"
 4590      4D75 6C74 
 4590      696D 6564 
 4590      6961 00
 4591               	.LASF114:
 4592 08d0 4B45 595F 		.string	"KEY_Modifiers"
 4592      4D6F 6469 
 4592      6669 6572 
 4592      7300 
 4593               	.global __do_copy_data
 4594               	.global __do_clear_bss
GAS LISTING C:\Users\ADMINI~1\AppData\Local\Temp/cc9J5r6C.s 			page 91


DEFINED SYMBOLS
                            *ABS*:00000000 usbmain.c
C:\Users\ADMINI~1\AppData\Local\Temp/cc9J5r6C.s:2      *ABS*:0000003f __SREG__
C:\Users\ADMINI~1\AppData\Local\Temp/cc9J5r6C.s:3      *ABS*:0000003e __SP_H__
C:\Users\ADMINI~1\AppData\Local\Temp/cc9J5r6C.s:4      *ABS*:0000003d __SP_L__
C:\Users\ADMINI~1\AppData\Local\Temp/cc9J5r6C.s:5      *ABS*:00000034 __CCP__
C:\Users\ADMINI~1\AppData\Local\Temp/cc9J5r6C.s:6      *ABS*:00000000 __tmp_reg__
C:\Users\ADMINI~1\AppData\Local\Temp/cc9J5r6C.s:7      *ABS*:00000001 __zero_reg__
C:\Users\ADMINI~1\AppData\Local\Temp/cc9J5r6C.s:18     .text:00000000 makeReportBuffer
C:\Users\ADMINI~1\AppData\Local\Temp/cc9J5r6C.s:1080   .bss:00000000 _isMultimediaPressed
C:\Users\ADMINI~1\AppData\Local\Temp/cc9J5r6C.s:1085   .bss:00000005 reportBuffer
                            *COM*:00000001 reportIndex
C:\Users\ADMINI~1\AppData\Local\Temp/cc9J5r6C.s:148    .text:00000090 hasMacroUsb
C:\Users\ADMINI~1\AppData\Local\Temp/cc9J5r6C.s:1082   .bss:00000002 _needRelease
C:\Users\ADMINI~1\AppData\Local\Temp/cc9J5r6C.s:175    .text:000000ac clearReportBuffer
C:\Users\ADMINI~1\AppData\Local\Temp/cc9J5r6C.s:198    .text:000000c2 scanMacroUsb
C:\Users\ADMINI~1\AppData\Local\Temp/cc9J5r6C.s:1092   .bss:0000000e _prevPressedBuffer
C:\Users\ADMINI~1\AppData\Local\Temp/cc9J5r6C.s:336    .text:00000190 scanKeyUSB
C:\Users\ADMINI~1\AppData\Local\Temp/cc9J5r6C.s:1083   .bss:00000003 prevModifier.2297
C:\Users\ADMINI~1\AppData\Local\Temp/cc9J5r6C.s:633    .text:00000354 usb_main
C:\Users\ADMINI~1\AppData\Local\Temp/cc9J5r6C.s:1091   .bss:0000000d idleRate
                             .bss:00000001 _isInit
C:\Users\ADMINI~1\AppData\Local\Temp/cc9J5r6C.s:817    .text:00000462 prepareKeyMappingUsb
C:\Users\ADMINI~1\AppData\Local\Temp/cc9J5r6C.s:837    .text:00000472 initInterfaceUsb
C:\Users\ADMINI~1\AppData\Local\Temp/cc9J5r6C.s:856    .text:00000482 usbFunctionSetup
C:\Users\ADMINI~1\AppData\Local\Temp/cc9J5r6C.s:1084   .bss:00000004 expectReport
C:\Users\ADMINI~1\AppData\Local\Temp/cc9J5r6C.s:1089   .data:00000000 protocolVer
C:\Users\ADMINI~1\AppData\Local\Temp/cc9J5r6C.s:952    .text:00000506 usbFunctionWrite
C:\Users\ADMINI~1\AppData\Local\Temp/cc9J5r6C.s:989    .progmem.data:00000000 usbDescriptorHidReport

UNDEFINED SYMBOLS
keycode_USB_multimedia
modmask
keycode_USB_extend
isEmptyM
popMWithKey
_pressedBuffer
findIndex
memcpy
setCurrentMatrix
getLayer
prevMatrix
currentMatrix
getCurrentKeycode
applyMacro
applyFN
wakeUp
isKeyMapping
putKeyCode
applyKeyMapping
usbInit
INTERFACE
interfaceReady
interfaceCount
usbPoll
usbTxStatus1
usbSetInterrupt
GAS LISTING C:\Users\ADMINI~1\AppData\Local\Temp/cc9J5r6C.s 			page 92


startKeyMappingOnBoot
countSleep
isBeyondFN
renderLED
setMacroProcessEnd
initFullLEDState
usbMsgPtr
setLEDState
setLEDIndicate
__do_copy_data
__do_clear_bss
